
dhrystone.elf:     file format elf32-littleriscv
dhrystone.elf
architecture: riscv:rv32, flags 0x00000112:
EXEC_P, HAS_SYMS, D_PAGED
start address 0x80000000

Program Header:
    LOAD off    0x00001000 vaddr 0x80000000 paddr 0x80000000 align 2**12
         filesz 0x00009de8 memsz 0x00009de8 flags r-x
    LOAD off    0x0000b000 vaddr 0x90000000 paddr 0x80009de8 align 2**12
         filesz 0x00000240 memsz 0x00000240 flags rw-
    LOAD off    0x00000240 vaddr 0x90000240 paddr 0x90000240 align 2**12
         filesz 0x00000000 memsz 0x00002940 flags rw-
    LOAD off    0x00000800 vaddr 0x9000f800 paddr 0x90002b80 align 2**12
         filesz 0x00000000 memsz 0x00000800 flags rw-

Sections:
Idx Name              Size      VMA       LMA       File off  Algn  Flags
  0 .init             000000d0  80000000  80000000  00001000  2**0  CONTENTS, ALLOC, LOAD, READONLY, CODE
  1 .ilalign          00000000  800000d0  800000d0  0000b240  2**0  CONTENTS
  2 .text             0000903c  800000d0  800000d0  000010d0  2**2  CONTENTS, ALLOC, LOAD, READONLY, CODE
  3 .rodata           00000cd8  80009110  80009110  0000a110  2**3  CONTENTS, ALLOC, LOAD, READONLY, DATA
  4 .lalign           00000000  80009de8  80009de8  0000b240  2**0  CONTENTS
  5 .dalign           00000000  90000000  90000000  0000b240  2**0  CONTENTS
  6 .data             00000240  90000000  80009de8  0000b000  2**3  CONTENTS, ALLOC, LOAD, DATA
  7 .bss              00002940  90000240  90000240  0000b240  2**2  ALLOC
  8 .stack            00000800  9000f800  90002b80  0000b800  2**0  ALLOC
  9 .debug_info       00008011  00000000  00000000  0000b240  2**0  CONTENTS, READONLY, DEBUGGING, OCTETS
 10 .debug_abbrev     00002747  00000000  00000000  00013251  2**0  CONTENTS, READONLY, DEBUGGING, OCTETS
 11 .debug_loc        00007fa4  00000000  00000000  00015998  2**0  CONTENTS, READONLY, DEBUGGING, OCTETS
 12 .debug_aranges    000003d8  00000000  00000000  0001d940  2**3  CONTENTS, READONLY, DEBUGGING, OCTETS
 13 .debug_ranges     00001210  00000000  00000000  0001dd18  2**0  CONTENTS, READONLY, DEBUGGING, OCTETS
 14 .debug_line       0000b8eb  00000000  00000000  0001ef28  2**0  CONTENTS, READONLY, DEBUGGING, OCTETS
 15 .debug_str        0000250a  00000000  00000000  0002a813  2**0  CONTENTS, READONLY, DEBUGGING, OCTETS
 16 .comment          00000012  00000000  00000000  0002cd1d  2**0  CONTENTS, READONLY
 17 .riscv.attributes 00000025  00000000  00000000  0002cd2f  2**0  CONTENTS, READONLY
 18 .debug_frame      00000778  00000000  00000000  0002cd54  2**2  CONTENTS, READONLY, DEBUGGING, OCTETS
SYMBOL TABLE:
80000000 l    d  .init	00000000 .init
800000d0 l    d  .ilalign	00000000 .ilalign
800000d0 l    d  .text	00000000 .text
80009110 l    d  .rodata	00000000 .rodata
80009de8 l    d  .lalign	00000000 .lalign
90000000 l    d  .dalign	00000000 .dalign
90000000 l    d  .data	00000000 .data
90000240 l    d  .bss	00000000 .bss
9000f800 l    d  .stack	00000000 .stack
00000000 l    d  .debug_info	00000000 .debug_info
00000000 l    d  .debug_abbrev	00000000 .debug_abbrev
00000000 l    d  .debug_loc	00000000 .debug_loc
00000000 l    d  .debug_aranges	00000000 .debug_aranges
00000000 l    d  .debug_ranges	00000000 .debug_ranges
00000000 l    d  .debug_line	00000000 .debug_line
00000000 l    d  .debug_str	00000000 .debug_str
00000000 l    d  .comment	00000000 .comment
00000000 l    d  .riscv.attributes	00000000 .riscv.attributes
00000000 l    d  .debug_frame	00000000 .debug_frame
00000000 l    df *ABS*	00000000 
800008f8 l     F .text	0000008c measure_cpu_freq
80000984 l     F .text	00000020 get_cpu_freq
800009a4 l     F .text	00000040 Exception_Init
80000e90 l     F .text	00000050 system_default_exception_handler
800009e4 l     F .text	00000088 Interrupt_Init
80000ee0 l     F .text	00000058 system_default_interrupt_handler
80000a6c l     F .text	00000054 core_exception_handler
80000ac0 l     F .text	00000018 Func_1
80000ad8 l     F .text	0000000c Func_3
80000ae4 l     F .text	00000040 csr_cycle
80000b24 l     F .text	00000040 csr_instret
80000b64 l     F .text	0000001c time
80000b80 l     F .text	00000068 Proc_8.constprop.0.isra.0
9000034c l     O .bss	00002710 Arr_2_Glob
80000be8 l     F .text	000000c0 Proc_6.isra.0
80000ca8 l     F .text	00000010 Proc_7.isra.0
80000cb8 l     F .text	00000010 Proc_5.isra.0
80000cc8 l     F .text	00000028 Proc_4.isra.0
80000cf0 l     F .text	00000020 Proc_3.isra.0
80000d10 l     F .text	00000158 Proc_1.isra.0
80000e68 l     F .text	00000028 Proc_2.isra.0
80000f38 l     F .text	00000054 SystemBannerPrint
80000f8c l     F .text	00000068 Func_2
80000ff4 l     F .text	0000001c uart_read.constprop.0
80001010 l     F .text	00000018 uart_write.constprop.0.isra.0
80001028 l     F .text	00000018 gpio_iof_config.constprop.0.isra.0
80001040 l     F .text	0000004c uart_init.constprop.0.isra.0
90000284 l     O .bss	000000c8 Arr_1_Glob
90002a5c l     O .bss	00000028 SystemCoreInterruptHandlers
90002a84 l     O .bss	0000002c SystemExceptionHandlers
90002ab0 l     O .bss	00000044 SystemExtInterruptHandlers
90000240 l     O .bss	00000004 Begin_Cycle
90000244 l     O .bss	00000004 Begin_Instret
90000248 l     O .bss	00000004 Begin_Time
9000024c l     O .bss	00000004 Bool_Glob
90000250 l     O .bss	00000001 Ch_1_Glob
90000251 l     O .bss	00000001 Ch_2_Glob
90000254 l     O .bss	00000004 DMIPS_MHZ
90000258 l     O .bss	00000004 End_Cycle
9000025c l     O .bss	00000004 End_Instret
90000260 l     O .bss	00000004 End_Time
90000264 l     O .bss	00000004 Int_Glob
90000268 l     O .bss	00000004 Next_Ptr_Glob
9000026c l     O .bss	00000004 Ptr_Glob
90000270 l     O .bss	00000004 User_Cycle
900001d0 l     O .data	00000004 SystemCoreClock
900001d4 l     O .data	00000004 curbrk.0
00000000 l    df *ABS*	00000000 atexit.c
00000000 l    df *ABS*	00000000 fini.c
00000000 l    df *ABS*	00000000 init.c
00000000 l    df *ABS*	00000000 nano-vfprintf_float.c
00000000 l    df *ABS*	00000000 nano-vfprintf_i.c
00000000 l    df *ABS*	00000000 printf.c
00000000 l    df *ABS*	00000000 strlen.c
00000000 l    df *ABS*	00000000 sysisatty.c
00000000 l    df *ABS*	00000000 __atexit.c
90002af4 l     O .bss	0000008c _global_atexit0
00000000 l    df *ABS*	00000000 dtoa.c
80002944 l     F .text	000001cc quorem
00000000 l    df *ABS*	00000000 findfp.c
80003d04 l     F .text	00000088 std
00000000 l    df *ABS*	00000000 fwalk.c
00000000 l    df *ABS*	00000000 localeconv.c
00000000 l    df *ABS*	00000000 malloc.c
00000000 l    df *ABS*	00000000 mbtowc_r.c
00000000 l    df *ABS*	00000000 memchr.c
00000000 l    df *ABS*	00000000 memcpy.c
00000000 l    df *ABS*	00000000 mprec.c
80009ad0 l     O .rodata	0000000c p05.0
00000000 l    df *ABS*	00000000 nano-mallocr.c
00000000 l    df *ABS*	00000000 nano-mallocr.c
00000000 l    df *ABS*	00000000 nano-mallocr.c
00000000 l    df *ABS*	00000000 nano-vfprintf.c
800051a0 l     F .text	0000003c __sfputc_r
00000000 l    df *ABS*	00000000 sbrkr.c
00000000 l    df *ABS*	00000000 stdio.c
00000000 l    df *ABS*	00000000 wbuf.c
00000000 l    df *ABS*	00000000 wctomb_r.c
00000000 l    df *ABS*	00000000 writer.c
00000000 l    df *ABS*	00000000 wsetup.c
00000000 l    df *ABS*	00000000 assert.c
00000000 l    df *ABS*	00000000 closer.c
00000000 l    df *ABS*	00000000 fflush.c
00000000 l    df *ABS*	00000000 fprintf.c
00000000 l    df *ABS*	00000000 lseekr.c
00000000 l    df *ABS*	00000000 makebuf.c
00000000 l    df *ABS*	00000000 mlock.c
00000000 l    df *ABS*	00000000 readr.c
00000000 l    df *ABS*	00000000 abort.c
00000000 l    df *ABS*	00000000 fstatr.c
00000000 l    df *ABS*	00000000 isattyr.c
00000000 l    df *ABS*	00000000 signal.c
00000000 l    df *ABS*	00000000 signalr.c
00000000 l    df *ABS*	00000000 adddf3.c
00000000 l    df *ABS*	00000000 divdf3.c
00000000 l    df *ABS*	00000000 eqdf2.c
00000000 l    df *ABS*	00000000 gedf2.c
00000000 l    df *ABS*	00000000 ledf2.c
00000000 l    df *ABS*	00000000 muldf3.c
00000000 l    df *ABS*	00000000 subdf3.c
00000000 l    df *ABS*	00000000 unorddf2.c
00000000 l    df *ABS*	00000000 fixdfsi.c
00000000 l    df *ABS*	00000000 floatsidf.c
00000000 l    df *ABS*	00000000 floatunsidf.c
00000000 l    df *ABS*	00000000 trunctfdf2.c
00000000 l    df *ABS*	00000000 libgcc2.c
00000000 l    df *ABS*	00000000 libgcc2.c
00000000 l    df *ABS*	00000000 divsf3.c
00000000 l    df *ABS*	00000000 floatsisf.c
00000000 l    df *ABS*	00000000 extendsfdf2.c
00000000 l    df *ABS*	00000000 locale.c
00000000 l    df *ABS*	00000000 ctype_.c
00000000 l    df *ABS*	00000000 libgcc2.c
00000000 l    df *ABS*	00000000 impure.c
90000000 l     O .data	00000060 impure_data
00000000 l    df *ABS*	00000000 
00001766 l       .debug_info	00000000 
00001766 l       .debug_info	00000000 
00001766 l       .debug_info	00000000 
00001766 l       .debug_info	00000000 
00001766 l       .debug_info	00000000 
00001766 l       .debug_info	00000000 
00001766 l       .debug_info	00000000 
00001766 l       .debug_info	00000000 
00001766 l       .debug_info	00000000 
00001766 l       .debug_info	00000000 
00001766 l       .debug_info	00000000 
00001766 l       .debug_info	00000000 
00001766 l       .debug_info	00000000 
00001766 l       .debug_info	00000000 
00001766 l       .debug_info	00000000 
00001766 l       .debug_info	00000000 
00001766 l       .debug_info	00000000 
00001766 l       .debug_info	00000000 
00000000 l    df *ABS*	00000000 
000017fc l       .debug_info	00000000 
000017fc l       .debug_info	00000000 
000017fc l       .debug_info	00000000 
000017fc l       .debug_info	00000000 
000017fc l       .debug_info	00000000 
000017fc l       .debug_info	00000000 
000017fc l       .debug_info	00000000 
000017fc l       .debug_info	00000000 
000017fc l       .debug_info	00000000 
000017fc l       .debug_info	00000000 
000017fc l       .debug_info	00000000 
000017fc l       .debug_info	00000000 
000017fc l       .debug_info	00000000 
000017fc l       .debug_info	00000000 
000017fc l       .debug_info	00000000 
000017fc l       .debug_info	00000000 
000017fc l       .debug_info	00000000 
000017fc l       .debug_info	00000000 
00000000 l    df *ABS*	00000000 
00001888 l       .debug_info	00000000 
00001888 l       .debug_info	00000000 
00001888 l       .debug_info	00000000 
00001888 l       .debug_info	00000000 
00001888 l       .debug_info	00000000 
00001888 l       .debug_info	00000000 
00001888 l       .debug_info	00000000 
00001888 l       .debug_info	00000000 
00001888 l       .debug_info	00000000 
00001888 l       .debug_info	00000000 
00001888 l       .debug_info	00000000 
00001888 l       .debug_info	00000000 
00001888 l       .debug_info	00000000 
00001888 l       .debug_info	00000000 
00001888 l       .debug_info	00000000 
00001888 l       .debug_info	00000000 
00001888 l       .debug_info	00000000 
00001888 l       .debug_info	00000000 
00000000 l    df *ABS*	00000000 
00001b38 l       .debug_info	00000000 
00001b38 l       .debug_info	00000000 
00001b38 l       .debug_info	00000000 
00001b38 l       .debug_info	00000000 
00001b38 l       .debug_info	00000000 
00001b38 l       .debug_info	00000000 
00001b38 l       .debug_info	00000000 
00001b38 l       .debug_info	00000000 
00001b38 l       .debug_info	00000000 
00001b38 l       .debug_info	00000000 
00001b38 l       .debug_info	00000000 
00001b38 l       .debug_info	00000000 
00001b38 l       .debug_info	00000000 
00001b38 l       .debug_info	00000000 
00001b38 l       .debug_info	00000000 
00001b38 l       .debug_info	00000000 
00001b38 l       .debug_info	00000000 
00001b38 l       .debug_info	00000000 
00000000 l    df *ABS*	00000000 
00001bb6 l       .debug_info	00000000 
00001bb6 l       .debug_info	00000000 
00001bb6 l       .debug_info	00000000 
00001bb6 l       .debug_info	00000000 
00001bb6 l       .debug_info	00000000 
00001bb6 l       .debug_info	00000000 
00001bb6 l       .debug_info	00000000 
00001bb6 l       .debug_info	00000000 
00001bb6 l       .debug_info	00000000 
00001bb6 l       .debug_info	00000000 
00001bb6 l       .debug_info	00000000 
00001bb6 l       .debug_info	00000000 
00001bb6 l       .debug_info	00000000 
00001bb6 l       .debug_info	00000000 
00001bb6 l       .debug_info	00000000 
00001bb6 l       .debug_info	00000000 
00001bb6 l       .debug_info	00000000 
00001bb6 l       .debug_info	00000000 
00000000 l    df *ABS*	00000000 
00001c40 l       .debug_info	00000000 
00001c40 l       .debug_info	00000000 
00001c40 l       .debug_info	00000000 
00001c40 l       .debug_info	00000000 
00001c40 l       .debug_info	00000000 
00001c40 l       .debug_info	00000000 
00001c40 l       .debug_info	00000000 
00001c40 l       .debug_info	00000000 
00001c40 l       .debug_info	00000000 
00001c40 l       .debug_info	00000000 
00001c40 l       .debug_info	00000000 
00001c40 l       .debug_info	00000000 
00001c40 l       .debug_info	00000000 
00001c40 l       .debug_info	00000000 
00001c40 l       .debug_info	00000000 
00001c40 l       .debug_info	00000000 
00001c40 l       .debug_info	00000000 
00001c40 l       .debug_info	00000000 
00000000 l    df *ABS*	00000000 
00001ce3 l       .debug_info	00000000 
00001ce3 l       .debug_info	00000000 
00001ce3 l       .debug_info	00000000 
00001ce3 l       .debug_info	00000000 
00001ce3 l       .debug_info	00000000 
00001ce3 l       .debug_info	00000000 
00001ce3 l       .debug_info	00000000 
00001ce3 l       .debug_info	00000000 
00001ce3 l       .debug_info	00000000 
00001ce3 l       .debug_info	00000000 
00001ce3 l       .debug_info	00000000 
00001ce3 l       .debug_info	00000000 
00001ce3 l       .debug_info	00000000 
00001ce3 l       .debug_info	00000000 
00001ce3 l       .debug_info	00000000 
00001ce3 l       .debug_info	00000000 
00001ce3 l       .debug_info	00000000 
00001ce3 l       .debug_info	00000000 
00000000 l    df *ABS*	00000000 
00001d86 l       .debug_info	00000000 
00001d86 l       .debug_info	00000000 
00001d86 l       .debug_info	00000000 
00001d86 l       .debug_info	00000000 
00001d86 l       .debug_info	00000000 
00001d86 l       .debug_info	00000000 
00001d86 l       .debug_info	00000000 
00001d86 l       .debug_info	00000000 
00001d86 l       .debug_info	00000000 
00001d86 l       .debug_info	00000000 
00001d86 l       .debug_info	00000000 
00001d86 l       .debug_info	00000000 
00001d86 l       .debug_info	00000000 
00001d86 l       .debug_info	00000000 
00001d86 l       .debug_info	00000000 
00001d86 l       .debug_info	00000000 
00001d86 l       .debug_info	00000000 
00001d86 l       .debug_info	00000000 
00000000 l    df *ABS*	00000000 
00001f85 l       .debug_info	00000000 
00001f85 l       .debug_info	00000000 
00001f85 l       .debug_info	00000000 
00001f85 l       .debug_info	00000000 
00001f85 l       .debug_info	00000000 
00001f85 l       .debug_info	00000000 
00001f85 l       .debug_info	00000000 
00001f85 l       .debug_info	00000000 
00001f85 l       .debug_info	00000000 
00001f85 l       .debug_info	00000000 
00001f85 l       .debug_info	00000000 
00001f85 l       .debug_info	00000000 
00001f85 l       .debug_info	00000000 
00001f85 l       .debug_info	00000000 
00001f85 l       .debug_info	00000000 
00001f85 l       .debug_info	00000000 
00001f85 l       .debug_info	00000000 
00001f85 l       .debug_info	00000000 
00001f85 l       .debug_info	00000000 
00000000 l    df *ABS*	00000000 
00002053 l       .debug_info	00000000 
00002053 l       .debug_info	00000000 
00002053 l       .debug_info	00000000 
00002053 l       .debug_info	00000000 
00002053 l       .debug_info	00000000 
00002053 l       .debug_info	00000000 
00002053 l       .debug_info	00000000 
00002053 l       .debug_info	00000000 
00002053 l       .debug_info	00000000 
00002053 l       .debug_info	00000000 
00002053 l       .debug_info	00000000 
00002053 l       .debug_info	00000000 
00002053 l       .debug_info	00000000 
00002053 l       .debug_info	00000000 
00002053 l       .debug_info	00000000 
00002053 l       .debug_info	00000000 
00002053 l       .debug_info	00000000 
00002053 l       .debug_info	00000000 
00000000 l    df *ABS*	00000000 
00002268 l       .debug_info	00000000 
00002268 l       .debug_info	00000000 
00002268 l       .debug_info	00000000 
00002268 l       .debug_info	00000000 
00002268 l       .debug_info	00000000 
00002268 l       .debug_info	00000000 
00002268 l       .debug_info	00000000 
00002268 l       .debug_info	00000000 
00002268 l       .debug_info	00000000 
00002268 l       .debug_info	00000000 
00002268 l       .debug_info	00000000 
00002268 l       .debug_info	00000000 
00002268 l       .debug_info	00000000 
00002268 l       .debug_info	00000000 
00002268 l       .debug_info	00000000 
00002268 l       .debug_info	00000000 
00002268 l       .debug_info	00000000 
00002268 l       .debug_info	00000000 
00002268 l       .debug_info	00000000 
00002268 l       .debug_info	00000000 
00002268 l       .debug_info	00000000 
00002268 l       .debug_info	00000000 
00002268 l       .debug_info	00000000 
00002268 l       .debug_info	00000000 
00002268 l       .debug_info	00000000 
00002268 l       .debug_info	00000000 
00000000 l    df *ABS*	00000000 
00002546 l       .debug_info	00000000 
00002546 l       .debug_info	00000000 
00002546 l       .debug_info	00000000 
00002546 l       .debug_info	00000000 
00002546 l       .debug_info	00000000 
00002546 l       .debug_info	00000000 
00002546 l       .debug_info	00000000 
00002546 l       .debug_info	00000000 
00002546 l       .debug_info	00000000 
00002546 l       .debug_info	00000000 
00002546 l       .debug_info	00000000 
00002546 l       .debug_info	00000000 
00002546 l       .debug_info	00000000 
00002546 l       .debug_info	00000000 
00002546 l       .debug_info	00000000 
00002546 l       .debug_info	00000000 
00002546 l       .debug_info	00000000 
00002546 l       .debug_info	00000000 
00002546 l       .debug_info	00000000 
00002546 l       .debug_info	00000000 
00002546 l       .debug_info	00000000 
00002546 l       .debug_info	00000000 
00002546 l       .debug_info	00000000 
00002546 l       .debug_info	00000000 
00002546 l       .debug_info	00000000 
00002546 l       .debug_info	00000000 
00002546 l       .debug_info	00000000 
00002546 l       .debug_info	00000000 
00002546 l       .debug_info	00000000 
00002546 l       .debug_info	00000000 
00002546 l       .debug_info	00000000 
00002546 l       .debug_info	00000000 
00002546 l       .debug_info	00000000 
00000000 l    df *ABS*	00000000 
0000297d l       .debug_info	00000000 
0000297d l       .debug_info	00000000 
0000297d l       .debug_info	00000000 
0000297d l       .debug_info	00000000 
0000297d l       .debug_info	00000000 
0000297d l       .debug_info	00000000 
0000297d l       .debug_info	00000000 
0000297d l       .debug_info	00000000 
0000297d l       .debug_info	00000000 
0000297d l       .debug_info	00000000 
0000297d l       .debug_info	00000000 
0000297d l       .debug_info	00000000 
0000297d l       .debug_info	00000000 
0000297d l       .debug_info	00000000 
0000297d l       .debug_info	00000000 
0000297d l       .debug_info	00000000 
0000297d l       .debug_info	00000000 
0000297d l       .debug_info	00000000 
0000297d l       .debug_info	00000000 
0000297d l       .debug_info	00000000 
00000000 l    df *ABS*	00000000 
00002baa l       .debug_info	00000000 
00002baa l       .debug_info	00000000 
00002baa l       .debug_info	00000000 
00002baa l       .debug_info	00000000 
00002baa l       .debug_info	00000000 
00002baa l       .debug_info	00000000 
00002baa l       .debug_info	00000000 
00002baa l       .debug_info	00000000 
00002baa l       .debug_info	00000000 
00002baa l       .debug_info	00000000 
00002baa l       .debug_info	00000000 
00002baa l       .debug_info	00000000 
00002baa l       .debug_info	00000000 
00002baa l       .debug_info	00000000 
00002baa l       .debug_info	00000000 
00002baa l       .debug_info	00000000 
00002baa l       .debug_info	00000000 
00002baa l       .debug_info	00000000 
00002baa l       .debug_info	00000000 
00002baa l       .debug_info	00000000 
00002baa l       .debug_info	00000000 
00002baa l       .debug_info	00000000 
00002baa l       .debug_info	00000000 
00002baa l       .debug_info	00000000 
00002baa l       .debug_info	00000000 
00002baa l       .debug_info	00000000 
00002baa l       .debug_info	00000000 
00002baa l       .debug_info	00000000 
00002baa l       .debug_info	00000000 
00002baa l       .debug_info	00000000 
00002baa l       .debug_info	00000000 
00002baa l       .debug_info	00000000 
00002baa l       .debug_info	00000000 
00002baa l       .debug_info	00000000 
00002baa l       .debug_info	00000000 
00002baa l       .debug_info	00000000 
00002baa l       .debug_info	00000000 
00002baa l       .debug_info	00000000 
00000000 l    df *ABS*	00000000 
0000342b l       .debug_info	00000000 
0000342b l       .debug_info	00000000 
0000342b l       .debug_info	00000000 
0000342b l       .debug_info	00000000 
0000342b l       .debug_info	00000000 
0000342b l       .debug_info	00000000 
0000342b l       .debug_info	00000000 
0000342b l       .debug_info	00000000 
0000342b l       .debug_info	00000000 
0000342b l       .debug_info	00000000 
0000342b l       .debug_info	00000000 
0000342b l       .debug_info	00000000 
0000342b l       .debug_info	00000000 
0000342b l       .debug_info	00000000 
0000342b l       .debug_info	00000000 
0000342b l       .debug_info	00000000 
0000342b l       .debug_info	00000000 
0000342b l       .debug_info	00000000 
0000342b l       .debug_info	00000000 
0000342b l       .debug_info	00000000 
0000342b l       .debug_info	00000000 
0000342b l       .debug_info	00000000 
0000342b l       .debug_info	00000000 
00000000 l    df *ABS*	00000000 
00003955 l       .debug_info	00000000 
00003955 l       .debug_info	00000000 
00003955 l       .debug_info	00000000 
00003955 l       .debug_info	00000000 
00003955 l       .debug_info	00000000 
00003955 l       .debug_info	00000000 
00003955 l       .debug_info	00000000 
00003955 l       .debug_info	00000000 
00003955 l       .debug_info	00000000 
00003955 l       .debug_info	00000000 
00003955 l       .debug_info	00000000 
00003955 l       .debug_info	00000000 
00003955 l       .debug_info	00000000 
00003955 l       .debug_info	00000000 
00003955 l       .debug_info	00000000 
00003955 l       .debug_info	00000000 
00003955 l       .debug_info	00000000 
00003955 l       .debug_info	00000000 
00003955 l       .debug_info	00000000 
00003955 l       .debug_info	00000000 
00003955 l       .debug_info	00000000 
00003955 l       .debug_info	00000000 
00003955 l       .debug_info	00000000 
00000000 l    df *ABS*	00000000 
00003bdb l       .debug_info	00000000 
00003bdb l       .debug_info	00000000 
00003bdb l       .debug_info	00000000 
00003bdb l       .debug_info	00000000 
00003bdb l       .debug_info	00000000 
00003bdb l       .debug_info	00000000 
00003bdb l       .debug_info	00000000 
00003bdb l       .debug_info	00000000 
00003bdb l       .debug_info	00000000 
00003bdb l       .debug_info	00000000 
00003bdb l       .debug_info	00000000 
00003bdb l       .debug_info	00000000 
00003bdb l       .debug_info	00000000 
00003bdb l       .debug_info	00000000 
00003bdb l       .debug_info	00000000 
00003bdb l       .debug_info	00000000 
00003bdb l       .debug_info	00000000 
00003bdb l       .debug_info	00000000 
00003bdb l       .debug_info	00000000 
00003bdb l       .debug_info	00000000 
00000000 l    df *ABS*	00000000 
80009de8 l       .rodata	00000000 __fini_array_end
80009de8 l       .rodata	00000000 __fini_array_start
80009de8 l       .rodata	00000000 __init_array_end
80009de8 l       .rodata	00000000 __preinit_array_end
80009de8 l       .rodata	00000000 __init_array_start
80009de8 l       .rodata	00000000 __preinit_array_start
8000190c g     F .text	00000158 __cvt
8000620c g     F .text	00000040 _isatty_r
800010d0 g     F .text	00000008 _getpid
80005f98 g     F .text	00000048 _lseek_r
80007210 g     F .text	0000008c .hidden __eqdf2
00001ce3  w      .debug_info	00000000 .hidden lseek.c.cce6511d
8000630c g     F .text	00000044 _kill_r
80002810 g     F .text	00000070 printf
900009d0 g       .data	00000000 __global_pointer$
80005728 g     F .text	00000058 __sseek
80003e04 g     F .text	000000b0 __sinit
80005904 g     F .text	00000138 __swbuf_r
80003d98 g     F .text	0000006c __sfmoreglue
80006164 g     F .text	00000004 __malloc_unlock
80008bf0 g     F .text	00000338 .hidden __divsf3
800042c8 g     F .text	000000e0 _Balloc
8000729c g     F .text	000000e4 .hidden __gtdf2
800061c8 g     F .text	00000044 _fstat_r
90000274 g     O .bss	00000004 errno
00000800 g       *ABS*	00000000 __stack_size
00003955  w      .debug_info	00000000 .hidden dhry_2.c.68f4ac45
80009de8 g       .rodata	00000000 __rt_init_start
80009de8 g       .rodata	00000000 __fsymtab_end
800000d0 g       .ilalign	00000000 _ilm_lma
800040e8 g     F .text	00000104 memcpy
00001766  w      .debug_info	00000000 .hidden close.c.d9031221
80003d8c g     F .text	0000000c _cleanup_r
800082e8 g     F .text	000000a8 .hidden __floatsidf
80007380 g     F .text	000000e4 .hidden __ltdf2
80009de8 g       .rodata	00000000 __rt_init_end
80004058 g     F .text	00000010 malloc
8000289c g     F .text	00000004 isatty
8000624c g     F .text	000000b0 _raise_r
800010a4 g     F .text	0000002c _fstat
80005c2c g     F .text	00000050 __assert_func
80009a08 g     O .rodata	000000c8 __mprec_tens
00002546  w      .debug_info	00000000 .hidden hbirdv2_uart.c.43aed472
80006350 g     F .text	00000004 _getpid_r
8000404c g     F .text	0000000c _localeconv_r
80004660 g     F .text	00000054 __i2b
80005614 g     F .text	00000040 _sbrk_r
0000342b  w      .debug_info	00000000 .hidden dhry_1.c.efe900bc
00001bb6  w      .debug_info	00000000 .hidden isatty.c.bcdb4ecc
80006168 g     F .text	00000048 _read_r
80009de8 g       .rodata	00000000 _eilm
80009030 g     F .text	000000dc .hidden __extendsfdf2
00001f85  w      .debug_info	00000000 .hidden sbrk.c.137eb45a
80006354 g     F .text	000007d8 .hidden __adddf3
9000f800 g       .stack	00000000 _heap_end
00002268  w      .debug_info	00000000 .hidden hbirdv2_gpio.c.b963d517
800010d8 g     F .text	00000008 _isatty
9000023c g     O .data	00000004 _global_impure_ptr
80001878 g     F .text	00000094 __libc_init_array
800087bc g     F .text	00000434 .hidden __udivdi3
800099e0 g     O .rodata	00000028 __mprec_bigtens
800061b0 g     F .text	00000018 abort
80008390 g     F .text	00000080 .hidden __floatunsidf
80001130 g     F .text	00000040 _sbrk
80004b64 g     F .text	00000054 __mcmp
00001d86  w      .debug_info	00000000 .hidden read.c.65b3c1c1
80001820 g     F .text	00000058 __libc_fini_array
8000453c g     F .text	00000074 __hi0bits
800000d0 g       .ilalign	00000000 _ilm
00002053  w      .debug_info	00000000 .hidden write.c.9194bd22
80008268 g     F .text	00000080 .hidden __fixdfsi
800014e0 g     F .text	00000258 _premain_init
80005f50 g     F .text	00000048 fprintf
80007380 g     F .text	000000e4 .hidden __ledf2
800048bc g     F .text	00000124 __pow5mult
80009910 g     O .rodata	00000020 __sf_fake_stderr
80001434 g     F .text	000000ac core_trap_handler
80008770 g     F .text	0000004c .hidden __clzsi2
800051dc g     F .text	00000074 __sfputs_r
800040c4 g     F .text	00000024 memchr
80001b24  w    F .text	00000798 _printf_float
80004f54 g     F .text	000000fc _free_r
90000278 g     O .bss	00000004 _global_atexit
90010000 g       .stack	00000000 _sp
80000000 g     F .init	00000000 _start
800010f0 g     F .text	00000008 _lseek
800049e0 g     F .text	00000184 __lshift
00001888  w      .debug_info	00000000 .hidden fstat.c.10a910a9
80008f28 g     F .text	00000108 .hidden __floatsisf
800028a0 g     F .text	000000a4 __register_exitproc
800046b4 g     F .text	00000208 __multiply
80004db4 g     F .text	0000015c __d2b
80005c7c g     F .text	00000040 _close_r
80005ab4 g     F .text	00000178 __swsetup_r
80006b2c g     F .text	000006e4 .hidden __divdf3
80003eb4 g     F .text	000000e8 __sfp
0000297d  w      .debug_info	00000000 .hidden hbirdv2_common.c.20ed7c4d
80007464 g     F .text	000005cc .hidden __muldf3
80005654 g     F .text	00000050 __sread
80006160 g     F .text	00000004 __malloc_lock
80005eb0 g     F .text	000000a0 _fflush_r
80004f10 g     F .text	00000044 _calloc_r
80009930 g     O .rodata	00000020 __sf_fake_stdin
90000240 g       .bss	00000000 __bss_start
800041ec g     F .text	000000dc memset
000017fc  w      .debug_info	00000000 .hidden exit.c.231bd334
800000d0 g     F .text	00000828 main
8000173c  w      .text	00000000 trap_entry
80005780 g     F .text	00000008 __sclose
80002b10 g     F .text	000011f4 _dtoa_r
80005050 g     F .text	00000150 _malloc_r
80005a3c g     F .text	00000030 __ascii_wctomb
80009de8 g       .rodata	00000000 __vsymtab_start
00001b38  w      .debug_info	00000000 .hidden getpid.c.7c10e35e
80005788 g     F .text	0000017c strcmp
80001420 g     F .text	00000014 SystemInit
80007210 g     F .text	0000008c .hidden __nedf2
80002810 g     F .text	00000070 iprintf
00003bdb  w      .debug_info	00000000 .hidden dhry_stubs.c.aa5f359a
80009cac g     O .rodata	00000100 .hidden __clz_tab
80001a64 g     F .text	000000c0 __exponent
8000180c g     F .text	00000014 atexit
80005a6c g     F .text	00000048 _write_r
800022bc g     F .text	000001b0 _printf_common
900001d8 g     O .data	00000004 _impure_ptr
80005cbc g     F .text	000001f4 __sflush_r
80004068 g     F .text	0000005c __ascii_mbtowc
90000000 g       .dalign	00000000 _data
80009de8 g       .rodata	00000000 __vsymtab_end
80005fe0 g     F .text	00000090 __swhatbuf_r
80001170 g     F .text	000002b0 _write
90000240 g       .bss	00000000 _edata
80001738 g     F .text	00000004 _postmain_fini
90002b80 g       .bss	00000000 _end
00001c40  w      .debug_info	00000000 .hidden kill.c.7ad0b645
80009de8 g       .lalign	00000000 _data_lma
800056a4 g     F .text	00000084 __swrite
80005f50 g     F .text	00000048 fiprintf
80005250 g     F .text	000003c4 _vfiprintf_r
80003f9c g     F .text	000000b0 _fwalk_reent
80004bb8 g     F .text	000001fc __mdiff
800010e0 g     F .text	00000010 _kill
80009950 g     O .rodata	00000020 __sf_fake_stdout
80009b30 g     O .rodata	00000101 _ctype_
800010f8 g     F .text	00000038 _read
8000821c g     F .text	0000004c .hidden __unorddf2
8000109c  w    F .text	00000008 _exit
80006070 g     F .text	000000f0 __smakebuf_r
80002880 g     F .text	0000001c strlen
8000246c g     F .text	000003a4 _printf_i
8000729c g     F .text	000000e4 .hidden __gedf2
90000280 g     O .bss	00000004 __malloc_sbrk_start
9000027c g     O .bss	00000004 __malloc_free_list
80009de8 g       .rodata	00000000 __fsymtab_start
80007a30 g     F .text	000007ec .hidden __subdf3
80005250 g     F .text	000003c4 _vfprintf_r
800045b0 g     F .text	000000b0 __lo0bits
90000060 g     O .data	0000016c __global_locale
00002baa  w      .debug_info	00000000 .hidden system_hbirdv2.c.92b3724a
80008410 g     F .text	00000360 .hidden __trunctfdf2
800062fc g     F .text	00000010 raise
8000108c g     F .text	00000010 _close
8000441c g     F .text	00000120 __multadd
800043a8 g     F .text	00000074 _Bfree



Disassembly of section .init:

80000000 <_start>:
_start():
E:\VMshare\e203\zhengdian_E203\sdk\dhrystone\Debug/../hbird_sdk/SoC/hbirdv2/Common/Source/GCC/startup_hbirdv2.S:40
 * Reset Handler called on controller reset
 */
_start:
    /* ===== Startup Stage 1 ===== */
    /* Disable Global Interrupt */
    csrc CSR_MSTATUS, MSTATUS_MIE
80000000:	30047073          	csrci	mstatus,8
E:\VMshare\e203\zhengdian_E203\sdk\dhrystone\Debug/../hbird_sdk/SoC/hbirdv2/Common/Source/GCC/startup_hbirdv2.S:42
    /* Disable all interrupts controlled by CSR MIE */
    csrw CSR_MIE, 0x0
80000004:	30405073          	csrwi	mie,0
E:\VMshare\e203\zhengdian_E203\sdk\dhrystone\Debug/../hbird_sdk/SoC/hbirdv2/Common/Source/GCC/startup_hbirdv2.S:47

    /* Initialize GP and Stack Pointer SP */
    .option push
    .option norelax
    la gp, __global_pointer$
80000008:	10001197          	auipc	gp,0x10001
8000000c:	9c818193          	addi	gp,gp,-1592 # 900009d0 <__global_pointer$>
E:\VMshare\e203\zhengdian_E203\sdk\dhrystone\Debug/../hbird_sdk/SoC/hbirdv2/Common/Source/GCC/startup_hbirdv2.S:49
    .option pop
    la sp, _sp
80000010:	10010117          	auipc	sp,0x10010
80000014:	ff010113          	addi	sp,sp,-16 # 90010000 <_sp>
E:\VMshare\e203\zhengdian_E203\sdk\dhrystone\Debug/../hbird_sdk/SoC/hbirdv2/Common/Source/GCC/startup_hbirdv2.S:54

    /*
     * Set Trap Entry MTVEC to trap_entry
     */
    la t0, trap_entry
80000018:	00001297          	auipc	t0,0x1
8000001c:	72428293          	addi	t0,t0,1828 # 8000173c <trap_entry>
E:\VMshare\e203\zhengdian_E203\sdk\dhrystone\Debug/../hbird_sdk/SoC/hbirdv2/Common/Source/GCC/startup_hbirdv2.S:55
    csrw CSR_MTVEC, t0
80000020:	30529073          	csrw	mtvec,t0
E:\VMshare\e203\zhengdian_E203\sdk\dhrystone\Debug/../hbird_sdk/SoC/hbirdv2/Common/Source/GCC/startup_hbirdv2.S:58

    /* Direct Mode: All exceptions set pc to BASE. */
    csrc CSR_MTVEC, 0x3
80000024:	3051f073          	csrci	mtvec,3
E:\VMshare\e203\zhengdian_E203\sdk\dhrystone\Debug/../hbird_sdk/SoC/hbirdv2/Common/Source/GCC/startup_hbirdv2.S:74
    /* ===== Startup Stage 3 ===== */
    /*
     * Load code section frm FLASH to ILM
     * when code LMA is different with VMA
     */
    la a0, _ilm_lma
80000028:	00000517          	auipc	a0,0x0
8000002c:	0a850513          	addi	a0,a0,168 # 800000d0 <main>
E:\VMshare\e203\zhengdian_E203\sdk\dhrystone\Debug/../hbird_sdk/SoC/hbirdv2/Common/Source/GCC/startup_hbirdv2.S:75
    la a1, _ilm
80000030:	00000597          	auipc	a1,0x0
80000034:	0a058593          	addi	a1,a1,160 # 800000d0 <main>
E:\VMshare\e203\zhengdian_E203\sdk\dhrystone\Debug/../hbird_sdk/SoC/hbirdv2/Common/Source/GCC/startup_hbirdv2.S:77
    /* If the ILM phy-address same as the logic-address, then quit */
    beq a0, a1, 2f
80000038:	02b50263          	beq	a0,a1,8000005c <_start+0x5c>
E:\VMshare\e203\zhengdian_E203\sdk\dhrystone\Debug/../hbird_sdk/SoC/hbirdv2/Common/Source/GCC/startup_hbirdv2.S:78
    la a2, _eilm
8000003c:	0000a617          	auipc	a2,0xa
80000040:	dac60613          	addi	a2,a2,-596 # 80009de8 <__fsymtab_end>
E:\VMshare\e203\zhengdian_E203\sdk\dhrystone\Debug/../hbird_sdk/SoC/hbirdv2/Common/Source/GCC/startup_hbirdv2.S:79
    bgeu a1, a2, 2f
80000044:	00c5fc63          	bgeu	a1,a2,8000005c <_start+0x5c>
E:\VMshare\e203\zhengdian_E203\sdk\dhrystone\Debug/../hbird_sdk/SoC/hbirdv2/Common/Source/GCC/startup_hbirdv2.S:83

1:
    /* Load code section if necessary */
    lw t0, (a0)
80000048:	00052283          	lw	t0,0(a0)
E:\VMshare\e203\zhengdian_E203\sdk\dhrystone\Debug/../hbird_sdk/SoC/hbirdv2/Common/Source/GCC/startup_hbirdv2.S:84
    sw t0, (a1)
8000004c:	0055a023          	sw	t0,0(a1)
E:\VMshare\e203\zhengdian_E203\sdk\dhrystone\Debug/../hbird_sdk/SoC/hbirdv2/Common/Source/GCC/startup_hbirdv2.S:85
    addi a0, a0, 4
80000050:	00450513          	addi	a0,a0,4
E:\VMshare\e203\zhengdian_E203\sdk\dhrystone\Debug/../hbird_sdk/SoC/hbirdv2/Common/Source/GCC/startup_hbirdv2.S:86
    addi a1, a1, 4
80000054:	00458593          	addi	a1,a1,4
E:\VMshare\e203\zhengdian_E203\sdk\dhrystone\Debug/../hbird_sdk/SoC/hbirdv2/Common/Source/GCC/startup_hbirdv2.S:87
    bltu a1, a2, 1b
80000058:	fec5e8e3          	bltu	a1,a2,80000048 <_start+0x48>
E:\VMshare\e203\zhengdian_E203\sdk\dhrystone\Debug/../hbird_sdk/SoC/hbirdv2/Common/Source/GCC/startup_hbirdv2.S:90
2:
    /* Load data section */
    la a0, _data_lma
8000005c:	0000a517          	auipc	a0,0xa
80000060:	d8c50513          	addi	a0,a0,-628 # 80009de8 <__fsymtab_end>
E:\VMshare\e203\zhengdian_E203\sdk\dhrystone\Debug/../hbird_sdk/SoC/hbirdv2/Common/Source/GCC/startup_hbirdv2.S:91
    la a1, _data
80000064:	10000597          	auipc	a1,0x10000
80000068:	f9c58593          	addi	a1,a1,-100 # 90000000 <impure_data>
E:\VMshare\e203\zhengdian_E203\sdk\dhrystone\Debug/../hbird_sdk/SoC/hbirdv2/Common/Source/GCC/startup_hbirdv2.S:92
    la a2, _edata
8000006c:	87018613          	addi	a2,gp,-1936 # 90000240 <Begin_Cycle>
E:\VMshare\e203\zhengdian_E203\sdk\dhrystone\Debug/../hbird_sdk/SoC/hbirdv2/Common/Source/GCC/startup_hbirdv2.S:93
    bgeu a1, a2, 2f
80000070:	00c5fc63          	bgeu	a1,a2,80000088 <_start+0x88>
E:\VMshare\e203\zhengdian_E203\sdk\dhrystone\Debug/../hbird_sdk/SoC/hbirdv2/Common/Source/GCC/startup_hbirdv2.S:95
1:
    lw t0, (a0)
80000074:	00052283          	lw	t0,0(a0)
E:\VMshare\e203\zhengdian_E203\sdk\dhrystone\Debug/../hbird_sdk/SoC/hbirdv2/Common/Source/GCC/startup_hbirdv2.S:96
    sw t0, (a1)
80000078:	0055a023          	sw	t0,0(a1)
E:\VMshare\e203\zhengdian_E203\sdk\dhrystone\Debug/../hbird_sdk/SoC/hbirdv2/Common/Source/GCC/startup_hbirdv2.S:97
    addi a0, a0, 4
8000007c:	00450513          	addi	a0,a0,4
E:\VMshare\e203\zhengdian_E203\sdk\dhrystone\Debug/../hbird_sdk/SoC/hbirdv2/Common/Source/GCC/startup_hbirdv2.S:98
    addi a1, a1, 4
80000080:	00458593          	addi	a1,a1,4
E:\VMshare\e203\zhengdian_E203\sdk\dhrystone\Debug/../hbird_sdk/SoC/hbirdv2/Common/Source/GCC/startup_hbirdv2.S:99
    bltu a1, a2, 1b
80000084:	fec5e8e3          	bltu	a1,a2,80000074 <_start+0x74>
E:\VMshare\e203\zhengdian_E203\sdk\dhrystone\Debug/../hbird_sdk/SoC/hbirdv2/Common/Source/GCC/startup_hbirdv2.S:102
2:
    /* Clear bss section */
    la a0, __bss_start
80000088:	87018513          	addi	a0,gp,-1936 # 90000240 <Begin_Cycle>
E:\VMshare\e203\zhengdian_E203\sdk\dhrystone\Debug/../hbird_sdk/SoC/hbirdv2/Common/Source/GCC/startup_hbirdv2.S:103
    la a1, _end
8000008c:	10003597          	auipc	a1,0x10003
80000090:	af458593          	addi	a1,a1,-1292 # 90002b80 <_end>
E:\VMshare\e203\zhengdian_E203\sdk\dhrystone\Debug/../hbird_sdk/SoC/hbirdv2/Common/Source/GCC/startup_hbirdv2.S:104
    bgeu a0, a1, 2f
80000094:	00b57863          	bgeu	a0,a1,800000a4 <_start+0xa4>
E:\VMshare\e203\zhengdian_E203\sdk\dhrystone\Debug/../hbird_sdk/SoC/hbirdv2/Common/Source/GCC/startup_hbirdv2.S:106
1:
    sw zero, (a0)
80000098:	00052023          	sw	zero,0(a0)
E:\VMshare\e203\zhengdian_E203\sdk\dhrystone\Debug/../hbird_sdk/SoC/hbirdv2/Common/Source/GCC/startup_hbirdv2.S:107
    addi a0, a0, 4
8000009c:	00450513          	addi	a0,a0,4
E:\VMshare\e203\zhengdian_E203\sdk\dhrystone\Debug/../hbird_sdk/SoC/hbirdv2/Common/Source/GCC/startup_hbirdv2.S:108
    bltu a0, a1, 1b
800000a0:	feb56ce3          	bltu	a0,a1,80000098 <_start+0x98>
E:\VMshare\e203\zhengdian_E203\sdk\dhrystone\Debug/../hbird_sdk/SoC/hbirdv2/Common/Source/GCC/startup_hbirdv2.S:115

    /*
     * Call vendor defined SystemInit to
     * initialize the micro-controller system
     */
    call SystemInit
800000a4:	37c010ef          	jal	ra,80001420 <SystemInit>
E:\VMshare\e203\zhengdian_E203\sdk\dhrystone\Debug/../hbird_sdk/SoC/hbirdv2/Common/Source/GCC/startup_hbirdv2.S:118

    /* Call global constructors */
    la a0, __libc_fini_array
800000a8:	00001517          	auipc	a0,0x1
800000ac:	77850513          	addi	a0,a0,1912 # 80001820 <__libc_fini_array>
E:\VMshare\e203\zhengdian_E203\sdk\dhrystone\Debug/../hbird_sdk/SoC/hbirdv2/Common/Source/GCC/startup_hbirdv2.S:119
    call atexit
800000b0:	75c010ef          	jal	ra,8000180c <atexit>
E:\VMshare\e203\zhengdian_E203\sdk\dhrystone\Debug/../hbird_sdk/SoC/hbirdv2/Common/Source/GCC/startup_hbirdv2.S:121
    /* Call C/C++ constructor start up code */
    call __libc_init_array
800000b4:	7c4010ef          	jal	ra,80001878 <__libc_init_array>
E:\VMshare\e203\zhengdian_E203\sdk\dhrystone\Debug/../hbird_sdk/SoC/hbirdv2/Common/Source/GCC/startup_hbirdv2.S:124

    /* do pre-init steps before main */
    call _premain_init
800000b8:	428010ef          	jal	ra,800014e0 <_premain_init>
E:\VMshare\e203\zhengdian_E203\sdk\dhrystone\Debug/../hbird_sdk/SoC/hbirdv2/Common/Source/GCC/startup_hbirdv2.S:127
    /* ===== Call Main Function  ===== */
    /* argc = argv = 0 */
    li a0, 0
800000bc:	00000513          	li	a0,0
E:\VMshare\e203\zhengdian_E203\sdk\dhrystone\Debug/../hbird_sdk/SoC/hbirdv2/Common/Source/GCC/startup_hbirdv2.S:128
    li a1, 0
800000c0:	00000593          	li	a1,0
E:\VMshare\e203\zhengdian_E203\sdk\dhrystone\Debug/../hbird_sdk/SoC/hbirdv2/Common/Source/GCC/startup_hbirdv2.S:134

#ifdef RTOS_RTTHREAD
    // Call entry function when using RT-Thread
    call entry
#else
    call main
800000c4:	00c000ef          	jal	ra,800000d0 <main>
E:\VMshare\e203\zhengdian_E203\sdk\dhrystone\Debug/../hbird_sdk/SoC/hbirdv2/Common/Source/GCC/startup_hbirdv2.S:137
#endif
    /* do post-main steps after main */
    call _postmain_fini
800000c8:	670010ef          	jal	ra,80001738 <_postmain_fini>
E:\VMshare\e203\zhengdian_E203\sdk\dhrystone\Debug/../hbird_sdk/SoC/hbirdv2/Common/Source/GCC/startup_hbirdv2.S:140

1:
    j 1b
800000cc:	0000006f          	j	800000cc <_start+0xcc>

Disassembly of section .text:

800000d0 <main>:
main():
E:\VMshare\e203\zhengdian_E203\sdk\dhrystone\Debug/../application/dhry_1.c:83
main ()
/*****/

  /* main program, corresponds to procedures        */
  /* Main and Proc_0 in the Ada version             */
{
800000d0:	f6010113          	addi	sp,sp,-160
E:\VMshare\e203\zhengdian_E203\sdk\dhrystone\Debug/../application/dhry_1.c:96
  REG   int             Run_Index;
  REG   int             Number_Of_Runs;

  /* Initializations */

  Next_Ptr_Glob = (Rec_Pointer) malloc (sizeof (Rec_Type));
800000d4:	03000513          	li	a0,48
E:\VMshare\e203\zhengdian_E203\sdk\dhrystone\Debug/../application/dhry_1.c:83
{
800000d8:	08112e23          	sw	ra,156(sp)
800000dc:	08812c23          	sw	s0,152(sp)
800000e0:	08912a23          	sw	s1,148(sp)
800000e4:	09212823          	sw	s2,144(sp)
800000e8:	09312623          	sw	s3,140(sp)
800000ec:	09412423          	sw	s4,136(sp)
800000f0:	09512223          	sw	s5,132(sp)
800000f4:	09612023          	sw	s6,128(sp)
800000f8:	07712e23          	sw	s7,124(sp)
800000fc:	07812c23          	sw	s8,120(sp)
80000100:	07912a23          	sw	s9,116(sp)
80000104:	07a12823          	sw	s10,112(sp)
80000108:	07b12623          	sw	s11,108(sp)
E:\VMshare\e203\zhengdian_E203\sdk\dhrystone\Debug/../application/dhry_1.c:96
  Next_Ptr_Glob = (Rec_Pointer) malloc (sizeof (Rec_Type));
8000010c:	74d030ef          	jal	ra,80004058 <malloc>
80000110:	89818293          	addi	t0,gp,-1896 # 90000268 <Next_Ptr_Glob>
80000114:	00050413          	mv	s0,a0
E:\VMshare\e203\zhengdian_E203\sdk\dhrystone\Debug/../application/dhry_1.c:97
  Ptr_Glob = (Rec_Pointer) malloc (sizeof (Rec_Type));
80000118:	03000513          	li	a0,48
E:\VMshare\e203\zhengdian_E203\sdk\dhrystone\Debug/../application/dhry_1.c:96
  Next_Ptr_Glob = (Rec_Pointer) malloc (sizeof (Rec_Type));
8000011c:	0082a023          	sw	s0,0(t0)
80000120:	00512223          	sw	t0,4(sp)
E:\VMshare\e203\zhengdian_E203\sdk\dhrystone\Debug/../application/dhry_1.c:97
  Ptr_Glob = (Rec_Pointer) malloc (sizeof (Rec_Type));
80000124:	735030ef          	jal	ra,80004058 <malloc>
E:\VMshare\e203\zhengdian_E203\sdk\dhrystone\Debug/../application/dhry_1.c:103

  Ptr_Glob->Ptr_Comp                    = Next_Ptr_Glob;
  Ptr_Glob->Discr                       = Ident_1;
  Ptr_Glob->variant.var_1.Enum_Comp     = Ident_3;
  Ptr_Glob->variant.var_1.Int_Comp      = 40;
  strcpy (Ptr_Glob->variant.var_1.Str_Comp,
80000128:	00009317          	auipc	t1,0x9
E:\VMshare\e203\zhengdian_E203\sdk\dhrystone\Debug/../application/dhry_1.c:105
          "DHRYSTONE PROGRAM, SOME STRING");
  strcpy (Str_1_Loc, "DHRYSTONE PROGRAM, 1'ST STRING");
8000012c:	00009717          	auipc	a4,0x9
E:\VMshare\e203\zhengdian_E203\sdk\dhrystone\Debug/../application/dhry_1.c:103
  strcpy (Ptr_Glob->variant.var_1.Str_Comp,
80000130:	0b030493          	addi	s1,t1,176 # 800091d8 <__extendsfdf2+0x1a8>
E:\VMshare\e203\zhengdian_E203\sdk\dhrystone\Debug/../application/dhry_1.c:105
  strcpy (Str_1_Loc, "DHRYSTONE PROGRAM, 1'ST STRING");
80000134:	67070913          	addi	s2,a4,1648 # 8000979c <__extendsfdf2+0x76c>
E:\VMshare\e203\zhengdian_E203\sdk\dhrystone\Debug/../application/dhry_1.c:103
  strcpy (Ptr_Glob->variant.var_1.Str_Comp,
80000138:	01e4c603          	lbu	a2,30(s1)
E:\VMshare\e203\zhengdian_E203\sdk\dhrystone\Debug/../application/dhry_1.c:105
  strcpy (Str_1_Loc, "DHRYSTONE PROGRAM, 1'ST STRING");
8000013c:	00492f83          	lw	t6,4(s2)
E:\VMshare\e203\zhengdian_E203\sdk\dhrystone\Debug/../application/dhry_1.c:103
  strcpy (Ptr_Glob->variant.var_1.Str_Comp,
80000140:	0184a803          	lw	a6,24(s1)
80000144:	01c4d583          	lhu	a1,28(s1)
80000148:	0144a883          	lw	a7,20(s1)
8000014c:	00c4ae03          	lw	t3,12(s1)
80000150:	0084ae83          	lw	t4,8(s1)
80000154:	0044af03          	lw	t5,4(s1)
80000158:	0004a383          	lw	t2,0(s1)
8000015c:	0104a983          	lw	s3,16(s1)
E:\VMshare\e203\zhengdian_E203\sdk\dhrystone\Debug/../application/dhry_1.c:105
  strcpy (Str_1_Loc, "DHRYSTONE PROGRAM, 1'ST STRING");
80000160:	00092a03          	lw	s4,0(s2)
E:\VMshare\e203\zhengdian_E203\sdk\dhrystone\Debug/../application/dhry_1.c:97
  Ptr_Glob = (Rec_Pointer) malloc (sizeof (Rec_Type));
80000164:	00050a93          	mv	s5,a0
E:\VMshare\e203\zhengdian_E203\sdk\dhrystone\Debug/../application/dhry_1.c:99
  Ptr_Glob->Ptr_Comp                    = Next_Ptr_Glob;
80000168:	00852023          	sw	s0,0(a0)
E:\VMshare\e203\zhengdian_E203\sdk\dhrystone\Debug/../application/dhry_1.c:100
  Ptr_Glob->Discr                       = Ident_1;
8000016c:	00052223          	sw	zero,4(a0)
E:\VMshare\e203\zhengdian_E203\sdk\dhrystone\Debug/../application/dhry_1.c:97
  Ptr_Glob = (Rec_Pointer) malloc (sizeof (Rec_Type));
80000170:	89c18c13          	addi	s8,gp,-1892 # 9000026c <Ptr_Glob>
E:\VMshare\e203\zhengdian_E203\sdk\dhrystone\Debug/../application/dhry_1.c:101
  Ptr_Glob->variant.var_1.Enum_Comp     = Ident_3;
80000174:	00200513          	li	a0,2
E:\VMshare\e203\zhengdian_E203\sdk\dhrystone\Debug/../application/dhry_1.c:102
  Ptr_Glob->variant.var_1.Int_Comp      = 40;
80000178:	02800b13          	li	s6,40
E:\VMshare\e203\zhengdian_E203\sdk\dhrystone\Debug/../application/dhry_1.c:105
  strcpy (Str_1_Loc, "DHRYSTONE PROGRAM, 1'ST STRING");
8000017c:	00892683          	lw	a3,8(s2)
E:\VMshare\e203\zhengdian_E203\sdk\dhrystone\Debug/../application/dhry_1.c:103
  strcpy (Ptr_Glob->variant.var_1.Str_Comp,
80000180:	02ca8723          	sb	a2,46(s5)
E:\VMshare\e203\zhengdian_E203\sdk\dhrystone\Debug/../application/dhry_1.c:105
  strcpy (Str_1_Loc, "DHRYSTONE PROGRAM, 1'ST STRING");
80000184:	05f12223          	sw	t6,68(sp)
E:\VMshare\e203\zhengdian_E203\sdk\dhrystone\Debug/../application/dhry_1.c:103
  strcpy (Ptr_Glob->variant.var_1.Str_Comp,
80000188:	030aa423          	sw	a6,40(s5)
8000018c:	02ba9623          	sh	a1,44(s5)
80000190:	031aa223          	sw	a7,36(s5)
80000194:	01caae23          	sw	t3,28(s5)
80000198:	01daac23          	sw	t4,24(s5)
8000019c:	01eaaa23          	sw	t5,20(s5)
E:\VMshare\e203\zhengdian_E203\sdk\dhrystone\Debug/../application/dhry_1.c:105
  strcpy (Str_1_Loc, "DHRYSTONE PROGRAM, 1'ST STRING");
800001a0:	00c92c83          	lw	s9,12(s2)
800001a4:	01092d03          	lw	s10,16(s2)
800001a8:	01492d83          	lw	s11,20(s2)
E:\VMshare\e203\zhengdian_E203\sdk\dhrystone\Debug/../application/dhry_1.c:103
  strcpy (Ptr_Glob->variant.var_1.Str_Comp,
800001ac:	007aa823          	sw	t2,16(s5)
E:\VMshare\e203\zhengdian_E203\sdk\dhrystone\Debug/../application/dhry_1.c:101
  Ptr_Glob->variant.var_1.Enum_Comp     = Ident_3;
800001b0:	00aaa423          	sw	a0,8(s5)
E:\VMshare\e203\zhengdian_E203\sdk\dhrystone\Debug/../application/dhry_1.c:102
  Ptr_Glob->variant.var_1.Int_Comp      = 40;
800001b4:	016aa623          	sw	s6,12(s5)
E:\VMshare\e203\zhengdian_E203\sdk\dhrystone\Debug/../application/dhry_1.c:97
  Ptr_Glob = (Rec_Pointer) malloc (sizeof (Rec_Type));
800001b8:	015c2023          	sw	s5,0(s8)
E:\VMshare\e203\zhengdian_E203\sdk\dhrystone\Debug/../application/dhry_1.c:103
  strcpy (Ptr_Glob->variant.var_1.Str_Comp,
800001bc:	033aa023          	sw	s3,32(s5)
E:\VMshare\e203\zhengdian_E203\sdk\dhrystone\Debug/../application/dhry_1.c:97
  Ptr_Glob = (Rec_Pointer) malloc (sizeof (Rec_Type));
800001c0:	01812023          	sw	s8,0(sp)
E:\VMshare\e203\zhengdian_E203\sdk\dhrystone\Debug/../application/dhry_1.c:105
  strcpy (Str_1_Loc, "DHRYSTONE PROGRAM, 1'ST STRING");
800001c4:	05412023          	sw	s4,64(sp)
800001c8:	01892403          	lw	s0,24(s2)
800001cc:	01c95283          	lhu	t0,28(s2)
800001d0:	01e94303          	lbu	t1,30(s2)
E:\VMshare\e203\zhengdian_E203\sdk\dhrystone\Debug/../application/dhry_1.c:107

  Arr_2_Glob [8][7] = 10;
800001d4:	10000797          	auipc	a5,0x10000
E:\VMshare\e203\zhengdian_E203\sdk\dhrystone\Debug/../application/dhry_1.c:113
        /* Was missing in published program. Without this statement,    */
        /* Arr_2_Glob [8][7] would have an undefined value.             */
        /* Warning: With 16-Bit processors and Number_Of_Runs > 32000,  */
        /* overflow may occur for this array element.                   */

  printf ("\n");
800001d8:	00009497          	auipc	s1,0x9
E:\VMshare\e203\zhengdian_E203\sdk\dhrystone\Debug/../application/dhry_1.c:107
  Arr_2_Glob [8][7] = 10;
800001dc:	17878913          	addi	s2,a5,376 # 9000034c <Arr_2_Glob>
800001e0:	00a00713          	li	a4,10
E:\VMshare\e203\zhengdian_E203\sdk\dhrystone\Debug/../application/dhry_1.c:113
  printf ("\n");
800001e4:	54c48513          	addi	a0,s1,1356 # 80009724 <__extendsfdf2+0x6f4>
E:\VMshare\e203\zhengdian_E203\sdk\dhrystone\Debug/../application/dhry_1.c:105
  strcpy (Str_1_Loc, "DHRYSTONE PROGRAM, 1'ST STRING");
800001e8:	04511e23          	sh	t0,92(sp)
800001ec:	04d12423          	sw	a3,72(sp)
800001f0:	04610f23          	sb	t1,94(sp)
E:\VMshare\e203\zhengdian_E203\sdk\dhrystone\Debug/../application/dhry_1.c:107
  Arr_2_Glob [8][7] = 10;
800001f4:	64e92e23          	sw	a4,1628(s2)
E:\VMshare\e203\zhengdian_E203\sdk\dhrystone\Debug/../application/dhry_1.c:105
  strcpy (Str_1_Loc, "DHRYSTONE PROGRAM, 1'ST STRING");
800001f8:	05912623          	sw	s9,76(sp)
800001fc:	05a12823          	sw	s10,80(sp)
80000200:	05b12a23          	sw	s11,84(sp)
80000204:	04812c23          	sw	s0,88(sp)
E:\VMshare\e203\zhengdian_E203\sdk\dhrystone\Debug/../application/dhry_1.c:113
  printf ("\n");
80000208:	608020ef          	jal	ra,80002810 <iprintf>
E:\VMshare\e203\zhengdian_E203\sdk\dhrystone\Debug/../application/dhry_1.c:114
  printf ("Dhrystone Benchmark, Version 2.1 (Language: C)\n");
8000020c:	00009397          	auipc	t2,0x9
80000210:	fec38513          	addi	a0,t2,-20 # 800091f8 <__extendsfdf2+0x1c8>
80000214:	5fc020ef          	jal	ra,80002810 <iprintf>
E:\VMshare\e203\zhengdian_E203\sdk\dhrystone\Debug/../application/dhry_1.c:115
  printf ("\n");
80000218:	00009f17          	auipc	t5,0x9
8000021c:	50cf0513          	addi	a0,t5,1292 # 80009724 <__extendsfdf2+0x6f4>
80000220:	5f0020ef          	jal	ra,80002810 <iprintf>
E:\VMshare\e203\zhengdian_E203\sdk\dhrystone\Debug/../application/dhry_1.c:123
    printf ("Program compiled with 'register' attribute\n");
    printf ("\n");
  }
  else
  {
    printf ("Program compiled without 'register' attribute\n");
80000224:	00009e97          	auipc	t4,0x9
80000228:	004e8513          	addi	a0,t4,4 # 80009228 <__extendsfdf2+0x1f8>
8000022c:	5e4020ef          	jal	ra,80002810 <iprintf>
E:\VMshare\e203\zhengdian_E203\sdk\dhrystone\Debug/../application/dhry_1.c:124
    printf ("\n");
80000230:	00009e17          	auipc	t3,0x9
80000234:	4f4e0513          	addi	a0,t3,1268 # 80009724 <__extendsfdf2+0x6f4>
80000238:	5d8020ef          	jal	ra,80002810 <iprintf>
E:\VMshare\e203\zhengdian_E203\sdk\dhrystone\Debug/../application/dhry_1.c:126
  }
  printf ("Please give the number of runs through the benchmark: ");
8000023c:	00009997          	auipc	s3,0x9
80000240:	01c98513          	addi	a0,s3,28 # 80009258 <__extendsfdf2+0x228>
80000244:	5cc020ef          	jal	ra,80002810 <iprintf>
E:\VMshare\e203\zhengdian_E203\sdk\dhrystone\Debug/../application/dhry_1.c:137
    Number_Of_Runs = 5;
#else
    Number_Of_Runs = 500000;
#endif
  }
  printf ("\n");
80000248:	00009897          	auipc	a7,0x9
8000024c:	4dc88513          	addi	a0,a7,1244 # 80009724 <__extendsfdf2+0x6f4>
80000250:	5c0020ef          	jal	ra,80002810 <iprintf>
E:\VMshare\e203\zhengdian_E203\sdk\dhrystone\Debug/../application/dhry_1.c:139

  printf ("Execution starts, %d runs through Dhrystone\n", Number_Of_Runs);
80000254:	00009817          	auipc	a6,0x9
80000258:	0007a5b7          	lui	a1,0x7a
8000025c:	12058593          	addi	a1,a1,288 # 7a120 <dhry_stubs.c.aa5f359a+0x76545>
80000260:	03c80513          	addi	a0,a6,60 # 80009290 <__extendsfdf2+0x260>
80000264:	5ac020ef          	jal	ra,80002810 <iprintf>
E:\VMshare\e203\zhengdian_E203\sdk\dhrystone\Debug/../application/dhry_1.c:151
#ifdef TIMES
  times (&time_info);
  Begin_Time = (long) time_info.tms_utime;
#endif
#ifdef TIME
  Begin_Time = time ( (long *) 0);
80000268:	00000513          	li	a0,0
8000026c:	0f9000ef          	jal	ra,80000b64 <time>
80000270:	00050613          	mv	a2,a0
80000274:	87818f93          	addi	t6,gp,-1928 # 90000248 <Begin_Time>
E:\VMshare\e203\zhengdian_E203\sdk\dhrystone\Debug/../application/dhry_1.c:153
#endif
  Begin_Instret =  csr_instret ( (long *) 0);
80000278:	00000513          	li	a0,0
E:\VMshare\e203\zhengdian_E203\sdk\dhrystone\Debug/../application/dhry_1.c:151
  Begin_Time = time ( (long *) 0);
8000027c:	01f12423          	sw	t6,8(sp)
80000280:	00cfa023          	sw	a2,0(t6)
E:\VMshare\e203\zhengdian_E203\sdk\dhrystone\Debug/../application/dhry_1.c:153
  Begin_Instret =  csr_instret ( (long *) 0);
80000284:	0a1000ef          	jal	ra,80000b24 <csr_instret>
80000288:	00050a93          	mv	s5,a0
E:\VMshare\e203\zhengdian_E203\sdk\dhrystone\Debug/../application/dhry_1.c:154
  Begin_Cycle =  csr_cycle ( (long *) 0);
8000028c:	00000513          	li	a0,0
80000290:	87018b93          	addi	s7,gp,-1936 # 90000240 <Begin_Cycle>
E:\VMshare\e203\zhengdian_E203\sdk\dhrystone\Debug/../application/dhry_1.c:153
  Begin_Instret =  csr_instret ( (long *) 0);
80000294:	8751aa23          	sw	s5,-1932(gp) # 90000244 <Begin_Instret>
E:\VMshare\e203\zhengdian_E203\sdk\dhrystone\Debug/../application/dhry_1.c:154
  Begin_Cycle =  csr_cycle ( (long *) 0);
80000298:	04d000ef          	jal	ra,80000ae4 <csr_cycle>
8000029c:	00aba023          	sw	a0,0(s7)
E:\VMshare\e203\zhengdian_E203\sdk\dhrystone\Debug/../application/dhry_1.c:179
      Int_1_Loc += 1;
    } /* while */
      /* Int_1_Loc == 3, Int_2_Loc == 3, Int_3_Loc == 7 */
    Proc_8 (Arr_1_Glob, Arr_2_Glob, Int_1_Loc, Int_3_Loc);
      /* Int_Glob == 5 */
    Proc_1 (Ptr_Glob);
800002a0:	000c2d83          	lw	s11,0(s8)
E:\VMshare\e203\zhengdian_E203\sdk\dhrystone\Debug/../application/dhry_1.c:156
  for (Run_Index = 1; Run_Index <= Number_Of_Runs; ++Run_Index)
800002a4:	0007a2b7          	lui	t0,0x7a
E:\VMshare\e203\zhengdian_E203\sdk\dhrystone\Debug/../application/dhry_1.c:154
  Begin_Cycle =  csr_cycle ( (long *) 0);
800002a8:	01712623          	sw	s7,12(sp)
800002ac:	88118b13          	addi	s6,gp,-1919 # 90000251 <Ch_2_Glob>
800002b0:	89418a93          	addi	s5,gp,-1900 # 90000264 <Int_Glob>
E:\VMshare\e203\zhengdian_E203\sdk\dhrystone\Debug/../application/dhry_1.c:156
  for (Run_Index = 1; Run_Index <= Number_Of_Runs; ++Run_Index)
800002b4:	00100493          	li	s1,1
800002b8:	87c18b93          	addi	s7,gp,-1924 # 9000024c <Bool_Glob>
E:\VMshare\e203\zhengdian_E203\sdk\dhrystone\Debug/../application/dhry_1.c:162
    Int_1_Loc = 2;
800002bc:	00200413          	li	s0,2
E:\VMshare\e203\zhengdian_E203\sdk\dhrystone\Debug/../application/dhry_1.c:165
    Enum_Loc = Ident_2;
800002c0:	00100d13          	li	s10,1
E:\VMshare\e203\zhengdian_E203\sdk\dhrystone\Debug/../application/dhry_1.c:180
    for (Ch_Index = 'A'; Ch_Index <= Ch_2_Glob; ++Ch_Index)
800002c4:	04000c93          	li	s9,64
E:\VMshare\e203\zhengdian_E203\sdk\dhrystone\Debug/../application/dhry_1.c:156
  for (Run_Index = 1; Run_Index <= Number_Of_Runs; ++Run_Index)
800002c8:	12128c13          	addi	s8,t0,289 # 7a121 <dhry_stubs.c.aa5f359a+0x76546>
E:\VMshare\e203\zhengdian_E203\sdk\dhrystone\Debug/../application/dhry_1.c:159
    Proc_5();
800002cc:	1ed000ef          	jal	ra,80000cb8 <Proc_5.isra.0>
E:\VMshare\e203\zhengdian_E203\sdk\dhrystone\Debug/../application/dhry_1.c:160
    Proc_4();
800002d0:	1f9000ef          	jal	ra,80000cc8 <Proc_4.isra.0>
E:\VMshare\e203\zhengdian_E203\sdk\dhrystone\Debug/../application/dhry_1.c:164
    strcpy (Str_2_Loc, "DHRYSTONE PROGRAM, 2'ND STRING");
800002d4:	00009317          	auipc	t1,0x9
800002d8:	4e830793          	addi	a5,t1,1256 # 800097bc <__extendsfdf2+0x78c>
800002dc:	0007a903          	lw	s2,0(a5)
800002e0:	0047a383          	lw	t2,4(a5)
800002e4:	0087af03          	lw	t5,8(a5)
800002e8:	00c7ae83          	lw	t4,12(a5)
800002ec:	0107ae03          	lw	t3,16(a5)
800002f0:	0147a983          	lw	s3,20(a5)
800002f4:	0187a883          	lw	a7,24(a5)
800002f8:	01c7d703          	lhu	a4,28(a5)
800002fc:	01e7c803          	lbu	a6,30(a5)
E:\VMshare\e203\zhengdian_E203\sdk\dhrystone\Debug/../application/dhry_1.c:166
    Bool_Glob = ! Func_2 (Str_1_Loc, Str_2_Loc);
80000300:	02010593          	addi	a1,sp,32
80000304:	04010513          	addi	a0,sp,64
E:\VMshare\e203\zhengdian_E203\sdk\dhrystone\Debug/../application/dhry_1.c:162
    Int_1_Loc = 2;
80000308:	00812e23          	sw	s0,28(sp)
E:\VMshare\e203\zhengdian_E203\sdk\dhrystone\Debug/../application/dhry_1.c:164
    strcpy (Str_2_Loc, "DHRYSTONE PROGRAM, 2'ND STRING");
8000030c:	03212023          	sw	s2,32(sp)
80000310:	02712223          	sw	t2,36(sp)
80000314:	03e12423          	sw	t5,40(sp)
80000318:	03d12623          	sw	t4,44(sp)
8000031c:	03c12823          	sw	t3,48(sp)
80000320:	03312a23          	sw	s3,52(sp)
80000324:	03112c23          	sw	a7,56(sp)
80000328:	02e11e23          	sh	a4,60(sp)
8000032c:	03010f23          	sb	a6,62(sp)
E:\VMshare\e203\zhengdian_E203\sdk\dhrystone\Debug/../application/dhry_1.c:165
    Enum_Loc = Ident_2;
80000330:	01a12a23          	sw	s10,20(sp)
E:\VMshare\e203\zhengdian_E203\sdk\dhrystone\Debug/../application/dhry_1.c:166
    Bool_Glob = ! Func_2 (Str_1_Loc, Str_2_Loc);
80000334:	459000ef          	jal	ra,80000f8c <Func_2>
80000338:	00050593          	mv	a1,a0
E:\VMshare\e203\zhengdian_E203\sdk\dhrystone\Debug/../application/dhry_1.c:168
    while (Int_1_Loc < Int_2_Loc)  /* loop body executed once */
8000033c:	01c12503          	lw	a0,28(sp)
E:\VMshare\e203\zhengdian_E203\sdk\dhrystone\Debug/../application/dhry_1.c:166
    Bool_Glob = ! Func_2 (Str_1_Loc, Str_2_Loc);
80000340:	0015b613          	seqz	a2,a1
80000344:	00cba023          	sw	a2,0(s7)
E:\VMshare\e203\zhengdian_E203\sdk\dhrystone\Debug/../application/dhry_1.c:168
    while (Int_1_Loc < Int_2_Loc)  /* loop body executed once */
80000348:	02a44863          	blt	s0,a0,80000378 <main+0x2a8>
E:\VMshare\e203\zhengdian_E203\sdk\dhrystone\Debug/../application/dhry_1.c:170
      Int_3_Loc = 5 * Int_1_Loc - Int_2_Loc;
8000034c:	00251093          	slli	ra,a0,0x2
80000350:	00a08a33          	add	s4,ra,a0
80000354:	ffda0f93          	addi	t6,s4,-3
E:\VMshare\e203\zhengdian_E203\sdk\dhrystone\Debug/../application/dhry_1.c:172
      Proc_7 (Int_1_Loc, Int_2_Loc, &Int_3_Loc);
80000358:	01810613          	addi	a2,sp,24
8000035c:	00300593          	li	a1,3
E:\VMshare\e203\zhengdian_E203\sdk\dhrystone\Debug/../application/dhry_1.c:170
      Int_3_Loc = 5 * Int_1_Loc - Int_2_Loc;
80000360:	01f12c23          	sw	t6,24(sp)
E:\VMshare\e203\zhengdian_E203\sdk\dhrystone\Debug/../application/dhry_1.c:172
      Proc_7 (Int_1_Loc, Int_2_Loc, &Int_3_Loc);
80000364:	145000ef          	jal	ra,80000ca8 <Proc_7.isra.0>
E:\VMshare\e203\zhengdian_E203\sdk\dhrystone\Debug/../application/dhry_1.c:174
      Int_1_Loc += 1;
80000368:	01c12683          	lw	a3,28(sp)
8000036c:	00168513          	addi	a0,a3,1
80000370:	00a12e23          	sw	a0,28(sp)
E:\VMshare\e203\zhengdian_E203\sdk\dhrystone\Debug/../application/dhry_1.c:168
    while (Int_1_Loc < Int_2_Loc)  /* loop body executed once */
80000374:	fca45ce3          	bge	s0,a0,8000034c <main+0x27c>
E:\VMshare\e203\zhengdian_E203\sdk\dhrystone\Debug/../application/dhry_1.c:177
    Proc_8 (Arr_1_Glob, Arr_2_Glob, Int_1_Loc, Int_3_Loc);
80000378:	01812583          	lw	a1,24(sp)
8000037c:	005000ef          	jal	ra,80000b80 <Proc_8.constprop.0.isra.0>
E:\VMshare\e203\zhengdian_E203\sdk\dhrystone\Debug/../application/dhry_1.c:179
    Proc_1 (Ptr_Glob);
80000380:	000d8513          	mv	a0,s11
80000384:	18d000ef          	jal	ra,80000d10 <Proc_1.isra.0>
E:\VMshare\e203\zhengdian_E203\sdk\dhrystone\Debug/../application/dhry_1.c:180
    for (Ch_Index = 'A'; Ch_Index <= Ch_2_Glob; ++Ch_Index)
80000388:	000b4983          	lbu	s3,0(s6)
8000038c:	533cfe63          	bgeu	s9,s3,800008c8 <main+0x7f8>
80000390:	04100a13          	li	s4,65
E:\VMshare\e203\zhengdian_E203\sdk\dhrystone\Debug/../application/dhry_1.c:163
    Int_2_Loc = 3;
80000394:	00300913          	li	s2,3
80000398:	0100006f          	j	800003a8 <main+0x2d8>
E:\VMshare\e203\zhengdian_E203\sdk\dhrystone\Debug/../application/dhry_1.c:180 (discriminator 2)
    for (Ch_Index = 'A'; Ch_Index <= Ch_2_Glob; ++Ch_Index)
8000039c:	001a0613          	addi	a2,s4,1
800003a0:	0ff67a13          	andi	s4,a2,255
800003a4:	0949e463          	bltu	s3,s4,8000042c <main+0x35c>
E:\VMshare\e203\zhengdian_E203\sdk\dhrystone\Debug/../application/dhry_1.c:183
                             /* loop body executed twice */
    {
      if (Enum_Loc == Func_1 (Ch_Index, 'C'))
800003a8:	04300593          	li	a1,67
800003ac:	000a0513          	mv	a0,s4
800003b0:	710000ef          	jal	ra,80000ac0 <Func_1>
800003b4:	01412283          	lw	t0,20(sp)
800003b8:	fe5512e3          	bne	a0,t0,8000039c <main+0x2cc>
E:\VMshare\e203\zhengdian_E203\sdk\dhrystone\Debug/../application/dhry_1.c:186
          /* then, not executed */
        {
        Proc_6 (Ident_1, &Enum_Loc);
800003bc:	01410593          	addi	a1,sp,20
800003c0:	00000513          	li	a0,0
800003c4:	025000ef          	jal	ra,80000be8 <Proc_6.isra.0>
E:\VMshare\e203\zhengdian_E203\sdk\dhrystone\Debug/../application/dhry_1.c:187
        strcpy (Str_2_Loc, "DHRYSTONE PROGRAM, 3'RD STRING");
800003c8:	00009517          	auipc	a0,0x9
800003cc:	41450793          	addi	a5,a0,1044 # 800097dc <__extendsfdf2+0x7ac>
800003d0:	0007a303          	lw	t1,0(a5)
800003d4:	0047a383          	lw	t2,4(a5)
800003d8:	0087af03          	lw	t5,8(a5)
800003dc:	00c7ae83          	lw	t4,12(a5)
800003e0:	0107ae03          	lw	t3,16(a5)
800003e4:	0147a883          	lw	a7,20(a5)
800003e8:	0187a803          	lw	a6,24(a5)
800003ec:	01c7d703          	lhu	a4,28(a5)
800003f0:	01e7c583          	lbu	a1,30(a5)
E:\VMshare\e203\zhengdian_E203\sdk\dhrystone\Debug/../application/dhry_1.c:180
    for (Ch_Index = 'A'; Ch_Index <= Ch_2_Glob; ++Ch_Index)
800003f4:	001a0613          	addi	a2,s4,1
E:\VMshare\e203\zhengdian_E203\sdk\dhrystone\Debug/../application/dhry_1.c:187
        strcpy (Str_2_Loc, "DHRYSTONE PROGRAM, 3'RD STRING");
800003f8:	02612023          	sw	t1,32(sp)
800003fc:	02712223          	sw	t2,36(sp)
80000400:	03e12423          	sw	t5,40(sp)
80000404:	03d12623          	sw	t4,44(sp)
80000408:	03c12823          	sw	t3,48(sp)
8000040c:	03112a23          	sw	a7,52(sp)
80000410:	03012c23          	sw	a6,56(sp)
80000414:	02e11e23          	sh	a4,60(sp)
80000418:	02b10f23          	sb	a1,62(sp)
E:\VMshare\e203\zhengdian_E203\sdk\dhrystone\Debug/../application/dhry_1.c:189
        Int_2_Loc = Run_Index;
        Int_Glob = Run_Index;
8000041c:	009aa023          	sw	s1,0(s5)
E:\VMshare\e203\zhengdian_E203\sdk\dhrystone\Debug/../application/dhry_1.c:180
    for (Ch_Index = 'A'; Ch_Index <= Ch_2_Glob; ++Ch_Index)
80000420:	0ff67a13          	andi	s4,a2,255
E:\VMshare\e203\zhengdian_E203\sdk\dhrystone\Debug/../application/dhry_1.c:189
        Int_Glob = Run_Index;
80000424:	00048913          	mv	s2,s1
E:\VMshare\e203\zhengdian_E203\sdk\dhrystone\Debug/../application/dhry_1.c:180
    for (Ch_Index = 'A'; Ch_Index <= Ch_2_Glob; ++Ch_Index)
80000428:	f949f0e3          	bgeu	s3,s4,800003a8 <main+0x2d8>
E:\VMshare\e203\zhengdian_E203\sdk\dhrystone\Debug/../application/dhry_1.c:193 (discriminator 2)
        }
    }
      /* Int_1_Loc == 3, Int_2_Loc == 3, Int_3_Loc == 7 */
    Int_2_Loc = Int_2_Loc * Int_1_Loc;
8000042c:	01c12083          	lw	ra,28(sp)
E:\VMshare\e203\zhengdian_E203\sdk\dhrystone\Debug/../application/dhry_1.c:194 (discriminator 2)
    Int_1_Loc = Int_2_Loc / Int_3_Loc;
80000430:	01812a03          	lw	s4,24(sp)
E:\VMshare\e203\zhengdian_E203\sdk\dhrystone\Debug/../application/dhry_1.c:156 (discriminator 2)
  for (Run_Index = 1; Run_Index <= Number_Of_Runs; ++Run_Index)
80000434:	00148493          	addi	s1,s1,1
E:\VMshare\e203\zhengdian_E203\sdk\dhrystone\Debug/../application/dhry_1.c:193 (discriminator 2)
    Int_2_Loc = Int_2_Loc * Int_1_Loc;
80000438:	02190933          	mul	s2,s2,ra
E:\VMshare\e203\zhengdian_E203\sdk\dhrystone\Debug/../application/dhry_1.c:197 (discriminator 2)
    Int_2_Loc = 7 * (Int_2_Loc - Int_3_Loc) - Int_1_Loc;
      /* Int_1_Loc == 1, Int_2_Loc == 13, Int_3_Loc == 7 */
    Proc_2 (&Int_1_Loc);
8000043c:	01c10513          	addi	a0,sp,28
E:\VMshare\e203\zhengdian_E203\sdk\dhrystone\Debug/../application/dhry_1.c:194 (discriminator 2)
    Int_1_Loc = Int_2_Loc / Int_3_Loc;
80000440:	034949b3          	div	s3,s2,s4
80000444:	01312e23          	sw	s3,28(sp)
E:\VMshare\e203\zhengdian_E203\sdk\dhrystone\Debug/../application/dhry_1.c:197 (discriminator 2)
    Proc_2 (&Int_1_Loc);
80000448:	221000ef          	jal	ra,80000e68 <Proc_2.isra.0>
E:\VMshare\e203\zhengdian_E203\sdk\dhrystone\Debug/../application/dhry_1.c:156 (discriminator 2)
  for (Run_Index = 1; Run_Index <= Number_Of_Runs; ++Run_Index)
8000044c:	e98490e3          	bne	s1,s8,800002cc <main+0x1fc>
E:\VMshare\e203\zhengdian_E203\sdk\dhrystone\Debug/../application/dhry_1.c:205
  } /* loop "for Run_Index" */

  /**************/
  /* Stop timer */
  /**************/
  End_Cycle = csr_cycle ( (long *) 0);
80000450:	00000513          	li	a0,0
80000454:	690000ef          	jal	ra,80000ae4 <csr_cycle>
80000458:	00050d93          	mv	s11,a0
8000045c:	88818d13          	addi	s10,gp,-1912 # 90000258 <End_Cycle>
E:\VMshare\e203\zhengdian_E203\sdk\dhrystone\Debug/../application/dhry_1.c:212
#ifdef TIMES
  times (&time_info);
  End_Time = (long) time_info.tms_utime;
#endif
#ifdef TIME
  End_Time = time ( (long *) 0);
80000460:	00000513          	li	a0,0
E:\VMshare\e203\zhengdian_E203\sdk\dhrystone\Debug/../application/dhry_1.c:205
  End_Cycle = csr_cycle ( (long *) 0);
80000464:	01bd2023          	sw	s11,0(s10)
E:\VMshare\e203\zhengdian_E203\sdk\dhrystone\Debug/../application/dhry_1.c:212
  End_Time = time ( (long *) 0);
80000468:	6fc000ef          	jal	ra,80000b64 <time>
8000046c:	89018493          	addi	s1,gp,-1904 # 90000260 <End_Time>
80000470:	00050c93          	mv	s9,a0
E:\VMshare\e203\zhengdian_E203\sdk\dhrystone\Debug/../application/dhry_1.c:214
#endif
  End_Instret = csr_instret ( (long *) 0);
80000474:	00000513          	li	a0,0
E:\VMshare\e203\zhengdian_E203\sdk\dhrystone\Debug/../application/dhry_1.c:212
  End_Time = time ( (long *) 0);
80000478:	0194a023          	sw	s9,0(s1)
E:\VMshare\e203\zhengdian_E203\sdk\dhrystone\Debug/../application/dhry_1.c:214
  End_Instret = csr_instret ( (long *) 0);
8000047c:	6a8000ef          	jal	ra,80000b24 <csr_instret>
E:\VMshare\e203\zhengdian_E203\sdk\dhrystone\Debug/../application/dhry_1.c:216

  printf ("Execution ends\n");
80000480:	00009697          	auipc	a3,0x9
E:\VMshare\e203\zhengdian_E203\sdk\dhrystone\Debug/../application/dhry_1.c:214
  End_Instret = csr_instret ( (long *) 0);
80000484:	00050f93          	mv	t6,a0
E:\VMshare\e203\zhengdian_E203\sdk\dhrystone\Debug/../application/dhry_1.c:216
  printf ("Execution ends\n");
80000488:	e4068513          	addi	a0,a3,-448 # 800092c0 <__extendsfdf2+0x290>
E:\VMshare\e203\zhengdian_E203\sdk\dhrystone\Debug/../application/dhry_1.c:214
  End_Instret = csr_instret ( (long *) 0);
8000048c:	89f1a623          	sw	t6,-1908(gp) # 9000025c <End_Instret>
E:\VMshare\e203\zhengdian_E203\sdk\dhrystone\Debug/../application/dhry_1.c:216
  printf ("Execution ends\n");
80000490:	380020ef          	jal	ra,80002810 <iprintf>
E:\VMshare\e203\zhengdian_E203\sdk\dhrystone\Debug/../application/dhry_1.c:217
  printf ("\n");
80000494:	00009517          	auipc	a0,0x9
80000498:	29050513          	addi	a0,a0,656 # 80009724 <__extendsfdf2+0x6f4>
8000049c:	374020ef          	jal	ra,80002810 <iprintf>
E:\VMshare\e203\zhengdian_E203\sdk\dhrystone\Debug/../application/dhry_1.c:218
  printf ("Final values of the variables used in the benchmark:\n");
800004a0:	00009797          	auipc	a5,0x9
800004a4:	e3078513          	addi	a0,a5,-464 # 800092d0 <__extendsfdf2+0x2a0>
800004a8:	368020ef          	jal	ra,80002810 <iprintf>
E:\VMshare\e203\zhengdian_E203\sdk\dhrystone\Debug/../application/dhry_1.c:219
  printf ("\n");
800004ac:	00009317          	auipc	t1,0x9
800004b0:	27830513          	addi	a0,t1,632 # 80009724 <__extendsfdf2+0x6f4>
800004b4:	35c020ef          	jal	ra,80002810 <iprintf>
E:\VMshare\e203\zhengdian_E203\sdk\dhrystone\Debug/../application/dhry_1.c:220
  printf ("Int_Glob:            %d\n", Int_Glob);
800004b8:	000aa583          	lw	a1,0(s5)
800004bc:	00009a97          	auipc	s5,0x9
800004c0:	e4ca8513          	addi	a0,s5,-436 # 80009308 <__extendsfdf2+0x2d8>
800004c4:	34c020ef          	jal	ra,80002810 <iprintf>
E:\VMshare\e203\zhengdian_E203\sdk\dhrystone\Debug/../application/dhry_1.c:221
  printf ("        should be:   %d\n", 5);
800004c8:	00009397          	auipc	t2,0x9
800004cc:	e5c38513          	addi	a0,t2,-420 # 80009324 <__extendsfdf2+0x2f4>
800004d0:	00500593          	li	a1,5
800004d4:	33c020ef          	jal	ra,80002810 <iprintf>
E:\VMshare\e203\zhengdian_E203\sdk\dhrystone\Debug/../application/dhry_1.c:222
  printf ("Bool_Glob:           %d\n", Bool_Glob);
800004d8:	000ba583          	lw	a1,0(s7)
800004dc:	00009b97          	auipc	s7,0x9
800004e0:	e64b8513          	addi	a0,s7,-412 # 80009340 <__extendsfdf2+0x310>
800004e4:	32c020ef          	jal	ra,80002810 <iprintf>
E:\VMshare\e203\zhengdian_E203\sdk\dhrystone\Debug/../application/dhry_1.c:223
  printf ("        should be:   %d\n", 1);
800004e8:	00009f17          	auipc	t5,0x9
800004ec:	e3cf0513          	addi	a0,t5,-452 # 80009324 <__extendsfdf2+0x2f4>
800004f0:	00100593          	li	a1,1
800004f4:	31c020ef          	jal	ra,80002810 <iprintf>
E:\VMshare\e203\zhengdian_E203\sdk\dhrystone\Debug/../application/dhry_1.c:224
  printf ("Ch_1_Glob:           %c\n", Ch_1_Glob);
800004f8:	8801c583          	lbu	a1,-1920(gp) # 90000250 <Ch_1_Glob>
800004fc:	00009e17          	auipc	t3,0x9
80000500:	e60e0513          	addi	a0,t3,-416 # 8000935c <__extendsfdf2+0x32c>
80000504:	30c020ef          	jal	ra,80002810 <iprintf>
E:\VMshare\e203\zhengdian_E203\sdk\dhrystone\Debug/../application/dhry_1.c:225
  printf ("        should be:   %c\n", 'A');
80000508:	00009897          	auipc	a7,0x9
8000050c:	e7088513          	addi	a0,a7,-400 # 80009378 <__extendsfdf2+0x348>
80000510:	04100593          	li	a1,65
80000514:	2fc020ef          	jal	ra,80002810 <iprintf>
E:\VMshare\e203\zhengdian_E203\sdk\dhrystone\Debug/../application/dhry_1.c:226
  printf ("Ch_2_Glob:           %c\n", Ch_2_Glob);
80000518:	000b4583          	lbu	a1,0(s6)
8000051c:	00009b17          	auipc	s6,0x9
80000520:	e78b0513          	addi	a0,s6,-392 # 80009394 <__extendsfdf2+0x364>
80000524:	2ec020ef          	jal	ra,80002810 <iprintf>
E:\VMshare\e203\zhengdian_E203\sdk\dhrystone\Debug/../application/dhry_1.c:227
  printf ("        should be:   %c\n", 'B');
80000528:	00009817          	auipc	a6,0x9
8000052c:	e5080513          	addi	a0,a6,-432 # 80009378 <__extendsfdf2+0x348>
80000530:	04200593          	li	a1,66
80000534:	2dc020ef          	jal	ra,80002810 <iprintf>
E:\VMshare\e203\zhengdian_E203\sdk\dhrystone\Debug/../application/dhry_1.c:228
  printf ("Arr_1_Glob[8]:       %d\n", Arr_1_Glob[8]);
80000538:	8b418593          	addi	a1,gp,-1868 # 90000284 <Arr_1_Glob>
8000053c:	0205a583          	lw	a1,32(a1)
80000540:	00009617          	auipc	a2,0x9
80000544:	e7060513          	addi	a0,a2,-400 # 800093b0 <__extendsfdf2+0x380>
80000548:	2c8020ef          	jal	ra,80002810 <iprintf>
E:\VMshare\e203\zhengdian_E203\sdk\dhrystone\Debug/../application/dhry_1.c:229
  printf ("        should be:   %d\n", 7);
8000054c:	00009d97          	auipc	s11,0x9
80000550:	00700593          	li	a1,7
80000554:	dd8d8513          	addi	a0,s11,-552 # 80009324 <__extendsfdf2+0x2f4>
E:\VMshare\e203\zhengdian_E203\sdk\dhrystone\Debug/../application/dhry_1.c:230
  printf ("Arr_2_Glob[8][7]:    %d\n", Arr_2_Glob[8][7]);
80000558:	10000417          	auipc	s0,0x10000
E:\VMshare\e203\zhengdian_E203\sdk\dhrystone\Debug/../application/dhry_1.c:229
  printf ("        should be:   %d\n", 7);
8000055c:	2b4020ef          	jal	ra,80002810 <iprintf>
E:\VMshare\e203\zhengdian_E203\sdk\dhrystone\Debug/../application/dhry_1.c:230
  printf ("Arr_2_Glob[8][7]:    %d\n", Arr_2_Glob[8][7]);
80000560:	df440c93          	addi	s9,s0,-524 # 9000034c <Arr_2_Glob>
80000564:	65cca583          	lw	a1,1628(s9)
80000568:	00009c17          	auipc	s8,0x9
8000056c:	e64c0513          	addi	a0,s8,-412 # 800093cc <__extendsfdf2+0x39c>
80000570:	2a0020ef          	jal	ra,80002810 <iprintf>
E:\VMshare\e203\zhengdian_E203\sdk\dhrystone\Debug/../application/dhry_1.c:231
  printf ("        should be:   Number_Of_Runs + 10\n");
80000574:	00009f97          	auipc	t6,0x9
80000578:	e74f8513          	addi	a0,t6,-396 # 800093e8 <__extendsfdf2+0x3b8>
8000057c:	294020ef          	jal	ra,80002810 <iprintf>
E:\VMshare\e203\zhengdian_E203\sdk\dhrystone\Debug/../application/dhry_1.c:232
  printf ("Ptr_Glob->\n");
80000580:	00009697          	auipc	a3,0x9
80000584:	e9468513          	addi	a0,a3,-364 # 80009414 <__extendsfdf2+0x3e4>
80000588:	288020ef          	jal	ra,80002810 <iprintf>
E:\VMshare\e203\zhengdian_E203\sdk\dhrystone\Debug/../application/dhry_1.c:233
  printf ("  Ptr_Comp:          %d\n", (int) Ptr_Glob->Ptr_Comp);
8000058c:	00012a83          	lw	s5,0(sp)
80000590:	00009517          	auipc	a0,0x9
80000594:	e9050513          	addi	a0,a0,-368 # 80009420 <__extendsfdf2+0x3f0>
80000598:	000aa283          	lw	t0,0(s5)
E:\VMshare\e203\zhengdian_E203\sdk\dhrystone\Debug/../application/dhry_1.c:236
  printf ("        should be:   (implementation-dependent)\n");
  printf ("  Discr:             %d\n", Ptr_Glob->Discr);
  printf ("        should be:   %d\n", 0);
8000059c:	00009b97          	auipc	s7,0x9
E:\VMshare\e203\zhengdian_E203\sdk\dhrystone\Debug/../application/dhry_1.c:239
  printf ("  Enum_Comp:         %d\n", Ptr_Glob->variant.var_1.Enum_Comp);
  printf ("        should be:   %d\n", 2);
  printf ("  Int_Comp:          %d\n", Ptr_Glob->variant.var_1.Int_Comp);
800005a0:	00009b17          	auipc	s6,0x9
E:\VMshare\e203\zhengdian_E203\sdk\dhrystone\Debug/../application/dhry_1.c:233
  printf ("  Ptr_Comp:          %d\n", (int) Ptr_Glob->Ptr_Comp);
800005a4:	0002a583          	lw	a1,0(t0)
E:\VMshare\e203\zhengdian_E203\sdk\dhrystone\Debug/../application/dhry_1.c:243
  printf ("        should be:   %d\n", 17);
  printf ("  Str_Comp:          %s\n", Ptr_Glob->variant.var_1.Str_Comp);
  printf ("        should be:   DHRYSTONE PROGRAM, SOME STRING\n");
  printf ("Next_Ptr_Glob->\n");
800005a8:	00009d97          	auipc	s11,0x9
E:\VMshare\e203\zhengdian_E203\sdk\dhrystone\Debug/../application/dhry_1.c:244
  printf ("  Ptr_Comp:          %d\n", (int) Next_Ptr_Glob->Ptr_Comp);
800005ac:	00009c17          	auipc	s8,0x9
E:\VMshare\e203\zhengdian_E203\sdk\dhrystone\Debug/../application/dhry_1.c:233
  printf ("  Ptr_Comp:          %d\n", (int) Ptr_Glob->Ptr_Comp);
800005b0:	260020ef          	jal	ra,80002810 <iprintf>
E:\VMshare\e203\zhengdian_E203\sdk\dhrystone\Debug/../application/dhry_1.c:234
  printf ("        should be:   (implementation-dependent)\n");
800005b4:	00009797          	auipc	a5,0x9
800005b8:	e8878513          	addi	a0,a5,-376 # 8000943c <__extendsfdf2+0x40c>
800005bc:	254020ef          	jal	ra,80002810 <iprintf>
E:\VMshare\e203\zhengdian_E203\sdk\dhrystone\Debug/../application/dhry_1.c:235
  printf ("  Discr:             %d\n", Ptr_Glob->Discr);
800005c0:	000aa303          	lw	t1,0(s5)
800005c4:	00009397          	auipc	t2,0x9
800005c8:	eac38513          	addi	a0,t2,-340 # 80009470 <__extendsfdf2+0x440>
800005cc:	00432583          	lw	a1,4(t1)
E:\VMshare\e203\zhengdian_E203\sdk\dhrystone\Debug/../application/dhry_1.c:195
    Int_2_Loc = 7 * (Int_2_Loc - Int_3_Loc) - Int_1_Loc;
800005d0:	41490a33          	sub	s4,s2,s4
800005d4:	003a1913          	slli	s2,s4,0x3
E:\VMshare\e203\zhengdian_E203\sdk\dhrystone\Debug/../application/dhry_1.c:235
  printf ("  Discr:             %d\n", Ptr_Glob->Discr);
800005d8:	238020ef          	jal	ra,80002810 <iprintf>
E:\VMshare\e203\zhengdian_E203\sdk\dhrystone\Debug/../application/dhry_1.c:236
  printf ("        should be:   %d\n", 0);
800005dc:	00000593          	li	a1,0
800005e0:	d88b8513          	addi	a0,s7,-632 # 80009324 <__extendsfdf2+0x2f4>
800005e4:	22c020ef          	jal	ra,80002810 <iprintf>
E:\VMshare\e203\zhengdian_E203\sdk\dhrystone\Debug/../application/dhry_1.c:237
  printf ("  Enum_Comp:         %d\n", Ptr_Glob->variant.var_1.Enum_Comp);
800005e8:	000aaf03          	lw	t5,0(s5)
800005ec:	00009e97          	auipc	t4,0x9
800005f0:	ea0e8513          	addi	a0,t4,-352 # 8000948c <__extendsfdf2+0x45c>
800005f4:	008f2583          	lw	a1,8(t5)
E:\VMshare\e203\zhengdian_E203\sdk\dhrystone\Debug/../application/dhry_1.c:250
  printf ("        should be:   (implementation-dependent), same as above\n");
  printf ("  Discr:             %d\n", Next_Ptr_Glob->Discr);
  printf ("        should be:   %d\n", 0);
  printf ("  Enum_Comp:         %d\n", Next_Ptr_Glob->variant.var_1.Enum_Comp);
  printf ("        should be:   %d\n", 1);
  printf ("  Int_Comp:          %d\n", Next_Ptr_Glob->variant.var_1.Int_Comp);
800005f8:	00009b97          	auipc	s7,0x9
E:\VMshare\e203\zhengdian_E203\sdk\dhrystone\Debug/../application/dhry_1.c:237
  printf ("  Enum_Comp:         %d\n", Ptr_Glob->variant.var_1.Enum_Comp);
800005fc:	214020ef          	jal	ra,80002810 <iprintf>
E:\VMshare\e203\zhengdian_E203\sdk\dhrystone\Debug/../application/dhry_1.c:238
  printf ("        should be:   %d\n", 2);
80000600:	00009e17          	auipc	t3,0x9
80000604:	d24e0513          	addi	a0,t3,-732 # 80009324 <__extendsfdf2+0x2f4>
80000608:	00200593          	li	a1,2
8000060c:	204020ef          	jal	ra,80002810 <iprintf>
E:\VMshare\e203\zhengdian_E203\sdk\dhrystone\Debug/../application/dhry_1.c:239
  printf ("  Int_Comp:          %d\n", Ptr_Glob->variant.var_1.Int_Comp);
80000610:	000aa883          	lw	a7,0(s5)
80000614:	f08b0513          	addi	a0,s6,-248 # 800094a8 <__extendsfdf2+0x478>
E:\VMshare\e203\zhengdian_E203\sdk\dhrystone\Debug/../application/dhry_1.c:255
  printf ("        should be:   %d\n", 18);
  printf ("  Str_Comp:          %s\n",
                                Next_Ptr_Glob->variant.var_1.Str_Comp);
  printf ("        should be:   DHRYSTONE PROGRAM, SOME STRING\n");
  printf ("Int_1_Loc:           %d\n", Int_1_Loc);
80000618:	00009b17          	auipc	s6,0x9
E:\VMshare\e203\zhengdian_E203\sdk\dhrystone\Debug/../application/dhry_1.c:239
  printf ("  Int_Comp:          %d\n", Ptr_Glob->variant.var_1.Int_Comp);
8000061c:	00c8a583          	lw	a1,12(a7)
80000620:	1f0020ef          	jal	ra,80002810 <iprintf>
E:\VMshare\e203\zhengdian_E203\sdk\dhrystone\Debug/../application/dhry_1.c:240
  printf ("        should be:   %d\n", 17);
80000624:	00009817          	auipc	a6,0x9
80000628:	d0080513          	addi	a0,a6,-768 # 80009324 <__extendsfdf2+0x2f4>
8000062c:	01100593          	li	a1,17
80000630:	1e0020ef          	jal	ra,80002810 <iprintf>
E:\VMshare\e203\zhengdian_E203\sdk\dhrystone\Debug/../application/dhry_1.c:241
  printf ("  Str_Comp:          %s\n", Ptr_Glob->variant.var_1.Str_Comp);
80000634:	000aa703          	lw	a4,0(s5)
80000638:	00009597          	auipc	a1,0x9
8000063c:	e8c58513          	addi	a0,a1,-372 # 800094c4 <__extendsfdf2+0x494>
80000640:	01070593          	addi	a1,a4,16
80000644:	1cc020ef          	jal	ra,80002810 <iprintf>
E:\VMshare\e203\zhengdian_E203\sdk\dhrystone\Debug/../application/dhry_1.c:242
  printf ("        should be:   DHRYSTONE PROGRAM, SOME STRING\n");
80000648:	00009617          	auipc	a2,0x9
8000064c:	e9860513          	addi	a0,a2,-360 # 800094e0 <__extendsfdf2+0x4b0>
80000650:	1c0020ef          	jal	ra,80002810 <iprintf>
E:\VMshare\e203\zhengdian_E203\sdk\dhrystone\Debug/../application/dhry_1.c:243
  printf ("Next_Ptr_Glob->\n");
80000654:	f70d8513          	addi	a0,s11,-144 # 80009518 <__extendsfdf2+0x4e8>
80000658:	1b8020ef          	jal	ra,80002810 <iprintf>
E:\VMshare\e203\zhengdian_E203\sdk\dhrystone\Debug/../application/dhry_1.c:244
  printf ("  Ptr_Comp:          %d\n", (int) Next_Ptr_Glob->Ptr_Comp);
8000065c:	00412403          	lw	s0,4(sp)
80000660:	e74c0513          	addi	a0,s8,-396 # 80009420 <__extendsfdf2+0x3f0>
E:\VMshare\e203\zhengdian_E203\sdk\dhrystone\Debug/../application/dhry_1.c:246
  printf ("  Discr:             %d\n", Next_Ptr_Glob->Discr);
80000664:	00009a97          	auipc	s5,0x9
E:\VMshare\e203\zhengdian_E203\sdk\dhrystone\Debug/../application/dhry_1.c:244
  printf ("  Ptr_Comp:          %d\n", (int) Next_Ptr_Glob->Ptr_Comp);
80000668:	00042c83          	lw	s9,0(s0)
E:\VMshare\e203\zhengdian_E203\sdk\dhrystone\Debug/../application/dhry_1.c:259
  printf ("        should be:   %d\n", 5);
  printf ("Int_2_Loc:           %d\n", Int_2_Loc);
  printf ("        should be:   %d\n", 13);
  printf ("Int_3_Loc:           %d\n", Int_3_Loc);
8000066c:	00009d97          	auipc	s11,0x9
E:\VMshare\e203\zhengdian_E203\sdk\dhrystone\Debug/../application/dhry_1.c:262
  printf ("        should be:   %d\n", 7);
  printf ("Enum_Loc:            %d\n", Enum_Loc);
  printf ("        should be:   %d\n", 1);
80000670:	00009c17          	auipc	s8,0x9
E:\VMshare\e203\zhengdian_E203\sdk\dhrystone\Debug/../application/dhry_1.c:244
  printf ("  Ptr_Comp:          %d\n", (int) Next_Ptr_Glob->Ptr_Comp);
80000674:	000ca583          	lw	a1,0(s9)
E:\VMshare\e203\zhengdian_E203\sdk\dhrystone\Debug/../application/dhry_1.c:261
  printf ("Enum_Loc:            %d\n", Enum_Loc);
80000678:	00009c97          	auipc	s9,0x9
E:\VMshare\e203\zhengdian_E203\sdk\dhrystone\Debug/../application/dhry_1.c:244
  printf ("  Ptr_Comp:          %d\n", (int) Next_Ptr_Glob->Ptr_Comp);
8000067c:	194020ef          	jal	ra,80002810 <iprintf>
E:\VMshare\e203\zhengdian_E203\sdk\dhrystone\Debug/../application/dhry_1.c:245
  printf ("        should be:   (implementation-dependent), same as above\n");
80000680:	00009f97          	auipc	t6,0x9
80000684:	eacf8513          	addi	a0,t6,-340 # 8000952c <__extendsfdf2+0x4fc>
80000688:	188020ef          	jal	ra,80002810 <iprintf>
E:\VMshare\e203\zhengdian_E203\sdk\dhrystone\Debug/../application/dhry_1.c:246
  printf ("  Discr:             %d\n", Next_Ptr_Glob->Discr);
8000068c:	00042683          	lw	a3,0(s0)
80000690:	e0ca8513          	addi	a0,s5,-500 # 80009470 <__extendsfdf2+0x440>
E:\VMshare\e203\zhengdian_E203\sdk\dhrystone\Debug/../application/dhry_1.c:266
  printf ("Str_1_Loc:           %s\n", Str_1_Loc);
  printf ("        should be:   DHRYSTONE PROGRAM, 1'ST STRING\n");
  printf ("Str_2_Loc:           %s\n", Str_2_Loc);
  printf ("        should be:   DHRYSTONE PROGRAM, 2'ND STRING\n");
80000694:	00009a97          	auipc	s5,0x9
E:\VMshare\e203\zhengdian_E203\sdk\dhrystone\Debug/../application/dhry_1.c:246
  printf ("  Discr:             %d\n", Next_Ptr_Glob->Discr);
80000698:	0046a583          	lw	a1,4(a3)
8000069c:	174020ef          	jal	ra,80002810 <iprintf>
E:\VMshare\e203\zhengdian_E203\sdk\dhrystone\Debug/../application/dhry_1.c:247
  printf ("        should be:   %d\n", 0);
800006a0:	00009297          	auipc	t0,0x9
800006a4:	c8428513          	addi	a0,t0,-892 # 80009324 <__extendsfdf2+0x2f4>
800006a8:	00000593          	li	a1,0
800006ac:	164020ef          	jal	ra,80002810 <iprintf>
E:\VMshare\e203\zhengdian_E203\sdk\dhrystone\Debug/../application/dhry_1.c:248
  printf ("  Enum_Comp:         %d\n", Next_Ptr_Glob->variant.var_1.Enum_Comp);
800006b0:	00042783          	lw	a5,0(s0)
800006b4:	00009517          	auipc	a0,0x9
800006b8:	dd850513          	addi	a0,a0,-552 # 8000948c <__extendsfdf2+0x45c>
800006bc:	0087a583          	lw	a1,8(a5)
800006c0:	150020ef          	jal	ra,80002810 <iprintf>
E:\VMshare\e203\zhengdian_E203\sdk\dhrystone\Debug/../application/dhry_1.c:249
  printf ("        should be:   %d\n", 1);
800006c4:	00009317          	auipc	t1,0x9
800006c8:	c6030513          	addi	a0,t1,-928 # 80009324 <__extendsfdf2+0x2f4>
800006cc:	00100593          	li	a1,1
800006d0:	140020ef          	jal	ra,80002810 <iprintf>
E:\VMshare\e203\zhengdian_E203\sdk\dhrystone\Debug/../application/dhry_1.c:250
  printf ("  Int_Comp:          %d\n", Next_Ptr_Glob->variant.var_1.Int_Comp);
800006d4:	00042383          	lw	t2,0(s0)
800006d8:	eb0b8513          	addi	a0,s7,-336 # 800094a8 <__extendsfdf2+0x478>
800006dc:	00c3a583          	lw	a1,12(t2)
800006e0:	130020ef          	jal	ra,80002810 <iprintf>
E:\VMshare\e203\zhengdian_E203\sdk\dhrystone\Debug/../application/dhry_1.c:251
  printf ("        should be:   %d\n", 18);
800006e4:	00009f17          	auipc	t5,0x9
800006e8:	c40f0513          	addi	a0,t5,-960 # 80009324 <__extendsfdf2+0x2f4>
800006ec:	01200593          	li	a1,18
800006f0:	120020ef          	jal	ra,80002810 <iprintf>
E:\VMshare\e203\zhengdian_E203\sdk\dhrystone\Debug/../application/dhry_1.c:253
                                Next_Ptr_Glob->variant.var_1.Str_Comp);
800006f4:	00042e83          	lw	t4,0(s0)
E:\VMshare\e203\zhengdian_E203\sdk\dhrystone\Debug/../application/dhry_1.c:252
  printf ("  Str_Comp:          %s\n",
800006f8:	00009e17          	auipc	t3,0x9
800006fc:	dcce0513          	addi	a0,t3,-564 # 800094c4 <__extendsfdf2+0x494>
80000700:	010e8593          	addi	a1,t4,16
80000704:	10c020ef          	jal	ra,80002810 <iprintf>
E:\VMshare\e203\zhengdian_E203\sdk\dhrystone\Debug/../application/dhry_1.c:254
  printf ("        should be:   DHRYSTONE PROGRAM, SOME STRING\n");
80000708:	00009897          	auipc	a7,0x9
8000070c:	dd888513          	addi	a0,a7,-552 # 800094e0 <__extendsfdf2+0x4b0>
80000710:	100020ef          	jal	ra,80002810 <iprintf>
E:\VMshare\e203\zhengdian_E203\sdk\dhrystone\Debug/../application/dhry_1.c:255
  printf ("Int_1_Loc:           %d\n", Int_1_Loc);
80000714:	01c12583          	lw	a1,28(sp)
80000718:	f54b0513          	addi	a0,s6,-172 # 8000956c <__extendsfdf2+0x53c>
E:\VMshare\e203\zhengdian_E203\sdk\dhrystone\Debug/../application/dhry_1.c:260
  printf ("        should be:   %d\n", 7);
8000071c:	00009417          	auipc	s0,0x9
E:\VMshare\e203\zhengdian_E203\sdk\dhrystone\Debug/../application/dhry_1.c:255
  printf ("Int_1_Loc:           %d\n", Int_1_Loc);
80000720:	0f0020ef          	jal	ra,80002810 <iprintf>
E:\VMshare\e203\zhengdian_E203\sdk\dhrystone\Debug/../application/dhry_1.c:256
  printf ("        should be:   %d\n", 5);
80000724:	00009817          	auipc	a6,0x9
80000728:	c0080513          	addi	a0,a6,-1024 # 80009324 <__extendsfdf2+0x2f4>
8000072c:	00500593          	li	a1,5
80000730:	0e0020ef          	jal	ra,80002810 <iprintf>
E:\VMshare\e203\zhengdian_E203\sdk\dhrystone\Debug/../application/dhry_1.c:195
    Int_2_Loc = 7 * (Int_2_Loc - Int_3_Loc) - Int_1_Loc;
80000734:	41490733          	sub	a4,s2,s4
E:\VMshare\e203\zhengdian_E203\sdk\dhrystone\Debug/../application/dhry_1.c:257
  printf ("Int_2_Loc:           %d\n", Int_2_Loc);
80000738:	00009617          	auipc	a2,0x9
8000073c:	413705b3          	sub	a1,a4,s3
80000740:	e5060513          	addi	a0,a2,-432 # 80009588 <__extendsfdf2+0x558>
80000744:	0cc020ef          	jal	ra,80002810 <iprintf>
E:\VMshare\e203\zhengdian_E203\sdk\dhrystone\Debug/../application/dhry_1.c:258
  printf ("        should be:   %d\n", 13);
80000748:	00009997          	auipc	s3,0x9
8000074c:	00d00593          	li	a1,13
80000750:	bdc98513          	addi	a0,s3,-1060 # 80009324 <__extendsfdf2+0x2f4>
80000754:	0bc020ef          	jal	ra,80002810 <iprintf>
E:\VMshare\e203\zhengdian_E203\sdk\dhrystone\Debug/../application/dhry_1.c:259
  printf ("Int_3_Loc:           %d\n", Int_3_Loc);
80000758:	01812583          	lw	a1,24(sp)
8000075c:	f38d8513          	addi	a0,s11,-200 # 800095a4 <__extendsfdf2+0x574>
E:\VMshare\e203\zhengdian_E203\sdk\dhrystone\Debug/../application/dhry_1.c:271
  printf ("\n");

  User_Time = End_Time - Begin_Time;
  User_Instret = End_Instret - Begin_Instret;
  User_Cycle = End_Cycle - Begin_Cycle;
80000760:	8a018b13          	addi	s6,gp,-1888 # 90000270 <User_Cycle>
E:\VMshare\e203\zhengdian_E203\sdk\dhrystone\Debug/../application/dhry_1.c:259
  printf ("Int_3_Loc:           %d\n", Int_3_Loc);
80000764:	0ac020ef          	jal	ra,80002810 <iprintf>
E:\VMshare\e203\zhengdian_E203\sdk\dhrystone\Debug/../application/dhry_1.c:260
  printf ("        should be:   %d\n", 7);
80000768:	00700593          	li	a1,7
8000076c:	c0840513          	addi	a0,s0,-1016 # 80009324 <__extendsfdf2+0x2f4>
80000770:	0a0020ef          	jal	ra,80002810 <iprintf>
E:\VMshare\e203\zhengdian_E203\sdk\dhrystone\Debug/../application/dhry_1.c:261
  printf ("Enum_Loc:            %d\n", Enum_Loc);
80000774:	01412583          	lw	a1,20(sp)
80000778:	f48c8513          	addi	a0,s9,-184 # 800095c0 <__extendsfdf2+0x590>
8000077c:	094020ef          	jal	ra,80002810 <iprintf>
E:\VMshare\e203\zhengdian_E203\sdk\dhrystone\Debug/../application/dhry_1.c:262
  printf ("        should be:   %d\n", 1);
80000780:	00100593          	li	a1,1
80000784:	cb4c0513          	addi	a0,s8,-844 # 80009324 <__extendsfdf2+0x2f4>
80000788:	088020ef          	jal	ra,80002810 <iprintf>
E:\VMshare\e203\zhengdian_E203\sdk\dhrystone\Debug/../application/dhry_1.c:263
  printf ("Str_1_Loc:           %s\n", Str_1_Loc);
8000078c:	00009f97          	auipc	t6,0x9
80000790:	e50f8513          	addi	a0,t6,-432 # 800095dc <__extendsfdf2+0x5ac>
80000794:	04010593          	addi	a1,sp,64
80000798:	078020ef          	jal	ra,80002810 <iprintf>
E:\VMshare\e203\zhengdian_E203\sdk\dhrystone\Debug/../application/dhry_1.c:264
  printf ("        should be:   DHRYSTONE PROGRAM, 1'ST STRING\n");
8000079c:	00009597          	auipc	a1,0x9
800007a0:	e5c58513          	addi	a0,a1,-420 # 800095f8 <__extendsfdf2+0x5c8>
800007a4:	06c020ef          	jal	ra,80002810 <iprintf>
E:\VMshare\e203\zhengdian_E203\sdk\dhrystone\Debug/../application/dhry_1.c:265
  printf ("Str_2_Loc:           %s\n", Str_2_Loc);
800007a8:	00009697          	auipc	a3,0x9
800007ac:	02010593          	addi	a1,sp,32
800007b0:	e8868513          	addi	a0,a3,-376 # 80009630 <__extendsfdf2+0x600>
800007b4:	05c020ef          	jal	ra,80002810 <iprintf>
E:\VMshare\e203\zhengdian_E203\sdk\dhrystone\Debug/../application/dhry_1.c:266
  printf ("        should be:   DHRYSTONE PROGRAM, 2'ND STRING\n");
800007b8:	fb8a8513          	addi	a0,s5,-72 # 8000964c <__extendsfdf2+0x61c>
800007bc:	054020ef          	jal	ra,80002810 <iprintf>
E:\VMshare\e203\zhengdian_E203\sdk\dhrystone\Debug/../application/dhry_1.c:267
  printf ("\n");
800007c0:	00009297          	auipc	t0,0x9
800007c4:	f6428513          	addi	a0,t0,-156 # 80009724 <__extendsfdf2+0x6f4>
800007c8:	048020ef          	jal	ra,80002810 <iprintf>
E:\VMshare\e203\zhengdian_E203\sdk\dhrystone\Debug/../application/dhry_1.c:271
  User_Cycle = End_Cycle - Begin_Cycle;
800007cc:	00c12783          	lw	a5,12(sp)
E:\VMshare\e203\zhengdian_E203\sdk\dhrystone\Debug/../application/dhry_1.c:269
  User_Time = End_Time - Begin_Time;
800007d0:	0004a303          	lw	t1,0(s1)
800007d4:	00812483          	lw	s1,8(sp)
E:\VMshare\e203\zhengdian_E203\sdk\dhrystone\Debug/../application/dhry_1.c:271
  User_Cycle = End_Cycle - Begin_Cycle;
800007d8:	000d2d03          	lw	s10,0(s10)
800007dc:	0007a503          	lw	a0,0(a5)
E:\VMshare\e203\zhengdian_E203\sdk\dhrystone\Debug/../application/dhry_1.c:269
  User_Time = End_Time - Begin_Time;
800007e0:	0004a383          	lw	t2,0(s1)
E:\VMshare\e203\zhengdian_E203\sdk\dhrystone\Debug/../application/dhry_1.c:276

#ifdef CFG_SIMULATION
  if (0)
#else
  if (User_Time < Too_Small_Time)
800007e4:	00100e93          	li	t4,1
E:\VMshare\e203\zhengdian_E203\sdk\dhrystone\Debug/../application/dhry_1.c:271
  User_Cycle = End_Cycle - Begin_Cycle;
800007e8:	40ad0533          	sub	a0,s10,a0
E:\VMshare\e203\zhengdian_E203\sdk\dhrystone\Debug/../application/dhry_1.c:269
  User_Time = End_Time - Begin_Time;
800007ec:	40730f33          	sub	t5,t1,t2
E:\VMshare\e203\zhengdian_E203\sdk\dhrystone\Debug/../application/dhry_1.c:271
  User_Cycle = End_Cycle - Begin_Cycle;
800007f0:	00ab2023          	sw	a0,0(s6)
E:\VMshare\e203\zhengdian_E203\sdk\dhrystone\Debug/../application/dhry_1.c:276
  if (User_Time < Too_Small_Time)
800007f4:	0deede63          	bge	t4,t5,800008d0 <main+0x800>
E:\VMshare\e203\zhengdian_E203\sdk\dhrystone\Debug/../application/dhry_1.c:305
    //printf ("%6.1f \n", Dhrystones_Per_Second);
    //printf ("\n");
    //printf ("\n");

    //DMIPS_MHZ = (Dhrystones_Per_Second/8.388)/1757;
    DMIPS_MHZ = (1000000/((float)User_Cycle/(float)Number_Of_Runs))/1757;
800007f8:	88418a13          	addi	s4,gp,-1916 # 90000254 <DMIPS_MHZ>
800007fc:	72c080ef          	jal	ra,80008f28 <__floatsisf>
80000800:	10000e17          	auipc	t3,0x10000
80000804:	a30e2583          	lw	a1,-1488(t3) # 90000230 <_impure_ptr+0x58>
E:\VMshare\e203\zhengdian_E203\sdk\dhrystone\Debug/../application/dhry_1.c:310

    //printf ("Print Personal Added Addtional Info to Easy Visual Analysis\n");
    //printf ("\n");
    printf (" (*) User_Cycle for total run through Dhrystone with loops %d: \n", Number_Of_Runs);
    printf ("%ld \n", User_Cycle);
80000808:	00009997          	auipc	s3,0x9
E:\VMshare\e203\zhengdian_E203\sdk\dhrystone\Debug/../application/dhry_1.c:322
    //printf (" (*) Please ignore the above printed Dhrystones_Per_Second since it is using the User_Time which\n");
    //printf ("       is a long type and derived from a division and generated quite lots of deviations. So here\n");
    //printf ("       we use the original User_Cycle to caculate.\n");
    //printf ("     Assume the core is running at 1MHZ, and each loop need cycles of User_Cycle/Number_Of_Runs \n");
    //printf ("       then the Dhrystones_Per_Second is 1000000/(User_Cycle/Number_Of_Runs)\n");
    printf ("       So the DMIPS/MHz can be caculated by: \n");
8000080c:	00009d97          	auipc	s11,0x9
E:\VMshare\e203\zhengdian_E203\sdk\dhrystone\Debug/../application/dhry_1.c:305
    DMIPS_MHZ = (1000000/((float)User_Cycle/(float)Number_Of_Runs))/1757;
80000810:	3e0080ef          	jal	ra,80008bf0 <__divsf3>
80000814:	10000897          	auipc	a7,0x10000
80000818:	00050593          	mv	a1,a0
8000081c:	a208a503          	lw	a0,-1504(a7) # 90000234 <_impure_ptr+0x5c>
E:\VMshare\e203\zhengdian_E203\sdk\dhrystone\Debug/../application/dhry_1.c:323
    printf ("       1000000/(User_Cycle/Number_Of_Runs)/1757 = %2.6f DMIPS/MHz\n", DMIPS_MHZ);
80000820:	00009417          	auipc	s0,0x9
E:\VMshare\e203\zhengdian_E203\sdk\dhrystone\Debug/../application/dhry_1.c:324
    printf ("\n");
80000824:	00009c97          	auipc	s9,0x9
E:\VMshare\e203\zhengdian_E203\sdk\dhrystone\Debug/../application/dhry_1.c:305
    DMIPS_MHZ = (1000000/((float)User_Cycle/(float)Number_Of_Runs))/1757;
80000828:	3c8080ef          	jal	ra,80008bf0 <__divsf3>
8000082c:	10000817          	auipc	a6,0x10000
80000830:	a0c82583          	lw	a1,-1524(a6) # 90000238 <_impure_ptr+0x60>
80000834:	3bc080ef          	jal	ra,80008bf0 <__divsf3>
E:\VMshare\e203\zhengdian_E203\sdk\dhrystone\Debug/../application/dhry_1.c:309
    printf (" (*) User_Cycle for total run through Dhrystone with loops %d: \n", Number_Of_Runs);
80000838:	00009617          	auipc	a2,0x9
8000083c:	0007a737          	lui	a4,0x7a
80000840:	12070593          	addi	a1,a4,288 # 7a120 <dhry_stubs.c.aa5f359a+0x76545>
E:\VMshare\e203\zhengdian_E203\sdk\dhrystone\Debug/../application/dhry_1.c:305
    DMIPS_MHZ = (1000000/((float)User_Cycle/(float)Number_Of_Runs))/1757;
80000844:	00050913          	mv	s2,a0
E:\VMshare\e203\zhengdian_E203\sdk\dhrystone\Debug/../application/dhry_1.c:309
    printf (" (*) User_Cycle for total run through Dhrystone with loops %d: \n", Number_Of_Runs);
80000848:	ea460513          	addi	a0,a2,-348 # 800096dc <__extendsfdf2+0x6ac>
E:\VMshare\e203\zhengdian_E203\sdk\dhrystone\Debug/../application/dhry_1.c:305
    DMIPS_MHZ = (1000000/((float)User_Cycle/(float)Number_Of_Runs))/1757;
8000084c:	012a2023          	sw	s2,0(s4)
E:\VMshare\e203\zhengdian_E203\sdk\dhrystone\Debug/../application/dhry_1.c:309
    printf (" (*) User_Cycle for total run through Dhrystone with loops %d: \n", Number_Of_Runs);
80000850:	7c1010ef          	jal	ra,80002810 <iprintf>
E:\VMshare\e203\zhengdian_E203\sdk\dhrystone\Debug/../application/dhry_1.c:310
    printf ("%ld \n", User_Cycle);
80000854:	000b2583          	lw	a1,0(s6)
80000858:	f1898513          	addi	a0,s3,-232 # 80009720 <__extendsfdf2+0x6f0>
8000085c:	7b5010ef          	jal	ra,80002810 <iprintf>
E:\VMshare\e203\zhengdian_E203\sdk\dhrystone\Debug/../application/dhry_1.c:322
    printf ("       So the DMIPS/MHz can be caculated by: \n");
80000860:	f1cd8513          	addi	a0,s11,-228 # 80009728 <__extendsfdf2+0x6f8>
80000864:	7ad010ef          	jal	ra,80002810 <iprintf>
E:\VMshare\e203\zhengdian_E203\sdk\dhrystone\Debug/../application/dhry_1.c:323
    printf ("       1000000/(User_Cycle/Number_Of_Runs)/1757 = %2.6f DMIPS/MHz\n", DMIPS_MHZ);
80000868:	000a2503          	lw	a0,0(s4)
8000086c:	7c4080ef          	jal	ra,80009030 <__extendsfdf2>
80000870:	00050613          	mv	a2,a0
80000874:	00058693          	mv	a3,a1
80000878:	f3840513          	addi	a0,s0,-200 # 80009758 <__extendsfdf2+0x728>
8000087c:	795010ef          	jal	ra,80002810 <iprintf>
E:\VMshare\e203\zhengdian_E203\sdk\dhrystone\Debug/../application/dhry_1.c:324
    printf ("\n");
80000880:	f00c8513          	addi	a0,s9,-256 # 80009724 <__extendsfdf2+0x6f4>
80000884:	78d010ef          	jal	ra,80002810 <iprintf>
E:\VMshare\e203\zhengdian_E203\sdk\dhrystone\Debug/../application/dhry_1.c:327
  }

}
80000888:	09c12083          	lw	ra,156(sp)
8000088c:	09812403          	lw	s0,152(sp)
80000890:	09412483          	lw	s1,148(sp)
80000894:	09012903          	lw	s2,144(sp)
80000898:	08c12983          	lw	s3,140(sp)
8000089c:	08812a03          	lw	s4,136(sp)
800008a0:	08412a83          	lw	s5,132(sp)
800008a4:	08012b03          	lw	s6,128(sp)
800008a8:	07c12b83          	lw	s7,124(sp)
800008ac:	07812c03          	lw	s8,120(sp)
800008b0:	07412c83          	lw	s9,116(sp)
800008b4:	07012d03          	lw	s10,112(sp)
800008b8:	06c12d83          	lw	s11,108(sp)
800008bc:	00000513          	li	a0,0
800008c0:	0a010113          	addi	sp,sp,160
800008c4:	00008067          	ret
E:\VMshare\e203\zhengdian_E203\sdk\dhrystone\Debug/../application/dhry_1.c:163
    Int_2_Loc = 3;
800008c8:	00300913          	li	s2,3
800008cc:	b61ff06f          	j	8000042c <main+0x35c>
E:\VMshare\e203\zhengdian_E203\sdk\dhrystone\Debug/../application/dhry_1.c:279
    printf ("Measured time too small to obtain meaningful results\n");
800008d0:	00009c17          	auipc	s8,0x9
800008d4:	db4c0513          	addi	a0,s8,-588 # 80009684 <__extendsfdf2+0x654>
800008d8:	739010ef          	jal	ra,80002810 <iprintf>
E:\VMshare\e203\zhengdian_E203\sdk\dhrystone\Debug/../application/dhry_1.c:280
    printf ("Please increase number of runs\n");
800008dc:	00009f97          	auipc	t6,0x9
800008e0:	de0f8513          	addi	a0,t6,-544 # 800096bc <__extendsfdf2+0x68c>
800008e4:	72d010ef          	jal	ra,80002810 <iprintf>
E:\VMshare\e203\zhengdian_E203\sdk\dhrystone\Debug/../application/dhry_1.c:281
    printf ("\n");
800008e8:	00009597          	auipc	a1,0x9
800008ec:	e3c58513          	addi	a0,a1,-452 # 80009724 <__extendsfdf2+0x6f4>
800008f0:	721010ef          	jal	ra,80002810 <iprintf>
800008f4:	f95ff06f          	j	80000888 <main+0x7b8>

800008f8 <measure_cpu_freq>:
SysTimer_GetLoadValue():
E:\VMshare\e203\zhengdian_E203\sdk\dhrystone\hbird_sdk\NMSIS\Core\Include/core_feature_timer.h:106
 * - Load value is 64bits wide.
 * - \ref SysTimer_SetLoadValue
 */
__STATIC_FORCEINLINE uint64_t SysTimer_GetLoadValue(void)
{
    return SysTimer->MTIME;
800008f8:	0200c7b7          	lui	a5,0x200c
800008fc:	ff87a683          	lw	a3,-8(a5) # 200bff8 <dhry_stubs.c.aa5f359a+0x200841d>
80000900:	ffc7a783          	lw	a5,-4(a5)
measure_cpu_freq():
E:\VMshare\e203\zhengdian_E203\sdk\dhrystone\Debug/../hbird_sdk/SoC/hbirdv2/Common/Source/hbirdv2_common.c:9
{
    return SOC_TIMER_FREQ;
}

uint32_t measure_cpu_freq(uint32_t n)
{
80000904:	ff010113          	addi	sp,sp,-16
80000908:	00112623          	sw	ra,12(sp)
8000090c:	00812423          	sw	s0,8(sp)
80000910:	00912223          	sw	s1,4(sp)
E:\VMshare\e203\zhengdian_E203\sdk\dhrystone\Debug/../hbird_sdk/SoC/hbirdv2/Common/Source/hbirdv2_common.c:15
    uint32_t start_mcycle, delta_mcycle;
    uint32_t start_mtime, delta_mtime;
    uint64_t mtime_freq = get_timer_freq();

    // Don't start measuruing until we see an mtime tick
    uint32_t tmp = (uint32_t)SysTimer_GetLoadValue();
80000914:	00068093          	mv	ra,a3
SysTimer_GetLoadValue():
E:\VMshare\e203\zhengdian_E203\sdk\dhrystone\hbird_sdk\NMSIS\Core\Include/core_feature_timer.h:106
80000918:	0200c5b7          	lui	a1,0x200c
E:\VMshare\e203\zhengdian_E203\sdk\dhrystone\hbird_sdk\NMSIS\Core\Include/core_feature_timer.h:106 (discriminator 1)
8000091c:	ff85a703          	lw	a4,-8(a1) # 200bff8 <dhry_stubs.c.aa5f359a+0x200841d>
80000920:	ffc5a783          	lw	a5,-4(a1)
measure_cpu_freq():
E:\VMshare\e203\zhengdian_E203\sdk\dhrystone\Debug/../hbird_sdk/SoC/hbirdv2/Common/Source/hbirdv2_common.c:17 (discriminator 1)
    do {
        start_mtime = (uint32_t)SysTimer_GetLoadValue();
80000924:	00070293          	mv	t0,a4
E:\VMshare\e203\zhengdian_E203\sdk\dhrystone\Debug/../hbird_sdk/SoC/hbirdv2/Common/Source/hbirdv2_common.c:18 (discriminator 1)
        start_mcycle = __RV_CSR_READ(CSR_MCYCLE);
80000928:	b0002673          	csrr	a2,mcycle
E:\VMshare\e203\zhengdian_E203\sdk\dhrystone\Debug/../hbird_sdk/SoC/hbirdv2/Common/Source/hbirdv2_common.c:19 (discriminator 1)
    } while (start_mtime == tmp);
8000092c:	fee088e3          	beq	ra,a4,8000091c <measure_cpu_freq+0x24>
SysTimer_GetLoadValue():
E:\VMshare\e203\zhengdian_E203\sdk\dhrystone\hbird_sdk\NMSIS\Core\Include/core_feature_timer.h:106
80000930:	0200c337          	lui	t1,0x200c
E:\VMshare\e203\zhengdian_E203\sdk\dhrystone\hbird_sdk\NMSIS\Core\Include/core_feature_timer.h:106 (discriminator 1)
80000934:	ff832403          	lw	s0,-8(t1) # 200bff8 <dhry_stubs.c.aa5f359a+0x200841d>
80000938:	ffc32483          	lw	s1,-4(t1)
measure_cpu_freq():
E:\VMshare\e203\zhengdian_E203\sdk\dhrystone\Debug/../hbird_sdk/SoC/hbirdv2/Common/Source/hbirdv2_common.c:22 (discriminator 1)

    do {
        delta_mtime = (uint32_t)SysTimer_GetLoadValue() - start_mtime;
8000093c:	40540433          	sub	s0,s0,t0
E:\VMshare\e203\zhengdian_E203\sdk\dhrystone\Debug/../hbird_sdk/SoC/hbirdv2/Common/Source/hbirdv2_common.c:23 (discriminator 1)
        delta_mcycle = __RV_CSR_READ(CSR_MCYCLE) - start_mcycle;
80000940:	b00023f3          	csrr	t2,mcycle
E:\VMshare\e203\zhengdian_E203\sdk\dhrystone\Debug/../hbird_sdk/SoC/hbirdv2/Common/Source/hbirdv2_common.c:24 (discriminator 1)
    } while (delta_mtime < n);
80000944:	fea468e3          	bltu	s0,a0,80000934 <measure_cpu_freq+0x3c>
E:\VMshare\e203\zhengdian_E203\sdk\dhrystone\Debug/../hbird_sdk/SoC/hbirdv2/Common/Source/hbirdv2_common.c:23
        delta_mcycle = __RV_CSR_READ(CSR_MCYCLE) - start_mcycle;
80000948:	40c384b3          	sub	s1,t2,a2
E:\VMshare\e203\zhengdian_E203\sdk\dhrystone\Debug/../hbird_sdk/SoC/hbirdv2/Common/Source/hbirdv2_common.c:27

    return (delta_mcycle / delta_mtime) * mtime_freq
           + ((delta_mcycle % delta_mtime) * mtime_freq) / delta_mtime;
8000094c:	0284f833          	remu	a6,s1,s0
80000950:	00040613          	mv	a2,s0
80000954:	00000693          	li	a3,0
80000958:	00f81513          	slli	a0,a6,0xf
8000095c:	01185593          	srli	a1,a6,0x11
80000960:	65d070ef          	jal	ra,800087bc <__udivdi3>
E:\VMshare\e203\zhengdian_E203\sdk\dhrystone\Debug/../hbird_sdk/SoC/hbirdv2/Common/Source/hbirdv2_common.c:26
    return (delta_mcycle / delta_mtime) * mtime_freq
80000964:	0284d8b3          	divu	a7,s1,s0
E:\VMshare\e203\zhengdian_E203\sdk\dhrystone\Debug/../hbird_sdk/SoC/hbirdv2/Common/Source/hbirdv2_common.c:28
}
80000968:	00c12083          	lw	ra,12(sp)
8000096c:	00812403          	lw	s0,8(sp)
80000970:	00412483          	lw	s1,4(sp)
80000974:	01010113          	addi	sp,sp,16
E:\VMshare\e203\zhengdian_E203\sdk\dhrystone\Debug/../hbird_sdk/SoC/hbirdv2/Common/Source/hbirdv2_common.c:27
           + ((delta_mcycle % delta_mtime) * mtime_freq) / delta_mtime;
80000978:	00f89e13          	slli	t3,a7,0xf
E:\VMshare\e203\zhengdian_E203\sdk\dhrystone\Debug/../hbird_sdk/SoC/hbirdv2/Common/Source/hbirdv2_common.c:28
}
8000097c:	00ae0533          	add	a0,t3,a0
80000980:	00008067          	ret

80000984 <get_cpu_freq>:
get_cpu_freq():
E:\VMshare\e203\zhengdian_E203\sdk\dhrystone\Debug/../hbird_sdk/SoC/hbirdv2/Common/Source/hbirdv2_common.c:31

uint32_t get_cpu_freq(void)
{
80000984:	ff010113          	addi	sp,sp,-16
E:\VMshare\e203\zhengdian_E203\sdk\dhrystone\Debug/../hbird_sdk/SoC/hbirdv2/Common/Source/hbirdv2_common.c:35
    uint32_t cpu_freq;

    // warm up
    measure_cpu_freq(1);
80000988:	00100513          	li	a0,1
E:\VMshare\e203\zhengdian_E203\sdk\dhrystone\Debug/../hbird_sdk/SoC/hbirdv2/Common/Source/hbirdv2_common.c:31
{
8000098c:	00112623          	sw	ra,12(sp)
E:\VMshare\e203\zhengdian_E203\sdk\dhrystone\Debug/../hbird_sdk/SoC/hbirdv2/Common/Source/hbirdv2_common.c:35
    measure_cpu_freq(1);
80000990:	f69ff0ef          	jal	ra,800008f8 <measure_cpu_freq>
E:\VMshare\e203\zhengdian_E203\sdk\dhrystone\Debug/../hbird_sdk/SoC/hbirdv2/Common/Source/hbirdv2_common.c:40
    // measure for real
    cpu_freq = measure_cpu_freq(100);

    return cpu_freq;
}
80000994:	00c12083          	lw	ra,12(sp)
E:\VMshare\e203\zhengdian_E203\sdk\dhrystone\Debug/../hbird_sdk/SoC/hbirdv2/Common/Source/hbirdv2_common.c:37
    cpu_freq = measure_cpu_freq(100);
80000998:	06400513          	li	a0,100
E:\VMshare\e203\zhengdian_E203\sdk\dhrystone\Debug/../hbird_sdk/SoC/hbirdv2/Common/Source/hbirdv2_common.c:40
}
8000099c:	01010113          	addi	sp,sp,16
E:\VMshare\e203\zhengdian_E203\sdk\dhrystone\Debug/../hbird_sdk/SoC/hbirdv2/Common/Source/hbirdv2_common.c:37
    cpu_freq = measure_cpu_freq(100);
800009a0:	f59ff06f          	j	800008f8 <measure_cpu_freq>

800009a4 <Exception_Init>:
Exception_Init():
E:\VMshare\e203\zhengdian_E203\sdk\dhrystone\Debug/../hbird_sdk/SoC/hbirdv2/Common/Source/system_hbirdv2.c:201
 * Called in \ref _init function, used to initialize default exception handlers for all exception IDs
 */
static void Exception_Init(void)
{
    for (int i = 0; i < MAX_SYSTEM_EXCEPTION_NUM; i++) {
        SystemExceptionHandlers[i] = (unsigned long)system_default_exception_handler;
800009a4:	00000717          	auipc	a4,0x0
800009a8:	10002797          	auipc	a5,0x10002
800009ac:	4ec70293          	addi	t0,a4,1260 # 80000e90 <system_default_exception_handler>
800009b0:	0dc78313          	addi	t1,a5,220 # 90002a84 <SystemExceptionHandlers>
800009b4:	00532023          	sw	t0,0(t1)
800009b8:	00532223          	sw	t0,4(t1)
800009bc:	00532423          	sw	t0,8(t1)
800009c0:	00532623          	sw	t0,12(t1)
800009c4:	00532823          	sw	t0,16(t1)
800009c8:	00532a23          	sw	t0,20(t1)
800009cc:	00532c23          	sw	t0,24(t1)
800009d0:	00532e23          	sw	t0,28(t1)
800009d4:	02532023          	sw	t0,32(t1)
800009d8:	02532223          	sw	t0,36(t1)
800009dc:	02532423          	sw	t0,40(t1)
E:\VMshare\e203\zhengdian_E203\sdk\dhrystone\Debug/../hbird_sdk/SoC/hbirdv2/Common/Source/system_hbirdv2.c:203
    }
}
800009e0:	00008067          	ret

800009e4 <Interrupt_Init>:
Interrupt_Init():
E:\VMshare\e203\zhengdian_E203\sdk\dhrystone\Debug/../hbird_sdk/SoC/hbirdv2/Common/Source/system_hbirdv2.c:216
 */
static void Interrupt_Init(void)
{
    int i;
    for (i = 0; i < __PLIC_INTNUM; i++) {
        SystemExtInterruptHandlers[i] = (unsigned long)system_default_interrupt_handler;
800009e4:	00000797          	auipc	a5,0x0
800009e8:	10002717          	auipc	a4,0x10002
E:\VMshare\e203\zhengdian_E203\sdk\dhrystone\Debug/../hbird_sdk/SoC/hbirdv2/Common/Source/system_hbirdv2.c:219
    }
    for (i = 0; i < 10; i++) {
        SystemCoreInterruptHandlers[i] = (unsigned long)system_default_interrupt_handler;
800009ec:	10002697          	auipc	a3,0x10002
E:\VMshare\e203\zhengdian_E203\sdk\dhrystone\Debug/../hbird_sdk/SoC/hbirdv2/Common/Source/system_hbirdv2.c:216
        SystemExtInterruptHandlers[i] = (unsigned long)system_default_interrupt_handler;
800009f0:	4fc78293          	addi	t0,a5,1276 # 80000ee0 <system_default_interrupt_handler>
800009f4:	0c870313          	addi	t1,a4,200 # 90002ab0 <SystemExtInterruptHandlers>
E:\VMshare\e203\zhengdian_E203\sdk\dhrystone\Debug/../hbird_sdk/SoC/hbirdv2/Common/Source/system_hbirdv2.c:219
        SystemCoreInterruptHandlers[i] = (unsigned long)system_default_interrupt_handler;
800009f8:	07068393          	addi	t2,a3,112 # 90002a5c <SystemCoreInterruptHandlers>
E:\VMshare\e203\zhengdian_E203\sdk\dhrystone\Debug/../hbird_sdk/SoC/hbirdv2/Common/Source/system_hbirdv2.c:216
        SystemExtInterruptHandlers[i] = (unsigned long)system_default_interrupt_handler;
800009fc:	00532023          	sw	t0,0(t1)
80000a00:	00532223          	sw	t0,4(t1)
80000a04:	00532423          	sw	t0,8(t1)
80000a08:	00532623          	sw	t0,12(t1)
80000a0c:	00532823          	sw	t0,16(t1)
80000a10:	00532a23          	sw	t0,20(t1)
80000a14:	00532c23          	sw	t0,24(t1)
80000a18:	00532e23          	sw	t0,28(t1)
80000a1c:	02532023          	sw	t0,32(t1)
80000a20:	02532223          	sw	t0,36(t1)
80000a24:	02532423          	sw	t0,40(t1)
80000a28:	02532623          	sw	t0,44(t1)
80000a2c:	02532823          	sw	t0,48(t1)
80000a30:	02532a23          	sw	t0,52(t1)
80000a34:	02532c23          	sw	t0,56(t1)
80000a38:	02532e23          	sw	t0,60(t1)
80000a3c:	04532023          	sw	t0,64(t1)
E:\VMshare\e203\zhengdian_E203\sdk\dhrystone\Debug/../hbird_sdk/SoC/hbirdv2/Common/Source/system_hbirdv2.c:219
        SystemCoreInterruptHandlers[i] = (unsigned long)system_default_interrupt_handler;
80000a40:	0053a023          	sw	t0,0(t2)
80000a44:	0053a223          	sw	t0,4(t2)
80000a48:	0053a423          	sw	t0,8(t2)
80000a4c:	0053a623          	sw	t0,12(t2)
80000a50:	0053a823          	sw	t0,16(t2)
80000a54:	0053aa23          	sw	t0,20(t2)
80000a58:	0053ac23          	sw	t0,24(t2)
80000a5c:	0053ae23          	sw	t0,28(t2)
80000a60:	0253a023          	sw	t0,32(t2)
80000a64:	0253a223          	sw	t0,36(t2)
E:\VMshare\e203\zhengdian_E203\sdk\dhrystone\Debug/../hbird_sdk/SoC/hbirdv2/Common/Source/system_hbirdv2.c:221
    }
}
80000a68:	00008067          	ret

80000a6c <core_exception_handler>:
core_exception_handler():
E:\VMshare\e203\zhengdian_E203\sdk\dhrystone\Debug/../hbird_sdk/SoC/hbirdv2/Common/Source/system_hbirdv2.c:362
 * - For the core_exception_handler template, we provided exception register function \ref Exception_Register_EXC
 *   which can help developer to register your exception handler for specific exception number.
 */
static uint32_t core_exception_handler(unsigned long mcause, unsigned long sp)
{
    uint32_t EXCn = (uint32_t)(mcause & 0X00000fff);
80000a6c:	01451793          	slli	a5,a0,0x14
80000a70:	0147d293          	srli	t0,a5,0x14
E:\VMshare\e203\zhengdian_E203\sdk\dhrystone\Debug/../hbird_sdk/SoC/hbirdv2/Common/Source/system_hbirdv2.c:365
    EXC_HANDLER exc_handler;

    if ((EXCn < MAX_SYSTEM_EXCEPTION_NUM) && (EXCn >= 0)) {
80000a74:	00a00713          	li	a4,10
80000a78:	02576263          	bltu	a4,t0,80000a9c <core_exception_handler+0x30>
E:\VMshare\e203\zhengdian_E203\sdk\dhrystone\Debug/../hbird_sdk/SoC/hbirdv2/Common/Source/system_hbirdv2.c:366
        exc_handler = (EXC_HANDLER)SystemExceptionHandlers[EXCn];
80000a7c:	10002617          	auipc	a2,0x10002
80000a80:	00229693          	slli	a3,t0,0x2
80000a84:	00860813          	addi	a6,a2,8 # 90002a84 <SystemExceptionHandlers>
80000a88:	00d808b3          	add	a7,a6,a3
80000a8c:	0008a383          	lw	t2,0(a7)
E:\VMshare\e203\zhengdian_E203\sdk\dhrystone\Debug/../hbird_sdk/SoC/hbirdv2/Common/Source/system_hbirdv2.c:370
    } else {
        exc_handler = (EXC_HANDLER)system_default_exception_handler;
    }
    if (exc_handler != NULL) {
80000a90:	00039a63          	bnez	t2,80000aa4 <core_exception_handler+0x38>
E:\VMshare\e203\zhengdian_E203\sdk\dhrystone\Debug/../hbird_sdk/SoC/hbirdv2/Common/Source/system_hbirdv2.c:374
        exc_handler(mcause, sp);
    }
    return 0;
}
80000a94:	00000513          	li	a0,0
80000a98:	00008067          	ret
E:\VMshare\e203\zhengdian_E203\sdk\dhrystone\Debug/../hbird_sdk/SoC/hbirdv2/Common/Source/system_hbirdv2.c:368
        exc_handler = (EXC_HANDLER)system_default_exception_handler;
80000a9c:	00000317          	auipc	t1,0x0
80000aa0:	3f430393          	addi	t2,t1,1012 # 80000e90 <system_default_exception_handler>
E:\VMshare\e203\zhengdian_E203\sdk\dhrystone\Debug/../hbird_sdk/SoC/hbirdv2/Common/Source/system_hbirdv2.c:361
{
80000aa4:	ff010113          	addi	sp,sp,-16
80000aa8:	00112623          	sw	ra,12(sp)
E:\VMshare\e203\zhengdian_E203\sdk\dhrystone\Debug/../hbird_sdk/SoC/hbirdv2/Common/Source/system_hbirdv2.c:371
        exc_handler(mcause, sp);
80000aac:	000380e7          	jalr	t2
E:\VMshare\e203\zhengdian_E203\sdk\dhrystone\Debug/../hbird_sdk/SoC/hbirdv2/Common/Source/system_hbirdv2.c:374
}
80000ab0:	00c12083          	lw	ra,12(sp)
80000ab4:	00000513          	li	a0,0
80000ab8:	01010113          	addi	sp,sp,16
80000abc:	00008067          	ret

80000ac0 <Func_1>:
Func_1():
E:\VMshare\e203\zhengdian_E203\sdk\dhrystone\Debug/../application/dhry_2.c:124
  Capital_Letter        Ch_1_Loc;
  Capital_Letter        Ch_2_Loc;

  Ch_1_Loc = Ch_1_Par_Val;
  Ch_2_Loc = Ch_1_Loc;
  if (Ch_2_Loc != Ch_2_Par_Val)
80000ac0:	00b50663          	beq	a0,a1,80000acc <Func_1+0xc>
E:\VMshare\e203\zhengdian_E203\sdk\dhrystone\Debug/../application/dhry_2.c:126
    /* then, executed */
    return (Ident_1);
80000ac4:	00000513          	li	a0,0
E:\VMshare\e203\zhengdian_E203\sdk\dhrystone\Debug/../application/dhry_2.c:132
  else  /* not executed */
  {
    Ch_1_Glob = Ch_1_Loc;
    return (Ident_2);
   }
} /* Func_1 */
80000ac8:	00008067          	ret
E:\VMshare\e203\zhengdian_E203\sdk\dhrystone\Debug/../application/dhry_2.c:129
    Ch_1_Glob = Ch_1_Loc;
80000acc:	88a18023          	sb	a0,-1920(gp) # 90000250 <Ch_1_Glob>
E:\VMshare\e203\zhengdian_E203\sdk\dhrystone\Debug/../application/dhry_2.c:130
    return (Ident_2);
80000ad0:	00100513          	li	a0,1
80000ad4:	00008067          	ret

80000ad8 <Func_3>:
Func_3():
E:\VMshare\e203\zhengdian_E203\sdk\dhrystone\Debug/../application/dhry_2.c:186
Enumeration Enum_Par_Val;
{
  Enumeration Enum_Loc;

  Enum_Loc = Enum_Par_Val;
  if (Enum_Loc == Ident_3)
80000ad8:	ffe50513          	addi	a0,a0,-2
E:\VMshare\e203\zhengdian_E203\sdk\dhrystone\Debug/../application/dhry_2.c:191
    /* then, executed */
    return (true);
  else /* not executed */
    return (false);
} /* Func_3 */
80000adc:	00153513          	seqz	a0,a0
80000ae0:	00008067          	ret

80000ae4 <csr_cycle>:
csr_cycle():
E:\VMshare\e203\zhengdian_E203\sdk\dhrystone\Debug/../application/dhry_stubs.c:7

/* The functions in this file are only meant to support Dhrystone on an
 * embedded RV32 system and are obviously incorrect in general. */

long csr_cycle(void)
{
80000ae4:	ff010113          	addi	sp,sp,-16
__get_rv_cycle():
E:\VMshare\e203\zhengdian_E203\sdk\dhrystone\hbird_sdk\NMSIS\Core\Include/core_feature_base.h:492
{
#if __RISCV_XLEN == 32
    volatile uint32_t high0, low, high;
    uint64_t full;

    high0 = __RV_CSR_READ(CSR_MCYCLEH);
80000ae8:	b80027f3          	csrr	a5,mcycleh
80000aec:	00f12623          	sw	a5,12(sp)
E:\VMshare\e203\zhengdian_E203\sdk\dhrystone\hbird_sdk\NMSIS\Core\Include/core_feature_base.h:493
    low = __RV_CSR_READ(CSR_MCYCLE);
80000af0:	b00022f3          	csrr	t0,mcycle
80000af4:	00512423          	sw	t0,8(sp)
E:\VMshare\e203\zhengdian_E203\sdk\dhrystone\hbird_sdk\NMSIS\Core\Include/core_feature_base.h:494
    high = __RV_CSR_READ(CSR_MCYCLEH);
80000af8:	b8002373          	csrr	t1,mcycleh
80000afc:	00612223          	sw	t1,4(sp)
E:\VMshare\e203\zhengdian_E203\sdk\dhrystone\hbird_sdk\NMSIS\Core\Include/core_feature_base.h:495
    if (high0 != high) {
80000b00:	00c12703          	lw	a4,12(sp)
80000b04:	00412383          	lw	t2,4(sp)
80000b08:	00770663          	beq	a4,t2,80000b14 <csr_cycle+0x30>
E:\VMshare\e203\zhengdian_E203\sdk\dhrystone\hbird_sdk\NMSIS\Core\Include/core_feature_base.h:496
        low = __RV_CSR_READ(CSR_MCYCLE);
80000b0c:	b0002573          	csrr	a0,mcycle
80000b10:	00a12423          	sw	a0,8(sp)
E:\VMshare\e203\zhengdian_E203\sdk\dhrystone\hbird_sdk\NMSIS\Core\Include/core_feature_base.h:498
    }
    full = (((uint64_t)high) << 32) | low;
80000b14:	00412783          	lw	a5,4(sp)
80000b18:	00812503          	lw	a0,8(sp)
csr_cycle():
E:\VMshare\e203\zhengdian_E203\sdk\dhrystone\Debug/../application/dhry_stubs.c:9
  return __get_rv_cycle();
}
80000b1c:	01010113          	addi	sp,sp,16
80000b20:	00008067          	ret

80000b24 <csr_instret>:
csr_instret():
E:\VMshare\e203\zhengdian_E203\sdk\dhrystone\Debug/../application/dhry_stubs.c:12

long csr_instret(void)
{
80000b24:	ff010113          	addi	sp,sp,-16
__get_rv_instret():
E:\VMshare\e203\zhengdian_E203\sdk\dhrystone\hbird_sdk\NMSIS\Core\Include/core_feature_base.h:519
{
#if __RISCV_XLEN == 32
    volatile uint32_t high0, low, high;
    uint64_t full;

    high0 = __RV_CSR_READ(CSR_MINSTRETH);
80000b28:	b82027f3          	csrr	a5,minstreth
80000b2c:	00f12623          	sw	a5,12(sp)
E:\VMshare\e203\zhengdian_E203\sdk\dhrystone\hbird_sdk\NMSIS\Core\Include/core_feature_base.h:520
    low = __RV_CSR_READ(CSR_MINSTRET);
80000b30:	b02022f3          	csrr	t0,minstret
80000b34:	00512423          	sw	t0,8(sp)
E:\VMshare\e203\zhengdian_E203\sdk\dhrystone\hbird_sdk\NMSIS\Core\Include/core_feature_base.h:521
    high = __RV_CSR_READ(CSR_MINSTRETH);
80000b38:	b8202373          	csrr	t1,minstreth
80000b3c:	00612223          	sw	t1,4(sp)
E:\VMshare\e203\zhengdian_E203\sdk\dhrystone\hbird_sdk\NMSIS\Core\Include/core_feature_base.h:522
    if (high0 != high) {
80000b40:	00c12703          	lw	a4,12(sp)
80000b44:	00412383          	lw	t2,4(sp)
80000b48:	00770663          	beq	a4,t2,80000b54 <csr_instret+0x30>
E:\VMshare\e203\zhengdian_E203\sdk\dhrystone\hbird_sdk\NMSIS\Core\Include/core_feature_base.h:523
        low = __RV_CSR_READ(CSR_MINSTRET);
80000b4c:	b0202573          	csrr	a0,minstret
80000b50:	00a12423          	sw	a0,8(sp)
E:\VMshare\e203\zhengdian_E203\sdk\dhrystone\hbird_sdk\NMSIS\Core\Include/core_feature_base.h:525
    }
    full = (((uint64_t)high) << 32) | low;
80000b54:	00412783          	lw	a5,4(sp)
80000b58:	00812503          	lw	a0,8(sp)
csr_instret():
E:\VMshare\e203\zhengdian_E203\sdk\dhrystone\Debug/../application/dhry_stubs.c:14
  return __get_rv_instret();
}
80000b5c:	01010113          	addi	sp,sp,16
80000b60:	00008067          	ret

80000b64 <time>:
SysTimer_GetLoadValue():
E:\VMshare\e203\zhengdian_E203\sdk\dhrystone\hbird_sdk\NMSIS\Core\Include/core_feature_timer.h:106
80000b64:	0200c7b7          	lui	a5,0x200c
80000b68:	ff87a703          	lw	a4,-8(a5) # 200bff8 <dhry_stubs.c.aa5f359a+0x200841d>
80000b6c:	ffc7a283          	lw	t0,-4(a5)
time():
E:\VMshare\e203\zhengdian_E203\sdk\dhrystone\Debug/../application/dhry_stubs.c:18

long time(void)
{
  return SysTimer_GetLoadValue() / SOC_TIMER_FREQ;
80000b70:	00f75313          	srli	t1,a4,0xf
80000b74:	01129513          	slli	a0,t0,0x11
E:\VMshare\e203\zhengdian_E203\sdk\dhrystone\Debug/../application/dhry_stubs.c:19
}
80000b78:	00656533          	or	a0,a0,t1
80000b7c:	00008067          	ret

80000b80 <Proc_8.constprop.0.isra.0>:
Proc_8():
E:\VMshare\e203\zhengdian_E203\sdk\dhrystone\Debug/../application/dhry_2.c:97
  Int_Loc = Int_1_Par_Val + 5;
80000b80:	00550613          	addi	a2,a0,5
E:\VMshare\e203\zhengdian_E203\sdk\dhrystone\Debug/../application/dhry_2.c:102
    Arr_2_Par_Ref [Int_Loc] [Int_Index] = Int_Loc;
80000b84:	0c800693          	li	a3,200
80000b88:	02d602b3          	mul	t0,a2,a3
80000b8c:	00251513          	slli	a0,a0,0x2
80000b90:	0ffff797          	auipc	a5,0xffff
80000b94:	7bc78393          	addi	t2,a5,1980 # 9000034c <Arr_2_Glob>
E:\VMshare\e203\zhengdian_E203\sdk\dhrystone\Debug/../application/dhry_2.c:104
  Arr_2_Par_Ref [Int_Loc+20] [Int_Loc] = Arr_1_Par_Ref [Int_Loc];
80000b98:	10000817          	auipc	a6,0x10000
E:\VMshare\e203\zhengdian_E203\sdk\dhrystone\Debug/../application/dhry_2.c:98
  Arr_1_Par_Ref [Int_Loc] = Int_2_Par_Val;
80000b9c:	00261893          	slli	a7,a2,0x2
80000ba0:	8b418f13          	addi	t5,gp,-1868 # 90000284 <Arr_1_Glob>
80000ba4:	011f0fb3          	add	t6,t5,a7
80000ba8:	00bfa023          	sw	a1,0(t6)
80000bac:	00a28333          	add	t1,t0,a0
80000bb0:	00730e33          	add	t3,t1,t2
E:\VMshare\e203\zhengdian_E203\sdk\dhrystone\Debug/../application/dhry_2.c:103
  Arr_2_Par_Ref [Int_Loc] [Int_Loc-1] += 1;
80000bb4:	010e2e83          	lw	t4,16(t3)
E:\VMshare\e203\zhengdian_E203\sdk\dhrystone\Debug/../application/dhry_2.c:104
  Arr_2_Par_Ref [Int_Loc+20] [Int_Loc] = Arr_1_Par_Ref [Int_Loc];
80000bb8:	75480293          	addi	t0,a6,1876 # 900012ec <__global_pointer$+0x91c>
E:\VMshare\e203\zhengdian_E203\sdk\dhrystone\Debug/../application/dhry_2.c:102
    Arr_2_Par_Ref [Int_Loc] [Int_Index] = Int_Loc;
80000bbc:	00ce2a23          	sw	a2,20(t3)
E:\VMshare\e203\zhengdian_E203\sdk\dhrystone\Debug/../application/dhry_2.c:103
  Arr_2_Par_Ref [Int_Loc] [Int_Loc-1] += 1;
80000bc0:	001e8693          	addi	a3,t4,1
E:\VMshare\e203\zhengdian_E203\sdk\dhrystone\Debug/../application/dhry_2.c:102
    Arr_2_Par_Ref [Int_Loc] [Int_Index] = Int_Loc;
80000bc4:	00ce2c23          	sw	a2,24(t3)
E:\VMshare\e203\zhengdian_E203\sdk\dhrystone\Debug/../application/dhry_2.c:103
  Arr_2_Par_Ref [Int_Loc] [Int_Loc-1] += 1;
80000bc8:	00de2823          	sw	a3,16(t3)
E:\VMshare\e203\zhengdian_E203\sdk\dhrystone\Debug/../application/dhry_2.c:104
  Arr_2_Par_Ref [Int_Loc+20] [Int_Loc] = Arr_1_Par_Ref [Int_Loc];
80000bcc:	00530533          	add	a0,t1,t0
E:\VMshare\e203\zhengdian_E203\sdk\dhrystone\Debug/../application/dhry_2.c:99
  Arr_1_Par_Ref [Int_Loc+1] = Arr_1_Par_Ref [Int_Loc];
80000bd0:	00bfa223          	sw	a1,4(t6)
E:\VMshare\e203\zhengdian_E203\sdk\dhrystone\Debug/../application/dhry_2.c:100
  Arr_1_Par_Ref [Int_Loc+30] = Int_Loc;
80000bd4:	06cfac23          	sw	a2,120(t6)
E:\VMshare\e203\zhengdian_E203\sdk\dhrystone\Debug/../application/dhry_2.c:104
  Arr_2_Par_Ref [Int_Loc+20] [Int_Loc] = Arr_1_Par_Ref [Int_Loc];
80000bd8:	00b52a23          	sw	a1,20(a0)
E:\VMshare\e203\zhengdian_E203\sdk\dhrystone\Debug/../application/dhry_2.c:105
  Int_Glob = 5;
80000bdc:	00500613          	li	a2,5
80000be0:	88c1aa23          	sw	a2,-1900(gp) # 90000264 <Int_Glob>
E:\VMshare\e203\zhengdian_E203\sdk\dhrystone\Debug/../application/dhry_2.c:106
} /* Proc_8 */
80000be4:	00008067          	ret

80000be8 <Proc_6.isra.0>:
Proc_6():
E:\VMshare\e203\zhengdian_E203\sdk\dhrystone\Debug/../application/dhry_2.c:30
Proc_6 (Enum_Val_Par, Enum_Ref_Par)
80000be8:	ff010113          	addi	sp,sp,-16
80000bec:	00812423          	sw	s0,8(sp)
80000bf0:	00912223          	sw	s1,4(sp)
80000bf4:	00050413          	mv	s0,a0
80000bf8:	00112623          	sw	ra,12(sp)
80000bfc:	00058493          	mv	s1,a1
E:\VMshare\e203\zhengdian_E203\sdk\dhrystone\Debug/../application/dhry_2.c:39
  if (! Func_3 (Enum_Val_Par))
80000c00:	ed9ff0ef          	jal	ra,80000ad8 <Func_3>
80000c04:	00040793          	mv	a5,s0
80000c08:	00051463          	bnez	a0,80000c10 <Proc_6.isra.0+0x28>
80000c0c:	00300793          	li	a5,3
80000c10:	00f4a023          	sw	a5,0(s1)
E:\VMshare\e203\zhengdian_E203\sdk\dhrystone\Debug/../application/dhry_2.c:42
  switch (Enum_Val_Par)
80000c14:	00200093          	li	ra,2
80000c18:	04140c63          	beq	s0,ra,80000c70 <Proc_6.isra.0+0x88>
80000c1c:	0280ca63          	blt	ra,s0,80000c50 <Proc_6.isra.0+0x68>
80000c20:	00040c63          	beqz	s0,80000c38 <Proc_6.isra.0+0x50>
80000c24:	00100313          	li	t1,1
80000c28:	00641a63          	bne	s0,t1,80000c3c <Proc_6.isra.0+0x54>
E:\VMshare\e203\zhengdian_E203\sdk\dhrystone\Debug/../application/dhry_2.c:48
      if (Int_Glob > 100)
80000c2c:	8941a503          	lw	a0,-1900(gp) # 90000264 <Int_Glob>
80000c30:	06400593          	li	a1,100
80000c34:	04a5dc63          	bge	a1,a0,80000c8c <Proc_6.isra.0+0xa4>
E:\VMshare\e203\zhengdian_E203\sdk\dhrystone\Debug/../application/dhry_2.c:50
      *Enum_Ref_Par = Ident_1;
80000c38:	0004a023          	sw	zero,0(s1)
E:\VMshare\e203\zhengdian_E203\sdk\dhrystone\Debug/../application/dhry_2.c:61
} /* Proc_6 */
80000c3c:	00c12083          	lw	ra,12(sp)
80000c40:	00812403          	lw	s0,8(sp)
80000c44:	00412483          	lw	s1,4(sp)
80000c48:	01010113          	addi	sp,sp,16
80000c4c:	00008067          	ret
E:\VMshare\e203\zhengdian_E203\sdk\dhrystone\Debug/../application/dhry_2.c:42
  switch (Enum_Val_Par)
80000c50:	00400713          	li	a4,4
80000c54:	fee414e3          	bne	s0,a4,80000c3c <Proc_6.isra.0+0x54>
E:\VMshare\e203\zhengdian_E203\sdk\dhrystone\Debug/../application/dhry_2.c:58
      *Enum_Ref_Par = Ident_3;
80000c58:	0014a023          	sw	ra,0(s1)
E:\VMshare\e203\zhengdian_E203\sdk\dhrystone\Debug/../application/dhry_2.c:61
} /* Proc_6 */
80000c5c:	00812403          	lw	s0,8(sp)
80000c60:	00c12083          	lw	ra,12(sp)
80000c64:	00412483          	lw	s1,4(sp)
80000c68:	01010113          	addi	sp,sp,16
80000c6c:	00008067          	ret
80000c70:	00c12083          	lw	ra,12(sp)
80000c74:	00812403          	lw	s0,8(sp)
E:\VMshare\e203\zhengdian_E203\sdk\dhrystone\Debug/../application/dhry_2.c:54
      *Enum_Ref_Par = Ident_2;
80000c78:	00100293          	li	t0,1
80000c7c:	0054a023          	sw	t0,0(s1)
E:\VMshare\e203\zhengdian_E203\sdk\dhrystone\Debug/../application/dhry_2.c:61
} /* Proc_6 */
80000c80:	00412483          	lw	s1,4(sp)
80000c84:	01010113          	addi	sp,sp,16
80000c88:	00008067          	ret
80000c8c:	00c12083          	lw	ra,12(sp)
80000c90:	00812403          	lw	s0,8(sp)
E:\VMshare\e203\zhengdian_E203\sdk\dhrystone\Debug/../application/dhry_2.c:51
      else *Enum_Ref_Par = Ident_4;
80000c94:	00300613          	li	a2,3
80000c98:	00c4a023          	sw	a2,0(s1)
E:\VMshare\e203\zhengdian_E203\sdk\dhrystone\Debug/../application/dhry_2.c:61
} /* Proc_6 */
80000c9c:	00412483          	lw	s1,4(sp)
80000ca0:	01010113          	addi	sp,sp,16
80000ca4:	00008067          	ret

80000ca8 <Proc_7.isra.0>:
Proc_7():
E:\VMshare\e203\zhengdian_E203\sdk\dhrystone\Debug/../application/dhry_2.c:79
  Int_Loc = Int_1_Par_Val + 2;
80000ca8:	00250513          	addi	a0,a0,2
E:\VMshare\e203\zhengdian_E203\sdk\dhrystone\Debug/../application/dhry_2.c:80
  *Int_Par_Ref = Int_2_Par_Val + Int_Loc;
80000cac:	00b502b3          	add	t0,a0,a1
80000cb0:	00562023          	sw	t0,0(a2)
E:\VMshare\e203\zhengdian_E203\sdk\dhrystone\Debug/../application/dhry_2.c:81
} /* Proc_7 */
80000cb4:	00008067          	ret

80000cb8 <Proc_5.isra.0>:
Proc_5():
E:\VMshare\e203\zhengdian_E203\sdk\dhrystone\Debug/../application/dhry_1.c:418

Proc_5 () /* without parameters */
/*******/
    /* executed once */
{
  Ch_1_Glob = 'A';
80000cb8:	04100713          	li	a4,65
80000cbc:	88e18023          	sb	a4,-1920(gp) # 90000250 <Ch_1_Glob>
E:\VMshare\e203\zhengdian_E203\sdk\dhrystone\Debug/../application/dhry_1.c:419
  Bool_Glob = false;
80000cc0:	8601ae23          	sw	zero,-1924(gp) # 9000024c <Bool_Glob>
E:\VMshare\e203\zhengdian_E203\sdk\dhrystone\Debug/../application/dhry_1.c:420
} /* Proc_5 */
80000cc4:	00008067          	ret

80000cc8 <Proc_4.isra.0>:
Proc_4():
E:\VMshare\e203\zhengdian_E203\sdk\dhrystone\Debug/../application/dhry_1.c:408
  Bool_Loc = Ch_1_Glob == 'A';
80000cc8:	8801c283          	lbu	t0,-1920(gp) # 90000250 <Ch_1_Glob>
E:\VMshare\e203\zhengdian_E203\sdk\dhrystone\Debug/../application/dhry_1.c:409
  Bool_Glob = Bool_Loc | Bool_Glob;
80000ccc:	87c18313          	addi	t1,gp,-1924 # 9000024c <Bool_Glob>
80000cd0:	00032683          	lw	a3,0(t1)
E:\VMshare\e203\zhengdian_E203\sdk\dhrystone\Debug/../application/dhry_1.c:408
  Bool_Loc = Ch_1_Glob == 'A';
80000cd4:	fbf28393          	addi	t2,t0,-65
80000cd8:	0013b513          	seqz	a0,t2
E:\VMshare\e203\zhengdian_E203\sdk\dhrystone\Debug/../application/dhry_1.c:409
  Bool_Glob = Bool_Loc | Bool_Glob;
80000cdc:	00d565b3          	or	a1,a0,a3
E:\VMshare\e203\zhengdian_E203\sdk\dhrystone\Debug/../application/dhry_1.c:410
  Ch_2_Glob = 'B';
80000ce0:	04200813          	li	a6,66
E:\VMshare\e203\zhengdian_E203\sdk\dhrystone\Debug/../application/dhry_1.c:409
  Bool_Glob = Bool_Loc | Bool_Glob;
80000ce4:	00b32023          	sw	a1,0(t1)
E:\VMshare\e203\zhengdian_E203\sdk\dhrystone\Debug/../application/dhry_1.c:410
  Ch_2_Glob = 'B';
80000ce8:	890180a3          	sb	a6,-1919(gp) # 90000251 <Ch_2_Glob>
E:\VMshare\e203\zhengdian_E203\sdk\dhrystone\Debug/../application/dhry_1.c:411
} /* Proc_4 */
80000cec:	00008067          	ret

80000cf0 <Proc_3.isra.0>:
Proc_3():
E:\VMshare\e203\zhengdian_E203\sdk\dhrystone\Debug/../application/dhry_1.c:395
  if (Ptr_Glob != Null)
80000cf0:	89c1a603          	lw	a2,-1892(gp) # 9000026c <Ptr_Glob>
80000cf4:	00060663          	beqz	a2,80000d00 <Proc_3.isra.0+0x10>
E:\VMshare\e203\zhengdian_E203\sdk\dhrystone\Debug/../application/dhry_1.c:397
    *Ptr_Ref_Par = Ptr_Glob->Ptr_Comp;
80000cf8:	00062283          	lw	t0,0(a2)
80000cfc:	00552023          	sw	t0,0(a0)
E:\VMshare\e203\zhengdian_E203\sdk\dhrystone\Debug/../application/dhry_1.c:398
  Proc_7 (10, Int_Glob, &Ptr_Glob->variant.var_1.Int_Comp);
80000d00:	8941a583          	lw	a1,-1900(gp) # 90000264 <Int_Glob>
80000d04:	00c60613          	addi	a2,a2,12
80000d08:	00a00513          	li	a0,10
80000d0c:	f9dff06f          	j	80000ca8 <Proc_7.isra.0>

80000d10 <Proc_1.isra.0>:
Proc_1():
E:\VMshare\e203\zhengdian_E203\sdk\dhrystone\Debug/../application/dhry_1.c:330
Proc_1 (Ptr_Val_Par)
80000d10:	ff010113          	addi	sp,sp,-16
80000d14:	01212023          	sw	s2,0(sp)
E:\VMshare\e203\zhengdian_E203\sdk\dhrystone\Debug/../application/dhry_1.c:341
  structassign (*Ptr_Val_Par->Ptr_Comp, *Ptr_Glob);
80000d18:	89c1a903          	lw	s2,-1892(gp) # 9000026c <Ptr_Glob>
E:\VMshare\e203\zhengdian_E203\sdk\dhrystone\Debug/../application/dhry_1.c:330
Proc_1 (Ptr_Val_Par)
80000d1c:	00812423          	sw	s0,8(sp)
E:\VMshare\e203\zhengdian_E203\sdk\dhrystone\Debug/../application/dhry_1.c:336
  REG Rec_Pointer Next_Record = Ptr_Val_Par->Ptr_Comp;
80000d20:	00052403          	lw	s0,0(a0)
E:\VMshare\e203\zhengdian_E203\sdk\dhrystone\Debug/../application/dhry_1.c:341
  structassign (*Ptr_Val_Par->Ptr_Comp, *Ptr_Glob);
80000d24:	00092703          	lw	a4,0(s2)
E:\VMshare\e203\zhengdian_E203\sdk\dhrystone\Debug/../application/dhry_1.c:330
Proc_1 (Ptr_Val_Par)
80000d28:	00112623          	sw	ra,12(sp)
80000d2c:	00912223          	sw	s1,4(sp)
E:\VMshare\e203\zhengdian_E203\sdk\dhrystone\Debug/../application/dhry_1.c:341
  structassign (*Ptr_Val_Par->Ptr_Comp, *Ptr_Glob);
80000d30:	00492e83          	lw	t4,4(s2)
80000d34:	00892e03          	lw	t3,8(s2)
80000d38:	01092303          	lw	t1,16(s2)
80000d3c:	01492883          	lw	a7,20(s2)
80000d40:	01892803          	lw	a6,24(s2)
80000d44:	02092583          	lw	a1,32(s2)
80000d48:	02492603          	lw	a2,36(s2)
80000d4c:	02892683          	lw	a3,40(s2)
80000d50:	02c92083          	lw	ra,44(s2)
E:\VMshare\e203\zhengdian_E203\sdk\dhrystone\Debug/../application/dhry_1.c:330
Proc_1 (Ptr_Val_Par)
80000d54:	00050493          	mv	s1,a0
E:\VMshare\e203\zhengdian_E203\sdk\dhrystone\Debug/../application/dhry_1.c:341
  structassign (*Ptr_Val_Par->Ptr_Comp, *Ptr_Glob);
80000d58:	01c92503          	lw	a0,28(s2)
80000d5c:	00e42023          	sw	a4,0(s0)
E:\VMshare\e203\zhengdian_E203\sdk\dhrystone\Debug/../application/dhry_1.c:345
  Next_Record->Ptr_Comp = Ptr_Val_Par->Ptr_Comp;
80000d60:	0004a283          	lw	t0,0(s1)
E:\VMshare\e203\zhengdian_E203\sdk\dhrystone\Debug/../application/dhry_1.c:342
  Ptr_Val_Par->variant.var_1.Int_Comp = 5;
80000d64:	00500393          	li	t2,5
E:\VMshare\e203\zhengdian_E203\sdk\dhrystone\Debug/../application/dhry_1.c:341
  structassign (*Ptr_Val_Par->Ptr_Comp, *Ptr_Glob);
80000d68:	00a42e23          	sw	a0,28(s0)
80000d6c:	01d42223          	sw	t4,4(s0)
80000d70:	01c42423          	sw	t3,8(s0)
80000d74:	00642823          	sw	t1,16(s0)
80000d78:	01142a23          	sw	a7,20(s0)
80000d7c:	01042c23          	sw	a6,24(s0)
80000d80:	02b42023          	sw	a1,32(s0)
80000d84:	02c42223          	sw	a2,36(s0)
80000d88:	02d42423          	sw	a3,40(s0)
80000d8c:	02142623          	sw	ra,44(s0)
E:\VMshare\e203\zhengdian_E203\sdk\dhrystone\Debug/../application/dhry_1.c:342
  Ptr_Val_Par->variant.var_1.Int_Comp = 5;
80000d90:	0074a623          	sw	t2,12(s1)
E:\VMshare\e203\zhengdian_E203\sdk\dhrystone\Debug/../application/dhry_1.c:344
        = Ptr_Val_Par->variant.var_1.Int_Comp;
80000d94:	00742623          	sw	t2,12(s0)
E:\VMshare\e203\zhengdian_E203\sdk\dhrystone\Debug/../application/dhry_1.c:345
  Next_Record->Ptr_Comp = Ptr_Val_Par->Ptr_Comp;
80000d98:	00542023          	sw	t0,0(s0)
E:\VMshare\e203\zhengdian_E203\sdk\dhrystone\Debug/../application/dhry_1.c:346
  Proc_3 (&Next_Record->Ptr_Comp);
80000d9c:	00040513          	mv	a0,s0
80000da0:	f51ff0ef          	jal	ra,80000cf0 <Proc_3.isra.0>
E:\VMshare\e203\zhengdian_E203\sdk\dhrystone\Debug/../application/dhry_1.c:349
  if (Next_Record->Discr == Ident_1)
80000da4:	00442f03          	lw	t5,4(s0)
80000da8:	080f0063          	beqz	t5,80000e28 <Proc_1.isra.0+0x118>
E:\VMshare\e203\zhengdian_E203\sdk\dhrystone\Debug/../application/dhry_1.c:360
    structassign (*Ptr_Val_Par, *Ptr_Val_Par->Ptr_Comp);
80000dac:	0004af83          	lw	t6,0(s1)
E:\VMshare\e203\zhengdian_E203\sdk\dhrystone\Debug/../application/dhry_1.c:361
} /* Proc_1 */
80000db0:	00c12083          	lw	ra,12(sp)
E:\VMshare\e203\zhengdian_E203\sdk\dhrystone\Debug/../application/dhry_1.c:360
    structassign (*Ptr_Val_Par, *Ptr_Val_Par->Ptr_Comp);
80000db4:	004fa403          	lw	s0,4(t6)
80000db8:	000fa903          	lw	s2,0(t6)
80000dbc:	008fae83          	lw	t4,8(t6)
80000dc0:	00cfae03          	lw	t3,12(t6)
80000dc4:	010fa303          	lw	t1,16(t6)
80000dc8:	014fa883          	lw	a7,20(t6)
80000dcc:	018fa803          	lw	a6,24(t6)
80000dd0:	01cfa503          	lw	a0,28(t6)
80000dd4:	020fa583          	lw	a1,32(t6)
80000dd8:	024fa603          	lw	a2,36(t6)
80000ddc:	028fa703          	lw	a4,40(t6)
80000de0:	02cfa783          	lw	a5,44(t6)
80000de4:	0084a223          	sw	s0,4(s1)
E:\VMshare\e203\zhengdian_E203\sdk\dhrystone\Debug/../application/dhry_1.c:361
} /* Proc_1 */
80000de8:	00812403          	lw	s0,8(sp)
E:\VMshare\e203\zhengdian_E203\sdk\dhrystone\Debug/../application/dhry_1.c:360
    structassign (*Ptr_Val_Par, *Ptr_Val_Par->Ptr_Comp);
80000dec:	0124a023          	sw	s2,0(s1)
80000df0:	01d4a423          	sw	t4,8(s1)
80000df4:	01c4a623          	sw	t3,12(s1)
80000df8:	0064a823          	sw	t1,16(s1)
80000dfc:	0114aa23          	sw	a7,20(s1)
80000e00:	0104ac23          	sw	a6,24(s1)
80000e04:	00a4ae23          	sw	a0,28(s1)
80000e08:	02b4a023          	sw	a1,32(s1)
80000e0c:	02c4a223          	sw	a2,36(s1)
80000e10:	02e4a423          	sw	a4,40(s1)
80000e14:	02f4a623          	sw	a5,44(s1)
E:\VMshare\e203\zhengdian_E203\sdk\dhrystone\Debug/../application/dhry_1.c:361
} /* Proc_1 */
80000e18:	00012903          	lw	s2,0(sp)
80000e1c:	00412483          	lw	s1,4(sp)
80000e20:	01010113          	addi	sp,sp,16
80000e24:	00008067          	ret
E:\VMshare\e203\zhengdian_E203\sdk\dhrystone\Debug/../application/dhry_1.c:353
    Proc_6 (Ptr_Val_Par->variant.var_1.Enum_Comp,
80000e28:	0084a503          	lw	a0,8(s1)
E:\VMshare\e203\zhengdian_E203\sdk\dhrystone\Debug/../application/dhry_1.c:352
    Next_Record->variant.var_1.Int_Comp = 6;
80000e2c:	00600493          	li	s1,6
E:\VMshare\e203\zhengdian_E203\sdk\dhrystone\Debug/../application/dhry_1.c:353
    Proc_6 (Ptr_Val_Par->variant.var_1.Enum_Comp,
80000e30:	00840593          	addi	a1,s0,8
E:\VMshare\e203\zhengdian_E203\sdk\dhrystone\Debug/../application/dhry_1.c:352
    Next_Record->variant.var_1.Int_Comp = 6;
80000e34:	00942623          	sw	s1,12(s0)
E:\VMshare\e203\zhengdian_E203\sdk\dhrystone\Debug/../application/dhry_1.c:353
    Proc_6 (Ptr_Val_Par->variant.var_1.Enum_Comp,
80000e38:	db1ff0ef          	jal	ra,80000be8 <Proc_6.isra.0>
E:\VMshare\e203\zhengdian_E203\sdk\dhrystone\Debug/../application/dhry_1.c:355
    Next_Record->Ptr_Comp = Ptr_Glob->Ptr_Comp;
80000e3c:	00092683          	lw	a3,0(s2)
E:\VMshare\e203\zhengdian_E203\sdk\dhrystone\Debug/../application/dhry_1.c:356
    Proc_7 (Next_Record->variant.var_1.Int_Comp, 10,
80000e40:	00c42503          	lw	a0,12(s0)
80000e44:	00c40613          	addi	a2,s0,12
E:\VMshare\e203\zhengdian_E203\sdk\dhrystone\Debug/../application/dhry_1.c:355
    Next_Record->Ptr_Comp = Ptr_Glob->Ptr_Comp;
80000e48:	00d42023          	sw	a3,0(s0)
E:\VMshare\e203\zhengdian_E203\sdk\dhrystone\Debug/../application/dhry_1.c:361
} /* Proc_1 */
80000e4c:	00812403          	lw	s0,8(sp)
80000e50:	00c12083          	lw	ra,12(sp)
80000e54:	00412483          	lw	s1,4(sp)
80000e58:	00012903          	lw	s2,0(sp)
E:\VMshare\e203\zhengdian_E203\sdk\dhrystone\Debug/../application/dhry_1.c:356
    Proc_7 (Next_Record->variant.var_1.Int_Comp, 10,
80000e5c:	00a00593          	li	a1,10
E:\VMshare\e203\zhengdian_E203\sdk\dhrystone\Debug/../application/dhry_1.c:361
} /* Proc_1 */
80000e60:	01010113          	addi	sp,sp,16
E:\VMshare\e203\zhengdian_E203\sdk\dhrystone\Debug/../application/dhry_1.c:356
    Proc_7 (Next_Record->variant.var_1.Int_Comp, 10,
80000e64:	e45ff06f          	j	80000ca8 <Proc_7.isra.0>

80000e68 <Proc_2.isra.0>:
Proc_2():
E:\VMshare\e203\zhengdian_E203\sdk\dhrystone\Debug/../application/dhry_1.c:376
    if (Ch_1_Glob == 'A')
80000e68:	8801c703          	lbu	a4,-1920(gp) # 90000250 <Ch_1_Glob>
80000e6c:	04100293          	li	t0,65
80000e70:	00570463          	beq	a4,t0,80000e78 <Proc_2.isra.0+0x10>
E:\VMshare\e203\zhengdian_E203\sdk\dhrystone\Debug/../application/dhry_1.c:384
} /* Proc_2 */
80000e74:	00008067          	ret
E:\VMshare\e203\zhengdian_E203\sdk\dhrystone\Debug/../application/dhry_1.c:379
      Int_Loc -= 1;
80000e78:	00052303          	lw	t1,0(a0)
E:\VMshare\e203\zhengdian_E203\sdk\dhrystone\Debug/../application/dhry_1.c:380
      *Int_Par_Ref = Int_Loc - Int_Glob;
80000e7c:	8941a583          	lw	a1,-1900(gp) # 90000264 <Int_Glob>
E:\VMshare\e203\zhengdian_E203\sdk\dhrystone\Debug/../application/dhry_1.c:379
      Int_Loc -= 1;
80000e80:	00930613          	addi	a2,t1,9
E:\VMshare\e203\zhengdian_E203\sdk\dhrystone\Debug/../application/dhry_1.c:380
      *Int_Par_Ref = Int_Loc - Int_Glob;
80000e84:	40b606b3          	sub	a3,a2,a1
80000e88:	00d52023          	sw	a3,0(a0)
E:\VMshare\e203\zhengdian_E203\sdk\dhrystone\Debug/../application/dhry_1.c:384
} /* Proc_2 */
80000e8c:	00008067          	ret

80000e90 <system_default_exception_handler>:
system_default_exception_handler():
E:\VMshare\e203\zhengdian_E203\sdk\dhrystone\Debug/../hbird_sdk/SoC/hbirdv2/Common/Source/system_hbirdv2.c:168
{
80000e90:	ff010113          	addi	sp,sp,-16
80000e94:	00812423          	sw	s0,8(sp)
80000e98:	00050413          	mv	s0,a0
E:\VMshare\e203\zhengdian_E203\sdk\dhrystone\Debug/../hbird_sdk/SoC/hbirdv2/Common/Source/system_hbirdv2.c:170
    printf("Trap in Exception\r\n");
80000e9c:	00008517          	auipc	a0,0x8
80000ea0:	27450513          	addi	a0,a0,628 # 80009110 <__extendsfdf2+0xe0>
E:\VMshare\e203\zhengdian_E203\sdk\dhrystone\Debug/../hbird_sdk/SoC/hbirdv2/Common/Source/system_hbirdv2.c:168
{
80000ea4:	00112623          	sw	ra,12(sp)
E:\VMshare\e203\zhengdian_E203\sdk\dhrystone\Debug/../hbird_sdk/SoC/hbirdv2/Common/Source/system_hbirdv2.c:170
    printf("Trap in Exception\r\n");
80000ea8:	169010ef          	jal	ra,80002810 <iprintf>
E:\VMshare\e203\zhengdian_E203\sdk\dhrystone\Debug/../hbird_sdk/SoC/hbirdv2/Common/Source/system_hbirdv2.c:171
    printf("MCAUSE: 0x%lx\r\n", mcause);
80000eac:	00008297          	auipc	t0,0x8
80000eb0:	00040593          	mv	a1,s0
80000eb4:	27828513          	addi	a0,t0,632 # 80009124 <__extendsfdf2+0xf4>
80000eb8:	159010ef          	jal	ra,80002810 <iprintf>
E:\VMshare\e203\zhengdian_E203\sdk\dhrystone\Debug/../hbird_sdk/SoC/hbirdv2/Common/Source/system_hbirdv2.c:172
    printf("MEPC  : 0x%lx\r\n", __RV_CSR_READ(CSR_MEPC));
80000ebc:	341025f3          	csrr	a1,mepc
80000ec0:	00008317          	auipc	t1,0x8
80000ec4:	27430513          	addi	a0,t1,628 # 80009134 <__extendsfdf2+0x104>
80000ec8:	149010ef          	jal	ra,80002810 <iprintf>
E:\VMshare\e203\zhengdian_E203\sdk\dhrystone\Debug/../hbird_sdk/SoC/hbirdv2/Common/Source/system_hbirdv2.c:173
    printf("MTVAL : 0x%lx\r\n", __RV_CSR_READ(CSR_MBADADDR));
80000ecc:	343025f3          	csrr	a1,mtval
80000ed0:	00008397          	auipc	t2,0x8
80000ed4:	27438513          	addi	a0,t2,628 # 80009144 <__extendsfdf2+0x114>
80000ed8:	139010ef          	jal	ra,80002810 <iprintf>
E:\VMshare\e203\zhengdian_E203\sdk\dhrystone\Debug/../hbird_sdk/SoC/hbirdv2/Common/Source/system_hbirdv2.c:174 (discriminator 1)
    while(1);
80000edc:	0000006f          	j	80000edc <system_default_exception_handler+0x4c>

80000ee0 <system_default_interrupt_handler>:
system_default_interrupt_handler():
E:\VMshare\e203\zhengdian_E203\sdk\dhrystone\Debug/../hbird_sdk/SoC/hbirdv2/Common/Source/system_hbirdv2.c:183
{
80000ee0:	ff010113          	addi	sp,sp,-16
80000ee4:	00812423          	sw	s0,8(sp)
80000ee8:	00050413          	mv	s0,a0
E:\VMshare\e203\zhengdian_E203\sdk\dhrystone\Debug/../hbird_sdk/SoC/hbirdv2/Common/Source/system_hbirdv2.c:185
    printf("Trap in Interrupt\r\n");
80000eec:	00008517          	auipc	a0,0x8
80000ef0:	26850513          	addi	a0,a0,616 # 80009154 <__extendsfdf2+0x124>
E:\VMshare\e203\zhengdian_E203\sdk\dhrystone\Debug/../hbird_sdk/SoC/hbirdv2/Common/Source/system_hbirdv2.c:183
{
80000ef4:	00112623          	sw	ra,12(sp)
E:\VMshare\e203\zhengdian_E203\sdk\dhrystone\Debug/../hbird_sdk/SoC/hbirdv2/Common/Source/system_hbirdv2.c:185
    printf("Trap in Interrupt\r\n");
80000ef8:	119010ef          	jal	ra,80002810 <iprintf>
E:\VMshare\e203\zhengdian_E203\sdk\dhrystone\Debug/../hbird_sdk/SoC/hbirdv2/Common/Source/system_hbirdv2.c:186
    printf("MCAUSE: 0x%lx\r\n", mcause);
80000efc:	00008297          	auipc	t0,0x8
80000f00:	00040593          	mv	a1,s0
80000f04:	22828513          	addi	a0,t0,552 # 80009124 <__extendsfdf2+0xf4>
80000f08:	109010ef          	jal	ra,80002810 <iprintf>
E:\VMshare\e203\zhengdian_E203\sdk\dhrystone\Debug/../hbird_sdk/SoC/hbirdv2/Common/Source/system_hbirdv2.c:187
    printf("MEPC  : 0x%lx\r\n", __RV_CSR_READ(CSR_MEPC));
80000f0c:	341025f3          	csrr	a1,mepc
80000f10:	00008317          	auipc	t1,0x8
80000f14:	22430513          	addi	a0,t1,548 # 80009134 <__extendsfdf2+0x104>
80000f18:	0f9010ef          	jal	ra,80002810 <iprintf>
E:\VMshare\e203\zhengdian_E203\sdk\dhrystone\Debug/../hbird_sdk/SoC/hbirdv2/Common/Source/system_hbirdv2.c:188
    printf("MTVAL : 0x%lx\r\n", __RV_CSR_READ(CSR_MBADADDR));
80000f1c:	343025f3          	csrr	a1,mtval
E:\VMshare\e203\zhengdian_E203\sdk\dhrystone\Debug/../hbird_sdk/SoC/hbirdv2/Common/Source/system_hbirdv2.c:189
}
80000f20:	00812403          	lw	s0,8(sp)
80000f24:	00c12083          	lw	ra,12(sp)
E:\VMshare\e203\zhengdian_E203\sdk\dhrystone\Debug/../hbird_sdk/SoC/hbirdv2/Common/Source/system_hbirdv2.c:188
    printf("MTVAL : 0x%lx\r\n", __RV_CSR_READ(CSR_MBADADDR));
80000f28:	00008397          	auipc	t2,0x8
80000f2c:	21c38513          	addi	a0,t2,540 # 80009144 <__extendsfdf2+0x114>
E:\VMshare\e203\zhengdian_E203\sdk\dhrystone\Debug/../hbird_sdk/SoC/hbirdv2/Common/Source/system_hbirdv2.c:189
}
80000f30:	01010113          	addi	sp,sp,16
E:\VMshare\e203\zhengdian_E203\sdk\dhrystone\Debug/../hbird_sdk/SoC/hbirdv2/Common/Source/system_hbirdv2.c:188
    printf("MTVAL : 0x%lx\r\n", __RV_CSR_READ(CSR_MBADADDR));
80000f34:	0dd0106f          	j	80002810 <iprintf>

80000f38 <SystemBannerPrint>:
SystemBannerPrint():
E:\VMshare\e203\zhengdian_E203\sdk\dhrystone\Debug/../hbird_sdk/SoC/hbirdv2/Common/Source/system_hbirdv2.c:381

/** Banner Print for HummingBird SDK */
void SystemBannerPrint(void)
{
#if defined(HBIRD_BANNER) && (HBIRD_BANNER == 1)
    printf("HummingBird SDK Build Time: %s, %s\r\n", __DATE__, __TIME__);
80000f38:	00008617          	auipc	a2,0x8
80000f3c:	00008597          	auipc	a1,0x8
80000f40:	00008517          	auipc	a0,0x8
E:\VMshare\e203\zhengdian_E203\sdk\dhrystone\Debug/../hbird_sdk/SoC/hbirdv2/Common/Source/system_hbirdv2.c:379
{
80000f44:	ff010113          	addi	sp,sp,-16
E:\VMshare\e203\zhengdian_E203\sdk\dhrystone\Debug/../hbird_sdk/SoC/hbirdv2/Common/Source/system_hbirdv2.c:381
    printf("HummingBird SDK Build Time: %s, %s\r\n", __DATE__, __TIME__);
80000f48:	23060613          	addi	a2,a2,560 # 80009168 <__extendsfdf2+0x138>
80000f4c:	23858593          	addi	a1,a1,568 # 80009174 <__extendsfdf2+0x144>
80000f50:	24050513          	addi	a0,a0,576 # 80009180 <__extendsfdf2+0x150>
E:\VMshare\e203\zhengdian_E203\sdk\dhrystone\Debug/../hbird_sdk/SoC/hbirdv2/Common/Source/system_hbirdv2.c:379
{
80000f54:	00112623          	sw	ra,12(sp)
E:\VMshare\e203\zhengdian_E203\sdk\dhrystone\Debug/../hbird_sdk/SoC/hbirdv2/Common/Source/system_hbirdv2.c:381
    printf("HummingBird SDK Build Time: %s, %s\r\n", __DATE__, __TIME__);
80000f58:	0b9010ef          	jal	ra,80002810 <iprintf>
E:\VMshare\e203\zhengdian_E203\sdk\dhrystone\Debug/../hbird_sdk/SoC/hbirdv2/Common/Source/system_hbirdv2.c:383
#ifdef DOWNLOAD_MODE_STRING
    printf("Download Mode: %s\r\n", DOWNLOAD_MODE_STRING);
80000f5c:	00008297          	auipc	t0,0x8
80000f60:	00008317          	auipc	t1,0x8
80000f64:	24c28593          	addi	a1,t0,588 # 800091a8 <__extendsfdf2+0x178>
80000f68:	24c30513          	addi	a0,t1,588 # 800091ac <__extendsfdf2+0x17c>
80000f6c:	0a5010ef          	jal	ra,80002810 <iprintf>
E:\VMshare\e203\zhengdian_E203\sdk\dhrystone\Debug/../hbird_sdk/SoC/hbirdv2/Common/Source/system_hbirdv2.c:385
#endif
    printf("CPU Frequency %lu Hz\r\n", SystemCoreClock);
80000f70:	0ffff797          	auipc	a5,0xffff
E:\VMshare\e203\zhengdian_E203\sdk\dhrystone\Debug/../hbird_sdk/SoC/hbirdv2/Common/Source/system_hbirdv2.c:387
#endif
}
80000f74:	00c12083          	lw	ra,12(sp)
E:\VMshare\e203\zhengdian_E203\sdk\dhrystone\Debug/../hbird_sdk/SoC/hbirdv2/Common/Source/system_hbirdv2.c:385
    printf("CPU Frequency %lu Hz\r\n", SystemCoreClock);
80000f78:	2607a583          	lw	a1,608(a5) # 900001d0 <SystemCoreClock>
80000f7c:	00008397          	auipc	t2,0x8
80000f80:	24438513          	addi	a0,t2,580 # 800091c0 <__extendsfdf2+0x190>
E:\VMshare\e203\zhengdian_E203\sdk\dhrystone\Debug/../hbird_sdk/SoC/hbirdv2/Common/Source/system_hbirdv2.c:387
}
80000f84:	01010113          	addi	sp,sp,16
E:\VMshare\e203\zhengdian_E203\sdk\dhrystone\Debug/../hbird_sdk/SoC/hbirdv2/Common/Source/system_hbirdv2.c:385
    printf("CPU Frequency %lu Hz\r\n", SystemCoreClock);
80000f88:	0890106f          	j	80002810 <iprintf>

80000f8c <Func_2>:
Func_2():
E:\VMshare\e203\zhengdian_E203\sdk\dhrystone\Debug/../application/dhry_2.c:143
{
80000f8c:	ff010113          	addi	sp,sp,-16
80000f90:	00912223          	sw	s1,4(sp)
80000f94:	01212023          	sw	s2,0(sp)
80000f98:	00112623          	sw	ra,12(sp)
80000f9c:	00812423          	sw	s0,8(sp)
80000fa0:	00050493          	mv	s1,a0
80000fa4:	00058913          	mv	s2,a1
E:\VMshare\e203\zhengdian_E203\sdk\dhrystone\Debug/../application/dhry_2.c:149
    if (Func_1 (Str_1_Par_Ref[Int_Loc],
80000fa8:	00394583          	lbu	a1,3(s2)
80000fac:	0024c503          	lbu	a0,2(s1)
80000fb0:	b11ff0ef          	jal	ra,80000ac0 <Func_1>
80000fb4:	00050413          	mv	s0,a0
80000fb8:	fe0518e3          	bnez	a0,80000fa8 <Func_2+0x1c>
E:\VMshare\e203\zhengdian_E203\sdk\dhrystone\Debug/../application/dhry_2.c:164
    if (strcmp (Str_1_Par_Ref, Str_2_Par_Ref) > 0)
80000fbc:	00090593          	mv	a1,s2
80000fc0:	00048513          	mv	a0,s1
80000fc4:	7c4040ef          	jal	ra,80005788 <strcmp>
80000fc8:	00a05863          	blez	a0,80000fd8 <Func_2+0x4c>
E:\VMshare\e203\zhengdian_E203\sdk\dhrystone\Debug/../application/dhry_2.c:168
      Int_Glob = Int_Loc;
80000fcc:	00a00713          	li	a4,10
80000fd0:	88e1aa23          	sw	a4,-1900(gp) # 90000264 <Int_Glob>
E:\VMshare\e203\zhengdian_E203\sdk\dhrystone\Debug/../application/dhry_2.c:169
      return (true);
80000fd4:	00100413          	li	s0,1
E:\VMshare\e203\zhengdian_E203\sdk\dhrystone\Debug/../application/dhry_2.c:174
} /* Func_2 */
80000fd8:	00c12083          	lw	ra,12(sp)
80000fdc:	00040513          	mv	a0,s0
80000fe0:	00812403          	lw	s0,8(sp)
80000fe4:	00412483          	lw	s1,4(sp)
80000fe8:	00012903          	lw	s2,0(sp)
80000fec:	01010113          	addi	sp,sp,16
80000ff0:	00008067          	ret

80000ff4 <uart_read.constprop.0>:
uart_read():
E:\VMshare\e203\zhengdian_E203\sdk\dhrystone\Debug/../hbird_sdk/SoC/hbirdv2/Common/Source/Drivers/hbirdv2_uart.c:90
    uint32_t reg;
    if (__RARELY(uart == NULL)) {
        return -1;
    }
    
    while ((uart->LSR & 0x1) == 0);
80000ff4:	10013737          	lui	a4,0x10013
80000ff8:	01472783          	lw	a5,20(a4) # 10013014 <dhry_stubs.c.aa5f359a+0x1000f439>
80000ffc:	0017f293          	andi	t0,a5,1
80001000:	fe028ce3          	beqz	t0,80000ff8 <uart_read.constprop.0+0x4>
E:\VMshare\e203\zhengdian_E203\sdk\dhrystone\Debug/../hbird_sdk/SoC/hbirdv2/Common/Source/Drivers/hbirdv2_uart.c:91
    reg = uart->RBR;
80001004:	00072503          	lw	a0,0(a4)
E:\VMshare\e203\zhengdian_E203\sdk\dhrystone\Debug/../hbird_sdk/SoC/hbirdv2/Common/Source/Drivers/hbirdv2_uart.c:94
    
    return (uint8_t)(reg & 0xFF);
}
80001008:	0ff57513          	andi	a0,a0,255
8000100c:	00008067          	ret

80001010 <uart_write.constprop.0.isra.0>:
uart_write():
E:\VMshare\e203\zhengdian_E203\sdk\dhrystone\Debug/../hbird_sdk/SoC/hbirdv2/Common/Source/Drivers/hbirdv2_uart.c:73
    while ((uart->LSR & 0x20) == 0);
80001010:	10013737          	lui	a4,0x10013
80001014:	01472783          	lw	a5,20(a4) # 10013014 <dhry_stubs.c.aa5f359a+0x1000f439>
80001018:	0207f293          	andi	t0,a5,32
8000101c:	fe028ce3          	beqz	t0,80001014 <uart_write.constprop.0.isra.0+0x4>
E:\VMshare\e203\zhengdian_E203\sdk\dhrystone\Debug/../hbird_sdk/SoC/hbirdv2/Common/Source/Drivers/hbirdv2_uart.c:75
    uart->THR = val;
80001020:	00a72023          	sw	a0,0(a4)
E:\VMshare\e203\zhengdian_E203\sdk\dhrystone\Debug/../hbird_sdk/SoC/hbirdv2/Common/Source/Drivers/hbirdv2_uart.c:81
}
80001024:	00008067          	ret

80001028 <gpio_iof_config.constprop.0.isra.0>:
gpio_iof_config():
E:\VMshare\e203\zhengdian_E203\sdk\dhrystone\Debug/../hbird_sdk/SoC/hbirdv2/Common/Source/Drivers/hbirdv2_gpio.c:9
int32_t gpio_iof_config(GPIO_TypeDef *gpio, uint32_t mask)
{
    if (__RARELY(gpio == NULL)) {
        return -1;
    }
    gpio->IOFCFG |= mask;
80001028:	10012737          	lui	a4,0x10012
8000102c:	01c72783          	lw	a5,28(a4) # 1001201c <dhry_stubs.c.aa5f359a+0x1000e441>
80001030:	000306b7          	lui	a3,0x30
80001034:	00d7e2b3          	or	t0,a5,a3
80001038:	00572e23          	sw	t0,28(a4)
E:\VMshare\e203\zhengdian_E203\sdk\dhrystone\Debug/../hbird_sdk/SoC/hbirdv2/Common/Source/Drivers/hbirdv2_gpio.c:12

    return 0;
}
8000103c:	00008067          	ret

80001040 <uart_init.constprop.0.isra.0>:
uart_init():
E:\VMshare\e203\zhengdian_E203\sdk\dhrystone\Debug/../hbird_sdk/SoC/hbirdv2/Common/Source/Drivers/hbirdv2_uart.c:10
    unsigned int uart_div = SystemCoreClock / baudrate - 1;
80001040:	0ffff797          	auipc	a5,0xffff
80001044:	1907a283          	lw	t0,400(a5) # 900001d0 <SystemCoreClock>
80001048:	0001c737          	lui	a4,0x1c
8000104c:	20070313          	addi	t1,a4,512 # 1c200 <dhry_stubs.c.aa5f359a+0x18625>
80001050:	0262d3b3          	divu	t2,t0,t1
E:\VMshare\e203\zhengdian_E203\sdk\dhrystone\Debug/../hbird_sdk/SoC/hbirdv2/Common/Source/Drivers/hbirdv2_uart.c:11
    uart->LCR = 0x80;
80001054:	10013537          	lui	a0,0x10013
80001058:	08000693          	li	a3,128
8000105c:	00d52623          	sw	a3,12(a0) # 1001300c <dhry_stubs.c.aa5f359a+0x1000f431>
E:\VMshare\e203\zhengdian_E203\sdk\dhrystone\Debug/../hbird_sdk/SoC/hbirdv2/Common/Source/Drivers/hbirdv2_uart.c:14
    uart->FCR = 0xC6;
80001060:	0c600e13          	li	t3,198
E:\VMshare\e203\zhengdian_E203\sdk\dhrystone\Debug/../hbird_sdk/SoC/hbirdv2/Common/Source/Drivers/hbirdv2_uart.c:15
    uart->LCR = 0x03;
80001064:	00300e93          	li	t4,3
E:\VMshare\e203\zhengdian_E203\sdk\dhrystone\Debug/../hbird_sdk/SoC/hbirdv2/Common/Source/Drivers/hbirdv2_uart.c:10
    unsigned int uart_div = SystemCoreClock / baudrate - 1;
80001068:	fff38593          	addi	a1,t2,-1
E:\VMshare\e203\zhengdian_E203\sdk\dhrystone\Debug/../hbird_sdk/SoC/hbirdv2/Common/Source/Drivers/hbirdv2_uart.c:12
    uart->DLM = (uart_div >> 8) & 0xFF;
8000106c:	0085d613          	srli	a2,a1,0x8
80001070:	0ff67813          	andi	a6,a2,255
80001074:	01052223          	sw	a6,4(a0)
E:\VMshare\e203\zhengdian_E203\sdk\dhrystone\Debug/../hbird_sdk/SoC/hbirdv2/Common/Source/Drivers/hbirdv2_uart.c:13
    uart->DLL = uart_div        & 0xFF;
80001078:	0ff5f893          	andi	a7,a1,255
8000107c:	01152023          	sw	a7,0(a0)
E:\VMshare\e203\zhengdian_E203\sdk\dhrystone\Debug/../hbird_sdk/SoC/hbirdv2/Common/Source/Drivers/hbirdv2_uart.c:14
    uart->FCR = 0xC6;
80001080:	01c52423          	sw	t3,8(a0)
E:\VMshare\e203\zhengdian_E203\sdk\dhrystone\Debug/../hbird_sdk/SoC/hbirdv2/Common/Source/Drivers/hbirdv2_uart.c:15
    uart->LCR = 0x03;
80001084:	01d52623          	sw	t4,12(a0)
E:\VMshare\e203\zhengdian_E203\sdk\dhrystone\Debug/../hbird_sdk/SoC/hbirdv2/Common/Source/Drivers/hbirdv2_uart.c:18
}
80001088:	00008067          	ret

8000108c <_close>:
_close():
E:\VMshare\e203\zhengdian_E203\sdk\dhrystone\Debug/../hbird_sdk/SoC/hbirdv2/Common/Source/Stubs/close.c:10
#undef errno
extern int errno;

__WEAK int _close(int fd)
{
    errno = EBADF;
8000108c:	00900713          	li	a4,9
80001090:	8ae1a223          	sw	a4,-1884(gp) # 90000274 <errno>
E:\VMshare\e203\zhengdian_E203\sdk\dhrystone\Debug/../hbird_sdk/SoC/hbirdv2/Common/Source/Stubs/close.c:12
    return -1;
}
80001094:	fff00513          	li	a0,-1
80001098:	00008067          	ret

8000109c <_exit>:
__WFI():
E:\VMshare\e203\zhengdian_E203\sdk\dhrystone\hbird_sdk\NMSIS\Core\Include/core_feature_base.h:598 (discriminator 1)
 * the hardware platform that suitable interrupts should
 * preferentially be routed to this hart.
 */
__STATIC_FORCEINLINE void __WFI(void)
{
    __ASM volatile("wfi");
8000109c:	10500073          	wfi
800010a0:	ffdff06f          	j	8000109c <_exit>

800010a4 <_fstat>:
_fstat():
E:\VMshare\e203\zhengdian_E203\sdk\dhrystone\Debug/../hbird_sdk/SoC/hbirdv2/Common/Source/Stubs/fstat.c:12
#undef errno
extern int errno;

__WEAK int _fstat(int file, struct stat *st)
{
    if ((STDOUT_FILENO == file) || (STDERR_FILENO == file)) {
800010a4:	fff50513          	addi	a0,a0,-1
800010a8:	00100793          	li	a5,1
800010ac:	00a7ea63          	bltu	a5,a0,800010c0 <_fstat+0x1c>
E:\VMshare\e203\zhengdian_E203\sdk\dhrystone\Debug/../hbird_sdk/SoC/hbirdv2/Common/Source/Stubs/fstat.c:13
        st->st_mode = S_IFCHR;
800010b0:	00002337          	lui	t1,0x2
800010b4:	0065a223          	sw	t1,4(a1)
E:\VMshare\e203\zhengdian_E203\sdk\dhrystone\Debug/../hbird_sdk/SoC/hbirdv2/Common/Source/Stubs/fstat.c:14
        return 0;
800010b8:	00000513          	li	a0,0
800010bc:	00008067          	ret
E:\VMshare\e203\zhengdian_E203\sdk\dhrystone\Debug/../hbird_sdk/SoC/hbirdv2/Common/Source/Stubs/fstat.c:16
    } else {
        errno = EBADF;
800010c0:	00900713          	li	a4,9
800010c4:	8ae1a223          	sw	a4,-1884(gp) # 90000274 <errno>
E:\VMshare\e203\zhengdian_E203\sdk\dhrystone\Debug/../hbird_sdk/SoC/hbirdv2/Common/Source/Stubs/fstat.c:17
        return -1;
800010c8:	fff00513          	li	a0,-1
E:\VMshare\e203\zhengdian_E203\sdk\dhrystone\Debug/../hbird_sdk/SoC/hbirdv2/Common/Source/Stubs/fstat.c:19
    }
}
800010cc:	00008067          	ret

800010d0 <_getpid>:
_getpid():
E:\VMshare\e203\zhengdian_E203\sdk\dhrystone\Debug/../hbird_sdk/SoC/hbirdv2/Common/Source/Stubs/getpid.c:8
#include <errno.h>

__WEAK int _getpid(void)
{
    return 1;
}
800010d0:	00100513          	li	a0,1
800010d4:	00008067          	ret

800010d8 <_isatty>:
_isatty():
E:\VMshare\e203\zhengdian_E203\sdk\dhrystone\Debug/../hbird_sdk/SoC/hbirdv2/Common/Source/Stubs/isatty.c:8
#include <unistd.h>

__WEAK int _isatty(int fd)
{
    return 1;
}
800010d8:	00100513          	li	a0,1
800010dc:	00008067          	ret

800010e0 <_kill>:
_kill():
E:\VMshare\e203\zhengdian_E203\sdk\dhrystone\Debug/../hbird_sdk/SoC/hbirdv2/Common/Source/Stubs/kill.c:9
#undef errno
extern int errno;

__WEAK int _kill(int pid, int sig)
{
    errno = EINVAL;
800010e0:	01600713          	li	a4,22
800010e4:	8ae1a223          	sw	a4,-1884(gp) # 90000274 <errno>
E:\VMshare\e203\zhengdian_E203\sdk\dhrystone\Debug/../hbird_sdk/SoC/hbirdv2/Common/Source/Stubs/kill.c:11
    return -1;
}
800010e8:	fff00513          	li	a0,-1
800010ec:	00008067          	ret

800010f0 <_lseek>:
_lseek():
E:\VMshare\e203\zhengdian_E203\sdk\dhrystone\Debug/../hbird_sdk/SoC/hbirdv2/Common/Source/Stubs/lseek.c:11
extern int errno;

__WEAK int _lseek(int file, int offset, int whence)
{
    return 0;
}
800010f0:	00000513          	li	a0,0
800010f4:	00008067          	ret

800010f8 <_read>:
_read():
E:\VMshare\e203\zhengdian_E203\sdk\dhrystone\Debug/../hbird_sdk/SoC/hbirdv2/Common/Source/Stubs/read.c:12

// #define UART_AUTO_ECHO

__WEAK ssize_t _read(int fd, void* ptr, size_t len)
{
    if (fd != STDIN_FILENO) {
800010f8:	00050663          	beqz	a0,80001104 <_read+0xc>
E:\VMshare\e203\zhengdian_E203\sdk\dhrystone\Debug/../hbird_sdk/SoC/hbirdv2/Common/Source/Stubs/read.c:13
        return -1;
800010fc:	fff00513          	li	a0,-1
E:\VMshare\e203\zhengdian_E203\sdk\dhrystone\Debug/../hbird_sdk/SoC/hbirdv2/Common/Source/Stubs/read.c:22
    readbuf[0] = uart_read(SOC_DEBUG_UART);
#ifdef UART_AUTO_ECHO
    uart_write(SOC_DEBUG_UART, readbuf[0]);
#endif
    return 1;
}
80001100:	00008067          	ret
E:\VMshare\e203\zhengdian_E203\sdk\dhrystone\Debug/../hbird_sdk/SoC/hbirdv2/Common/Source/Stubs/read.c:11
{
80001104:	ff010113          	addi	sp,sp,-16
80001108:	00812423          	sw	s0,8(sp)
8000110c:	00112623          	sw	ra,12(sp)
80001110:	00058413          	mv	s0,a1
E:\VMshare\e203\zhengdian_E203\sdk\dhrystone\Debug/../hbird_sdk/SoC/hbirdv2/Common/Source/Stubs/read.c:17
    readbuf[0] = uart_read(SOC_DEBUG_UART);
80001114:	ee1ff0ef          	jal	ra,80000ff4 <uart_read.constprop.0>
80001118:	00a40023          	sb	a0,0(s0)
E:\VMshare\e203\zhengdian_E203\sdk\dhrystone\Debug/../hbird_sdk/SoC/hbirdv2/Common/Source/Stubs/read.c:22
}
8000111c:	00c12083          	lw	ra,12(sp)
80001120:	00812403          	lw	s0,8(sp)
E:\VMshare\e203\zhengdian_E203\sdk\dhrystone\Debug/../hbird_sdk/SoC/hbirdv2/Common/Source/Stubs/read.c:21
    return 1;
80001124:	00100513          	li	a0,1
E:\VMshare\e203\zhengdian_E203\sdk\dhrystone\Debug/../hbird_sdk/SoC/hbirdv2/Common/Source/Stubs/read.c:22
}
80001128:	01010113          	addi	sp,sp,16
8000112c:	00008067          	ret

80001130 <_sbrk>:
_sbrk():
E:\VMshare\e203\zhengdian_E203\sdk\dhrystone\Debug/../hbird_sdk/SoC/hbirdv2/Common/Source/Stubs/sbrk.c:13
{
    extern char _end[];
    extern char _heap_end[];
    static char *curbrk = _end;

    if ((curbrk + incr < _end) || (curbrk + incr > _heap_end)) {
80001130:	0ffff797          	auipc	a5,0xffff
80001134:	0a478293          	addi	t0,a5,164 # 900001d4 <curbrk.0>
80001138:	0002a683          	lw	a3,0(t0)
8000113c:	10002717          	auipc	a4,0x10002
80001140:	a4470313          	addi	t1,a4,-1468 # 90002b80 <_end>
80001144:	00a68533          	add	a0,a3,a0
80001148:	00656e63          	bltu	a0,t1,80001164 <_sbrk+0x34>
E:\VMshare\e203\zhengdian_E203\sdk\dhrystone\Debug/../hbird_sdk/SoC/hbirdv2/Common/Source/Stubs/sbrk.c:13 (discriminator 1)
8000114c:	1000e397          	auipc	t2,0x1000e
80001150:	6b438593          	addi	a1,t2,1716 # 9000f800 <_heap_end>
80001154:	00a5e863          	bltu	a1,a0,80001164 <_sbrk+0x34>
E:\VMshare\e203\zhengdian_E203\sdk\dhrystone\Debug/../hbird_sdk/SoC/hbirdv2/Common/Source/Stubs/sbrk.c:17
        return (void *)(-1);
    }

    curbrk += incr;
80001158:	00a2a023          	sw	a0,0(t0)
E:\VMshare\e203\zhengdian_E203\sdk\dhrystone\Debug/../hbird_sdk/SoC/hbirdv2/Common/Source/Stubs/sbrk.c:19
    return (void *)(curbrk - incr);
}
8000115c:	00068513          	mv	a0,a3
80001160:	00008067          	ret
E:\VMshare\e203\zhengdian_E203\sdk\dhrystone\Debug/../hbird_sdk/SoC/hbirdv2/Common/Source/Stubs/sbrk.c:14
        return (void *)(-1);
80001164:	fff00693          	li	a3,-1
E:\VMshare\e203\zhengdian_E203\sdk\dhrystone\Debug/../hbird_sdk/SoC/hbirdv2/Common/Source/Stubs/sbrk.c:19
}
80001168:	00068513          	mv	a0,a3
8000116c:	00008067          	ret

80001170 <_write>:
_write():
E:\VMshare\e203\zhengdian_E203\sdk\dhrystone\Debug/../hbird_sdk/SoC/hbirdv2/Common/Source/Stubs/write.c:9
#include <unistd.h>
#include <sys/types.h>
#include <hbird_sdk_hal.h>

__WEAK ssize_t _write(int fd, const void* ptr, size_t len)
{
80001170:	fe010113          	addi	sp,sp,-32
80001174:	01212823          	sw	s2,16(sp)
80001178:	01312623          	sw	s3,12(sp)
8000117c:	00112e23          	sw	ra,28(sp)
80001180:	00812c23          	sw	s0,24(sp)
80001184:	00912a23          	sw	s1,20(sp)
80001188:	01412423          	sw	s4,8(sp)
8000118c:	00058913          	mv	s2,a1
80001190:	00060993          	mv	s3,a2
E:\VMshare\e203\zhengdian_E203\sdk\dhrystone\Debug/../hbird_sdk/SoC/hbirdv2/Common/Source/Stubs/write.c:10
    if (!isatty(fd)) {
80001194:	708010ef          	jal	ra,8000289c <isatty>
80001198:	28050063          	beqz	a0,80001418 <_write+0x2a8>
E:\VMshare\e203\zhengdian_E203\sdk\dhrystone\Debug/../hbird_sdk/SoC/hbirdv2/Common/Source/Stubs/write.c:15
        return -1;
    }

    const uint8_t *writebuf = (const uint8_t *)ptr;
    for (size_t i = 0; i < len; i++) {
8000119c:	00090413          	mv	s0,s2
800011a0:	01390a33          	add	s4,s2,s3
800011a4:	0a098c63          	beqz	s3,8000125c <_write+0xec>
800011a8:	412a07b3          	sub	a5,s4,s2
800011ac:	0077f093          	andi	ra,a5,7
E:\VMshare\e203\zhengdian_E203\sdk\dhrystone\Debug/../hbird_sdk/SoC/hbirdv2/Common/Source/Stubs/write.c:16
        if (writebuf[i] == '\n') {
800011b0:	00a00493          	li	s1,10
800011b4:	12008e63          	beqz	ra,800012f0 <_write+0x180>
800011b8:	00100713          	li	a4,1
800011bc:	08e08663          	beq	ra,a4,80001248 <_write+0xd8>
800011c0:	00200293          	li	t0,2
800011c4:	06508a63          	beq	ra,t0,80001238 <_write+0xc8>
800011c8:	00300313          	li	t1,3
800011cc:	04608e63          	beq	ra,t1,80001228 <_write+0xb8>
800011d0:	00400393          	li	t2,4
800011d4:	04708263          	beq	ra,t2,80001218 <_write+0xa8>
800011d8:	00500513          	li	a0,5
800011dc:	02a08663          	beq	ra,a0,80001208 <_write+0x98>
800011e0:	00600593          	li	a1,6
800011e4:	00b08a63          	beq	ra,a1,800011f8 <_write+0x88>
800011e8:	00094503          	lbu	a0,0(s2)
800011ec:	20950e63          	beq	a0,s1,80001408 <_write+0x298>
E:\VMshare\e203\zhengdian_E203\sdk\dhrystone\Debug/../hbird_sdk/SoC/hbirdv2/Common/Source/Stubs/write.c:19
            uart_write(SOC_DEBUG_UART, '\r');
        }
        uart_write(SOC_DEBUG_UART, writebuf[i]);
800011f0:	e21ff0ef          	jal	ra,80001010 <uart_write.constprop.0.isra.0>
E:\VMshare\e203\zhengdian_E203\sdk\dhrystone\Debug/../hbird_sdk/SoC/hbirdv2/Common/Source/Stubs/write.c:15
    for (size_t i = 0; i < len; i++) {
800011f4:	00190413          	addi	s0,s2,1
E:\VMshare\e203\zhengdian_E203\sdk\dhrystone\Debug/../hbird_sdk/SoC/hbirdv2/Common/Source/Stubs/write.c:16
        if (writebuf[i] == '\n') {
800011f8:	00044503          	lbu	a0,0(s0)
800011fc:	1e950e63          	beq	a0,s1,800013f8 <_write+0x288>
E:\VMshare\e203\zhengdian_E203\sdk\dhrystone\Debug/../hbird_sdk/SoC/hbirdv2/Common/Source/Stubs/write.c:19
        uart_write(SOC_DEBUG_UART, writebuf[i]);
80001200:	e11ff0ef          	jal	ra,80001010 <uart_write.constprop.0.isra.0>
E:\VMshare\e203\zhengdian_E203\sdk\dhrystone\Debug/../hbird_sdk/SoC/hbirdv2/Common/Source/Stubs/write.c:15
    for (size_t i = 0; i < len; i++) {
80001204:	00140413          	addi	s0,s0,1
E:\VMshare\e203\zhengdian_E203\sdk\dhrystone\Debug/../hbird_sdk/SoC/hbirdv2/Common/Source/Stubs/write.c:16
        if (writebuf[i] == '\n') {
80001208:	00044503          	lbu	a0,0(s0)
8000120c:	1c950e63          	beq	a0,s1,800013e8 <_write+0x278>
E:\VMshare\e203\zhengdian_E203\sdk\dhrystone\Debug/../hbird_sdk/SoC/hbirdv2/Common/Source/Stubs/write.c:19
        uart_write(SOC_DEBUG_UART, writebuf[i]);
80001210:	e01ff0ef          	jal	ra,80001010 <uart_write.constprop.0.isra.0>
E:\VMshare\e203\zhengdian_E203\sdk\dhrystone\Debug/../hbird_sdk/SoC/hbirdv2/Common/Source/Stubs/write.c:15
    for (size_t i = 0; i < len; i++) {
80001214:	00140413          	addi	s0,s0,1
E:\VMshare\e203\zhengdian_E203\sdk\dhrystone\Debug/../hbird_sdk/SoC/hbirdv2/Common/Source/Stubs/write.c:16
        if (writebuf[i] == '\n') {
80001218:	00044503          	lbu	a0,0(s0)
8000121c:	1a950e63          	beq	a0,s1,800013d8 <_write+0x268>
E:\VMshare\e203\zhengdian_E203\sdk\dhrystone\Debug/../hbird_sdk/SoC/hbirdv2/Common/Source/Stubs/write.c:19
        uart_write(SOC_DEBUG_UART, writebuf[i]);
80001220:	df1ff0ef          	jal	ra,80001010 <uart_write.constprop.0.isra.0>
E:\VMshare\e203\zhengdian_E203\sdk\dhrystone\Debug/../hbird_sdk/SoC/hbirdv2/Common/Source/Stubs/write.c:15
    for (size_t i = 0; i < len; i++) {
80001224:	00140413          	addi	s0,s0,1
E:\VMshare\e203\zhengdian_E203\sdk\dhrystone\Debug/../hbird_sdk/SoC/hbirdv2/Common/Source/Stubs/write.c:16
        if (writebuf[i] == '\n') {
80001228:	00044503          	lbu	a0,0(s0)
8000122c:	16950e63          	beq	a0,s1,800013a8 <_write+0x238>
E:\VMshare\e203\zhengdian_E203\sdk\dhrystone\Debug/../hbird_sdk/SoC/hbirdv2/Common/Source/Stubs/write.c:19
        uart_write(SOC_DEBUG_UART, writebuf[i]);
80001230:	de1ff0ef          	jal	ra,80001010 <uart_write.constprop.0.isra.0>
E:\VMshare\e203\zhengdian_E203\sdk\dhrystone\Debug/../hbird_sdk/SoC/hbirdv2/Common/Source/Stubs/write.c:15
    for (size_t i = 0; i < len; i++) {
80001234:	00140413          	addi	s0,s0,1
E:\VMshare\e203\zhengdian_E203\sdk\dhrystone\Debug/../hbird_sdk/SoC/hbirdv2/Common/Source/Stubs/write.c:16
        if (writebuf[i] == '\n') {
80001238:	00044503          	lbu	a0,0(s0)
8000123c:	18950663          	beq	a0,s1,800013c8 <_write+0x258>
E:\VMshare\e203\zhengdian_E203\sdk\dhrystone\Debug/../hbird_sdk/SoC/hbirdv2/Common/Source/Stubs/write.c:19
        uart_write(SOC_DEBUG_UART, writebuf[i]);
80001240:	dd1ff0ef          	jal	ra,80001010 <uart_write.constprop.0.isra.0>
E:\VMshare\e203\zhengdian_E203\sdk\dhrystone\Debug/../hbird_sdk/SoC/hbirdv2/Common/Source/Stubs/write.c:15
    for (size_t i = 0; i < len; i++) {
80001244:	00140413          	addi	s0,s0,1
E:\VMshare\e203\zhengdian_E203\sdk\dhrystone\Debug/../hbird_sdk/SoC/hbirdv2/Common/Source/Stubs/write.c:16
        if (writebuf[i] == '\n') {
80001248:	00044503          	lbu	a0,0(s0)
8000124c:	16950663          	beq	a0,s1,800013b8 <_write+0x248>
E:\VMshare\e203\zhengdian_E203\sdk\dhrystone\Debug/../hbird_sdk/SoC/hbirdv2/Common/Source/Stubs/write.c:15
    for (size_t i = 0; i < len; i++) {
80001250:	00140413          	addi	s0,s0,1
E:\VMshare\e203\zhengdian_E203\sdk\dhrystone\Debug/../hbird_sdk/SoC/hbirdv2/Common/Source/Stubs/write.c:19
        uart_write(SOC_DEBUG_UART, writebuf[i]);
80001254:	dbdff0ef          	jal	ra,80001010 <uart_write.constprop.0.isra.0>
E:\VMshare\e203\zhengdian_E203\sdk\dhrystone\Debug/../hbird_sdk/SoC/hbirdv2/Common/Source/Stubs/write.c:15
    for (size_t i = 0; i < len; i++) {
80001258:	09441c63          	bne	s0,s4,800012f0 <_write+0x180>
E:\VMshare\e203\zhengdian_E203\sdk\dhrystone\Debug/../hbird_sdk/SoC/hbirdv2/Common/Source/Stubs/write.c:21
    }
    return len;
8000125c:	00098513          	mv	a0,s3
E:\VMshare\e203\zhengdian_E203\sdk\dhrystone\Debug/../hbird_sdk/SoC/hbirdv2/Common/Source/Stubs/write.c:22
}
80001260:	01c12083          	lw	ra,28(sp)
80001264:	01812403          	lw	s0,24(sp)
80001268:	01412483          	lw	s1,20(sp)
8000126c:	01012903          	lw	s2,16(sp)
80001270:	00c12983          	lw	s3,12(sp)
80001274:	00812a03          	lw	s4,8(sp)
80001278:	02010113          	addi	sp,sp,32
8000127c:	00008067          	ret
E:\VMshare\e203\zhengdian_E203\sdk\dhrystone\Debug/../hbird_sdk/SoC/hbirdv2/Common/Source/Stubs/write.c:17
            uart_write(SOC_DEBUG_UART, '\r');
80001280:	00d00513          	li	a0,13
80001284:	d8dff0ef          	jal	ra,80001010 <uart_write.constprop.0.isra.0>
E:\VMshare\e203\zhengdian_E203\sdk\dhrystone\Debug/../hbird_sdk/SoC/hbirdv2/Common/Source/Stubs/write.c:19
        uart_write(SOC_DEBUG_UART, writebuf[i]);
80001288:	00044503          	lbu	a0,0(s0)
E:\VMshare\e203\zhengdian_E203\sdk\dhrystone\Debug/../hbird_sdk/SoC/hbirdv2/Common/Source/Stubs/write.c:15
    for (size_t i = 0; i < len; i++) {
8000128c:	00140913          	addi	s2,s0,1
E:\VMshare\e203\zhengdian_E203\sdk\dhrystone\Debug/../hbird_sdk/SoC/hbirdv2/Common/Source/Stubs/write.c:19
        uart_write(SOC_DEBUG_UART, writebuf[i]);
80001290:	d81ff0ef          	jal	ra,80001010 <uart_write.constprop.0.isra.0>
E:\VMshare\e203\zhengdian_E203\sdk\dhrystone\Debug/../hbird_sdk/SoC/hbirdv2/Common/Source/Stubs/write.c:16
        if (writebuf[i] == '\n') {
80001294:	00144503          	lbu	a0,1(s0)
80001298:	06950863          	beq	a0,s1,80001308 <_write+0x198>
E:\VMshare\e203\zhengdian_E203\sdk\dhrystone\Debug/../hbird_sdk/SoC/hbirdv2/Common/Source/Stubs/write.c:19
        uart_write(SOC_DEBUG_UART, writebuf[i]);
8000129c:	d75ff0ef          	jal	ra,80001010 <uart_write.constprop.0.isra.0>
E:\VMshare\e203\zhengdian_E203\sdk\dhrystone\Debug/../hbird_sdk/SoC/hbirdv2/Common/Source/Stubs/write.c:16
        if (writebuf[i] == '\n') {
800012a0:	00194503          	lbu	a0,1(s2)
800012a4:	06950e63          	beq	a0,s1,80001320 <_write+0x1b0>
E:\VMshare\e203\zhengdian_E203\sdk\dhrystone\Debug/../hbird_sdk/SoC/hbirdv2/Common/Source/Stubs/write.c:19
        uart_write(SOC_DEBUG_UART, writebuf[i]);
800012a8:	d69ff0ef          	jal	ra,80001010 <uart_write.constprop.0.isra.0>
E:\VMshare\e203\zhengdian_E203\sdk\dhrystone\Debug/../hbird_sdk/SoC/hbirdv2/Common/Source/Stubs/write.c:16
        if (writebuf[i] == '\n') {
800012ac:	00294503          	lbu	a0,2(s2)
800012b0:	08950463          	beq	a0,s1,80001338 <_write+0x1c8>
E:\VMshare\e203\zhengdian_E203\sdk\dhrystone\Debug/../hbird_sdk/SoC/hbirdv2/Common/Source/Stubs/write.c:19
        uart_write(SOC_DEBUG_UART, writebuf[i]);
800012b4:	d5dff0ef          	jal	ra,80001010 <uart_write.constprop.0.isra.0>
E:\VMshare\e203\zhengdian_E203\sdk\dhrystone\Debug/../hbird_sdk/SoC/hbirdv2/Common/Source/Stubs/write.c:16
        if (writebuf[i] == '\n') {
800012b8:	00394503          	lbu	a0,3(s2)
800012bc:	08950a63          	beq	a0,s1,80001350 <_write+0x1e0>
E:\VMshare\e203\zhengdian_E203\sdk\dhrystone\Debug/../hbird_sdk/SoC/hbirdv2/Common/Source/Stubs/write.c:19
        uart_write(SOC_DEBUG_UART, writebuf[i]);
800012c0:	d51ff0ef          	jal	ra,80001010 <uart_write.constprop.0.isra.0>
E:\VMshare\e203\zhengdian_E203\sdk\dhrystone\Debug/../hbird_sdk/SoC/hbirdv2/Common/Source/Stubs/write.c:16
        if (writebuf[i] == '\n') {
800012c4:	00494503          	lbu	a0,4(s2)
800012c8:	0a950063          	beq	a0,s1,80001368 <_write+0x1f8>
E:\VMshare\e203\zhengdian_E203\sdk\dhrystone\Debug/../hbird_sdk/SoC/hbirdv2/Common/Source/Stubs/write.c:19
        uart_write(SOC_DEBUG_UART, writebuf[i]);
800012cc:	d45ff0ef          	jal	ra,80001010 <uart_write.constprop.0.isra.0>
E:\VMshare\e203\zhengdian_E203\sdk\dhrystone\Debug/../hbird_sdk/SoC/hbirdv2/Common/Source/Stubs/write.c:16
        if (writebuf[i] == '\n') {
800012d0:	00594503          	lbu	a0,5(s2)
800012d4:	0a950663          	beq	a0,s1,80001380 <_write+0x210>
E:\VMshare\e203\zhengdian_E203\sdk\dhrystone\Debug/../hbird_sdk/SoC/hbirdv2/Common/Source/Stubs/write.c:19
        uart_write(SOC_DEBUG_UART, writebuf[i]);
800012d8:	d39ff0ef          	jal	ra,80001010 <uart_write.constprop.0.isra.0>
E:\VMshare\e203\zhengdian_E203\sdk\dhrystone\Debug/../hbird_sdk/SoC/hbirdv2/Common/Source/Stubs/write.c:16
        if (writebuf[i] == '\n') {
800012dc:	00694503          	lbu	a0,6(s2)
800012e0:	0a950c63          	beq	a0,s1,80001398 <_write+0x228>
E:\VMshare\e203\zhengdian_E203\sdk\dhrystone\Debug/../hbird_sdk/SoC/hbirdv2/Common/Source/Stubs/write.c:15
    for (size_t i = 0; i < len; i++) {
800012e4:	00790413          	addi	s0,s2,7
E:\VMshare\e203\zhengdian_E203\sdk\dhrystone\Debug/../hbird_sdk/SoC/hbirdv2/Common/Source/Stubs/write.c:19
        uart_write(SOC_DEBUG_UART, writebuf[i]);
800012e8:	d29ff0ef          	jal	ra,80001010 <uart_write.constprop.0.isra.0>
E:\VMshare\e203\zhengdian_E203\sdk\dhrystone\Debug/../hbird_sdk/SoC/hbirdv2/Common/Source/Stubs/write.c:15
    for (size_t i = 0; i < len; i++) {
800012ec:	f74408e3          	beq	s0,s4,8000125c <_write+0xec>
E:\VMshare\e203\zhengdian_E203\sdk\dhrystone\Debug/../hbird_sdk/SoC/hbirdv2/Common/Source/Stubs/write.c:16
        if (writebuf[i] == '\n') {
800012f0:	00044503          	lbu	a0,0(s0)
800012f4:	f89506e3          	beq	a0,s1,80001280 <_write+0x110>
E:\VMshare\e203\zhengdian_E203\sdk\dhrystone\Debug/../hbird_sdk/SoC/hbirdv2/Common/Source/Stubs/write.c:19
        uart_write(SOC_DEBUG_UART, writebuf[i]);
800012f8:	d19ff0ef          	jal	ra,80001010 <uart_write.constprop.0.isra.0>
E:\VMshare\e203\zhengdian_E203\sdk\dhrystone\Debug/../hbird_sdk/SoC/hbirdv2/Common/Source/Stubs/write.c:16
        if (writebuf[i] == '\n') {
800012fc:	00144503          	lbu	a0,1(s0)
E:\VMshare\e203\zhengdian_E203\sdk\dhrystone\Debug/../hbird_sdk/SoC/hbirdv2/Common/Source/Stubs/write.c:15
    for (size_t i = 0; i < len; i++) {
80001300:	00140913          	addi	s2,s0,1
E:\VMshare\e203\zhengdian_E203\sdk\dhrystone\Debug/../hbird_sdk/SoC/hbirdv2/Common/Source/Stubs/write.c:16
        if (writebuf[i] == '\n') {
80001304:	f8951ce3          	bne	a0,s1,8000129c <_write+0x12c>
E:\VMshare\e203\zhengdian_E203\sdk\dhrystone\Debug/../hbird_sdk/SoC/hbirdv2/Common/Source/Stubs/write.c:17
            uart_write(SOC_DEBUG_UART, '\r');
80001308:	00d00513          	li	a0,13
8000130c:	d05ff0ef          	jal	ra,80001010 <uart_write.constprop.0.isra.0>
E:\VMshare\e203\zhengdian_E203\sdk\dhrystone\Debug/../hbird_sdk/SoC/hbirdv2/Common/Source/Stubs/write.c:19
        uart_write(SOC_DEBUG_UART, writebuf[i]);
80001310:	00144503          	lbu	a0,1(s0)
80001314:	cfdff0ef          	jal	ra,80001010 <uart_write.constprop.0.isra.0>
E:\VMshare\e203\zhengdian_E203\sdk\dhrystone\Debug/../hbird_sdk/SoC/hbirdv2/Common/Source/Stubs/write.c:16
        if (writebuf[i] == '\n') {
80001318:	00194503          	lbu	a0,1(s2)
8000131c:	f89516e3          	bne	a0,s1,800012a8 <_write+0x138>
E:\VMshare\e203\zhengdian_E203\sdk\dhrystone\Debug/../hbird_sdk/SoC/hbirdv2/Common/Source/Stubs/write.c:17
            uart_write(SOC_DEBUG_UART, '\r');
80001320:	00d00513          	li	a0,13
80001324:	cedff0ef          	jal	ra,80001010 <uart_write.constprop.0.isra.0>
E:\VMshare\e203\zhengdian_E203\sdk\dhrystone\Debug/../hbird_sdk/SoC/hbirdv2/Common/Source/Stubs/write.c:19
        uart_write(SOC_DEBUG_UART, writebuf[i]);
80001328:	00194503          	lbu	a0,1(s2)
8000132c:	ce5ff0ef          	jal	ra,80001010 <uart_write.constprop.0.isra.0>
E:\VMshare\e203\zhengdian_E203\sdk\dhrystone\Debug/../hbird_sdk/SoC/hbirdv2/Common/Source/Stubs/write.c:16
        if (writebuf[i] == '\n') {
80001330:	00294503          	lbu	a0,2(s2)
80001334:	f89510e3          	bne	a0,s1,800012b4 <_write+0x144>
E:\VMshare\e203\zhengdian_E203\sdk\dhrystone\Debug/../hbird_sdk/SoC/hbirdv2/Common/Source/Stubs/write.c:17
            uart_write(SOC_DEBUG_UART, '\r');
80001338:	00d00513          	li	a0,13
8000133c:	cd5ff0ef          	jal	ra,80001010 <uart_write.constprop.0.isra.0>
E:\VMshare\e203\zhengdian_E203\sdk\dhrystone\Debug/../hbird_sdk/SoC/hbirdv2/Common/Source/Stubs/write.c:19
        uart_write(SOC_DEBUG_UART, writebuf[i]);
80001340:	00294503          	lbu	a0,2(s2)
80001344:	ccdff0ef          	jal	ra,80001010 <uart_write.constprop.0.isra.0>
E:\VMshare\e203\zhengdian_E203\sdk\dhrystone\Debug/../hbird_sdk/SoC/hbirdv2/Common/Source/Stubs/write.c:16
        if (writebuf[i] == '\n') {
80001348:	00394503          	lbu	a0,3(s2)
8000134c:	f6951ae3          	bne	a0,s1,800012c0 <_write+0x150>
E:\VMshare\e203\zhengdian_E203\sdk\dhrystone\Debug/../hbird_sdk/SoC/hbirdv2/Common/Source/Stubs/write.c:17
            uart_write(SOC_DEBUG_UART, '\r');
80001350:	00d00513          	li	a0,13
80001354:	cbdff0ef          	jal	ra,80001010 <uart_write.constprop.0.isra.0>
E:\VMshare\e203\zhengdian_E203\sdk\dhrystone\Debug/../hbird_sdk/SoC/hbirdv2/Common/Source/Stubs/write.c:19
        uart_write(SOC_DEBUG_UART, writebuf[i]);
80001358:	00394503          	lbu	a0,3(s2)
8000135c:	cb5ff0ef          	jal	ra,80001010 <uart_write.constprop.0.isra.0>
E:\VMshare\e203\zhengdian_E203\sdk\dhrystone\Debug/../hbird_sdk/SoC/hbirdv2/Common/Source/Stubs/write.c:16
        if (writebuf[i] == '\n') {
80001360:	00494503          	lbu	a0,4(s2)
80001364:	f69514e3          	bne	a0,s1,800012cc <_write+0x15c>
E:\VMshare\e203\zhengdian_E203\sdk\dhrystone\Debug/../hbird_sdk/SoC/hbirdv2/Common/Source/Stubs/write.c:17
            uart_write(SOC_DEBUG_UART, '\r');
80001368:	00d00513          	li	a0,13
8000136c:	ca5ff0ef          	jal	ra,80001010 <uart_write.constprop.0.isra.0>
E:\VMshare\e203\zhengdian_E203\sdk\dhrystone\Debug/../hbird_sdk/SoC/hbirdv2/Common/Source/Stubs/write.c:19
        uart_write(SOC_DEBUG_UART, writebuf[i]);
80001370:	00494503          	lbu	a0,4(s2)
80001374:	c9dff0ef          	jal	ra,80001010 <uart_write.constprop.0.isra.0>
E:\VMshare\e203\zhengdian_E203\sdk\dhrystone\Debug/../hbird_sdk/SoC/hbirdv2/Common/Source/Stubs/write.c:16
        if (writebuf[i] == '\n') {
80001378:	00594503          	lbu	a0,5(s2)
8000137c:	f4951ee3          	bne	a0,s1,800012d8 <_write+0x168>
E:\VMshare\e203\zhengdian_E203\sdk\dhrystone\Debug/../hbird_sdk/SoC/hbirdv2/Common/Source/Stubs/write.c:17
            uart_write(SOC_DEBUG_UART, '\r');
80001380:	00d00513          	li	a0,13
80001384:	c8dff0ef          	jal	ra,80001010 <uart_write.constprop.0.isra.0>
E:\VMshare\e203\zhengdian_E203\sdk\dhrystone\Debug/../hbird_sdk/SoC/hbirdv2/Common/Source/Stubs/write.c:19
        uart_write(SOC_DEBUG_UART, writebuf[i]);
80001388:	00594503          	lbu	a0,5(s2)
8000138c:	c85ff0ef          	jal	ra,80001010 <uart_write.constprop.0.isra.0>
E:\VMshare\e203\zhengdian_E203\sdk\dhrystone\Debug/../hbird_sdk/SoC/hbirdv2/Common/Source/Stubs/write.c:16
        if (writebuf[i] == '\n') {
80001390:	00694503          	lbu	a0,6(s2)
80001394:	f49518e3          	bne	a0,s1,800012e4 <_write+0x174>
E:\VMshare\e203\zhengdian_E203\sdk\dhrystone\Debug/../hbird_sdk/SoC/hbirdv2/Common/Source/Stubs/write.c:17
            uart_write(SOC_DEBUG_UART, '\r');
80001398:	00d00513          	li	a0,13
8000139c:	c75ff0ef          	jal	ra,80001010 <uart_write.constprop.0.isra.0>
E:\VMshare\e203\zhengdian_E203\sdk\dhrystone\Debug/../hbird_sdk/SoC/hbirdv2/Common/Source/Stubs/write.c:19
        uart_write(SOC_DEBUG_UART, writebuf[i]);
800013a0:	00694503          	lbu	a0,6(s2)
800013a4:	f41ff06f          	j	800012e4 <_write+0x174>
E:\VMshare\e203\zhengdian_E203\sdk\dhrystone\Debug/../hbird_sdk/SoC/hbirdv2/Common/Source/Stubs/write.c:17
            uart_write(SOC_DEBUG_UART, '\r');
800013a8:	00d00513          	li	a0,13
800013ac:	c65ff0ef          	jal	ra,80001010 <uart_write.constprop.0.isra.0>
E:\VMshare\e203\zhengdian_E203\sdk\dhrystone\Debug/../hbird_sdk/SoC/hbirdv2/Common/Source/Stubs/write.c:19
        uart_write(SOC_DEBUG_UART, writebuf[i]);
800013b0:	00044503          	lbu	a0,0(s0)
800013b4:	e7dff06f          	j	80001230 <_write+0xc0>
E:\VMshare\e203\zhengdian_E203\sdk\dhrystone\Debug/../hbird_sdk/SoC/hbirdv2/Common/Source/Stubs/write.c:17
            uart_write(SOC_DEBUG_UART, '\r');
800013b8:	00d00513          	li	a0,13
800013bc:	c55ff0ef          	jal	ra,80001010 <uart_write.constprop.0.isra.0>
E:\VMshare\e203\zhengdian_E203\sdk\dhrystone\Debug/../hbird_sdk/SoC/hbirdv2/Common/Source/Stubs/write.c:19
        uart_write(SOC_DEBUG_UART, writebuf[i]);
800013c0:	00044503          	lbu	a0,0(s0)
800013c4:	e8dff06f          	j	80001250 <_write+0xe0>
E:\VMshare\e203\zhengdian_E203\sdk\dhrystone\Debug/../hbird_sdk/SoC/hbirdv2/Common/Source/Stubs/write.c:17
            uart_write(SOC_DEBUG_UART, '\r');
800013c8:	00d00513          	li	a0,13
800013cc:	c45ff0ef          	jal	ra,80001010 <uart_write.constprop.0.isra.0>
E:\VMshare\e203\zhengdian_E203\sdk\dhrystone\Debug/../hbird_sdk/SoC/hbirdv2/Common/Source/Stubs/write.c:19
        uart_write(SOC_DEBUG_UART, writebuf[i]);
800013d0:	00044503          	lbu	a0,0(s0)
800013d4:	e6dff06f          	j	80001240 <_write+0xd0>
E:\VMshare\e203\zhengdian_E203\sdk\dhrystone\Debug/../hbird_sdk/SoC/hbirdv2/Common/Source/Stubs/write.c:17
            uart_write(SOC_DEBUG_UART, '\r');
800013d8:	00d00513          	li	a0,13
800013dc:	c35ff0ef          	jal	ra,80001010 <uart_write.constprop.0.isra.0>
E:\VMshare\e203\zhengdian_E203\sdk\dhrystone\Debug/../hbird_sdk/SoC/hbirdv2/Common/Source/Stubs/write.c:19
        uart_write(SOC_DEBUG_UART, writebuf[i]);
800013e0:	00044503          	lbu	a0,0(s0)
800013e4:	e3dff06f          	j	80001220 <_write+0xb0>
E:\VMshare\e203\zhengdian_E203\sdk\dhrystone\Debug/../hbird_sdk/SoC/hbirdv2/Common/Source/Stubs/write.c:17
            uart_write(SOC_DEBUG_UART, '\r');
800013e8:	00d00513          	li	a0,13
800013ec:	c25ff0ef          	jal	ra,80001010 <uart_write.constprop.0.isra.0>
E:\VMshare\e203\zhengdian_E203\sdk\dhrystone\Debug/../hbird_sdk/SoC/hbirdv2/Common/Source/Stubs/write.c:19
        uart_write(SOC_DEBUG_UART, writebuf[i]);
800013f0:	00044503          	lbu	a0,0(s0)
800013f4:	e1dff06f          	j	80001210 <_write+0xa0>
E:\VMshare\e203\zhengdian_E203\sdk\dhrystone\Debug/../hbird_sdk/SoC/hbirdv2/Common/Source/Stubs/write.c:17
            uart_write(SOC_DEBUG_UART, '\r');
800013f8:	00d00513          	li	a0,13
800013fc:	c15ff0ef          	jal	ra,80001010 <uart_write.constprop.0.isra.0>
E:\VMshare\e203\zhengdian_E203\sdk\dhrystone\Debug/../hbird_sdk/SoC/hbirdv2/Common/Source/Stubs/write.c:19
        uart_write(SOC_DEBUG_UART, writebuf[i]);
80001400:	00044503          	lbu	a0,0(s0)
80001404:	dfdff06f          	j	80001200 <_write+0x90>
E:\VMshare\e203\zhengdian_E203\sdk\dhrystone\Debug/../hbird_sdk/SoC/hbirdv2/Common/Source/Stubs/write.c:17
            uart_write(SOC_DEBUG_UART, '\r');
80001408:	00d00513          	li	a0,13
8000140c:	c05ff0ef          	jal	ra,80001010 <uart_write.constprop.0.isra.0>
E:\VMshare\e203\zhengdian_E203\sdk\dhrystone\Debug/../hbird_sdk/SoC/hbirdv2/Common/Source/Stubs/write.c:19
        uart_write(SOC_DEBUG_UART, writebuf[i]);
80001410:	00094503          	lbu	a0,0(s2)
80001414:	dddff06f          	j	800011f0 <_write+0x80>
E:\VMshare\e203\zhengdian_E203\sdk\dhrystone\Debug/../hbird_sdk/SoC/hbirdv2/Common/Source/Stubs/write.c:11
        return -1;
80001418:	fff00513          	li	a0,-1
8000141c:	e45ff06f          	j	80001260 <_write+0xf0>

80001420 <SystemInit>:
SystemInit():
E:\VMshare\e203\zhengdian_E203\sdk\dhrystone\Debug/../hbird_sdk/SoC/hbirdv2/Common/Source/system_hbirdv2.c:125
    SystemCoreClock = SYSTEM_CLOCK;
80001420:	04c4b737          	lui	a4,0x4c4b
80001424:	0ffff797          	auipc	a5,0xffff
80001428:	40070293          	addi	t0,a4,1024 # 4c4b400 <dhry_stubs.c.aa5f359a+0x4c47825>
8000142c:	da57a623          	sw	t0,-596(a5) # 900001d0 <SystemCoreClock>
E:\VMshare\e203\zhengdian_E203\sdk\dhrystone\Debug/../hbird_sdk/SoC/hbirdv2/Common/Source/system_hbirdv2.c:126
}
80001430:	00008067          	ret

80001434 <core_trap_handler>:
core_trap_handler():
E:\VMshare\e203\zhengdian_E203\sdk\dhrystone\Debug/../hbird_sdk/SoC/hbirdv2/Common/Source/system_hbirdv2.c:323
    if (mcause & MCAUSE_INTERRUPT) {
80001434:	04055863          	bgez	a0,80001484 <core_trap_handler+0x50>
E:\VMshare\e203\zhengdian_E203\sdk\dhrystone\Debug/../hbird_sdk/SoC/hbirdv2/Common/Source/system_hbirdv2.c:322
{
80001438:	ff010113          	addi	sp,sp,-16
8000143c:	00112623          	sw	ra,12(sp)
E:\VMshare\e203\zhengdian_E203\sdk\dhrystone\Debug/../hbird_sdk/SoC/hbirdv2/Common/Source/system_hbirdv2.c:325
        uint32_t irqn = (uint32_t)(mcause & 0X00000fff);
80001440:	01451093          	slli	ra,a0,0x14
E:\VMshare\e203\zhengdian_E203\sdk\dhrystone\Debug/../hbird_sdk/SoC/hbirdv2/Common/Source/system_hbirdv2.c:322
{
80001444:	00812423          	sw	s0,8(sp)
E:\VMshare\e203\zhengdian_E203\sdk\dhrystone\Debug/../hbird_sdk/SoC/hbirdv2/Common/Source/system_hbirdv2.c:325
        uint32_t irqn = (uint32_t)(mcause & 0X00000fff);
80001448:	0140d293          	srli	t0,ra,0x14
E:\VMshare\e203\zhengdian_E203\sdk\dhrystone\Debug/../hbird_sdk/SoC/hbirdv2/Common/Source/system_hbirdv2.c:326
        if (irqn == IRQ_M_EXT) {
8000144c:	00b00713          	li	a4,11
80001450:	02e28c63          	beq	t0,a4,80001488 <core_trap_handler+0x54>
E:\VMshare\e203\zhengdian_E203\sdk\dhrystone\Debug/../hbird_sdk/SoC/hbirdv2/Common/Source/system_hbirdv2.c:338
            int_handler = (INT_HANDLER)(SystemCoreInterruptHandlers[irqn]);
80001454:	10001317          	auipc	t1,0x10001
80001458:	00229393          	slli	t2,t0,0x2
8000145c:	60830413          	addi	s0,t1,1544 # 90002a5c <SystemCoreInterruptHandlers>
80001460:	00740633          	add	a2,s0,t2
80001464:	00062683          	lw	a3,0(a2)
E:\VMshare\e203\zhengdian_E203\sdk\dhrystone\Debug/../hbird_sdk/SoC/hbirdv2/Common/Source/system_hbirdv2.c:339
            if (int_handler != NULL) {
80001468:	00068463          	beqz	a3,80001470 <core_trap_handler+0x3c>
E:\VMshare\e203\zhengdian_E203\sdk\dhrystone\Debug/../hbird_sdk/SoC/hbirdv2/Common/Source/system_hbirdv2.c:340
                int_handler(mcause, sp);
8000146c:	000680e7          	jalr	a3 # 30000 <dhry_stubs.c.aa5f359a+0x2c425>
E:\VMshare\e203\zhengdian_E203\sdk\dhrystone\Debug/../hbird_sdk/SoC/hbirdv2/Common/Source/system_hbirdv2.c:347
}
80001470:	00c12083          	lw	ra,12(sp)
80001474:	00812403          	lw	s0,8(sp)
80001478:	00000513          	li	a0,0
8000147c:	01010113          	addi	sp,sp,16
80001480:	00008067          	ret
E:\VMshare\e203\zhengdian_E203\sdk\dhrystone\Debug/../hbird_sdk/SoC/hbirdv2/Common/Source/system_hbirdv2.c:345
        return core_exception_handler(mcause, sp);
80001484:	de8ff06f          	j	80000a6c <core_exception_handler>
PLIC_ClaimInterrupt():
E:\VMshare\e203\zhengdian_E203\sdk\dhrystone\hbird_sdk\NMSIS\Core\Include/core_feature_plic.h:273
 * \sa
 * - \ref PLIC_CompleteInterrupt
 */
__STATIC_FORCEINLINE uint32_t PLIC_ClaimInterrupt(void)
{
    uint32_t hartid = __RV_CSR_READ(CSR_MHARTID);
80001488:	f1402873          	csrr	a6,mhartid
E:\VMshare\e203\zhengdian_E203\sdk\dhrystone\hbird_sdk\NMSIS\Core\Include/core_feature_plic.h:274
    volatile uint32_t *claim_reg = (uint32_t *)((PLIC_BASE) + PLIC_CLAIM_OFFSET + \
8000148c:	0c200e37          	lui	t3,0xc200
E:\VMshare\e203\zhengdian_E203\sdk\dhrystone\hbird_sdk\NMSIS\Core\Include/core_feature_plic.h:275
                    + (hartid << PLIC_CLAIM_SHIFT_PER_TARGET));
80001490:	00c81893          	slli	a7,a6,0xc
E:\VMshare\e203\zhengdian_E203\sdk\dhrystone\hbird_sdk\NMSIS\Core\Include/core_feature_plic.h:274
    volatile uint32_t *claim_reg = (uint32_t *)((PLIC_BASE) + PLIC_CLAIM_OFFSET + \
80001494:	004e0e93          	addi	t4,t3,4 # c200004 <dhry_stubs.c.aa5f359a+0xc1fc429>
80001498:	01d88f33          	add	t5,a7,t4
E:\VMshare\e203\zhengdian_E203\sdk\dhrystone\hbird_sdk\NMSIS\Core\Include/core_feature_plic.h:277

    return (*claim_reg);
8000149c:	000f2403          	lw	s0,0(t5)
core_trap_handler():
E:\VMshare\e203\zhengdian_E203\sdk\dhrystone\Debug/../hbird_sdk/SoC/hbirdv2/Common/Source/system_hbirdv2.c:329
            if (irqn < __PLIC_INTNUM) {
800014a0:	01000f93          	li	t6,16
800014a4:	fc8fe6e3          	bltu	t6,s0,80001470 <core_trap_handler+0x3c>
E:\VMshare\e203\zhengdian_E203\sdk\dhrystone\Debug/../hbird_sdk/SoC/hbirdv2/Common/Source/system_hbirdv2.c:330
                int_handler = (INT_HANDLER)(SystemExtInterruptHandlers[irqn]);
800014a8:	10001097          	auipc	ra,0x10001
800014ac:	00241793          	slli	a5,s0,0x2
800014b0:	60808293          	addi	t0,ra,1544 # 90002ab0 <SystemExtInterruptHandlers>
800014b4:	00f28733          	add	a4,t0,a5
800014b8:	00072303          	lw	t1,0(a4)
E:\VMshare\e203\zhengdian_E203\sdk\dhrystone\Debug/../hbird_sdk/SoC/hbirdv2/Common/Source/system_hbirdv2.c:331
                if (int_handler != NULL) {
800014bc:	00030463          	beqz	t1,800014c4 <core_trap_handler+0x90>
E:\VMshare\e203\zhengdian_E203\sdk\dhrystone\Debug/../hbird_sdk/SoC/hbirdv2/Common/Source/system_hbirdv2.c:332
                    int_handler(mcause, sp);
800014c0:	000300e7          	jalr	t1
PLIC_CompleteInterrupt():
E:\VMshare\e203\zhengdian_E203\sdk\dhrystone\hbird_sdk\NMSIS\Core\Include/core_feature_plic.h:298
 * \sa
 * - \ref PLIC_ClaimInterrupt
 */
__STATIC_FORCEINLINE void PLIC_CompleteInterrupt(uint32_t source)
{
    uint32_t hartid = __RV_CSR_READ(CSR_MHARTID);
800014c4:	f1402573          	csrr	a0,mhartid
E:\VMshare\e203\zhengdian_E203\sdk\dhrystone\hbird_sdk\NMSIS\Core\Include/core_feature_plic.h:299
    volatile uint32_t *complete_reg = (uint32_t *)((PLIC_BASE) + PLIC_CLAIM_OFFSET + \
800014c8:	0c2003b7          	lui	t2,0xc200
E:\VMshare\e203\zhengdian_E203\sdk\dhrystone\hbird_sdk\NMSIS\Core\Include/core_feature_plic.h:300
                    + (hartid << PLIC_CLAIM_SHIFT_PER_TARGET));
800014cc:	00c51593          	slli	a1,a0,0xc
E:\VMshare\e203\zhengdian_E203\sdk\dhrystone\hbird_sdk\NMSIS\Core\Include/core_feature_plic.h:299
    volatile uint32_t *complete_reg = (uint32_t *)((PLIC_BASE) + PLIC_CLAIM_OFFSET + \
800014d0:	00438613          	addi	a2,t2,4 # c200004 <dhry_stubs.c.aa5f359a+0xc1fc429>
800014d4:	00c586b3          	add	a3,a1,a2
E:\VMshare\e203\zhengdian_E203\sdk\dhrystone\hbird_sdk\NMSIS\Core\Include/core_feature_plic.h:302

    *complete_reg = source;
800014d8:	0086a023          	sw	s0,0(a3)
800014dc:	f95ff06f          	j	80001470 <core_trap_handler+0x3c>

800014e0 <_premain_init>:
_premain_init():
E:\VMshare\e203\zhengdian_E203\sdk\dhrystone\Debug/../hbird_sdk/SoC/hbirdv2/Common/Source/system_hbirdv2.c:464
 * For RISC-V gnu toolchain, _init function might not be called
 * by __libc_init_array function, so we defined a new function
 * to do initialization
 */
void _premain_init(void)
{
800014e0:	ff010113          	addi	sp,sp,-16
800014e4:	00112623          	sw	ra,12(sp)
E:\VMshare\e203\zhengdian_E203\sdk\dhrystone\Debug/../hbird_sdk/SoC/hbirdv2/Common/Source/system_hbirdv2.c:466
    /* TODO: Add your own initialization code here, called before main */
    SystemCoreClock = get_cpu_freq();
800014e8:	c9cff0ef          	jal	ra,80000984 <get_cpu_freq>
800014ec:	0ffff797          	auipc	a5,0xffff
800014f0:	cea7a223          	sw	a0,-796(a5) # 900001d0 <SystemCoreClock>
E:\VMshare\e203\zhengdian_E203\sdk\dhrystone\Debug/../hbird_sdk/SoC/hbirdv2/Common/Source/system_hbirdv2.c:468
#if ! defined(SIMULATION_SPIKE) && ! defined(SIMULATION_XLSPIKE)
    gpio_iof_config(GPIOA, IOF_UART_MASK);
800014f4:	b35ff0ef          	jal	ra,80001028 <gpio_iof_config.constprop.0.isra.0>
E:\VMshare\e203\zhengdian_E203\sdk\dhrystone\Debug/../hbird_sdk/SoC/hbirdv2/Common/Source/system_hbirdv2.c:469
    uart_init(SOC_DEBUG_UART, 115200);
800014f8:	b49ff0ef          	jal	ra,80001040 <uart_init.constprop.0.isra.0>
E:\VMshare\e203\zhengdian_E203\sdk\dhrystone\Debug/../hbird_sdk/SoC/hbirdv2/Common/Source/system_hbirdv2.c:472
#endif
    /* Display banner after UART initialized */
    SystemBannerPrint();
800014fc:	a3dff0ef          	jal	ra,80000f38 <SystemBannerPrint>
E:\VMshare\e203\zhengdian_E203\sdk\dhrystone\Debug/../hbird_sdk/SoC/hbirdv2/Common/Source/system_hbirdv2.c:474
    /* Initialize exception default handlers */
    Exception_Init();
80001500:	ca4ff0ef          	jal	ra,800009a4 <Exception_Init>
E:\VMshare\e203\zhengdian_E203\sdk\dhrystone\Debug/../hbird_sdk/SoC/hbirdv2/Common/Source/system_hbirdv2.c:476
    /* Initialize Interrupt default handlers */
    Interrupt_Init();
80001504:	ce0ff0ef          	jal	ra,800009e4 <Interrupt_Init>
PLIC_DisableInterrupt():
E:\VMshare\e203\zhengdian_E203\sdk\dhrystone\hbird_sdk\NMSIS\Core\Include/core_feature_plic.h:191
    uint32_t hartid = __RV_CSR_READ(CSR_MHARTID);
80001508:	f14026f3          	csrr	a3,mhartid
E:\VMshare\e203\zhengdian_E203\sdk\dhrystone\hbird_sdk\NMSIS\Core\Include/core_feature_plic.h:193
                    (hartid << PLIC_ENABLE_SHIFT_PER_TARGET) + (source >> 5) * 4);
8000150c:	0c002737          	lui	a4,0xc002
80001510:	00769293          	slli	t0,a3,0x7
80001514:	00e28333          	add	t1,t0,a4
E:\VMshare\e203\zhengdian_E203\sdk\dhrystone\hbird_sdk\NMSIS\Core\Include/core_feature_plic.h:195
    uint32_t current = *enable_reg;
80001518:	00032603          	lw	a2,0(t1)
PLIC_SetPriority():
E:\VMshare\e203\zhengdian_E203\sdk\dhrystone\hbird_sdk\NMSIS\Core\Include/core_feature_plic.h:237
    *priority_reg = priority;
8000151c:	0c0003b7          	lui	t2,0xc000
PLIC_DisableInterrupt():
E:\VMshare\e203\zhengdian_E203\sdk\dhrystone\hbird_sdk\NMSIS\Core\Include/core_feature_plic.h:196
    current = current & (~(1<<(source&0x1F)));
80001520:	ffe67513          	andi	a0,a2,-2
E:\VMshare\e203\zhengdian_E203\sdk\dhrystone\hbird_sdk\NMSIS\Core\Include/core_feature_plic.h:197
    *enable_reg = current;
80001524:	00a32023          	sw	a0,0(t1)
PLIC_SetPriority():
E:\VMshare\e203\zhengdian_E203\sdk\dhrystone\hbird_sdk\NMSIS\Core\Include/core_feature_plic.h:237
    *priority_reg = priority;
80001528:	0003a023          	sw	zero,0(t2) # c000000 <dhry_stubs.c.aa5f359a+0xbffc425>
PLIC_DisableInterrupt():
E:\VMshare\e203\zhengdian_E203\sdk\dhrystone\hbird_sdk\NMSIS\Core\Include/core_feature_plic.h:191
    uint32_t hartid = __RV_CSR_READ(CSR_MHARTID);
8000152c:	f14025f3          	csrr	a1,mhartid
E:\VMshare\e203\zhengdian_E203\sdk\dhrystone\hbird_sdk\NMSIS\Core\Include/core_feature_plic.h:193
                    (hartid << PLIC_ENABLE_SHIFT_PER_TARGET) + (source >> 5) * 4);
80001530:	00759813          	slli	a6,a1,0x7
80001534:	00e808b3          	add	a7,a6,a4
E:\VMshare\e203\zhengdian_E203\sdk\dhrystone\hbird_sdk\NMSIS\Core\Include/core_feature_plic.h:195
    uint32_t current = *enable_reg;
80001538:	0008ae03          	lw	t3,0(a7)
E:\VMshare\e203\zhengdian_E203\sdk\dhrystone\hbird_sdk\NMSIS\Core\Include/core_feature_plic.h:196
    current = current & (~(1<<(source&0x1F)));
8000153c:	ffde7e93          	andi	t4,t3,-3
E:\VMshare\e203\zhengdian_E203\sdk\dhrystone\hbird_sdk\NMSIS\Core\Include/core_feature_plic.h:197
    *enable_reg = current;
80001540:	01d8a023          	sw	t4,0(a7)
PLIC_SetPriority():
E:\VMshare\e203\zhengdian_E203\sdk\dhrystone\hbird_sdk\NMSIS\Core\Include/core_feature_plic.h:237
    *priority_reg = priority;
80001544:	0003a223          	sw	zero,4(t2)
PLIC_DisableInterrupt():
E:\VMshare\e203\zhengdian_E203\sdk\dhrystone\hbird_sdk\NMSIS\Core\Include/core_feature_plic.h:191
    uint32_t hartid = __RV_CSR_READ(CSR_MHARTID);
80001548:	f1402f73          	csrr	t5,mhartid
E:\VMshare\e203\zhengdian_E203\sdk\dhrystone\hbird_sdk\NMSIS\Core\Include/core_feature_plic.h:193
                    (hartid << PLIC_ENABLE_SHIFT_PER_TARGET) + (source >> 5) * 4);
8000154c:	007f1f93          	slli	t6,t5,0x7
80001550:	00ef87b3          	add	a5,t6,a4
E:\VMshare\e203\zhengdian_E203\sdk\dhrystone\hbird_sdk\NMSIS\Core\Include/core_feature_plic.h:195
    uint32_t current = *enable_reg;
80001554:	0007a683          	lw	a3,0(a5)
E:\VMshare\e203\zhengdian_E203\sdk\dhrystone\hbird_sdk\NMSIS\Core\Include/core_feature_plic.h:196
    current = current & (~(1<<(source&0x1F)));
80001558:	ffb6f293          	andi	t0,a3,-5
E:\VMshare\e203\zhengdian_E203\sdk\dhrystone\hbird_sdk\NMSIS\Core\Include/core_feature_plic.h:197
    *enable_reg = current;
8000155c:	0057a023          	sw	t0,0(a5)
PLIC_SetPriority():
E:\VMshare\e203\zhengdian_E203\sdk\dhrystone\hbird_sdk\NMSIS\Core\Include/core_feature_plic.h:237
    *priority_reg = priority;
80001560:	0003a423          	sw	zero,8(t2)
PLIC_DisableInterrupt():
E:\VMshare\e203\zhengdian_E203\sdk\dhrystone\hbird_sdk\NMSIS\Core\Include/core_feature_plic.h:191
    uint32_t hartid = __RV_CSR_READ(CSR_MHARTID);
80001564:	f1402373          	csrr	t1,mhartid
E:\VMshare\e203\zhengdian_E203\sdk\dhrystone\hbird_sdk\NMSIS\Core\Include/core_feature_plic.h:193
                    (hartid << PLIC_ENABLE_SHIFT_PER_TARGET) + (source >> 5) * 4);
80001568:	00731613          	slli	a2,t1,0x7
8000156c:	00e60533          	add	a0,a2,a4
E:\VMshare\e203\zhengdian_E203\sdk\dhrystone\hbird_sdk\NMSIS\Core\Include/core_feature_plic.h:195
    uint32_t current = *enable_reg;
80001570:	00052583          	lw	a1,0(a0)
E:\VMshare\e203\zhengdian_E203\sdk\dhrystone\hbird_sdk\NMSIS\Core\Include/core_feature_plic.h:196
    current = current & (~(1<<(source&0x1F)));
80001574:	ff75f813          	andi	a6,a1,-9
E:\VMshare\e203\zhengdian_E203\sdk\dhrystone\hbird_sdk\NMSIS\Core\Include/core_feature_plic.h:197
    *enable_reg = current;
80001578:	01052023          	sw	a6,0(a0)
PLIC_SetPriority():
E:\VMshare\e203\zhengdian_E203\sdk\dhrystone\hbird_sdk\NMSIS\Core\Include/core_feature_plic.h:237
    *priority_reg = priority;
8000157c:	0003a623          	sw	zero,12(t2)
PLIC_DisableInterrupt():
E:\VMshare\e203\zhengdian_E203\sdk\dhrystone\hbird_sdk\NMSIS\Core\Include/core_feature_plic.h:191
    uint32_t hartid = __RV_CSR_READ(CSR_MHARTID);
80001580:	f14028f3          	csrr	a7,mhartid
E:\VMshare\e203\zhengdian_E203\sdk\dhrystone\hbird_sdk\NMSIS\Core\Include/core_feature_plic.h:193
                    (hartid << PLIC_ENABLE_SHIFT_PER_TARGET) + (source >> 5) * 4);
80001584:	00789e13          	slli	t3,a7,0x7
80001588:	00ee0eb3          	add	t4,t3,a4
E:\VMshare\e203\zhengdian_E203\sdk\dhrystone\hbird_sdk\NMSIS\Core\Include/core_feature_plic.h:195
    uint32_t current = *enable_reg;
8000158c:	000eaf03          	lw	t5,0(t4)
E:\VMshare\e203\zhengdian_E203\sdk\dhrystone\hbird_sdk\NMSIS\Core\Include/core_feature_plic.h:196
    current = current & (~(1<<(source&0x1F)));
80001590:	feff7f93          	andi	t6,t5,-17
E:\VMshare\e203\zhengdian_E203\sdk\dhrystone\hbird_sdk\NMSIS\Core\Include/core_feature_plic.h:197
    *enable_reg = current;
80001594:	01fea023          	sw	t6,0(t4)
PLIC_SetPriority():
E:\VMshare\e203\zhengdian_E203\sdk\dhrystone\hbird_sdk\NMSIS\Core\Include/core_feature_plic.h:237
    *priority_reg = priority;
80001598:	0003a823          	sw	zero,16(t2)
PLIC_DisableInterrupt():
E:\VMshare\e203\zhengdian_E203\sdk\dhrystone\hbird_sdk\NMSIS\Core\Include/core_feature_plic.h:191
    uint32_t hartid = __RV_CSR_READ(CSR_MHARTID);
8000159c:	f14027f3          	csrr	a5,mhartid
E:\VMshare\e203\zhengdian_E203\sdk\dhrystone\hbird_sdk\NMSIS\Core\Include/core_feature_plic.h:193
                    (hartid << PLIC_ENABLE_SHIFT_PER_TARGET) + (source >> 5) * 4);
800015a0:	00779693          	slli	a3,a5,0x7
800015a4:	00e682b3          	add	t0,a3,a4
E:\VMshare\e203\zhengdian_E203\sdk\dhrystone\hbird_sdk\NMSIS\Core\Include/core_feature_plic.h:195
    uint32_t current = *enable_reg;
800015a8:	0002a303          	lw	t1,0(t0)
E:\VMshare\e203\zhengdian_E203\sdk\dhrystone\hbird_sdk\NMSIS\Core\Include/core_feature_plic.h:196
    current = current & (~(1<<(source&0x1F)));
800015ac:	fdf37613          	andi	a2,t1,-33
E:\VMshare\e203\zhengdian_E203\sdk\dhrystone\hbird_sdk\NMSIS\Core\Include/core_feature_plic.h:197
    *enable_reg = current;
800015b0:	00c2a023          	sw	a2,0(t0)
PLIC_SetPriority():
E:\VMshare\e203\zhengdian_E203\sdk\dhrystone\hbird_sdk\NMSIS\Core\Include/core_feature_plic.h:237
    *priority_reg = priority;
800015b4:	0003aa23          	sw	zero,20(t2)
PLIC_DisableInterrupt():
E:\VMshare\e203\zhengdian_E203\sdk\dhrystone\hbird_sdk\NMSIS\Core\Include/core_feature_plic.h:191
    uint32_t hartid = __RV_CSR_READ(CSR_MHARTID);
800015b8:	f1402573          	csrr	a0,mhartid
E:\VMshare\e203\zhengdian_E203\sdk\dhrystone\hbird_sdk\NMSIS\Core\Include/core_feature_plic.h:193
                    (hartid << PLIC_ENABLE_SHIFT_PER_TARGET) + (source >> 5) * 4);
800015bc:	00751593          	slli	a1,a0,0x7
800015c0:	00e58833          	add	a6,a1,a4
E:\VMshare\e203\zhengdian_E203\sdk\dhrystone\hbird_sdk\NMSIS\Core\Include/core_feature_plic.h:195
    uint32_t current = *enable_reg;
800015c4:	00082883          	lw	a7,0(a6)
E:\VMshare\e203\zhengdian_E203\sdk\dhrystone\hbird_sdk\NMSIS\Core\Include/core_feature_plic.h:196
    current = current & (~(1<<(source&0x1F)));
800015c8:	fbf8fe13          	andi	t3,a7,-65
E:\VMshare\e203\zhengdian_E203\sdk\dhrystone\hbird_sdk\NMSIS\Core\Include/core_feature_plic.h:197
    *enable_reg = current;
800015cc:	01c82023          	sw	t3,0(a6)
PLIC_SetPriority():
E:\VMshare\e203\zhengdian_E203\sdk\dhrystone\hbird_sdk\NMSIS\Core\Include/core_feature_plic.h:237
    *priority_reg = priority;
800015d0:	0003ac23          	sw	zero,24(t2)
PLIC_DisableInterrupt():
E:\VMshare\e203\zhengdian_E203\sdk\dhrystone\hbird_sdk\NMSIS\Core\Include/core_feature_plic.h:191
    uint32_t hartid = __RV_CSR_READ(CSR_MHARTID);
800015d4:	f1402ef3          	csrr	t4,mhartid
E:\VMshare\e203\zhengdian_E203\sdk\dhrystone\hbird_sdk\NMSIS\Core\Include/core_feature_plic.h:193
                    (hartid << PLIC_ENABLE_SHIFT_PER_TARGET) + (source >> 5) * 4);
800015d8:	007e9f13          	slli	t5,t4,0x7
800015dc:	00ef0fb3          	add	t6,t5,a4
E:\VMshare\e203\zhengdian_E203\sdk\dhrystone\hbird_sdk\NMSIS\Core\Include/core_feature_plic.h:195
    uint32_t current = *enable_reg;
800015e0:	000fa783          	lw	a5,0(t6)
E:\VMshare\e203\zhengdian_E203\sdk\dhrystone\hbird_sdk\NMSIS\Core\Include/core_feature_plic.h:196
    current = current & (~(1<<(source&0x1F)));
800015e4:	f7f7f693          	andi	a3,a5,-129
E:\VMshare\e203\zhengdian_E203\sdk\dhrystone\hbird_sdk\NMSIS\Core\Include/core_feature_plic.h:197
    *enable_reg = current;
800015e8:	00dfa023          	sw	a3,0(t6)
PLIC_SetPriority():
E:\VMshare\e203\zhengdian_E203\sdk\dhrystone\hbird_sdk\NMSIS\Core\Include/core_feature_plic.h:237
    *priority_reg = priority;
800015ec:	0003ae23          	sw	zero,28(t2)
PLIC_DisableInterrupt():
E:\VMshare\e203\zhengdian_E203\sdk\dhrystone\hbird_sdk\NMSIS\Core\Include/core_feature_plic.h:191
    uint32_t hartid = __RV_CSR_READ(CSR_MHARTID);
800015f0:	f14022f3          	csrr	t0,mhartid
E:\VMshare\e203\zhengdian_E203\sdk\dhrystone\hbird_sdk\NMSIS\Core\Include/core_feature_plic.h:193
                    (hartid << PLIC_ENABLE_SHIFT_PER_TARGET) + (source >> 5) * 4);
800015f4:	00729313          	slli	t1,t0,0x7
800015f8:	00e30533          	add	a0,t1,a4
E:\VMshare\e203\zhengdian_E203\sdk\dhrystone\hbird_sdk\NMSIS\Core\Include/core_feature_plic.h:195
    uint32_t current = *enable_reg;
800015fc:	00052603          	lw	a2,0(a0)
E:\VMshare\e203\zhengdian_E203\sdk\dhrystone\hbird_sdk\NMSIS\Core\Include/core_feature_plic.h:196
    current = current & (~(1<<(source&0x1F)));
80001600:	eff67593          	andi	a1,a2,-257
E:\VMshare\e203\zhengdian_E203\sdk\dhrystone\hbird_sdk\NMSIS\Core\Include/core_feature_plic.h:197
    *enable_reg = current;
80001604:	00b52023          	sw	a1,0(a0)
PLIC_SetPriority():
E:\VMshare\e203\zhengdian_E203\sdk\dhrystone\hbird_sdk\NMSIS\Core\Include/core_feature_plic.h:237
    *priority_reg = priority;
80001608:	0203a023          	sw	zero,32(t2)
PLIC_DisableInterrupt():
E:\VMshare\e203\zhengdian_E203\sdk\dhrystone\hbird_sdk\NMSIS\Core\Include/core_feature_plic.h:191
    uint32_t hartid = __RV_CSR_READ(CSR_MHARTID);
8000160c:	f1402873          	csrr	a6,mhartid
E:\VMshare\e203\zhengdian_E203\sdk\dhrystone\hbird_sdk\NMSIS\Core\Include/core_feature_plic.h:193
                    (hartid << PLIC_ENABLE_SHIFT_PER_TARGET) + (source >> 5) * 4);
80001610:	00781893          	slli	a7,a6,0x7
80001614:	00e88e33          	add	t3,a7,a4
E:\VMshare\e203\zhengdian_E203\sdk\dhrystone\hbird_sdk\NMSIS\Core\Include/core_feature_plic.h:195
    uint32_t current = *enable_reg;
80001618:	000e2e83          	lw	t4,0(t3)
E:\VMshare\e203\zhengdian_E203\sdk\dhrystone\hbird_sdk\NMSIS\Core\Include/core_feature_plic.h:196
    current = current & (~(1<<(source&0x1F)));
8000161c:	dffeff13          	andi	t5,t4,-513
E:\VMshare\e203\zhengdian_E203\sdk\dhrystone\hbird_sdk\NMSIS\Core\Include/core_feature_plic.h:197
    *enable_reg = current;
80001620:	01ee2023          	sw	t5,0(t3)
PLIC_SetPriority():
E:\VMshare\e203\zhengdian_E203\sdk\dhrystone\hbird_sdk\NMSIS\Core\Include/core_feature_plic.h:237
    *priority_reg = priority;
80001624:	0203a223          	sw	zero,36(t2)
PLIC_DisableInterrupt():
E:\VMshare\e203\zhengdian_E203\sdk\dhrystone\hbird_sdk\NMSIS\Core\Include/core_feature_plic.h:191
    uint32_t hartid = __RV_CSR_READ(CSR_MHARTID);
80001628:	f1402ff3          	csrr	t6,mhartid
E:\VMshare\e203\zhengdian_E203\sdk\dhrystone\hbird_sdk\NMSIS\Core\Include/core_feature_plic.h:193
                    (hartid << PLIC_ENABLE_SHIFT_PER_TARGET) + (source >> 5) * 4);
8000162c:	007f9793          	slli	a5,t6,0x7
80001630:	00e786b3          	add	a3,a5,a4
E:\VMshare\e203\zhengdian_E203\sdk\dhrystone\hbird_sdk\NMSIS\Core\Include/core_feature_plic.h:195
    uint32_t current = *enable_reg;
80001634:	0006a283          	lw	t0,0(a3)
E:\VMshare\e203\zhengdian_E203\sdk\dhrystone\hbird_sdk\NMSIS\Core\Include/core_feature_plic.h:196
    current = current & (~(1<<(source&0x1F)));
80001638:	bff2f313          	andi	t1,t0,-1025
E:\VMshare\e203\zhengdian_E203\sdk\dhrystone\hbird_sdk\NMSIS\Core\Include/core_feature_plic.h:197
    *enable_reg = current;
8000163c:	0066a023          	sw	t1,0(a3)
PLIC_SetPriority():
E:\VMshare\e203\zhengdian_E203\sdk\dhrystone\hbird_sdk\NMSIS\Core\Include/core_feature_plic.h:237
    *priority_reg = priority;
80001640:	0203a423          	sw	zero,40(t2)
PLIC_DisableInterrupt():
E:\VMshare\e203\zhengdian_E203\sdk\dhrystone\hbird_sdk\NMSIS\Core\Include/core_feature_plic.h:191
    uint32_t hartid = __RV_CSR_READ(CSR_MHARTID);
80001644:	f1402573          	csrr	a0,mhartid
E:\VMshare\e203\zhengdian_E203\sdk\dhrystone\hbird_sdk\NMSIS\Core\Include/core_feature_plic.h:193
                    (hartid << PLIC_ENABLE_SHIFT_PER_TARGET) + (source >> 5) * 4);
80001648:	00751613          	slli	a2,a0,0x7
8000164c:	00e60833          	add	a6,a2,a4
E:\VMshare\e203\zhengdian_E203\sdk\dhrystone\hbird_sdk\NMSIS\Core\Include/core_feature_plic.h:195
    uint32_t current = *enable_reg;
80001650:	00082583          	lw	a1,0(a6)
E:\VMshare\e203\zhengdian_E203\sdk\dhrystone\hbird_sdk\NMSIS\Core\Include/core_feature_plic.h:196
    current = current & (~(1<<(source&0x1F)));
80001654:	fffff8b7          	lui	a7,0xfffff
80001658:	7ff88e13          	addi	t3,a7,2047 # fffff7ff <_sp+0x6ffef7ff>
8000165c:	01c5feb3          	and	t4,a1,t3
E:\VMshare\e203\zhengdian_E203\sdk\dhrystone\hbird_sdk\NMSIS\Core\Include/core_feature_plic.h:197
    *enable_reg = current;
80001660:	01d82023          	sw	t4,0(a6)
PLIC_SetPriority():
E:\VMshare\e203\zhengdian_E203\sdk\dhrystone\hbird_sdk\NMSIS\Core\Include/core_feature_plic.h:237
    *priority_reg = priority;
80001664:	0203a623          	sw	zero,44(t2)
PLIC_DisableInterrupt():
E:\VMshare\e203\zhengdian_E203\sdk\dhrystone\hbird_sdk\NMSIS\Core\Include/core_feature_plic.h:191
    uint32_t hartid = __RV_CSR_READ(CSR_MHARTID);
80001668:	f1402f73          	csrr	t5,mhartid
E:\VMshare\e203\zhengdian_E203\sdk\dhrystone\hbird_sdk\NMSIS\Core\Include/core_feature_plic.h:193
                    (hartid << PLIC_ENABLE_SHIFT_PER_TARGET) + (source >> 5) * 4);
8000166c:	007f1f93          	slli	t6,t5,0x7
80001670:	00ef87b3          	add	a5,t6,a4
E:\VMshare\e203\zhengdian_E203\sdk\dhrystone\hbird_sdk\NMSIS\Core\Include/core_feature_plic.h:195
    uint32_t current = *enable_reg;
80001674:	0007a683          	lw	a3,0(a5)
E:\VMshare\e203\zhengdian_E203\sdk\dhrystone\hbird_sdk\NMSIS\Core\Include/core_feature_plic.h:196
    current = current & (~(1<<(source&0x1F)));
80001678:	fff88293          	addi	t0,a7,-1
8000167c:	0056f333          	and	t1,a3,t0
E:\VMshare\e203\zhengdian_E203\sdk\dhrystone\hbird_sdk\NMSIS\Core\Include/core_feature_plic.h:197
    *enable_reg = current;
80001680:	0067a023          	sw	t1,0(a5)
PLIC_SetPriority():
E:\VMshare\e203\zhengdian_E203\sdk\dhrystone\hbird_sdk\NMSIS\Core\Include/core_feature_plic.h:237
    *priority_reg = priority;
80001684:	0203a823          	sw	zero,48(t2)
PLIC_DisableInterrupt():
E:\VMshare\e203\zhengdian_E203\sdk\dhrystone\hbird_sdk\NMSIS\Core\Include/core_feature_plic.h:191
    uint32_t hartid = __RV_CSR_READ(CSR_MHARTID);
80001688:	f1402573          	csrr	a0,mhartid
E:\VMshare\e203\zhengdian_E203\sdk\dhrystone\hbird_sdk\NMSIS\Core\Include/core_feature_plic.h:193
                    (hartid << PLIC_ENABLE_SHIFT_PER_TARGET) + (source >> 5) * 4);
8000168c:	00751613          	slli	a2,a0,0x7
80001690:	00e60833          	add	a6,a2,a4
E:\VMshare\e203\zhengdian_E203\sdk\dhrystone\hbird_sdk\NMSIS\Core\Include/core_feature_plic.h:195
    uint32_t current = *enable_reg;
80001694:	00082883          	lw	a7,0(a6)
E:\VMshare\e203\zhengdian_E203\sdk\dhrystone\hbird_sdk\NMSIS\Core\Include/core_feature_plic.h:196
    current = current & (~(1<<(source&0x1F)));
80001698:	ffffe5b7          	lui	a1,0xffffe
8000169c:	fff58e13          	addi	t3,a1,-1 # ffffdfff <_sp+0x6ffedfff>
800016a0:	01c8feb3          	and	t4,a7,t3
E:\VMshare\e203\zhengdian_E203\sdk\dhrystone\hbird_sdk\NMSIS\Core\Include/core_feature_plic.h:197
    *enable_reg = current;
800016a4:	01d82023          	sw	t4,0(a6)
PLIC_SetPriority():
E:\VMshare\e203\zhengdian_E203\sdk\dhrystone\hbird_sdk\NMSIS\Core\Include/core_feature_plic.h:237
    *priority_reg = priority;
800016a8:	0203aa23          	sw	zero,52(t2)
PLIC_DisableInterrupt():
E:\VMshare\e203\zhengdian_E203\sdk\dhrystone\hbird_sdk\NMSIS\Core\Include/core_feature_plic.h:191
    uint32_t hartid = __RV_CSR_READ(CSR_MHARTID);
800016ac:	f1402f73          	csrr	t5,mhartid
E:\VMshare\e203\zhengdian_E203\sdk\dhrystone\hbird_sdk\NMSIS\Core\Include/core_feature_plic.h:193
                    (hartid << PLIC_ENABLE_SHIFT_PER_TARGET) + (source >> 5) * 4);
800016b0:	007f1f93          	slli	t6,t5,0x7
800016b4:	00ef87b3          	add	a5,t6,a4
E:\VMshare\e203\zhengdian_E203\sdk\dhrystone\hbird_sdk\NMSIS\Core\Include/core_feature_plic.h:195
    uint32_t current = *enable_reg;
800016b8:	0007a683          	lw	a3,0(a5)
E:\VMshare\e203\zhengdian_E203\sdk\dhrystone\hbird_sdk\NMSIS\Core\Include/core_feature_plic.h:196
    current = current & (~(1<<(source&0x1F)));
800016bc:	ffffc2b7          	lui	t0,0xffffc
800016c0:	fff28313          	addi	t1,t0,-1 # ffffbfff <_sp+0x6ffebfff>
800016c4:	0066f533          	and	a0,a3,t1
E:\VMshare\e203\zhengdian_E203\sdk\dhrystone\hbird_sdk\NMSIS\Core\Include/core_feature_plic.h:197
    *enable_reg = current;
800016c8:	00a7a023          	sw	a0,0(a5)
PLIC_SetPriority():
E:\VMshare\e203\zhengdian_E203\sdk\dhrystone\hbird_sdk\NMSIS\Core\Include/core_feature_plic.h:237
    *priority_reg = priority;
800016cc:	0203ac23          	sw	zero,56(t2)
PLIC_DisableInterrupt():
E:\VMshare\e203\zhengdian_E203\sdk\dhrystone\hbird_sdk\NMSIS\Core\Include/core_feature_plic.h:191
    uint32_t hartid = __RV_CSR_READ(CSR_MHARTID);
800016d0:	f1402673          	csrr	a2,mhartid
E:\VMshare\e203\zhengdian_E203\sdk\dhrystone\hbird_sdk\NMSIS\Core\Include/core_feature_plic.h:193
                    (hartid << PLIC_ENABLE_SHIFT_PER_TARGET) + (source >> 5) * 4);
800016d4:	00761813          	slli	a6,a2,0x7
800016d8:	00e808b3          	add	a7,a6,a4
E:\VMshare\e203\zhengdian_E203\sdk\dhrystone\hbird_sdk\NMSIS\Core\Include/core_feature_plic.h:195
    uint32_t current = *enable_reg;
800016dc:	0008ae03          	lw	t3,0(a7)
E:\VMshare\e203\zhengdian_E203\sdk\dhrystone\hbird_sdk\NMSIS\Core\Include/core_feature_plic.h:196
    current = current & (~(1<<(source&0x1F)));
800016e0:	ffff85b7          	lui	a1,0xffff8
800016e4:	fff58e93          	addi	t4,a1,-1 # ffff7fff <_sp+0x6ffe7fff>
800016e8:	01de7f33          	and	t5,t3,t4
E:\VMshare\e203\zhengdian_E203\sdk\dhrystone\hbird_sdk\NMSIS\Core\Include/core_feature_plic.h:197
    *enable_reg = current;
800016ec:	01e8a023          	sw	t5,0(a7)
PLIC_SetPriority():
E:\VMshare\e203\zhengdian_E203\sdk\dhrystone\hbird_sdk\NMSIS\Core\Include/core_feature_plic.h:237
    *priority_reg = priority;
800016f0:	0203ae23          	sw	zero,60(t2)
PLIC_DisableInterrupt():
E:\VMshare\e203\zhengdian_E203\sdk\dhrystone\hbird_sdk\NMSIS\Core\Include/core_feature_plic.h:191
    uint32_t hartid = __RV_CSR_READ(CSR_MHARTID);
800016f4:	f1402ff3          	csrr	t6,mhartid
E:\VMshare\e203\zhengdian_E203\sdk\dhrystone\hbird_sdk\NMSIS\Core\Include/core_feature_plic.h:193
                    (hartid << PLIC_ENABLE_SHIFT_PER_TARGET) + (source >> 5) * 4);
800016f8:	007f9793          	slli	a5,t6,0x7
800016fc:	00e78733          	add	a4,a5,a4
E:\VMshare\e203\zhengdian_E203\sdk\dhrystone\hbird_sdk\NMSIS\Core\Include/core_feature_plic.h:195
    uint32_t current = *enable_reg;
80001700:	00072683          	lw	a3,0(a4) # c002000 <dhry_stubs.c.aa5f359a+0xbffe425>
E:\VMshare\e203\zhengdian_E203\sdk\dhrystone\hbird_sdk\NMSIS\Core\Include/core_feature_plic.h:196
    current = current & (~(1<<(source&0x1F)));
80001704:	ffff02b7          	lui	t0,0xffff0
80001708:	fff28313          	addi	t1,t0,-1 # fffeffff <_sp+0x6ffdffff>
8000170c:	0066f533          	and	a0,a3,t1
E:\VMshare\e203\zhengdian_E203\sdk\dhrystone\hbird_sdk\NMSIS\Core\Include/core_feature_plic.h:197
    *enable_reg = current;
80001710:	00a72023          	sw	a0,0(a4)
PLIC_SetPriority():
E:\VMshare\e203\zhengdian_E203\sdk\dhrystone\hbird_sdk\NMSIS\Core\Include/core_feature_plic.h:237
    *priority_reg = priority;
80001714:	0403a023          	sw	zero,64(t2)
PLIC_SetThreshold():
E:\VMshare\e203\zhengdian_E203\sdk\dhrystone\hbird_sdk\NMSIS\Core\Include/core_feature_plic.h:135
    uint32_t hartid = __RV_CSR_READ(CSR_MHARTID);
80001718:	f14023f3          	csrr	t2,mhartid
E:\VMshare\e203\zhengdian_E203\sdk\dhrystone\hbird_sdk\NMSIS\Core\Include/core_feature_plic.h:137
                    PLIC_THRESHOLD_OFFSET + (hartid << PLIC_THRESHOLD_SHIFT_PER_TARGET));
8000171c:	0c200837          	lui	a6,0xc200
_premain_init():
E:\VMshare\e203\zhengdian_E203\sdk\dhrystone\Debug/../hbird_sdk/SoC/hbirdv2/Common/Source/system_hbirdv2.c:481
#if defined(__PLIC_PRESENT) && __PLIC_PRESENT == 1
    /* PLIC initilization */
    PLIC_Init(__PLIC_INTNUM);
#endif
}
80001720:	00c12083          	lw	ra,12(sp)
PLIC_Init():
E:\VMshare\e203\zhengdian_E203\sdk\dhrystone\hbird_sdk\NMSIS\Core\Include/core_feature_plic.h:137
80001724:	00c39613          	slli	a2,t2,0xc
80001728:	010608b3          	add	a7,a2,a6
E:\VMshare\e203\zhengdian_E203\sdk\dhrystone\hbird_sdk\NMSIS\Core\Include/core_feature_plic.h:139
    *thresh_reg = thresh;
8000172c:	0008a023          	sw	zero,0(a7)
_premain_init():
E:\VMshare\e203\zhengdian_E203\sdk\dhrystone\Debug/../hbird_sdk/SoC/hbirdv2/Common/Source/system_hbirdv2.c:481
80001730:	01010113          	addi	sp,sp,16
80001734:	00008067          	ret

80001738 <_postmain_fini>:
_postmain_fini():
E:\VMshare\e203\zhengdian_E203\sdk\dhrystone\Debug/../hbird_sdk/SoC/hbirdv2/Common/Source/system_hbirdv2.c:507
#ifdef SIMULATION_RTL
extern void rtlsim_exit(int status);
    rtlsim_exit(status);
#endif

}
80001738:	00008067          	ret

8000173c <trap_entry>:
trap_entry():
E:\VMshare\e203\zhengdian_E203\sdk\dhrystone\Debug/../hbird_sdk/SoC/hbirdv2/Common/Source/GCC/intexc_hbirdv2.S:159
.align 2
.global trap_entry
.weak trap_entry
trap_entry:
    /* Save the caller saving registers (context) */
    SAVE_CONTEXT
8000173c:	fb010113          	addi	sp,sp,-80
80001740:	00112023          	sw	ra,0(sp)
80001744:	00412223          	sw	tp,4(sp)
80001748:	00512423          	sw	t0,8(sp)
8000174c:	00612623          	sw	t1,12(sp)
80001750:	00712823          	sw	t2,16(sp)
80001754:	00a12a23          	sw	a0,20(sp)
80001758:	00b12c23          	sw	a1,24(sp)
8000175c:	00c12e23          	sw	a2,28(sp)
80001760:	02d12023          	sw	a3,32(sp)
80001764:	02e12223          	sw	a4,36(sp)
80001768:	02f12423          	sw	a5,40(sp)
8000176c:	03012c23          	sw	a6,56(sp)
80001770:	03112e23          	sw	a7,60(sp)
80001774:	05c12023          	sw	t3,64(sp)
80001778:	05d12223          	sw	t4,68(sp)
8000177c:	05e12423          	sw	t5,72(sp)
80001780:	05f12623          	sw	t6,76(sp)
E:\VMshare\e203\zhengdian_E203\sdk\dhrystone\Debug/../hbird_sdk/SoC/hbirdv2/Common/Source/GCC/intexc_hbirdv2.S:161
    /* Save the necessary CSR registers */
    SAVE_CSR_CONTEXT
80001784:	341022f3          	csrr	t0,mepc
80001788:	02512623          	sw	t0,44(sp)
8000178c:	342022f3          	csrr	t0,mcause
80001790:	02512823          	sw	t0,48(sp)
80001794:	300022f3          	csrr	t0,mstatus
80001798:	02512a23          	sw	t0,52(sp)
E:\VMshare\e203\zhengdian_E203\sdk\dhrystone\Debug/../hbird_sdk/SoC/hbirdv2/Common/Source/GCC/intexc_hbirdv2.S:168
    /*
     * Set the exception handler function arguments
     * argument 1: mcause value
     * argument 2: current stack point(SP) value
     */
    csrr a0, mcause
8000179c:	34202573          	csrr	a0,mcause
E:\VMshare\e203\zhengdian_E203\sdk\dhrystone\Debug/../hbird_sdk/SoC/hbirdv2/Common/Source/GCC/intexc_hbirdv2.S:169
    mv a1, sp
800017a0:	00010593          	mv	a1,sp
E:\VMshare\e203\zhengdian_E203\sdk\dhrystone\Debug/../hbird_sdk/SoC/hbirdv2/Common/Source/GCC/intexc_hbirdv2.S:175
    /*
     * TODO: Call the trap handler function
     * By default, the function template is provided in
     * system_Device.c, you can adjust it as you want
     */
    call core_trap_handler
800017a4:	c91ff0ef          	jal	ra,80001434 <core_trap_handler>
E:\VMshare\e203\zhengdian_E203\sdk\dhrystone\Debug/../hbird_sdk/SoC/hbirdv2/Common/Source/GCC/intexc_hbirdv2.S:178

    /* Restore the necessary CSR registers */
    RESTORE_CSR_CONTEXT
800017a8:	02c12283          	lw	t0,44(sp)
800017ac:	34129073          	csrw	mepc,t0
800017b0:	03012283          	lw	t0,48(sp)
800017b4:	34229073          	csrw	mcause,t0
800017b8:	03412283          	lw	t0,52(sp)
800017bc:	30029073          	csrw	mstatus,t0
E:\VMshare\e203\zhengdian_E203\sdk\dhrystone\Debug/../hbird_sdk/SoC/hbirdv2/Common/Source/GCC/intexc_hbirdv2.S:180
    /* Restore the caller saving registers (context) */
    RESTORE_CONTEXT
800017c0:	00012083          	lw	ra,0(sp)
800017c4:	00412203          	lw	tp,4(sp)
800017c8:	00812283          	lw	t0,8(sp)
800017cc:	00c12303          	lw	t1,12(sp)
800017d0:	01012383          	lw	t2,16(sp)
800017d4:	01412503          	lw	a0,20(sp)
800017d8:	01812583          	lw	a1,24(sp)
800017dc:	01c12603          	lw	a2,28(sp)
800017e0:	02012683          	lw	a3,32(sp)
800017e4:	02412703          	lw	a4,36(sp)
800017e8:	02812783          	lw	a5,40(sp)
800017ec:	03812803          	lw	a6,56(sp)
800017f0:	03c12883          	lw	a7,60(sp)
800017f4:	04012e03          	lw	t3,64(sp)
800017f8:	04412e83          	lw	t4,68(sp)
800017fc:	04812f03          	lw	t5,72(sp)
80001800:	04c12f83          	lw	t6,76(sp)
80001804:	05010113          	addi	sp,sp,80
E:\VMshare\e203\zhengdian_E203\sdk\dhrystone\Debug/../hbird_sdk/SoC/hbirdv2/Common/Source/GCC/intexc_hbirdv2.S:183

    /* Return to regular code */
    mret
80001808:	30200073          	mret

8000180c <atexit>:
atexit():
8000180c:	00050593          	mv	a1,a0
80001810:	00000693          	li	a3,0
80001814:	00000613          	li	a2,0
80001818:	00000513          	li	a0,0
8000181c:	0840106f          	j	800028a0 <__register_exitproc>

80001820 <__libc_fini_array>:
__libc_fini_array():
80001820:	ff010113          	addi	sp,sp,-16
80001824:	00812423          	sw	s0,8(sp)
80001828:	00912223          	sw	s1,4(sp)
8000182c:	00008417          	auipc	s0,0x8
80001830:	5bc40413          	addi	s0,s0,1468 # 80009de8 <__fsymtab_end>
80001834:	00008497          	auipc	s1,0x8
80001838:	5b448493          	addi	s1,s1,1460 # 80009de8 <__fsymtab_end>
8000183c:	40940433          	sub	s0,s0,s1
80001840:	00112623          	sw	ra,12(sp)
80001844:	40245413          	srai	s0,s0,0x2
80001848:	00041c63          	bnez	s0,80001860 <__libc_fini_array+0x40>
8000184c:	00c12083          	lw	ra,12(sp)
80001850:	00812403          	lw	s0,8(sp)
80001854:	00412483          	lw	s1,4(sp)
80001858:	01010113          	addi	sp,sp,16
8000185c:	00008067          	ret
80001860:	fff40413          	addi	s0,s0,-1
80001864:	00241793          	slli	a5,s0,0x2
80001868:	00f487b3          	add	a5,s1,a5
8000186c:	0007a783          	lw	a5,0(a5)
80001870:	000780e7          	jalr	a5
80001874:	fd5ff06f          	j	80001848 <__libc_fini_array+0x28>

80001878 <__libc_init_array>:
__libc_init_array():
80001878:	ff010113          	addi	sp,sp,-16
8000187c:	00812423          	sw	s0,8(sp)
80001880:	00912223          	sw	s1,4(sp)
80001884:	00008417          	auipc	s0,0x8
80001888:	56440413          	addi	s0,s0,1380 # 80009de8 <__fsymtab_end>
8000188c:	00008497          	auipc	s1,0x8
80001890:	55c48493          	addi	s1,s1,1372 # 80009de8 <__fsymtab_end>
80001894:	408484b3          	sub	s1,s1,s0
80001898:	01212023          	sw	s2,0(sp)
8000189c:	00112623          	sw	ra,12(sp)
800018a0:	4024d493          	srai	s1,s1,0x2
800018a4:	00000913          	li	s2,0
800018a8:	02991e63          	bne	s2,s1,800018e4 <__libc_init_array+0x6c>
800018ac:	00008417          	auipc	s0,0x8
800018b0:	53c40413          	addi	s0,s0,1340 # 80009de8 <__fsymtab_end>
800018b4:	00008497          	auipc	s1,0x8
800018b8:	53448493          	addi	s1,s1,1332 # 80009de8 <__fsymtab_end>
800018bc:	408484b3          	sub	s1,s1,s0
800018c0:	4024d493          	srai	s1,s1,0x2
800018c4:	00000913          	li	s2,0
800018c8:	02991863          	bne	s2,s1,800018f8 <__libc_init_array+0x80>
800018cc:	00c12083          	lw	ra,12(sp)
800018d0:	00812403          	lw	s0,8(sp)
800018d4:	00412483          	lw	s1,4(sp)
800018d8:	00012903          	lw	s2,0(sp)
800018dc:	01010113          	addi	sp,sp,16
800018e0:	00008067          	ret
800018e4:	00042783          	lw	a5,0(s0)
800018e8:	00190913          	addi	s2,s2,1
800018ec:	00440413          	addi	s0,s0,4
800018f0:	000780e7          	jalr	a5
800018f4:	fb5ff06f          	j	800018a8 <__libc_init_array+0x30>
800018f8:	00042783          	lw	a5,0(s0)
800018fc:	00190913          	addi	s2,s2,1
80001900:	00440413          	addi	s0,s0,4
80001904:	000780e7          	jalr	a5
80001908:	fc1ff06f          	j	800018c8 <__libc_init_array+0x50>

8000190c <__cvt>:
__cvt():
8000190c:	fd010113          	addi	sp,sp,-48
80001910:	02812423          	sw	s0,40(sp)
80001914:	03212023          	sw	s2,32(sp)
80001918:	01412c23          	sw	s4,24(sp)
8000191c:	01512a23          	sw	s5,20(sp)
80001920:	01612823          	sw	s6,16(sp)
80001924:	02112623          	sw	ra,44(sp)
80001928:	02912223          	sw	s1,36(sp)
8000192c:	01312e23          	sw	s3,28(sp)
80001930:	00070b13          	mv	s6,a4
80001934:	00058a13          	mv	s4,a1
80001938:	00060413          	mv	s0,a2
8000193c:	00068913          	mv	s2,a3
80001940:	00080a93          	mv	s5,a6
80001944:	00000713          	li	a4,0
80001948:	00065863          	bgez	a2,80001958 <__cvt+0x4c>
8000194c:	80000737          	lui	a4,0x80000
80001950:	00c74433          	xor	s0,a4,a2
80001954:	02d00713          	li	a4,45
80001958:	00e78023          	sb	a4,0(a5)
8000195c:	fdf8f493          	andi	s1,a7,-33
80001960:	04600793          	li	a5,70
80001964:	00300693          	li	a3,3
80001968:	00f48a63          	beq	s1,a5,8000197c <__cvt+0x70>
8000196c:	04500793          	li	a5,69
80001970:	00200693          	li	a3,2
80001974:	00f49463          	bne	s1,a5,8000197c <__cvt+0x70>
80001978:	00190913          	addi	s2,s2,1
8000197c:	000a8793          	mv	a5,s5
80001980:	00c10893          	addi	a7,sp,12
80001984:	00810813          	addi	a6,sp,8
80001988:	00090713          	mv	a4,s2
8000198c:	000a0593          	mv	a1,s4
80001990:	00040613          	mv	a2,s0
80001994:	17c010ef          	jal	ra,80002b10 <_dtoa_r>
80001998:	04700793          	li	a5,71
8000199c:	00050993          	mv	s3,a0
800019a0:	00f49663          	bne	s1,a5,800019ac <__cvt+0xa0>
800019a4:	001b7b13          	andi	s6,s6,1
800019a8:	060b0863          	beqz	s6,80001a18 <__cvt+0x10c>
800019ac:	04600793          	li	a5,70
800019b0:	01298b33          	add	s6,s3,s2
800019b4:	02f49e63          	bne	s1,a5,800019f0 <__cvt+0xe4>
800019b8:	0009c703          	lbu	a4,0(s3)
800019bc:	03000793          	li	a5,48
800019c0:	02f71463          	bne	a4,a5,800019e8 <__cvt+0xdc>
800019c4:	00000613          	li	a2,0
800019c8:	00000693          	li	a3,0
800019cc:	000a0513          	mv	a0,s4
800019d0:	00040593          	mv	a1,s0
800019d4:	03d050ef          	jal	ra,80007210 <__eqdf2>
800019d8:	00050863          	beqz	a0,800019e8 <__cvt+0xdc>
800019dc:	00100693          	li	a3,1
800019e0:	41268933          	sub	s2,a3,s2
800019e4:	012aa023          	sw	s2,0(s5)
800019e8:	000aa783          	lw	a5,0(s5)
800019ec:	00fb0b33          	add	s6,s6,a5
800019f0:	00000613          	li	a2,0
800019f4:	00000693          	li	a3,0
800019f8:	000a0513          	mv	a0,s4
800019fc:	00040593          	mv	a1,s0
80001a00:	011050ef          	jal	ra,80007210 <__eqdf2>
80001a04:	00051463          	bnez	a0,80001a0c <__cvt+0x100>
80001a08:	01612623          	sw	s6,12(sp)
80001a0c:	03000713          	li	a4,48
80001a10:	00c12783          	lw	a5,12(sp)
80001a14:	0567e063          	bltu	a5,s6,80001a54 <__cvt+0x148>
80001a18:	00c12783          	lw	a5,12(sp)
80001a1c:	03012703          	lw	a4,48(sp)
80001a20:	02c12083          	lw	ra,44(sp)
80001a24:	02812403          	lw	s0,40(sp)
80001a28:	413787b3          	sub	a5,a5,s3
80001a2c:	00f72023          	sw	a5,0(a4) # 80000000 <_sp+0xefff0000>
80001a30:	02412483          	lw	s1,36(sp)
80001a34:	02012903          	lw	s2,32(sp)
80001a38:	01812a03          	lw	s4,24(sp)
80001a3c:	01412a83          	lw	s5,20(sp)
80001a40:	01012b03          	lw	s6,16(sp)
80001a44:	00098513          	mv	a0,s3
80001a48:	01c12983          	lw	s3,28(sp)
80001a4c:	03010113          	addi	sp,sp,48
80001a50:	00008067          	ret
80001a54:	00178693          	addi	a3,a5,1
80001a58:	00d12623          	sw	a3,12(sp)
80001a5c:	00e78023          	sb	a4,0(a5)
80001a60:	fb1ff06f          	j	80001a10 <__cvt+0x104>

80001a64 <__exponent>:
__exponent():
80001a64:	00c50023          	sb	a2,0(a0)
80001a68:	00250793          	addi	a5,a0,2
80001a6c:	02b00713          	li	a4,43
80001a70:	0005d663          	bgez	a1,80001a7c <__exponent+0x18>
80001a74:	40b005b3          	neg	a1,a1
80001a78:	02d00713          	li	a4,45
80001a7c:	00e500a3          	sb	a4,1(a0)
80001a80:	00900713          	li	a4,9
80001a84:	08b75263          	bge	a4,a1,80001b08 <__exponent+0xa4>
80001a88:	ff010113          	addi	sp,sp,-16
80001a8c:	00f10713          	addi	a4,sp,15
80001a90:	00070813          	mv	a6,a4
80001a94:	00a00893          	li	a7,10
80001a98:	06300313          	li	t1,99
80001a9c:	0315e633          	rem	a2,a1,a7
80001aa0:	00070693          	mv	a3,a4
80001aa4:	fff70713          	addi	a4,a4,-1
80001aa8:	03060613          	addi	a2,a2,48
80001aac:	fec68fa3          	sb	a2,-1(a3)
80001ab0:	00058613          	mv	a2,a1
80001ab4:	0315c5b3          	div	a1,a1,a7
80001ab8:	fec342e3          	blt	t1,a2,80001a9c <__exponent+0x38>
80001abc:	ffe68893          	addi	a7,a3,-2
80001ac0:	03058593          	addi	a1,a1,48
80001ac4:	feb70fa3          	sb	a1,-1(a4)
80001ac8:	00078613          	mv	a2,a5
80001acc:	00088713          	mv	a4,a7
80001ad0:	03076263          	bltu	a4,a6,80001af4 <__exponent+0x90>
80001ad4:	00000713          	li	a4,0
80001ad8:	01186663          	bltu	a6,a7,80001ae4 <__exponent+0x80>
80001adc:	01110713          	addi	a4,sp,17
80001ae0:	40d70733          	sub	a4,a4,a3
80001ae4:	00e787b3          	add	a5,a5,a4
80001ae8:	40a78533          	sub	a0,a5,a0
80001aec:	01010113          	addi	sp,sp,16
80001af0:	00008067          	ret
80001af4:	00074583          	lbu	a1,0(a4)
80001af8:	00170713          	addi	a4,a4,1
80001afc:	00160613          	addi	a2,a2,1
80001b00:	feb60fa3          	sb	a1,-1(a2)
80001b04:	fcdff06f          	j	80001ad0 <__exponent+0x6c>
80001b08:	03000793          	li	a5,48
80001b0c:	00f50123          	sb	a5,2(a0)
80001b10:	03058593          	addi	a1,a1,48
80001b14:	00450793          	addi	a5,a0,4
80001b18:	00b501a3          	sb	a1,3(a0)
80001b1c:	40a78533          	sub	a0,a5,a0
80001b20:	00008067          	ret

80001b24 <_printf_float>:
_printf_float():
80001b24:	f9010113          	addi	sp,sp,-112
80001b28:	06112623          	sw	ra,108(sp)
80001b2c:	06812423          	sw	s0,104(sp)
80001b30:	06912223          	sw	s1,100(sp)
80001b34:	00058413          	mv	s0,a1
80001b38:	07212023          	sw	s2,96(sp)
80001b3c:	05312e23          	sw	s3,92(sp)
80001b40:	05412c23          	sw	s4,88(sp)
80001b44:	05512a23          	sw	s5,84(sp)
80001b48:	00070a13          	mv	s4,a4
80001b4c:	05612823          	sw	s6,80(sp)
80001b50:	05712623          	sw	s7,76(sp)
80001b54:	05812423          	sw	s8,72(sp)
80001b58:	00060913          	mv	s2,a2
80001b5c:	00068993          	mv	s3,a3
80001b60:	05912223          	sw	s9,68(sp)
80001b64:	05a12023          	sw	s10,64(sp)
80001b68:	03b12e23          	sw	s11,60(sp)
80001b6c:	00050493          	mv	s1,a0
80001b70:	4dc020ef          	jal	ra,8000404c <_localeconv_r>
80001b74:	00052c03          	lw	s8,0(a0)
80001b78:	000c0513          	mv	a0,s8
80001b7c:	505000ef          	jal	ra,80002880 <strlen>
80001b80:	00042b03          	lw	s6,0(s0)
80001b84:	02012423          	sw	zero,40(sp)
80001b88:	01844a83          	lbu	s5,24(s0)
80001b8c:	100b7713          	andi	a4,s6,256
80001b90:	000a2783          	lw	a5,0(s4)
80001b94:	00050b93          	mv	s7,a0
80001b98:	14070663          	beqz	a4,80001ce4 <_printf_float+0x1c0>
80001b9c:	00478713          	addi	a4,a5,4
80001ba0:	00ea2023          	sw	a4,0(s4)
80001ba4:	0007a783          	lw	a5,0(a5)
80001ba8:	01010513          	addi	a0,sp,16
80001bac:	0007a703          	lw	a4,0(a5)
80001bb0:	00e12823          	sw	a4,16(sp)
80001bb4:	0047a703          	lw	a4,4(a5)
80001bb8:	00e12a23          	sw	a4,20(sp)
80001bbc:	0087a703          	lw	a4,8(a5)
80001bc0:	00e12c23          	sw	a4,24(sp)
80001bc4:	00c7a783          	lw	a5,12(a5)
80001bc8:	00f12e23          	sw	a5,28(sp)
80001bcc:	045060ef          	jal	ra,80008410 <__trunctfdf2>
80001bd0:	04a42423          	sw	a0,72(s0)
80001bd4:	04b42623          	sw	a1,76(s0)
80001bd8:	04c42c83          	lw	s9,76(s0)
80001bdc:	0fffe797          	auipc	a5,0xfffe
80001be0:	60478793          	addi	a5,a5,1540 # 900001e0 <_impure_ptr+0x8>
80001be4:	04842d83          	lw	s11,72(s0)
80001be8:	0007a803          	lw	a6,0(a5)
80001bec:	0047a883          	lw	a7,4(a5)
80001bf0:	001c9a13          	slli	s4,s9,0x1
80001bf4:	001a5a13          	srli	s4,s4,0x1
80001bf8:	00080613          	mv	a2,a6
80001bfc:	00088693          	mv	a3,a7
80001c00:	000d8513          	mv	a0,s11
80001c04:	000a0593          	mv	a1,s4
80001c08:	614060ef          	jal	ra,8000821c <__unorddf2>
80001c0c:	0e051e63          	bnez	a0,80001d08 <_printf_float+0x1e4>
80001c10:	0fffe797          	auipc	a5,0xfffe
80001c14:	5d078793          	addi	a5,a5,1488 # 900001e0 <_impure_ptr+0x8>
80001c18:	0007a803          	lw	a6,0(a5)
80001c1c:	0047a883          	lw	a7,4(a5)
80001c20:	000d8513          	mv	a0,s11
80001c24:	00080613          	mv	a2,a6
80001c28:	00088693          	mv	a3,a7
80001c2c:	000a0593          	mv	a1,s4
80001c30:	750050ef          	jal	ra,80007380 <__ledf2>
80001c34:	0ca05a63          	blez	a0,80001d08 <_printf_float+0x1e4>
80001c38:	00000613          	li	a2,0
80001c3c:	00000693          	li	a3,0
80001c40:	000d8513          	mv	a0,s11
80001c44:	000c8593          	mv	a1,s9
80001c48:	738050ef          	jal	ra,80007380 <__ledf2>
80001c4c:	00055663          	bgez	a0,80001c58 <_printf_float+0x134>
80001c50:	02d00793          	li	a5,45
80001c54:	04f401a3          	sb	a5,67(s0)
80001c58:	04700793          	li	a5,71
80001c5c:	00008a17          	auipc	s4,0x8
80001c60:	ba0a0a13          	addi	s4,s4,-1120 # 800097fc <__extendsfdf2+0x7cc>
80001c64:	0157f663          	bgeu	a5,s5,80001c70 <_printf_float+0x14c>
80001c68:	00008a17          	auipc	s4,0x8
80001c6c:	b98a0a13          	addi	s4,s4,-1128 # 80009800 <__extendsfdf2+0x7d0>
80001c70:	ffbb7b13          	andi	s6,s6,-5
80001c74:	00300793          	li	a5,3
80001c78:	01642023          	sw	s6,0(s0)
80001c7c:	00f42823          	sw	a5,16(s0)
80001c80:	00000b13          	li	s6,0
80001c84:	00098713          	mv	a4,s3
80001c88:	00090693          	mv	a3,s2
80001c8c:	02c10613          	addi	a2,sp,44
80001c90:	00040593          	mv	a1,s0
80001c94:	00048513          	mv	a0,s1
80001c98:	624000ef          	jal	ra,800022bc <_printf_common>
80001c9c:	fff00c93          	li	s9,-1
80001ca0:	23951263          	bne	a0,s9,80001ec4 <_printf_float+0x3a0>
80001ca4:	fff00513          	li	a0,-1
80001ca8:	06c12083          	lw	ra,108(sp)
80001cac:	06812403          	lw	s0,104(sp)
80001cb0:	06412483          	lw	s1,100(sp)
80001cb4:	06012903          	lw	s2,96(sp)
80001cb8:	05c12983          	lw	s3,92(sp)
80001cbc:	05812a03          	lw	s4,88(sp)
80001cc0:	05412a83          	lw	s5,84(sp)
80001cc4:	05012b03          	lw	s6,80(sp)
80001cc8:	04c12b83          	lw	s7,76(sp)
80001ccc:	04812c03          	lw	s8,72(sp)
80001cd0:	04412c83          	lw	s9,68(sp)
80001cd4:	04012d03          	lw	s10,64(sp)
80001cd8:	03c12d83          	lw	s11,60(sp)
80001cdc:	07010113          	addi	sp,sp,112
80001ce0:	00008067          	ret
80001ce4:	00778793          	addi	a5,a5,7
80001ce8:	ff87f793          	andi	a5,a5,-8
80001cec:	00878713          	addi	a4,a5,8
80001cf0:	00ea2023          	sw	a4,0(s4)
80001cf4:	0007a703          	lw	a4,0(a5)
80001cf8:	0047a783          	lw	a5,4(a5)
80001cfc:	04e42423          	sw	a4,72(s0)
80001d00:	04f42623          	sw	a5,76(s0)
80001d04:	ed5ff06f          	j	80001bd8 <_printf_float+0xb4>
80001d08:	000d8613          	mv	a2,s11
80001d0c:	000c8693          	mv	a3,s9
80001d10:	000d8513          	mv	a0,s11
80001d14:	000c8593          	mv	a1,s9
80001d18:	504060ef          	jal	ra,8000821c <__unorddf2>
80001d1c:	02050663          	beqz	a0,80001d48 <_printf_float+0x224>
80001d20:	000cd663          	bgez	s9,80001d2c <_printf_float+0x208>
80001d24:	02d00793          	li	a5,45
80001d28:	04f401a3          	sb	a5,67(s0)
80001d2c:	04700793          	li	a5,71
80001d30:	00008a17          	auipc	s4,0x8
80001d34:	ad4a0a13          	addi	s4,s4,-1324 # 80009804 <__extendsfdf2+0x7d4>
80001d38:	f357fce3          	bgeu	a5,s5,80001c70 <_printf_float+0x14c>
80001d3c:	00008a17          	auipc	s4,0x8
80001d40:	acca0a13          	addi	s4,s4,-1332 # 80009808 <__extendsfdf2+0x7d8>
80001d44:	f2dff06f          	j	80001c70 <_printf_float+0x14c>
80001d48:	00442783          	lw	a5,4(s0)
80001d4c:	fff00713          	li	a4,-1
80001d50:	0dfafd13          	andi	s10,s5,223
80001d54:	0ce79263          	bne	a5,a4,80001e18 <_printf_float+0x2f4>
80001d58:	00600793          	li	a5,6
80001d5c:	00f42223          	sw	a5,4(s0)
80001d60:	00442683          	lw	a3,4(s0)
80001d64:	400b6713          	ori	a4,s6,1024
80001d68:	02810793          	addi	a5,sp,40
80001d6c:	00f12023          	sw	a5,0(sp)
80001d70:	000d8593          	mv	a1,s11
80001d74:	02310793          	addi	a5,sp,35
80001d78:	00e42023          	sw	a4,0(s0)
80001d7c:	00012223          	sw	zero,4(sp)
80001d80:	000a8893          	mv	a7,s5
80001d84:	02410813          	addi	a6,sp,36
80001d88:	000c8613          	mv	a2,s9
80001d8c:	00048513          	mv	a0,s1
80001d90:	b7dff0ef          	jal	ra,8000190c <__cvt>
80001d94:	04700793          	li	a5,71
80001d98:	02412583          	lw	a1,36(sp)
80001d9c:	00050a13          	mv	s4,a0
80001da0:	00fd1e63          	bne	s10,a5,80001dbc <_printf_float+0x298>
80001da4:	ffd00793          	li	a5,-3
80001da8:	00f5c663          	blt	a1,a5,80001db4 <_printf_float+0x290>
80001dac:	00442783          	lw	a5,4(s0)
80001db0:	0cb7dc63          	bge	a5,a1,80001e88 <_printf_float+0x364>
80001db4:	ffea8a93          	addi	s5,s5,-2
80001db8:	0ffafa93          	andi	s5,s5,255
80001dbc:	06500793          	li	a5,101
80001dc0:	0757e663          	bltu	a5,s5,80001e2c <_printf_float+0x308>
80001dc4:	fff58593          	addi	a1,a1,-1
80001dc8:	000a8613          	mv	a2,s5
80001dcc:	05040513          	addi	a0,s0,80
80001dd0:	02b12223          	sw	a1,36(sp)
80001dd4:	c91ff0ef          	jal	ra,80001a64 <__exponent>
80001dd8:	02812703          	lw	a4,40(sp)
80001ddc:	00100693          	li	a3,1
80001de0:	00050b13          	mv	s6,a0
80001de4:	00a707b3          	add	a5,a4,a0
80001de8:	00f42823          	sw	a5,16(s0)
80001dec:	00e6c863          	blt	a3,a4,80001dfc <_printf_float+0x2d8>
80001df0:	00042703          	lw	a4,0(s0)
80001df4:	00177713          	andi	a4,a4,1
80001df8:	00070663          	beqz	a4,80001e04 <_printf_float+0x2e0>
80001dfc:	00178793          	addi	a5,a5,1
80001e00:	00f42823          	sw	a5,16(s0)
80001e04:	02314783          	lbu	a5,35(sp)
80001e08:	e6078ee3          	beqz	a5,80001c84 <_printf_float+0x160>
80001e0c:	02d00793          	li	a5,45
80001e10:	04f401a3          	sb	a5,67(s0)
80001e14:	e71ff06f          	j	80001c84 <_printf_float+0x160>
80001e18:	04700713          	li	a4,71
80001e1c:	f4ed12e3          	bne	s10,a4,80001d60 <_printf_float+0x23c>
80001e20:	f40790e3          	bnez	a5,80001d60 <_printf_float+0x23c>
80001e24:	00100793          	li	a5,1
80001e28:	f35ff06f          	j	80001d5c <_printf_float+0x238>
80001e2c:	06600793          	li	a5,102
80001e30:	04fa9e63          	bne	s5,a5,80001e8c <_printf_float+0x368>
80001e34:	00442783          	lw	a5,4(s0)
80001e38:	02b05463          	blez	a1,80001e60 <_printf_float+0x33c>
80001e3c:	00b42823          	sw	a1,16(s0)
80001e40:	00079863          	bnez	a5,80001e50 <_printf_float+0x32c>
80001e44:	00042703          	lw	a4,0(s0)
80001e48:	00177713          	andi	a4,a4,1
80001e4c:	02070863          	beqz	a4,80001e7c <_printf_float+0x358>
80001e50:	00178793          	addi	a5,a5,1
80001e54:	00b787b3          	add	a5,a5,a1
80001e58:	00f42823          	sw	a5,16(s0)
80001e5c:	0200006f          	j	80001e7c <_printf_float+0x358>
80001e60:	00079a63          	bnez	a5,80001e74 <_printf_float+0x350>
80001e64:	00042703          	lw	a4,0(s0)
80001e68:	00100693          	li	a3,1
80001e6c:	00177713          	andi	a4,a4,1
80001e70:	00070463          	beqz	a4,80001e78 <_printf_float+0x354>
80001e74:	00278693          	addi	a3,a5,2
80001e78:	00d42823          	sw	a3,16(s0)
80001e7c:	04b42c23          	sw	a1,88(s0)
80001e80:	00000b13          	li	s6,0
80001e84:	f81ff06f          	j	80001e04 <_printf_float+0x2e0>
80001e88:	06700a93          	li	s5,103
80001e8c:	02812783          	lw	a5,40(sp)
80001e90:	00f5ce63          	blt	a1,a5,80001eac <_printf_float+0x388>
80001e94:	00042783          	lw	a5,0(s0)
80001e98:	00b42823          	sw	a1,16(s0)
80001e9c:	0017f793          	andi	a5,a5,1
80001ea0:	fc078ee3          	beqz	a5,80001e7c <_printf_float+0x358>
80001ea4:	00158793          	addi	a5,a1,1
80001ea8:	fb1ff06f          	j	80001e58 <_printf_float+0x334>
80001eac:	00100713          	li	a4,1
80001eb0:	00b04663          	bgtz	a1,80001ebc <_printf_float+0x398>
80001eb4:	00200713          	li	a4,2
80001eb8:	40b70733          	sub	a4,a4,a1
80001ebc:	00e787b3          	add	a5,a5,a4
80001ec0:	f99ff06f          	j	80001e58 <_printf_float+0x334>
80001ec4:	00042783          	lw	a5,0(s0)
80001ec8:	4007f713          	andi	a4,a5,1024
80001ecc:	02071e63          	bnez	a4,80001f08 <_printf_float+0x3e4>
80001ed0:	01042683          	lw	a3,16(s0)
80001ed4:	000a0613          	mv	a2,s4
80001ed8:	00090593          	mv	a1,s2
80001edc:	00048513          	mv	a0,s1
80001ee0:	000980e7          	jalr	s3
80001ee4:	dd9500e3          	beq	a0,s9,80001ca4 <_printf_float+0x180>
80001ee8:	00042783          	lw	a5,0(s0)
80001eec:	0027f793          	andi	a5,a5,2
80001ef0:	3a079e63          	bnez	a5,800022ac <_printf_float+0x788>
80001ef4:	02c12783          	lw	a5,44(sp)
80001ef8:	00c42503          	lw	a0,12(s0)
80001efc:	daf556e3          	bge	a0,a5,80001ca8 <_printf_float+0x184>
80001f00:	00078513          	mv	a0,a5
80001f04:	da5ff06f          	j	80001ca8 <_printf_float+0x184>
80001f08:	06500713          	li	a4,101
80001f0c:	29577863          	bgeu	a4,s5,8000219c <_printf_float+0x678>
80001f10:	04842503          	lw	a0,72(s0)
80001f14:	04c42583          	lw	a1,76(s0)
80001f18:	00000613          	li	a2,0
80001f1c:	00000693          	li	a3,0
80001f20:	2f0050ef          	jal	ra,80007210 <__eqdf2>
80001f24:	08051663          	bnez	a0,80001fb0 <_printf_float+0x48c>
80001f28:	00100693          	li	a3,1
80001f2c:	00008617          	auipc	a2,0x8
80001f30:	8e060613          	addi	a2,a2,-1824 # 8000980c <__extendsfdf2+0x7dc>
80001f34:	00090593          	mv	a1,s2
80001f38:	00048513          	mv	a0,s1
80001f3c:	000980e7          	jalr	s3
80001f40:	d79502e3          	beq	a0,s9,80001ca4 <_printf_float+0x180>
80001f44:	02412703          	lw	a4,36(sp)
80001f48:	02812783          	lw	a5,40(sp)
80001f4c:	00f74863          	blt	a4,a5,80001f5c <_printf_float+0x438>
80001f50:	00042783          	lw	a5,0(s0)
80001f54:	0017f793          	andi	a5,a5,1
80001f58:	f80788e3          	beqz	a5,80001ee8 <_printf_float+0x3c4>
80001f5c:	000b8693          	mv	a3,s7
80001f60:	000c0613          	mv	a2,s8
80001f64:	00090593          	mv	a1,s2
80001f68:	00048513          	mv	a0,s1
80001f6c:	000980e7          	jalr	s3
80001f70:	fff00793          	li	a5,-1
80001f74:	d2f508e3          	beq	a0,a5,80001ca4 <_printf_float+0x180>
80001f78:	00000a13          	li	s4,0
80001f7c:	01a40a93          	addi	s5,s0,26
80001f80:	fff00b13          	li	s6,-1
80001f84:	02812783          	lw	a5,40(sp)
80001f88:	fff78793          	addi	a5,a5,-1
80001f8c:	f4fa5ee3          	bge	s4,a5,80001ee8 <_printf_float+0x3c4>
80001f90:	00100693          	li	a3,1
80001f94:	000a8613          	mv	a2,s5
80001f98:	00090593          	mv	a1,s2
80001f9c:	00048513          	mv	a0,s1
80001fa0:	000980e7          	jalr	s3
80001fa4:	d16500e3          	beq	a0,s6,80001ca4 <_printf_float+0x180>
80001fa8:	001a0a13          	addi	s4,s4,1
80001fac:	fd9ff06f          	j	80001f84 <_printf_float+0x460>
80001fb0:	02412783          	lw	a5,36(sp)
80001fb4:	0af04863          	bgtz	a5,80002064 <_printf_float+0x540>
80001fb8:	00100693          	li	a3,1
80001fbc:	00008617          	auipc	a2,0x8
80001fc0:	85060613          	addi	a2,a2,-1968 # 8000980c <__extendsfdf2+0x7dc>
80001fc4:	00090593          	mv	a1,s2
80001fc8:	00048513          	mv	a0,s1
80001fcc:	000980e7          	jalr	s3
80001fd0:	cd950ae3          	beq	a0,s9,80001ca4 <_printf_float+0x180>
80001fd4:	02412783          	lw	a5,36(sp)
80001fd8:	02812703          	lw	a4,40(sp)
80001fdc:	00e7e7b3          	or	a5,a5,a4
80001fe0:	00079863          	bnez	a5,80001ff0 <_printf_float+0x4cc>
80001fe4:	00042783          	lw	a5,0(s0)
80001fe8:	0017f793          	andi	a5,a5,1
80001fec:	ee078ee3          	beqz	a5,80001ee8 <_printf_float+0x3c4>
80001ff0:	000b8693          	mv	a3,s7
80001ff4:	000c0613          	mv	a2,s8
80001ff8:	00090593          	mv	a1,s2
80001ffc:	00048513          	mv	a0,s1
80002000:	000980e7          	jalr	s3
80002004:	fff00793          	li	a5,-1
80002008:	c8f50ee3          	beq	a0,a5,80001ca4 <_printf_float+0x180>
8000200c:	00000a93          	li	s5,0
80002010:	01a40b13          	addi	s6,s0,26
80002014:	fff00b93          	li	s7,-1
80002018:	02412783          	lw	a5,36(sp)
8000201c:	40f007b3          	neg	a5,a5
80002020:	02fac263          	blt	s5,a5,80002044 <_printf_float+0x520>
80002024:	02812683          	lw	a3,40(sp)
80002028:	000a0613          	mv	a2,s4
8000202c:	00090593          	mv	a1,s2
80002030:	00048513          	mv	a0,s1
80002034:	000980e7          	jalr	s3
80002038:	fff00793          	li	a5,-1
8000203c:	eaf516e3          	bne	a0,a5,80001ee8 <_printf_float+0x3c4>
80002040:	c65ff06f          	j	80001ca4 <_printf_float+0x180>
80002044:	00100693          	li	a3,1
80002048:	000b0613          	mv	a2,s6
8000204c:	00090593          	mv	a1,s2
80002050:	00048513          	mv	a0,s1
80002054:	000980e7          	jalr	s3
80002058:	c57506e3          	beq	a0,s7,80001ca4 <_printf_float+0x180>
8000205c:	001a8a93          	addi	s5,s5,1
80002060:	fb9ff06f          	j	80002018 <_printf_float+0x4f4>
80002064:	05842783          	lw	a5,88(s0)
80002068:	02812a83          	lw	s5,40(sp)
8000206c:	0157d463          	bge	a5,s5,80002074 <_printf_float+0x550>
80002070:	00078a93          	mv	s5,a5
80002074:	0b504463          	bgtz	s5,8000211c <_printf_float+0x5f8>
80002078:	00000b13          	li	s6,0
8000207c:	01a40d13          	addi	s10,s0,26
80002080:	fff00d93          	li	s11,-1
80002084:	05842c83          	lw	s9,88(s0)
80002088:	000a8793          	mv	a5,s5
8000208c:	000ad463          	bgez	s5,80002094 <_printf_float+0x570>
80002090:	00000793          	li	a5,0
80002094:	40fc87b3          	sub	a5,s9,a5
80002098:	0afb4263          	blt	s6,a5,8000213c <_printf_float+0x618>
8000209c:	02412703          	lw	a4,36(sp)
800020a0:	02812783          	lw	a5,40(sp)
800020a4:	0af74c63          	blt	a4,a5,8000215c <_printf_float+0x638>
800020a8:	00042783          	lw	a5,0(s0)
800020ac:	0017f793          	andi	a5,a5,1
800020b0:	0a079663          	bnez	a5,8000215c <_printf_float+0x638>
800020b4:	02812a83          	lw	s5,40(sp)
800020b8:	02412703          	lw	a4,36(sp)
800020bc:	419a87b3          	sub	a5,s5,s9
800020c0:	40ea8ab3          	sub	s5,s5,a4
800020c4:	0157d463          	bge	a5,s5,800020cc <_printf_float+0x5a8>
800020c8:	00078a93          	mv	s5,a5
800020cc:	0b504863          	bgtz	s5,8000217c <_printf_float+0x658>
800020d0:	00000a13          	li	s4,0
800020d4:	01a40b13          	addi	s6,s0,26
800020d8:	fff00b93          	li	s7,-1
800020dc:	02412703          	lw	a4,36(sp)
800020e0:	02812783          	lw	a5,40(sp)
800020e4:	40e787b3          	sub	a5,a5,a4
800020e8:	000a8713          	mv	a4,s5
800020ec:	000ad463          	bgez	s5,800020f4 <_printf_float+0x5d0>
800020f0:	00000713          	li	a4,0
800020f4:	40e787b3          	sub	a5,a5,a4
800020f8:	defa58e3          	bge	s4,a5,80001ee8 <_printf_float+0x3c4>
800020fc:	00100693          	li	a3,1
80002100:	000b0613          	mv	a2,s6
80002104:	00090593          	mv	a1,s2
80002108:	00048513          	mv	a0,s1
8000210c:	000980e7          	jalr	s3
80002110:	b9750ae3          	beq	a0,s7,80001ca4 <_printf_float+0x180>
80002114:	001a0a13          	addi	s4,s4,1
80002118:	fc5ff06f          	j	800020dc <_printf_float+0x5b8>
8000211c:	000a8693          	mv	a3,s5
80002120:	000a0613          	mv	a2,s4
80002124:	00090593          	mv	a1,s2
80002128:	00048513          	mv	a0,s1
8000212c:	000980e7          	jalr	s3
80002130:	fff00793          	li	a5,-1
80002134:	f4f512e3          	bne	a0,a5,80002078 <_printf_float+0x554>
80002138:	b6dff06f          	j	80001ca4 <_printf_float+0x180>
8000213c:	00100693          	li	a3,1
80002140:	000d0613          	mv	a2,s10
80002144:	00090593          	mv	a1,s2
80002148:	00048513          	mv	a0,s1
8000214c:	000980e7          	jalr	s3
80002150:	b5b50ae3          	beq	a0,s11,80001ca4 <_printf_float+0x180>
80002154:	001b0b13          	addi	s6,s6,1
80002158:	f2dff06f          	j	80002084 <_printf_float+0x560>
8000215c:	000b8693          	mv	a3,s7
80002160:	000c0613          	mv	a2,s8
80002164:	00090593          	mv	a1,s2
80002168:	00048513          	mv	a0,s1
8000216c:	000980e7          	jalr	s3
80002170:	fff00793          	li	a5,-1
80002174:	f4f510e3          	bne	a0,a5,800020b4 <_printf_float+0x590>
80002178:	b2dff06f          	j	80001ca4 <_printf_float+0x180>
8000217c:	000a8693          	mv	a3,s5
80002180:	019a0633          	add	a2,s4,s9
80002184:	00090593          	mv	a1,s2
80002188:	00048513          	mv	a0,s1
8000218c:	000980e7          	jalr	s3
80002190:	fff00793          	li	a5,-1
80002194:	f2f51ee3          	bne	a0,a5,800020d0 <_printf_float+0x5ac>
80002198:	b0dff06f          	j	80001ca4 <_printf_float+0x180>
8000219c:	02812683          	lw	a3,40(sp)
800021a0:	00100713          	li	a4,1
800021a4:	00d74663          	blt	a4,a3,800021b0 <_printf_float+0x68c>
800021a8:	0017f793          	andi	a5,a5,1
800021ac:	0a078a63          	beqz	a5,80002260 <_printf_float+0x73c>
800021b0:	00100693          	li	a3,1
800021b4:	000a0613          	mv	a2,s4
800021b8:	00090593          	mv	a1,s2
800021bc:	00048513          	mv	a0,s1
800021c0:	000980e7          	jalr	s3
800021c4:	fff00a93          	li	s5,-1
800021c8:	ad550ee3          	beq	a0,s5,80001ca4 <_printf_float+0x180>
800021cc:	000b8693          	mv	a3,s7
800021d0:	000c0613          	mv	a2,s8
800021d4:	00090593          	mv	a1,s2
800021d8:	00048513          	mv	a0,s1
800021dc:	000980e7          	jalr	s3
800021e0:	ad5502e3          	beq	a0,s5,80001ca4 <_printf_float+0x180>
800021e4:	04842503          	lw	a0,72(s0)
800021e8:	04c42583          	lw	a1,76(s0)
800021ec:	00000613          	li	a2,0
800021f0:	00000693          	li	a3,0
800021f4:	01c050ef          	jal	ra,80007210 <__eqdf2>
800021f8:	04050c63          	beqz	a0,80002250 <_printf_float+0x72c>
800021fc:	02812683          	lw	a3,40(sp)
80002200:	001a0613          	addi	a2,s4,1
80002204:	00090593          	mv	a1,s2
80002208:	fff68693          	addi	a3,a3,-1
8000220c:	00048513          	mv	a0,s1
80002210:	000980e7          	jalr	s3
80002214:	a95508e3          	beq	a0,s5,80001ca4 <_printf_float+0x180>
80002218:	000b0693          	mv	a3,s6
8000221c:	05040613          	addi	a2,s0,80
80002220:	e0dff06f          	j	8000202c <_printf_float+0x508>
80002224:	00100693          	li	a3,1
80002228:	000a8613          	mv	a2,s5
8000222c:	00090593          	mv	a1,s2
80002230:	00048513          	mv	a0,s1
80002234:	000980e7          	jalr	s3
80002238:	a77506e3          	beq	a0,s7,80001ca4 <_printf_float+0x180>
8000223c:	001a0a13          	addi	s4,s4,1
80002240:	02812783          	lw	a5,40(sp)
80002244:	fff78793          	addi	a5,a5,-1
80002248:	fcfa4ee3          	blt	s4,a5,80002224 <_printf_float+0x700>
8000224c:	fcdff06f          	j	80002218 <_printf_float+0x6f4>
80002250:	00000a13          	li	s4,0
80002254:	01a40a93          	addi	s5,s0,26
80002258:	fff00b93          	li	s7,-1
8000225c:	fe5ff06f          	j	80002240 <_printf_float+0x71c>
80002260:	00100693          	li	a3,1
80002264:	000a0613          	mv	a2,s4
80002268:	00090593          	mv	a1,s2
8000226c:	00048513          	mv	a0,s1
80002270:	000980e7          	jalr	s3
80002274:	fb9512e3          	bne	a0,s9,80002218 <_printf_float+0x6f4>
80002278:	a2dff06f          	j	80001ca4 <_printf_float+0x180>
8000227c:	00100693          	li	a3,1
80002280:	000a8613          	mv	a2,s5
80002284:	00090593          	mv	a1,s2
80002288:	00048513          	mv	a0,s1
8000228c:	000980e7          	jalr	s3
80002290:	a1650ae3          	beq	a0,s6,80001ca4 <_printf_float+0x180>
80002294:	001a0a13          	addi	s4,s4,1
80002298:	00c42783          	lw	a5,12(s0)
8000229c:	02c12703          	lw	a4,44(sp)
800022a0:	40e787b3          	sub	a5,a5,a4
800022a4:	fcfa4ce3          	blt	s4,a5,8000227c <_printf_float+0x758>
800022a8:	c4dff06f          	j	80001ef4 <_printf_float+0x3d0>
800022ac:	00000a13          	li	s4,0
800022b0:	01940a93          	addi	s5,s0,25
800022b4:	fff00b13          	li	s6,-1
800022b8:	fe1ff06f          	j	80002298 <_printf_float+0x774>

800022bc <_printf_common>:
_printf_common():
800022bc:	fd010113          	addi	sp,sp,-48
800022c0:	01412c23          	sw	s4,24(sp)
800022c4:	0105a783          	lw	a5,16(a1)
800022c8:	00070a13          	mv	s4,a4
800022cc:	0085a703          	lw	a4,8(a1)
800022d0:	02812423          	sw	s0,40(sp)
800022d4:	02912223          	sw	s1,36(sp)
800022d8:	01312e23          	sw	s3,28(sp)
800022dc:	01512a23          	sw	s5,20(sp)
800022e0:	02112623          	sw	ra,44(sp)
800022e4:	03212023          	sw	s2,32(sp)
800022e8:	01612823          	sw	s6,16(sp)
800022ec:	01712623          	sw	s7,12(sp)
800022f0:	00050993          	mv	s3,a0
800022f4:	00058413          	mv	s0,a1
800022f8:	00060493          	mv	s1,a2
800022fc:	00068a93          	mv	s5,a3
80002300:	00e7d463          	bge	a5,a4,80002308 <_printf_common+0x4c>
80002304:	00070793          	mv	a5,a4
80002308:	00f4a023          	sw	a5,0(s1)
8000230c:	04344703          	lbu	a4,67(s0)
80002310:	00070663          	beqz	a4,8000231c <_printf_common+0x60>
80002314:	00178793          	addi	a5,a5,1
80002318:	00f4a023          	sw	a5,0(s1)
8000231c:	00042783          	lw	a5,0(s0)
80002320:	0207f793          	andi	a5,a5,32
80002324:	00078863          	beqz	a5,80002334 <_printf_common+0x78>
80002328:	0004a783          	lw	a5,0(s1)
8000232c:	00278793          	addi	a5,a5,2
80002330:	00f4a023          	sw	a5,0(s1)
80002334:	00042903          	lw	s2,0(s0)
80002338:	00697913          	andi	s2,s2,6
8000233c:	00091e63          	bnez	s2,80002358 <_printf_common+0x9c>
80002340:	01940b13          	addi	s6,s0,25
80002344:	fff00b93          	li	s7,-1
80002348:	00c42783          	lw	a5,12(s0)
8000234c:	0004a703          	lw	a4,0(s1)
80002350:	40e787b3          	sub	a5,a5,a4
80002354:	08f94263          	blt	s2,a5,800023d8 <_printf_common+0x11c>
80002358:	04344783          	lbu	a5,67(s0)
8000235c:	00f036b3          	snez	a3,a5
80002360:	00042783          	lw	a5,0(s0)
80002364:	0207f793          	andi	a5,a5,32
80002368:	0c079063          	bnez	a5,80002428 <_printf_common+0x16c>
8000236c:	04340613          	addi	a2,s0,67
80002370:	000a8593          	mv	a1,s5
80002374:	00098513          	mv	a0,s3
80002378:	000a00e7          	jalr	s4
8000237c:	fff00793          	li	a5,-1
80002380:	06f50863          	beq	a0,a5,800023f0 <_printf_common+0x134>
80002384:	00042783          	lw	a5,0(s0)
80002388:	00400613          	li	a2,4
8000238c:	0004a703          	lw	a4,0(s1)
80002390:	0067f793          	andi	a5,a5,6
80002394:	00c42683          	lw	a3,12(s0)
80002398:	00000493          	li	s1,0
8000239c:	00c79863          	bne	a5,a2,800023ac <_printf_common+0xf0>
800023a0:	40e684b3          	sub	s1,a3,a4
800023a4:	0004d463          	bgez	s1,800023ac <_printf_common+0xf0>
800023a8:	00000493          	li	s1,0
800023ac:	00842783          	lw	a5,8(s0)
800023b0:	01042703          	lw	a4,16(s0)
800023b4:	00f75663          	bge	a4,a5,800023c0 <_printf_common+0x104>
800023b8:	40e787b3          	sub	a5,a5,a4
800023bc:	00f484b3          	add	s1,s1,a5
800023c0:	00000913          	li	s2,0
800023c4:	01a40413          	addi	s0,s0,26
800023c8:	fff00b13          	li	s6,-1
800023cc:	09249063          	bne	s1,s2,8000244c <_printf_common+0x190>
800023d0:	00000513          	li	a0,0
800023d4:	0200006f          	j	800023f4 <_printf_common+0x138>
800023d8:	00100693          	li	a3,1
800023dc:	000b0613          	mv	a2,s6
800023e0:	000a8593          	mv	a1,s5
800023e4:	00098513          	mv	a0,s3
800023e8:	000a00e7          	jalr	s4
800023ec:	03751a63          	bne	a0,s7,80002420 <_printf_common+0x164>
800023f0:	fff00513          	li	a0,-1
800023f4:	02c12083          	lw	ra,44(sp)
800023f8:	02812403          	lw	s0,40(sp)
800023fc:	02412483          	lw	s1,36(sp)
80002400:	02012903          	lw	s2,32(sp)
80002404:	01c12983          	lw	s3,28(sp)
80002408:	01812a03          	lw	s4,24(sp)
8000240c:	01412a83          	lw	s5,20(sp)
80002410:	01012b03          	lw	s6,16(sp)
80002414:	00c12b83          	lw	s7,12(sp)
80002418:	03010113          	addi	sp,sp,48
8000241c:	00008067          	ret
80002420:	00190913          	addi	s2,s2,1
80002424:	f25ff06f          	j	80002348 <_printf_common+0x8c>
80002428:	00d40733          	add	a4,s0,a3
8000242c:	03000613          	li	a2,48
80002430:	04c701a3          	sb	a2,67(a4)
80002434:	04544703          	lbu	a4,69(s0)
80002438:	00168793          	addi	a5,a3,1
8000243c:	00f407b3          	add	a5,s0,a5
80002440:	00268693          	addi	a3,a3,2
80002444:	04e781a3          	sb	a4,67(a5)
80002448:	f25ff06f          	j	8000236c <_printf_common+0xb0>
8000244c:	00100693          	li	a3,1
80002450:	00040613          	mv	a2,s0
80002454:	000a8593          	mv	a1,s5
80002458:	00098513          	mv	a0,s3
8000245c:	000a00e7          	jalr	s4
80002460:	f96508e3          	beq	a0,s6,800023f0 <_printf_common+0x134>
80002464:	00190913          	addi	s2,s2,1
80002468:	f65ff06f          	j	800023cc <_printf_common+0x110>

8000246c <_printf_i>:
_printf_i():
8000246c:	fd010113          	addi	sp,sp,-48
80002470:	02812423          	sw	s0,40(sp)
80002474:	02912223          	sw	s1,36(sp)
80002478:	03212023          	sw	s2,32(sp)
8000247c:	01312e23          	sw	s3,28(sp)
80002480:	02112623          	sw	ra,44(sp)
80002484:	01412c23          	sw	s4,24(sp)
80002488:	01512a23          	sw	s5,20(sp)
8000248c:	01612823          	sw	s6,16(sp)
80002490:	0185c803          	lbu	a6,24(a1)
80002494:	07800793          	li	a5,120
80002498:	00050493          	mv	s1,a0
8000249c:	00058413          	mv	s0,a1
800024a0:	00060913          	mv	s2,a2
800024a4:	00068993          	mv	s3,a3
800024a8:	0107ee63          	bltu	a5,a6,800024c4 <_printf_i+0x58>
800024ac:	06200793          	li	a5,98
800024b0:	04358693          	addi	a3,a1,67
800024b4:	0107ee63          	bltu	a5,a6,800024d0 <_printf_i+0x64>
800024b8:	28080c63          	beqz	a6,80002750 <_printf_i+0x2e4>
800024bc:	05800793          	li	a5,88
800024c0:	1cf80263          	beq	a6,a5,80002684 <_printf_i+0x218>
800024c4:	04240a93          	addi	s5,s0,66
800024c8:	05040123          	sb	a6,66(s0)
800024cc:	0480006f          	j	80002514 <_printf_i+0xa8>
800024d0:	f9d80793          	addi	a5,a6,-99 # c1fff9d <dhry_stubs.c.aa5f359a+0xc1fc3c2>
800024d4:	0ff7f793          	andi	a5,a5,255
800024d8:	01500613          	li	a2,21
800024dc:	fef664e3          	bltu	a2,a5,800024c4 <_printf_i+0x58>
800024e0:	00007617          	auipc	a2,0x7
800024e4:	35860613          	addi	a2,a2,856 # 80009838 <__extendsfdf2+0x808>
800024e8:	00279793          	slli	a5,a5,0x2
800024ec:	00c787b3          	add	a5,a5,a2
800024f0:	0007a783          	lw	a5,0(a5)
800024f4:	00c787b3          	add	a5,a5,a2
800024f8:	00078067          	jr	a5
800024fc:	00072783          	lw	a5,0(a4)
80002500:	04258a93          	addi	s5,a1,66
80002504:	00478693          	addi	a3,a5,4
80002508:	0007a783          	lw	a5,0(a5)
8000250c:	00d72023          	sw	a3,0(a4)
80002510:	04f58123          	sb	a5,66(a1)
80002514:	00100793          	li	a5,1
80002518:	2740006f          	j	8000278c <_printf_i+0x320>
8000251c:	0005a783          	lw	a5,0(a1)
80002520:	00072503          	lw	a0,0(a4)
80002524:	0807f613          	andi	a2,a5,128
80002528:	00450593          	addi	a1,a0,4
8000252c:	02060663          	beqz	a2,80002558 <_printf_i+0xec>
80002530:	00052783          	lw	a5,0(a0)
80002534:	00b72023          	sw	a1,0(a4)
80002538:	0007d863          	bgez	a5,80002548 <_printf_i+0xdc>
8000253c:	02d00713          	li	a4,45
80002540:	40f007b3          	neg	a5,a5
80002544:	04e401a3          	sb	a4,67(s0)
80002548:	00007617          	auipc	a2,0x7
8000254c:	2c860613          	addi	a2,a2,712 # 80009810 <__extendsfdf2+0x7e0>
80002550:	00a00813          	li	a6,10
80002554:	0680006f          	j	800025bc <_printf_i+0x150>
80002558:	0407f613          	andi	a2,a5,64
8000255c:	00052783          	lw	a5,0(a0)
80002560:	00b72023          	sw	a1,0(a4)
80002564:	fc060ae3          	beqz	a2,80002538 <_printf_i+0xcc>
80002568:	01079793          	slli	a5,a5,0x10
8000256c:	4107d793          	srai	a5,a5,0x10
80002570:	fc9ff06f          	j	80002538 <_printf_i+0xcc>
80002574:	0005a603          	lw	a2,0(a1)
80002578:	00072783          	lw	a5,0(a4)
8000257c:	08067513          	andi	a0,a2,128
80002580:	00478593          	addi	a1,a5,4
80002584:	00050863          	beqz	a0,80002594 <_printf_i+0x128>
80002588:	00b72023          	sw	a1,0(a4)
8000258c:	0007a783          	lw	a5,0(a5)
80002590:	0140006f          	j	800025a4 <_printf_i+0x138>
80002594:	04067613          	andi	a2,a2,64
80002598:	00b72023          	sw	a1,0(a4)
8000259c:	fe0608e3          	beqz	a2,8000258c <_printf_i+0x120>
800025a0:	0007d783          	lhu	a5,0(a5)
800025a4:	06f00713          	li	a4,111
800025a8:	00007617          	auipc	a2,0x7
800025ac:	26860613          	addi	a2,a2,616 # 80009810 <__extendsfdf2+0x7e0>
800025b0:	14e80e63          	beq	a6,a4,8000270c <_printf_i+0x2a0>
800025b4:	00a00813          	li	a6,10
800025b8:	040401a3          	sb	zero,67(s0)
800025bc:	00442703          	lw	a4,4(s0)
800025c0:	00e42423          	sw	a4,8(s0)
800025c4:	00074863          	bltz	a4,800025d4 <_printf_i+0x168>
800025c8:	00042583          	lw	a1,0(s0)
800025cc:	ffb5f593          	andi	a1,a1,-5
800025d0:	00b42023          	sw	a1,0(s0)
800025d4:	00079663          	bnez	a5,800025e0 <_printf_i+0x174>
800025d8:	00068a93          	mv	s5,a3
800025dc:	02070463          	beqz	a4,80002604 <_printf_i+0x198>
800025e0:	00068a93          	mv	s5,a3
800025e4:	0307f733          	remu	a4,a5,a6
800025e8:	fffa8a93          	addi	s5,s5,-1
800025ec:	00e60733          	add	a4,a2,a4
800025f0:	00074703          	lbu	a4,0(a4)
800025f4:	00ea8023          	sb	a4,0(s5)
800025f8:	00078713          	mv	a4,a5
800025fc:	0307d7b3          	divu	a5,a5,a6
80002600:	ff0772e3          	bgeu	a4,a6,800025e4 <_printf_i+0x178>
80002604:	00800793          	li	a5,8
80002608:	02f81463          	bne	a6,a5,80002630 <_printf_i+0x1c4>
8000260c:	00042783          	lw	a5,0(s0)
80002610:	0017f793          	andi	a5,a5,1
80002614:	00078e63          	beqz	a5,80002630 <_printf_i+0x1c4>
80002618:	00442703          	lw	a4,4(s0)
8000261c:	01042783          	lw	a5,16(s0)
80002620:	00e7c863          	blt	a5,a4,80002630 <_printf_i+0x1c4>
80002624:	03000793          	li	a5,48
80002628:	fefa8fa3          	sb	a5,-1(s5)
8000262c:	fffa8a93          	addi	s5,s5,-1
80002630:	415686b3          	sub	a3,a3,s5
80002634:	00d42823          	sw	a3,16(s0)
80002638:	00098713          	mv	a4,s3
8000263c:	00090693          	mv	a3,s2
80002640:	00c10613          	addi	a2,sp,12
80002644:	00040593          	mv	a1,s0
80002648:	00048513          	mv	a0,s1
8000264c:	c71ff0ef          	jal	ra,800022bc <_printf_common>
80002650:	fff00a13          	li	s4,-1
80002654:	15451263          	bne	a0,s4,80002798 <_printf_i+0x32c>
80002658:	fff00513          	li	a0,-1
8000265c:	02c12083          	lw	ra,44(sp)
80002660:	02812403          	lw	s0,40(sp)
80002664:	02412483          	lw	s1,36(sp)
80002668:	02012903          	lw	s2,32(sp)
8000266c:	01c12983          	lw	s3,28(sp)
80002670:	01812a03          	lw	s4,24(sp)
80002674:	01412a83          	lw	s5,20(sp)
80002678:	01012b03          	lw	s6,16(sp)
8000267c:	03010113          	addi	sp,sp,48
80002680:	00008067          	ret
80002684:	050582a3          	sb	a6,69(a1)
80002688:	00007617          	auipc	a2,0x7
8000268c:	18860613          	addi	a2,a2,392 # 80009810 <__extendsfdf2+0x7e0>
80002690:	00042583          	lw	a1,0(s0)
80002694:	00072503          	lw	a0,0(a4)
80002698:	0805f813          	andi	a6,a1,128
8000269c:	00052783          	lw	a5,0(a0)
800026a0:	00450513          	addi	a0,a0,4
800026a4:	04080863          	beqz	a6,800026f4 <_printf_i+0x288>
800026a8:	00a72023          	sw	a0,0(a4)
800026ac:	0015f713          	andi	a4,a1,1
800026b0:	00070663          	beqz	a4,800026bc <_printf_i+0x250>
800026b4:	0205e593          	ori	a1,a1,32
800026b8:	00b42023          	sw	a1,0(s0)
800026bc:	01000813          	li	a6,16
800026c0:	ee079ce3          	bnez	a5,800025b8 <_printf_i+0x14c>
800026c4:	00042703          	lw	a4,0(s0)
800026c8:	fdf77713          	andi	a4,a4,-33
800026cc:	00e42023          	sw	a4,0(s0)
800026d0:	ee9ff06f          	j	800025b8 <_printf_i+0x14c>
800026d4:	0005a783          	lw	a5,0(a1)
800026d8:	0207e793          	ori	a5,a5,32
800026dc:	00f5a023          	sw	a5,0(a1)
800026e0:	07800793          	li	a5,120
800026e4:	04f402a3          	sb	a5,69(s0)
800026e8:	00007617          	auipc	a2,0x7
800026ec:	13c60613          	addi	a2,a2,316 # 80009824 <__extendsfdf2+0x7f4>
800026f0:	fa1ff06f          	j	80002690 <_printf_i+0x224>
800026f4:	0405f813          	andi	a6,a1,64
800026f8:	00a72023          	sw	a0,0(a4)
800026fc:	fa0808e3          	beqz	a6,800026ac <_printf_i+0x240>
80002700:	01079793          	slli	a5,a5,0x10
80002704:	0107d793          	srli	a5,a5,0x10
80002708:	fa5ff06f          	j	800026ac <_printf_i+0x240>
8000270c:	00800813          	li	a6,8
80002710:	ea9ff06f          	j	800025b8 <_printf_i+0x14c>
80002714:	0005a603          	lw	a2,0(a1)
80002718:	00072783          	lw	a5,0(a4)
8000271c:	0145a583          	lw	a1,20(a1)
80002720:	08067813          	andi	a6,a2,128
80002724:	00478513          	addi	a0,a5,4
80002728:	00080a63          	beqz	a6,8000273c <_printf_i+0x2d0>
8000272c:	00a72023          	sw	a0,0(a4)
80002730:	0007a783          	lw	a5,0(a5)
80002734:	00b7a023          	sw	a1,0(a5)
80002738:	0180006f          	j	80002750 <_printf_i+0x2e4>
8000273c:	00a72023          	sw	a0,0(a4)
80002740:	04067613          	andi	a2,a2,64
80002744:	0007a783          	lw	a5,0(a5)
80002748:	fe0606e3          	beqz	a2,80002734 <_printf_i+0x2c8>
8000274c:	00b79023          	sh	a1,0(a5)
80002750:	00042823          	sw	zero,16(s0)
80002754:	00068a93          	mv	s5,a3
80002758:	ee1ff06f          	j	80002638 <_printf_i+0x1cc>
8000275c:	00072783          	lw	a5,0(a4)
80002760:	0045a603          	lw	a2,4(a1)
80002764:	00000593          	li	a1,0
80002768:	00478693          	addi	a3,a5,4
8000276c:	00d72023          	sw	a3,0(a4)
80002770:	0007aa83          	lw	s5,0(a5)
80002774:	000a8513          	mv	a0,s5
80002778:	14d010ef          	jal	ra,800040c4 <memchr>
8000277c:	00050663          	beqz	a0,80002788 <_printf_i+0x31c>
80002780:	41550533          	sub	a0,a0,s5
80002784:	00a42223          	sw	a0,4(s0)
80002788:	00442783          	lw	a5,4(s0)
8000278c:	00f42823          	sw	a5,16(s0)
80002790:	040401a3          	sb	zero,67(s0)
80002794:	ea5ff06f          	j	80002638 <_printf_i+0x1cc>
80002798:	01042683          	lw	a3,16(s0)
8000279c:	000a8613          	mv	a2,s5
800027a0:	00090593          	mv	a1,s2
800027a4:	00048513          	mv	a0,s1
800027a8:	000980e7          	jalr	s3
800027ac:	eb4506e3          	beq	a0,s4,80002658 <_printf_i+0x1ec>
800027b0:	00042783          	lw	a5,0(s0)
800027b4:	0027f793          	andi	a5,a5,2
800027b8:	04079463          	bnez	a5,80002800 <_printf_i+0x394>
800027bc:	00c12783          	lw	a5,12(sp)
800027c0:	00c42503          	lw	a0,12(s0)
800027c4:	e8f55ce3          	bge	a0,a5,8000265c <_printf_i+0x1f0>
800027c8:	00078513          	mv	a0,a5
800027cc:	e91ff06f          	j	8000265c <_printf_i+0x1f0>
800027d0:	00100693          	li	a3,1
800027d4:	000a8613          	mv	a2,s5
800027d8:	00090593          	mv	a1,s2
800027dc:	00048513          	mv	a0,s1
800027e0:	000980e7          	jalr	s3
800027e4:	e7650ae3          	beq	a0,s6,80002658 <_printf_i+0x1ec>
800027e8:	001a0a13          	addi	s4,s4,1
800027ec:	00c42783          	lw	a5,12(s0)
800027f0:	00c12703          	lw	a4,12(sp)
800027f4:	40e787b3          	sub	a5,a5,a4
800027f8:	fcfa4ce3          	blt	s4,a5,800027d0 <_printf_i+0x364>
800027fc:	fc1ff06f          	j	800027bc <_printf_i+0x350>
80002800:	00000a13          	li	s4,0
80002804:	01940a93          	addi	s5,s0,25
80002808:	fff00b13          	li	s6,-1
8000280c:	fe1ff06f          	j	800027ec <_printf_i+0x380>

80002810 <iprintf>:
printf():
80002810:	fb010113          	addi	sp,sp,-80
80002814:	02812423          	sw	s0,40(sp)
80002818:	02112623          	sw	ra,44(sp)
8000281c:	00050413          	mv	s0,a0
80002820:	02b12a23          	sw	a1,52(sp)
80002824:	02c12c23          	sw	a2,56(sp)
80002828:	02d12e23          	sw	a3,60(sp)
8000282c:	04e12023          	sw	a4,64(sp)
80002830:	04f12223          	sw	a5,68(sp)
80002834:	05012423          	sw	a6,72(sp)
80002838:	05112623          	sw	a7,76(sp)
8000283c:	0fffe517          	auipc	a0,0xfffe
80002840:	99c52503          	lw	a0,-1636(a0) # 900001d8 <_impure_ptr>
80002844:	00050c63          	beqz	a0,8000285c <iprintf+0x4c>
80002848:	01852783          	lw	a5,24(a0)
8000284c:	00079863          	bnez	a5,8000285c <iprintf+0x4c>
80002850:	00a12623          	sw	a0,12(sp)
80002854:	5b0010ef          	jal	ra,80003e04 <__sinit>
80002858:	00c12503          	lw	a0,12(sp)
8000285c:	00852583          	lw	a1,8(a0)
80002860:	03410693          	addi	a3,sp,52
80002864:	00040613          	mv	a2,s0
80002868:	00d12e23          	sw	a3,28(sp)
8000286c:	1e5020ef          	jal	ra,80005250 <_vfiprintf_r>
80002870:	02c12083          	lw	ra,44(sp)
80002874:	02812403          	lw	s0,40(sp)
80002878:	05010113          	addi	sp,sp,80
8000287c:	00008067          	ret

80002880 <strlen>:
strlen():
80002880:	00050793          	mv	a5,a0
80002884:	0007c703          	lbu	a4,0(a5)
80002888:	00178793          	addi	a5,a5,1
8000288c:	fe071ce3          	bnez	a4,80002884 <strlen+0x4>
80002890:	40a78533          	sub	a0,a5,a0
80002894:	fff50513          	addi	a0,a0,-1
80002898:	00008067          	ret

8000289c <isatty>:
isatty():
8000289c:	83dfe06f          	j	800010d8 <_isatty>

800028a0 <__register_exitproc>:
__register_exitproc():
800028a0:	00050893          	mv	a7,a0
800028a4:	8a818513          	addi	a0,gp,-1880 # 90000278 <_global_atexit>
800028a8:	00052783          	lw	a5,0(a0)
800028ac:	02079463          	bnez	a5,800028d4 <__register_exitproc+0x34>
800028b0:	10000717          	auipc	a4,0x10000
800028b4:	24470713          	addi	a4,a4,580 # 90002af4 <_global_atexit0>
800028b8:	00e52023          	sw	a4,0(a0)
800028bc:	00000513          	li	a0,0
800028c0:	00070793          	mv	a5,a4
800028c4:	00050863          	beqz	a0,800028d4 <__register_exitproc+0x34>
800028c8:	00052783          	lw	a5,0(a0)
800028cc:	08f72423          	sw	a5,136(a4)
800028d0:	00070793          	mv	a5,a4
800028d4:	0047a703          	lw	a4,4(a5)
800028d8:	01f00813          	li	a6,31
800028dc:	fff00513          	li	a0,-1
800028e0:	06e84063          	blt	a6,a4,80002940 <__register_exitproc+0xa0>
800028e4:	04088263          	beqz	a7,80002928 <__register_exitproc+0x88>
800028e8:	0887a803          	lw	a6,136(a5)
800028ec:	04080a63          	beqz	a6,80002940 <__register_exitproc+0xa0>
800028f0:	00271513          	slli	a0,a4,0x2
800028f4:	00a80533          	add	a0,a6,a0
800028f8:	00c52023          	sw	a2,0(a0)
800028fc:	10082303          	lw	t1,256(a6)
80002900:	00100613          	li	a2,1
80002904:	00e61633          	sll	a2,a2,a4
80002908:	00c36333          	or	t1,t1,a2
8000290c:	10682023          	sw	t1,256(a6)
80002910:	08d52023          	sw	a3,128(a0)
80002914:	00200693          	li	a3,2
80002918:	00d89863          	bne	a7,a3,80002928 <__register_exitproc+0x88>
8000291c:	10482683          	lw	a3,260(a6)
80002920:	00c6e633          	or	a2,a3,a2
80002924:	10c82223          	sw	a2,260(a6)
80002928:	00170693          	addi	a3,a4,1
8000292c:	00271713          	slli	a4,a4,0x2
80002930:	00d7a223          	sw	a3,4(a5)
80002934:	00e787b3          	add	a5,a5,a4
80002938:	00b7a423          	sw	a1,8(a5)
8000293c:	00000513          	li	a0,0
80002940:	00008067          	ret

80002944 <quorem>:
quorem():
80002944:	fe010113          	addi	sp,sp,-32
80002948:	00812c23          	sw	s0,24(sp)
8000294c:	01052783          	lw	a5,16(a0)
80002950:	0105a403          	lw	s0,16(a1)
80002954:	00112e23          	sw	ra,28(sp)
80002958:	00912a23          	sw	s1,20(sp)
8000295c:	01212823          	sw	s2,16(sp)
80002960:	01312623          	sw	s3,12(sp)
80002964:	01412423          	sw	s4,8(sp)
80002968:	01512223          	sw	s5,4(sp)
8000296c:	1887ce63          	blt	a5,s0,80002b08 <quorem+0x1c4>
80002970:	fff40413          	addi	s0,s0,-1
80002974:	00241613          	slli	a2,s0,0x2
80002978:	01458a13          	addi	s4,a1,20
8000297c:	00ca0ab3          	add	s5,s4,a2
80002980:	01450993          	addi	s3,a0,20
80002984:	000aa783          	lw	a5,0(s5)
80002988:	00c98633          	add	a2,s3,a2
8000298c:	00062703          	lw	a4,0(a2)
80002990:	00178793          	addi	a5,a5,1
80002994:	00050913          	mv	s2,a0
80002998:	02f754b3          	divu	s1,a4,a5
8000299c:	08f76863          	bltu	a4,a5,80002a2c <quorem+0xe8>
800029a0:	00010537          	lui	a0,0x10
800029a4:	000a0813          	mv	a6,s4
800029a8:	00098893          	mv	a7,s3
800029ac:	00000313          	li	t1,0
800029b0:	00000e13          	li	t3,0
800029b4:	fff50513          	addi	a0,a0,-1 # ffff <dhry_stubs.c.aa5f359a+0xc424>
800029b8:	00082683          	lw	a3,0(a6)
800029bc:	00488893          	addi	a7,a7,4
800029c0:	00480813          	addi	a6,a6,4
800029c4:	00a6f7b3          	and	a5,a3,a0
800029c8:	0106d693          	srli	a3,a3,0x10
800029cc:	029787b3          	mul	a5,a5,s1
800029d0:	029686b3          	mul	a3,a3,s1
800029d4:	006787b3          	add	a5,a5,t1
800029d8:	0107d713          	srli	a4,a5,0x10
800029dc:	00a7f7b3          	and	a5,a5,a0
800029e0:	40fe07b3          	sub	a5,t3,a5
800029e4:	00e686b3          	add	a3,a3,a4
800029e8:	ffc8a703          	lw	a4,-4(a7)
800029ec:	0106d313          	srli	t1,a3,0x10
800029f0:	00a6f6b3          	and	a3,a3,a0
800029f4:	00a77e33          	and	t3,a4,a0
800029f8:	01c787b3          	add	a5,a5,t3
800029fc:	01075713          	srli	a4,a4,0x10
80002a00:	40d70733          	sub	a4,a4,a3
80002a04:	4107d693          	srai	a3,a5,0x10
80002a08:	00d70733          	add	a4,a4,a3
80002a0c:	41075e13          	srai	t3,a4,0x10
80002a10:	00a7f7b3          	and	a5,a5,a0
80002a14:	01071713          	slli	a4,a4,0x10
80002a18:	00f767b3          	or	a5,a4,a5
80002a1c:	fef8ae23          	sw	a5,-4(a7)
80002a20:	f90afce3          	bgeu	s5,a6,800029b8 <quorem+0x74>
80002a24:	00062783          	lw	a5,0(a2)
80002a28:	0a078a63          	beqz	a5,80002adc <quorem+0x198>
80002a2c:	00090513          	mv	a0,s2
80002a30:	134020ef          	jal	ra,80004b64 <__mcmp>
80002a34:	06054a63          	bltz	a0,80002aa8 <quorem+0x164>
80002a38:	000106b7          	lui	a3,0x10
80002a3c:	00148493          	addi	s1,s1,1
80002a40:	00098613          	mv	a2,s3
80002a44:	00000593          	li	a1,0
80002a48:	fff68693          	addi	a3,a3,-1 # ffff <dhry_stubs.c.aa5f359a+0xc424>
80002a4c:	000a2503          	lw	a0,0(s4)
80002a50:	00062783          	lw	a5,0(a2)
80002a54:	00460613          	addi	a2,a2,4
80002a58:	00d57733          	and	a4,a0,a3
80002a5c:	40e585b3          	sub	a1,a1,a4
80002a60:	00d7f733          	and	a4,a5,a3
80002a64:	00e58733          	add	a4,a1,a4
80002a68:	0107d793          	srli	a5,a5,0x10
80002a6c:	01055513          	srli	a0,a0,0x10
80002a70:	41075593          	srai	a1,a4,0x10
80002a74:	40a787b3          	sub	a5,a5,a0
80002a78:	00b787b3          	add	a5,a5,a1
80002a7c:	4107d593          	srai	a1,a5,0x10
80002a80:	00d77733          	and	a4,a4,a3
80002a84:	01079793          	slli	a5,a5,0x10
80002a88:	00e7e7b3          	or	a5,a5,a4
80002a8c:	004a0a13          	addi	s4,s4,4
80002a90:	fef62e23          	sw	a5,-4(a2)
80002a94:	fb4afce3          	bgeu	s5,s4,80002a4c <quorem+0x108>
80002a98:	00241793          	slli	a5,s0,0x2
80002a9c:	00f987b3          	add	a5,s3,a5
80002aa0:	0007a703          	lw	a4,0(a5)
80002aa4:	04070a63          	beqz	a4,80002af8 <quorem+0x1b4>
80002aa8:	00048513          	mv	a0,s1
80002aac:	01c12083          	lw	ra,28(sp)
80002ab0:	01812403          	lw	s0,24(sp)
80002ab4:	01412483          	lw	s1,20(sp)
80002ab8:	01012903          	lw	s2,16(sp)
80002abc:	00c12983          	lw	s3,12(sp)
80002ac0:	00812a03          	lw	s4,8(sp)
80002ac4:	00412a83          	lw	s5,4(sp)
80002ac8:	02010113          	addi	sp,sp,32
80002acc:	00008067          	ret
80002ad0:	00062783          	lw	a5,0(a2)
80002ad4:	00079863          	bnez	a5,80002ae4 <quorem+0x1a0>
80002ad8:	fff40413          	addi	s0,s0,-1
80002adc:	ffc60613          	addi	a2,a2,-4
80002ae0:	fec9e8e3          	bltu	s3,a2,80002ad0 <quorem+0x18c>
80002ae4:	00892823          	sw	s0,16(s2)
80002ae8:	f45ff06f          	j	80002a2c <quorem+0xe8>
80002aec:	0007a703          	lw	a4,0(a5)
80002af0:	00071863          	bnez	a4,80002b00 <quorem+0x1bc>
80002af4:	fff40413          	addi	s0,s0,-1
80002af8:	ffc78793          	addi	a5,a5,-4
80002afc:	fef9e8e3          	bltu	s3,a5,80002aec <quorem+0x1a8>
80002b00:	00892823          	sw	s0,16(s2)
80002b04:	fa5ff06f          	j	80002aa8 <quorem+0x164>
80002b08:	00000513          	li	a0,0
80002b0c:	fa1ff06f          	j	80002aac <quorem+0x168>

80002b10 <_dtoa_r>:
_dtoa_r():
80002b10:	f6010113          	addi	sp,sp,-160
80002b14:	02f12c23          	sw	a5,56(sp)
80002b18:	02452783          	lw	a5,36(a0)
80002b1c:	08812c23          	sw	s0,152(sp)
80002b20:	08912a23          	sw	s1,148(sp)
80002b24:	09212823          	sw	s2,144(sp)
80002b28:	09312623          	sw	s3,140(sp)
80002b2c:	09512223          	sw	s5,132(sp)
80002b30:	09612023          	sw	s6,128(sp)
80002b34:	08112e23          	sw	ra,156(sp)
80002b38:	09412423          	sw	s4,136(sp)
80002b3c:	07712e23          	sw	s7,124(sp)
80002b40:	07812c23          	sw	s8,120(sp)
80002b44:	07912a23          	sw	s9,116(sp)
80002b48:	07a12823          	sw	s10,112(sp)
80002b4c:	07b12623          	sw	s11,108(sp)
80002b50:	00d12a23          	sw	a3,20(sp)
80002b54:	02e12023          	sw	a4,32(sp)
80002b58:	03112223          	sw	a7,36(sp)
80002b5c:	00050493          	mv	s1,a0
80002b60:	00058a93          	mv	s5,a1
80002b64:	00060413          	mv	s0,a2
80002b68:	00080913          	mv	s2,a6
80002b6c:	00058993          	mv	s3,a1
80002b70:	00060b13          	mv	s6,a2
80002b74:	02079063          	bnez	a5,80002b94 <_dtoa_r+0x84>
80002b78:	01000513          	li	a0,16
80002b7c:	4dc010ef          	jal	ra,80004058 <malloc>
80002b80:	02a4a223          	sw	a0,36(s1)
80002b84:	00052223          	sw	zero,4(a0)
80002b88:	00052423          	sw	zero,8(a0)
80002b8c:	00052023          	sw	zero,0(a0)
80002b90:	00052623          	sw	zero,12(a0)
80002b94:	0244a783          	lw	a5,36(s1)
80002b98:	0007a583          	lw	a1,0(a5)
80002b9c:	02058463          	beqz	a1,80002bc4 <_dtoa_r+0xb4>
80002ba0:	0047a703          	lw	a4,4(a5)
80002ba4:	00100793          	li	a5,1
80002ba8:	00048513          	mv	a0,s1
80002bac:	00e797b3          	sll	a5,a5,a4
80002bb0:	00f5a423          	sw	a5,8(a1)
80002bb4:	00e5a223          	sw	a4,4(a1)
80002bb8:	7f0010ef          	jal	ra,800043a8 <_Bfree>
80002bbc:	0244a783          	lw	a5,36(s1)
80002bc0:	0007a023          	sw	zero,0(a5)
80002bc4:	04045e63          	bgez	s0,80002c20 <_dtoa_r+0x110>
80002bc8:	00100793          	li	a5,1
80002bcc:	00141413          	slli	s0,s0,0x1
80002bd0:	00f92023          	sw	a5,0(s2)
80002bd4:	00145b13          	srli	s6,s0,0x1
80002bd8:	7ff007b7          	lui	a5,0x7ff00
80002bdc:	00fb7733          	and	a4,s6,a5
80002be0:	0af71263          	bne	a4,a5,80002c84 <_dtoa_r+0x174>
80002be4:	03812703          	lw	a4,56(sp)
80002be8:	000027b7          	lui	a5,0x2
80002bec:	00cb1b13          	slli	s6,s6,0xc
80002bf0:	70f78793          	addi	a5,a5,1807 # 270f <hbirdv2_uart.c.43aed472+0x1c9>
80002bf4:	00cb5b13          	srli	s6,s6,0xc
80002bf8:	00f72023          	sw	a5,0(a4)
80002bfc:	015b6ab3          	or	s5,s6,s5
80002c00:	000a9463          	bnez	s5,80002c08 <_dtoa_r+0xf8>
80002c04:	0800106f          	j	80003c84 <_dtoa_r+0x1174>
80002c08:	02412783          	lw	a5,36(sp)
80002c0c:	00079e63          	bnez	a5,80002c28 <_dtoa_r+0x118>
80002c10:	00007797          	auipc	a5,0x7
80002c14:	c8c78793          	addi	a5,a5,-884 # 8000989c <__extendsfdf2+0x86c>
80002c18:	00f12623          	sw	a5,12(sp)
80002c1c:	0280006f          	j	80002c44 <_dtoa_r+0x134>
80002c20:	00092023          	sw	zero,0(s2)
80002c24:	fb5ff06f          	j	80002bd8 <_dtoa_r+0xc8>
80002c28:	00007797          	auipc	a5,0x7
80002c2c:	c7478793          	addi	a5,a5,-908 # 8000989c <__extendsfdf2+0x86c>
80002c30:	00f12623          	sw	a5,12(sp)
80002c34:	00007797          	auipc	a5,0x7
80002c38:	c6b78793          	addi	a5,a5,-917 # 8000989f <__extendsfdf2+0x86f>
80002c3c:	02412703          	lw	a4,36(sp)
80002c40:	00f72023          	sw	a5,0(a4)
80002c44:	09c12083          	lw	ra,156(sp)
80002c48:	09812403          	lw	s0,152(sp)
80002c4c:	00c12503          	lw	a0,12(sp)
80002c50:	09412483          	lw	s1,148(sp)
80002c54:	09012903          	lw	s2,144(sp)
80002c58:	08c12983          	lw	s3,140(sp)
80002c5c:	08812a03          	lw	s4,136(sp)
80002c60:	08412a83          	lw	s5,132(sp)
80002c64:	08012b03          	lw	s6,128(sp)
80002c68:	07c12b83          	lw	s7,124(sp)
80002c6c:	07812c03          	lw	s8,120(sp)
80002c70:	07412c83          	lw	s9,116(sp)
80002c74:	07012d03          	lw	s10,112(sp)
80002c78:	06c12d83          	lw	s11,108(sp)
80002c7c:	0a010113          	addi	sp,sp,160
80002c80:	00008067          	ret
80002c84:	00000613          	li	a2,0
80002c88:	00000693          	li	a3,0
80002c8c:	000a8513          	mv	a0,s5
80002c90:	000b0593          	mv	a1,s6
80002c94:	03512623          	sw	s5,44(sp)
80002c98:	03612823          	sw	s6,48(sp)
80002c9c:	574040ef          	jal	ra,80007210 <__eqdf2>
80002ca0:	02051863          	bnez	a0,80002cd0 <_dtoa_r+0x1c0>
80002ca4:	03812703          	lw	a4,56(sp)
80002ca8:	00100793          	li	a5,1
80002cac:	00f72023          	sw	a5,0(a4)
80002cb0:	00007797          	auipc	a5,0x7
80002cb4:	b5c78793          	addi	a5,a5,-1188 # 8000980c <__extendsfdf2+0x7dc>
80002cb8:	00f12623          	sw	a5,12(sp)
80002cbc:	02412783          	lw	a5,36(sp)
80002cc0:	f80782e3          	beqz	a5,80002c44 <_dtoa_r+0x134>
80002cc4:	00007797          	auipc	a5,0x7
80002cc8:	b4978793          	addi	a5,a5,-1207 # 8000980d <__extendsfdf2+0x7dd>
80002ccc:	f71ff06f          	j	80002c3c <_dtoa_r+0x12c>
80002cd0:	05810713          	addi	a4,sp,88
80002cd4:	05c10693          	addi	a3,sp,92
80002cd8:	000b0613          	mv	a2,s6
80002cdc:	000a8593          	mv	a1,s5
80002ce0:	00048513          	mv	a0,s1
80002ce4:	014b5913          	srli	s2,s6,0x14
80002ce8:	0cc020ef          	jal	ra,80004db4 <__d2b>
80002cec:	7ff97913          	andi	s2,s2,2047
80002cf0:	05812a03          	lw	s4,88(sp)
80002cf4:	00050413          	mv	s0,a0
80002cf8:	1a090a63          	beqz	s2,80002eac <_dtoa_r+0x39c>
80002cfc:	03012783          	lw	a5,48(sp)
80002d00:	02c12503          	lw	a0,44(sp)
80002d04:	c0190913          	addi	s2,s2,-1023
80002d08:	00c79593          	slli	a1,a5,0xc
80002d0c:	00c5d593          	srli	a1,a1,0xc
80002d10:	3ff007b7          	lui	a5,0x3ff00
80002d14:	00f5e5b3          	or	a1,a1,a5
80002d18:	04012023          	sw	zero,64(sp)
80002d1c:	0fffd797          	auipc	a5,0xfffd
80002d20:	4cc78793          	addi	a5,a5,1228 # 900001e8 <_impure_ptr+0x10>
80002d24:	0007a603          	lw	a2,0(a5)
80002d28:	0047a683          	lw	a3,4(a5)
80002d2c:	505040ef          	jal	ra,80007a30 <__subdf3>
80002d30:	0fffd797          	auipc	a5,0xfffd
80002d34:	4c078793          	addi	a5,a5,1216 # 900001f0 <_impure_ptr+0x18>
80002d38:	0007a603          	lw	a2,0(a5)
80002d3c:	0047a683          	lw	a3,4(a5)
80002d40:	724040ef          	jal	ra,80007464 <__muldf3>
80002d44:	0fffd797          	auipc	a5,0xfffd
80002d48:	4b478793          	addi	a5,a5,1204 # 900001f8 <_impure_ptr+0x20>
80002d4c:	0007a603          	lw	a2,0(a5)
80002d50:	0047a683          	lw	a3,4(a5)
80002d54:	600030ef          	jal	ra,80006354 <__adddf3>
80002d58:	00050b93          	mv	s7,a0
80002d5c:	00090513          	mv	a0,s2
80002d60:	00058a93          	mv	s5,a1
80002d64:	584050ef          	jal	ra,800082e8 <__floatsidf>
80002d68:	0fffd797          	auipc	a5,0xfffd
80002d6c:	49878793          	addi	a5,a5,1176 # 90000200 <_impure_ptr+0x28>
80002d70:	0007a603          	lw	a2,0(a5)
80002d74:	0047a683          	lw	a3,4(a5)
80002d78:	6ec040ef          	jal	ra,80007464 <__muldf3>
80002d7c:	00050613          	mv	a2,a0
80002d80:	00058693          	mv	a3,a1
80002d84:	000b8513          	mv	a0,s7
80002d88:	000a8593          	mv	a1,s5
80002d8c:	5c8030ef          	jal	ra,80006354 <__adddf3>
80002d90:	00050b93          	mv	s7,a0
80002d94:	00058a93          	mv	s5,a1
80002d98:	4d0050ef          	jal	ra,80008268 <__fixdfsi>
80002d9c:	00050d93          	mv	s11,a0
80002da0:	00000613          	li	a2,0
80002da4:	00000693          	li	a3,0
80002da8:	000b8513          	mv	a0,s7
80002dac:	000a8593          	mv	a1,s5
80002db0:	5d0040ef          	jal	ra,80007380 <__ledf2>
80002db4:	02055063          	bgez	a0,80002dd4 <_dtoa_r+0x2c4>
80002db8:	000d8513          	mv	a0,s11
80002dbc:	52c050ef          	jal	ra,800082e8 <__floatsidf>
80002dc0:	000b8613          	mv	a2,s7
80002dc4:	000a8693          	mv	a3,s5
80002dc8:	448040ef          	jal	ra,80007210 <__eqdf2>
80002dcc:	00050463          	beqz	a0,80002dd4 <_dtoa_r+0x2c4>
80002dd0:	fffd8d93          	addi	s11,s11,-1
80002dd4:	00100713          	li	a4,1
80002dd8:	01600793          	li	a5,22
80002ddc:	02e12a23          	sw	a4,52(sp)
80002de0:	03b7ea63          	bltu	a5,s11,80002e14 <_dtoa_r+0x304>
80002de4:	003d9713          	slli	a4,s11,0x3
80002de8:	00007797          	auipc	a5,0x7
80002dec:	c2078793          	addi	a5,a5,-992 # 80009a08 <__mprec_tens>
80002df0:	00e787b3          	add	a5,a5,a4
80002df4:	0007a603          	lw	a2,0(a5)
80002df8:	0047a683          	lw	a3,4(a5)
80002dfc:	02c12503          	lw	a0,44(sp)
80002e00:	03012583          	lw	a1,48(sp)
80002e04:	57c040ef          	jal	ra,80007380 <__ledf2>
80002e08:	00055463          	bgez	a0,80002e10 <_dtoa_r+0x300>
80002e0c:	fffd8d93          	addi	s11,s11,-1
80002e10:	02012a23          	sw	zero,52(sp)
80002e14:	412a0933          	sub	s2,s4,s2
80002e18:	fff90c13          	addi	s8,s2,-1
80002e1c:	00000b93          	li	s7,0
80002e20:	000c5863          	bgez	s8,80002e30 <_dtoa_r+0x320>
80002e24:	00100b93          	li	s7,1
80002e28:	412b8bb3          	sub	s7,s7,s2
80002e2c:	00000c13          	li	s8,0
80002e30:	0c0dc863          	bltz	s11,80002f00 <_dtoa_r+0x3f0>
80002e34:	01bc0c33          	add	s8,s8,s11
80002e38:	03b12423          	sw	s11,40(sp)
80002e3c:	00000c93          	li	s9,0
80002e40:	01412703          	lw	a4,20(sp)
80002e44:	00900793          	li	a5,9
80002e48:	16e7e063          	bltu	a5,a4,80002fa8 <_dtoa_r+0x498>
80002e4c:	00500793          	li	a5,5
80002e50:	00100913          	li	s2,1
80002e54:	00e7d863          	bge	a5,a4,80002e64 <_dtoa_r+0x354>
80002e58:	ffc70793          	addi	a5,a4,-4
80002e5c:	00f12a23          	sw	a5,20(sp)
80002e60:	00000913          	li	s2,0
80002e64:	01412703          	lw	a4,20(sp)
80002e68:	00400793          	li	a5,4
80002e6c:	0af70263          	beq	a4,a5,80002f10 <_dtoa_r+0x400>
80002e70:	00500793          	li	a5,5
80002e74:	10f70663          	beq	a4,a5,80002f80 <_dtoa_r+0x470>
80002e78:	00200793          	li	a5,2
80002e7c:	0ef70e63          	beq	a4,a5,80002f78 <_dtoa_r+0x468>
80002e80:	00300793          	li	a5,3
80002e84:	00012e23          	sw	zero,28(sp)
80002e88:	10f70063          	beq	a4,a5,80002f88 <_dtoa_r+0x478>
80002e8c:	00100793          	li	a5,1
80002e90:	00f12e23          	sw	a5,28(sp)
80002e94:	fff00793          	li	a5,-1
80002e98:	00f12823          	sw	a5,16(sp)
80002e9c:	fff00d13          	li	s10,-1
80002ea0:	01200793          	li	a5,18
80002ea4:	02012023          	sw	zero,32(sp)
80002ea8:	08c0006f          	j	80002f34 <_dtoa_r+0x424>
80002eac:	05c12903          	lw	s2,92(sp)
80002eb0:	02000793          	li	a5,32
80002eb4:	012a0933          	add	s2,s4,s2
80002eb8:	43290593          	addi	a1,s2,1074
80002ebc:	02b7dc63          	bge	a5,a1,80002ef4 <_dtoa_r+0x3e4>
80002ec0:	04000513          	li	a0,64
80002ec4:	40b50533          	sub	a0,a0,a1
80002ec8:	41290593          	addi	a1,s2,1042
80002ecc:	00ab1533          	sll	a0,s6,a0
80002ed0:	00badab3          	srl	s5,s5,a1
80002ed4:	01556533          	or	a0,a0,s5
80002ed8:	4b8050ef          	jal	ra,80008390 <__floatunsidf>
80002edc:	fe1007b7          	lui	a5,0xfe100
80002ee0:	00b785b3          	add	a1,a5,a1
80002ee4:	00100793          	li	a5,1
80002ee8:	fff90913          	addi	s2,s2,-1
80002eec:	04f12023          	sw	a5,64(sp)
80002ef0:	e2dff06f          	j	80002d1c <_dtoa_r+0x20c>
80002ef4:	40b78533          	sub	a0,a5,a1
80002ef8:	00aa9533          	sll	a0,s5,a0
80002efc:	fddff06f          	j	80002ed8 <_dtoa_r+0x3c8>
80002f00:	41bb8bb3          	sub	s7,s7,s11
80002f04:	41b00cb3          	neg	s9,s11
80002f08:	02012423          	sw	zero,40(sp)
80002f0c:	f35ff06f          	j	80002e40 <_dtoa_r+0x330>
80002f10:	00100793          	li	a5,1
80002f14:	00f12e23          	sw	a5,28(sp)
80002f18:	02012783          	lw	a5,32(sp)
80002f1c:	08f04c63          	bgtz	a5,80002fb4 <_dtoa_r+0x4a4>
80002f20:	00100793          	li	a5,1
80002f24:	00100713          	li	a4,1
80002f28:	00f12823          	sw	a5,16(sp)
80002f2c:	00100d13          	li	s10,1
80002f30:	02e12023          	sw	a4,32(sp)
80002f34:	0244a683          	lw	a3,36(s1)
80002f38:	00400713          	li	a4,4
80002f3c:	0006a223          	sw	zero,4(a3)
80002f40:	01470613          	addi	a2,a4,20
80002f44:	0046a583          	lw	a1,4(a3)
80002f48:	06c7fe63          	bgeu	a5,a2,80002fc4 <_dtoa_r+0x4b4>
80002f4c:	00048513          	mv	a0,s1
80002f50:	378010ef          	jal	ra,800042c8 <_Balloc>
80002f54:	00a12623          	sw	a0,12(sp)
80002f58:	06051e63          	bnez	a0,80002fd4 <_dtoa_r+0x4c4>
80002f5c:	00007697          	auipc	a3,0x7
80002f60:	94468693          	addi	a3,a3,-1724 # 800098a0 <__extendsfdf2+0x870>
80002f64:	00000613          	li	a2,0
80002f68:	1aa00593          	li	a1,426
80002f6c:	00007517          	auipc	a0,0x7
80002f70:	94850513          	addi	a0,a0,-1720 # 800098b4 <__extendsfdf2+0x884>
80002f74:	4b9020ef          	jal	ra,80005c2c <__assert_func>
80002f78:	00012e23          	sw	zero,28(sp)
80002f7c:	f9dff06f          	j	80002f18 <_dtoa_r+0x408>
80002f80:	00100793          	li	a5,1
80002f84:	00f12e23          	sw	a5,28(sp)
80002f88:	02012783          	lw	a5,32(sp)
80002f8c:	00fd87b3          	add	a5,s11,a5
80002f90:	00f12823          	sw	a5,16(sp)
80002f94:	00178d13          	addi	s10,a5,1 # fe100001 <_sp+0x6e0f0001>
80002f98:	000d0793          	mv	a5,s10
80002f9c:	f9a04ce3          	bgtz	s10,80002f34 <_dtoa_r+0x424>
80002fa0:	00100793          	li	a5,1
80002fa4:	f91ff06f          	j	80002f34 <_dtoa_r+0x424>
80002fa8:	00100913          	li	s2,1
80002fac:	00012a23          	sw	zero,20(sp)
80002fb0:	eddff06f          	j	80002e8c <_dtoa_r+0x37c>
80002fb4:	02012783          	lw	a5,32(sp)
80002fb8:	00f12823          	sw	a5,16(sp)
80002fbc:	00078d13          	mv	s10,a5
80002fc0:	f75ff06f          	j	80002f34 <_dtoa_r+0x424>
80002fc4:	00158593          	addi	a1,a1,1
80002fc8:	00b6a223          	sw	a1,4(a3)
80002fcc:	00171713          	slli	a4,a4,0x1
80002fd0:	f71ff06f          	j	80002f40 <_dtoa_r+0x430>
80002fd4:	0244a783          	lw	a5,36(s1)
80002fd8:	00c12703          	lw	a4,12(sp)
80002fdc:	00e7a023          	sw	a4,0(a5)
80002fe0:	00e00793          	li	a5,14
80002fe4:	1ba7e463          	bltu	a5,s10,8000318c <_dtoa_r+0x67c>
80002fe8:	1a090263          	beqz	s2,8000318c <_dtoa_r+0x67c>
80002fec:	27b05263          	blez	s11,80003250 <_dtoa_r+0x740>
80002ff0:	00fdf713          	andi	a4,s11,15
80002ff4:	00371793          	slli	a5,a4,0x3
80002ff8:	00007717          	auipc	a4,0x7
80002ffc:	a1070713          	addi	a4,a4,-1520 # 80009a08 <__mprec_tens>
80003000:	00f70733          	add	a4,a4,a5
80003004:	404dd913          	srai	s2,s11,0x4
80003008:	00072783          	lw	a5,0(a4)
8000300c:	00472a83          	lw	s5,4(a4)
80003010:	01097713          	andi	a4,s2,16
80003014:	00200a13          	li	s4,2
80003018:	02070c63          	beqz	a4,80003050 <_dtoa_r+0x540>
8000301c:	00007717          	auipc	a4,0x7
80003020:	9c470713          	addi	a4,a4,-1596 # 800099e0 <__mprec_bigtens>
80003024:	02072603          	lw	a2,32(a4)
80003028:	02472683          	lw	a3,36(a4)
8000302c:	02c12503          	lw	a0,44(sp)
80003030:	03012583          	lw	a1,48(sp)
80003034:	00f12c23          	sw	a5,24(sp)
80003038:	00f97913          	andi	s2,s2,15
8000303c:	2f1030ef          	jal	ra,80006b2c <__divdf3>
80003040:	01812783          	lw	a5,24(sp)
80003044:	00050993          	mv	s3,a0
80003048:	00058b13          	mv	s6,a1
8000304c:	00300a13          	li	s4,3
80003050:	00007717          	auipc	a4,0x7
80003054:	99070713          	addi	a4,a4,-1648 # 800099e0 <__mprec_bigtens>
80003058:	1a091e63          	bnez	s2,80003214 <_dtoa_r+0x704>
8000305c:	00098513          	mv	a0,s3
80003060:	00078613          	mv	a2,a5
80003064:	000a8693          	mv	a3,s5
80003068:	000b0593          	mv	a1,s6
8000306c:	2c1030ef          	jal	ra,80006b2c <__divdf3>
80003070:	00050993          	mv	s3,a0
80003074:	00058b13          	mv	s6,a1
80003078:	03412783          	lw	a5,52(sp)
8000307c:	26078263          	beqz	a5,800032e0 <_dtoa_r+0x7d0>
80003080:	0fffd797          	auipc	a5,0xfffd
80003084:	18878793          	addi	a5,a5,392 # 90000208 <_impure_ptr+0x30>
80003088:	0007a603          	lw	a2,0(a5)
8000308c:	0047a683          	lw	a3,4(a5)
80003090:	00098513          	mv	a0,s3
80003094:	000b0593          	mv	a1,s6
80003098:	2e8040ef          	jal	ra,80007380 <__ledf2>
8000309c:	24055263          	bgez	a0,800032e0 <_dtoa_r+0x7d0>
800030a0:	240d0663          	beqz	s10,800032ec <_dtoa_r+0x7dc>
800030a4:	01012783          	lw	a5,16(sp)
800030a8:	0cf05e63          	blez	a5,80003184 <_dtoa_r+0x674>
800030ac:	fffd8793          	addi	a5,s11,-1
800030b0:	00f12c23          	sw	a5,24(sp)
800030b4:	0fffd797          	auipc	a5,0xfffd
800030b8:	15c78793          	addi	a5,a5,348 # 90000210 <_impure_ptr+0x38>
800030bc:	0007a603          	lw	a2,0(a5)
800030c0:	0047a683          	lw	a3,4(a5)
800030c4:	00098513          	mv	a0,s3
800030c8:	000b0593          	mv	a1,s6
800030cc:	398040ef          	jal	ra,80007464 <__muldf3>
800030d0:	01012783          	lw	a5,16(sp)
800030d4:	00050993          	mv	s3,a0
800030d8:	00058b13          	mv	s6,a1
800030dc:	001a0a13          	addi	s4,s4,1
800030e0:	000a0513          	mv	a0,s4
800030e4:	04f12423          	sw	a5,72(sp)
800030e8:	05312223          	sw	s3,68(sp)
800030ec:	03612e23          	sw	s6,60(sp)
800030f0:	1f8050ef          	jal	ra,800082e8 <__floatsidf>
800030f4:	00098613          	mv	a2,s3
800030f8:	000b0693          	mv	a3,s6
800030fc:	368040ef          	jal	ra,80007464 <__muldf3>
80003100:	0fffd697          	auipc	a3,0xfffd
80003104:	11868693          	addi	a3,a3,280 # 90000218 <_impure_ptr+0x40>
80003108:	0006a603          	lw	a2,0(a3)
8000310c:	0046a683          	lw	a3,4(a3)
80003110:	00098a93          	mv	s5,s3
80003114:	fcc009b7          	lui	s3,0xfcc00
80003118:	23c030ef          	jal	ra,80006354 <__adddf3>
8000311c:	04812783          	lw	a5,72(sp)
80003120:	000b0913          	mv	s2,s6
80003124:	00050a13          	mv	s4,a0
80003128:	00b989b3          	add	s3,s3,a1
8000312c:	1c079663          	bnez	a5,800032f8 <_dtoa_r+0x7e8>
80003130:	0fffd797          	auipc	a5,0xfffd
80003134:	0f078793          	addi	a5,a5,240 # 90000220 <_impure_ptr+0x48>
80003138:	0007a603          	lw	a2,0(a5)
8000313c:	0047a683          	lw	a3,4(a5)
80003140:	000a8513          	mv	a0,s5
80003144:	000b0593          	mv	a1,s6
80003148:	0e9040ef          	jal	ra,80007a30 <__subdf3>
8000314c:	000a0613          	mv	a2,s4
80003150:	00098693          	mv	a3,s3
80003154:	00050a93          	mv	s5,a0
80003158:	00058913          	mv	s2,a1
8000315c:	140040ef          	jal	ra,8000729c <__gedf2>
80003160:	04a04ce3          	bgtz	a0,800039b8 <_dtoa_r+0xea8>
80003164:	800007b7          	lui	a5,0x80000
80003168:	0137c7b3          	xor	a5,a5,s3
8000316c:	000a0613          	mv	a2,s4
80003170:	00078693          	mv	a3,a5
80003174:	000a8513          	mv	a0,s5
80003178:	00090593          	mv	a1,s2
8000317c:	204040ef          	jal	ra,80007380 <__ledf2>
80003180:	020546e3          	bltz	a0,800039ac <_dtoa_r+0xe9c>
80003184:	02c12983          	lw	s3,44(sp)
80003188:	03012b03          	lw	s6,48(sp)
8000318c:	05c12783          	lw	a5,92(sp)
80003190:	4e07c463          	bltz	a5,80003678 <_dtoa_r+0xb68>
80003194:	00e00713          	li	a4,14
80003198:	4fb74063          	blt	a4,s11,80003678 <_dtoa_r+0xb68>
8000319c:	003d9713          	slli	a4,s11,0x3
800031a0:	00007797          	auipc	a5,0x7
800031a4:	86878793          	addi	a5,a5,-1944 # 80009a08 <__mprec_tens>
800031a8:	00e787b3          	add	a5,a5,a4
800031ac:	0007aa03          	lw	s4,0(a5)
800031b0:	0047aa83          	lw	s5,4(a5)
800031b4:	02012783          	lw	a5,32(sp)
800031b8:	3607d863          	bgez	a5,80003528 <_dtoa_r+0xa18>
800031bc:	37a04663          	bgtz	s10,80003528 <_dtoa_r+0xa18>
800031c0:	7e0d1663          	bnez	s10,800039ac <_dtoa_r+0xe9c>
800031c4:	0fffd797          	auipc	a5,0xfffd
800031c8:	05c78793          	addi	a5,a5,92 # 90000220 <_impure_ptr+0x48>
800031cc:	0007a603          	lw	a2,0(a5)
800031d0:	0047a683          	lw	a3,4(a5)
800031d4:	000a0513          	mv	a0,s4
800031d8:	000a8593          	mv	a1,s5
800031dc:	288040ef          	jal	ra,80007464 <__muldf3>
800031e0:	00098613          	mv	a2,s3
800031e4:	000b0693          	mv	a3,s6
800031e8:	0b4040ef          	jal	ra,8000729c <__gedf2>
800031ec:	00000a13          	li	s4,0
800031f0:	00000913          	li	s2,0
800031f4:	76055a63          	bgez	a0,80003968 <_dtoa_r+0xe58>
800031f8:	00c12783          	lw	a5,12(sp)
800031fc:	00c12703          	lw	a4,12(sp)
80003200:	001d8d93          	addi	s11,s11,1
80003204:	00178993          	addi	s3,a5,1
80003208:	03100793          	li	a5,49
8000320c:	00f70023          	sb	a5,0(a4)
80003210:	7640006f          	j	80003974 <_dtoa_r+0xe64>
80003214:	00197693          	andi	a3,s2,1
80003218:	02068663          	beqz	a3,80003244 <_dtoa_r+0x734>
8000321c:	00072603          	lw	a2,0(a4)
80003220:	00472683          	lw	a3,4(a4)
80003224:	00078513          	mv	a0,a5
80003228:	000a8593          	mv	a1,s5
8000322c:	00e12c23          	sw	a4,24(sp)
80003230:	234040ef          	jal	ra,80007464 <__muldf3>
80003234:	01812703          	lw	a4,24(sp)
80003238:	001a0a13          	addi	s4,s4,1
8000323c:	00050793          	mv	a5,a0
80003240:	00058a93          	mv	s5,a1
80003244:	40195913          	srai	s2,s2,0x1
80003248:	00870713          	addi	a4,a4,8
8000324c:	e0dff06f          	j	80003058 <_dtoa_r+0x548>
80003250:	00200a13          	li	s4,2
80003254:	e20d82e3          	beqz	s11,80003078 <_dtoa_r+0x568>
80003258:	41b00933          	neg	s2,s11
8000325c:	00f97793          	andi	a5,s2,15
80003260:	00379713          	slli	a4,a5,0x3
80003264:	00006797          	auipc	a5,0x6
80003268:	7a478793          	addi	a5,a5,1956 # 80009a08 <__mprec_tens>
8000326c:	00e787b3          	add	a5,a5,a4
80003270:	0007a603          	lw	a2,0(a5)
80003274:	0047a683          	lw	a3,4(a5)
80003278:	02c12503          	lw	a0,44(sp)
8000327c:	03012583          	lw	a1,48(sp)
80003280:	40495913          	srai	s2,s2,0x4
80003284:	00006a97          	auipc	s5,0x6
80003288:	75ca8a93          	addi	s5,s5,1884 # 800099e0 <__mprec_bigtens>
8000328c:	1d8040ef          	jal	ra,80007464 <__muldf3>
80003290:	00050793          	mv	a5,a0
80003294:	00050993          	mv	s3,a0
80003298:	00058b13          	mv	s6,a1
8000329c:	00000713          	li	a4,0
800032a0:	00091863          	bnez	s2,800032b0 <_dtoa_r+0x7a0>
800032a4:	dc070ae3          	beqz	a4,80003078 <_dtoa_r+0x568>
800032a8:	00078993          	mv	s3,a5
800032ac:	dc9ff06f          	j	80003074 <_dtoa_r+0x564>
800032b0:	00197693          	andi	a3,s2,1
800032b4:	02068063          	beqz	a3,800032d4 <_dtoa_r+0x7c4>
800032b8:	000aa603          	lw	a2,0(s5)
800032bc:	004aa683          	lw	a3,4(s5)
800032c0:	00078513          	mv	a0,a5
800032c4:	001a0a13          	addi	s4,s4,1
800032c8:	19c040ef          	jal	ra,80007464 <__muldf3>
800032cc:	00050793          	mv	a5,a0
800032d0:	00100713          	li	a4,1
800032d4:	40195913          	srai	s2,s2,0x1
800032d8:	008a8a93          	addi	s5,s5,8
800032dc:	fc5ff06f          	j	800032a0 <_dtoa_r+0x790>
800032e0:	01b12c23          	sw	s11,24(sp)
800032e4:	000d0793          	mv	a5,s10
800032e8:	df9ff06f          	j	800030e0 <_dtoa_r+0x5d0>
800032ec:	01b12c23          	sw	s11,24(sp)
800032f0:	00000793          	li	a5,0
800032f4:	dedff06f          	j	800030e0 <_dtoa_r+0x5d0>
800032f8:	00c12583          	lw	a1,12(sp)
800032fc:	fff78693          	addi	a3,a5,-1
80003300:	00369613          	slli	a2,a3,0x3
80003304:	00f587b3          	add	a5,a1,a5
80003308:	02f12e23          	sw	a5,60(sp)
8000330c:	01c12783          	lw	a5,28(sp)
80003310:	00006697          	auipc	a3,0x6
80003314:	6f868693          	addi	a3,a3,1784 # 80009a08 <__mprec_tens>
80003318:	00c686b3          	add	a3,a3,a2
8000331c:	0006a603          	lw	a2,0(a3)
80003320:	0046a683          	lw	a3,4(a3)
80003324:	10078263          	beqz	a5,80003428 <_dtoa_r+0x918>
80003328:	0fffd797          	auipc	a5,0xfffd
8000332c:	f0078793          	addi	a5,a5,-256 # 90000228 <_impure_ptr+0x50>
80003330:	0007a503          	lw	a0,0(a5)
80003334:	0047a583          	lw	a1,4(a5)
80003338:	05412223          	sw	s4,68(sp)
8000333c:	7f0030ef          	jal	ra,80006b2c <__divdf3>
80003340:	000a0613          	mv	a2,s4
80003344:	00098693          	mv	a3,s3
80003348:	6e8040ef          	jal	ra,80007a30 <__subdf3>
8000334c:	00c12983          	lw	s3,12(sp)
80003350:	00050a13          	mv	s4,a0
80003354:	00058b13          	mv	s6,a1
80003358:	00090593          	mv	a1,s2
8000335c:	000a8513          	mv	a0,s5
80003360:	709040ef          	jal	ra,80008268 <__fixdfsi>
80003364:	04a12223          	sw	a0,68(sp)
80003368:	781040ef          	jal	ra,800082e8 <__floatsidf>
8000336c:	00050613          	mv	a2,a0
80003370:	00058693          	mv	a3,a1
80003374:	000a8513          	mv	a0,s5
80003378:	00090593          	mv	a1,s2
8000337c:	6b4040ef          	jal	ra,80007a30 <__subdf3>
80003380:	04412783          	lw	a5,68(sp)
80003384:	00198993          	addi	s3,s3,1 # fcc00001 <_sp+0x6cbf0001>
80003388:	000a0613          	mv	a2,s4
8000338c:	03078793          	addi	a5,a5,48
80003390:	fef98fa3          	sb	a5,-1(s3)
80003394:	000b0693          	mv	a3,s6
80003398:	00050913          	mv	s2,a0
8000339c:	00058a93          	mv	s5,a1
800033a0:	7e1030ef          	jal	ra,80007380 <__ledf2>
800033a4:	14054e63          	bltz	a0,80003500 <_dtoa_r+0x9f0>
800033a8:	0fffd797          	auipc	a5,0xfffd
800033ac:	e6078793          	addi	a5,a5,-416 # 90000208 <_impure_ptr+0x30>
800033b0:	0007a503          	lw	a0,0(a5)
800033b4:	0047a583          	lw	a1,4(a5)
800033b8:	00090613          	mv	a2,s2
800033bc:	000a8693          	mv	a3,s5
800033c0:	670040ef          	jal	ra,80007a30 <__subdf3>
800033c4:	000a0613          	mv	a2,s4
800033c8:	000b0693          	mv	a3,s6
800033cc:	7b5030ef          	jal	ra,80007380 <__ledf2>
800033d0:	22054c63          	bltz	a0,80003608 <_dtoa_r+0xaf8>
800033d4:	03c12783          	lw	a5,60(sp)
800033d8:	daf986e3          	beq	s3,a5,80003184 <_dtoa_r+0x674>
800033dc:	0fffd797          	auipc	a5,0xfffd
800033e0:	e3478793          	addi	a5,a5,-460 # 90000210 <_impure_ptr+0x38>
800033e4:	0007a603          	lw	a2,0(a5)
800033e8:	0047a683          	lw	a3,4(a5)
800033ec:	000a0513          	mv	a0,s4
800033f0:	000b0593          	mv	a1,s6
800033f4:	070040ef          	jal	ra,80007464 <__muldf3>
800033f8:	0fffd797          	auipc	a5,0xfffd
800033fc:	e1878793          	addi	a5,a5,-488 # 90000210 <_impure_ptr+0x38>
80003400:	0007a603          	lw	a2,0(a5)
80003404:	0047a683          	lw	a3,4(a5)
80003408:	00050a13          	mv	s4,a0
8000340c:	00058b13          	mv	s6,a1
80003410:	00090513          	mv	a0,s2
80003414:	000a8593          	mv	a1,s5
80003418:	04c040ef          	jal	ra,80007464 <__muldf3>
8000341c:	00050a93          	mv	s5,a0
80003420:	00058913          	mv	s2,a1
80003424:	f35ff06f          	j	80003358 <_dtoa_r+0x848>
80003428:	00098593          	mv	a1,s3
8000342c:	000a0513          	mv	a0,s4
80003430:	034040ef          	jal	ra,80007464 <__muldf3>
80003434:	03c12b03          	lw	s6,60(sp)
80003438:	00c12983          	lw	s3,12(sp)
8000343c:	04a12223          	sw	a0,68(sp)
80003440:	04b12423          	sw	a1,72(sp)
80003444:	00090593          	mv	a1,s2
80003448:	000a8513          	mv	a0,s5
8000344c:	61d040ef          	jal	ra,80008268 <__fixdfsi>
80003450:	04a12623          	sw	a0,76(sp)
80003454:	695040ef          	jal	ra,800082e8 <__floatsidf>
80003458:	00050613          	mv	a2,a0
8000345c:	00058693          	mv	a3,a1
80003460:	000a8513          	mv	a0,s5
80003464:	00090593          	mv	a1,s2
80003468:	5c8040ef          	jal	ra,80007a30 <__subdf3>
8000346c:	04c12783          	lw	a5,76(sp)
80003470:	00198993          	addi	s3,s3,1
80003474:	00050a13          	mv	s4,a0
80003478:	03078793          	addi	a5,a5,48
8000347c:	fef98fa3          	sb	a5,-1(s3)
80003480:	03c12783          	lw	a5,60(sp)
80003484:	00058913          	mv	s2,a1
80003488:	08f99063          	bne	s3,a5,80003508 <_dtoa_r+0x9f8>
8000348c:	0fffda97          	auipc	s5,0xfffd
80003490:	d9ca8a93          	addi	s5,s5,-612 # 90000228 <_impure_ptr+0x50>
80003494:	000aa603          	lw	a2,0(s5)
80003498:	004aa683          	lw	a3,4(s5)
8000349c:	04412503          	lw	a0,68(sp)
800034a0:	04812583          	lw	a1,72(sp)
800034a4:	6b1020ef          	jal	ra,80006354 <__adddf3>
800034a8:	00050613          	mv	a2,a0
800034ac:	00058693          	mv	a3,a1
800034b0:	000a0513          	mv	a0,s4
800034b4:	00090593          	mv	a1,s2
800034b8:	5e5030ef          	jal	ra,8000729c <__gedf2>
800034bc:	14a04663          	bgtz	a0,80003608 <_dtoa_r+0xaf8>
800034c0:	04412603          	lw	a2,68(sp)
800034c4:	04812683          	lw	a3,72(sp)
800034c8:	000aa503          	lw	a0,0(s5)
800034cc:	004aa583          	lw	a1,4(s5)
800034d0:	560040ef          	jal	ra,80007a30 <__subdf3>
800034d4:	00050613          	mv	a2,a0
800034d8:	00058693          	mv	a3,a1
800034dc:	000a0513          	mv	a0,s4
800034e0:	00090593          	mv	a1,s2
800034e4:	69d030ef          	jal	ra,80007380 <__ledf2>
800034e8:	c8055ee3          	bgez	a0,80003184 <_dtoa_r+0x674>
800034ec:	03000793          	li	a5,48
800034f0:	000b0993          	mv	s3,s6
800034f4:	fff9c703          	lbu	a4,-1(s3)
800034f8:	fffb0b13          	addi	s6,s6,-1
800034fc:	fef70ae3          	beq	a4,a5,800034f0 <_dtoa_r+0x9e0>
80003500:	01812d83          	lw	s11,24(sp)
80003504:	0d40006f          	j	800035d8 <_dtoa_r+0xac8>
80003508:	0fffd797          	auipc	a5,0xfffd
8000350c:	d0878793          	addi	a5,a5,-760 # 90000210 <_impure_ptr+0x38>
80003510:	0007a603          	lw	a2,0(a5)
80003514:	0047a683          	lw	a3,4(a5)
80003518:	74d030ef          	jal	ra,80007464 <__muldf3>
8000351c:	00050a93          	mv	s5,a0
80003520:	00058913          	mv	s2,a1
80003524:	f21ff06f          	j	80003444 <_dtoa_r+0x934>
80003528:	00c12783          	lw	a5,12(sp)
8000352c:	000b0c13          	mv	s8,s6
80003530:	00098c93          	mv	s9,s3
80003534:	00178b13          	addi	s6,a5,1
80003538:	01a78d33          	add	s10,a5,s10
8000353c:	0fffdb97          	auipc	s7,0xfffd
80003540:	cd4b8b93          	addi	s7,s7,-812 # 90000210 <_impure_ptr+0x38>
80003544:	000a0613          	mv	a2,s4
80003548:	000a8693          	mv	a3,s5
8000354c:	000c8513          	mv	a0,s9
80003550:	000c0593          	mv	a1,s8
80003554:	5d8030ef          	jal	ra,80006b2c <__divdf3>
80003558:	511040ef          	jal	ra,80008268 <__fixdfsi>
8000355c:	00050913          	mv	s2,a0
80003560:	589040ef          	jal	ra,800082e8 <__floatsidf>
80003564:	000a0613          	mv	a2,s4
80003568:	000a8693          	mv	a3,s5
8000356c:	6f9030ef          	jal	ra,80007464 <__muldf3>
80003570:	00058693          	mv	a3,a1
80003574:	00050613          	mv	a2,a0
80003578:	000c0593          	mv	a1,s8
8000357c:	000c8513          	mv	a0,s9
80003580:	4b0040ef          	jal	ra,80007a30 <__subdf3>
80003584:	03090693          	addi	a3,s2,48
80003588:	fedb0fa3          	sb	a3,-1(s6)
8000358c:	000b0993          	mv	s3,s6
80003590:	0b6d1e63          	bne	s10,s6,8000364c <_dtoa_r+0xb3c>
80003594:	00050613          	mv	a2,a0
80003598:	00058693          	mv	a3,a1
8000359c:	5b9020ef          	jal	ra,80006354 <__adddf3>
800035a0:	000a0613          	mv	a2,s4
800035a4:	000a8693          	mv	a3,s5
800035a8:	00050b93          	mv	s7,a0
800035ac:	00058b13          	mv	s6,a1
800035b0:	4ed030ef          	jal	ra,8000729c <__gedf2>
800035b4:	04a04863          	bgtz	a0,80003604 <_dtoa_r+0xaf4>
800035b8:	000a0613          	mv	a2,s4
800035bc:	000a8693          	mv	a3,s5
800035c0:	000b8513          	mv	a0,s7
800035c4:	000b0593          	mv	a1,s6
800035c8:	449030ef          	jal	ra,80007210 <__eqdf2>
800035cc:	00051663          	bnez	a0,800035d8 <_dtoa_r+0xac8>
800035d0:	00197913          	andi	s2,s2,1
800035d4:	02091863          	bnez	s2,80003604 <_dtoa_r+0xaf4>
800035d8:	00048513          	mv	a0,s1
800035dc:	00040593          	mv	a1,s0
800035e0:	5c9000ef          	jal	ra,800043a8 <_Bfree>
800035e4:	03812783          	lw	a5,56(sp)
800035e8:	00098023          	sb	zero,0(s3)
800035ec:	001d8513          	addi	a0,s11,1
800035f0:	00a7a023          	sw	a0,0(a5)
800035f4:	02412783          	lw	a5,36(sp)
800035f8:	e4078663          	beqz	a5,80002c44 <_dtoa_r+0x134>
800035fc:	0137a023          	sw	s3,0(a5)
80003600:	e44ff06f          	j	80002c44 <_dtoa_r+0x134>
80003604:	01b12c23          	sw	s11,24(sp)
80003608:	00098793          	mv	a5,s3
8000360c:	03900713          	li	a4,57
80003610:	00078993          	mv	s3,a5
80003614:	fff7c683          	lbu	a3,-1(a5)
80003618:	fff78793          	addi	a5,a5,-1
8000361c:	02e69063          	bne	a3,a4,8000363c <_dtoa_r+0xb2c>
80003620:	00c12683          	lw	a3,12(sp)
80003624:	fef696e3          	bne	a3,a5,80003610 <_dtoa_r+0xb00>
80003628:	01812703          	lw	a4,24(sp)
8000362c:	00170713          	addi	a4,a4,1
80003630:	00e12c23          	sw	a4,24(sp)
80003634:	03000713          	li	a4,48
80003638:	00e68023          	sb	a4,0(a3)
8000363c:	0007c703          	lbu	a4,0(a5)
80003640:	00170713          	addi	a4,a4,1
80003644:	00e78023          	sb	a4,0(a5)
80003648:	eb9ff06f          	j	80003500 <_dtoa_r+0x9f0>
8000364c:	000ba603          	lw	a2,0(s7)
80003650:	004ba683          	lw	a3,4(s7)
80003654:	001b0b13          	addi	s6,s6,1
80003658:	60d030ef          	jal	ra,80007464 <__muldf3>
8000365c:	00000613          	li	a2,0
80003660:	00000693          	li	a3,0
80003664:	00050c93          	mv	s9,a0
80003668:	00058c13          	mv	s8,a1
8000366c:	3a5030ef          	jal	ra,80007210 <__eqdf2>
80003670:	ec051ae3          	bnez	a0,80003544 <_dtoa_r+0xa34>
80003674:	f65ff06f          	j	800035d8 <_dtoa_r+0xac8>
80003678:	01c12703          	lw	a4,28(sp)
8000367c:	16070c63          	beqz	a4,800037f4 <_dtoa_r+0xce4>
80003680:	01412683          	lw	a3,20(sp)
80003684:	00100713          	li	a4,1
80003688:	12d74463          	blt	a4,a3,800037b0 <_dtoa_r+0xca0>
8000368c:	04012703          	lw	a4,64(sp)
80003690:	43378793          	addi	a5,a5,1075
80003694:	00071863          	bnez	a4,800036a4 <_dtoa_r+0xb94>
80003698:	05812703          	lw	a4,88(sp)
8000369c:	03600793          	li	a5,54
800036a0:	40e787b3          	sub	a5,a5,a4
800036a4:	000c8a13          	mv	s4,s9
800036a8:	000b8a93          	mv	s5,s7
800036ac:	00100593          	li	a1,1
800036b0:	00048513          	mv	a0,s1
800036b4:	00fb8bb3          	add	s7,s7,a5
800036b8:	00fc0c33          	add	s8,s8,a5
800036bc:	7a5000ef          	jal	ra,80004660 <__i2b>
800036c0:	00050913          	mv	s2,a0
800036c4:	03505063          	blez	s5,800036e4 <_dtoa_r+0xbd4>
800036c8:	01805e63          	blez	s8,800036e4 <_dtoa_r+0xbd4>
800036cc:	000a8793          	mv	a5,s5
800036d0:	015c5463          	bge	s8,s5,800036d8 <_dtoa_r+0xbc8>
800036d4:	000c0793          	mv	a5,s8
800036d8:	40fb8bb3          	sub	s7,s7,a5
800036dc:	40fa8ab3          	sub	s5,s5,a5
800036e0:	40fc0c33          	sub	s8,s8,a5
800036e4:	060c8263          	beqz	s9,80003748 <_dtoa_r+0xc38>
800036e8:	01c12783          	lw	a5,28(sp)
800036ec:	10078c63          	beqz	a5,80003804 <_dtoa_r+0xcf4>
800036f0:	05405063          	blez	s4,80003730 <_dtoa_r+0xc20>
800036f4:	00090593          	mv	a1,s2
800036f8:	000a0613          	mv	a2,s4
800036fc:	00048513          	mv	a0,s1
80003700:	1bc010ef          	jal	ra,800048bc <__pow5mult>
80003704:	00040613          	mv	a2,s0
80003708:	00050593          	mv	a1,a0
8000370c:	00050913          	mv	s2,a0
80003710:	00048513          	mv	a0,s1
80003714:	7a1000ef          	jal	ra,800046b4 <__multiply>
80003718:	00a12c23          	sw	a0,24(sp)
8000371c:	00040593          	mv	a1,s0
80003720:	00048513          	mv	a0,s1
80003724:	485000ef          	jal	ra,800043a8 <_Bfree>
80003728:	01812783          	lw	a5,24(sp)
8000372c:	00078413          	mv	s0,a5
80003730:	414c8633          	sub	a2,s9,s4
80003734:	014c8a63          	beq	s9,s4,80003748 <_dtoa_r+0xc38>
80003738:	00040593          	mv	a1,s0
8000373c:	00048513          	mv	a0,s1
80003740:	17c010ef          	jal	ra,800048bc <__pow5mult>
80003744:	00050413          	mv	s0,a0
80003748:	00100593          	li	a1,1
8000374c:	00048513          	mv	a0,s1
80003750:	711000ef          	jal	ra,80004660 <__i2b>
80003754:	02812783          	lw	a5,40(sp)
80003758:	00050a13          	mv	s4,a0
8000375c:	0af05863          	blez	a5,8000380c <_dtoa_r+0xcfc>
80003760:	00078613          	mv	a2,a5
80003764:	00050593          	mv	a1,a0
80003768:	00048513          	mv	a0,s1
8000376c:	150010ef          	jal	ra,800048bc <__pow5mult>
80003770:	01412703          	lw	a4,20(sp)
80003774:	00100793          	li	a5,1
80003778:	00050a13          	mv	s4,a0
8000377c:	00000c93          	li	s9,0
80003780:	0ae7c463          	blt	a5,a4,80003828 <_dtoa_r+0xd18>
80003784:	00000c93          	li	s9,0
80003788:	08099a63          	bnez	s3,8000381c <_dtoa_r+0xd0c>
8000378c:	00cb1793          	slli	a5,s6,0xc
80003790:	08079663          	bnez	a5,8000381c <_dtoa_r+0xd0c>
80003794:	7ff005b7          	lui	a1,0x7ff00
80003798:	00bb7b33          	and	s6,s6,a1
8000379c:	080b0063          	beqz	s6,8000381c <_dtoa_r+0xd0c>
800037a0:	001b8b93          	addi	s7,s7,1
800037a4:	001c0c13          	addi	s8,s8,1
800037a8:	00100c93          	li	s9,1
800037ac:	0700006f          	j	8000381c <_dtoa_r+0xd0c>
800037b0:	fffd0a13          	addi	s4,s10,-1
800037b4:	014ccc63          	blt	s9,s4,800037cc <_dtoa_r+0xcbc>
800037b8:	414c8a33          	sub	s4,s9,s4
800037bc:	020d5663          	bgez	s10,800037e8 <_dtoa_r+0xcd8>
800037c0:	41ab8ab3          	sub	s5,s7,s10
800037c4:	00000793          	li	a5,0
800037c8:	ee5ff06f          	j	800036ac <_dtoa_r+0xb9c>
800037cc:	02812783          	lw	a5,40(sp)
800037d0:	419a0cb3          	sub	s9,s4,s9
800037d4:	019787b3          	add	a5,a5,s9
800037d8:	02f12423          	sw	a5,40(sp)
800037dc:	000a0c93          	mv	s9,s4
800037e0:	00000a13          	li	s4,0
800037e4:	fd9ff06f          	j	800037bc <_dtoa_r+0xcac>
800037e8:	000b8a93          	mv	s5,s7
800037ec:	000d0793          	mv	a5,s10
800037f0:	ebdff06f          	j	800036ac <_dtoa_r+0xb9c>
800037f4:	000c8a13          	mv	s4,s9
800037f8:	000b8a93          	mv	s5,s7
800037fc:	00000913          	li	s2,0
80003800:	ec5ff06f          	j	800036c4 <_dtoa_r+0xbb4>
80003804:	000c8613          	mv	a2,s9
80003808:	f31ff06f          	j	80003738 <_dtoa_r+0xc28>
8000380c:	01412703          	lw	a4,20(sp)
80003810:	00100793          	li	a5,1
80003814:	00000c93          	li	s9,0
80003818:	f6e7d6e3          	bge	a5,a4,80003784 <_dtoa_r+0xc74>
8000381c:	02812783          	lw	a5,40(sp)
80003820:	00100513          	li	a0,1
80003824:	02078263          	beqz	a5,80003848 <_dtoa_r+0xd38>
80003828:	010a2783          	lw	a5,16(s4)
8000382c:	00378793          	addi	a5,a5,3
80003830:	00279793          	slli	a5,a5,0x2
80003834:	00fa07b3          	add	a5,s4,a5
80003838:	0047a503          	lw	a0,4(a5)
8000383c:	501000ef          	jal	ra,8000453c <__hi0bits>
80003840:	02000793          	li	a5,32
80003844:	40a78533          	sub	a0,a5,a0
80003848:	00ac0533          	add	a0,s8,a0
8000384c:	01f57513          	andi	a0,a0,31
80003850:	0c050663          	beqz	a0,8000391c <_dtoa_r+0xe0c>
80003854:	02000793          	li	a5,32
80003858:	40a787b3          	sub	a5,a5,a0
8000385c:	00400713          	li	a4,4
80003860:	0af75a63          	bge	a4,a5,80003914 <_dtoa_r+0xe04>
80003864:	01c00793          	li	a5,28
80003868:	40a78533          	sub	a0,a5,a0
8000386c:	00ab8bb3          	add	s7,s7,a0
80003870:	00aa8ab3          	add	s5,s5,a0
80003874:	00ac0c33          	add	s8,s8,a0
80003878:	01705c63          	blez	s7,80003890 <_dtoa_r+0xd80>
8000387c:	00040593          	mv	a1,s0
80003880:	000b8613          	mv	a2,s7
80003884:	00048513          	mv	a0,s1
80003888:	158010ef          	jal	ra,800049e0 <__lshift>
8000388c:	00050413          	mv	s0,a0
80003890:	01805c63          	blez	s8,800038a8 <_dtoa_r+0xd98>
80003894:	000a0593          	mv	a1,s4
80003898:	000c0613          	mv	a2,s8
8000389c:	00048513          	mv	a0,s1
800038a0:	140010ef          	jal	ra,800049e0 <__lshift>
800038a4:	00050a13          	mv	s4,a0
800038a8:	03412783          	lw	a5,52(sp)
800038ac:	06078c63          	beqz	a5,80003924 <_dtoa_r+0xe14>
800038b0:	000a0593          	mv	a1,s4
800038b4:	00040513          	mv	a0,s0
800038b8:	2ac010ef          	jal	ra,80004b64 <__mcmp>
800038bc:	06055463          	bgez	a0,80003924 <_dtoa_r+0xe14>
800038c0:	00040593          	mv	a1,s0
800038c4:	00000693          	li	a3,0
800038c8:	00a00613          	li	a2,10
800038cc:	00048513          	mv	a0,s1
800038d0:	34d000ef          	jal	ra,8000441c <__multadd>
800038d4:	01c12783          	lw	a5,28(sp)
800038d8:	fffd8d93          	addi	s11,s11,-1
800038dc:	00050413          	mv	s0,a0
800038e0:	3c078463          	beqz	a5,80003ca8 <_dtoa_r+0x1198>
800038e4:	00090593          	mv	a1,s2
800038e8:	00000693          	li	a3,0
800038ec:	00a00613          	li	a2,10
800038f0:	00048513          	mv	a0,s1
800038f4:	329000ef          	jal	ra,8000441c <__multadd>
800038f8:	01012783          	lw	a5,16(sp)
800038fc:	00050913          	mv	s2,a0
80003900:	0cf04a63          	bgtz	a5,800039d4 <_dtoa_r+0xec4>
80003904:	01412703          	lw	a4,20(sp)
80003908:	00200793          	li	a5,2
8000390c:	02e7c663          	blt	a5,a4,80003938 <_dtoa_r+0xe28>
80003910:	0c40006f          	j	800039d4 <_dtoa_r+0xec4>
80003914:	f6e782e3          	beq	a5,a4,80003878 <_dtoa_r+0xd68>
80003918:	00078513          	mv	a0,a5
8000391c:	01c50513          	addi	a0,a0,28
80003920:	f4dff06f          	j	8000386c <_dtoa_r+0xd5c>
80003924:	0ba04263          	bgtz	s10,800039c8 <_dtoa_r+0xeb8>
80003928:	01412703          	lw	a4,20(sp)
8000392c:	00200793          	li	a5,2
80003930:	08e7dc63          	bge	a5,a4,800039c8 <_dtoa_r+0xeb8>
80003934:	01a12823          	sw	s10,16(sp)
80003938:	01012783          	lw	a5,16(sp)
8000393c:	02079663          	bnez	a5,80003968 <_dtoa_r+0xe58>
80003940:	000a0593          	mv	a1,s4
80003944:	00000693          	li	a3,0
80003948:	00500613          	li	a2,5
8000394c:	00048513          	mv	a0,s1
80003950:	2cd000ef          	jal	ra,8000441c <__multadd>
80003954:	00050a13          	mv	s4,a0
80003958:	00050593          	mv	a1,a0
8000395c:	00040513          	mv	a0,s0
80003960:	204010ef          	jal	ra,80004b64 <__mcmp>
80003964:	88a04ae3          	bgtz	a0,800031f8 <_dtoa_r+0x6e8>
80003968:	02012783          	lw	a5,32(sp)
8000396c:	00c12983          	lw	s3,12(sp)
80003970:	fff7cd93          	not	s11,a5
80003974:	00000b13          	li	s6,0
80003978:	000a0593          	mv	a1,s4
8000397c:	00048513          	mv	a0,s1
80003980:	229000ef          	jal	ra,800043a8 <_Bfree>
80003984:	c4090ae3          	beqz	s2,800035d8 <_dtoa_r+0xac8>
80003988:	000b0a63          	beqz	s6,8000399c <_dtoa_r+0xe8c>
8000398c:	012b0863          	beq	s6,s2,8000399c <_dtoa_r+0xe8c>
80003990:	000b0593          	mv	a1,s6
80003994:	00048513          	mv	a0,s1
80003998:	211000ef          	jal	ra,800043a8 <_Bfree>
8000399c:	00090593          	mv	a1,s2
800039a0:	00048513          	mv	a0,s1
800039a4:	205000ef          	jal	ra,800043a8 <_Bfree>
800039a8:	c31ff06f          	j	800035d8 <_dtoa_r+0xac8>
800039ac:	00000a13          	li	s4,0
800039b0:	00000913          	li	s2,0
800039b4:	fb5ff06f          	j	80003968 <_dtoa_r+0xe58>
800039b8:	01812d83          	lw	s11,24(sp)
800039bc:	00000a13          	li	s4,0
800039c0:	00000913          	li	s2,0
800039c4:	835ff06f          	j	800031f8 <_dtoa_r+0x6e8>
800039c8:	01c12783          	lw	a5,28(sp)
800039cc:	01a12823          	sw	s10,16(sp)
800039d0:	2e078663          	beqz	a5,80003cbc <_dtoa_r+0x11ac>
800039d4:	01505c63          	blez	s5,800039ec <_dtoa_r+0xedc>
800039d8:	00090593          	mv	a1,s2
800039dc:	000a8613          	mv	a2,s5
800039e0:	00048513          	mv	a0,s1
800039e4:	7fd000ef          	jal	ra,800049e0 <__lshift>
800039e8:	00050913          	mv	s2,a0
800039ec:	00090513          	mv	a0,s2
800039f0:	040c8a63          	beqz	s9,80003a44 <_dtoa_r+0xf34>
800039f4:	00492583          	lw	a1,4(s2)
800039f8:	00048513          	mv	a0,s1
800039fc:	0cd000ef          	jal	ra,800042c8 <_Balloc>
80003a00:	00050a93          	mv	s5,a0
80003a04:	00051c63          	bnez	a0,80003a1c <_dtoa_r+0xf0c>
80003a08:	00006697          	auipc	a3,0x6
80003a0c:	e9868693          	addi	a3,a3,-360 # 800098a0 <__extendsfdf2+0x870>
80003a10:	00000613          	li	a2,0
80003a14:	2ea00593          	li	a1,746
80003a18:	d54ff06f          	j	80002f6c <_dtoa_r+0x45c>
80003a1c:	01092603          	lw	a2,16(s2)
80003a20:	00c90593          	addi	a1,s2,12
80003a24:	00c50513          	addi	a0,a0,12
80003a28:	00260613          	addi	a2,a2,2
80003a2c:	00261613          	slli	a2,a2,0x2
80003a30:	6b8000ef          	jal	ra,800040e8 <memcpy>
80003a34:	00100613          	li	a2,1
80003a38:	000a8593          	mv	a1,s5
80003a3c:	00048513          	mv	a0,s1
80003a40:	7a1000ef          	jal	ra,800049e0 <__lshift>
80003a44:	00c12783          	lw	a5,12(sp)
80003a48:	01012703          	lw	a4,16(sp)
80003a4c:	00090b13          	mv	s6,s2
80003a50:	00178c13          	addi	s8,a5,1
80003a54:	00e787b3          	add	a5,a5,a4
80003a58:	00f12c23          	sw	a5,24(sp)
80003a5c:	0019f793          	andi	a5,s3,1
80003a60:	00050913          	mv	s2,a0
80003a64:	00f12823          	sw	a5,16(sp)
80003a68:	000a0593          	mv	a1,s4
80003a6c:	00040513          	mv	a0,s0
80003a70:	ed5fe0ef          	jal	ra,80002944 <quorem>
80003a74:	000b0593          	mv	a1,s6
80003a78:	00050c93          	mv	s9,a0
80003a7c:	03050a93          	addi	s5,a0,48
80003a80:	00040513          	mv	a0,s0
80003a84:	0e0010ef          	jal	ra,80004b64 <__mcmp>
80003a88:	000a0593          	mv	a1,s4
80003a8c:	00050b93          	mv	s7,a0
80003a90:	00090613          	mv	a2,s2
80003a94:	00048513          	mv	a0,s1
80003a98:	120010ef          	jal	ra,80004bb8 <__mdiff>
80003a9c:	00c52683          	lw	a3,12(a0)
80003aa0:	fffc0d13          	addi	s10,s8,-1
80003aa4:	00050593          	mv	a1,a0
80003aa8:	00100713          	li	a4,1
80003aac:	00069c63          	bnez	a3,80003ac4 <_dtoa_r+0xfb4>
80003ab0:	00a12e23          	sw	a0,28(sp)
80003ab4:	00040513          	mv	a0,s0
80003ab8:	0ac010ef          	jal	ra,80004b64 <__mcmp>
80003abc:	01c12583          	lw	a1,28(sp)
80003ac0:	00050713          	mv	a4,a0
80003ac4:	00048513          	mv	a0,s1
80003ac8:	00e12e23          	sw	a4,28(sp)
80003acc:	0dd000ef          	jal	ra,800043a8 <_Bfree>
80003ad0:	01412783          	lw	a5,20(sp)
80003ad4:	01c12703          	lw	a4,28(sp)
80003ad8:	000c0993          	mv	s3,s8
80003adc:	00e7e6b3          	or	a3,a5,a4
80003ae0:	01012783          	lw	a5,16(sp)
80003ae4:	00f6e6b3          	or	a3,a3,a5
80003ae8:	00069e63          	bnez	a3,80003b04 <_dtoa_r+0xff4>
80003aec:	03900713          	li	a4,57
80003af0:	06ea8263          	beq	s5,a4,80003b54 <_dtoa_r+0x1044>
80003af4:	01705463          	blez	s7,80003afc <_dtoa_r+0xfec>
80003af8:	031c8a93          	addi	s5,s9,49
80003afc:	015d0023          	sb	s5,0(s10)
80003b00:	e79ff06f          	j	80003978 <_dtoa_r+0xe68>
80003b04:	000bcc63          	bltz	s7,80003b1c <_dtoa_r+0x100c>
80003b08:	01412783          	lw	a5,20(sp)
80003b0c:	0177ebb3          	or	s7,a5,s7
80003b10:	01012783          	lw	a5,16(sp)
80003b14:	00fbebb3          	or	s7,s7,a5
80003b18:	060b9463          	bnez	s7,80003b80 <_dtoa_r+0x1070>
80003b1c:	fee050e3          	blez	a4,80003afc <_dtoa_r+0xfec>
80003b20:	00040593          	mv	a1,s0
80003b24:	00100613          	li	a2,1
80003b28:	00048513          	mv	a0,s1
80003b2c:	6b5000ef          	jal	ra,800049e0 <__lshift>
80003b30:	000a0593          	mv	a1,s4
80003b34:	00050413          	mv	s0,a0
80003b38:	02c010ef          	jal	ra,80004b64 <__mcmp>
80003b3c:	00a04863          	bgtz	a0,80003b4c <_dtoa_r+0x103c>
80003b40:	fa051ee3          	bnez	a0,80003afc <_dtoa_r+0xfec>
80003b44:	001af713          	andi	a4,s5,1
80003b48:	fa070ae3          	beqz	a4,80003afc <_dtoa_r+0xfec>
80003b4c:	03900713          	li	a4,57
80003b50:	faea94e3          	bne	s5,a4,80003af8 <_dtoa_r+0xfe8>
80003b54:	03900793          	li	a5,57
80003b58:	00fd0023          	sb	a5,0(s10)
80003b5c:	00098793          	mv	a5,s3
80003b60:	03900693          	li	a3,57
80003b64:	00078993          	mv	s3,a5
80003b68:	fff9c703          	lbu	a4,-1(s3)
80003b6c:	fff78793          	addi	a5,a5,-1
80003b70:	0ed70e63          	beq	a4,a3,80003c6c <_dtoa_r+0x115c>
80003b74:	00170713          	addi	a4,a4,1
80003b78:	00e78023          	sb	a4,0(a5)
80003b7c:	dfdff06f          	j	80003978 <_dtoa_r+0xe68>
80003b80:	00e05c63          	blez	a4,80003b98 <_dtoa_r+0x1088>
80003b84:	03900713          	li	a4,57
80003b88:	fcea86e3          	beq	s5,a4,80003b54 <_dtoa_r+0x1044>
80003b8c:	001a8793          	addi	a5,s5,1
80003b90:	00fd0023          	sb	a5,0(s10)
80003b94:	de5ff06f          	j	80003978 <_dtoa_r+0xe68>
80003b98:	01812783          	lw	a5,24(sp)
80003b9c:	ff5c0fa3          	sb	s5,-1(s8)
80003ba0:	09878263          	beq	a5,s8,80003c24 <_dtoa_r+0x1114>
80003ba4:	00040593          	mv	a1,s0
80003ba8:	00000693          	li	a3,0
80003bac:	00a00613          	li	a2,10
80003bb0:	00048513          	mv	a0,s1
80003bb4:	069000ef          	jal	ra,8000441c <__multadd>
80003bb8:	00050413          	mv	s0,a0
80003bbc:	00000693          	li	a3,0
80003bc0:	00a00613          	li	a2,10
80003bc4:	000b0593          	mv	a1,s6
80003bc8:	00048513          	mv	a0,s1
80003bcc:	012b1c63          	bne	s6,s2,80003be4 <_dtoa_r+0x10d4>
80003bd0:	04d000ef          	jal	ra,8000441c <__multadd>
80003bd4:	00050b13          	mv	s6,a0
80003bd8:	00050913          	mv	s2,a0
80003bdc:	001c0c13          	addi	s8,s8,1
80003be0:	e89ff06f          	j	80003a68 <_dtoa_r+0xf58>
80003be4:	039000ef          	jal	ra,8000441c <__multadd>
80003be8:	00090593          	mv	a1,s2
80003bec:	00050b13          	mv	s6,a0
80003bf0:	00000693          	li	a3,0
80003bf4:	00a00613          	li	a2,10
80003bf8:	00048513          	mv	a0,s1
80003bfc:	021000ef          	jal	ra,8000441c <__multadd>
80003c00:	00050913          	mv	s2,a0
80003c04:	fd9ff06f          	j	80003bdc <_dtoa_r+0x10cc>
80003c08:	01012783          	lw	a5,16(sp)
80003c0c:	00100993          	li	s3,1
80003c10:	00f05463          	blez	a5,80003c18 <_dtoa_r+0x1108>
80003c14:	00078993          	mv	s3,a5
80003c18:	00c12783          	lw	a5,12(sp)
80003c1c:	00000b13          	li	s6,0
80003c20:	013789b3          	add	s3,a5,s3
80003c24:	00040593          	mv	a1,s0
80003c28:	00100613          	li	a2,1
80003c2c:	00048513          	mv	a0,s1
80003c30:	5b1000ef          	jal	ra,800049e0 <__lshift>
80003c34:	000a0593          	mv	a1,s4
80003c38:	00050413          	mv	s0,a0
80003c3c:	729000ef          	jal	ra,80004b64 <__mcmp>
80003c40:	f0a04ee3          	bgtz	a0,80003b5c <_dtoa_r+0x104c>
80003c44:	00051663          	bnez	a0,80003c50 <_dtoa_r+0x1140>
80003c48:	001af793          	andi	a5,s5,1
80003c4c:	f00798e3          	bnez	a5,80003b5c <_dtoa_r+0x104c>
80003c50:	00098793          	mv	a5,s3
80003c54:	03000713          	li	a4,48
80003c58:	00078993          	mv	s3,a5
80003c5c:	fff7c683          	lbu	a3,-1(a5)
80003c60:	fff78793          	addi	a5,a5,-1
80003c64:	fee68ae3          	beq	a3,a4,80003c58 <_dtoa_r+0x1148>
80003c68:	d11ff06f          	j	80003978 <_dtoa_r+0xe68>
80003c6c:	00c12703          	lw	a4,12(sp)
80003c70:	eef71ae3          	bne	a4,a5,80003b64 <_dtoa_r+0x1054>
80003c74:	03100793          	li	a5,49
80003c78:	001d8d93          	addi	s11,s11,1
80003c7c:	00f70023          	sb	a5,0(a4)
80003c80:	cf9ff06f          	j	80003978 <_dtoa_r+0xe68>
80003c84:	02412703          	lw	a4,36(sp)
80003c88:	00006797          	auipc	a5,0x6
80003c8c:	c0878793          	addi	a5,a5,-1016 # 80009890 <__extendsfdf2+0x860>
80003c90:	00f12623          	sw	a5,12(sp)
80003c94:	00006797          	auipc	a5,0x6
80003c98:	c0478793          	addi	a5,a5,-1020 # 80009898 <__extendsfdf2+0x868>
80003c9c:	00070463          	beqz	a4,80003ca4 <_dtoa_r+0x1194>
80003ca0:	f9dfe06f          	j	80002c3c <_dtoa_r+0x12c>
80003ca4:	fa1fe06f          	j	80002c44 <_dtoa_r+0x134>
80003ca8:	01012783          	lw	a5,16(sp)
80003cac:	00f04863          	bgtz	a5,80003cbc <_dtoa_r+0x11ac>
80003cb0:	01412703          	lw	a4,20(sp)
80003cb4:	00200793          	li	a5,2
80003cb8:	c8e7c0e3          	blt	a5,a4,80003938 <_dtoa_r+0xe28>
80003cbc:	00000993          	li	s3,0
80003cc0:	000a0593          	mv	a1,s4
80003cc4:	00040513          	mv	a0,s0
80003cc8:	c7dfe0ef          	jal	ra,80002944 <quorem>
80003ccc:	00c12783          	lw	a5,12(sp)
80003cd0:	03050a93          	addi	s5,a0,48
80003cd4:	01378733          	add	a4,a5,s3
80003cd8:	01012783          	lw	a5,16(sp)
80003cdc:	01570023          	sb	s5,0(a4)
80003ce0:	00198993          	addi	s3,s3,1
80003ce4:	f2f9d2e3          	bge	s3,a5,80003c08 <_dtoa_r+0x10f8>
80003ce8:	00040593          	mv	a1,s0
80003cec:	00000693          	li	a3,0
80003cf0:	00a00613          	li	a2,10
80003cf4:	00048513          	mv	a0,s1
80003cf8:	724000ef          	jal	ra,8000441c <__multadd>
80003cfc:	00050413          	mv	s0,a0
80003d00:	fc1ff06f          	j	80003cc0 <_dtoa_r+0x11b0>

80003d04 <std>:
std():
80003d04:	ff010113          	addi	sp,sp,-16
80003d08:	00812423          	sw	s0,8(sp)
80003d0c:	00112623          	sw	ra,12(sp)
80003d10:	00050413          	mv	s0,a0
80003d14:	00b51623          	sh	a1,12(a0)
80003d18:	00c51723          	sh	a2,14(a0)
80003d1c:	00052023          	sw	zero,0(a0)
80003d20:	00052223          	sw	zero,4(a0)
80003d24:	00052423          	sw	zero,8(a0)
80003d28:	06052223          	sw	zero,100(a0)
80003d2c:	00052823          	sw	zero,16(a0)
80003d30:	00052a23          	sw	zero,20(a0)
80003d34:	00052c23          	sw	zero,24(a0)
80003d38:	00800613          	li	a2,8
80003d3c:	00000593          	li	a1,0
80003d40:	05c50513          	addi	a0,a0,92
80003d44:	4a8000ef          	jal	ra,800041ec <memset>
80003d48:	00002797          	auipc	a5,0x2
80003d4c:	90c78793          	addi	a5,a5,-1780 # 80005654 <__sread>
80003d50:	02f42223          	sw	a5,36(s0)
80003d54:	00002797          	auipc	a5,0x2
80003d58:	95078793          	addi	a5,a5,-1712 # 800056a4 <__swrite>
80003d5c:	02f42423          	sw	a5,40(s0)
80003d60:	00002797          	auipc	a5,0x2
80003d64:	9c878793          	addi	a5,a5,-1592 # 80005728 <__sseek>
80003d68:	02f42623          	sw	a5,44(s0)
80003d6c:	00002797          	auipc	a5,0x2
80003d70:	a1478793          	addi	a5,a5,-1516 # 80005780 <__sclose>
80003d74:	00c12083          	lw	ra,12(sp)
80003d78:	02842023          	sw	s0,32(s0)
80003d7c:	02f42823          	sw	a5,48(s0)
80003d80:	00812403          	lw	s0,8(sp)
80003d84:	01010113          	addi	sp,sp,16
80003d88:	00008067          	ret

80003d8c <_cleanup_r>:
_cleanup_r():
80003d8c:	00002597          	auipc	a1,0x2
80003d90:	12458593          	addi	a1,a1,292 # 80005eb0 <_fflush_r>
80003d94:	2080006f          	j	80003f9c <_fwalk_reent>

80003d98 <__sfmoreglue>:
__sfmoreglue():
80003d98:	ff010113          	addi	sp,sp,-16
80003d9c:	00912223          	sw	s1,4(sp)
80003da0:	06800613          	li	a2,104
80003da4:	fff58493          	addi	s1,a1,-1
80003da8:	02c484b3          	mul	s1,s1,a2
80003dac:	01212023          	sw	s2,0(sp)
80003db0:	00058913          	mv	s2,a1
80003db4:	00812423          	sw	s0,8(sp)
80003db8:	00112623          	sw	ra,12(sp)
80003dbc:	07448593          	addi	a1,s1,116
80003dc0:	290010ef          	jal	ra,80005050 <_malloc_r>
80003dc4:	00050413          	mv	s0,a0
80003dc8:	02050063          	beqz	a0,80003de8 <__sfmoreglue+0x50>
80003dcc:	00052023          	sw	zero,0(a0)
80003dd0:	01252223          	sw	s2,4(a0)
80003dd4:	00c50513          	addi	a0,a0,12
80003dd8:	00a42423          	sw	a0,8(s0)
80003ddc:	06848613          	addi	a2,s1,104
80003de0:	00000593          	li	a1,0
80003de4:	408000ef          	jal	ra,800041ec <memset>
80003de8:	00c12083          	lw	ra,12(sp)
80003dec:	00040513          	mv	a0,s0
80003df0:	00812403          	lw	s0,8(sp)
80003df4:	00412483          	lw	s1,4(sp)
80003df8:	00012903          	lw	s2,0(sp)
80003dfc:	01010113          	addi	sp,sp,16
80003e00:	00008067          	ret

80003e04 <__sinit>:
__sinit():
80003e04:	01852783          	lw	a5,24(a0)
80003e08:	0a079463          	bnez	a5,80003eb0 <__sinit+0xac>
80003e0c:	ff010113          	addi	sp,sp,-16
80003e10:	00812423          	sw	s0,8(sp)
80003e14:	00112623          	sw	ra,12(sp)
80003e18:	00000797          	auipc	a5,0x0
80003e1c:	f7478793          	addi	a5,a5,-140 # 80003d8c <_cleanup_r>
80003e20:	02f52423          	sw	a5,40(a0)
80003e24:	04052423          	sw	zero,72(a0)
80003e28:	04052623          	sw	zero,76(a0)
80003e2c:	04052823          	sw	zero,80(a0)
80003e30:	86c1a783          	lw	a5,-1940(gp) # 9000023c <_global_impure_ptr>
80003e34:	00050413          	mv	s0,a0
80003e38:	00f51663          	bne	a0,a5,80003e44 <__sinit+0x40>
80003e3c:	00100793          	li	a5,1
80003e40:	00f52c23          	sw	a5,24(a0)
80003e44:	00040513          	mv	a0,s0
80003e48:	06c000ef          	jal	ra,80003eb4 <__sfp>
80003e4c:	00a42223          	sw	a0,4(s0)
80003e50:	00040513          	mv	a0,s0
80003e54:	060000ef          	jal	ra,80003eb4 <__sfp>
80003e58:	00a42423          	sw	a0,8(s0)
80003e5c:	00040513          	mv	a0,s0
80003e60:	054000ef          	jal	ra,80003eb4 <__sfp>
80003e64:	00a42623          	sw	a0,12(s0)
80003e68:	00442503          	lw	a0,4(s0)
80003e6c:	00000613          	li	a2,0
80003e70:	00400593          	li	a1,4
80003e74:	e91ff0ef          	jal	ra,80003d04 <std>
80003e78:	00842503          	lw	a0,8(s0)
80003e7c:	00100613          	li	a2,1
80003e80:	00900593          	li	a1,9
80003e84:	e81ff0ef          	jal	ra,80003d04 <std>
80003e88:	00c42503          	lw	a0,12(s0)
80003e8c:	00200613          	li	a2,2
80003e90:	01200593          	li	a1,18
80003e94:	e71ff0ef          	jal	ra,80003d04 <std>
80003e98:	00100793          	li	a5,1
80003e9c:	00c12083          	lw	ra,12(sp)
80003ea0:	00f42c23          	sw	a5,24(s0)
80003ea4:	00812403          	lw	s0,8(sp)
80003ea8:	01010113          	addi	sp,sp,16
80003eac:	00008067          	ret
80003eb0:	00008067          	ret

80003eb4 <__sfp>:
__sfp():
80003eb4:	ff010113          	addi	sp,sp,-16
80003eb8:	00912223          	sw	s1,4(sp)
80003ebc:	86c1a483          	lw	s1,-1940(gp) # 9000023c <_global_impure_ptr>
80003ec0:	0184a783          	lw	a5,24(s1)
80003ec4:	01212023          	sw	s2,0(sp)
80003ec8:	00112623          	sw	ra,12(sp)
80003ecc:	00812423          	sw	s0,8(sp)
80003ed0:	00050913          	mv	s2,a0
80003ed4:	00079663          	bnez	a5,80003ee0 <__sfp+0x2c>
80003ed8:	00048513          	mv	a0,s1
80003edc:	f29ff0ef          	jal	ra,80003e04 <__sinit>
80003ee0:	04848493          	addi	s1,s1,72
80003ee4:	0084a403          	lw	s0,8(s1)
80003ee8:	0044a783          	lw	a5,4(s1)
80003eec:	fff78793          	addi	a5,a5,-1
80003ef0:	0007da63          	bgez	a5,80003f04 <__sfp+0x50>
80003ef4:	0004a783          	lw	a5,0(s1)
80003ef8:	08078063          	beqz	a5,80003f78 <__sfp+0xc4>
80003efc:	0004a483          	lw	s1,0(s1)
80003f00:	fe5ff06f          	j	80003ee4 <__sfp+0x30>
80003f04:	00c41703          	lh	a4,12(s0)
80003f08:	06071463          	bnez	a4,80003f70 <__sfp+0xbc>
80003f0c:	ffff07b7          	lui	a5,0xffff0
80003f10:	00178793          	addi	a5,a5,1 # ffff0001 <_sp+0x6ffe0001>
80003f14:	06042223          	sw	zero,100(s0)
80003f18:	00042023          	sw	zero,0(s0)
80003f1c:	00042223          	sw	zero,4(s0)
80003f20:	00042423          	sw	zero,8(s0)
80003f24:	00f42623          	sw	a5,12(s0)
80003f28:	00042823          	sw	zero,16(s0)
80003f2c:	00042a23          	sw	zero,20(s0)
80003f30:	00042c23          	sw	zero,24(s0)
80003f34:	00800613          	li	a2,8
80003f38:	00000593          	li	a1,0
80003f3c:	05c40513          	addi	a0,s0,92
80003f40:	2ac000ef          	jal	ra,800041ec <memset>
80003f44:	02042a23          	sw	zero,52(s0)
80003f48:	02042c23          	sw	zero,56(s0)
80003f4c:	04042423          	sw	zero,72(s0)
80003f50:	04042623          	sw	zero,76(s0)
80003f54:	00c12083          	lw	ra,12(sp)
80003f58:	00040513          	mv	a0,s0
80003f5c:	00812403          	lw	s0,8(sp)
80003f60:	00412483          	lw	s1,4(sp)
80003f64:	00012903          	lw	s2,0(sp)
80003f68:	01010113          	addi	sp,sp,16
80003f6c:	00008067          	ret
80003f70:	06840413          	addi	s0,s0,104
80003f74:	f79ff06f          	j	80003eec <__sfp+0x38>
80003f78:	00400593          	li	a1,4
80003f7c:	00090513          	mv	a0,s2
80003f80:	e19ff0ef          	jal	ra,80003d98 <__sfmoreglue>
80003f84:	00a4a023          	sw	a0,0(s1)
80003f88:	00050413          	mv	s0,a0
80003f8c:	f60518e3          	bnez	a0,80003efc <__sfp+0x48>
80003f90:	00c00793          	li	a5,12
80003f94:	00f92023          	sw	a5,0(s2)
80003f98:	fbdff06f          	j	80003f54 <__sfp+0xa0>

80003f9c <_fwalk_reent>:
_fwalk_reent():
80003f9c:	fd010113          	addi	sp,sp,-48
80003fa0:	02812423          	sw	s0,40(sp)
80003fa4:	03212023          	sw	s2,32(sp)
80003fa8:	01312e23          	sw	s3,28(sp)
80003fac:	01412c23          	sw	s4,24(sp)
80003fb0:	01612823          	sw	s6,16(sp)
80003fb4:	01712623          	sw	s7,12(sp)
80003fb8:	02112623          	sw	ra,44(sp)
80003fbc:	02912223          	sw	s1,36(sp)
80003fc0:	01512a23          	sw	s5,20(sp)
80003fc4:	00050913          	mv	s2,a0
80003fc8:	00058a13          	mv	s4,a1
80003fcc:	04850413          	addi	s0,a0,72
80003fd0:	00000993          	li	s3,0
80003fd4:	00100b13          	li	s6,1
80003fd8:	fff00b93          	li	s7,-1
80003fdc:	00842483          	lw	s1,8(s0)
80003fe0:	00442a83          	lw	s5,4(s0)
80003fe4:	fffa8a93          	addi	s5,s5,-1
80003fe8:	020ade63          	bgez	s5,80004024 <_fwalk_reent+0x88>
80003fec:	00042403          	lw	s0,0(s0)
80003ff0:	fe0416e3          	bnez	s0,80003fdc <_fwalk_reent+0x40>
80003ff4:	02c12083          	lw	ra,44(sp)
80003ff8:	02812403          	lw	s0,40(sp)
80003ffc:	02412483          	lw	s1,36(sp)
80004000:	02012903          	lw	s2,32(sp)
80004004:	01812a03          	lw	s4,24(sp)
80004008:	01412a83          	lw	s5,20(sp)
8000400c:	01012b03          	lw	s6,16(sp)
80004010:	00c12b83          	lw	s7,12(sp)
80004014:	00098513          	mv	a0,s3
80004018:	01c12983          	lw	s3,28(sp)
8000401c:	03010113          	addi	sp,sp,48
80004020:	00008067          	ret
80004024:	00c4d783          	lhu	a5,12(s1)
80004028:	00fb7e63          	bgeu	s6,a5,80004044 <_fwalk_reent+0xa8>
8000402c:	00e49783          	lh	a5,14(s1)
80004030:	01778a63          	beq	a5,s7,80004044 <_fwalk_reent+0xa8>
80004034:	00048593          	mv	a1,s1
80004038:	00090513          	mv	a0,s2
8000403c:	000a00e7          	jalr	s4
80004040:	00a9e9b3          	or	s3,s3,a0
80004044:	06848493          	addi	s1,s1,104
80004048:	f9dff06f          	j	80003fe4 <_fwalk_reent+0x48>

8000404c <_localeconv_r>:
_localeconv_r():
8000404c:	0fffc517          	auipc	a0,0xfffc
80004050:	10450513          	addi	a0,a0,260 # 90000150 <__global_locale+0xf0>
80004054:	00008067          	ret

80004058 <malloc>:
malloc():
80004058:	00050593          	mv	a1,a0
8000405c:	0fffc517          	auipc	a0,0xfffc
80004060:	17c52503          	lw	a0,380(a0) # 900001d8 <_impure_ptr>
80004064:	7ed0006f          	j	80005050 <_malloc_r>

80004068 <__ascii_mbtowc>:
__ascii_mbtowc():
80004068:	02059a63          	bnez	a1,8000409c <__ascii_mbtowc+0x34>
8000406c:	ff010113          	addi	sp,sp,-16
80004070:	00c10593          	addi	a1,sp,12
80004074:	00000513          	li	a0,0
80004078:	00060e63          	beqz	a2,80004094 <__ascii_mbtowc+0x2c>
8000407c:	ffe00513          	li	a0,-2
80004080:	00068a63          	beqz	a3,80004094 <__ascii_mbtowc+0x2c>
80004084:	00064783          	lbu	a5,0(a2)
80004088:	00f5a023          	sw	a5,0(a1)
8000408c:	00064503          	lbu	a0,0(a2)
80004090:	00a03533          	snez	a0,a0
80004094:	01010113          	addi	sp,sp,16
80004098:	00008067          	ret
8000409c:	00000513          	li	a0,0
800040a0:	02060063          	beqz	a2,800040c0 <__ascii_mbtowc+0x58>
800040a4:	ffe00513          	li	a0,-2
800040a8:	00068c63          	beqz	a3,800040c0 <__ascii_mbtowc+0x58>
800040ac:	00064783          	lbu	a5,0(a2)
800040b0:	00f5a023          	sw	a5,0(a1)
800040b4:	00064503          	lbu	a0,0(a2)
800040b8:	00a03533          	snez	a0,a0
800040bc:	00008067          	ret
800040c0:	00008067          	ret

800040c4 <memchr>:
memchr():
800040c4:	0ff5f593          	andi	a1,a1,255
800040c8:	00c50633          	add	a2,a0,a2
800040cc:	00c51663          	bne	a0,a2,800040d8 <memchr+0x14>
800040d0:	00000513          	li	a0,0
800040d4:	00008067          	ret
800040d8:	00054783          	lbu	a5,0(a0)
800040dc:	feb78ce3          	beq	a5,a1,800040d4 <memchr+0x10>
800040e0:	00150513          	addi	a0,a0,1
800040e4:	fe9ff06f          	j	800040cc <memchr+0x8>

800040e8 <memcpy>:
memcpy():
800040e8:	00a5c7b3          	xor	a5,a1,a0
800040ec:	0037f793          	andi	a5,a5,3
800040f0:	00c506b3          	add	a3,a0,a2
800040f4:	00079663          	bnez	a5,80004100 <memcpy+0x18>
800040f8:	00300793          	li	a5,3
800040fc:	02c7e263          	bltu	a5,a2,80004120 <memcpy+0x38>
80004100:	00050793          	mv	a5,a0
80004104:	0cd57863          	bgeu	a0,a3,800041d4 <memcpy+0xec>
80004108:	0005c703          	lbu	a4,0(a1)
8000410c:	00178793          	addi	a5,a5,1
80004110:	00158593          	addi	a1,a1,1
80004114:	fee78fa3          	sb	a4,-1(a5)
80004118:	fed7e8e3          	bltu	a5,a3,80004108 <memcpy+0x20>
8000411c:	00008067          	ret
80004120:	00357713          	andi	a4,a0,3
80004124:	00050793          	mv	a5,a0
80004128:	00070e63          	beqz	a4,80004144 <memcpy+0x5c>
8000412c:	0005c703          	lbu	a4,0(a1)
80004130:	00178793          	addi	a5,a5,1
80004134:	00158593          	addi	a1,a1,1
80004138:	fee78fa3          	sb	a4,-1(a5)
8000413c:	0037f713          	andi	a4,a5,3
80004140:	fe9ff06f          	j	80004128 <memcpy+0x40>
80004144:	ffc6f713          	andi	a4,a3,-4
80004148:	fe070613          	addi	a2,a4,-32
8000414c:	04c7fc63          	bgeu	a5,a2,800041a4 <memcpy+0xbc>
80004150:	0005a383          	lw	t2,0(a1)
80004154:	0045a283          	lw	t0,4(a1)
80004158:	0085af83          	lw	t6,8(a1)
8000415c:	00c5af03          	lw	t5,12(a1)
80004160:	0105ae83          	lw	t4,16(a1)
80004164:	0145ae03          	lw	t3,20(a1)
80004168:	0185a303          	lw	t1,24(a1)
8000416c:	01c5a883          	lw	a7,28(a1)
80004170:	0077a023          	sw	t2,0(a5)
80004174:	0057a223          	sw	t0,4(a5)
80004178:	0205a803          	lw	a6,32(a1)
8000417c:	01f7a423          	sw	t6,8(a5)
80004180:	01e7a623          	sw	t5,12(a5)
80004184:	01d7a823          	sw	t4,16(a5)
80004188:	01c7aa23          	sw	t3,20(a5)
8000418c:	0067ac23          	sw	t1,24(a5)
80004190:	0117ae23          	sw	a7,28(a5)
80004194:	02458593          	addi	a1,a1,36
80004198:	02478793          	addi	a5,a5,36
8000419c:	ff07ae23          	sw	a6,-4(a5)
800041a0:	fadff06f          	j	8000414c <memcpy+0x64>
800041a4:	00058813          	mv	a6,a1
800041a8:	00078613          	mv	a2,a5
800041ac:	02e66663          	bltu	a2,a4,800041d8 <memcpy+0xf0>
800041b0:	ffd78813          	addi	a6,a5,-3
800041b4:	00000613          	li	a2,0
800041b8:	01076863          	bltu	a4,a6,800041c8 <memcpy+0xe0>
800041bc:	00370713          	addi	a4,a4,3
800041c0:	40f70733          	sub	a4,a4,a5
800041c4:	ffc77613          	andi	a2,a4,-4
800041c8:	00c787b3          	add	a5,a5,a2
800041cc:	00c585b3          	add	a1,a1,a2
800041d0:	f2d7ece3          	bltu	a5,a3,80004108 <memcpy+0x20>
800041d4:	00008067          	ret
800041d8:	00082883          	lw	a7,0(a6)
800041dc:	00460613          	addi	a2,a2,4
800041e0:	00480813          	addi	a6,a6,4
800041e4:	ff162e23          	sw	a7,-4(a2)
800041e8:	fc5ff06f          	j	800041ac <memcpy+0xc4>

800041ec <memset>:
memset():
800041ec:	00f00313          	li	t1,15
800041f0:	00050713          	mv	a4,a0
800041f4:	02c37e63          	bgeu	t1,a2,80004230 <memset+0x44>
800041f8:	00f77793          	andi	a5,a4,15
800041fc:	0a079063          	bnez	a5,8000429c <memset+0xb0>
80004200:	08059263          	bnez	a1,80004284 <memset+0x98>
80004204:	ff067693          	andi	a3,a2,-16
80004208:	00f67613          	andi	a2,a2,15
8000420c:	00e686b3          	add	a3,a3,a4
80004210:	00b72023          	sw	a1,0(a4)
80004214:	00b72223          	sw	a1,4(a4)
80004218:	00b72423          	sw	a1,8(a4)
8000421c:	00b72623          	sw	a1,12(a4)
80004220:	01070713          	addi	a4,a4,16
80004224:	fed766e3          	bltu	a4,a3,80004210 <memset+0x24>
80004228:	00061463          	bnez	a2,80004230 <memset+0x44>
8000422c:	00008067          	ret
80004230:	40c306b3          	sub	a3,t1,a2
80004234:	00269693          	slli	a3,a3,0x2
80004238:	00000297          	auipc	t0,0x0
8000423c:	005686b3          	add	a3,a3,t0
80004240:	00c68067          	jr	12(a3)
80004244:	00b70723          	sb	a1,14(a4)
80004248:	00b706a3          	sb	a1,13(a4)
8000424c:	00b70623          	sb	a1,12(a4)
80004250:	00b705a3          	sb	a1,11(a4)
80004254:	00b70523          	sb	a1,10(a4)
80004258:	00b704a3          	sb	a1,9(a4)
8000425c:	00b70423          	sb	a1,8(a4)
80004260:	00b703a3          	sb	a1,7(a4)
80004264:	00b70323          	sb	a1,6(a4)
80004268:	00b702a3          	sb	a1,5(a4)
8000426c:	00b70223          	sb	a1,4(a4)
80004270:	00b701a3          	sb	a1,3(a4)
80004274:	00b70123          	sb	a1,2(a4)
80004278:	00b700a3          	sb	a1,1(a4)
8000427c:	00b70023          	sb	a1,0(a4)
80004280:	00008067          	ret
80004284:	0ff5f593          	andi	a1,a1,255
80004288:	00859693          	slli	a3,a1,0x8
8000428c:	00d5e5b3          	or	a1,a1,a3
80004290:	01059693          	slli	a3,a1,0x10
80004294:	00d5e5b3          	or	a1,a1,a3
80004298:	f6dff06f          	j	80004204 <memset+0x18>
8000429c:	00279693          	slli	a3,a5,0x2
800042a0:	00000297          	auipc	t0,0x0
800042a4:	005686b3          	add	a3,a3,t0
800042a8:	00008293          	mv	t0,ra
800042ac:	fa0680e7          	jalr	-96(a3)
800042b0:	00028093          	mv	ra,t0
800042b4:	ff078793          	addi	a5,a5,-16
800042b8:	40f70733          	sub	a4,a4,a5
800042bc:	00f60633          	add	a2,a2,a5
800042c0:	f6c378e3          	bgeu	t1,a2,80004230 <memset+0x44>
800042c4:	f3dff06f          	j	80004200 <memset+0x14>

800042c8 <_Balloc>:
_Balloc():
800042c8:	02452783          	lw	a5,36(a0)
800042cc:	ff010113          	addi	sp,sp,-16
800042d0:	00812423          	sw	s0,8(sp)
800042d4:	00912223          	sw	s1,4(sp)
800042d8:	00112623          	sw	ra,12(sp)
800042dc:	01212023          	sw	s2,0(sp)
800042e0:	00050413          	mv	s0,a0
800042e4:	00058493          	mv	s1,a1
800042e8:	02079063          	bnez	a5,80004308 <_Balloc+0x40>
800042ec:	01000513          	li	a0,16
800042f0:	d69ff0ef          	jal	ra,80004058 <malloc>
800042f4:	02a42223          	sw	a0,36(s0)
800042f8:	00052223          	sw	zero,4(a0)
800042fc:	00052423          	sw	zero,8(a0)
80004300:	00052023          	sw	zero,0(a0)
80004304:	00052623          	sw	zero,12(a0)
80004308:	02442903          	lw	s2,36(s0)
8000430c:	00c92783          	lw	a5,12(s2)
80004310:	04078463          	beqz	a5,80004358 <_Balloc+0x90>
80004314:	02442703          	lw	a4,36(s0)
80004318:	00249793          	slli	a5,s1,0x2
8000431c:	00c72703          	lw	a4,12(a4)
80004320:	00f707b3          	add	a5,a4,a5
80004324:	0007a503          	lw	a0,0(a5)
80004328:	06051663          	bnez	a0,80004394 <_Balloc+0xcc>
8000432c:	00100913          	li	s2,1
80004330:	00991933          	sll	s2,s2,s1
80004334:	00590613          	addi	a2,s2,5
80004338:	00261613          	slli	a2,a2,0x2
8000433c:	00100593          	li	a1,1
80004340:	00040513          	mv	a0,s0
80004344:	3cd000ef          	jal	ra,80004f10 <_calloc_r>
80004348:	02050863          	beqz	a0,80004378 <_Balloc+0xb0>
8000434c:	00952223          	sw	s1,4(a0)
80004350:	01252423          	sw	s2,8(a0)
80004354:	0480006f          	j	8000439c <_Balloc+0xd4>
80004358:	02100613          	li	a2,33
8000435c:	00400593          	li	a1,4
80004360:	00040513          	mv	a0,s0
80004364:	3ad000ef          	jal	ra,80004f10 <_calloc_r>
80004368:	02442783          	lw	a5,36(s0)
8000436c:	00a92623          	sw	a0,12(s2)
80004370:	00c7a783          	lw	a5,12(a5)
80004374:	fa0790e3          	bnez	a5,80004314 <_Balloc+0x4c>
80004378:	00000513          	li	a0,0
8000437c:	00c12083          	lw	ra,12(sp)
80004380:	00812403          	lw	s0,8(sp)
80004384:	00412483          	lw	s1,4(sp)
80004388:	00012903          	lw	s2,0(sp)
8000438c:	01010113          	addi	sp,sp,16
80004390:	00008067          	ret
80004394:	00052703          	lw	a4,0(a0)
80004398:	00e7a023          	sw	a4,0(a5)
8000439c:	00052823          	sw	zero,16(a0)
800043a0:	00052623          	sw	zero,12(a0)
800043a4:	fd9ff06f          	j	8000437c <_Balloc+0xb4>

800043a8 <_Bfree>:
_Bfree():
800043a8:	02452783          	lw	a5,36(a0)
800043ac:	ff010113          	addi	sp,sp,-16
800043b0:	00812423          	sw	s0,8(sp)
800043b4:	00912223          	sw	s1,4(sp)
800043b8:	00112623          	sw	ra,12(sp)
800043bc:	00050493          	mv	s1,a0
800043c0:	00058413          	mv	s0,a1
800043c4:	02079063          	bnez	a5,800043e4 <_Bfree+0x3c>
800043c8:	01000513          	li	a0,16
800043cc:	c8dff0ef          	jal	ra,80004058 <malloc>
800043d0:	02a4a223          	sw	a0,36(s1)
800043d4:	00052223          	sw	zero,4(a0)
800043d8:	00052423          	sw	zero,8(a0)
800043dc:	00052023          	sw	zero,0(a0)
800043e0:	00052623          	sw	zero,12(a0)
800043e4:	02040263          	beqz	s0,80004408 <_Bfree+0x60>
800043e8:	0244a683          	lw	a3,36(s1)
800043ec:	00442783          	lw	a5,4(s0)
800043f0:	00279713          	slli	a4,a5,0x2
800043f4:	00c6a783          	lw	a5,12(a3)
800043f8:	00e787b3          	add	a5,a5,a4
800043fc:	0007a703          	lw	a4,0(a5)
80004400:	00e42023          	sw	a4,0(s0)
80004404:	0087a023          	sw	s0,0(a5)
80004408:	00c12083          	lw	ra,12(sp)
8000440c:	00812403          	lw	s0,8(sp)
80004410:	00412483          	lw	s1,4(sp)
80004414:	01010113          	addi	sp,sp,16
80004418:	00008067          	ret

8000441c <__multadd>:
__multadd():
8000441c:	fe010113          	addi	sp,sp,-32
80004420:	00812c23          	sw	s0,24(sp)
80004424:	01212823          	sw	s2,16(sp)
80004428:	01312623          	sw	s3,12(sp)
8000442c:	0105a903          	lw	s2,16(a1)
80004430:	00058413          	mv	s0,a1
80004434:	00068993          	mv	s3,a3
80004438:	01458693          	addi	a3,a1,20
8000443c:	000105b7          	lui	a1,0x10
80004440:	00912a23          	sw	s1,20(sp)
80004444:	00112e23          	sw	ra,28(sp)
80004448:	00050493          	mv	s1,a0
8000444c:	01412423          	sw	s4,8(sp)
80004450:	00000513          	li	a0,0
80004454:	fff58593          	addi	a1,a1,-1 # ffff <dhry_stubs.c.aa5f359a+0xc424>
80004458:	0006a783          	lw	a5,0(a3)
8000445c:	00468693          	addi	a3,a3,4
80004460:	00150513          	addi	a0,a0,1
80004464:	00b7f733          	and	a4,a5,a1
80004468:	02c70733          	mul	a4,a4,a2
8000446c:	0107d793          	srli	a5,a5,0x10
80004470:	02c787b3          	mul	a5,a5,a2
80004474:	01370733          	add	a4,a4,s3
80004478:	01075813          	srli	a6,a4,0x10
8000447c:	00b77733          	and	a4,a4,a1
80004480:	010787b3          	add	a5,a5,a6
80004484:	0107d993          	srli	s3,a5,0x10
80004488:	01079793          	slli	a5,a5,0x10
8000448c:	00e787b3          	add	a5,a5,a4
80004490:	fef6ae23          	sw	a5,-4(a3)
80004494:	fd2542e3          	blt	a0,s2,80004458 <__multadd+0x3c>
80004498:	08098063          	beqz	s3,80004518 <__multadd+0xfc>
8000449c:	00842783          	lw	a5,8(s0)
800044a0:	06f94063          	blt	s2,a5,80004500 <__multadd+0xe4>
800044a4:	00442583          	lw	a1,4(s0)
800044a8:	00048513          	mv	a0,s1
800044ac:	00158593          	addi	a1,a1,1
800044b0:	e19ff0ef          	jal	ra,800042c8 <_Balloc>
800044b4:	00050a13          	mv	s4,a0
800044b8:	02051063          	bnez	a0,800044d8 <__multadd+0xbc>
800044bc:	00005697          	auipc	a3,0x5
800044c0:	3e468693          	addi	a3,a3,996 # 800098a0 <__extendsfdf2+0x870>
800044c4:	00000613          	li	a2,0
800044c8:	0b500593          	li	a1,181
800044cc:	00005517          	auipc	a0,0x5
800044d0:	4b450513          	addi	a0,a0,1204 # 80009980 <__sf_fake_stdout+0x30>
800044d4:	758010ef          	jal	ra,80005c2c <__assert_func>
800044d8:	01042603          	lw	a2,16(s0)
800044dc:	00c40593          	addi	a1,s0,12
800044e0:	00c50513          	addi	a0,a0,12
800044e4:	00260613          	addi	a2,a2,2
800044e8:	00261613          	slli	a2,a2,0x2
800044ec:	bfdff0ef          	jal	ra,800040e8 <memcpy>
800044f0:	00040593          	mv	a1,s0
800044f4:	00048513          	mv	a0,s1
800044f8:	eb1ff0ef          	jal	ra,800043a8 <_Bfree>
800044fc:	000a0413          	mv	s0,s4
80004500:	00490793          	addi	a5,s2,4
80004504:	00279793          	slli	a5,a5,0x2
80004508:	00f407b3          	add	a5,s0,a5
8000450c:	0137a223          	sw	s3,4(a5)
80004510:	00190913          	addi	s2,s2,1
80004514:	01242823          	sw	s2,16(s0)
80004518:	01c12083          	lw	ra,28(sp)
8000451c:	00040513          	mv	a0,s0
80004520:	01812403          	lw	s0,24(sp)
80004524:	01412483          	lw	s1,20(sp)
80004528:	01012903          	lw	s2,16(sp)
8000452c:	00c12983          	lw	s3,12(sp)
80004530:	00812a03          	lw	s4,8(sp)
80004534:	02010113          	addi	sp,sp,32
80004538:	00008067          	ret

8000453c <__hi0bits>:
__hi0bits():
8000453c:	ffff0737          	lui	a4,0xffff0
80004540:	00e57733          	and	a4,a0,a4
80004544:	00050793          	mv	a5,a0
80004548:	00000513          	li	a0,0
8000454c:	00071663          	bnez	a4,80004558 <__hi0bits+0x1c>
80004550:	01079793          	slli	a5,a5,0x10
80004554:	01000513          	li	a0,16
80004558:	ff000737          	lui	a4,0xff000
8000455c:	00e7f733          	and	a4,a5,a4
80004560:	00071663          	bnez	a4,8000456c <__hi0bits+0x30>
80004564:	00850513          	addi	a0,a0,8
80004568:	00879793          	slli	a5,a5,0x8
8000456c:	f0000737          	lui	a4,0xf0000
80004570:	00e7f733          	and	a4,a5,a4
80004574:	00071663          	bnez	a4,80004580 <__hi0bits+0x44>
80004578:	00450513          	addi	a0,a0,4
8000457c:	00479793          	slli	a5,a5,0x4
80004580:	c0000737          	lui	a4,0xc0000
80004584:	00e7f733          	and	a4,a5,a4
80004588:	00071663          	bnez	a4,80004594 <__hi0bits+0x58>
8000458c:	00250513          	addi	a0,a0,2
80004590:	00279793          	slli	a5,a5,0x2
80004594:	0007cc63          	bltz	a5,800045ac <__hi0bits+0x70>
80004598:	40000737          	lui	a4,0x40000
8000459c:	00e7f7b3          	and	a5,a5,a4
800045a0:	00150513          	addi	a0,a0,1
800045a4:	00079463          	bnez	a5,800045ac <__hi0bits+0x70>
800045a8:	02000513          	li	a0,32
800045ac:	00008067          	ret

800045b0 <__lo0bits>:
__lo0bits():
800045b0:	00052783          	lw	a5,0(a0)
800045b4:	00050713          	mv	a4,a0
800045b8:	0077f693          	andi	a3,a5,7
800045bc:	02068c63          	beqz	a3,800045f4 <__lo0bits+0x44>
800045c0:	0017f693          	andi	a3,a5,1
800045c4:	00000513          	li	a0,0
800045c8:	08069a63          	bnez	a3,8000465c <__lo0bits+0xac>
800045cc:	0027f693          	andi	a3,a5,2
800045d0:	00068a63          	beqz	a3,800045e4 <__lo0bits+0x34>
800045d4:	0017d793          	srli	a5,a5,0x1
800045d8:	00f72023          	sw	a5,0(a4) # 40000000 <dhry_stubs.c.aa5f359a+0x3fffc425>
800045dc:	00100513          	li	a0,1
800045e0:	00008067          	ret
800045e4:	0027d793          	srli	a5,a5,0x2
800045e8:	00f72023          	sw	a5,0(a4)
800045ec:	00200513          	li	a0,2
800045f0:	00008067          	ret
800045f4:	01079693          	slli	a3,a5,0x10
800045f8:	0106d693          	srli	a3,a3,0x10
800045fc:	00000513          	li	a0,0
80004600:	00069663          	bnez	a3,8000460c <__lo0bits+0x5c>
80004604:	0107d793          	srli	a5,a5,0x10
80004608:	01000513          	li	a0,16
8000460c:	0ff7f693          	andi	a3,a5,255
80004610:	00069663          	bnez	a3,8000461c <__lo0bits+0x6c>
80004614:	00850513          	addi	a0,a0,8
80004618:	0087d793          	srli	a5,a5,0x8
8000461c:	00f7f693          	andi	a3,a5,15
80004620:	00069663          	bnez	a3,8000462c <__lo0bits+0x7c>
80004624:	00450513          	addi	a0,a0,4
80004628:	0047d793          	srli	a5,a5,0x4
8000462c:	0037f693          	andi	a3,a5,3
80004630:	00069663          	bnez	a3,8000463c <__lo0bits+0x8c>
80004634:	00250513          	addi	a0,a0,2
80004638:	0027d793          	srli	a5,a5,0x2
8000463c:	0017f693          	andi	a3,a5,1
80004640:	00069863          	bnez	a3,80004650 <__lo0bits+0xa0>
80004644:	0017d793          	srli	a5,a5,0x1
80004648:	00150513          	addi	a0,a0,1
8000464c:	00078663          	beqz	a5,80004658 <__lo0bits+0xa8>
80004650:	00f72023          	sw	a5,0(a4)
80004654:	00008067          	ret
80004658:	02000513          	li	a0,32
8000465c:	00008067          	ret

80004660 <__i2b>:
__i2b():
80004660:	ff010113          	addi	sp,sp,-16
80004664:	00812423          	sw	s0,8(sp)
80004668:	00058413          	mv	s0,a1
8000466c:	00100593          	li	a1,1
80004670:	00112623          	sw	ra,12(sp)
80004674:	c55ff0ef          	jal	ra,800042c8 <_Balloc>
80004678:	02051063          	bnez	a0,80004698 <__i2b+0x38>
8000467c:	00005697          	auipc	a3,0x5
80004680:	22468693          	addi	a3,a3,548 # 800098a0 <__extendsfdf2+0x870>
80004684:	00000613          	li	a2,0
80004688:	14000593          	li	a1,320
8000468c:	00005517          	auipc	a0,0x5
80004690:	2f450513          	addi	a0,a0,756 # 80009980 <__sf_fake_stdout+0x30>
80004694:	598010ef          	jal	ra,80005c2c <__assert_func>
80004698:	00c12083          	lw	ra,12(sp)
8000469c:	00852a23          	sw	s0,20(a0)
800046a0:	00812403          	lw	s0,8(sp)
800046a4:	00100713          	li	a4,1
800046a8:	00e52823          	sw	a4,16(a0)
800046ac:	01010113          	addi	sp,sp,16
800046b0:	00008067          	ret

800046b4 <__multiply>:
__multiply():
800046b4:	0105a703          	lw	a4,16(a1)
800046b8:	01062783          	lw	a5,16(a2)
800046bc:	fe010113          	addi	sp,sp,-32
800046c0:	00812c23          	sw	s0,24(sp)
800046c4:	01212823          	sw	s2,16(sp)
800046c8:	00112e23          	sw	ra,28(sp)
800046cc:	00912a23          	sw	s1,20(sp)
800046d0:	01312623          	sw	s3,12(sp)
800046d4:	01412423          	sw	s4,8(sp)
800046d8:	00058413          	mv	s0,a1
800046dc:	00060913          	mv	s2,a2
800046e0:	00f75663          	bge	a4,a5,800046ec <__multiply+0x38>
800046e4:	00060413          	mv	s0,a2
800046e8:	00058913          	mv	s2,a1
800046ec:	01042a03          	lw	s4,16(s0)
800046f0:	01092983          	lw	s3,16(s2)
800046f4:	00842783          	lw	a5,8(s0)
800046f8:	00442583          	lw	a1,4(s0)
800046fc:	013a04b3          	add	s1,s4,s3
80004700:	0097d463          	bge	a5,s1,80004708 <__multiply+0x54>
80004704:	00158593          	addi	a1,a1,1
80004708:	bc1ff0ef          	jal	ra,800042c8 <_Balloc>
8000470c:	02051063          	bnez	a0,8000472c <__multiply+0x78>
80004710:	00005697          	auipc	a3,0x5
80004714:	19068693          	addi	a3,a3,400 # 800098a0 <__extendsfdf2+0x870>
80004718:	00000613          	li	a2,0
8000471c:	15d00593          	li	a1,349
80004720:	00005517          	auipc	a0,0x5
80004724:	26050513          	addi	a0,a0,608 # 80009980 <__sf_fake_stdout+0x30>
80004728:	504010ef          	jal	ra,80005c2c <__assert_func>
8000472c:	01450693          	addi	a3,a0,20
80004730:	00249813          	slli	a6,s1,0x2
80004734:	01068833          	add	a6,a3,a6
80004738:	00068793          	mv	a5,a3
8000473c:	0707ec63          	bltu	a5,a6,800047b4 <__multiply+0x100>
80004740:	01440313          	addi	t1,s0,20
80004744:	002a1593          	slli	a1,s4,0x2
80004748:	01490613          	addi	a2,s2,20
8000474c:	00299893          	slli	a7,s3,0x2
80004750:	00b305b3          	add	a1,t1,a1
80004754:	01540793          	addi	a5,s0,21
80004758:	011608b3          	add	a7,a2,a7
8000475c:	00400e13          	li	t3,4
80004760:	00f5ea63          	bltu	a1,a5,80004774 <__multiply+0xc0>
80004764:	40858433          	sub	s0,a1,s0
80004768:	feb40413          	addi	s0,s0,-21
8000476c:	ffc47413          	andi	s0,s0,-4
80004770:	00440e13          	addi	t3,s0,4
80004774:	00010eb7          	lui	t4,0x10
80004778:	fffe8e93          	addi	t4,t4,-1 # ffff <dhry_stubs.c.aa5f359a+0xc424>
8000477c:	05166263          	bltu	a2,a7,800047c0 <__multiply+0x10c>
80004780:	00905863          	blez	s1,80004790 <__multiply+0xdc>
80004784:	ffc82783          	lw	a5,-4(a6)
80004788:	ffc80813          	addi	a6,a6,-4
8000478c:	12078463          	beqz	a5,800048b4 <__multiply+0x200>
80004790:	01c12083          	lw	ra,28(sp)
80004794:	01812403          	lw	s0,24(sp)
80004798:	00952823          	sw	s1,16(a0)
8000479c:	01012903          	lw	s2,16(sp)
800047a0:	01412483          	lw	s1,20(sp)
800047a4:	00c12983          	lw	s3,12(sp)
800047a8:	00812a03          	lw	s4,8(sp)
800047ac:	02010113          	addi	sp,sp,32
800047b0:	00008067          	ret
800047b4:	0007a023          	sw	zero,0(a5)
800047b8:	00478793          	addi	a5,a5,4
800047bc:	f81ff06f          	j	8000473c <__multiply+0x88>
800047c0:	00062f83          	lw	t6,0(a2)
800047c4:	01dfffb3          	and	t6,t6,t4
800047c8:	060f8663          	beqz	t6,80004834 <__multiply+0x180>
800047cc:	00068393          	mv	t2,a3
800047d0:	00030293          	mv	t0,t1
800047d4:	00000913          	li	s2,0
800047d8:	0002a703          	lw	a4,0(t0) # 800042a0 <memset+0xb4>
800047dc:	0003a403          	lw	s0,0(t2)
800047e0:	00438393          	addi	t2,t2,4
800047e4:	01d77f33          	and	t5,a4,t4
800047e8:	03ff0f33          	mul	t5,t5,t6
800047ec:	01d477b3          	and	a5,s0,t4
800047f0:	01045413          	srli	s0,s0,0x10
800047f4:	00428293          	addi	t0,t0,4
800047f8:	00ff0f33          	add	t5,t5,a5
800047fc:	01075793          	srli	a5,a4,0x10
80004800:	03f787b3          	mul	a5,a5,t6
80004804:	012f0f33          	add	t5,t5,s2
80004808:	010f5713          	srli	a4,t5,0x10
8000480c:	01df7f33          	and	t5,t5,t4
80004810:	008787b3          	add	a5,a5,s0
80004814:	00e787b3          	add	a5,a5,a4
80004818:	0107d913          	srli	s2,a5,0x10
8000481c:	01079793          	slli	a5,a5,0x10
80004820:	01e7e7b3          	or	a5,a5,t5
80004824:	fef3ae23          	sw	a5,-4(t2)
80004828:	fab2e8e3          	bltu	t0,a1,800047d8 <__multiply+0x124>
8000482c:	01c687b3          	add	a5,a3,t3
80004830:	0127a023          	sw	s2,0(a5)
80004834:	00265383          	lhu	t2,2(a2)
80004838:	06038863          	beqz	t2,800048a8 <__multiply+0x1f4>
8000483c:	0006a783          	lw	a5,0(a3)
80004840:	00068f93          	mv	t6,a3
80004844:	00030f13          	mv	t5,t1
80004848:	00000293          	li	t0,0
8000484c:	000f2703          	lw	a4,0(t5)
80004850:	002fd403          	lhu	s0,2(t6)
80004854:	01d7f7b3          	and	a5,a5,t4
80004858:	01d77733          	and	a4,a4,t4
8000485c:	02770733          	mul	a4,a4,t2
80004860:	004f8f93          	addi	t6,t6,4
80004864:	004f0f13          	addi	t5,t5,4
80004868:	00870733          	add	a4,a4,s0
8000486c:	00570733          	add	a4,a4,t0
80004870:	01071293          	slli	t0,a4,0x10
80004874:	00f2e7b3          	or	a5,t0,a5
80004878:	feffae23          	sw	a5,-4(t6)
8000487c:	ffef5783          	lhu	a5,-2(t5)
80004880:	000fa283          	lw	t0,0(t6)
80004884:	01075713          	srli	a4,a4,0x10
80004888:	027787b3          	mul	a5,a5,t2
8000488c:	01d2f2b3          	and	t0,t0,t4
80004890:	005787b3          	add	a5,a5,t0
80004894:	00e787b3          	add	a5,a5,a4
80004898:	0107d293          	srli	t0,a5,0x10
8000489c:	fabf68e3          	bltu	t5,a1,8000484c <__multiply+0x198>
800048a0:	01c68733          	add	a4,a3,t3
800048a4:	00f72023          	sw	a5,0(a4)
800048a8:	00460613          	addi	a2,a2,4
800048ac:	00468693          	addi	a3,a3,4
800048b0:	ecdff06f          	j	8000477c <__multiply+0xc8>
800048b4:	fff48493          	addi	s1,s1,-1
800048b8:	ec9ff06f          	j	80004780 <__multiply+0xcc>

800048bc <__pow5mult>:
__pow5mult():
800048bc:	fe010113          	addi	sp,sp,-32
800048c0:	00912a23          	sw	s1,20(sp)
800048c4:	01212823          	sw	s2,16(sp)
800048c8:	01312623          	sw	s3,12(sp)
800048cc:	00112e23          	sw	ra,28(sp)
800048d0:	00812c23          	sw	s0,24(sp)
800048d4:	01412423          	sw	s4,8(sp)
800048d8:	00367793          	andi	a5,a2,3
800048dc:	00050913          	mv	s2,a0
800048e0:	00060493          	mv	s1,a2
800048e4:	00058993          	mv	s3,a1
800048e8:	02078463          	beqz	a5,80004910 <__pow5mult+0x54>
800048ec:	fff78793          	addi	a5,a5,-1
800048f0:	00005717          	auipc	a4,0x5
800048f4:	1e070713          	addi	a4,a4,480 # 80009ad0 <p05.0>
800048f8:	00279793          	slli	a5,a5,0x2
800048fc:	00f707b3          	add	a5,a4,a5
80004900:	0007a603          	lw	a2,0(a5)
80004904:	00000693          	li	a3,0
80004908:	b15ff0ef          	jal	ra,8000441c <__multadd>
8000490c:	00050993          	mv	s3,a0
80004910:	4024d493          	srai	s1,s1,0x2
80004914:	0a048463          	beqz	s1,800049bc <__pow5mult+0x100>
80004918:	02492783          	lw	a5,36(s2)
8000491c:	02079063          	bnez	a5,8000493c <__pow5mult+0x80>
80004920:	01000513          	li	a0,16
80004924:	f34ff0ef          	jal	ra,80004058 <malloc>
80004928:	02a92223          	sw	a0,36(s2)
8000492c:	00052223          	sw	zero,4(a0)
80004930:	00052423          	sw	zero,8(a0)
80004934:	00052023          	sw	zero,0(a0)
80004938:	00052623          	sw	zero,12(a0)
8000493c:	02492a03          	lw	s4,36(s2)
80004940:	008a2403          	lw	s0,8(s4)
80004944:	00041e63          	bnez	s0,80004960 <__pow5mult+0xa4>
80004948:	27100593          	li	a1,625
8000494c:	00090513          	mv	a0,s2
80004950:	d11ff0ef          	jal	ra,80004660 <__i2b>
80004954:	00aa2423          	sw	a0,8(s4)
80004958:	00050413          	mv	s0,a0
8000495c:	00052023          	sw	zero,0(a0)
80004960:	0014f793          	andi	a5,s1,1
80004964:	02078463          	beqz	a5,8000498c <__pow5mult+0xd0>
80004968:	00098593          	mv	a1,s3
8000496c:	00040613          	mv	a2,s0
80004970:	00090513          	mv	a0,s2
80004974:	d41ff0ef          	jal	ra,800046b4 <__multiply>
80004978:	00050a13          	mv	s4,a0
8000497c:	00098593          	mv	a1,s3
80004980:	00090513          	mv	a0,s2
80004984:	a25ff0ef          	jal	ra,800043a8 <_Bfree>
80004988:	000a0993          	mv	s3,s4
8000498c:	4014d493          	srai	s1,s1,0x1
80004990:	02048663          	beqz	s1,800049bc <__pow5mult+0x100>
80004994:	00042503          	lw	a0,0(s0)
80004998:	00051e63          	bnez	a0,800049b4 <__pow5mult+0xf8>
8000499c:	00040613          	mv	a2,s0
800049a0:	00040593          	mv	a1,s0
800049a4:	00090513          	mv	a0,s2
800049a8:	d0dff0ef          	jal	ra,800046b4 <__multiply>
800049ac:	00a42023          	sw	a0,0(s0)
800049b0:	00052023          	sw	zero,0(a0)
800049b4:	00050413          	mv	s0,a0
800049b8:	fa9ff06f          	j	80004960 <__pow5mult+0xa4>
800049bc:	01c12083          	lw	ra,28(sp)
800049c0:	01812403          	lw	s0,24(sp)
800049c4:	01412483          	lw	s1,20(sp)
800049c8:	01012903          	lw	s2,16(sp)
800049cc:	00812a03          	lw	s4,8(sp)
800049d0:	00098513          	mv	a0,s3
800049d4:	00c12983          	lw	s3,12(sp)
800049d8:	02010113          	addi	sp,sp,32
800049dc:	00008067          	ret

800049e0 <__lshift>:
__lshift():
800049e0:	fe010113          	addi	sp,sp,-32
800049e4:	00812c23          	sw	s0,24(sp)
800049e8:	00058413          	mv	s0,a1
800049ec:	01612023          	sw	s6,0(sp)
800049f0:	01042b03          	lw	s6,16(s0)
800049f4:	00912a23          	sw	s1,20(sp)
800049f8:	0045a583          	lw	a1,4(a1)
800049fc:	40565493          	srai	s1,a2,0x5
80004a00:	00842783          	lw	a5,8(s0)
80004a04:	01648b33          	add	s6,s1,s6
80004a08:	01212823          	sw	s2,16(sp)
80004a0c:	01412423          	sw	s4,8(sp)
80004a10:	01512223          	sw	s5,4(sp)
80004a14:	00112e23          	sw	ra,28(sp)
80004a18:	01312623          	sw	s3,12(sp)
80004a1c:	00050a93          	mv	s5,a0
80004a20:	00060913          	mv	s2,a2
80004a24:	001b0a13          	addi	s4,s6,1
80004a28:	0347c863          	blt	a5,s4,80004a58 <__lshift+0x78>
80004a2c:	000a8513          	mv	a0,s5
80004a30:	899ff0ef          	jal	ra,800042c8 <_Balloc>
80004a34:	00050993          	mv	s3,a0
80004a38:	02051663          	bnez	a0,80004a64 <__lshift+0x84>
80004a3c:	00005697          	auipc	a3,0x5
80004a40:	e6468693          	addi	a3,a3,-412 # 800098a0 <__extendsfdf2+0x870>
80004a44:	00000613          	li	a2,0
80004a48:	1d900593          	li	a1,473
80004a4c:	00005517          	auipc	a0,0x5
80004a50:	f3450513          	addi	a0,a0,-204 # 80009980 <__sf_fake_stdout+0x30>
80004a54:	1d8010ef          	jal	ra,80005c2c <__assert_func>
80004a58:	00158593          	addi	a1,a1,1
80004a5c:	00179793          	slli	a5,a5,0x1
80004a60:	fc9ff06f          	j	80004a28 <__lshift+0x48>
80004a64:	01450793          	addi	a5,a0,20
80004a68:	00078693          	mv	a3,a5
80004a6c:	00000713          	li	a4,0
80004a70:	00468693          	addi	a3,a3,4
80004a74:	0c974663          	blt	a4,s1,80004b40 <__lshift+0x160>
80004a78:	0004d463          	bgez	s1,80004a80 <__lshift+0xa0>
80004a7c:	00000493          	li	s1,0
80004a80:	00249493          	slli	s1,s1,0x2
80004a84:	009786b3          	add	a3,a5,s1
80004a88:	01042783          	lw	a5,16(s0)
80004a8c:	01440713          	addi	a4,s0,20
80004a90:	01f97613          	andi	a2,s2,31
80004a94:	00279793          	slli	a5,a5,0x2
80004a98:	00f707b3          	add	a5,a4,a5
80004a9c:	0a060863          	beqz	a2,80004b4c <__lshift+0x16c>
80004aa0:	02000813          	li	a6,32
80004aa4:	40c80833          	sub	a6,a6,a2
80004aa8:	00068893          	mv	a7,a3
80004aac:	00000593          	li	a1,0
80004ab0:	00072503          	lw	a0,0(a4)
80004ab4:	00488893          	addi	a7,a7,4
80004ab8:	00470713          	addi	a4,a4,4
80004abc:	00c51533          	sll	a0,a0,a2
80004ac0:	00b565b3          	or	a1,a0,a1
80004ac4:	feb8ae23          	sw	a1,-4(a7)
80004ac8:	ffc72583          	lw	a1,-4(a4)
80004acc:	0105d5b3          	srl	a1,a1,a6
80004ad0:	fef760e3          	bltu	a4,a5,80004ab0 <__lshift+0xd0>
80004ad4:	01540713          	addi	a4,s0,21
80004ad8:	00400613          	li	a2,4
80004adc:	00e7ea63          	bltu	a5,a4,80004af0 <__lshift+0x110>
80004ae0:	408787b3          	sub	a5,a5,s0
80004ae4:	feb78793          	addi	a5,a5,-21
80004ae8:	ffc7f793          	andi	a5,a5,-4
80004aec:	00478613          	addi	a2,a5,4
80004af0:	00c686b3          	add	a3,a3,a2
80004af4:	00b6a023          	sw	a1,0(a3)
80004af8:	00058463          	beqz	a1,80004b00 <__lshift+0x120>
80004afc:	002b0a13          	addi	s4,s6,2
80004b00:	fffa0a13          	addi	s4,s4,-1
80004b04:	0149a823          	sw	s4,16(s3)
80004b08:	000a8513          	mv	a0,s5
80004b0c:	00040593          	mv	a1,s0
80004b10:	899ff0ef          	jal	ra,800043a8 <_Bfree>
80004b14:	01c12083          	lw	ra,28(sp)
80004b18:	01812403          	lw	s0,24(sp)
80004b1c:	01412483          	lw	s1,20(sp)
80004b20:	01012903          	lw	s2,16(sp)
80004b24:	00812a03          	lw	s4,8(sp)
80004b28:	00412a83          	lw	s5,4(sp)
80004b2c:	00012b03          	lw	s6,0(sp)
80004b30:	00098513          	mv	a0,s3
80004b34:	00c12983          	lw	s3,12(sp)
80004b38:	02010113          	addi	sp,sp,32
80004b3c:	00008067          	ret
80004b40:	fe06ae23          	sw	zero,-4(a3)
80004b44:	00170713          	addi	a4,a4,1
80004b48:	f29ff06f          	j	80004a70 <__lshift+0x90>
80004b4c:	00072603          	lw	a2,0(a4)
80004b50:	00470713          	addi	a4,a4,4
80004b54:	00468693          	addi	a3,a3,4
80004b58:	fec6ae23          	sw	a2,-4(a3)
80004b5c:	fef768e3          	bltu	a4,a5,80004b4c <__lshift+0x16c>
80004b60:	fa1ff06f          	j	80004b00 <__lshift+0x120>

80004b64 <__mcmp>:
__mcmp():
80004b64:	01052683          	lw	a3,16(a0)
80004b68:	0105a703          	lw	a4,16(a1)
80004b6c:	00050793          	mv	a5,a0
80004b70:	40e68533          	sub	a0,a3,a4
80004b74:	04e69063          	bne	a3,a4,80004bb4 <__mcmp+0x50>
80004b78:	00271713          	slli	a4,a4,0x2
80004b7c:	01478793          	addi	a5,a5,20
80004b80:	01458593          	addi	a1,a1,20
80004b84:	00e786b3          	add	a3,a5,a4
80004b88:	00e585b3          	add	a1,a1,a4
80004b8c:	ffc6a603          	lw	a2,-4(a3)
80004b90:	ffc5a703          	lw	a4,-4(a1)
80004b94:	ffc68693          	addi	a3,a3,-4
80004b98:	ffc58593          	addi	a1,a1,-4
80004b9c:	00e60a63          	beq	a2,a4,80004bb0 <__mcmp+0x4c>
80004ba0:	fff00513          	li	a0,-1
80004ba4:	00e66863          	bltu	a2,a4,80004bb4 <__mcmp+0x50>
80004ba8:	00100513          	li	a0,1
80004bac:	00008067          	ret
80004bb0:	fcd7eee3          	bltu	a5,a3,80004b8c <__mcmp+0x28>
80004bb4:	00008067          	ret

80004bb8 <__mdiff>:
__mdiff():
80004bb8:	fe010113          	addi	sp,sp,-32
80004bbc:	00812c23          	sw	s0,24(sp)
80004bc0:	00058413          	mv	s0,a1
80004bc4:	01212823          	sw	s2,16(sp)
80004bc8:	00060593          	mv	a1,a2
80004bcc:	00050913          	mv	s2,a0
80004bd0:	00040513          	mv	a0,s0
80004bd4:	00912a23          	sw	s1,20(sp)
80004bd8:	00112e23          	sw	ra,28(sp)
80004bdc:	01312623          	sw	s3,12(sp)
80004be0:	00060493          	mv	s1,a2
80004be4:	f81ff0ef          	jal	ra,80004b64 <__mcmp>
80004be8:	04051c63          	bnez	a0,80004c40 <__mdiff+0x88>
80004bec:	00000593          	li	a1,0
80004bf0:	00090513          	mv	a0,s2
80004bf4:	ed4ff0ef          	jal	ra,800042c8 <_Balloc>
80004bf8:	02051063          	bnez	a0,80004c18 <__mdiff+0x60>
80004bfc:	00005697          	auipc	a3,0x5
80004c00:	ca468693          	addi	a3,a3,-860 # 800098a0 <__extendsfdf2+0x870>
80004c04:	00000613          	li	a2,0
80004c08:	23200593          	li	a1,562
80004c0c:	00005517          	auipc	a0,0x5
80004c10:	d7450513          	addi	a0,a0,-652 # 80009980 <__sf_fake_stdout+0x30>
80004c14:	018010ef          	jal	ra,80005c2c <__assert_func>
80004c18:	00100793          	li	a5,1
80004c1c:	00f52823          	sw	a5,16(a0)
80004c20:	00052a23          	sw	zero,20(a0)
80004c24:	01c12083          	lw	ra,28(sp)
80004c28:	01812403          	lw	s0,24(sp)
80004c2c:	01412483          	lw	s1,20(sp)
80004c30:	01012903          	lw	s2,16(sp)
80004c34:	00c12983          	lw	s3,12(sp)
80004c38:	02010113          	addi	sp,sp,32
80004c3c:	00008067          	ret
80004c40:	00100993          	li	s3,1
80004c44:	00054a63          	bltz	a0,80004c58 <__mdiff+0xa0>
80004c48:	00048793          	mv	a5,s1
80004c4c:	00000993          	li	s3,0
80004c50:	00040493          	mv	s1,s0
80004c54:	00078413          	mv	s0,a5
80004c58:	0044a583          	lw	a1,4(s1)
80004c5c:	00090513          	mv	a0,s2
80004c60:	e68ff0ef          	jal	ra,800042c8 <_Balloc>
80004c64:	00051c63          	bnez	a0,80004c7c <__mdiff+0xc4>
80004c68:	00005697          	auipc	a3,0x5
80004c6c:	c3868693          	addi	a3,a3,-968 # 800098a0 <__extendsfdf2+0x870>
80004c70:	00000613          	li	a2,0
80004c74:	24000593          	li	a1,576
80004c78:	f95ff06f          	j	80004c0c <__mdiff+0x54>
80004c7c:	0104a803          	lw	a6,16(s1)
80004c80:	01042703          	lw	a4,16(s0)
80004c84:	01448893          	addi	a7,s1,20
80004c88:	00281693          	slli	a3,a6,0x2
80004c8c:	01440793          	addi	a5,s0,20
80004c90:	00271713          	slli	a4,a4,0x2
80004c94:	00010eb7          	lui	t4,0x10
80004c98:	01352623          	sw	s3,12(a0)
80004c9c:	00d886b3          	add	a3,a7,a3
80004ca0:	00e787b3          	add	a5,a5,a4
80004ca4:	01450613          	addi	a2,a0,20
80004ca8:	01400e13          	li	t3,20
80004cac:	00000313          	li	t1,0
80004cb0:	fffe8e93          	addi	t4,t4,-1 # ffff <dhry_stubs.c.aa5f359a+0xc424>
80004cb4:	01c48733          	add	a4,s1,t3
80004cb8:	00072703          	lw	a4,0(a4)
80004cbc:	01c405b3          	add	a1,s0,t3
80004cc0:	0005af03          	lw	t5,0(a1)
80004cc4:	01d775b3          	and	a1,a4,t4
80004cc8:	006585b3          	add	a1,a1,t1
80004ccc:	01df7333          	and	t1,t5,t4
80004cd0:	406585b3          	sub	a1,a1,t1
80004cd4:	010f5f13          	srli	t5,t5,0x10
80004cd8:	01075713          	srli	a4,a4,0x10
80004cdc:	4105d313          	srai	t1,a1,0x10
80004ce0:	41e70733          	sub	a4,a4,t5
80004ce4:	00670733          	add	a4,a4,t1
80004ce8:	41075313          	srai	t1,a4,0x10
80004cec:	01d5f5b3          	and	a1,a1,t4
80004cf0:	01071713          	slli	a4,a4,0x10
80004cf4:	01c50f33          	add	t5,a0,t3
80004cf8:	00b76733          	or	a4,a4,a1
80004cfc:	004e0e13          	addi	t3,t3,4
80004d00:	00ef2023          	sw	a4,0(t5)
80004d04:	008e0733          	add	a4,t3,s0
80004d08:	faf766e3          	bltu	a4,a5,80004cb4 <__mdiff+0xfc>
80004d0c:	01540593          	addi	a1,s0,21
80004d10:	00400713          	li	a4,4
80004d14:	00b7ea63          	bltu	a5,a1,80004d28 <__mdiff+0x170>
80004d18:	408787b3          	sub	a5,a5,s0
80004d1c:	feb78793          	addi	a5,a5,-21
80004d20:	ffc7f793          	andi	a5,a5,-4
80004d24:	00478713          	addi	a4,a5,4
80004d28:	00e888b3          	add	a7,a7,a4
80004d2c:	00010e37          	lui	t3,0x10
80004d30:	00e60733          	add	a4,a2,a4
80004d34:	00070e93          	mv	t4,a4
80004d38:	00088593          	mv	a1,a7
80004d3c:	fffe0e13          	addi	t3,t3,-1 # ffff <dhry_stubs.c.aa5f359a+0xc424>
80004d40:	02d5ea63          	bltu	a1,a3,80004d74 <__mdiff+0x1bc>
80004d44:	ffd88613          	addi	a2,a7,-3
80004d48:	00000793          	li	a5,0
80004d4c:	00c6e863          	bltu	a3,a2,80004d5c <__mdiff+0x1a4>
80004d50:	00368693          	addi	a3,a3,3
80004d54:	411687b3          	sub	a5,a3,a7
80004d58:	ffc7f793          	andi	a5,a5,-4
80004d5c:	00f707b3          	add	a5,a4,a5
80004d60:	ffc7a703          	lw	a4,-4(a5)
80004d64:	ffc78793          	addi	a5,a5,-4
80004d68:	04070263          	beqz	a4,80004dac <__mdiff+0x1f4>
80004d6c:	01052823          	sw	a6,16(a0)
80004d70:	eb5ff06f          	j	80004c24 <__mdiff+0x6c>
80004d74:	0005a783          	lw	a5,0(a1)
80004d78:	004e8e93          	addi	t4,t4,4
80004d7c:	00458593          	addi	a1,a1,4
80004d80:	01c7f633          	and	a2,a5,t3
80004d84:	00660633          	add	a2,a2,t1
80004d88:	41065313          	srai	t1,a2,0x10
80004d8c:	0107d793          	srli	a5,a5,0x10
80004d90:	006787b3          	add	a5,a5,t1
80004d94:	4107d313          	srai	t1,a5,0x10
80004d98:	01c67633          	and	a2,a2,t3
80004d9c:	01079793          	slli	a5,a5,0x10
80004da0:	00c7e7b3          	or	a5,a5,a2
80004da4:	fefeae23          	sw	a5,-4(t4)
80004da8:	f99ff06f          	j	80004d40 <__mdiff+0x188>
80004dac:	fff80813          	addi	a6,a6,-1
80004db0:	fb1ff06f          	j	80004d60 <__mdiff+0x1a8>

80004db4 <__d2b>:
__d2b():
80004db4:	fd010113          	addi	sp,sp,-48
80004db8:	02912223          	sw	s1,36(sp)
80004dbc:	00058493          	mv	s1,a1
80004dc0:	00100593          	li	a1,1
80004dc4:	02812423          	sw	s0,40(sp)
80004dc8:	03212023          	sw	s2,32(sp)
80004dcc:	01312e23          	sw	s3,28(sp)
80004dd0:	02112623          	sw	ra,44(sp)
80004dd4:	01412c23          	sw	s4,24(sp)
80004dd8:	00060413          	mv	s0,a2
80004ddc:	00068993          	mv	s3,a3
80004de0:	00070913          	mv	s2,a4
80004de4:	ce4ff0ef          	jal	ra,800042c8 <_Balloc>
80004de8:	02051063          	bnez	a0,80004e08 <__d2b+0x54>
80004dec:	00005697          	auipc	a3,0x5
80004df0:	ab468693          	addi	a3,a3,-1356 # 800098a0 <__extendsfdf2+0x870>
80004df4:	00000613          	li	a2,0
80004df8:	30a00593          	li	a1,778
80004dfc:	00005517          	auipc	a0,0x5
80004e00:	b8450513          	addi	a0,a0,-1148 # 80009980 <__sf_fake_stdout+0x30>
80004e04:	629000ef          	jal	ra,80005c2c <__assert_func>
80004e08:	00100737          	lui	a4,0x100
80004e0c:	fff70793          	addi	a5,a4,-1 # fffff <dhry_stubs.c.aa5f359a+0xfc424>
80004e10:	0087f7b3          	and	a5,a5,s0
80004e14:	01445413          	srli	s0,s0,0x14
80004e18:	7ff47413          	andi	s0,s0,2047
80004e1c:	00050a13          	mv	s4,a0
80004e20:	08041a63          	bnez	s0,80004eb4 <__d2b+0x100>
80004e24:	00f12623          	sw	a5,12(sp)
80004e28:	08048e63          	beqz	s1,80004ec4 <__d2b+0x110>
80004e2c:	00810513          	addi	a0,sp,8
80004e30:	00912423          	sw	s1,8(sp)
80004e34:	f7cff0ef          	jal	ra,800045b0 <__lo0bits>
80004e38:	00812683          	lw	a3,8(sp)
80004e3c:	08050063          	beqz	a0,80004ebc <__d2b+0x108>
80004e40:	00c12703          	lw	a4,12(sp)
80004e44:	02000793          	li	a5,32
80004e48:	40a787b3          	sub	a5,a5,a0
80004e4c:	00f717b3          	sll	a5,a4,a5
80004e50:	00d7e7b3          	or	a5,a5,a3
80004e54:	00a75733          	srl	a4,a4,a0
80004e58:	00fa2a23          	sw	a5,20(s4)
80004e5c:	00e12623          	sw	a4,12(sp)
80004e60:	00c12483          	lw	s1,12(sp)
80004e64:	009a2c23          	sw	s1,24(s4)
80004e68:	009034b3          	snez	s1,s1
80004e6c:	00148493          	addi	s1,s1,1
80004e70:	009a2823          	sw	s1,16(s4)
80004e74:	06040a63          	beqz	s0,80004ee8 <__d2b+0x134>
80004e78:	bcd40413          	addi	s0,s0,-1075
80004e7c:	00a40433          	add	s0,s0,a0
80004e80:	03500793          	li	a5,53
80004e84:	0089a023          	sw	s0,0(s3)
80004e88:	40a78533          	sub	a0,a5,a0
80004e8c:	00a92023          	sw	a0,0(s2)
80004e90:	02c12083          	lw	ra,44(sp)
80004e94:	02812403          	lw	s0,40(sp)
80004e98:	02412483          	lw	s1,36(sp)
80004e9c:	02012903          	lw	s2,32(sp)
80004ea0:	01c12983          	lw	s3,28(sp)
80004ea4:	000a0513          	mv	a0,s4
80004ea8:	01812a03          	lw	s4,24(sp)
80004eac:	03010113          	addi	sp,sp,48
80004eb0:	00008067          	ret
80004eb4:	00e7e7b3          	or	a5,a5,a4
80004eb8:	f6dff06f          	j	80004e24 <__d2b+0x70>
80004ebc:	00da2a23          	sw	a3,20(s4)
80004ec0:	fa1ff06f          	j	80004e60 <__d2b+0xac>
80004ec4:	00c10513          	addi	a0,sp,12
80004ec8:	ee8ff0ef          	jal	ra,800045b0 <__lo0bits>
80004ecc:	00c12783          	lw	a5,12(sp)
80004ed0:	02050513          	addi	a0,a0,32
80004ed4:	00100493          	li	s1,1
80004ed8:	00fa2a23          	sw	a5,20(s4)
80004edc:	00100793          	li	a5,1
80004ee0:	00fa2823          	sw	a5,16(s4)
80004ee4:	f91ff06f          	j	80004e74 <__d2b+0xc0>
80004ee8:	bce50793          	addi	a5,a0,-1074
80004eec:	00f9a023          	sw	a5,0(s3)
80004ef0:	00249793          	slli	a5,s1,0x2
80004ef4:	00fa07b3          	add	a5,s4,a5
80004ef8:	0107a503          	lw	a0,16(a5)
80004efc:	00549493          	slli	s1,s1,0x5
80004f00:	e3cff0ef          	jal	ra,8000453c <__hi0bits>
80004f04:	40a484b3          	sub	s1,s1,a0
80004f08:	00992023          	sw	s1,0(s2)
80004f0c:	f85ff06f          	j	80004e90 <__d2b+0xdc>

80004f10 <_calloc_r>:
_calloc_r():
80004f10:	02c58633          	mul	a2,a1,a2
80004f14:	fe010113          	addi	sp,sp,-32
80004f18:	00812c23          	sw	s0,24(sp)
80004f1c:	00112e23          	sw	ra,28(sp)
80004f20:	00060593          	mv	a1,a2
80004f24:	00c12623          	sw	a2,12(sp)
80004f28:	128000ef          	jal	ra,80005050 <_malloc_r>
80004f2c:	00050413          	mv	s0,a0
80004f30:	00050863          	beqz	a0,80004f40 <_calloc_r+0x30>
80004f34:	00c12603          	lw	a2,12(sp)
80004f38:	00000593          	li	a1,0
80004f3c:	ab0ff0ef          	jal	ra,800041ec <memset>
80004f40:	01c12083          	lw	ra,28(sp)
80004f44:	00040513          	mv	a0,s0
80004f48:	01812403          	lw	s0,24(sp)
80004f4c:	02010113          	addi	sp,sp,32
80004f50:	00008067          	ret

80004f54 <_free_r>:
_free_r():
80004f54:	0e058c63          	beqz	a1,8000504c <_free_r+0xf8>
80004f58:	ffc5a783          	lw	a5,-4(a1)
80004f5c:	fe010113          	addi	sp,sp,-32
80004f60:	00812c23          	sw	s0,24(sp)
80004f64:	00112e23          	sw	ra,28(sp)
80004f68:	ffc58413          	addi	s0,a1,-4
80004f6c:	0007d463          	bgez	a5,80004f74 <_free_r+0x20>
80004f70:	00f40433          	add	s0,s0,a5
80004f74:	00a12623          	sw	a0,12(sp)
80004f78:	1e8010ef          	jal	ra,80006160 <__malloc_lock>
80004f7c:	8ac18713          	addi	a4,gp,-1876 # 9000027c <__malloc_free_list>
80004f80:	00072783          	lw	a5,0(a4)
80004f84:	00c12503          	lw	a0,12(sp)
80004f88:	00079e63          	bnez	a5,80004fa4 <_free_r+0x50>
80004f8c:	00042223          	sw	zero,4(s0)
80004f90:	00872023          	sw	s0,0(a4)
80004f94:	01812403          	lw	s0,24(sp)
80004f98:	01c12083          	lw	ra,28(sp)
80004f9c:	02010113          	addi	sp,sp,32
80004fa0:	1c40106f          	j	80006164 <__malloc_unlock>
80004fa4:	02f47463          	bgeu	s0,a5,80004fcc <_free_r+0x78>
80004fa8:	00042603          	lw	a2,0(s0)
80004fac:	00c406b3          	add	a3,s0,a2
80004fb0:	00d79a63          	bne	a5,a3,80004fc4 <_free_r+0x70>
80004fb4:	0007a683          	lw	a3,0(a5)
80004fb8:	0047a783          	lw	a5,4(a5)
80004fbc:	00c686b3          	add	a3,a3,a2
80004fc0:	00d42023          	sw	a3,0(s0)
80004fc4:	00f42223          	sw	a5,4(s0)
80004fc8:	fc9ff06f          	j	80004f90 <_free_r+0x3c>
80004fcc:	00078713          	mv	a4,a5
80004fd0:	0047a783          	lw	a5,4(a5)
80004fd4:	00078463          	beqz	a5,80004fdc <_free_r+0x88>
80004fd8:	fef47ae3          	bgeu	s0,a5,80004fcc <_free_r+0x78>
80004fdc:	00072683          	lw	a3,0(a4)
80004fe0:	00d70633          	add	a2,a4,a3
80004fe4:	02861863          	bne	a2,s0,80005014 <_free_r+0xc0>
80004fe8:	00042603          	lw	a2,0(s0)
80004fec:	00c686b3          	add	a3,a3,a2
80004ff0:	00d72023          	sw	a3,0(a4)
80004ff4:	00d70633          	add	a2,a4,a3
80004ff8:	f8c79ee3          	bne	a5,a2,80004f94 <_free_r+0x40>
80004ffc:	0007a603          	lw	a2,0(a5)
80005000:	0047a783          	lw	a5,4(a5)
80005004:	00d606b3          	add	a3,a2,a3
80005008:	00d72023          	sw	a3,0(a4)
8000500c:	00f72223          	sw	a5,4(a4)
80005010:	f85ff06f          	j	80004f94 <_free_r+0x40>
80005014:	00c47863          	bgeu	s0,a2,80005024 <_free_r+0xd0>
80005018:	00c00793          	li	a5,12
8000501c:	00f52023          	sw	a5,0(a0)
80005020:	f75ff06f          	j	80004f94 <_free_r+0x40>
80005024:	00042603          	lw	a2,0(s0)
80005028:	00c406b3          	add	a3,s0,a2
8000502c:	00d79a63          	bne	a5,a3,80005040 <_free_r+0xec>
80005030:	0007a683          	lw	a3,0(a5)
80005034:	0047a783          	lw	a5,4(a5)
80005038:	00c686b3          	add	a3,a3,a2
8000503c:	00d42023          	sw	a3,0(s0)
80005040:	00f42223          	sw	a5,4(s0)
80005044:	00872223          	sw	s0,4(a4)
80005048:	f4dff06f          	j	80004f94 <_free_r+0x40>
8000504c:	00008067          	ret

80005050 <_malloc_r>:
_malloc_r():
80005050:	fe010113          	addi	sp,sp,-32
80005054:	00912a23          	sw	s1,20(sp)
80005058:	00358493          	addi	s1,a1,3
8000505c:	ffc4f493          	andi	s1,s1,-4
80005060:	01212823          	sw	s2,16(sp)
80005064:	00112e23          	sw	ra,28(sp)
80005068:	00812c23          	sw	s0,24(sp)
8000506c:	01312623          	sw	s3,12(sp)
80005070:	00848493          	addi	s1,s1,8
80005074:	00c00793          	li	a5,12
80005078:	00050913          	mv	s2,a0
8000507c:	06f4f463          	bgeu	s1,a5,800050e4 <_malloc_r+0x94>
80005080:	00c00493          	li	s1,12
80005084:	06b4e263          	bltu	s1,a1,800050e8 <_malloc_r+0x98>
80005088:	00090513          	mv	a0,s2
8000508c:	0d4010ef          	jal	ra,80006160 <__malloc_lock>
80005090:	8ac18693          	addi	a3,gp,-1876 # 9000027c <__malloc_free_list>
80005094:	0006a703          	lw	a4,0(a3)
80005098:	00070413          	mv	s0,a4
8000509c:	06041a63          	bnez	s0,80005110 <_malloc_r+0xc0>
800050a0:	8b018413          	addi	s0,gp,-1872 # 90000280 <__malloc_sbrk_start>
800050a4:	00042783          	lw	a5,0(s0)
800050a8:	00079a63          	bnez	a5,800050bc <_malloc_r+0x6c>
800050ac:	00000593          	li	a1,0
800050b0:	00090513          	mv	a0,s2
800050b4:	560000ef          	jal	ra,80005614 <_sbrk_r>
800050b8:	00a42023          	sw	a0,0(s0)
800050bc:	00048593          	mv	a1,s1
800050c0:	00090513          	mv	a0,s2
800050c4:	550000ef          	jal	ra,80005614 <_sbrk_r>
800050c8:	fff00993          	li	s3,-1
800050cc:	0b351a63          	bne	a0,s3,80005180 <_malloc_r+0x130>
800050d0:	00c00793          	li	a5,12
800050d4:	00f92023          	sw	a5,0(s2)
800050d8:	00090513          	mv	a0,s2
800050dc:	088010ef          	jal	ra,80006164 <__malloc_unlock>
800050e0:	0100006f          	j	800050f0 <_malloc_r+0xa0>
800050e4:	fa04d0e3          	bgez	s1,80005084 <_malloc_r+0x34>
800050e8:	00c00793          	li	a5,12
800050ec:	00f92023          	sw	a5,0(s2)
800050f0:	00000513          	li	a0,0
800050f4:	01c12083          	lw	ra,28(sp)
800050f8:	01812403          	lw	s0,24(sp)
800050fc:	01412483          	lw	s1,20(sp)
80005100:	01012903          	lw	s2,16(sp)
80005104:	00c12983          	lw	s3,12(sp)
80005108:	02010113          	addi	sp,sp,32
8000510c:	00008067          	ret
80005110:	00042783          	lw	a5,0(s0)
80005114:	409787b3          	sub	a5,a5,s1
80005118:	0407ce63          	bltz	a5,80005174 <_malloc_r+0x124>
8000511c:	00b00613          	li	a2,11
80005120:	00f67a63          	bgeu	a2,a5,80005134 <_malloc_r+0xe4>
80005124:	00f42023          	sw	a5,0(s0)
80005128:	00f40433          	add	s0,s0,a5
8000512c:	00942023          	sw	s1,0(s0)
80005130:	0100006f          	j	80005140 <_malloc_r+0xf0>
80005134:	00442783          	lw	a5,4(s0)
80005138:	02871a63          	bne	a4,s0,8000516c <_malloc_r+0x11c>
8000513c:	00f6a023          	sw	a5,0(a3)
80005140:	00090513          	mv	a0,s2
80005144:	020010ef          	jal	ra,80006164 <__malloc_unlock>
80005148:	00b40513          	addi	a0,s0,11
8000514c:	00440793          	addi	a5,s0,4
80005150:	ff857513          	andi	a0,a0,-8
80005154:	40f50733          	sub	a4,a0,a5
80005158:	f8f50ee3          	beq	a0,a5,800050f4 <_malloc_r+0xa4>
8000515c:	00e40433          	add	s0,s0,a4
80005160:	40a787b3          	sub	a5,a5,a0
80005164:	00f42023          	sw	a5,0(s0)
80005168:	f8dff06f          	j	800050f4 <_malloc_r+0xa4>
8000516c:	00f72223          	sw	a5,4(a4)
80005170:	fd1ff06f          	j	80005140 <_malloc_r+0xf0>
80005174:	00040713          	mv	a4,s0
80005178:	00442403          	lw	s0,4(s0)
8000517c:	f21ff06f          	j	8000509c <_malloc_r+0x4c>
80005180:	00350413          	addi	s0,a0,3
80005184:	ffc47413          	andi	s0,s0,-4
80005188:	fa8502e3          	beq	a0,s0,8000512c <_malloc_r+0xdc>
8000518c:	40a405b3          	sub	a1,s0,a0
80005190:	00090513          	mv	a0,s2
80005194:	480000ef          	jal	ra,80005614 <_sbrk_r>
80005198:	f9351ae3          	bne	a0,s3,8000512c <_malloc_r+0xdc>
8000519c:	f35ff06f          	j	800050d0 <_malloc_r+0x80>

800051a0 <__sfputc_r>:
__sfputc_r():
800051a0:	00862783          	lw	a5,8(a2)
800051a4:	fff78793          	addi	a5,a5,-1
800051a8:	00f62423          	sw	a5,8(a2)
800051ac:	0007dc63          	bgez	a5,800051c4 <__sfputc_r+0x24>
800051b0:	01862703          	lw	a4,24(a2)
800051b4:	00e7c663          	blt	a5,a4,800051c0 <__sfputc_r+0x20>
800051b8:	00a00793          	li	a5,10
800051bc:	00f59463          	bne	a1,a5,800051c4 <__sfputc_r+0x24>
800051c0:	7440006f          	j	80005904 <__swbuf_r>
800051c4:	00062783          	lw	a5,0(a2)
800051c8:	00058513          	mv	a0,a1
800051cc:	00178713          	addi	a4,a5,1
800051d0:	00e62023          	sw	a4,0(a2)
800051d4:	00b78023          	sb	a1,0(a5)
800051d8:	00008067          	ret

800051dc <__sfputs_r>:
__sfputs_r():
800051dc:	fe010113          	addi	sp,sp,-32
800051e0:	00812c23          	sw	s0,24(sp)
800051e4:	00912a23          	sw	s1,20(sp)
800051e8:	01212823          	sw	s2,16(sp)
800051ec:	01312623          	sw	s3,12(sp)
800051f0:	01412423          	sw	s4,8(sp)
800051f4:	00112e23          	sw	ra,28(sp)
800051f8:	00050913          	mv	s2,a0
800051fc:	00058993          	mv	s3,a1
80005200:	00060413          	mv	s0,a2
80005204:	00d604b3          	add	s1,a2,a3
80005208:	fff00a13          	li	s4,-1
8000520c:	00941663          	bne	s0,s1,80005218 <__sfputs_r+0x3c>
80005210:	00000513          	li	a0,0
80005214:	01c0006f          	j	80005230 <__sfputs_r+0x54>
80005218:	00044583          	lbu	a1,0(s0)
8000521c:	00098613          	mv	a2,s3
80005220:	00090513          	mv	a0,s2
80005224:	f7dff0ef          	jal	ra,800051a0 <__sfputc_r>
80005228:	00140413          	addi	s0,s0,1
8000522c:	ff4510e3          	bne	a0,s4,8000520c <__sfputs_r+0x30>
80005230:	01c12083          	lw	ra,28(sp)
80005234:	01812403          	lw	s0,24(sp)
80005238:	01412483          	lw	s1,20(sp)
8000523c:	01012903          	lw	s2,16(sp)
80005240:	00c12983          	lw	s3,12(sp)
80005244:	00812a03          	lw	s4,8(sp)
80005248:	02010113          	addi	sp,sp,32
8000524c:	00008067          	ret

80005250 <_vfiprintf_r>:
_vfiprintf_r():
80005250:	f6010113          	addi	sp,sp,-160
80005254:	08812c23          	sw	s0,152(sp)
80005258:	08912a23          	sw	s1,148(sp)
8000525c:	09212823          	sw	s2,144(sp)
80005260:	09312623          	sw	s3,140(sp)
80005264:	08112e23          	sw	ra,156(sp)
80005268:	09412423          	sw	s4,136(sp)
8000526c:	09512223          	sw	s5,132(sp)
80005270:	09612023          	sw	s6,128(sp)
80005274:	07712e23          	sw	s7,124(sp)
80005278:	07812c23          	sw	s8,120(sp)
8000527c:	07912a23          	sw	s9,116(sp)
80005280:	00050993          	mv	s3,a0
80005284:	00058493          	mv	s1,a1
80005288:	00060913          	mv	s2,a2
8000528c:	00068413          	mv	s0,a3
80005290:	00050863          	beqz	a0,800052a0 <_vfiprintf_r+0x50>
80005294:	01852783          	lw	a5,24(a0)
80005298:	00079463          	bnez	a5,800052a0 <_vfiprintf_r+0x50>
8000529c:	b69fe0ef          	jal	ra,80003e04 <__sinit>
800052a0:	00004797          	auipc	a5,0x4
800052a4:	69078793          	addi	a5,a5,1680 # 80009930 <__sf_fake_stdin>
800052a8:	12f49263          	bne	s1,a5,800053cc <_vfiprintf_r+0x17c>
800052ac:	0049a483          	lw	s1,4(s3)
800052b0:	00c4d783          	lhu	a5,12(s1)
800052b4:	0087f793          	andi	a5,a5,8
800052b8:	12078e63          	beqz	a5,800053f4 <_vfiprintf_r+0x1a4>
800052bc:	0104a783          	lw	a5,16(s1)
800052c0:	12078a63          	beqz	a5,800053f4 <_vfiprintf_r+0x1a4>
800052c4:	02000793          	li	a5,32
800052c8:	02f104a3          	sb	a5,41(sp)
800052cc:	03000793          	li	a5,48
800052d0:	02012223          	sw	zero,36(sp)
800052d4:	02f10523          	sb	a5,42(sp)
800052d8:	00812623          	sw	s0,12(sp)
800052dc:	02500b93          	li	s7,37
800052e0:	00004a97          	auipc	s5,0x4
800052e4:	7fca8a93          	addi	s5,s5,2044 # 80009adc <p05.0+0xc>
800052e8:	00100c13          	li	s8,1
800052ec:	00a00b13          	li	s6,10
800052f0:	00090413          	mv	s0,s2
800052f4:	00044783          	lbu	a5,0(s0)
800052f8:	00078463          	beqz	a5,80005300 <_vfiprintf_r+0xb0>
800052fc:	15779063          	bne	a5,s7,8000543c <_vfiprintf_r+0x1ec>
80005300:	41240cb3          	sub	s9,s0,s2
80005304:	03240663          	beq	s0,s2,80005330 <_vfiprintf_r+0xe0>
80005308:	000c8693          	mv	a3,s9
8000530c:	00090613          	mv	a2,s2
80005310:	00048593          	mv	a1,s1
80005314:	00098513          	mv	a0,s3
80005318:	ec5ff0ef          	jal	ra,800051dc <__sfputs_r>
8000531c:	fff00793          	li	a5,-1
80005320:	2cf50063          	beq	a0,a5,800055e0 <_vfiprintf_r+0x390>
80005324:	02412783          	lw	a5,36(sp)
80005328:	019787b3          	add	a5,a5,s9
8000532c:	02f12223          	sw	a5,36(sp)
80005330:	00044783          	lbu	a5,0(s0)
80005334:	2a078663          	beqz	a5,800055e0 <_vfiprintf_r+0x390>
80005338:	fff00793          	li	a5,-1
8000533c:	00140913          	addi	s2,s0,1
80005340:	00012823          	sw	zero,16(sp)
80005344:	00012e23          	sw	zero,28(sp)
80005348:	00f12a23          	sw	a5,20(sp)
8000534c:	00012c23          	sw	zero,24(sp)
80005350:	040109a3          	sb	zero,83(sp)
80005354:	06012423          	sw	zero,104(sp)
80005358:	00094583          	lbu	a1,0(s2)
8000535c:	00500613          	li	a2,5
80005360:	000a8513          	mv	a0,s5
80005364:	d61fe0ef          	jal	ra,800040c4 <memchr>
80005368:	01012783          	lw	a5,16(sp)
8000536c:	00190413          	addi	s0,s2,1
80005370:	0c051a63          	bnez	a0,80005444 <_vfiprintf_r+0x1f4>
80005374:	0107f713          	andi	a4,a5,16
80005378:	00070663          	beqz	a4,80005384 <_vfiprintf_r+0x134>
8000537c:	02000713          	li	a4,32
80005380:	04e109a3          	sb	a4,83(sp)
80005384:	0087f713          	andi	a4,a5,8
80005388:	00070663          	beqz	a4,80005394 <_vfiprintf_r+0x144>
8000538c:	02b00713          	li	a4,43
80005390:	04e109a3          	sb	a4,83(sp)
80005394:	00094683          	lbu	a3,0(s2)
80005398:	02a00713          	li	a4,42
8000539c:	0ce68063          	beq	a3,a4,8000545c <_vfiprintf_r+0x20c>
800053a0:	01c12783          	lw	a5,28(sp)
800053a4:	00090413          	mv	s0,s2
800053a8:	00000693          	li	a3,0
800053ac:	00900613          	li	a2,9
800053b0:	00044703          	lbu	a4,0(s0)
800053b4:	00140593          	addi	a1,s0,1
800053b8:	fd070713          	addi	a4,a4,-48
800053bc:	10e67263          	bgeu	a2,a4,800054c0 <_vfiprintf_r+0x270>
800053c0:	0a068a63          	beqz	a3,80005474 <_vfiprintf_r+0x224>
800053c4:	00f12e23          	sw	a5,28(sp)
800053c8:	0ac0006f          	j	80005474 <_vfiprintf_r+0x224>
800053cc:	00004797          	auipc	a5,0x4
800053d0:	58478793          	addi	a5,a5,1412 # 80009950 <__sf_fake_stdout>
800053d4:	00f49663          	bne	s1,a5,800053e0 <_vfiprintf_r+0x190>
800053d8:	0089a483          	lw	s1,8(s3)
800053dc:	ed5ff06f          	j	800052b0 <_vfiprintf_r+0x60>
800053e0:	00004797          	auipc	a5,0x4
800053e4:	53078793          	addi	a5,a5,1328 # 80009910 <__sf_fake_stderr>
800053e8:	ecf494e3          	bne	s1,a5,800052b0 <_vfiprintf_r+0x60>
800053ec:	00c9a483          	lw	s1,12(s3)
800053f0:	ec1ff06f          	j	800052b0 <_vfiprintf_r+0x60>
800053f4:	00048593          	mv	a1,s1
800053f8:	00098513          	mv	a0,s3
800053fc:	6b8000ef          	jal	ra,80005ab4 <__swsetup_r>
80005400:	ec0502e3          	beqz	a0,800052c4 <_vfiprintf_r+0x74>
80005404:	fff00513          	li	a0,-1
80005408:	09c12083          	lw	ra,156(sp)
8000540c:	09812403          	lw	s0,152(sp)
80005410:	09412483          	lw	s1,148(sp)
80005414:	09012903          	lw	s2,144(sp)
80005418:	08c12983          	lw	s3,140(sp)
8000541c:	08812a03          	lw	s4,136(sp)
80005420:	08412a83          	lw	s5,132(sp)
80005424:	08012b03          	lw	s6,128(sp)
80005428:	07c12b83          	lw	s7,124(sp)
8000542c:	07812c03          	lw	s8,120(sp)
80005430:	07412c83          	lw	s9,116(sp)
80005434:	0a010113          	addi	sp,sp,160
80005438:	00008067          	ret
8000543c:	00140413          	addi	s0,s0,1
80005440:	eb5ff06f          	j	800052f4 <_vfiprintf_r+0xa4>
80005444:	41550533          	sub	a0,a0,s5
80005448:	00ac1533          	sll	a0,s8,a0
8000544c:	00a7e7b3          	or	a5,a5,a0
80005450:	00f12823          	sw	a5,16(sp)
80005454:	00040913          	mv	s2,s0
80005458:	f01ff06f          	j	80005358 <_vfiprintf_r+0x108>
8000545c:	00c12703          	lw	a4,12(sp)
80005460:	00470693          	addi	a3,a4,4
80005464:	00072703          	lw	a4,0(a4)
80005468:	00d12623          	sw	a3,12(sp)
8000546c:	04074063          	bltz	a4,800054ac <_vfiprintf_r+0x25c>
80005470:	00e12e23          	sw	a4,28(sp)
80005474:	00044703          	lbu	a4,0(s0)
80005478:	02e00793          	li	a5,46
8000547c:	08f71463          	bne	a4,a5,80005504 <_vfiprintf_r+0x2b4>
80005480:	00144703          	lbu	a4,1(s0)
80005484:	02a00793          	li	a5,42
80005488:	04f71a63          	bne	a4,a5,800054dc <_vfiprintf_r+0x28c>
8000548c:	00c12783          	lw	a5,12(sp)
80005490:	00240413          	addi	s0,s0,2
80005494:	00478713          	addi	a4,a5,4
80005498:	0007a783          	lw	a5,0(a5)
8000549c:	00e12623          	sw	a4,12(sp)
800054a0:	0207ca63          	bltz	a5,800054d4 <_vfiprintf_r+0x284>
800054a4:	00f12a23          	sw	a5,20(sp)
800054a8:	05c0006f          	j	80005504 <_vfiprintf_r+0x2b4>
800054ac:	40e00733          	neg	a4,a4
800054b0:	0027e793          	ori	a5,a5,2
800054b4:	00e12e23          	sw	a4,28(sp)
800054b8:	00f12823          	sw	a5,16(sp)
800054bc:	fb9ff06f          	j	80005474 <_vfiprintf_r+0x224>
800054c0:	036787b3          	mul	a5,a5,s6
800054c4:	00058413          	mv	s0,a1
800054c8:	00100693          	li	a3,1
800054cc:	00e787b3          	add	a5,a5,a4
800054d0:	ee1ff06f          	j	800053b0 <_vfiprintf_r+0x160>
800054d4:	fff00793          	li	a5,-1
800054d8:	fcdff06f          	j	800054a4 <_vfiprintf_r+0x254>
800054dc:	00140413          	addi	s0,s0,1
800054e0:	00012a23          	sw	zero,20(sp)
800054e4:	00000693          	li	a3,0
800054e8:	00000793          	li	a5,0
800054ec:	00900613          	li	a2,9
800054f0:	00044703          	lbu	a4,0(s0)
800054f4:	00140593          	addi	a1,s0,1
800054f8:	fd070713          	addi	a4,a4,-48
800054fc:	08e67c63          	bgeu	a2,a4,80005594 <_vfiprintf_r+0x344>
80005500:	fa0692e3          	bnez	a3,800054a4 <_vfiprintf_r+0x254>
80005504:	00044583          	lbu	a1,0(s0)
80005508:	00300613          	li	a2,3
8000550c:	00004517          	auipc	a0,0x4
80005510:	5d850513          	addi	a0,a0,1496 # 80009ae4 <p05.0+0x14>
80005514:	bb1fe0ef          	jal	ra,800040c4 <memchr>
80005518:	02050463          	beqz	a0,80005540 <_vfiprintf_r+0x2f0>
8000551c:	00004797          	auipc	a5,0x4
80005520:	5c878793          	addi	a5,a5,1480 # 80009ae4 <p05.0+0x14>
80005524:	40f50533          	sub	a0,a0,a5
80005528:	04000793          	li	a5,64
8000552c:	00a797b3          	sll	a5,a5,a0
80005530:	01012503          	lw	a0,16(sp)
80005534:	00140413          	addi	s0,s0,1
80005538:	00f56533          	or	a0,a0,a5
8000553c:	00a12823          	sw	a0,16(sp)
80005540:	00044583          	lbu	a1,0(s0)
80005544:	00600613          	li	a2,6
80005548:	00004517          	auipc	a0,0x4
8000554c:	5a050513          	addi	a0,a0,1440 # 80009ae8 <p05.0+0x18>
80005550:	00140913          	addi	s2,s0,1
80005554:	02b10423          	sb	a1,40(sp)
80005558:	b6dfe0ef          	jal	ra,800040c4 <memchr>
8000555c:	08050c63          	beqz	a0,800055f4 <_vfiprintf_r+0x3a4>
80005560:	ffffc797          	auipc	a5,0xffffc
80005564:	5c478793          	addi	a5,a5,1476 # 80001b24 <_printf_float>
80005568:	04079863          	bnez	a5,800055b8 <_vfiprintf_r+0x368>
8000556c:	01012703          	lw	a4,16(sp)
80005570:	00c12783          	lw	a5,12(sp)
80005574:	10077713          	andi	a4,a4,256
80005578:	02070863          	beqz	a4,800055a8 <_vfiprintf_r+0x358>
8000557c:	00478793          	addi	a5,a5,4
80005580:	00f12623          	sw	a5,12(sp)
80005584:	02412783          	lw	a5,36(sp)
80005588:	014787b3          	add	a5,a5,s4
8000558c:	02f12223          	sw	a5,36(sp)
80005590:	d61ff06f          	j	800052f0 <_vfiprintf_r+0xa0>
80005594:	036787b3          	mul	a5,a5,s6
80005598:	00058413          	mv	s0,a1
8000559c:	00100693          	li	a3,1
800055a0:	00e787b3          	add	a5,a5,a4
800055a4:	f4dff06f          	j	800054f0 <_vfiprintf_r+0x2a0>
800055a8:	00778793          	addi	a5,a5,7
800055ac:	ff87f793          	andi	a5,a5,-8
800055b0:	00878793          	addi	a5,a5,8
800055b4:	fcdff06f          	j	80005580 <_vfiprintf_r+0x330>
800055b8:	00c10713          	addi	a4,sp,12
800055bc:	00000697          	auipc	a3,0x0
800055c0:	c2068693          	addi	a3,a3,-992 # 800051dc <__sfputs_r>
800055c4:	00048613          	mv	a2,s1
800055c8:	01010593          	addi	a1,sp,16
800055cc:	00098513          	mv	a0,s3
800055d0:	d54fc0ef          	jal	ra,80001b24 <_printf_float>
800055d4:	fff00793          	li	a5,-1
800055d8:	00050a13          	mv	s4,a0
800055dc:	faf514e3          	bne	a0,a5,80005584 <_vfiprintf_r+0x334>
800055e0:	00c4d783          	lhu	a5,12(s1)
800055e4:	0407f793          	andi	a5,a5,64
800055e8:	e0079ee3          	bnez	a5,80005404 <_vfiprintf_r+0x1b4>
800055ec:	02412503          	lw	a0,36(sp)
800055f0:	e19ff06f          	j	80005408 <_vfiprintf_r+0x1b8>
800055f4:	00c10713          	addi	a4,sp,12
800055f8:	00000697          	auipc	a3,0x0
800055fc:	be468693          	addi	a3,a3,-1052 # 800051dc <__sfputs_r>
80005600:	00048613          	mv	a2,s1
80005604:	01010593          	addi	a1,sp,16
80005608:	00098513          	mv	a0,s3
8000560c:	e61fc0ef          	jal	ra,8000246c <_printf_i>
80005610:	fc5ff06f          	j	800055d4 <_vfiprintf_r+0x384>

80005614 <_sbrk_r>:
_sbrk_r():
80005614:	ff010113          	addi	sp,sp,-16
80005618:	00812423          	sw	s0,8(sp)
8000561c:	00050413          	mv	s0,a0
80005620:	00058513          	mv	a0,a1
80005624:	8a01a223          	sw	zero,-1884(gp) # 90000274 <errno>
80005628:	00112623          	sw	ra,12(sp)
8000562c:	b05fb0ef          	jal	ra,80001130 <_sbrk>
80005630:	fff00793          	li	a5,-1
80005634:	00f51863          	bne	a0,a5,80005644 <_sbrk_r+0x30>
80005638:	8a41a783          	lw	a5,-1884(gp) # 90000274 <errno>
8000563c:	00078463          	beqz	a5,80005644 <_sbrk_r+0x30>
80005640:	00f42023          	sw	a5,0(s0)
80005644:	00c12083          	lw	ra,12(sp)
80005648:	00812403          	lw	s0,8(sp)
8000564c:	01010113          	addi	sp,sp,16
80005650:	00008067          	ret

80005654 <__sread>:
__sread():
80005654:	ff010113          	addi	sp,sp,-16
80005658:	00812423          	sw	s0,8(sp)
8000565c:	00058413          	mv	s0,a1
80005660:	00e59583          	lh	a1,14(a1)
80005664:	00112623          	sw	ra,12(sp)
80005668:	301000ef          	jal	ra,80006168 <_read_r>
8000566c:	02054063          	bltz	a0,8000568c <__sread+0x38>
80005670:	05442783          	lw	a5,84(s0)
80005674:	00a787b3          	add	a5,a5,a0
80005678:	04f42a23          	sw	a5,84(s0)
8000567c:	00c12083          	lw	ra,12(sp)
80005680:	00812403          	lw	s0,8(sp)
80005684:	01010113          	addi	sp,sp,16
80005688:	00008067          	ret
8000568c:	00c45783          	lhu	a5,12(s0)
80005690:	fffff737          	lui	a4,0xfffff
80005694:	fff70713          	addi	a4,a4,-1 # ffffefff <_sp+0x6ffeefff>
80005698:	00e7f7b3          	and	a5,a5,a4
8000569c:	00f41623          	sh	a5,12(s0)
800056a0:	fddff06f          	j	8000567c <__sread+0x28>

800056a4 <__swrite>:
__swrite():
800056a4:	00c5d783          	lhu	a5,12(a1)
800056a8:	fe010113          	addi	sp,sp,-32
800056ac:	00812c23          	sw	s0,24(sp)
800056b0:	00912a23          	sw	s1,20(sp)
800056b4:	01212823          	sw	s2,16(sp)
800056b8:	01312623          	sw	s3,12(sp)
800056bc:	00112e23          	sw	ra,28(sp)
800056c0:	1007f793          	andi	a5,a5,256
800056c4:	00050493          	mv	s1,a0
800056c8:	00058413          	mv	s0,a1
800056cc:	00060913          	mv	s2,a2
800056d0:	00068993          	mv	s3,a3
800056d4:	00078a63          	beqz	a5,800056e8 <__swrite+0x44>
800056d8:	00e59583          	lh	a1,14(a1)
800056dc:	00200693          	li	a3,2
800056e0:	00000613          	li	a2,0
800056e4:	0b5000ef          	jal	ra,80005f98 <_lseek_r>
800056e8:	00c45783          	lhu	a5,12(s0)
800056ec:	fffff737          	lui	a4,0xfffff
800056f0:	fff70713          	addi	a4,a4,-1 # ffffefff <_sp+0x6ffeefff>
800056f4:	00e7f7b3          	and	a5,a5,a4
800056f8:	00e41583          	lh	a1,14(s0)
800056fc:	00f41623          	sh	a5,12(s0)
80005700:	01812403          	lw	s0,24(sp)
80005704:	01c12083          	lw	ra,28(sp)
80005708:	00098693          	mv	a3,s3
8000570c:	00090613          	mv	a2,s2
80005710:	00c12983          	lw	s3,12(sp)
80005714:	01012903          	lw	s2,16(sp)
80005718:	00048513          	mv	a0,s1
8000571c:	01412483          	lw	s1,20(sp)
80005720:	02010113          	addi	sp,sp,32
80005724:	3480006f          	j	80005a6c <_write_r>

80005728 <__sseek>:
__sseek():
80005728:	ff010113          	addi	sp,sp,-16
8000572c:	00812423          	sw	s0,8(sp)
80005730:	00058413          	mv	s0,a1
80005734:	00e59583          	lh	a1,14(a1)
80005738:	00112623          	sw	ra,12(sp)
8000573c:	05d000ef          	jal	ra,80005f98 <_lseek_r>
80005740:	fff00793          	li	a5,-1
80005744:	00c45703          	lhu	a4,12(s0)
80005748:	02f51263          	bne	a0,a5,8000576c <__sseek+0x44>
8000574c:	fffff7b7          	lui	a5,0xfffff
80005750:	fff78793          	addi	a5,a5,-1 # ffffefff <_sp+0x6ffeefff>
80005754:	00e7f7b3          	and	a5,a5,a4
80005758:	00f41623          	sh	a5,12(s0)
8000575c:	00c12083          	lw	ra,12(sp)
80005760:	00812403          	lw	s0,8(sp)
80005764:	01010113          	addi	sp,sp,16
80005768:	00008067          	ret
8000576c:	000017b7          	lui	a5,0x1
80005770:	00f767b3          	or	a5,a4,a5
80005774:	00f41623          	sh	a5,12(s0)
80005778:	04a42a23          	sw	a0,84(s0)
8000577c:	fe1ff06f          	j	8000575c <__sseek+0x34>

80005780 <__sclose>:
__sclose():
80005780:	00e59583          	lh	a1,14(a1)
80005784:	4f80006f          	j	80005c7c <_close_r>

80005788 <strcmp>:
strcmp():
80005788:	00b56733          	or	a4,a0,a1
8000578c:	fff00393          	li	t2,-1
80005790:	00377713          	andi	a4,a4,3
80005794:	10071063          	bnez	a4,80005894 <strcmp+0x10c>
80005798:	7f7f87b7          	lui	a5,0x7f7f8
8000579c:	f7f78793          	addi	a5,a5,-129 # 7f7f7f7f <dhry_stubs.c.aa5f359a+0x7f7f43a4>
800057a0:	00052603          	lw	a2,0(a0)
800057a4:	0005a683          	lw	a3,0(a1)
800057a8:	00f672b3          	and	t0,a2,a5
800057ac:	00f66333          	or	t1,a2,a5
800057b0:	00f282b3          	add	t0,t0,a5
800057b4:	0062e2b3          	or	t0,t0,t1
800057b8:	10729263          	bne	t0,t2,800058bc <strcmp+0x134>
800057bc:	08d61663          	bne	a2,a3,80005848 <strcmp+0xc0>
800057c0:	00452603          	lw	a2,4(a0)
800057c4:	0045a683          	lw	a3,4(a1)
800057c8:	00f672b3          	and	t0,a2,a5
800057cc:	00f66333          	or	t1,a2,a5
800057d0:	00f282b3          	add	t0,t0,a5
800057d4:	0062e2b3          	or	t0,t0,t1
800057d8:	0c729e63          	bne	t0,t2,800058b4 <strcmp+0x12c>
800057dc:	06d61663          	bne	a2,a3,80005848 <strcmp+0xc0>
800057e0:	00852603          	lw	a2,8(a0)
800057e4:	0085a683          	lw	a3,8(a1)
800057e8:	00f672b3          	and	t0,a2,a5
800057ec:	00f66333          	or	t1,a2,a5
800057f0:	00f282b3          	add	t0,t0,a5
800057f4:	0062e2b3          	or	t0,t0,t1
800057f8:	0c729863          	bne	t0,t2,800058c8 <strcmp+0x140>
800057fc:	04d61663          	bne	a2,a3,80005848 <strcmp+0xc0>
80005800:	00c52603          	lw	a2,12(a0)
80005804:	00c5a683          	lw	a3,12(a1)
80005808:	00f672b3          	and	t0,a2,a5
8000580c:	00f66333          	or	t1,a2,a5
80005810:	00f282b3          	add	t0,t0,a5
80005814:	0062e2b3          	or	t0,t0,t1
80005818:	0c729263          	bne	t0,t2,800058dc <strcmp+0x154>
8000581c:	02d61663          	bne	a2,a3,80005848 <strcmp+0xc0>
80005820:	01052603          	lw	a2,16(a0)
80005824:	0105a683          	lw	a3,16(a1)
80005828:	00f672b3          	and	t0,a2,a5
8000582c:	00f66333          	or	t1,a2,a5
80005830:	00f282b3          	add	t0,t0,a5
80005834:	0062e2b3          	or	t0,t0,t1
80005838:	0a729c63          	bne	t0,t2,800058f0 <strcmp+0x168>
8000583c:	01450513          	addi	a0,a0,20
80005840:	01458593          	addi	a1,a1,20
80005844:	f4d60ee3          	beq	a2,a3,800057a0 <strcmp+0x18>
80005848:	01061713          	slli	a4,a2,0x10
8000584c:	01069793          	slli	a5,a3,0x10
80005850:	00f71e63          	bne	a4,a5,8000586c <strcmp+0xe4>
80005854:	01065713          	srli	a4,a2,0x10
80005858:	0106d793          	srli	a5,a3,0x10
8000585c:	40f70533          	sub	a0,a4,a5
80005860:	0ff57593          	andi	a1,a0,255
80005864:	02059063          	bnez	a1,80005884 <strcmp+0xfc>
80005868:	00008067          	ret
8000586c:	01075713          	srli	a4,a4,0x10
80005870:	0107d793          	srli	a5,a5,0x10
80005874:	40f70533          	sub	a0,a4,a5
80005878:	0ff57593          	andi	a1,a0,255
8000587c:	00059463          	bnez	a1,80005884 <strcmp+0xfc>
80005880:	00008067          	ret
80005884:	0ff77713          	andi	a4,a4,255
80005888:	0ff7f793          	andi	a5,a5,255
8000588c:	40f70533          	sub	a0,a4,a5
80005890:	00008067          	ret
80005894:	00054603          	lbu	a2,0(a0)
80005898:	0005c683          	lbu	a3,0(a1)
8000589c:	00150513          	addi	a0,a0,1
800058a0:	00158593          	addi	a1,a1,1
800058a4:	00d61463          	bne	a2,a3,800058ac <strcmp+0x124>
800058a8:	fe0616e3          	bnez	a2,80005894 <strcmp+0x10c>
800058ac:	40d60533          	sub	a0,a2,a3
800058b0:	00008067          	ret
800058b4:	00450513          	addi	a0,a0,4
800058b8:	00458593          	addi	a1,a1,4
800058bc:	fcd61ce3          	bne	a2,a3,80005894 <strcmp+0x10c>
800058c0:	00000513          	li	a0,0
800058c4:	00008067          	ret
800058c8:	00850513          	addi	a0,a0,8
800058cc:	00858593          	addi	a1,a1,8
800058d0:	fcd612e3          	bne	a2,a3,80005894 <strcmp+0x10c>
800058d4:	00000513          	li	a0,0
800058d8:	00008067          	ret
800058dc:	00c50513          	addi	a0,a0,12
800058e0:	00c58593          	addi	a1,a1,12
800058e4:	fad618e3          	bne	a2,a3,80005894 <strcmp+0x10c>
800058e8:	00000513          	li	a0,0
800058ec:	00008067          	ret
800058f0:	01050513          	addi	a0,a0,16
800058f4:	01058593          	addi	a1,a1,16
800058f8:	f8d61ee3          	bne	a2,a3,80005894 <strcmp+0x10c>
800058fc:	00000513          	li	a0,0
80005900:	00008067          	ret

80005904 <__swbuf_r>:
__swbuf_r():
80005904:	fe010113          	addi	sp,sp,-32
80005908:	00812c23          	sw	s0,24(sp)
8000590c:	00912a23          	sw	s1,20(sp)
80005910:	01212823          	sw	s2,16(sp)
80005914:	00112e23          	sw	ra,28(sp)
80005918:	01312623          	sw	s3,12(sp)
8000591c:	00050493          	mv	s1,a0
80005920:	00058913          	mv	s2,a1
80005924:	00060413          	mv	s0,a2
80005928:	00050863          	beqz	a0,80005938 <__swbuf_r+0x34>
8000592c:	01852783          	lw	a5,24(a0)
80005930:	00079463          	bnez	a5,80005938 <__swbuf_r+0x34>
80005934:	cd0fe0ef          	jal	ra,80003e04 <__sinit>
80005938:	00004797          	auipc	a5,0x4
8000593c:	ff878793          	addi	a5,a5,-8 # 80009930 <__sf_fake_stdin>
80005940:	0af41e63          	bne	s0,a5,800059fc <__swbuf_r+0xf8>
80005944:	0044a403          	lw	s0,4(s1)
80005948:	01842783          	lw	a5,24(s0)
8000594c:	00f42423          	sw	a5,8(s0)
80005950:	00c45783          	lhu	a5,12(s0)
80005954:	0087f793          	andi	a5,a5,8
80005958:	0c078663          	beqz	a5,80005a24 <__swbuf_r+0x120>
8000595c:	01042783          	lw	a5,16(s0)
80005960:	0c078263          	beqz	a5,80005a24 <__swbuf_r+0x120>
80005964:	01042783          	lw	a5,16(s0)
80005968:	00042503          	lw	a0,0(s0)
8000596c:	0ff97993          	andi	s3,s2,255
80005970:	0ff97913          	andi	s2,s2,255
80005974:	40f50533          	sub	a0,a0,a5
80005978:	01442783          	lw	a5,20(s0)
8000597c:	00f54a63          	blt	a0,a5,80005990 <__swbuf_r+0x8c>
80005980:	00040593          	mv	a1,s0
80005984:	00048513          	mv	a0,s1
80005988:	528000ef          	jal	ra,80005eb0 <_fflush_r>
8000598c:	0a051463          	bnez	a0,80005a34 <__swbuf_r+0x130>
80005990:	00842783          	lw	a5,8(s0)
80005994:	00150513          	addi	a0,a0,1
80005998:	fff78793          	addi	a5,a5,-1
8000599c:	00f42423          	sw	a5,8(s0)
800059a0:	00042783          	lw	a5,0(s0)
800059a4:	00178713          	addi	a4,a5,1
800059a8:	00e42023          	sw	a4,0(s0)
800059ac:	01378023          	sb	s3,0(a5)
800059b0:	01442783          	lw	a5,20(s0)
800059b4:	00a78c63          	beq	a5,a0,800059cc <__swbuf_r+0xc8>
800059b8:	00c45783          	lhu	a5,12(s0)
800059bc:	0017f793          	andi	a5,a5,1
800059c0:	00078e63          	beqz	a5,800059dc <__swbuf_r+0xd8>
800059c4:	00a00793          	li	a5,10
800059c8:	00f91a63          	bne	s2,a5,800059dc <__swbuf_r+0xd8>
800059cc:	00040593          	mv	a1,s0
800059d0:	00048513          	mv	a0,s1
800059d4:	4dc000ef          	jal	ra,80005eb0 <_fflush_r>
800059d8:	04051e63          	bnez	a0,80005a34 <__swbuf_r+0x130>
800059dc:	01c12083          	lw	ra,28(sp)
800059e0:	01812403          	lw	s0,24(sp)
800059e4:	01412483          	lw	s1,20(sp)
800059e8:	00c12983          	lw	s3,12(sp)
800059ec:	00090513          	mv	a0,s2
800059f0:	01012903          	lw	s2,16(sp)
800059f4:	02010113          	addi	sp,sp,32
800059f8:	00008067          	ret
800059fc:	00004797          	auipc	a5,0x4
80005a00:	f5478793          	addi	a5,a5,-172 # 80009950 <__sf_fake_stdout>
80005a04:	00f41663          	bne	s0,a5,80005a10 <__swbuf_r+0x10c>
80005a08:	0084a403          	lw	s0,8(s1)
80005a0c:	f3dff06f          	j	80005948 <__swbuf_r+0x44>
80005a10:	00004797          	auipc	a5,0x4
80005a14:	f0078793          	addi	a5,a5,-256 # 80009910 <__sf_fake_stderr>
80005a18:	f2f418e3          	bne	s0,a5,80005948 <__swbuf_r+0x44>
80005a1c:	00c4a403          	lw	s0,12(s1)
80005a20:	f29ff06f          	j	80005948 <__swbuf_r+0x44>
80005a24:	00040593          	mv	a1,s0
80005a28:	00048513          	mv	a0,s1
80005a2c:	088000ef          	jal	ra,80005ab4 <__swsetup_r>
80005a30:	f2050ae3          	beqz	a0,80005964 <__swbuf_r+0x60>
80005a34:	fff00913          	li	s2,-1
80005a38:	fa5ff06f          	j	800059dc <__swbuf_r+0xd8>

80005a3c <__ascii_wctomb>:
__ascii_wctomb():
80005a3c:	02058463          	beqz	a1,80005a64 <__ascii_wctomb+0x28>
80005a40:	0ff00793          	li	a5,255
80005a44:	00c7fa63          	bgeu	a5,a2,80005a58 <__ascii_wctomb+0x1c>
80005a48:	08a00793          	li	a5,138
80005a4c:	00f52023          	sw	a5,0(a0)
80005a50:	fff00513          	li	a0,-1
80005a54:	00008067          	ret
80005a58:	00c58023          	sb	a2,0(a1)
80005a5c:	00100513          	li	a0,1
80005a60:	00008067          	ret
80005a64:	00000513          	li	a0,0
80005a68:	00008067          	ret

80005a6c <_write_r>:
_write_r():
80005a6c:	ff010113          	addi	sp,sp,-16
80005a70:	00812423          	sw	s0,8(sp)
80005a74:	00050413          	mv	s0,a0
80005a78:	00058513          	mv	a0,a1
80005a7c:	00060593          	mv	a1,a2
80005a80:	00068613          	mv	a2,a3
80005a84:	8a01a223          	sw	zero,-1884(gp) # 90000274 <errno>
80005a88:	00112623          	sw	ra,12(sp)
80005a8c:	ee4fb0ef          	jal	ra,80001170 <_write>
80005a90:	fff00793          	li	a5,-1
80005a94:	00f51863          	bne	a0,a5,80005aa4 <_write_r+0x38>
80005a98:	8a41a783          	lw	a5,-1884(gp) # 90000274 <errno>
80005a9c:	00078463          	beqz	a5,80005aa4 <_write_r+0x38>
80005aa0:	00f42023          	sw	a5,0(s0)
80005aa4:	00c12083          	lw	ra,12(sp)
80005aa8:	00812403          	lw	s0,8(sp)
80005aac:	01010113          	addi	sp,sp,16
80005ab0:	00008067          	ret

80005ab4 <__swsetup_r>:
__swsetup_r():
80005ab4:	ff010113          	addi	sp,sp,-16
80005ab8:	00812423          	sw	s0,8(sp)
80005abc:	00912223          	sw	s1,4(sp)
80005ac0:	01212023          	sw	s2,0(sp)
80005ac4:	00112623          	sw	ra,12(sp)
80005ac8:	0fffa497          	auipc	s1,0xfffa
80005acc:	7104a483          	lw	s1,1808(s1) # 900001d8 <_impure_ptr>
80005ad0:	00050913          	mv	s2,a0
80005ad4:	00058413          	mv	s0,a1
80005ad8:	00048a63          	beqz	s1,80005aec <__swsetup_r+0x38>
80005adc:	0184a783          	lw	a5,24(s1)
80005ae0:	00079663          	bnez	a5,80005aec <__swsetup_r+0x38>
80005ae4:	00048513          	mv	a0,s1
80005ae8:	b1cfe0ef          	jal	ra,80003e04 <__sinit>
80005aec:	00004797          	auipc	a5,0x4
80005af0:	e4478793          	addi	a5,a5,-444 # 80009930 <__sf_fake_stdin>
80005af4:	02f41e63          	bne	s0,a5,80005b30 <__swsetup_r+0x7c>
80005af8:	0044a403          	lw	s0,4(s1)
80005afc:	00c41783          	lh	a5,12(s0)
80005b00:	01079713          	slli	a4,a5,0x10
80005b04:	0087f693          	andi	a3,a5,8
80005b08:	01075713          	srli	a4,a4,0x10
80005b0c:	08069a63          	bnez	a3,80005ba0 <__swsetup_r+0xec>
80005b10:	01077693          	andi	a3,a4,16
80005b14:	04069263          	bnez	a3,80005b58 <__swsetup_r+0xa4>
80005b18:	00900713          	li	a4,9
80005b1c:	00e92023          	sw	a4,0(s2)
80005b20:	0407e793          	ori	a5,a5,64
80005b24:	00f41623          	sh	a5,12(s0)
80005b28:	fff00513          	li	a0,-1
80005b2c:	0d00006f          	j	80005bfc <__swsetup_r+0x148>
80005b30:	00004797          	auipc	a5,0x4
80005b34:	e2078793          	addi	a5,a5,-480 # 80009950 <__sf_fake_stdout>
80005b38:	00f41663          	bne	s0,a5,80005b44 <__swsetup_r+0x90>
80005b3c:	0084a403          	lw	s0,8(s1)
80005b40:	fbdff06f          	j	80005afc <__swsetup_r+0x48>
80005b44:	00004797          	auipc	a5,0x4
80005b48:	dcc78793          	addi	a5,a5,-564 # 80009910 <__sf_fake_stderr>
80005b4c:	faf418e3          	bne	s0,a5,80005afc <__swsetup_r+0x48>
80005b50:	00c4a403          	lw	s0,12(s1)
80005b54:	fa9ff06f          	j	80005afc <__swsetup_r+0x48>
80005b58:	00477713          	andi	a4,a4,4
80005b5c:	02070c63          	beqz	a4,80005b94 <__swsetup_r+0xe0>
80005b60:	03442583          	lw	a1,52(s0)
80005b64:	00058c63          	beqz	a1,80005b7c <__swsetup_r+0xc8>
80005b68:	04440793          	addi	a5,s0,68
80005b6c:	00f58663          	beq	a1,a5,80005b78 <__swsetup_r+0xc4>
80005b70:	00090513          	mv	a0,s2
80005b74:	be0ff0ef          	jal	ra,80004f54 <_free_r>
80005b78:	02042a23          	sw	zero,52(s0)
80005b7c:	00c45783          	lhu	a5,12(s0)
80005b80:	00042223          	sw	zero,4(s0)
80005b84:	fdb7f793          	andi	a5,a5,-37
80005b88:	00f41623          	sh	a5,12(s0)
80005b8c:	01042783          	lw	a5,16(s0)
80005b90:	00f42023          	sw	a5,0(s0)
80005b94:	00c45783          	lhu	a5,12(s0)
80005b98:	0087e793          	ori	a5,a5,8
80005b9c:	00f41623          	sh	a5,12(s0)
80005ba0:	01042783          	lw	a5,16(s0)
80005ba4:	02079063          	bnez	a5,80005bc4 <__swsetup_r+0x110>
80005ba8:	00c45783          	lhu	a5,12(s0)
80005bac:	20000713          	li	a4,512
80005bb0:	2807f793          	andi	a5,a5,640
80005bb4:	00e78863          	beq	a5,a4,80005bc4 <__swsetup_r+0x110>
80005bb8:	00040593          	mv	a1,s0
80005bbc:	00090513          	mv	a0,s2
80005bc0:	4b0000ef          	jal	ra,80006070 <__smakebuf_r>
80005bc4:	00c41783          	lh	a5,12(s0)
80005bc8:	01079713          	slli	a4,a5,0x10
80005bcc:	0017f693          	andi	a3,a5,1
80005bd0:	01075713          	srli	a4,a4,0x10
80005bd4:	04068063          	beqz	a3,80005c14 <__swsetup_r+0x160>
80005bd8:	01442683          	lw	a3,20(s0)
80005bdc:	00042423          	sw	zero,8(s0)
80005be0:	40d006b3          	neg	a3,a3
80005be4:	00d42c23          	sw	a3,24(s0)
80005be8:	01042683          	lw	a3,16(s0)
80005bec:	00000513          	li	a0,0
80005bf0:	00069663          	bnez	a3,80005bfc <__swsetup_r+0x148>
80005bf4:	08077713          	andi	a4,a4,128
80005bf8:	f20714e3          	bnez	a4,80005b20 <__swsetup_r+0x6c>
80005bfc:	00c12083          	lw	ra,12(sp)
80005c00:	00812403          	lw	s0,8(sp)
80005c04:	00412483          	lw	s1,4(sp)
80005c08:	00012903          	lw	s2,0(sp)
80005c0c:	01010113          	addi	sp,sp,16
80005c10:	00008067          	ret
80005c14:	00277693          	andi	a3,a4,2
80005c18:	00000613          	li	a2,0
80005c1c:	00069463          	bnez	a3,80005c24 <__swsetup_r+0x170>
80005c20:	01442603          	lw	a2,20(s0)
80005c24:	00c42423          	sw	a2,8(s0)
80005c28:	fc1ff06f          	j	80005be8 <__swsetup_r+0x134>

80005c2c <__assert_func>:
__assert_func():
80005c2c:	ff010113          	addi	sp,sp,-16
80005c30:	0fffa797          	auipc	a5,0xfffa
80005c34:	5a87a783          	lw	a5,1448(a5) # 900001d8 <_impure_ptr>
80005c38:	00060813          	mv	a6,a2
80005c3c:	00112623          	sw	ra,12(sp)
80005c40:	00050893          	mv	a7,a0
80005c44:	00058713          	mv	a4,a1
80005c48:	00c7a503          	lw	a0,12(a5)
80005c4c:	00068613          	mv	a2,a3
80005c50:	00004797          	auipc	a5,0x4
80005c54:	ea078793          	addi	a5,a5,-352 # 80009af0 <p05.0+0x20>
80005c58:	00081863          	bnez	a6,80005c68 <__assert_func+0x3c>
80005c5c:	00003797          	auipc	a5,0x3
80005c60:	54878793          	addi	a5,a5,1352 # 800091a4 <__extendsfdf2+0x174>
80005c64:	00078813          	mv	a6,a5
80005c68:	00088693          	mv	a3,a7
80005c6c:	00004597          	auipc	a1,0x4
80005c70:	e9458593          	addi	a1,a1,-364 # 80009b00 <p05.0+0x30>
80005c74:	2dc000ef          	jal	ra,80005f50 <fiprintf>
80005c78:	538000ef          	jal	ra,800061b0 <abort>

80005c7c <_close_r>:
_close_r():
80005c7c:	ff010113          	addi	sp,sp,-16
80005c80:	00812423          	sw	s0,8(sp)
80005c84:	00050413          	mv	s0,a0
80005c88:	00058513          	mv	a0,a1
80005c8c:	8a01a223          	sw	zero,-1884(gp) # 90000274 <errno>
80005c90:	00112623          	sw	ra,12(sp)
80005c94:	bf8fb0ef          	jal	ra,8000108c <_close>
80005c98:	fff00793          	li	a5,-1
80005c9c:	00f51863          	bne	a0,a5,80005cac <_close_r+0x30>
80005ca0:	8a41a783          	lw	a5,-1884(gp) # 90000274 <errno>
80005ca4:	00078463          	beqz	a5,80005cac <_close_r+0x30>
80005ca8:	00f42023          	sw	a5,0(s0)
80005cac:	00c12083          	lw	ra,12(sp)
80005cb0:	00812403          	lw	s0,8(sp)
80005cb4:	01010113          	addi	sp,sp,16
80005cb8:	00008067          	ret

80005cbc <__sflush_r>:
__sflush_r():
80005cbc:	00c5d783          	lhu	a5,12(a1)
80005cc0:	fe010113          	addi	sp,sp,-32
80005cc4:	00812c23          	sw	s0,24(sp)
80005cc8:	00912a23          	sw	s1,20(sp)
80005ccc:	00112e23          	sw	ra,28(sp)
80005cd0:	01212823          	sw	s2,16(sp)
80005cd4:	01312623          	sw	s3,12(sp)
80005cd8:	0087f713          	andi	a4,a5,8
80005cdc:	00050493          	mv	s1,a0
80005ce0:	00058413          	mv	s0,a1
80005ce4:	16071263          	bnez	a4,80005e48 <__sflush_r+0x18c>
80005ce8:	0045a703          	lw	a4,4(a1)
80005cec:	00e04a63          	bgtz	a4,80005d00 <__sflush_r+0x44>
80005cf0:	0405a703          	lw	a4,64(a1)
80005cf4:	00e04663          	bgtz	a4,80005d00 <__sflush_r+0x44>
80005cf8:	00000513          	li	a0,0
80005cfc:	1240006f          	j	80005e20 <__sflush_r+0x164>
80005d00:	02c42703          	lw	a4,44(s0)
80005d04:	fe070ae3          	beqz	a4,80005cf8 <__sflush_r+0x3c>
80005d08:	000016b7          	lui	a3,0x1
80005d0c:	0004a903          	lw	s2,0(s1)
80005d10:	00d7f7b3          	and	a5,a5,a3
80005d14:	0004a023          	sw	zero,0(s1)
80005d18:	0c078063          	beqz	a5,80005dd8 <__sflush_r+0x11c>
80005d1c:	05442503          	lw	a0,84(s0)
80005d20:	00c45783          	lhu	a5,12(s0)
80005d24:	0047f793          	andi	a5,a5,4
80005d28:	00078e63          	beqz	a5,80005d44 <__sflush_r+0x88>
80005d2c:	00442783          	lw	a5,4(s0)
80005d30:	40f50533          	sub	a0,a0,a5
80005d34:	03442783          	lw	a5,52(s0)
80005d38:	00078663          	beqz	a5,80005d44 <__sflush_r+0x88>
80005d3c:	04042783          	lw	a5,64(s0)
80005d40:	40f50533          	sub	a0,a0,a5
80005d44:	02c42783          	lw	a5,44(s0)
80005d48:	02042583          	lw	a1,32(s0)
80005d4c:	00050613          	mv	a2,a0
80005d50:	00000693          	li	a3,0
80005d54:	00048513          	mv	a0,s1
80005d58:	000780e7          	jalr	a5
80005d5c:	fff00793          	li	a5,-1
80005d60:	00c45703          	lhu	a4,12(s0)
80005d64:	02f51263          	bne	a0,a5,80005d88 <__sflush_r+0xcc>
80005d68:	0004a683          	lw	a3,0(s1)
80005d6c:	01d00793          	li	a5,29
80005d70:	0cd7e663          	bltu	a5,a3,80005e3c <__sflush_r+0x180>
80005d74:	204007b7          	lui	a5,0x20400
80005d78:	00178793          	addi	a5,a5,1 # 20400001 <dhry_stubs.c.aa5f359a+0x203fc426>
80005d7c:	00d7d7b3          	srl	a5,a5,a3
80005d80:	0017f793          	andi	a5,a5,1
80005d84:	0a078c63          	beqz	a5,80005e3c <__sflush_r+0x180>
80005d88:	01042783          	lw	a5,16(s0)
80005d8c:	00042223          	sw	zero,4(s0)
80005d90:	00f42023          	sw	a5,0(s0)
80005d94:	000017b7          	lui	a5,0x1
80005d98:	00f77733          	and	a4,a4,a5
80005d9c:	00070c63          	beqz	a4,80005db4 <__sflush_r+0xf8>
80005da0:	fff00793          	li	a5,-1
80005da4:	00f51663          	bne	a0,a5,80005db0 <__sflush_r+0xf4>
80005da8:	0004a783          	lw	a5,0(s1)
80005dac:	00079463          	bnez	a5,80005db4 <__sflush_r+0xf8>
80005db0:	04a42a23          	sw	a0,84(s0)
80005db4:	03442583          	lw	a1,52(s0)
80005db8:	0124a023          	sw	s2,0(s1)
80005dbc:	f2058ee3          	beqz	a1,80005cf8 <__sflush_r+0x3c>
80005dc0:	04440793          	addi	a5,s0,68
80005dc4:	00f58663          	beq	a1,a5,80005dd0 <__sflush_r+0x114>
80005dc8:	00048513          	mv	a0,s1
80005dcc:	988ff0ef          	jal	ra,80004f54 <_free_r>
80005dd0:	02042a23          	sw	zero,52(s0)
80005dd4:	f25ff06f          	j	80005cf8 <__sflush_r+0x3c>
80005dd8:	02042583          	lw	a1,32(s0)
80005ddc:	00100693          	li	a3,1
80005de0:	00000613          	li	a2,0
80005de4:	00048513          	mv	a0,s1
80005de8:	000700e7          	jalr	a4
80005dec:	fff00793          	li	a5,-1
80005df0:	f2f518e3          	bne	a0,a5,80005d20 <__sflush_r+0x64>
80005df4:	0004a783          	lw	a5,0(s1)
80005df8:	f20784e3          	beqz	a5,80005d20 <__sflush_r+0x64>
80005dfc:	01d00713          	li	a4,29
80005e00:	00e78663          	beq	a5,a4,80005e0c <__sflush_r+0x150>
80005e04:	01600713          	li	a4,22
80005e08:	00e79663          	bne	a5,a4,80005e14 <__sflush_r+0x158>
80005e0c:	0124a023          	sw	s2,0(s1)
80005e10:	ee9ff06f          	j	80005cf8 <__sflush_r+0x3c>
80005e14:	00c45783          	lhu	a5,12(s0)
80005e18:	0407e793          	ori	a5,a5,64
80005e1c:	00f41623          	sh	a5,12(s0)
80005e20:	01c12083          	lw	ra,28(sp)
80005e24:	01812403          	lw	s0,24(sp)
80005e28:	01412483          	lw	s1,20(sp)
80005e2c:	01012903          	lw	s2,16(sp)
80005e30:	00c12983          	lw	s3,12(sp)
80005e34:	02010113          	addi	sp,sp,32
80005e38:	00008067          	ret
80005e3c:	04076713          	ori	a4,a4,64
80005e40:	00e41623          	sh	a4,12(s0)
80005e44:	fddff06f          	j	80005e20 <__sflush_r+0x164>
80005e48:	0105a983          	lw	s3,16(a1)
80005e4c:	ea0986e3          	beqz	s3,80005cf8 <__sflush_r+0x3c>
80005e50:	0005a903          	lw	s2,0(a1)
80005e54:	0037f793          	andi	a5,a5,3
80005e58:	0135a023          	sw	s3,0(a1)
80005e5c:	41390933          	sub	s2,s2,s3
80005e60:	00000713          	li	a4,0
80005e64:	00079463          	bnez	a5,80005e6c <__sflush_r+0x1b0>
80005e68:	0145a703          	lw	a4,20(a1)
80005e6c:	00e42423          	sw	a4,8(s0)
80005e70:	e92054e3          	blez	s2,80005cf8 <__sflush_r+0x3c>
80005e74:	02842783          	lw	a5,40(s0)
80005e78:	02042583          	lw	a1,32(s0)
80005e7c:	00090693          	mv	a3,s2
80005e80:	00098613          	mv	a2,s3
80005e84:	00048513          	mv	a0,s1
80005e88:	000780e7          	jalr	a5 # 1000 <__stack_size+0x800>
80005e8c:	00a04c63          	bgtz	a0,80005ea4 <__sflush_r+0x1e8>
80005e90:	00c45783          	lhu	a5,12(s0)
80005e94:	fff00513          	li	a0,-1
80005e98:	0407e793          	ori	a5,a5,64
80005e9c:	00f41623          	sh	a5,12(s0)
80005ea0:	f81ff06f          	j	80005e20 <__sflush_r+0x164>
80005ea4:	00a989b3          	add	s3,s3,a0
80005ea8:	40a90933          	sub	s2,s2,a0
80005eac:	fc5ff06f          	j	80005e70 <__sflush_r+0x1b4>

80005eb0 <_fflush_r>:
_fflush_r():
80005eb0:	0105a783          	lw	a5,16(a1)
80005eb4:	08078a63          	beqz	a5,80005f48 <_fflush_r+0x98>
80005eb8:	fe010113          	addi	sp,sp,-32
80005ebc:	00812c23          	sw	s0,24(sp)
80005ec0:	00112e23          	sw	ra,28(sp)
80005ec4:	00050413          	mv	s0,a0
80005ec8:	00050c63          	beqz	a0,80005ee0 <_fflush_r+0x30>
80005ecc:	01852783          	lw	a5,24(a0)
80005ed0:	00079863          	bnez	a5,80005ee0 <_fflush_r+0x30>
80005ed4:	00b12623          	sw	a1,12(sp)
80005ed8:	f2dfd0ef          	jal	ra,80003e04 <__sinit>
80005edc:	00c12583          	lw	a1,12(sp)
80005ee0:	00004797          	auipc	a5,0x4
80005ee4:	a5078793          	addi	a5,a5,-1456 # 80009930 <__sf_fake_stdin>
80005ee8:	02f59263          	bne	a1,a5,80005f0c <_fflush_r+0x5c>
80005eec:	00442583          	lw	a1,4(s0)
80005ef0:	00c59783          	lh	a5,12(a1)
80005ef4:	04078063          	beqz	a5,80005f34 <_fflush_r+0x84>
80005ef8:	00040513          	mv	a0,s0
80005efc:	01812403          	lw	s0,24(sp)
80005f00:	01c12083          	lw	ra,28(sp)
80005f04:	02010113          	addi	sp,sp,32
80005f08:	db5ff06f          	j	80005cbc <__sflush_r>
80005f0c:	00004797          	auipc	a5,0x4
80005f10:	a4478793          	addi	a5,a5,-1468 # 80009950 <__sf_fake_stdout>
80005f14:	00f59663          	bne	a1,a5,80005f20 <_fflush_r+0x70>
80005f18:	00842583          	lw	a1,8(s0)
80005f1c:	fd5ff06f          	j	80005ef0 <_fflush_r+0x40>
80005f20:	00004797          	auipc	a5,0x4
80005f24:	9f078793          	addi	a5,a5,-1552 # 80009910 <__sf_fake_stderr>
80005f28:	fcf594e3          	bne	a1,a5,80005ef0 <_fflush_r+0x40>
80005f2c:	00c42583          	lw	a1,12(s0)
80005f30:	fc1ff06f          	j	80005ef0 <_fflush_r+0x40>
80005f34:	01c12083          	lw	ra,28(sp)
80005f38:	01812403          	lw	s0,24(sp)
80005f3c:	00000513          	li	a0,0
80005f40:	02010113          	addi	sp,sp,32
80005f44:	00008067          	ret
80005f48:	00000513          	li	a0,0
80005f4c:	00008067          	ret

80005f50 <fiprintf>:
fprintf():
80005f50:	fc010113          	addi	sp,sp,-64
80005f54:	02c12423          	sw	a2,40(sp)
80005f58:	02d12623          	sw	a3,44(sp)
80005f5c:	00058613          	mv	a2,a1
80005f60:	02810693          	addi	a3,sp,40
80005f64:	00050593          	mv	a1,a0
80005f68:	0fffa517          	auipc	a0,0xfffa
80005f6c:	27052503          	lw	a0,624(a0) # 900001d8 <_impure_ptr>
80005f70:	00112e23          	sw	ra,28(sp)
80005f74:	02e12823          	sw	a4,48(sp)
80005f78:	02f12a23          	sw	a5,52(sp)
80005f7c:	03012c23          	sw	a6,56(sp)
80005f80:	03112e23          	sw	a7,60(sp)
80005f84:	00d12623          	sw	a3,12(sp)
80005f88:	ac8ff0ef          	jal	ra,80005250 <_vfiprintf_r>
80005f8c:	01c12083          	lw	ra,28(sp)
80005f90:	04010113          	addi	sp,sp,64
80005f94:	00008067          	ret

80005f98 <_lseek_r>:
_lseek_r():
80005f98:	ff010113          	addi	sp,sp,-16
80005f9c:	00812423          	sw	s0,8(sp)
80005fa0:	00050413          	mv	s0,a0
80005fa4:	00058513          	mv	a0,a1
80005fa8:	00060593          	mv	a1,a2
80005fac:	00068613          	mv	a2,a3
80005fb0:	8a01a223          	sw	zero,-1884(gp) # 90000274 <errno>
80005fb4:	00112623          	sw	ra,12(sp)
80005fb8:	938fb0ef          	jal	ra,800010f0 <_lseek>
80005fbc:	fff00793          	li	a5,-1
80005fc0:	00f51863          	bne	a0,a5,80005fd0 <_lseek_r+0x38>
80005fc4:	8a41a783          	lw	a5,-1884(gp) # 90000274 <errno>
80005fc8:	00078463          	beqz	a5,80005fd0 <_lseek_r+0x38>
80005fcc:	00f42023          	sw	a5,0(s0)
80005fd0:	00c12083          	lw	ra,12(sp)
80005fd4:	00812403          	lw	s0,8(sp)
80005fd8:	01010113          	addi	sp,sp,16
80005fdc:	00008067          	ret

80005fe0 <__swhatbuf_r>:
__swhatbuf_r():
80005fe0:	f9010113          	addi	sp,sp,-112
80005fe4:	07212023          	sw	s2,96(sp)
80005fe8:	00058913          	mv	s2,a1
80005fec:	00e59583          	lh	a1,14(a1)
80005ff0:	06812423          	sw	s0,104(sp)
80005ff4:	06912223          	sw	s1,100(sp)
80005ff8:	06112623          	sw	ra,108(sp)
80005ffc:	00060413          	mv	s0,a2
80006000:	00068493          	mv	s1,a3
80006004:	0005de63          	bgez	a1,80006020 <__swhatbuf_r+0x40>
80006008:	00c91783          	lh	a5,12(s2)
8000600c:	0004a023          	sw	zero,0(s1)
80006010:	0807f793          	andi	a5,a5,128
80006014:	02079c63          	bnez	a5,8000604c <__swhatbuf_r+0x6c>
80006018:	40000793          	li	a5,1024
8000601c:	0340006f          	j	80006050 <__swhatbuf_r+0x70>
80006020:	00810613          	addi	a2,sp,8
80006024:	1a4000ef          	jal	ra,800061c8 <_fstat_r>
80006028:	fe0540e3          	bltz	a0,80006008 <__swhatbuf_r+0x28>
8000602c:	00c12703          	lw	a4,12(sp)
80006030:	0000f7b7          	lui	a5,0xf
80006034:	00e7f7b3          	and	a5,a5,a4
80006038:	ffffe737          	lui	a4,0xffffe
8000603c:	00e787b3          	add	a5,a5,a4
80006040:	0017b793          	seqz	a5,a5
80006044:	00f4a023          	sw	a5,0(s1)
80006048:	fd1ff06f          	j	80006018 <__swhatbuf_r+0x38>
8000604c:	04000793          	li	a5,64
80006050:	06c12083          	lw	ra,108(sp)
80006054:	00f42023          	sw	a5,0(s0)
80006058:	06812403          	lw	s0,104(sp)
8000605c:	06412483          	lw	s1,100(sp)
80006060:	06012903          	lw	s2,96(sp)
80006064:	00000513          	li	a0,0
80006068:	07010113          	addi	sp,sp,112
8000606c:	00008067          	ret

80006070 <__smakebuf_r>:
__smakebuf_r():
80006070:	00c5d783          	lhu	a5,12(a1)
80006074:	fe010113          	addi	sp,sp,-32
80006078:	00812c23          	sw	s0,24(sp)
8000607c:	00112e23          	sw	ra,28(sp)
80006080:	00912a23          	sw	s1,20(sp)
80006084:	01212823          	sw	s2,16(sp)
80006088:	0027f793          	andi	a5,a5,2
8000608c:	00058413          	mv	s0,a1
80006090:	02078863          	beqz	a5,800060c0 <__smakebuf_r+0x50>
80006094:	04740793          	addi	a5,s0,71
80006098:	00f42023          	sw	a5,0(s0)
8000609c:	00f42823          	sw	a5,16(s0)
800060a0:	00100793          	li	a5,1
800060a4:	00f42a23          	sw	a5,20(s0)
800060a8:	01c12083          	lw	ra,28(sp)
800060ac:	01812403          	lw	s0,24(sp)
800060b0:	01412483          	lw	s1,20(sp)
800060b4:	01012903          	lw	s2,16(sp)
800060b8:	02010113          	addi	sp,sp,32
800060bc:	00008067          	ret
800060c0:	00c10693          	addi	a3,sp,12
800060c4:	00810613          	addi	a2,sp,8
800060c8:	00050913          	mv	s2,a0
800060cc:	f15ff0ef          	jal	ra,80005fe0 <__swhatbuf_r>
800060d0:	00812583          	lw	a1,8(sp)
800060d4:	00050493          	mv	s1,a0
800060d8:	00090513          	mv	a0,s2
800060dc:	f75fe0ef          	jal	ra,80005050 <_malloc_r>
800060e0:	02051063          	bnez	a0,80006100 <__smakebuf_r+0x90>
800060e4:	00c41783          	lh	a5,12(s0)
800060e8:	2007f713          	andi	a4,a5,512
800060ec:	fa071ee3          	bnez	a4,800060a8 <__smakebuf_r+0x38>
800060f0:	ffc7f793          	andi	a5,a5,-4
800060f4:	0027e793          	ori	a5,a5,2
800060f8:	00f41623          	sh	a5,12(s0)
800060fc:	f99ff06f          	j	80006094 <__smakebuf_r+0x24>
80006100:	ffffe797          	auipc	a5,0xffffe
80006104:	c8c78793          	addi	a5,a5,-884 # 80003d8c <_cleanup_r>
80006108:	02f92423          	sw	a5,40(s2)
8000610c:	00c45783          	lhu	a5,12(s0)
80006110:	00a42023          	sw	a0,0(s0)
80006114:	00a42823          	sw	a0,16(s0)
80006118:	0807e793          	ori	a5,a5,128
8000611c:	00f41623          	sh	a5,12(s0)
80006120:	00812783          	lw	a5,8(sp)
80006124:	00f42a23          	sw	a5,20(s0)
80006128:	00c12783          	lw	a5,12(sp)
8000612c:	02078263          	beqz	a5,80006150 <__smakebuf_r+0xe0>
80006130:	00e41583          	lh	a1,14(s0)
80006134:	00090513          	mv	a0,s2
80006138:	0d4000ef          	jal	ra,8000620c <_isatty_r>
8000613c:	00050a63          	beqz	a0,80006150 <__smakebuf_r+0xe0>
80006140:	00c45783          	lhu	a5,12(s0)
80006144:	ffc7f793          	andi	a5,a5,-4
80006148:	0017e793          	ori	a5,a5,1
8000614c:	00f41623          	sh	a5,12(s0)
80006150:	00c45503          	lhu	a0,12(s0)
80006154:	00a4e4b3          	or	s1,s1,a0
80006158:	00941623          	sh	s1,12(s0)
8000615c:	f4dff06f          	j	800060a8 <__smakebuf_r+0x38>

80006160 <__malloc_lock>:
__malloc_lock():
80006160:	00008067          	ret

80006164 <__malloc_unlock>:
__malloc_unlock():
80006164:	00008067          	ret

80006168 <_read_r>:
_read_r():
80006168:	ff010113          	addi	sp,sp,-16
8000616c:	00812423          	sw	s0,8(sp)
80006170:	00050413          	mv	s0,a0
80006174:	00058513          	mv	a0,a1
80006178:	00060593          	mv	a1,a2
8000617c:	00068613          	mv	a2,a3
80006180:	8a01a223          	sw	zero,-1884(gp) # 90000274 <errno>
80006184:	00112623          	sw	ra,12(sp)
80006188:	f71fa0ef          	jal	ra,800010f8 <_read>
8000618c:	fff00793          	li	a5,-1
80006190:	00f51863          	bne	a0,a5,800061a0 <_read_r+0x38>
80006194:	8a41a783          	lw	a5,-1884(gp) # 90000274 <errno>
80006198:	00078463          	beqz	a5,800061a0 <_read_r+0x38>
8000619c:	00f42023          	sw	a5,0(s0)
800061a0:	00c12083          	lw	ra,12(sp)
800061a4:	00812403          	lw	s0,8(sp)
800061a8:	01010113          	addi	sp,sp,16
800061ac:	00008067          	ret

800061b0 <abort>:
abort():
800061b0:	ff010113          	addi	sp,sp,-16
800061b4:	00600513          	li	a0,6
800061b8:	00112623          	sw	ra,12(sp)
800061bc:	140000ef          	jal	ra,800062fc <raise>
800061c0:	00100513          	li	a0,1
800061c4:	ed9fa0ef          	jal	ra,8000109c <_exit>

800061c8 <_fstat_r>:
_fstat_r():
800061c8:	ff010113          	addi	sp,sp,-16
800061cc:	00812423          	sw	s0,8(sp)
800061d0:	00050413          	mv	s0,a0
800061d4:	00058513          	mv	a0,a1
800061d8:	00060593          	mv	a1,a2
800061dc:	8a01a223          	sw	zero,-1884(gp) # 90000274 <errno>
800061e0:	00112623          	sw	ra,12(sp)
800061e4:	ec1fa0ef          	jal	ra,800010a4 <_fstat>
800061e8:	fff00793          	li	a5,-1
800061ec:	00f51863          	bne	a0,a5,800061fc <_fstat_r+0x34>
800061f0:	8a41a783          	lw	a5,-1884(gp) # 90000274 <errno>
800061f4:	00078463          	beqz	a5,800061fc <_fstat_r+0x34>
800061f8:	00f42023          	sw	a5,0(s0)
800061fc:	00c12083          	lw	ra,12(sp)
80006200:	00812403          	lw	s0,8(sp)
80006204:	01010113          	addi	sp,sp,16
80006208:	00008067          	ret

8000620c <_isatty_r>:
_isatty_r():
8000620c:	ff010113          	addi	sp,sp,-16
80006210:	00812423          	sw	s0,8(sp)
80006214:	00050413          	mv	s0,a0
80006218:	00058513          	mv	a0,a1
8000621c:	8a01a223          	sw	zero,-1884(gp) # 90000274 <errno>
80006220:	00112623          	sw	ra,12(sp)
80006224:	eb5fa0ef          	jal	ra,800010d8 <_isatty>
80006228:	fff00793          	li	a5,-1
8000622c:	00f51863          	bne	a0,a5,8000623c <_isatty_r+0x30>
80006230:	8a41a783          	lw	a5,-1884(gp) # 90000274 <errno>
80006234:	00078463          	beqz	a5,8000623c <_isatty_r+0x30>
80006238:	00f42023          	sw	a5,0(s0)
8000623c:	00c12083          	lw	ra,12(sp)
80006240:	00812403          	lw	s0,8(sp)
80006244:	01010113          	addi	sp,sp,16
80006248:	00008067          	ret

8000624c <_raise_r>:
_raise_r():
8000624c:	fe010113          	addi	sp,sp,-32
80006250:	00812c23          	sw	s0,24(sp)
80006254:	00112e23          	sw	ra,28(sp)
80006258:	01f00793          	li	a5,31
8000625c:	00050413          	mv	s0,a0
80006260:	02b7f063          	bgeu	a5,a1,80006280 <_raise_r+0x34>
80006264:	01600793          	li	a5,22
80006268:	00f52023          	sw	a5,0(a0)
8000626c:	fff00513          	li	a0,-1
80006270:	01c12083          	lw	ra,28(sp)
80006274:	01812403          	lw	s0,24(sp)
80006278:	02010113          	addi	sp,sp,32
8000627c:	00008067          	ret
80006280:	04452783          	lw	a5,68(a0)
80006284:	00058613          	mv	a2,a1
80006288:	00078a63          	beqz	a5,8000629c <_raise_r+0x50>
8000628c:	00259713          	slli	a4,a1,0x2
80006290:	00e787b3          	add	a5,a5,a4
80006294:	0007a703          	lw	a4,0(a5)
80006298:	02071663          	bnez	a4,800062c4 <_raise_r+0x78>
8000629c:	00040513          	mv	a0,s0
800062a0:	00c12623          	sw	a2,12(sp)
800062a4:	0ac000ef          	jal	ra,80006350 <_getpid_r>
800062a8:	00050593          	mv	a1,a0
800062ac:	00040513          	mv	a0,s0
800062b0:	01812403          	lw	s0,24(sp)
800062b4:	00c12603          	lw	a2,12(sp)
800062b8:	01c12083          	lw	ra,28(sp)
800062bc:	02010113          	addi	sp,sp,32
800062c0:	04c0006f          	j	8000630c <_kill_r>
800062c4:	00100693          	li	a3,1
800062c8:	00000513          	li	a0,0
800062cc:	fad702e3          	beq	a4,a3,80006270 <_raise_r+0x24>
800062d0:	fff00693          	li	a3,-1
800062d4:	00d71a63          	bne	a4,a3,800062e8 <_raise_r+0x9c>
800062d8:	01600793          	li	a5,22
800062dc:	00f42023          	sw	a5,0(s0)
800062e0:	00100513          	li	a0,1
800062e4:	f8dff06f          	j	80006270 <_raise_r+0x24>
800062e8:	00058513          	mv	a0,a1
800062ec:	0007a023          	sw	zero,0(a5)
800062f0:	000700e7          	jalr	a4 # ffffe000 <_sp+0x6ffee000>
800062f4:	00000513          	li	a0,0
800062f8:	f79ff06f          	j	80006270 <_raise_r+0x24>

800062fc <raise>:
raise():
800062fc:	00050593          	mv	a1,a0
80006300:	0fffa517          	auipc	a0,0xfffa
80006304:	ed852503          	lw	a0,-296(a0) # 900001d8 <_impure_ptr>
80006308:	f45ff06f          	j	8000624c <_raise_r>

8000630c <_kill_r>:
_kill_r():
8000630c:	ff010113          	addi	sp,sp,-16
80006310:	00812423          	sw	s0,8(sp)
80006314:	00050413          	mv	s0,a0
80006318:	00058513          	mv	a0,a1
8000631c:	00060593          	mv	a1,a2
80006320:	8a01a223          	sw	zero,-1884(gp) # 90000274 <errno>
80006324:	00112623          	sw	ra,12(sp)
80006328:	db9fa0ef          	jal	ra,800010e0 <_kill>
8000632c:	fff00793          	li	a5,-1
80006330:	00f51863          	bne	a0,a5,80006340 <_kill_r+0x34>
80006334:	8a41a783          	lw	a5,-1884(gp) # 90000274 <errno>
80006338:	00078463          	beqz	a5,80006340 <_kill_r+0x34>
8000633c:	00f42023          	sw	a5,0(s0)
80006340:	00c12083          	lw	ra,12(sp)
80006344:	00812403          	lw	s0,8(sp)
80006348:	01010113          	addi	sp,sp,16
8000634c:	00008067          	ret

80006350 <_getpid_r>:
_getpid_r():
80006350:	d81fa06f          	j	800010d0 <_getpid>

80006354 <__adddf3>:
__adddf3():
/home/hqfang/workspace/software/riscv-gnu-toolchain/riscv-gcc/libgcc/soft-fp/adddf3.c:44
80006354:	00100837          	lui	a6,0x100
80006358:	fff80813          	addi	a6,a6,-1 # fffff <dhry_stubs.c.aa5f359a+0xfc424>
/home/hqfang/workspace/software/riscv-gnu-toolchain/riscv-gcc/libgcc/soft-fp/adddf3.c:36
8000635c:	fe010113          	addi	sp,sp,-32
/home/hqfang/workspace/software/riscv-gnu-toolchain/riscv-gcc/libgcc/soft-fp/adddf3.c:44
80006360:	00b877b3          	and	a5,a6,a1
80006364:	0145d713          	srli	a4,a1,0x14
/home/hqfang/workspace/software/riscv-gnu-toolchain/riscv-gcc/libgcc/soft-fp/adddf3.c:45
80006368:	00d87833          	and	a6,a6,a3
8000636c:	0146d313          	srli	t1,a3,0x14
/home/hqfang/workspace/software/riscv-gnu-toolchain/riscv-gcc/libgcc/soft-fp/adddf3.c:36
80006370:	00812c23          	sw	s0,24(sp)
/home/hqfang/workspace/software/riscv-gnu-toolchain/riscv-gcc/libgcc/soft-fp/adddf3.c:44
80006374:	00379793          	slli	a5,a5,0x3
80006378:	7ff77413          	andi	s0,a4,2047
8000637c:	01d55713          	srli	a4,a0,0x1d
/home/hqfang/workspace/software/riscv-gnu-toolchain/riscv-gcc/libgcc/soft-fp/adddf3.c:45
80006380:	00381813          	slli	a6,a6,0x3
/home/hqfang/workspace/software/riscv-gnu-toolchain/riscv-gcc/libgcc/soft-fp/adddf3.c:36
80006384:	00912a23          	sw	s1,20(sp)
/home/hqfang/workspace/software/riscv-gnu-toolchain/riscv-gcc/libgcc/soft-fp/adddf3.c:44
80006388:	00f767b3          	or	a5,a4,a5
8000638c:	01f5d493          	srli	s1,a1,0x1f
/home/hqfang/workspace/software/riscv-gnu-toolchain/riscv-gcc/libgcc/soft-fp/adddf3.c:45
80006390:	01d65713          	srli	a4,a2,0x1d
80006394:	7ff37313          	andi	t1,t1,2047
/home/hqfang/workspace/software/riscv-gnu-toolchain/riscv-gcc/libgcc/soft-fp/adddf3.c:36
80006398:	00112e23          	sw	ra,28(sp)
8000639c:	01212823          	sw	s2,16(sp)
800063a0:	01312623          	sw	s3,12(sp)
/home/hqfang/workspace/software/riscv-gnu-toolchain/riscv-gcc/libgcc/soft-fp/adddf3.c:45
800063a4:	01f6d693          	srli	a3,a3,0x1f
800063a8:	01076733          	or	a4,a4,a6
/home/hqfang/workspace/software/riscv-gnu-toolchain/riscv-gcc/libgcc/soft-fp/adddf3.c:44
800063ac:	00351593          	slli	a1,a0,0x3
/home/hqfang/workspace/software/riscv-gnu-toolchain/riscv-gcc/libgcc/soft-fp/adddf3.c:45
800063b0:	00361613          	slli	a2,a2,0x3
/home/hqfang/workspace/software/riscv-gnu-toolchain/riscv-gcc/libgcc/soft-fp/adddf3.c:46
800063b4:	40640833          	sub	a6,s0,t1
800063b8:	2cd49863          	bne	s1,a3,80006688 <__adddf3+0x334>
/home/hqfang/workspace/software/riscv-gnu-toolchain/riscv-gcc/libgcc/soft-fp/adddf3.c:46 (discriminator 7)
800063bc:	13005063          	blez	a6,800064dc <__adddf3+0x188>
/home/hqfang/workspace/software/riscv-gnu-toolchain/riscv-gcc/libgcc/soft-fp/adddf3.c:46 (discriminator 9)
800063c0:	04031063          	bnez	t1,80006400 <__adddf3+0xac>
/home/hqfang/workspace/software/riscv-gnu-toolchain/riscv-gcc/libgcc/soft-fp/adddf3.c:46 (discriminator 11)
800063c4:	00c766b3          	or	a3,a4,a2
800063c8:	70068c63          	beqz	a3,80006ae0 <__adddf3+0x78c>
/home/hqfang/workspace/software/riscv-gnu-toolchain/riscv-gcc/libgcc/soft-fp/adddf3.c:46 (discriminator 14)
800063cc:	fff80513          	addi	a0,a6,-1
800063d0:	02051063          	bnez	a0,800063f0 <__adddf3+0x9c>
/home/hqfang/workspace/software/riscv-gnu-toolchain/riscv-gcc/libgcc/soft-fp/adddf3.c:46 (discriminator 23)
800063d4:	00c58633          	add	a2,a1,a2
800063d8:	00b63533          	sltu	a0,a2,a1
800063dc:	00e787b3          	add	a5,a5,a4
800063e0:	00a787b3          	add	a5,a5,a0
800063e4:	00060593          	mv	a1,a2
/home/hqfang/workspace/software/riscv-gnu-toolchain/riscv-gcc/libgcc/soft-fp/adddf3.c:45 (discriminator 80)
800063e8:	00100413          	li	s0,1
/home/hqfang/workspace/software/riscv-gnu-toolchain/riscv-gcc/libgcc/soft-fp/adddf3.c:46 (discriminator 80)
800063ec:	0700006f          	j	8000645c <__adddf3+0x108>
/home/hqfang/workspace/software/riscv-gnu-toolchain/riscv-gcc/libgcc/soft-fp/adddf3.c:46 (discriminator 24)
800063f0:	7ff00693          	li	a3,2047
800063f4:	02d81063          	bne	a6,a3,80006414 <__adddf3+0xc0>
/home/hqfang/workspace/software/riscv-gnu-toolchain/riscv-gcc/libgcc/soft-fp/adddf3.c:46
800063f8:	7ff00413          	li	s0,2047
800063fc:	2140006f          	j	80006610 <__adddf3+0x2bc>
/home/hqfang/workspace/software/riscv-gnu-toolchain/riscv-gcc/libgcc/soft-fp/adddf3.c:46 (discriminator 12)
80006400:	7ff00693          	li	a3,2047
80006404:	20d40663          	beq	s0,a3,80006610 <__adddf3+0x2bc>
/home/hqfang/workspace/software/riscv-gnu-toolchain/riscv-gcc/libgcc/soft-fp/adddf3.c:46 (discriminator 38)
80006408:	008006b7          	lui	a3,0x800
8000640c:	00d76733          	or	a4,a4,a3
80006410:	00080513          	mv	a0,a6
/home/hqfang/workspace/software/riscv-gnu-toolchain/riscv-gcc/libgcc/soft-fp/adddf3.c:46 (discriminator 47)
80006414:	03800693          	li	a3,56
80006418:	0aa6cc63          	blt	a3,a0,800064d0 <__adddf3+0x17c>
/home/hqfang/workspace/software/riscv-gnu-toolchain/riscv-gcc/libgcc/soft-fp/adddf3.c:46 (discriminator 48)
8000641c:	01f00693          	li	a3,31
80006420:	06a6ce63          	blt	a3,a0,8000649c <__adddf3+0x148>
/home/hqfang/workspace/software/riscv-gnu-toolchain/riscv-gcc/libgcc/soft-fp/adddf3.c:46 (discriminator 50)
80006424:	02000813          	li	a6,32
80006428:	40a80833          	sub	a6,a6,a0
8000642c:	010716b3          	sll	a3,a4,a6
80006430:	00a658b3          	srl	a7,a2,a0
80006434:	01061633          	sll	a2,a2,a6
80006438:	0116e6b3          	or	a3,a3,a7
8000643c:	00c03633          	snez	a2,a2
80006440:	00c6e633          	or	a2,a3,a2
80006444:	00a75733          	srl	a4,a4,a0
/home/hqfang/workspace/software/riscv-gnu-toolchain/riscv-gcc/libgcc/soft-fp/adddf3.c:46 (discriminator 64)
80006448:	00b60633          	add	a2,a2,a1
8000644c:	00b63533          	sltu	a0,a2,a1
80006450:	00f70733          	add	a4,a4,a5
80006454:	00a707b3          	add	a5,a4,a0
80006458:	00060593          	mv	a1,a2
/home/hqfang/workspace/software/riscv-gnu-toolchain/riscv-gcc/libgcc/soft-fp/adddf3.c:46 (discriminator 122)
8000645c:	00800737          	lui	a4,0x800
80006460:	00e7f733          	and	a4,a5,a4
80006464:	1a070663          	beqz	a4,80006610 <__adddf3+0x2bc>
/home/hqfang/workspace/software/riscv-gnu-toolchain/riscv-gcc/libgcc/soft-fp/adddf3.c:46 (discriminator 182)
80006468:	00140413          	addi	s0,s0,1
8000646c:	7ff00713          	li	a4,2047
80006470:	5ce40a63          	beq	s0,a4,80006a44 <__adddf3+0x6f0>
/home/hqfang/workspace/software/riscv-gnu-toolchain/riscv-gcc/libgcc/soft-fp/adddf3.c:46
80006474:	ff800737          	lui	a4,0xff800
80006478:	fff70713          	addi	a4,a4,-1 # ff7fffff <_sp+0x6f7effff>
8000647c:	00e7f7b3          	and	a5,a5,a4
80006480:	0015f513          	andi	a0,a1,1
80006484:	0015d713          	srli	a4,a1,0x1
80006488:	00a76533          	or	a0,a4,a0
8000648c:	01f79593          	slli	a1,a5,0x1f
80006490:	00a5e5b3          	or	a1,a1,a0
80006494:	0017d793          	srli	a5,a5,0x1
80006498:	1780006f          	j	80006610 <__adddf3+0x2bc>
/home/hqfang/workspace/software/riscv-gnu-toolchain/riscv-gcc/libgcc/soft-fp/adddf3.c:46 (discriminator 51)
8000649c:	fe050693          	addi	a3,a0,-32
800064a0:	02000893          	li	a7,32
800064a4:	00d756b3          	srl	a3,a4,a3
800064a8:	00000813          	li	a6,0
800064ac:	01150863          	beq	a0,a7,800064bc <__adddf3+0x168>
/home/hqfang/workspace/software/riscv-gnu-toolchain/riscv-gcc/libgcc/soft-fp/adddf3.c:46 (discriminator 58)
800064b0:	04000813          	li	a6,64
800064b4:	40a80533          	sub	a0,a6,a0
800064b8:	00a71833          	sll	a6,a4,a0
/home/hqfang/workspace/software/riscv-gnu-toolchain/riscv-gcc/libgcc/soft-fp/adddf3.c:46 (discriminator 61)
800064bc:	00c86633          	or	a2,a6,a2
800064c0:	00c03633          	snez	a2,a2
800064c4:	00c6e633          	or	a2,a3,a2
/home/hqfang/workspace/software/riscv-gnu-toolchain/riscv-gcc/libgcc/soft-fp/adddf3.c:46 (discriminator 49)
800064c8:	00000713          	li	a4,0
800064cc:	f7dff06f          	j	80006448 <__adddf3+0xf4>
800064d0:	00c76633          	or	a2,a4,a2
800064d4:	00c03633          	snez	a2,a2
800064d8:	ff1ff06f          	j	800064c8 <__adddf3+0x174>
/home/hqfang/workspace/software/riscv-gnu-toolchain/riscv-gcc/libgcc/soft-fp/adddf3.c:46 (discriminator 10)
800064dc:	0e080263          	beqz	a6,800065c0 <__adddf3+0x26c>
/home/hqfang/workspace/software/riscv-gnu-toolchain/riscv-gcc/libgcc/soft-fp/adddf3.c:46 (discriminator 66)
800064e0:	40830533          	sub	a0,t1,s0
800064e4:	02041e63          	bnez	s0,80006520 <__adddf3+0x1cc>
/home/hqfang/workspace/software/riscv-gnu-toolchain/riscv-gcc/libgcc/soft-fp/adddf3.c:46 (discriminator 68)
800064e8:	00b7e6b3          	or	a3,a5,a1
800064ec:	52068c63          	beqz	a3,80006a24 <__adddf3+0x6d0>
/home/hqfang/workspace/software/riscv-gnu-toolchain/riscv-gcc/libgcc/soft-fp/adddf3.c:46 (discriminator 71)
800064f0:	fff50693          	addi	a3,a0,-1
800064f4:	00069c63          	bnez	a3,8000650c <__adddf3+0x1b8>
/home/hqfang/workspace/software/riscv-gnu-toolchain/riscv-gcc/libgcc/soft-fp/adddf3.c:46 (discriminator 80)
800064f8:	00c585b3          	add	a1,a1,a2
800064fc:	00e787b3          	add	a5,a5,a4
80006500:	00c5b633          	sltu	a2,a1,a2
80006504:	00c787b3          	add	a5,a5,a2
80006508:	ee1ff06f          	j	800063e8 <__adddf3+0x94>
/home/hqfang/workspace/software/riscv-gnu-toolchain/riscv-gcc/libgcc/soft-fp/adddf3.c:46 (discriminator 81)
8000650c:	7ff00813          	li	a6,2047
80006510:	03051263          	bne	a0,a6,80006534 <__adddf3+0x1e0>
/home/hqfang/workspace/software/riscv-gnu-toolchain/riscv-gcc/libgcc/soft-fp/adddf3.c:45
80006514:	00070793          	mv	a5,a4
80006518:	00060593          	mv	a1,a2
8000651c:	eddff06f          	j	800063f8 <__adddf3+0xa4>
/home/hqfang/workspace/software/riscv-gnu-toolchain/riscv-gcc/libgcc/soft-fp/adddf3.c:46 (discriminator 69)
80006520:	7ff00693          	li	a3,2047
80006524:	fed308e3          	beq	t1,a3,80006514 <__adddf3+0x1c0>
/home/hqfang/workspace/software/riscv-gnu-toolchain/riscv-gcc/libgcc/soft-fp/adddf3.c:46 (discriminator 95)
80006528:	008006b7          	lui	a3,0x800
8000652c:	00d7e7b3          	or	a5,a5,a3
80006530:	00050693          	mv	a3,a0
/home/hqfang/workspace/software/riscv-gnu-toolchain/riscv-gcc/libgcc/soft-fp/adddf3.c:46 (discriminator 104)
80006534:	03800513          	li	a0,56
80006538:	06d54e63          	blt	a0,a3,800065b4 <__adddf3+0x260>
/home/hqfang/workspace/software/riscv-gnu-toolchain/riscv-gcc/libgcc/soft-fp/adddf3.c:46 (discriminator 105)
8000653c:	01f00513          	li	a0,31
80006540:	04d54063          	blt	a0,a3,80006580 <__adddf3+0x22c>
/home/hqfang/workspace/software/riscv-gnu-toolchain/riscv-gcc/libgcc/soft-fp/adddf3.c:46 (discriminator 107)
80006544:	02000813          	li	a6,32
80006548:	40d80833          	sub	a6,a6,a3
8000654c:	01079533          	sll	a0,a5,a6
80006550:	00d5d8b3          	srl	a7,a1,a3
80006554:	010595b3          	sll	a1,a1,a6
80006558:	01156533          	or	a0,a0,a7
8000655c:	00b035b3          	snez	a1,a1
80006560:	00b56533          	or	a0,a0,a1
80006564:	00d7d7b3          	srl	a5,a5,a3
/home/hqfang/workspace/software/riscv-gnu-toolchain/riscv-gcc/libgcc/soft-fp/adddf3.c:46 (discriminator 121)
80006568:	00c505b3          	add	a1,a0,a2
8000656c:	00e787b3          	add	a5,a5,a4
80006570:	00c5b633          	sltu	a2,a1,a2
80006574:	00c787b3          	add	a5,a5,a2
/home/hqfang/workspace/software/riscv-gnu-toolchain/riscv-gcc/libgcc/soft-fp/adddf3.c:45 (discriminator 121)
80006578:	00030413          	mv	s0,t1
8000657c:	ee1ff06f          	j	8000645c <__adddf3+0x108>
/home/hqfang/workspace/software/riscv-gnu-toolchain/riscv-gcc/libgcc/soft-fp/adddf3.c:46 (discriminator 108)
80006580:	fe068513          	addi	a0,a3,-32 # 7fffe0 <dhry_stubs.c.aa5f359a+0x7fc405>
80006584:	02000893          	li	a7,32
80006588:	00a7d833          	srl	a6,a5,a0
8000658c:	00000513          	li	a0,0
80006590:	01168863          	beq	a3,a7,800065a0 <__adddf3+0x24c>
/home/hqfang/workspace/software/riscv-gnu-toolchain/riscv-gcc/libgcc/soft-fp/adddf3.c:46 (discriminator 115)
80006594:	04000513          	li	a0,64
80006598:	40d50533          	sub	a0,a0,a3
8000659c:	00a79533          	sll	a0,a5,a0
/home/hqfang/workspace/software/riscv-gnu-toolchain/riscv-gcc/libgcc/soft-fp/adddf3.c:46 (discriminator 118)
800065a0:	00b56533          	or	a0,a0,a1
800065a4:	00a03533          	snez	a0,a0
800065a8:	00a86533          	or	a0,a6,a0
/home/hqfang/workspace/software/riscv-gnu-toolchain/riscv-gcc/libgcc/soft-fp/adddf3.c:46 (discriminator 106)
800065ac:	00000793          	li	a5,0
800065b0:	fb9ff06f          	j	80006568 <__adddf3+0x214>
800065b4:	00b7e533          	or	a0,a5,a1
800065b8:	00a03533          	snez	a0,a0
800065bc:	ff1ff06f          	j	800065ac <__adddf3+0x258>
/home/hqfang/workspace/software/riscv-gnu-toolchain/riscv-gcc/libgcc/soft-fp/adddf3.c:46 (discriminator 67)
800065c0:	00140693          	addi	a3,s0,1
800065c4:	7fe6f513          	andi	a0,a3,2046
800065c8:	08051863          	bnez	a0,80006658 <__adddf3+0x304>
/home/hqfang/workspace/software/riscv-gnu-toolchain/riscv-gcc/libgcc/soft-fp/adddf3.c:46 (discriminator 123)
800065cc:	00b7e6b3          	or	a3,a5,a1
800065d0:	06041463          	bnez	s0,80006638 <__adddf3+0x2e4>
/home/hqfang/workspace/software/riscv-gnu-toolchain/riscv-gcc/libgcc/soft-fp/adddf3.c:46 (discriminator 125)
800065d4:	46068063          	beqz	a3,80006a34 <__adddf3+0x6e0>
/home/hqfang/workspace/software/riscv-gnu-toolchain/riscv-gcc/libgcc/soft-fp/adddf3.c:46 (discriminator 128)
800065d8:	00c766b3          	or	a3,a4,a2
800065dc:	02068a63          	beqz	a3,80006610 <__adddf3+0x2bc>
/home/hqfang/workspace/software/riscv-gnu-toolchain/riscv-gcc/libgcc/soft-fp/adddf3.c:46 (discriminator 134)
800065e0:	00c58633          	add	a2,a1,a2
800065e4:	00e787b3          	add	a5,a5,a4
800065e8:	00b63533          	sltu	a0,a2,a1
800065ec:	00a787b3          	add	a5,a5,a0
800065f0:	00800737          	lui	a4,0x800
800065f4:	00e7f733          	and	a4,a5,a4
800065f8:	00060593          	mv	a1,a2
800065fc:	00070a63          	beqz	a4,80006610 <__adddf3+0x2bc>
/home/hqfang/workspace/software/riscv-gnu-toolchain/riscv-gcc/libgcc/soft-fp/adddf3.c:46 (discriminator 136)
80006600:	ff800737          	lui	a4,0xff800
80006604:	fff70713          	addi	a4,a4,-1 # ff7fffff <_sp+0x6f7effff>
80006608:	00e7f7b3          	and	a5,a5,a4
8000660c:	00100413          	li	s0,1
/home/hqfang/workspace/software/riscv-gnu-toolchain/riscv-gcc/libgcc/soft-fp/adddf3.c:47 (discriminator 421)
80006610:	0075f713          	andi	a4,a1,7
80006614:	42070c63          	beqz	a4,80006a4c <__adddf3+0x6f8>
/home/hqfang/workspace/software/riscv-gnu-toolchain/riscv-gcc/libgcc/soft-fp/adddf3.c:47 (discriminator 37)
80006618:	00f5f713          	andi	a4,a1,15
8000661c:	00400693          	li	a3,4
80006620:	42d70663          	beq	a4,a3,80006a4c <__adddf3+0x6f8>
/home/hqfang/workspace/software/riscv-gnu-toolchain/riscv-gcc/libgcc/soft-fp/adddf3.c:47 (discriminator 44)
80006624:	00458713          	addi	a4,a1,4
80006628:	00b73533          	sltu	a0,a4,a1
8000662c:	00a787b3          	add	a5,a5,a0
80006630:	00070593          	mv	a1,a4
80006634:	4180006f          	j	80006a4c <__adddf3+0x6f8>
/home/hqfang/workspace/software/riscv-gnu-toolchain/riscv-gcc/libgcc/soft-fp/adddf3.c:46 (discriminator 153)
80006638:	ec068ee3          	beqz	a3,80006514 <__adddf3+0x1c0>
/home/hqfang/workspace/software/riscv-gnu-toolchain/riscv-gcc/libgcc/soft-fp/adddf3.c:46 (discriminator 155)
8000663c:	00c76633          	or	a2,a4,a2
80006640:	da060ce3          	beqz	a2,800063f8 <__adddf3+0xa4>
/home/hqfang/workspace/software/riscv-gnu-toolchain/riscv-gcc/libgcc/soft-fp/adddf3.c:46
80006644:	00000493          	li	s1,0
80006648:	004007b7          	lui	a5,0x400
8000664c:	00000593          	li	a1,0
80006650:	7ff00413          	li	s0,2047
80006654:	3f80006f          	j	80006a4c <__adddf3+0x6f8>
/home/hqfang/workspace/software/riscv-gnu-toolchain/riscv-gcc/libgcc/soft-fp/adddf3.c:46 (discriminator 124)
80006658:	7ff00513          	li	a0,2047
8000665c:	3ea68263          	beq	a3,a0,80006a40 <__adddf3+0x6ec>
/home/hqfang/workspace/software/riscv-gnu-toolchain/riscv-gcc/libgcc/soft-fp/adddf3.c:46
80006660:	00c58633          	add	a2,a1,a2
80006664:	00b63533          	sltu	a0,a2,a1
80006668:	00e787b3          	add	a5,a5,a4
8000666c:	00a787b3          	add	a5,a5,a0
80006670:	01f79513          	slli	a0,a5,0x1f
80006674:	00165613          	srli	a2,a2,0x1
80006678:	00c565b3          	or	a1,a0,a2
8000667c:	0017d793          	srli	a5,a5,0x1
80006680:	00068413          	mv	s0,a3
80006684:	f8dff06f          	j	80006610 <__adddf3+0x2bc>
/home/hqfang/workspace/software/riscv-gnu-toolchain/riscv-gcc/libgcc/soft-fp/adddf3.c:46 (discriminator 8)
80006688:	0f005c63          	blez	a6,80006780 <__adddf3+0x42c>
/home/hqfang/workspace/software/riscv-gnu-toolchain/riscv-gcc/libgcc/soft-fp/adddf3.c:46 (discriminator 200)
8000668c:	08031e63          	bnez	t1,80006728 <__adddf3+0x3d4>
/home/hqfang/workspace/software/riscv-gnu-toolchain/riscv-gcc/libgcc/soft-fp/adddf3.c:46 (discriminator 202)
80006690:	00c766b3          	or	a3,a4,a2
80006694:	44068663          	beqz	a3,80006ae0 <__adddf3+0x78c>
/home/hqfang/workspace/software/riscv-gnu-toolchain/riscv-gcc/libgcc/soft-fp/adddf3.c:46 (discriminator 205)
80006698:	fff80513          	addi	a0,a6,-1
8000669c:	02051063          	bnez	a0,800066bc <__adddf3+0x368>
/home/hqfang/workspace/software/riscv-gnu-toolchain/riscv-gcc/libgcc/soft-fp/adddf3.c:46 (discriminator 214)
800066a0:	40c58633          	sub	a2,a1,a2
800066a4:	00c5b533          	sltu	a0,a1,a2
800066a8:	40e787b3          	sub	a5,a5,a4
800066ac:	40a787b3          	sub	a5,a5,a0
800066b0:	00060593          	mv	a1,a2
/home/hqfang/workspace/software/riscv-gnu-toolchain/riscv-gcc/libgcc/soft-fp/adddf3.c:45 (discriminator 271)
800066b4:	00100413          	li	s0,1
/home/hqfang/workspace/software/riscv-gnu-toolchain/riscv-gcc/libgcc/soft-fp/adddf3.c:46 (discriminator 271)
800066b8:	0540006f          	j	8000670c <__adddf3+0x3b8>
/home/hqfang/workspace/software/riscv-gnu-toolchain/riscv-gcc/libgcc/soft-fp/adddf3.c:46 (discriminator 215)
800066bc:	7ff00693          	li	a3,2047
800066c0:	d2d80ce3          	beq	a6,a3,800063f8 <__adddf3+0xa4>
/home/hqfang/workspace/software/riscv-gnu-toolchain/riscv-gcc/libgcc/soft-fp/adddf3.c:46 (discriminator 238)
800066c4:	03800693          	li	a3,56
800066c8:	0aa6c663          	blt	a3,a0,80006774 <__adddf3+0x420>
/home/hqfang/workspace/software/riscv-gnu-toolchain/riscv-gcc/libgcc/soft-fp/adddf3.c:46 (discriminator 239)
800066cc:	01f00693          	li	a3,31
800066d0:	06a6c863          	blt	a3,a0,80006740 <__adddf3+0x3ec>
/home/hqfang/workspace/software/riscv-gnu-toolchain/riscv-gcc/libgcc/soft-fp/adddf3.c:46 (discriminator 241)
800066d4:	02000813          	li	a6,32
800066d8:	40a80833          	sub	a6,a6,a0
800066dc:	010716b3          	sll	a3,a4,a6
800066e0:	00a658b3          	srl	a7,a2,a0
800066e4:	01061633          	sll	a2,a2,a6
800066e8:	0116e6b3          	or	a3,a3,a7
800066ec:	00c03633          	snez	a2,a2
800066f0:	00c6e633          	or	a2,a3,a2
800066f4:	00a75733          	srl	a4,a4,a0
/home/hqfang/workspace/software/riscv-gnu-toolchain/riscv-gcc/libgcc/soft-fp/adddf3.c:46 (discriminator 255)
800066f8:	40c58633          	sub	a2,a1,a2
800066fc:	00c5b533          	sltu	a0,a1,a2
80006700:	40e78733          	sub	a4,a5,a4
80006704:	40a707b3          	sub	a5,a4,a0
80006708:	00060593          	mv	a1,a2
/home/hqfang/workspace/software/riscv-gnu-toolchain/riscv-gcc/libgcc/soft-fp/adddf3.c:46 (discriminator 313)
8000670c:	00800937          	lui	s2,0x800
80006710:	0127f733          	and	a4,a5,s2
80006714:	ee070ee3          	beqz	a4,80006610 <__adddf3+0x2bc>
/home/hqfang/workspace/software/riscv-gnu-toolchain/riscv-gcc/libgcc/soft-fp/adddf3.c:46 (discriminator 373)
80006718:	fff90913          	addi	s2,s2,-1 # 7fffff <dhry_stubs.c.aa5f359a+0x7fc424>
8000671c:	0127f933          	and	s2,a5,s2
80006720:	00058993          	mv	s3,a1
80006724:	2140006f          	j	80006938 <__adddf3+0x5e4>
/home/hqfang/workspace/software/riscv-gnu-toolchain/riscv-gcc/libgcc/soft-fp/adddf3.c:46 (discriminator 203)
80006728:	7ff00693          	li	a3,2047
8000672c:	eed402e3          	beq	s0,a3,80006610 <__adddf3+0x2bc>
/home/hqfang/workspace/software/riscv-gnu-toolchain/riscv-gcc/libgcc/soft-fp/adddf3.c:46 (discriminator 229)
80006730:	008006b7          	lui	a3,0x800
80006734:	00d76733          	or	a4,a4,a3
80006738:	00080513          	mv	a0,a6
8000673c:	f89ff06f          	j	800066c4 <__adddf3+0x370>
/home/hqfang/workspace/software/riscv-gnu-toolchain/riscv-gcc/libgcc/soft-fp/adddf3.c:46 (discriminator 242)
80006740:	fe050693          	addi	a3,a0,-32
80006744:	02000893          	li	a7,32
80006748:	00d756b3          	srl	a3,a4,a3
8000674c:	00000813          	li	a6,0
80006750:	01150863          	beq	a0,a7,80006760 <__adddf3+0x40c>
/home/hqfang/workspace/software/riscv-gnu-toolchain/riscv-gcc/libgcc/soft-fp/adddf3.c:46 (discriminator 249)
80006754:	04000813          	li	a6,64
80006758:	40a80533          	sub	a0,a6,a0
8000675c:	00a71833          	sll	a6,a4,a0
/home/hqfang/workspace/software/riscv-gnu-toolchain/riscv-gcc/libgcc/soft-fp/adddf3.c:46 (discriminator 252)
80006760:	00c86633          	or	a2,a6,a2
80006764:	00c03633          	snez	a2,a2
80006768:	00c6e633          	or	a2,a3,a2
/home/hqfang/workspace/software/riscv-gnu-toolchain/riscv-gcc/libgcc/soft-fp/adddf3.c:46 (discriminator 240)
8000676c:	00000713          	li	a4,0
80006770:	f89ff06f          	j	800066f8 <__adddf3+0x3a4>
80006774:	00c76633          	or	a2,a4,a2
80006778:	00c03633          	snez	a2,a2
8000677c:	ff1ff06f          	j	8000676c <__adddf3+0x418>
/home/hqfang/workspace/software/riscv-gnu-toolchain/riscv-gcc/libgcc/soft-fp/adddf3.c:46 (discriminator 201)
80006780:	0e080863          	beqz	a6,80006870 <__adddf3+0x51c>
/home/hqfang/workspace/software/riscv-gnu-toolchain/riscv-gcc/libgcc/soft-fp/adddf3.c:46 (discriminator 257)
80006784:	40830533          	sub	a0,t1,s0
80006788:	04041263          	bnez	s0,800067cc <__adddf3+0x478>
/home/hqfang/workspace/software/riscv-gnu-toolchain/riscv-gcc/libgcc/soft-fp/adddf3.c:46 (discriminator 259)
8000678c:	00b7e833          	or	a6,a5,a1
80006790:	34080c63          	beqz	a6,80006ae8 <__adddf3+0x794>
/home/hqfang/workspace/software/riscv-gnu-toolchain/riscv-gcc/libgcc/soft-fp/adddf3.c:46 (discriminator 262)
80006794:	fff50813          	addi	a6,a0,-1
80006798:	00081e63          	bnez	a6,800067b4 <__adddf3+0x460>
/home/hqfang/workspace/software/riscv-gnu-toolchain/riscv-gcc/libgcc/soft-fp/adddf3.c:46 (discriminator 271)
8000679c:	40b605b3          	sub	a1,a2,a1
800067a0:	40f707b3          	sub	a5,a4,a5
800067a4:	00b63633          	sltu	a2,a2,a1
800067a8:	40c787b3          	sub	a5,a5,a2
800067ac:	00068493          	mv	s1,a3
800067b0:	f05ff06f          	j	800066b4 <__adddf3+0x360>
/home/hqfang/workspace/software/riscv-gnu-toolchain/riscv-gcc/libgcc/soft-fp/adddf3.c:46 (discriminator 272)
800067b4:	7ff00893          	li	a7,2047
800067b8:	03151463          	bne	a0,a7,800067e0 <__adddf3+0x48c>
/home/hqfang/workspace/software/riscv-gnu-toolchain/riscv-gcc/libgcc/soft-fp/adddf3.c:45
800067bc:	00070793          	mv	a5,a4
800067c0:	00060593          	mv	a1,a2
/home/hqfang/workspace/software/riscv-gnu-toolchain/riscv-gcc/libgcc/soft-fp/adddf3.c:46
800067c4:	7ff00413          	li	s0,2047
800067c8:	0d00006f          	j	80006898 <__adddf3+0x544>
/home/hqfang/workspace/software/riscv-gnu-toolchain/riscv-gcc/libgcc/soft-fp/adddf3.c:46 (discriminator 260)
800067cc:	7ff00813          	li	a6,2047
800067d0:	ff0306e3          	beq	t1,a6,800067bc <__adddf3+0x468>
/home/hqfang/workspace/software/riscv-gnu-toolchain/riscv-gcc/libgcc/soft-fp/adddf3.c:46 (discriminator 286)
800067d4:	00800837          	lui	a6,0x800
800067d8:	0107e7b3          	or	a5,a5,a6
800067dc:	00050813          	mv	a6,a0
/home/hqfang/workspace/software/riscv-gnu-toolchain/riscv-gcc/libgcc/soft-fp/adddf3.c:46 (discriminator 295)
800067e0:	03800513          	li	a0,56
800067e4:	09054063          	blt	a0,a6,80006864 <__adddf3+0x510>
/home/hqfang/workspace/software/riscv-gnu-toolchain/riscv-gcc/libgcc/soft-fp/adddf3.c:46 (discriminator 296)
800067e8:	01f00513          	li	a0,31
800067ec:	05054263          	blt	a0,a6,80006830 <__adddf3+0x4dc>
/home/hqfang/workspace/software/riscv-gnu-toolchain/riscv-gcc/libgcc/soft-fp/adddf3.c:46 (discriminator 298)
800067f0:	02000893          	li	a7,32
800067f4:	410888b3          	sub	a7,a7,a6
800067f8:	01179533          	sll	a0,a5,a7
800067fc:	0105de33          	srl	t3,a1,a6
80006800:	011595b3          	sll	a1,a1,a7
80006804:	01c56533          	or	a0,a0,t3
80006808:	00b035b3          	snez	a1,a1
8000680c:	00b56533          	or	a0,a0,a1
80006810:	0107d7b3          	srl	a5,a5,a6
/home/hqfang/workspace/software/riscv-gnu-toolchain/riscv-gcc/libgcc/soft-fp/adddf3.c:46 (discriminator 312)
80006814:	40a605b3          	sub	a1,a2,a0
80006818:	40f707b3          	sub	a5,a4,a5
8000681c:	00b63633          	sltu	a2,a2,a1
80006820:	40c787b3          	sub	a5,a5,a2
/home/hqfang/workspace/software/riscv-gnu-toolchain/riscv-gcc/libgcc/soft-fp/adddf3.c:45 (discriminator 312)
80006824:	00030413          	mv	s0,t1
80006828:	00068493          	mv	s1,a3
8000682c:	ee1ff06f          	j	8000670c <__adddf3+0x3b8>
/home/hqfang/workspace/software/riscv-gnu-toolchain/riscv-gcc/libgcc/soft-fp/adddf3.c:46 (discriminator 299)
80006830:	fe080513          	addi	a0,a6,-32 # 7fffe0 <dhry_stubs.c.aa5f359a+0x7fc405>
80006834:	02000e13          	li	t3,32
80006838:	00a7d8b3          	srl	a7,a5,a0
8000683c:	00000513          	li	a0,0
80006840:	01c80863          	beq	a6,t3,80006850 <__adddf3+0x4fc>
/home/hqfang/workspace/software/riscv-gnu-toolchain/riscv-gcc/libgcc/soft-fp/adddf3.c:46 (discriminator 306)
80006844:	04000513          	li	a0,64
80006848:	41050533          	sub	a0,a0,a6
8000684c:	00a79533          	sll	a0,a5,a0
/home/hqfang/workspace/software/riscv-gnu-toolchain/riscv-gcc/libgcc/soft-fp/adddf3.c:46 (discriminator 309)
80006850:	00b56533          	or	a0,a0,a1
80006854:	00a03533          	snez	a0,a0
80006858:	00a8e533          	or	a0,a7,a0
/home/hqfang/workspace/software/riscv-gnu-toolchain/riscv-gcc/libgcc/soft-fp/adddf3.c:46 (discriminator 297)
8000685c:	00000793          	li	a5,0
80006860:	fb5ff06f          	j	80006814 <__adddf3+0x4c0>
80006864:	00b7e533          	or	a0,a5,a1
80006868:	00a03533          	snez	a0,a0
8000686c:	ff1ff06f          	j	8000685c <__adddf3+0x508>
/home/hqfang/workspace/software/riscv-gnu-toolchain/riscv-gcc/libgcc/soft-fp/adddf3.c:46 (discriminator 258)
80006870:	00140513          	addi	a0,s0,1
80006874:	7fe57513          	andi	a0,a0,2046
80006878:	08051863          	bnez	a0,80006908 <__adddf3+0x5b4>
/home/hqfang/workspace/software/riscv-gnu-toolchain/riscv-gcc/libgcc/soft-fp/adddf3.c:46 (discriminator 314)
8000687c:	00b7e833          	or	a6,a5,a1
80006880:	00c76533          	or	a0,a4,a2
80006884:	06041263          	bnez	s0,800068e8 <__adddf3+0x594>
/home/hqfang/workspace/software/riscv-gnu-toolchain/riscv-gcc/libgcc/soft-fp/adddf3.c:46 (discriminator 316)
80006888:	00081c63          	bnez	a6,800068a0 <__adddf3+0x54c>
/home/hqfang/workspace/software/riscv-gnu-toolchain/riscv-gcc/libgcc/soft-fp/adddf3.c:46 (discriminator 318)
8000688c:	26050663          	beqz	a0,80006af8 <__adddf3+0x7a4>
/home/hqfang/workspace/software/riscv-gnu-toolchain/riscv-gcc/libgcc/soft-fp/adddf3.c:45
80006890:	00070793          	mv	a5,a4
80006894:	00060593          	mv	a1,a2
80006898:	00068493          	mv	s1,a3
8000689c:	d75ff06f          	j	80006610 <__adddf3+0x2bc>
/home/hqfang/workspace/software/riscv-gnu-toolchain/riscv-gcc/libgcc/soft-fp/adddf3.c:46 (discriminator 319)
800068a0:	d60508e3          	beqz	a0,80006610 <__adddf3+0x2bc>
/home/hqfang/workspace/software/riscv-gnu-toolchain/riscv-gcc/libgcc/soft-fp/adddf3.c:46 (discriminator 326)
800068a4:	40c58833          	sub	a6,a1,a2
800068a8:	0105b8b3          	sltu	a7,a1,a6
800068ac:	40e78533          	sub	a0,a5,a4
800068b0:	41150533          	sub	a0,a0,a7
800068b4:	008008b7          	lui	a7,0x800
800068b8:	011578b3          	and	a7,a0,a7
800068bc:	00088c63          	beqz	a7,800068d4 <__adddf3+0x580>
/home/hqfang/workspace/software/riscv-gnu-toolchain/riscv-gcc/libgcc/soft-fp/adddf3.c:46 (discriminator 328)
800068c0:	40b605b3          	sub	a1,a2,a1
800068c4:	40f707b3          	sub	a5,a4,a5
800068c8:	00b63633          	sltu	a2,a2,a1
800068cc:	40c787b3          	sub	a5,a5,a2
800068d0:	fc9ff06f          	j	80006898 <__adddf3+0x544>
/home/hqfang/workspace/software/riscv-gnu-toolchain/riscv-gcc/libgcc/soft-fp/adddf3.c:46 (discriminator 329)
800068d4:	00a865b3          	or	a1,a6,a0
800068d8:	22058863          	beqz	a1,80006b08 <__adddf3+0x7b4>
/home/hqfang/workspace/software/riscv-gnu-toolchain/riscv-gcc/libgcc/soft-fp/adddf3.c:46
800068dc:	00050793          	mv	a5,a0
800068e0:	00080593          	mv	a1,a6
800068e4:	d2dff06f          	j	80006610 <__adddf3+0x2bc>
/home/hqfang/workspace/software/riscv-gnu-toolchain/riscv-gcc/libgcc/soft-fp/adddf3.c:46 (discriminator 348)
800068e8:	00081c63          	bnez	a6,80006900 <__adddf3+0x5ac>
/home/hqfang/workspace/software/riscv-gnu-toolchain/riscv-gcc/libgcc/soft-fp/adddf3.c:46 (discriminator 349)
800068ec:	22050263          	beqz	a0,80006b10 <__adddf3+0x7bc>
/home/hqfang/workspace/software/riscv-gnu-toolchain/riscv-gcc/libgcc/soft-fp/adddf3.c:45
800068f0:	00070793          	mv	a5,a4
800068f4:	00060593          	mv	a1,a2
/home/hqfang/workspace/software/riscv-gnu-toolchain/riscv-gcc/libgcc/soft-fp/adddf3.c:46
800068f8:	00068493          	mv	s1,a3
800068fc:	afdff06f          	j	800063f8 <__adddf3+0xa4>
/home/hqfang/workspace/software/riscv-gnu-toolchain/riscv-gcc/libgcc/soft-fp/adddf3.c:46 (discriminator 350)
80006900:	ae050ce3          	beqz	a0,800063f8 <__adddf3+0xa4>
80006904:	d41ff06f          	j	80006644 <__adddf3+0x2f0>
/home/hqfang/workspace/software/riscv-gnu-toolchain/riscv-gcc/libgcc/soft-fp/adddf3.c:46 (discriminator 315)
80006908:	40c589b3          	sub	s3,a1,a2
8000690c:	0135b533          	sltu	a0,a1,s3
80006910:	40e78933          	sub	s2,a5,a4
80006914:	40a90933          	sub	s2,s2,a0
80006918:	00800537          	lui	a0,0x800
8000691c:	00a97533          	and	a0,s2,a0
80006920:	08050463          	beqz	a0,800069a8 <__adddf3+0x654>
/home/hqfang/workspace/software/riscv-gnu-toolchain/riscv-gcc/libgcc/soft-fp/adddf3.c:46 (discriminator 366)
80006924:	40b609b3          	sub	s3,a2,a1
80006928:	40f707b3          	sub	a5,a4,a5
8000692c:	01363633          	sltu	a2,a2,s3
80006930:	40c78933          	sub	s2,a5,a2
80006934:	00068493          	mv	s1,a3
/home/hqfang/workspace/software/riscv-gnu-toolchain/riscv-gcc/libgcc/soft-fp/adddf3.c:46 (discriminator 375)
80006938:	08090263          	beqz	s2,800069bc <__adddf3+0x668>
/home/hqfang/workspace/software/riscv-gnu-toolchain/riscv-gcc/libgcc/soft-fp/adddf3.c:46 (discriminator 378)
8000693c:	00090513          	mv	a0,s2
80006940:	631010ef          	jal	ra,80008770 <__clzsi2>
/home/hqfang/workspace/software/riscv-gnu-toolchain/riscv-gcc/libgcc/soft-fp/adddf3.c:46 (discriminator 392)
80006944:	ff850713          	addi	a4,a0,-8 # 7ffff8 <dhry_stubs.c.aa5f359a+0x7fc41d>
80006948:	01f00793          	li	a5,31
8000694c:	08e7c063          	blt	a5,a4,800069cc <__adddf3+0x678>
/home/hqfang/workspace/software/riscv-gnu-toolchain/riscv-gcc/libgcc/soft-fp/adddf3.c:46 (discriminator 398)
80006950:	02000793          	li	a5,32
80006954:	40e787b3          	sub	a5,a5,a4
80006958:	00e91933          	sll	s2,s2,a4
8000695c:	00f9d7b3          	srl	a5,s3,a5
80006960:	0127e7b3          	or	a5,a5,s2
80006964:	00e995b3          	sll	a1,s3,a4
/home/hqfang/workspace/software/riscv-gnu-toolchain/riscv-gcc/libgcc/soft-fp/adddf3.c:46 (discriminator 402)
80006968:	0a874463          	blt	a4,s0,80006a10 <__adddf3+0x6bc>
/home/hqfang/workspace/software/riscv-gnu-toolchain/riscv-gcc/libgcc/soft-fp/adddf3.c:46 (discriminator 403)
8000696c:	40870733          	sub	a4,a4,s0
80006970:	00170693          	addi	a3,a4,1
80006974:	01f00613          	li	a2,31
80006978:	06d64263          	blt	a2,a3,800069dc <__adddf3+0x688>
/home/hqfang/workspace/software/riscv-gnu-toolchain/riscv-gcc/libgcc/soft-fp/adddf3.c:46 (discriminator 405)
8000697c:	02000713          	li	a4,32
80006980:	40d70733          	sub	a4,a4,a3
80006984:	00e79633          	sll	a2,a5,a4
80006988:	00d5d533          	srl	a0,a1,a3
8000698c:	00e595b3          	sll	a1,a1,a4
80006990:	00a66633          	or	a2,a2,a0
80006994:	00b035b3          	snez	a1,a1
80006998:	00b665b3          	or	a1,a2,a1
8000699c:	00d7d7b3          	srl	a5,a5,a3
/home/hqfang/workspace/software/riscv-gnu-toolchain/riscv-gcc/libgcc/soft-fp/adddf3.c:46 (discriminator 417)
800069a0:	00000413          	li	s0,0
800069a4:	c6dff06f          	j	80006610 <__adddf3+0x2bc>
/home/hqfang/workspace/software/riscv-gnu-toolchain/riscv-gcc/libgcc/soft-fp/adddf3.c:46 (discriminator 367)
800069a8:	0129e5b3          	or	a1,s3,s2
800069ac:	f80596e3          	bnez	a1,80006938 <__adddf3+0x5e4>
800069b0:	00000793          	li	a5,0
/home/hqfang/workspace/software/riscv-gnu-toolchain/riscv-gcc/libgcc/soft-fp/adddf3.c:46
800069b4:	00000413          	li	s0,0
800069b8:	1480006f          	j	80006b00 <__adddf3+0x7ac>
/home/hqfang/workspace/software/riscv-gnu-toolchain/riscv-gcc/libgcc/soft-fp/adddf3.c:46 (discriminator 385)
800069bc:	00098513          	mv	a0,s3
800069c0:	5b1010ef          	jal	ra,80008770 <__clzsi2>
800069c4:	02050513          	addi	a0,a0,32
800069c8:	f7dff06f          	j	80006944 <__adddf3+0x5f0>
/home/hqfang/workspace/software/riscv-gnu-toolchain/riscv-gcc/libgcc/soft-fp/adddf3.c:46 (discriminator 394)
800069cc:	fd850793          	addi	a5,a0,-40
800069d0:	00f997b3          	sll	a5,s3,a5
800069d4:	00000593          	li	a1,0
800069d8:	f91ff06f          	j	80006968 <__adddf3+0x614>
/home/hqfang/workspace/software/riscv-gnu-toolchain/riscv-gcc/libgcc/soft-fp/adddf3.c:46 (discriminator 406)
800069dc:	fe170713          	addi	a4,a4,-31
800069e0:	02000613          	li	a2,32
800069e4:	00e7d733          	srl	a4,a5,a4
800069e8:	00000513          	li	a0,0
800069ec:	00c68863          	beq	a3,a2,800069fc <__adddf3+0x6a8>
/home/hqfang/workspace/software/riscv-gnu-toolchain/riscv-gcc/libgcc/soft-fp/adddf3.c:46 (discriminator 414)
800069f0:	04000513          	li	a0,64
800069f4:	40d50533          	sub	a0,a0,a3
800069f8:	00a79533          	sll	a0,a5,a0
/home/hqfang/workspace/software/riscv-gnu-toolchain/riscv-gcc/libgcc/soft-fp/adddf3.c:46 (discriminator 417)
800069fc:	00a5e533          	or	a0,a1,a0
80006a00:	00a03533          	snez	a0,a0
80006a04:	00a765b3          	or	a1,a4,a0
80006a08:	00000793          	li	a5,0
80006a0c:	f95ff06f          	j	800069a0 <__adddf3+0x64c>
/home/hqfang/workspace/software/riscv-gnu-toolchain/riscv-gcc/libgcc/soft-fp/adddf3.c:46 (discriminator 404)
80006a10:	40e40433          	sub	s0,s0,a4
80006a14:	ff800737          	lui	a4,0xff800
80006a18:	fff70713          	addi	a4,a4,-1 # ff7fffff <_sp+0x6f7effff>
80006a1c:	00e7f7b3          	and	a5,a5,a4
80006a20:	bf1ff06f          	j	80006610 <__adddf3+0x2bc>
/home/hqfang/workspace/software/riscv-gnu-toolchain/riscv-gcc/libgcc/soft-fp/adddf3.c:45
80006a24:	00070793          	mv	a5,a4
80006a28:	00060593          	mv	a1,a2
/home/hqfang/workspace/software/riscv-gnu-toolchain/riscv-gcc/libgcc/soft-fp/adddf3.c:46
80006a2c:	00050413          	mv	s0,a0
80006a30:	be1ff06f          	j	80006610 <__adddf3+0x2bc>
/home/hqfang/workspace/software/riscv-gnu-toolchain/riscv-gcc/libgcc/soft-fp/adddf3.c:45
80006a34:	00070793          	mv	a5,a4
80006a38:	00060593          	mv	a1,a2
80006a3c:	bd5ff06f          	j	80006610 <__adddf3+0x2bc>
80006a40:	7ff00413          	li	s0,2047
80006a44:	00000793          	li	a5,0
80006a48:	00000593          	li	a1,0
/home/hqfang/workspace/software/riscv-gnu-toolchain/riscv-gcc/libgcc/soft-fp/adddf3.c:47 (discriminator 47)
80006a4c:	00800737          	lui	a4,0x800
80006a50:	00e7f733          	and	a4,a5,a4
80006a54:	00070e63          	beqz	a4,80006a70 <__adddf3+0x71c>
/home/hqfang/workspace/software/riscv-gnu-toolchain/riscv-gcc/libgcc/soft-fp/adddf3.c:47 (discriminator 63)
80006a58:	00140413          	addi	s0,s0,1
80006a5c:	7ff00713          	li	a4,2047
80006a60:	0ce40063          	beq	s0,a4,80006b20 <__adddf3+0x7cc>
/home/hqfang/workspace/software/riscv-gnu-toolchain/riscv-gcc/libgcc/soft-fp/adddf3.c:47
80006a64:	ff800737          	lui	a4,0xff800
80006a68:	fff70713          	addi	a4,a4,-1 # ff7fffff <_sp+0x6f7effff>
80006a6c:	00e7f7b3          	and	a5,a5,a4
/home/hqfang/workspace/software/riscv-gnu-toolchain/riscv-gcc/libgcc/soft-fp/adddf3.c:47 (discriminator 79)
80006a70:	01d79713          	slli	a4,a5,0x1d
80006a74:	0035d513          	srli	a0,a1,0x3
80006a78:	00a76533          	or	a0,a4,a0
80006a7c:	7ff00713          	li	a4,2047
80006a80:	0037d793          	srli	a5,a5,0x3
80006a84:	00e41e63          	bne	s0,a4,80006aa0 <__adddf3+0x74c>
/home/hqfang/workspace/software/riscv-gnu-toolchain/riscv-gcc/libgcc/soft-fp/adddf3.c:47 (discriminator 80)
80006a88:	00f56533          	or	a0,a0,a5
80006a8c:	00000793          	li	a5,0
80006a90:	00050863          	beqz	a0,80006aa0 <__adddf3+0x74c>
/home/hqfang/workspace/software/riscv-gnu-toolchain/riscv-gcc/libgcc/soft-fp/adddf3.c:47
80006a94:	000807b7          	lui	a5,0x80
80006a98:	00000513          	li	a0,0
80006a9c:	00000493          	li	s1,0
/home/hqfang/workspace/software/riscv-gnu-toolchain/riscv-gcc/libgcc/soft-fp/adddf3.c:47 (discriminator 90)
80006aa0:	01441713          	slli	a4,s0,0x14
80006aa4:	7ff006b7          	lui	a3,0x7ff00
80006aa8:	00c79793          	slli	a5,a5,0xc
/home/hqfang/workspace/software/riscv-gnu-toolchain/riscv-gcc/libgcc/soft-fp/adddf3.c:51 (discriminator 90)
80006aac:	01c12083          	lw	ra,28(sp)
80006ab0:	01812403          	lw	s0,24(sp)
/home/hqfang/workspace/software/riscv-gnu-toolchain/riscv-gcc/libgcc/soft-fp/adddf3.c:47 (discriminator 90)
80006ab4:	00d77733          	and	a4,a4,a3
80006ab8:	00c7d793          	srli	a5,a5,0xc
80006abc:	01f49493          	slli	s1,s1,0x1f
80006ac0:	00f767b3          	or	a5,a4,a5
80006ac4:	0097e733          	or	a4,a5,s1
/home/hqfang/workspace/software/riscv-gnu-toolchain/riscv-gcc/libgcc/soft-fp/adddf3.c:51 (discriminator 90)
80006ac8:	01012903          	lw	s2,16(sp)
80006acc:	01412483          	lw	s1,20(sp)
80006ad0:	00c12983          	lw	s3,12(sp)
80006ad4:	00070593          	mv	a1,a4
80006ad8:	02010113          	addi	sp,sp,32
80006adc:	00008067          	ret
80006ae0:	00080413          	mv	s0,a6
80006ae4:	b2dff06f          	j	80006610 <__adddf3+0x2bc>
/home/hqfang/workspace/software/riscv-gnu-toolchain/riscv-gcc/libgcc/soft-fp/adddf3.c:45
80006ae8:	00070793          	mv	a5,a4
80006aec:	00060593          	mv	a1,a2
/home/hqfang/workspace/software/riscv-gnu-toolchain/riscv-gcc/libgcc/soft-fp/adddf3.c:46
80006af0:	00050413          	mv	s0,a0
80006af4:	da5ff06f          	j	80006898 <__adddf3+0x544>
80006af8:	00000793          	li	a5,0
80006afc:	00000593          	li	a1,0
80006b00:	00000493          	li	s1,0
80006b04:	f49ff06f          	j	80006a4c <__adddf3+0x6f8>
80006b08:	00000793          	li	a5,0
80006b0c:	ff5ff06f          	j	80006b00 <__adddf3+0x7ac>
80006b10:	00000593          	li	a1,0
80006b14:	00000493          	li	s1,0
80006b18:	004007b7          	lui	a5,0x400
80006b1c:	b35ff06f          	j	80006650 <__adddf3+0x2fc>
80006b20:	00000793          	li	a5,0
80006b24:	00000593          	li	a1,0
80006b28:	f49ff06f          	j	80006a70 <__adddf3+0x71c>

80006b2c <__divdf3>:
__divdf3():
/home/hqfang/workspace/software/riscv-gnu-toolchain/riscv-gcc/libgcc/soft-fp/divdf3.c:36
80006b2c:	fd010113          	addi	sp,sp,-48
80006b30:	03212023          	sw	s2,32(sp)
/home/hqfang/workspace/software/riscv-gnu-toolchain/riscv-gcc/libgcc/soft-fp/divdf3.c:44
80006b34:	0145d913          	srli	s2,a1,0x14
/home/hqfang/workspace/software/riscv-gnu-toolchain/riscv-gcc/libgcc/soft-fp/divdf3.c:36
80006b38:	02912223          	sw	s1,36(sp)
80006b3c:	01312e23          	sw	s3,28(sp)
80006b40:	01412c23          	sw	s4,24(sp)
80006b44:	01612823          	sw	s6,16(sp)
80006b48:	01812423          	sw	s8,8(sp)
/home/hqfang/workspace/software/riscv-gnu-toolchain/riscv-gcc/libgcc/soft-fp/divdf3.c:44
80006b4c:	00c59493          	slli	s1,a1,0xc
/home/hqfang/workspace/software/riscv-gnu-toolchain/riscv-gcc/libgcc/soft-fp/divdf3.c:36
80006b50:	02112623          	sw	ra,44(sp)
80006b54:	02812423          	sw	s0,40(sp)
80006b58:	01512a23          	sw	s5,20(sp)
80006b5c:	01712623          	sw	s7,12(sp)
/home/hqfang/workspace/software/riscv-gnu-toolchain/riscv-gcc/libgcc/soft-fp/divdf3.c:44
80006b60:	7ff97913          	andi	s2,s2,2047
/home/hqfang/workspace/software/riscv-gnu-toolchain/riscv-gcc/libgcc/soft-fp/divdf3.c:36
80006b64:	00050a13          	mv	s4,a0
80006b68:	00060b13          	mv	s6,a2
80006b6c:	00068c13          	mv	s8,a3
/home/hqfang/workspace/software/riscv-gnu-toolchain/riscv-gcc/libgcc/soft-fp/divdf3.c:44
80006b70:	00c4d493          	srli	s1,s1,0xc
80006b74:	01f5d993          	srli	s3,a1,0x1f
80006b78:	0a090263          	beqz	s2,80006c1c <__divdf3+0xf0>
80006b7c:	7ff00793          	li	a5,2047
80006b80:	10f90063          	beq	s2,a5,80006c80 <__divdf3+0x154>
/home/hqfang/workspace/software/riscv-gnu-toolchain/riscv-gcc/libgcc/soft-fp/divdf3.c:44 (discriminator 1)
80006b84:	01d55a93          	srli	s5,a0,0x1d
80006b88:	00349493          	slli	s1,s1,0x3
80006b8c:	009ae4b3          	or	s1,s5,s1
80006b90:	00800ab7          	lui	s5,0x800
80006b94:	0154eab3          	or	s5,s1,s5
80006b98:	00351413          	slli	s0,a0,0x3
80006b9c:	c0190913          	addi	s2,s2,-1023
/home/hqfang/workspace/software/riscv-gnu-toolchain/riscv-gcc/libgcc/soft-fp/divdf3.c:44 (discriminator 41)
80006ba0:	00000b93          	li	s7,0
/home/hqfang/workspace/software/riscv-gnu-toolchain/riscv-gcc/libgcc/soft-fp/divdf3.c:45 (discriminator 8)
80006ba4:	00cc1513          	slli	a0,s8,0xc
80006ba8:	00c55493          	srli	s1,a0,0xc
80006bac:	014c5513          	srli	a0,s8,0x14
80006bb0:	7ff57593          	andi	a1,a0,2047
80006bb4:	01fc5c13          	srli	s8,s8,0x1f
80006bb8:	10058263          	beqz	a1,80006cbc <__divdf3+0x190>
/home/hqfang/workspace/software/riscv-gnu-toolchain/riscv-gcc/libgcc/soft-fp/divdf3.c:45
80006bbc:	7ff00793          	li	a5,2047
80006bc0:	16f58463          	beq	a1,a5,80006d28 <__divdf3+0x1fc>
/home/hqfang/workspace/software/riscv-gnu-toolchain/riscv-gcc/libgcc/soft-fp/divdf3.c:45 (discriminator 1)
80006bc4:	00349513          	slli	a0,s1,0x3
80006bc8:	01db5793          	srli	a5,s6,0x1d
80006bcc:	00a7e533          	or	a0,a5,a0
80006bd0:	008004b7          	lui	s1,0x800
80006bd4:	009564b3          	or	s1,a0,s1
80006bd8:	003b1f93          	slli	t6,s6,0x3
80006bdc:	c0158513          	addi	a0,a1,-1023
/home/hqfang/workspace/software/riscv-gnu-toolchain/riscv-gcc/libgcc/soft-fp/divdf3.c:45 (discriminator 41)
80006be0:	00000793          	li	a5,0
/home/hqfang/workspace/software/riscv-gnu-toolchain/riscv-gcc/libgcc/soft-fp/divdf3.c:46 (discriminator 8)
80006be4:	002b9713          	slli	a4,s7,0x2
80006be8:	00f76733          	or	a4,a4,a5
80006bec:	fff70713          	addi	a4,a4,-1
80006bf0:	00e00613          	li	a2,14
80006bf4:	0189c6b3          	xor	a3,s3,s8
80006bf8:	40a905b3          	sub	a1,s2,a0
80006bfc:	16e66263          	bltu	a2,a4,80006d60 <__divdf3+0x234>
80006c00:	00003617          	auipc	a2,0x3
80006c04:	03460613          	addi	a2,a2,52 # 80009c34 <_ctype_+0x104>
80006c08:	00271713          	slli	a4,a4,0x2
80006c0c:	00c70733          	add	a4,a4,a2
80006c10:	00072703          	lw	a4,0(a4)
80006c14:	00c70733          	add	a4,a4,a2
80006c18:	00070067          	jr	a4
/home/hqfang/workspace/software/riscv-gnu-toolchain/riscv-gcc/libgcc/soft-fp/divdf3.c:44 (discriminator 2)
80006c1c:	00a4eab3          	or	s5,s1,a0
80006c20:	060a8e63          	beqz	s5,80006c9c <__divdf3+0x170>
/home/hqfang/workspace/software/riscv-gnu-toolchain/riscv-gcc/libgcc/soft-fp/divdf3.c:44 (discriminator 13)
80006c24:	04048063          	beqz	s1,80006c64 <__divdf3+0x138>
/home/hqfang/workspace/software/riscv-gnu-toolchain/riscv-gcc/libgcc/soft-fp/divdf3.c:44 (discriminator 17)
80006c28:	00048513          	mv	a0,s1
80006c2c:	345010ef          	jal	ra,80008770 <__clzsi2>
/home/hqfang/workspace/software/riscv-gnu-toolchain/riscv-gcc/libgcc/soft-fp/divdf3.c:44 (discriminator 31)
80006c30:	ff550793          	addi	a5,a0,-11
80006c34:	01c00713          	li	a4,28
80006c38:	02f74c63          	blt	a4,a5,80006c70 <__divdf3+0x144>
/home/hqfang/workspace/software/riscv-gnu-toolchain/riscv-gcc/libgcc/soft-fp/divdf3.c:44 (discriminator 32)
80006c3c:	01d00a93          	li	s5,29
80006c40:	ff850413          	addi	s0,a0,-8
80006c44:	40fa8ab3          	sub	s5,s5,a5
80006c48:	008494b3          	sll	s1,s1,s0
80006c4c:	015a5ab3          	srl	s5,s4,s5
80006c50:	009aeab3          	or	s5,s5,s1
80006c54:	008a1433          	sll	s0,s4,s0
/home/hqfang/workspace/software/riscv-gnu-toolchain/riscv-gcc/libgcc/soft-fp/divdf3.c:44 (discriminator 41)
80006c58:	c0d00593          	li	a1,-1011
80006c5c:	40a58933          	sub	s2,a1,a0
80006c60:	f41ff06f          	j	80006ba0 <__divdf3+0x74>
/home/hqfang/workspace/software/riscv-gnu-toolchain/riscv-gcc/libgcc/soft-fp/divdf3.c:44 (discriminator 24)
80006c64:	30d010ef          	jal	ra,80008770 <__clzsi2>
80006c68:	02050513          	addi	a0,a0,32
80006c6c:	fc5ff06f          	j	80006c30 <__divdf3+0x104>
/home/hqfang/workspace/software/riscv-gnu-toolchain/riscv-gcc/libgcc/soft-fp/divdf3.c:44 (discriminator 33)
80006c70:	fd850493          	addi	s1,a0,-40
80006c74:	009a1ab3          	sll	s5,s4,s1
80006c78:	00000413          	li	s0,0
80006c7c:	fddff06f          	j	80006c58 <__divdf3+0x12c>
/home/hqfang/workspace/software/riscv-gnu-toolchain/riscv-gcc/libgcc/soft-fp/divdf3.c:44 (discriminator 3)
80006c80:	00a4eab3          	or	s5,s1,a0
80006c84:	020a8463          	beqz	s5,80006cac <__divdf3+0x180>
80006c88:	00050413          	mv	s0,a0
/home/hqfang/workspace/software/riscv-gnu-toolchain/riscv-gcc/libgcc/soft-fp/divdf3.c:44
80006c8c:	00048a93          	mv	s5,s1
80006c90:	7ff00913          	li	s2,2047
80006c94:	00300b93          	li	s7,3
80006c98:	f0dff06f          	j	80006ba4 <__divdf3+0x78>
80006c9c:	00000413          	li	s0,0
80006ca0:	00000913          	li	s2,0
80006ca4:	00100b93          	li	s7,1
80006ca8:	efdff06f          	j	80006ba4 <__divdf3+0x78>
80006cac:	00000413          	li	s0,0
80006cb0:	7ff00913          	li	s2,2047
80006cb4:	00200b93          	li	s7,2
80006cb8:	eedff06f          	j	80006ba4 <__divdf3+0x78>
/home/hqfang/workspace/software/riscv-gnu-toolchain/riscv-gcc/libgcc/soft-fp/divdf3.c:45 (discriminator 2)
80006cbc:	0164efb3          	or	t6,s1,s6
80006cc0:	080f8063          	beqz	t6,80006d40 <__divdf3+0x214>
/home/hqfang/workspace/software/riscv-gnu-toolchain/riscv-gcc/libgcc/soft-fp/divdf3.c:45 (discriminator 13)
80006cc4:	04048263          	beqz	s1,80006d08 <__divdf3+0x1dc>
/home/hqfang/workspace/software/riscv-gnu-toolchain/riscv-gcc/libgcc/soft-fp/divdf3.c:45 (discriminator 17)
80006cc8:	00048513          	mv	a0,s1
80006ccc:	2a5010ef          	jal	ra,80008770 <__clzsi2>
80006cd0:	00050593          	mv	a1,a0
/home/hqfang/workspace/software/riscv-gnu-toolchain/riscv-gcc/libgcc/soft-fp/divdf3.c:45 (discriminator 31)
80006cd4:	ff558793          	addi	a5,a1,-11
80006cd8:	01c00713          	li	a4,28
80006cdc:	02f74e63          	blt	a4,a5,80006d18 <__divdf3+0x1ec>
/home/hqfang/workspace/software/riscv-gnu-toolchain/riscv-gcc/libgcc/soft-fp/divdf3.c:45 (discriminator 32)
80006ce0:	01d00693          	li	a3,29
80006ce4:	ff858f93          	addi	t6,a1,-8
80006ce8:	40f686b3          	sub	a3,a3,a5
80006cec:	01f49533          	sll	a0,s1,t6
80006cf0:	00db56b3          	srl	a3,s6,a3
80006cf4:	00a6e4b3          	or	s1,a3,a0
80006cf8:	01fb1fb3          	sll	t6,s6,t6
/home/hqfang/workspace/software/riscv-gnu-toolchain/riscv-gcc/libgcc/soft-fp/divdf3.c:45 (discriminator 41)
80006cfc:	c0d00693          	li	a3,-1011
80006d00:	40b68533          	sub	a0,a3,a1
80006d04:	eddff06f          	j	80006be0 <__divdf3+0xb4>
/home/hqfang/workspace/software/riscv-gnu-toolchain/riscv-gcc/libgcc/soft-fp/divdf3.c:45 (discriminator 24)
80006d08:	000b0513          	mv	a0,s6
80006d0c:	265010ef          	jal	ra,80008770 <__clzsi2>
80006d10:	02050593          	addi	a1,a0,32
80006d14:	fc1ff06f          	j	80006cd4 <__divdf3+0x1a8>
/home/hqfang/workspace/software/riscv-gnu-toolchain/riscv-gcc/libgcc/soft-fp/divdf3.c:45 (discriminator 33)
80006d18:	fd858513          	addi	a0,a1,-40
80006d1c:	00ab14b3          	sll	s1,s6,a0
80006d20:	00000f93          	li	t6,0
80006d24:	fd9ff06f          	j	80006cfc <__divdf3+0x1d0>
/home/hqfang/workspace/software/riscv-gnu-toolchain/riscv-gcc/libgcc/soft-fp/divdf3.c:45 (discriminator 3)
80006d28:	0164efb3          	or	t6,s1,s6
80006d2c:	020f8263          	beqz	t6,80006d50 <__divdf3+0x224>
/home/hqfang/workspace/software/riscv-gnu-toolchain/riscv-gcc/libgcc/soft-fp/divdf3.c:45
80006d30:	000b0f93          	mv	t6,s6
80006d34:	7ff00513          	li	a0,2047
80006d38:	00300793          	li	a5,3
80006d3c:	ea9ff06f          	j	80006be4 <__divdf3+0xb8>
80006d40:	00000493          	li	s1,0
80006d44:	00000513          	li	a0,0
80006d48:	00100793          	li	a5,1
80006d4c:	e99ff06f          	j	80006be4 <__divdf3+0xb8>
80006d50:	00000493          	li	s1,0
80006d54:	7ff00513          	li	a0,2047
80006d58:	00200793          	li	a5,2
80006d5c:	e89ff06f          	j	80006be4 <__divdf3+0xb8>
/home/hqfang/workspace/software/riscv-gnu-toolchain/riscv-gcc/libgcc/soft-fp/divdf3.c:46 (discriminator 2)
80006d60:	0154e663          	bltu	s1,s5,80006d6c <__divdf3+0x240>
/home/hqfang/workspace/software/riscv-gnu-toolchain/riscv-gcc/libgcc/soft-fp/divdf3.c:46 (discriminator 11)
80006d64:	349a9e63          	bne	s5,s1,800070c0 <__divdf3+0x594>
/home/hqfang/workspace/software/riscv-gnu-toolchain/riscv-gcc/libgcc/soft-fp/divdf3.c:46 (discriminator 12)
80006d68:	35f46c63          	bltu	s0,t6,800070c0 <__divdf3+0x594>
/home/hqfang/workspace/software/riscv-gnu-toolchain/riscv-gcc/libgcc/soft-fp/divdf3.c:46 (discriminator 14)
80006d6c:	01fa9613          	slli	a2,s5,0x1f
80006d70:	00145713          	srli	a4,s0,0x1
80006d74:	01f41793          	slli	a5,s0,0x1f
80006d78:	001ada93          	srli	s5,s5,0x1
80006d7c:	00e66433          	or	s0,a2,a4
/home/hqfang/workspace/software/riscv-gnu-toolchain/riscv-gcc/libgcc/soft-fp/divdf3.c:46 (discriminator 19)
80006d80:	00849513          	slli	a0,s1,0x8
80006d84:	018fd893          	srli	a7,t6,0x18
80006d88:	00a8e8b3          	or	a7,a7,a0
80006d8c:	01055513          	srli	a0,a0,0x10
80006d90:	02aade33          	divu	t3,s5,a0
80006d94:	01089e93          	slli	t4,a7,0x10
80006d98:	010ede93          	srli	t4,t4,0x10
80006d9c:	01045713          	srli	a4,s0,0x10
80006da0:	008f9313          	slli	t1,t6,0x8
80006da4:	02aafab3          	remu	s5,s5,a0
80006da8:	000e0613          	mv	a2,t3
80006dac:	03ce8833          	mul	a6,t4,t3
80006db0:	010a9a93          	slli	s5,s5,0x10
80006db4:	01576733          	or	a4,a4,s5
80006db8:	01077e63          	bgeu	a4,a6,80006dd4 <__divdf3+0x2a8>
/home/hqfang/workspace/software/riscv-gnu-toolchain/riscv-gcc/libgcc/soft-fp/divdf3.c:46 (discriminator 22)
80006dbc:	01170733          	add	a4,a4,a7
80006dc0:	fffe0613          	addi	a2,t3,-1
80006dc4:	01176863          	bltu	a4,a7,80006dd4 <__divdf3+0x2a8>
/home/hqfang/workspace/software/riscv-gnu-toolchain/riscv-gcc/libgcc/soft-fp/divdf3.c:46 (discriminator 24)
80006dc8:	01077663          	bgeu	a4,a6,80006dd4 <__divdf3+0x2a8>
/home/hqfang/workspace/software/riscv-gnu-toolchain/riscv-gcc/libgcc/soft-fp/divdf3.c:46 (discriminator 26)
80006dcc:	ffee0613          	addi	a2,t3,-2
80006dd0:	01170733          	add	a4,a4,a7
/home/hqfang/workspace/software/riscv-gnu-toolchain/riscv-gcc/libgcc/soft-fp/divdf3.c:46 (discriminator 28)
80006dd4:	41070733          	sub	a4,a4,a6
80006dd8:	02a75e33          	divu	t3,a4,a0
80006ddc:	01041413          	slli	s0,s0,0x10
80006de0:	01045413          	srli	s0,s0,0x10
80006de4:	02a77733          	remu	a4,a4,a0
80006de8:	000e0293          	mv	t0,t3
80006dec:	03ce8833          	mul	a6,t4,t3
80006df0:	01071713          	slli	a4,a4,0x10
80006df4:	00e46733          	or	a4,s0,a4
80006df8:	01077e63          	bgeu	a4,a6,80006e14 <__divdf3+0x2e8>
/home/hqfang/workspace/software/riscv-gnu-toolchain/riscv-gcc/libgcc/soft-fp/divdf3.c:46 (discriminator 29)
80006dfc:	01170733          	add	a4,a4,a7
80006e00:	fffe0293          	addi	t0,t3,-1
80006e04:	01176863          	bltu	a4,a7,80006e14 <__divdf3+0x2e8>
/home/hqfang/workspace/software/riscv-gnu-toolchain/riscv-gcc/libgcc/soft-fp/divdf3.c:46 (discriminator 31)
80006e08:	01077663          	bgeu	a4,a6,80006e14 <__divdf3+0x2e8>
/home/hqfang/workspace/software/riscv-gnu-toolchain/riscv-gcc/libgcc/soft-fp/divdf3.c:46 (discriminator 33)
80006e0c:	ffee0293          	addi	t0,t3,-2
80006e10:	01170733          	add	a4,a4,a7
/home/hqfang/workspace/software/riscv-gnu-toolchain/riscv-gcc/libgcc/soft-fp/divdf3.c:46 (discriminator 35)
80006e14:	41070433          	sub	s0,a4,a6
80006e18:	01061613          	slli	a2,a2,0x10
80006e1c:	00010837          	lui	a6,0x10
80006e20:	005662b3          	or	t0,a2,t0
80006e24:	fff80e13          	addi	t3,a6,-1 # ffff <dhry_stubs.c.aa5f359a+0xc424>
80006e28:	0102d613          	srli	a2,t0,0x10
80006e2c:	01c2f733          	and	a4,t0,t3
80006e30:	01035f13          	srli	t5,t1,0x10
80006e34:	01c37e33          	and	t3,t1,t3
80006e38:	02ee03b3          	mul	t2,t3,a4
80006e3c:	03c604b3          	mul	s1,a2,t3
80006e40:	02ef0733          	mul	a4,t5,a4
80006e44:	03e60fb3          	mul	t6,a2,t5
80006e48:	00970633          	add	a2,a4,s1
80006e4c:	0103d713          	srli	a4,t2,0x10
80006e50:	00c70733          	add	a4,a4,a2
80006e54:	00977463          	bgeu	a4,s1,80006e5c <__divdf3+0x330>
/home/hqfang/workspace/software/riscv-gnu-toolchain/riscv-gcc/libgcc/soft-fp/divdf3.c:46 (discriminator 36)
80006e58:	010f8fb3          	add	t6,t6,a6
/home/hqfang/workspace/software/riscv-gnu-toolchain/riscv-gcc/libgcc/soft-fp/divdf3.c:46 (discriminator 38)
80006e5c:	01075613          	srli	a2,a4,0x10
80006e60:	01f60633          	add	a2,a2,t6
80006e64:	00010fb7          	lui	t6,0x10
80006e68:	ffff8f93          	addi	t6,t6,-1 # ffff <dhry_stubs.c.aa5f359a+0xc424>
80006e6c:	01f77833          	and	a6,a4,t6
80006e70:	01081813          	slli	a6,a6,0x10
80006e74:	01f3f3b3          	and	t2,t2,t6
80006e78:	00780833          	add	a6,a6,t2
80006e7c:	00c46863          	bltu	s0,a2,80006e8c <__divdf3+0x360>
/home/hqfang/workspace/software/riscv-gnu-toolchain/riscv-gcc/libgcc/soft-fp/divdf3.c:46 (discriminator 40)
80006e80:	00028493          	mv	s1,t0
80006e84:	04c41463          	bne	s0,a2,80006ecc <__divdf3+0x3a0>
/home/hqfang/workspace/software/riscv-gnu-toolchain/riscv-gcc/libgcc/soft-fp/divdf3.c:46 (discriminator 41)
80006e88:	0507f263          	bgeu	a5,a6,80006ecc <__divdf3+0x3a0>
/home/hqfang/workspace/software/riscv-gnu-toolchain/riscv-gcc/libgcc/soft-fp/divdf3.c:46 (discriminator 43)
80006e8c:	006787b3          	add	a5,a5,t1
80006e90:	0067b733          	sltu	a4,a5,t1
80006e94:	01170733          	add	a4,a4,a7
80006e98:	00e40433          	add	s0,s0,a4
80006e9c:	fff28493          	addi	s1,t0,-1
80006ea0:	0088e663          	bltu	a7,s0,80006eac <__divdf3+0x380>
/home/hqfang/workspace/software/riscv-gnu-toolchain/riscv-gcc/libgcc/soft-fp/divdf3.c:46 (discriminator 46)
80006ea4:	02889463          	bne	a7,s0,80006ecc <__divdf3+0x3a0>
/home/hqfang/workspace/software/riscv-gnu-toolchain/riscv-gcc/libgcc/soft-fp/divdf3.c:46 (discriminator 47)
80006ea8:	0267e263          	bltu	a5,t1,80006ecc <__divdf3+0x3a0>
/home/hqfang/workspace/software/riscv-gnu-toolchain/riscv-gcc/libgcc/soft-fp/divdf3.c:46 (discriminator 49)
80006eac:	00c46663          	bltu	s0,a2,80006eb8 <__divdf3+0x38c>
/home/hqfang/workspace/software/riscv-gnu-toolchain/riscv-gcc/libgcc/soft-fp/divdf3.c:46 (discriminator 52)
80006eb0:	00861e63          	bne	a2,s0,80006ecc <__divdf3+0x3a0>
/home/hqfang/workspace/software/riscv-gnu-toolchain/riscv-gcc/libgcc/soft-fp/divdf3.c:46 (discriminator 53)
80006eb4:	0107fc63          	bgeu	a5,a6,80006ecc <__divdf3+0x3a0>
/home/hqfang/workspace/software/riscv-gnu-toolchain/riscv-gcc/libgcc/soft-fp/divdf3.c:46 (discriminator 55)
80006eb8:	006787b3          	add	a5,a5,t1
80006ebc:	0067b733          	sltu	a4,a5,t1
80006ec0:	01170733          	add	a4,a4,a7
80006ec4:	ffe28493          	addi	s1,t0,-2
80006ec8:	00e40433          	add	s0,s0,a4
/home/hqfang/workspace/software/riscv-gnu-toolchain/riscv-gcc/libgcc/soft-fp/divdf3.c:46 (discriminator 57)
80006ecc:	41078833          	sub	a6,a5,a6
80006ed0:	40c40433          	sub	s0,s0,a2
80006ed4:	0107b7b3          	sltu	a5,a5,a6
80006ed8:	40f40433          	sub	s0,s0,a5
80006edc:	fff00f93          	li	t6,-1
80006ee0:	12888463          	beq	a7,s0,80007008 <__divdf3+0x4dc>
/home/hqfang/workspace/software/riscv-gnu-toolchain/riscv-gcc/libgcc/soft-fp/divdf3.c:46 (discriminator 59)
80006ee4:	02a45fb3          	divu	t6,s0,a0
80006ee8:	01085713          	srli	a4,a6,0x10
80006eec:	02a47433          	remu	s0,s0,a0
80006ef0:	000f8613          	mv	a2,t6
80006ef4:	03fe87b3          	mul	a5,t4,t6
80006ef8:	01041413          	slli	s0,s0,0x10
80006efc:	00876433          	or	s0,a4,s0
80006f00:	00f47e63          	bgeu	s0,a5,80006f1c <__divdf3+0x3f0>
/home/hqfang/workspace/software/riscv-gnu-toolchain/riscv-gcc/libgcc/soft-fp/divdf3.c:46 (discriminator 61)
80006f04:	01140433          	add	s0,s0,a7
80006f08:	ffff8613          	addi	a2,t6,-1
80006f0c:	01146863          	bltu	s0,a7,80006f1c <__divdf3+0x3f0>
/home/hqfang/workspace/software/riscv-gnu-toolchain/riscv-gcc/libgcc/soft-fp/divdf3.c:46 (discriminator 63)
80006f10:	00f47663          	bgeu	s0,a5,80006f1c <__divdf3+0x3f0>
/home/hqfang/workspace/software/riscv-gnu-toolchain/riscv-gcc/libgcc/soft-fp/divdf3.c:46 (discriminator 65)
80006f14:	ffef8613          	addi	a2,t6,-2
80006f18:	01140433          	add	s0,s0,a7
/home/hqfang/workspace/software/riscv-gnu-toolchain/riscv-gcc/libgcc/soft-fp/divdf3.c:46 (discriminator 67)
80006f1c:	40f40433          	sub	s0,s0,a5
80006f20:	02a45733          	divu	a4,s0,a0
80006f24:	01081813          	slli	a6,a6,0x10
80006f28:	01085813          	srli	a6,a6,0x10
80006f2c:	02a47433          	remu	s0,s0,a0
80006f30:	00070793          	mv	a5,a4
80006f34:	02ee8eb3          	mul	t4,t4,a4
80006f38:	01041413          	slli	s0,s0,0x10
80006f3c:	00886433          	or	s0,a6,s0
80006f40:	01d47e63          	bgeu	s0,t4,80006f5c <__divdf3+0x430>
/home/hqfang/workspace/software/riscv-gnu-toolchain/riscv-gcc/libgcc/soft-fp/divdf3.c:46 (discriminator 68)
80006f44:	01140433          	add	s0,s0,a7
80006f48:	fff70793          	addi	a5,a4,-1
80006f4c:	01146863          	bltu	s0,a7,80006f5c <__divdf3+0x430>
/home/hqfang/workspace/software/riscv-gnu-toolchain/riscv-gcc/libgcc/soft-fp/divdf3.c:46 (discriminator 70)
80006f50:	01d47663          	bgeu	s0,t4,80006f5c <__divdf3+0x430>
/home/hqfang/workspace/software/riscv-gnu-toolchain/riscv-gcc/libgcc/soft-fp/divdf3.c:46 (discriminator 72)
80006f54:	ffe70793          	addi	a5,a4,-2
80006f58:	01140433          	add	s0,s0,a7
/home/hqfang/workspace/software/riscv-gnu-toolchain/riscv-gcc/libgcc/soft-fp/divdf3.c:46 (discriminator 74)
80006f5c:	01061613          	slli	a2,a2,0x10
80006f60:	00f66633          	or	a2,a2,a5
80006f64:	01061793          	slli	a5,a2,0x10
80006f68:	0107d793          	srli	a5,a5,0x10
80006f6c:	01065713          	srli	a4,a2,0x10
80006f70:	02ef0833          	mul	a6,t5,a4
80006f74:	41d40433          	sub	s0,s0,t4
80006f78:	02ff0f33          	mul	t5,t5,a5
80006f7c:	03c78eb3          	mul	t4,a5,t3
80006f80:	03c70e33          	mul	t3,a4,t3
80006f84:	010ed793          	srli	a5,t4,0x10
80006f88:	01cf0f33          	add	t5,t5,t3
80006f8c:	01e787b3          	add	a5,a5,t5
80006f90:	01c7f663          	bgeu	a5,t3,80006f9c <__divdf3+0x470>
/home/hqfang/workspace/software/riscv-gnu-toolchain/riscv-gcc/libgcc/soft-fp/divdf3.c:46 (discriminator 75)
80006f94:	00010737          	lui	a4,0x10
80006f98:	00e80833          	add	a6,a6,a4
/home/hqfang/workspace/software/riscv-gnu-toolchain/riscv-gcc/libgcc/soft-fp/divdf3.c:46 (discriminator 77)
80006f9c:	0107d713          	srli	a4,a5,0x10
80006fa0:	01070733          	add	a4,a4,a6
80006fa4:	00010837          	lui	a6,0x10
80006fa8:	fff80813          	addi	a6,a6,-1 # ffff <dhry_stubs.c.aa5f359a+0xc424>
80006fac:	0107f533          	and	a0,a5,a6
80006fb0:	01051513          	slli	a0,a0,0x10
80006fb4:	010efeb3          	and	t4,t4,a6
80006fb8:	01d50533          	add	a0,a0,t4
80006fbc:	00e46863          	bltu	s0,a4,80006fcc <__divdf3+0x4a0>
/home/hqfang/workspace/software/riscv-gnu-toolchain/riscv-gcc/libgcc/soft-fp/divdf3.c:46 (discriminator 79)
80006fc0:	24e41463          	bne	s0,a4,80007208 <__divdf3+0x6dc>
/home/hqfang/workspace/software/riscv-gnu-toolchain/riscv-gcc/libgcc/soft-fp/divdf3.c:46 (discriminator 80)
80006fc4:	00060f93          	mv	t6,a2
80006fc8:	04050063          	beqz	a0,80007008 <__divdf3+0x4dc>
/home/hqfang/workspace/software/riscv-gnu-toolchain/riscv-gcc/libgcc/soft-fp/divdf3.c:46 (discriminator 82)
80006fcc:	00888433          	add	s0,a7,s0
80006fd0:	fff60f93          	addi	t6,a2,-1
80006fd4:	03146463          	bltu	s0,a7,80006ffc <__divdf3+0x4d0>
/home/hqfang/workspace/software/riscv-gnu-toolchain/riscv-gcc/libgcc/soft-fp/divdf3.c:46 (discriminator 88)
80006fd8:	00e46663          	bltu	s0,a4,80006fe4 <__divdf3+0x4b8>
/home/hqfang/workspace/software/riscv-gnu-toolchain/riscv-gcc/libgcc/soft-fp/divdf3.c:46 (discriminator 91)
80006fdc:	22e41463          	bne	s0,a4,80007204 <__divdf3+0x6d8>
/home/hqfang/workspace/software/riscv-gnu-toolchain/riscv-gcc/libgcc/soft-fp/divdf3.c:46 (discriminator 92)
80006fe0:	02a37063          	bgeu	t1,a0,80007000 <__divdf3+0x4d4>
/home/hqfang/workspace/software/riscv-gnu-toolchain/riscv-gcc/libgcc/soft-fp/divdf3.c:46 (discriminator 94)
80006fe4:	00131793          	slli	a5,t1,0x1
80006fe8:	0067b333          	sltu	t1,a5,t1
80006fec:	011308b3          	add	a7,t1,a7
80006ff0:	ffe60f93          	addi	t6,a2,-2
80006ff4:	01140433          	add	s0,s0,a7
80006ff8:	00078313          	mv	t1,a5
/home/hqfang/workspace/software/riscv-gnu-toolchain/riscv-gcc/libgcc/soft-fp/divdf3.c:46 (discriminator 96)
80006ffc:	00e41463          	bne	s0,a4,80007004 <__divdf3+0x4d8>
/home/hqfang/workspace/software/riscv-gnu-toolchain/riscv-gcc/libgcc/soft-fp/divdf3.c:46 (discriminator 98)
80007000:	00650463          	beq	a0,t1,80007008 <__divdf3+0x4dc>
/home/hqfang/workspace/software/riscv-gnu-toolchain/riscv-gcc/libgcc/soft-fp/divdf3.c:46 (discriminator 99)
80007004:	001fef93          	ori	t6,t6,1
/home/hqfang/workspace/software/riscv-gnu-toolchain/riscv-gcc/libgcc/soft-fp/divdf3.c:47 (discriminator 2)
80007008:	3ff58793          	addi	a5,a1,1023
8000700c:	10f05a63          	blez	a5,80007120 <__divdf3+0x5f4>
/home/hqfang/workspace/software/riscv-gnu-toolchain/riscv-gcc/libgcc/soft-fp/divdf3.c:47 (discriminator 6)
80007010:	007ff713          	andi	a4,t6,7
80007014:	02070063          	beqz	a4,80007034 <__divdf3+0x508>
/home/hqfang/workspace/software/riscv-gnu-toolchain/riscv-gcc/libgcc/soft-fp/divdf3.c:47 (discriminator 8)
80007018:	00fff713          	andi	a4,t6,15
8000701c:	00400613          	li	a2,4
80007020:	00c70a63          	beq	a4,a2,80007034 <__divdf3+0x508>
/home/hqfang/workspace/software/riscv-gnu-toolchain/riscv-gcc/libgcc/soft-fp/divdf3.c:47 (discriminator 10)
80007024:	004f8613          	addi	a2,t6,4
80007028:	01f63fb3          	sltu	t6,a2,t6
8000702c:	01f484b3          	add	s1,s1,t6
80007030:	00060f93          	mv	t6,a2
/home/hqfang/workspace/software/riscv-gnu-toolchain/riscv-gcc/libgcc/soft-fp/divdf3.c:47 (discriminator 9)
80007034:	01000737          	lui	a4,0x1000
80007038:	00e4f733          	and	a4,s1,a4
8000703c:	00070a63          	beqz	a4,80007050 <__divdf3+0x524>
/home/hqfang/workspace/software/riscv-gnu-toolchain/riscv-gcc/libgcc/soft-fp/divdf3.c:47 (discriminator 24)
80007040:	ff0007b7          	lui	a5,0xff000
80007044:	fff78793          	addi	a5,a5,-1 # feffffff <_sp+0x6efeffff>
80007048:	00f4f4b3          	and	s1,s1,a5
8000704c:	40058793          	addi	a5,a1,1024
/home/hqfang/workspace/software/riscv-gnu-toolchain/riscv-gcc/libgcc/soft-fp/divdf3.c:47 (discriminator 26)
80007050:	7fe00713          	li	a4,2046
80007054:	0af74063          	blt	a4,a5,800070f4 <__divdf3+0x5c8>
/home/hqfang/workspace/software/riscv-gnu-toolchain/riscv-gcc/libgcc/soft-fp/divdf3.c:47
80007058:	003fdf93          	srli	t6,t6,0x3
8000705c:	01d49713          	slli	a4,s1,0x1d
80007060:	01f76733          	or	a4,a4,t6
80007064:	0034d513          	srli	a0,s1,0x3
/home/hqfang/workspace/software/riscv-gnu-toolchain/riscv-gcc/libgcc/soft-fp/divdf3.c:47 (discriminator 119)
80007068:	01479793          	slli	a5,a5,0x14
8000706c:	7ff00637          	lui	a2,0x7ff00
80007070:	00c51513          	slli	a0,a0,0xc
/home/hqfang/workspace/software/riscv-gnu-toolchain/riscv-gcc/libgcc/soft-fp/divdf3.c:51 (discriminator 119)
80007074:	02c12083          	lw	ra,44(sp)
80007078:	02812403          	lw	s0,40(sp)
/home/hqfang/workspace/software/riscv-gnu-toolchain/riscv-gcc/libgcc/soft-fp/divdf3.c:47 (discriminator 119)
8000707c:	00c7f7b3          	and	a5,a5,a2
80007080:	00c55513          	srli	a0,a0,0xc
80007084:	00a7e533          	or	a0,a5,a0
80007088:	01f69693          	slli	a3,a3,0x1f
8000708c:	00d567b3          	or	a5,a0,a3
/home/hqfang/workspace/software/riscv-gnu-toolchain/riscv-gcc/libgcc/soft-fp/divdf3.c:51 (discriminator 119)
80007090:	02412483          	lw	s1,36(sp)
80007094:	02012903          	lw	s2,32(sp)
80007098:	01c12983          	lw	s3,28(sp)
8000709c:	01812a03          	lw	s4,24(sp)
800070a0:	01412a83          	lw	s5,20(sp)
800070a4:	01012b03          	lw	s6,16(sp)
800070a8:	00c12b83          	lw	s7,12(sp)
800070ac:	00812c03          	lw	s8,8(sp)
800070b0:	00070513          	mv	a0,a4
800070b4:	00078593          	mv	a1,a5
800070b8:	03010113          	addi	sp,sp,48
800070bc:	00008067          	ret
/home/hqfang/workspace/software/riscv-gnu-toolchain/riscv-gcc/libgcc/soft-fp/divdf3.c:46 (discriminator 15)
800070c0:	fff58593          	addi	a1,a1,-1
800070c4:	00000793          	li	a5,0
800070c8:	cb9ff06f          	j	80006d80 <__divdf3+0x254>
/home/hqfang/workspace/software/riscv-gnu-toolchain/riscv-gcc/libgcc/soft-fp/divdf3.c:44 (discriminator 8)
800070cc:	00098693          	mv	a3,s3
/home/hqfang/workspace/software/riscv-gnu-toolchain/riscv-gcc/libgcc/soft-fp/divdf3.c:46 (discriminator 8)
800070d0:	000a8493          	mv	s1,s5
800070d4:	00040f93          	mv	t6,s0
800070d8:	000b8793          	mv	a5,s7
/home/hqfang/workspace/software/riscv-gnu-toolchain/riscv-gcc/libgcc/soft-fp/divdf3.c:47 (discriminator 108)
800070dc:	00300713          	li	a4,3
800070e0:	0ee78a63          	beq	a5,a4,800071d4 <__divdf3+0x6a8>
/home/hqfang/workspace/software/riscv-gnu-toolchain/riscv-gcc/libgcc/soft-fp/divdf3.c:47
800070e4:	00100713          	li	a4,1
800070e8:	10e78063          	beq	a5,a4,800071e8 <__divdf3+0x6bc>
800070ec:	00200713          	li	a4,2
800070f0:	f0e79ce3          	bne	a5,a4,80007008 <__divdf3+0x4dc>
800070f4:	00000513          	li	a0,0
800070f8:	00000713          	li	a4,0
800070fc:	7ff00793          	li	a5,2047
80007100:	f69ff06f          	j	80007068 <__divdf3+0x53c>
/home/hqfang/workspace/software/riscv-gnu-toolchain/riscv-gcc/libgcc/soft-fp/divdf3.c:45 (discriminator 5)
80007104:	000c0693          	mv	a3,s8
/home/hqfang/workspace/software/riscv-gnu-toolchain/riscv-gcc/libgcc/soft-fp/divdf3.c:46 (discriminator 5)
80007108:	fd5ff06f          	j	800070dc <__divdf3+0x5b0>
/home/hqfang/workspace/software/riscv-gnu-toolchain/riscv-gcc/libgcc/soft-fp/divdf3.c:46
8000710c:	000804b7          	lui	s1,0x80
80007110:	00000f93          	li	t6,0
80007114:	00000693          	li	a3,0
80007118:	00300793          	li	a5,3
8000711c:	fc1ff06f          	j	800070dc <__divdf3+0x5b0>
/home/hqfang/workspace/software/riscv-gnu-toolchain/riscv-gcc/libgcc/soft-fp/divdf3.c:47 (discriminator 59)
80007120:	00100513          	li	a0,1
80007124:	40f50533          	sub	a0,a0,a5
80007128:	03800713          	li	a4,56
8000712c:	0aa74e63          	blt	a4,a0,800071e8 <__divdf3+0x6bc>
/home/hqfang/workspace/software/riscv-gnu-toolchain/riscv-gcc/libgcc/soft-fp/divdf3.c:47 (discriminator 60)
80007130:	01f00713          	li	a4,31
80007134:	06a74663          	blt	a4,a0,800071a0 <__divdf3+0x674>
/home/hqfang/workspace/software/riscv-gnu-toolchain/riscv-gcc/libgcc/soft-fp/divdf3.c:47 (discriminator 62)
80007138:	41e58593          	addi	a1,a1,1054
8000713c:	00b497b3          	sll	a5,s1,a1
80007140:	00afd733          	srl	a4,t6,a0
80007144:	00bf95b3          	sll	a1,t6,a1
80007148:	00e7e7b3          	or	a5,a5,a4
8000714c:	00b035b3          	snez	a1,a1
80007150:	00b7e7b3          	or	a5,a5,a1
80007154:	00a4d533          	srl	a0,s1,a0
/home/hqfang/workspace/software/riscv-gnu-toolchain/riscv-gcc/libgcc/soft-fp/divdf3.c:47 (discriminator 75)
80007158:	0077f713          	andi	a4,a5,7
8000715c:	02070063          	beqz	a4,8000717c <__divdf3+0x650>
/home/hqfang/workspace/software/riscv-gnu-toolchain/riscv-gcc/libgcc/soft-fp/divdf3.c:47 (discriminator 76)
80007160:	00f7f713          	andi	a4,a5,15
80007164:	00400613          	li	a2,4
80007168:	00c70a63          	beq	a4,a2,8000717c <__divdf3+0x650>
/home/hqfang/workspace/software/riscv-gnu-toolchain/riscv-gcc/libgcc/soft-fp/divdf3.c:47 (discriminator 78)
8000716c:	00478713          	addi	a4,a5,4
80007170:	00f737b3          	sltu	a5,a4,a5
80007174:	00f50533          	add	a0,a0,a5
80007178:	00070793          	mv	a5,a4
/home/hqfang/workspace/software/riscv-gnu-toolchain/riscv-gcc/libgcc/soft-fp/divdf3.c:47 (discriminator 77)
8000717c:	00800737          	lui	a4,0x800
80007180:	00e57733          	and	a4,a0,a4
80007184:	06071863          	bnez	a4,800071f4 <__divdf3+0x6c8>
/home/hqfang/workspace/software/riscv-gnu-toolchain/riscv-gcc/libgcc/soft-fp/divdf3.c:47 (discriminator 93)
80007188:	01d51713          	slli	a4,a0,0x1d
8000718c:	0037d793          	srli	a5,a5,0x3
80007190:	00f76733          	or	a4,a4,a5
80007194:	00355513          	srli	a0,a0,0x3
/home/hqfang/workspace/software/riscv-gnu-toolchain/riscv-gcc/libgcc/soft-fp/divdf3.c:47
80007198:	00000793          	li	a5,0
8000719c:	ecdff06f          	j	80007068 <__divdf3+0x53c>
/home/hqfang/workspace/software/riscv-gnu-toolchain/riscv-gcc/libgcc/soft-fp/divdf3.c:47 (discriminator 63)
800071a0:	fe100713          	li	a4,-31
800071a4:	40f707b3          	sub	a5,a4,a5
800071a8:	02000613          	li	a2,32
800071ac:	00f4d7b3          	srl	a5,s1,a5
800071b0:	00000713          	li	a4,0
800071b4:	00c50663          	beq	a0,a2,800071c0 <__divdf3+0x694>
/home/hqfang/workspace/software/riscv-gnu-toolchain/riscv-gcc/libgcc/soft-fp/divdf3.c:47 (discriminator 71)
800071b8:	43e58713          	addi	a4,a1,1086
800071bc:	00e49733          	sll	a4,s1,a4
/home/hqfang/workspace/software/riscv-gnu-toolchain/riscv-gcc/libgcc/soft-fp/divdf3.c:47 (discriminator 74)
800071c0:	01f76733          	or	a4,a4,t6
800071c4:	00e03733          	snez	a4,a4
800071c8:	00e7e7b3          	or	a5,a5,a4
800071cc:	00000513          	li	a0,0
800071d0:	f89ff06f          	j	80007158 <__divdf3+0x62c>
/home/hqfang/workspace/software/riscv-gnu-toolchain/riscv-gcc/libgcc/soft-fp/divdf3.c:47
800071d4:	00080537          	lui	a0,0x80
800071d8:	00000713          	li	a4,0
800071dc:	7ff00793          	li	a5,2047
800071e0:	00000693          	li	a3,0
800071e4:	e85ff06f          	j	80007068 <__divdf3+0x53c>
800071e8:	00000513          	li	a0,0
800071ec:	00000713          	li	a4,0
800071f0:	fa9ff06f          	j	80007198 <__divdf3+0x66c>
800071f4:	00000513          	li	a0,0
800071f8:	00000713          	li	a4,0
800071fc:	00100793          	li	a5,1
80007200:	e69ff06f          	j	80007068 <__divdf3+0x53c>
/home/hqfang/workspace/software/riscv-gnu-toolchain/riscv-gcc/libgcc/soft-fp/divdf3.c:46
80007204:	000f8613          	mv	a2,t6
80007208:	00060f93          	mv	t6,a2
8000720c:	df9ff06f          	j	80007004 <__divdf3+0x4d8>

80007210 <__eqdf2>:
__eqdf2():
/home/hqfang/workspace/software/riscv-gnu-toolchain/riscv-gcc/libgcc/soft-fp/eqdf2.c:43
80007210:	0145d713          	srli	a4,a1,0x14
80007214:	001007b7          	lui	a5,0x100
80007218:	fff78793          	addi	a5,a5,-1 # fffff <dhry_stubs.c.aa5f359a+0xfc424>
/home/hqfang/workspace/software/riscv-gnu-toolchain/riscv-gcc/libgcc/soft-fp/eqdf2.c:44
8000721c:	0146d813          	srli	a6,a3,0x14
/home/hqfang/workspace/software/riscv-gnu-toolchain/riscv-gcc/libgcc/soft-fp/eqdf2.c:36
80007220:	00050313          	mv	t1,a0
80007224:	00050e93          	mv	t4,a0
/home/hqfang/workspace/software/riscv-gnu-toolchain/riscv-gcc/libgcc/soft-fp/eqdf2.c:43
80007228:	7ff77713          	andi	a4,a4,2047
/home/hqfang/workspace/software/riscv-gnu-toolchain/riscv-gcc/libgcc/soft-fp/eqdf2.c:45
8000722c:	7ff00513          	li	a0,2047
/home/hqfang/workspace/software/riscv-gnu-toolchain/riscv-gcc/libgcc/soft-fp/eqdf2.c:43
80007230:	00b7f8b3          	and	a7,a5,a1
80007234:	00060f13          	mv	t5,a2
/home/hqfang/workspace/software/riscv-gnu-toolchain/riscv-gcc/libgcc/soft-fp/eqdf2.c:44
80007238:	00d7f7b3          	and	a5,a5,a3
/home/hqfang/workspace/software/riscv-gnu-toolchain/riscv-gcc/libgcc/soft-fp/eqdf2.c:43
8000723c:	01f5d593          	srli	a1,a1,0x1f
/home/hqfang/workspace/software/riscv-gnu-toolchain/riscv-gcc/libgcc/soft-fp/eqdf2.c:44
80007240:	7ff87813          	andi	a6,a6,2047
80007244:	01f6d693          	srli	a3,a3,0x1f
/home/hqfang/workspace/software/riscv-gnu-toolchain/riscv-gcc/libgcc/soft-fp/eqdf2.c:45
80007248:	00a71c63          	bne	a4,a0,80007260 <__eqdf2+0x50>
/home/hqfang/workspace/software/riscv-gnu-toolchain/riscv-gcc/libgcc/soft-fp/eqdf2.c:45 (discriminator 20)
8000724c:	0068ee33          	or	t3,a7,t1
80007250:	00100513          	li	a0,1
80007254:	000e1463          	bnez	t3,8000725c <__eqdf2+0x4c>
/home/hqfang/workspace/software/riscv-gnu-toolchain/riscv-gcc/libgcc/soft-fp/eqdf2.c:45
80007258:	00e80663          	beq	a6,a4,80007264 <__eqdf2+0x54>
/home/hqfang/workspace/software/riscv-gnu-toolchain/riscv-gcc/libgcc/soft-fp/eqdf2.c:49
8000725c:	00008067          	ret
/home/hqfang/workspace/software/riscv-gnu-toolchain/riscv-gcc/libgcc/soft-fp/eqdf2.c:45 (discriminator 23)
80007260:	00a81863          	bne	a6,a0,80007270 <__eqdf2+0x60>
/home/hqfang/workspace/software/riscv-gnu-toolchain/riscv-gcc/libgcc/soft-fp/eqdf2.c:45 (discriminator 24)
80007264:	00c7e633          	or	a2,a5,a2
80007268:	00100513          	li	a0,1
8000726c:	fe0618e3          	bnez	a2,8000725c <__eqdf2+0x4c>
/home/hqfang/workspace/software/riscv-gnu-toolchain/riscv-gcc/libgcc/soft-fp/eqdf2.c:45 (discriminator 78)
80007270:	00100513          	li	a0,1
80007274:	ff0714e3          	bne	a4,a6,8000725c <__eqdf2+0x4c>
/home/hqfang/workspace/software/riscv-gnu-toolchain/riscv-gcc/libgcc/soft-fp/eqdf2.c:45 (discriminator 80)
80007278:	fef892e3          	bne	a7,a5,8000725c <__eqdf2+0x4c>
/home/hqfang/workspace/software/riscv-gnu-toolchain/riscv-gcc/libgcc/soft-fp/eqdf2.c:45 (discriminator 82)
8000727c:	ffee90e3          	bne	t4,t5,8000725c <__eqdf2+0x4c>
/home/hqfang/workspace/software/riscv-gnu-toolchain/riscv-gcc/libgcc/soft-fp/eqdf2.c:45 (discriminator 84)
80007280:	00d58a63          	beq	a1,a3,80007294 <__eqdf2+0x84>
/home/hqfang/workspace/software/riscv-gnu-toolchain/riscv-gcc/libgcc/soft-fp/eqdf2.c:45 (discriminator 85)
80007284:	fc071ce3          	bnez	a4,8000725c <__eqdf2+0x4c>
/home/hqfang/workspace/software/riscv-gnu-toolchain/riscv-gcc/libgcc/soft-fp/eqdf2.c:45 (discriminator 88)
80007288:	0068e533          	or	a0,a7,t1
8000728c:	00a03533          	snez	a0,a0
80007290:	00008067          	ret
/home/hqfang/workspace/software/riscv-gnu-toolchain/riscv-gcc/libgcc/soft-fp/eqdf2.c:45
80007294:	00000513          	li	a0,0
80007298:	00008067          	ret

8000729c <__gedf2>:
__gedf2():
/home/hqfang/workspace/software/riscv-gnu-toolchain/riscv-gcc/libgcc/soft-fp/gedf2.c:43
8000729c:	00100737          	lui	a4,0x100
800072a0:	fff70713          	addi	a4,a4,-1 # fffff <dhry_stubs.c.aa5f359a+0xfc424>
800072a4:	0145d813          	srli	a6,a1,0x14
800072a8:	00b778b3          	and	a7,a4,a1
/home/hqfang/workspace/software/riscv-gnu-toolchain/riscv-gcc/libgcc/soft-fp/gedf2.c:36
800072ac:	00050793          	mv	a5,a0
800072b0:	00050313          	mv	t1,a0
/home/hqfang/workspace/software/riscv-gnu-toolchain/riscv-gcc/libgcc/soft-fp/gedf2.c:43
800072b4:	7ff87813          	andi	a6,a6,2047
800072b8:	01f5d513          	srli	a0,a1,0x1f
/home/hqfang/workspace/software/riscv-gnu-toolchain/riscv-gcc/libgcc/soft-fp/gedf2.c:45
800072bc:	7ff00e93          	li	t4,2047
/home/hqfang/workspace/software/riscv-gnu-toolchain/riscv-gcc/libgcc/soft-fp/gedf2.c:44
800072c0:	0146d593          	srli	a1,a3,0x14
800072c4:	00d77733          	and	a4,a4,a3
800072c8:	00060e13          	mv	t3,a2
800072cc:	7ff5f593          	andi	a1,a1,2047
800072d0:	01f6d693          	srli	a3,a3,0x1f
/home/hqfang/workspace/software/riscv-gnu-toolchain/riscv-gcc/libgcc/soft-fp/gedf2.c:45
800072d4:	01d81a63          	bne	a6,t4,800072e8 <__gedf2+0x4c>
/home/hqfang/workspace/software/riscv-gnu-toolchain/riscv-gcc/libgcc/soft-fp/gedf2.c:45 (discriminator 20)
800072d8:	00f8eeb3          	or	t4,a7,a5
800072dc:	080e8a63          	beqz	t4,80007370 <__gedf2+0xd4>
/home/hqfang/workspace/software/riscv-gnu-toolchain/riscv-gcc/libgcc/soft-fp/gedf2.c:45
800072e0:	ffe00513          	li	a0,-2
800072e4:	00008067          	ret
/home/hqfang/workspace/software/riscv-gnu-toolchain/riscv-gcc/libgcc/soft-fp/gedf2.c:45 (discriminator 23)
800072e8:	01d59663          	bne	a1,t4,800072f4 <__gedf2+0x58>
/home/hqfang/workspace/software/riscv-gnu-toolchain/riscv-gcc/libgcc/soft-fp/gedf2.c:45 (discriminator 24)
800072ec:	00c76eb3          	or	t4,a4,a2
800072f0:	fe0e98e3          	bnez	t4,800072e0 <__gedf2+0x44>
/home/hqfang/workspace/software/riscv-gnu-toolchain/riscv-gcc/libgcc/soft-fp/gedf2.c:45 (discriminator 62)
800072f4:	08081063          	bnez	a6,80007374 <__gedf2+0xd8>
/home/hqfang/workspace/software/riscv-gnu-toolchain/riscv-gcc/libgcc/soft-fp/gedf2.c:45 (discriminator 63)
800072f8:	00f8e7b3          	or	a5,a7,a5
800072fc:	0017b793          	seqz	a5,a5
80007300:	00059663          	bnez	a1,8000730c <__gedf2+0x70>
/home/hqfang/workspace/software/riscv-gnu-toolchain/riscv-gcc/libgcc/soft-fp/gedf2.c:45 (discriminator 69)
80007304:	00c76633          	or	a2,a4,a2
80007308:	04060c63          	beqz	a2,80007360 <__gedf2+0xc4>
/home/hqfang/workspace/software/riscv-gnu-toolchain/riscv-gcc/libgcc/soft-fp/gedf2.c:45
8000730c:	00079c63          	bnez	a5,80007324 <__gedf2+0x88>
80007310:	00d51463          	bne	a0,a3,80007318 <__gedf2+0x7c>
/home/hqfang/workspace/software/riscv-gnu-toolchain/riscv-gcc/libgcc/soft-fp/gedf2.c:45 (discriminator 95)
80007314:	0305d063          	bge	a1,a6,80007334 <__gedf2+0x98>
/home/hqfang/workspace/software/riscv-gnu-toolchain/riscv-gcc/libgcc/soft-fp/gedf2.c:45 (discriminator 119)
80007318:	04050063          	beqz	a0,80007358 <__gedf2+0xbc>
/home/hqfang/workspace/software/riscv-gnu-toolchain/riscv-gcc/libgcc/soft-fp/gedf2.c:45
8000731c:	fff00513          	li	a0,-1
80007320:	00008067          	ret
/home/hqfang/workspace/software/riscv-gnu-toolchain/riscv-gcc/libgcc/soft-fp/gedf2.c:45 (discriminator 80)
80007324:	fff00513          	li	a0,-1
80007328:	00068a63          	beqz	a3,8000733c <__gedf2+0xa0>
/home/hqfang/workspace/software/riscv-gnu-toolchain/riscv-gcc/libgcc/soft-fp/gedf2.c:45
8000732c:	00068513          	mv	a0,a3
80007330:	00008067          	ret
/home/hqfang/workspace/software/riscv-gnu-toolchain/riscv-gcc/libgcc/soft-fp/gedf2.c:45 (discriminator 102)
80007334:	00b85663          	bge	a6,a1,80007340 <__gedf2+0xa4>
/home/hqfang/workspace/software/riscv-gnu-toolchain/riscv-gcc/libgcc/soft-fp/gedf2.c:45 (discriminator 130)
80007338:	fe0502e3          	beqz	a0,8000731c <__gedf2+0x80>
/home/hqfang/workspace/software/riscv-gnu-toolchain/riscv-gcc/libgcc/soft-fp/gedf2.c:49
8000733c:	00008067          	ret
/home/hqfang/workspace/software/riscv-gnu-toolchain/riscv-gcc/libgcc/soft-fp/gedf2.c:45 (discriminator 109)
80007340:	fd176ce3          	bltu	a4,a7,80007318 <__gedf2+0x7c>
/home/hqfang/workspace/software/riscv-gnu-toolchain/riscv-gcc/libgcc/soft-fp/gedf2.c:45 (discriminator 116)
80007344:	02e89263          	bne	a7,a4,80007368 <__gedf2+0xcc>
/home/hqfang/workspace/software/riscv-gnu-toolchain/riscv-gcc/libgcc/soft-fp/gedf2.c:45 (discriminator 117)
80007348:	fc6e68e3          	bltu	t3,t1,80007318 <__gedf2+0x7c>
/home/hqfang/workspace/software/riscv-gnu-toolchain/riscv-gcc/libgcc/soft-fp/gedf2.c:45 (discriminator 128)
8000734c:	ffc366e3          	bltu	t1,t3,80007338 <__gedf2+0x9c>
/home/hqfang/workspace/software/riscv-gnu-toolchain/riscv-gcc/libgcc/soft-fp/gedf2.c:45
80007350:	00000513          	li	a0,0
80007354:	00008067          	ret
80007358:	00100513          	li	a0,1
8000735c:	00008067          	ret
80007360:	fe0798e3          	bnez	a5,80007350 <__gedf2+0xb4>
80007364:	fb5ff06f          	j	80007318 <__gedf2+0x7c>
80007368:	fce8e8e3          	bltu	a7,a4,80007338 <__gedf2+0x9c>
8000736c:	fe5ff06f          	j	80007350 <__gedf2+0xb4>
80007370:	f7058ee3          	beq	a1,a6,800072ec <__gedf2+0x50>
80007374:	f8059ee3          	bnez	a1,80007310 <__gedf2+0x74>
80007378:	00000793          	li	a5,0
8000737c:	f89ff06f          	j	80007304 <__gedf2+0x68>

80007380 <__ledf2>:
__ledf2():
/home/hqfang/workspace/software/riscv-gnu-toolchain/riscv-gcc/libgcc/soft-fp/ledf2.c:43
80007380:	00100737          	lui	a4,0x100
80007384:	fff70713          	addi	a4,a4,-1 # fffff <dhry_stubs.c.aa5f359a+0xfc424>
80007388:	0145d813          	srli	a6,a1,0x14
8000738c:	00b778b3          	and	a7,a4,a1
/home/hqfang/workspace/software/riscv-gnu-toolchain/riscv-gcc/libgcc/soft-fp/ledf2.c:36
80007390:	00050793          	mv	a5,a0
80007394:	00050313          	mv	t1,a0
/home/hqfang/workspace/software/riscv-gnu-toolchain/riscv-gcc/libgcc/soft-fp/ledf2.c:43
80007398:	7ff87813          	andi	a6,a6,2047
8000739c:	01f5d513          	srli	a0,a1,0x1f
/home/hqfang/workspace/software/riscv-gnu-toolchain/riscv-gcc/libgcc/soft-fp/ledf2.c:45
800073a0:	7ff00e93          	li	t4,2047
/home/hqfang/workspace/software/riscv-gnu-toolchain/riscv-gcc/libgcc/soft-fp/ledf2.c:44
800073a4:	0146d593          	srli	a1,a3,0x14
800073a8:	00d77733          	and	a4,a4,a3
800073ac:	00060e13          	mv	t3,a2
800073b0:	7ff5f593          	andi	a1,a1,2047
800073b4:	01f6d693          	srli	a3,a3,0x1f
/home/hqfang/workspace/software/riscv-gnu-toolchain/riscv-gcc/libgcc/soft-fp/ledf2.c:45
800073b8:	01d81a63          	bne	a6,t4,800073cc <__ledf2+0x4c>
/home/hqfang/workspace/software/riscv-gnu-toolchain/riscv-gcc/libgcc/soft-fp/ledf2.c:45 (discriminator 20)
800073bc:	00f8eeb3          	or	t4,a7,a5
800073c0:	080e8a63          	beqz	t4,80007454 <__ledf2+0xd4>
/home/hqfang/workspace/software/riscv-gnu-toolchain/riscv-gcc/libgcc/soft-fp/ledf2.c:45
800073c4:	00200513          	li	a0,2
800073c8:	00008067          	ret
/home/hqfang/workspace/software/riscv-gnu-toolchain/riscv-gcc/libgcc/soft-fp/ledf2.c:45 (discriminator 23)
800073cc:	01d59663          	bne	a1,t4,800073d8 <__ledf2+0x58>
/home/hqfang/workspace/software/riscv-gnu-toolchain/riscv-gcc/libgcc/soft-fp/ledf2.c:45 (discriminator 24)
800073d0:	00c76eb3          	or	t4,a4,a2
800073d4:	fe0e98e3          	bnez	t4,800073c4 <__ledf2+0x44>
/home/hqfang/workspace/software/riscv-gnu-toolchain/riscv-gcc/libgcc/soft-fp/ledf2.c:45 (discriminator 62)
800073d8:	08081063          	bnez	a6,80007458 <__ledf2+0xd8>
/home/hqfang/workspace/software/riscv-gnu-toolchain/riscv-gcc/libgcc/soft-fp/ledf2.c:45 (discriminator 63)
800073dc:	00f8e7b3          	or	a5,a7,a5
800073e0:	0017b793          	seqz	a5,a5
800073e4:	00059663          	bnez	a1,800073f0 <__ledf2+0x70>
/home/hqfang/workspace/software/riscv-gnu-toolchain/riscv-gcc/libgcc/soft-fp/ledf2.c:45 (discriminator 69)
800073e8:	00c76633          	or	a2,a4,a2
800073ec:	04060c63          	beqz	a2,80007444 <__ledf2+0xc4>
/home/hqfang/workspace/software/riscv-gnu-toolchain/riscv-gcc/libgcc/soft-fp/ledf2.c:45
800073f0:	00079c63          	bnez	a5,80007408 <__ledf2+0x88>
800073f4:	00d51463          	bne	a0,a3,800073fc <__ledf2+0x7c>
/home/hqfang/workspace/software/riscv-gnu-toolchain/riscv-gcc/libgcc/soft-fp/ledf2.c:45 (discriminator 95)
800073f8:	0305d063          	bge	a1,a6,80007418 <__ledf2+0x98>
/home/hqfang/workspace/software/riscv-gnu-toolchain/riscv-gcc/libgcc/soft-fp/ledf2.c:45 (discriminator 119)
800073fc:	04050063          	beqz	a0,8000743c <__ledf2+0xbc>
/home/hqfang/workspace/software/riscv-gnu-toolchain/riscv-gcc/libgcc/soft-fp/ledf2.c:45
80007400:	fff00513          	li	a0,-1
80007404:	00008067          	ret
/home/hqfang/workspace/software/riscv-gnu-toolchain/riscv-gcc/libgcc/soft-fp/ledf2.c:45 (discriminator 80)
80007408:	fff00513          	li	a0,-1
8000740c:	00068a63          	beqz	a3,80007420 <__ledf2+0xa0>
/home/hqfang/workspace/software/riscv-gnu-toolchain/riscv-gcc/libgcc/soft-fp/ledf2.c:45
80007410:	00068513          	mv	a0,a3
80007414:	00008067          	ret
/home/hqfang/workspace/software/riscv-gnu-toolchain/riscv-gcc/libgcc/soft-fp/ledf2.c:45 (discriminator 102)
80007418:	00b85663          	bge	a6,a1,80007424 <__ledf2+0xa4>
/home/hqfang/workspace/software/riscv-gnu-toolchain/riscv-gcc/libgcc/soft-fp/ledf2.c:45 (discriminator 130)
8000741c:	fe0502e3          	beqz	a0,80007400 <__ledf2+0x80>
/home/hqfang/workspace/software/riscv-gnu-toolchain/riscv-gcc/libgcc/soft-fp/ledf2.c:49
80007420:	00008067          	ret
/home/hqfang/workspace/software/riscv-gnu-toolchain/riscv-gcc/libgcc/soft-fp/ledf2.c:45 (discriminator 109)
80007424:	fd176ce3          	bltu	a4,a7,800073fc <__ledf2+0x7c>
/home/hqfang/workspace/software/riscv-gnu-toolchain/riscv-gcc/libgcc/soft-fp/ledf2.c:45 (discriminator 116)
80007428:	02e89263          	bne	a7,a4,8000744c <__ledf2+0xcc>
/home/hqfang/workspace/software/riscv-gnu-toolchain/riscv-gcc/libgcc/soft-fp/ledf2.c:45 (discriminator 117)
8000742c:	fc6e68e3          	bltu	t3,t1,800073fc <__ledf2+0x7c>
/home/hqfang/workspace/software/riscv-gnu-toolchain/riscv-gcc/libgcc/soft-fp/ledf2.c:45 (discriminator 128)
80007430:	ffc366e3          	bltu	t1,t3,8000741c <__ledf2+0x9c>
/home/hqfang/workspace/software/riscv-gnu-toolchain/riscv-gcc/libgcc/soft-fp/ledf2.c:45
80007434:	00000513          	li	a0,0
80007438:	00008067          	ret
8000743c:	00100513          	li	a0,1
80007440:	00008067          	ret
80007444:	fe0798e3          	bnez	a5,80007434 <__ledf2+0xb4>
80007448:	fb5ff06f          	j	800073fc <__ledf2+0x7c>
8000744c:	fce8e8e3          	bltu	a7,a4,8000741c <__ledf2+0x9c>
80007450:	fe5ff06f          	j	80007434 <__ledf2+0xb4>
80007454:	f7058ee3          	beq	a1,a6,800073d0 <__ledf2+0x50>
80007458:	f8059ee3          	bnez	a1,800073f4 <__ledf2+0x74>
8000745c:	00000793          	li	a5,0
80007460:	f89ff06f          	j	800073e8 <__ledf2+0x68>

80007464 <__muldf3>:
__muldf3():
/home/hqfang/workspace/software/riscv-gnu-toolchain/riscv-gcc/libgcc/soft-fp/muldf3.c:36
80007464:	fd010113          	addi	sp,sp,-48
80007468:	01312e23          	sw	s3,28(sp)
/home/hqfang/workspace/software/riscv-gnu-toolchain/riscv-gcc/libgcc/soft-fp/muldf3.c:44
8000746c:	0145d993          	srli	s3,a1,0x14
/home/hqfang/workspace/software/riscv-gnu-toolchain/riscv-gcc/libgcc/soft-fp/muldf3.c:36
80007470:	02812423          	sw	s0,40(sp)
80007474:	02912223          	sw	s1,36(sp)
80007478:	01412c23          	sw	s4,24(sp)
8000747c:	01512a23          	sw	s5,20(sp)
80007480:	01712623          	sw	s7,12(sp)
/home/hqfang/workspace/software/riscv-gnu-toolchain/riscv-gcc/libgcc/soft-fp/muldf3.c:44
80007484:	00c59493          	slli	s1,a1,0xc
/home/hqfang/workspace/software/riscv-gnu-toolchain/riscv-gcc/libgcc/soft-fp/muldf3.c:36
80007488:	02112623          	sw	ra,44(sp)
8000748c:	03212023          	sw	s2,32(sp)
80007490:	01612823          	sw	s6,16(sp)
/home/hqfang/workspace/software/riscv-gnu-toolchain/riscv-gcc/libgcc/soft-fp/muldf3.c:44
80007494:	7ff9f993          	andi	s3,s3,2047
/home/hqfang/workspace/software/riscv-gnu-toolchain/riscv-gcc/libgcc/soft-fp/muldf3.c:36
80007498:	00050413          	mv	s0,a0
8000749c:	00060b93          	mv	s7,a2
800074a0:	00068a93          	mv	s5,a3
/home/hqfang/workspace/software/riscv-gnu-toolchain/riscv-gcc/libgcc/soft-fp/muldf3.c:44
800074a4:	00c4d493          	srli	s1,s1,0xc
800074a8:	01f5da13          	srli	s4,a1,0x1f
800074ac:	0a098463          	beqz	s3,80007554 <__muldf3+0xf0>
800074b0:	7ff00793          	li	a5,2047
800074b4:	10f98263          	beq	s3,a5,800075b8 <__muldf3+0x154>
/home/hqfang/workspace/software/riscv-gnu-toolchain/riscv-gcc/libgcc/soft-fp/muldf3.c:44 (discriminator 1)
800074b8:	01d55793          	srli	a5,a0,0x1d
800074bc:	00349493          	slli	s1,s1,0x3
800074c0:	0097e4b3          	or	s1,a5,s1
800074c4:	008007b7          	lui	a5,0x800
800074c8:	00f4e4b3          	or	s1,s1,a5
800074cc:	00351913          	slli	s2,a0,0x3
800074d0:	c0198993          	addi	s3,s3,-1023
/home/hqfang/workspace/software/riscv-gnu-toolchain/riscv-gcc/libgcc/soft-fp/muldf3.c:44 (discriminator 41)
800074d4:	00000b13          	li	s6,0
/home/hqfang/workspace/software/riscv-gnu-toolchain/riscv-gcc/libgcc/soft-fp/muldf3.c:45 (discriminator 8)
800074d8:	014ad513          	srli	a0,s5,0x14
800074dc:	00ca9413          	slli	s0,s5,0xc
800074e0:	7ff57513          	andi	a0,a0,2047
800074e4:	00c45413          	srli	s0,s0,0xc
800074e8:	01fada93          	srli	s5,s5,0x1f
800074ec:	10050263          	beqz	a0,800075f0 <__muldf3+0x18c>
/home/hqfang/workspace/software/riscv-gnu-toolchain/riscv-gcc/libgcc/soft-fp/muldf3.c:45
800074f0:	7ff00793          	li	a5,2047
800074f4:	16f50263          	beq	a0,a5,80007658 <__muldf3+0x1f4>
/home/hqfang/workspace/software/riscv-gnu-toolchain/riscv-gcc/libgcc/soft-fp/muldf3.c:45 (discriminator 1)
800074f8:	01dbd793          	srli	a5,s7,0x1d
800074fc:	00341413          	slli	s0,s0,0x3
80007500:	0087e433          	or	s0,a5,s0
80007504:	008007b7          	lui	a5,0x800
80007508:	00f46433          	or	s0,s0,a5
8000750c:	c0150513          	addi	a0,a0,-1023 # 7fc01 <dhry_stubs.c.aa5f359a+0x7c026>
80007510:	003b9793          	slli	a5,s7,0x3
/home/hqfang/workspace/software/riscv-gnu-toolchain/riscv-gcc/libgcc/soft-fp/muldf3.c:45 (discriminator 41)
80007514:	00000713          	li	a4,0
/home/hqfang/workspace/software/riscv-gnu-toolchain/riscv-gcc/libgcc/soft-fp/muldf3.c:46 (discriminator 8)
80007518:	002b1693          	slli	a3,s6,0x2
8000751c:	00e6e6b3          	or	a3,a3,a4
80007520:	00a98533          	add	a0,s3,a0
80007524:	fff68693          	addi	a3,a3,-1 # 7fefffff <dhry_stubs.c.aa5f359a+0x7fefc424>
80007528:	00e00813          	li	a6,14
8000752c:	015a4633          	xor	a2,s4,s5
80007530:	00150593          	addi	a1,a0,1
80007534:	14d86e63          	bltu	a6,a3,80007690 <__muldf3+0x22c>
80007538:	00002517          	auipc	a0,0x2
8000753c:	73850513          	addi	a0,a0,1848 # 80009c70 <_ctype_+0x140>
80007540:	00269693          	slli	a3,a3,0x2
80007544:	00a686b3          	add	a3,a3,a0
80007548:	0006a683          	lw	a3,0(a3)
8000754c:	00a686b3          	add	a3,a3,a0
80007550:	00068067          	jr	a3
/home/hqfang/workspace/software/riscv-gnu-toolchain/riscv-gcc/libgcc/soft-fp/muldf3.c:44 (discriminator 2)
80007554:	00a4e933          	or	s2,s1,a0
80007558:	06090c63          	beqz	s2,800075d0 <__muldf3+0x16c>
/home/hqfang/workspace/software/riscv-gnu-toolchain/riscv-gcc/libgcc/soft-fp/muldf3.c:44 (discriminator 13)
8000755c:	04048063          	beqz	s1,8000759c <__muldf3+0x138>
/home/hqfang/workspace/software/riscv-gnu-toolchain/riscv-gcc/libgcc/soft-fp/muldf3.c:44 (discriminator 17)
80007560:	00048513          	mv	a0,s1
80007564:	20c010ef          	jal	ra,80008770 <__clzsi2>
/home/hqfang/workspace/software/riscv-gnu-toolchain/riscv-gcc/libgcc/soft-fp/muldf3.c:44 (discriminator 31)
80007568:	ff550713          	addi	a4,a0,-11
8000756c:	01c00793          	li	a5,28
80007570:	02e7cc63          	blt	a5,a4,800075a8 <__muldf3+0x144>
/home/hqfang/workspace/software/riscv-gnu-toolchain/riscv-gcc/libgcc/soft-fp/muldf3.c:44 (discriminator 32)
80007574:	01d00793          	li	a5,29
80007578:	ff850913          	addi	s2,a0,-8
8000757c:	40e787b3          	sub	a5,a5,a4
80007580:	012494b3          	sll	s1,s1,s2
80007584:	00f457b3          	srl	a5,s0,a5
80007588:	0097e4b3          	or	s1,a5,s1
8000758c:	01241933          	sll	s2,s0,s2
/home/hqfang/workspace/software/riscv-gnu-toolchain/riscv-gcc/libgcc/soft-fp/muldf3.c:44 (discriminator 41)
80007590:	c0d00993          	li	s3,-1011
80007594:	40a989b3          	sub	s3,s3,a0
80007598:	f3dff06f          	j	800074d4 <__muldf3+0x70>
/home/hqfang/workspace/software/riscv-gnu-toolchain/riscv-gcc/libgcc/soft-fp/muldf3.c:44 (discriminator 24)
8000759c:	1d4010ef          	jal	ra,80008770 <__clzsi2>
800075a0:	02050513          	addi	a0,a0,32
800075a4:	fc5ff06f          	j	80007568 <__muldf3+0x104>
/home/hqfang/workspace/software/riscv-gnu-toolchain/riscv-gcc/libgcc/soft-fp/muldf3.c:44 (discriminator 33)
800075a8:	fd850493          	addi	s1,a0,-40
800075ac:	009414b3          	sll	s1,s0,s1
800075b0:	00000913          	li	s2,0
800075b4:	fddff06f          	j	80007590 <__muldf3+0x12c>
/home/hqfang/workspace/software/riscv-gnu-toolchain/riscv-gcc/libgcc/soft-fp/muldf3.c:44 (discriminator 3)
800075b8:	00a4e933          	or	s2,s1,a0
800075bc:	02090263          	beqz	s2,800075e0 <__muldf3+0x17c>
/home/hqfang/workspace/software/riscv-gnu-toolchain/riscv-gcc/libgcc/soft-fp/muldf3.c:44
800075c0:	00050913          	mv	s2,a0
800075c4:	7ff00993          	li	s3,2047
800075c8:	00300b13          	li	s6,3
800075cc:	f0dff06f          	j	800074d8 <__muldf3+0x74>
800075d0:	00000493          	li	s1,0
800075d4:	00000993          	li	s3,0
800075d8:	00100b13          	li	s6,1
800075dc:	efdff06f          	j	800074d8 <__muldf3+0x74>
800075e0:	00000493          	li	s1,0
800075e4:	7ff00993          	li	s3,2047
800075e8:	00200b13          	li	s6,2
800075ec:	eedff06f          	j	800074d8 <__muldf3+0x74>
/home/hqfang/workspace/software/riscv-gnu-toolchain/riscv-gcc/libgcc/soft-fp/muldf3.c:45 (discriminator 2)
800075f0:	017467b3          	or	a5,s0,s7
800075f4:	06078e63          	beqz	a5,80007670 <__muldf3+0x20c>
/home/hqfang/workspace/software/riscv-gnu-toolchain/riscv-gcc/libgcc/soft-fp/muldf3.c:45 (discriminator 13)
800075f8:	04040063          	beqz	s0,80007638 <__muldf3+0x1d4>
/home/hqfang/workspace/software/riscv-gnu-toolchain/riscv-gcc/libgcc/soft-fp/muldf3.c:45 (discriminator 17)
800075fc:	00040513          	mv	a0,s0
80007600:	170010ef          	jal	ra,80008770 <__clzsi2>
/home/hqfang/workspace/software/riscv-gnu-toolchain/riscv-gcc/libgcc/soft-fp/muldf3.c:45 (discriminator 31)
80007604:	ff550693          	addi	a3,a0,-11
80007608:	01c00793          	li	a5,28
8000760c:	02d7ce63          	blt	a5,a3,80007648 <__muldf3+0x1e4>
/home/hqfang/workspace/software/riscv-gnu-toolchain/riscv-gcc/libgcc/soft-fp/muldf3.c:45 (discriminator 32)
80007610:	01d00713          	li	a4,29
80007614:	ff850793          	addi	a5,a0,-8
80007618:	40d70733          	sub	a4,a4,a3
8000761c:	00f41433          	sll	s0,s0,a5
80007620:	00ebd733          	srl	a4,s7,a4
80007624:	00876433          	or	s0,a4,s0
80007628:	00fb97b3          	sll	a5,s7,a5
/home/hqfang/workspace/software/riscv-gnu-toolchain/riscv-gcc/libgcc/soft-fp/muldf3.c:45 (discriminator 41)
8000762c:	c0d00713          	li	a4,-1011
80007630:	40a70533          	sub	a0,a4,a0
80007634:	ee1ff06f          	j	80007514 <__muldf3+0xb0>
/home/hqfang/workspace/software/riscv-gnu-toolchain/riscv-gcc/libgcc/soft-fp/muldf3.c:45 (discriminator 24)
80007638:	000b8513          	mv	a0,s7
8000763c:	134010ef          	jal	ra,80008770 <__clzsi2>
80007640:	02050513          	addi	a0,a0,32
80007644:	fc1ff06f          	j	80007604 <__muldf3+0x1a0>
/home/hqfang/workspace/software/riscv-gnu-toolchain/riscv-gcc/libgcc/soft-fp/muldf3.c:45 (discriminator 33)
80007648:	fd850413          	addi	s0,a0,-40
8000764c:	008b9433          	sll	s0,s7,s0
80007650:	00000793          	li	a5,0
80007654:	fd9ff06f          	j	8000762c <__muldf3+0x1c8>
/home/hqfang/workspace/software/riscv-gnu-toolchain/riscv-gcc/libgcc/soft-fp/muldf3.c:45 (discriminator 3)
80007658:	017467b3          	or	a5,s0,s7
8000765c:	02078263          	beqz	a5,80007680 <__muldf3+0x21c>
/home/hqfang/workspace/software/riscv-gnu-toolchain/riscv-gcc/libgcc/soft-fp/muldf3.c:45
80007660:	000b8793          	mv	a5,s7
80007664:	7ff00513          	li	a0,2047
80007668:	00300713          	li	a4,3
8000766c:	eadff06f          	j	80007518 <__muldf3+0xb4>
80007670:	00000413          	li	s0,0
80007674:	00000513          	li	a0,0
80007678:	00100713          	li	a4,1
8000767c:	e9dff06f          	j	80007518 <__muldf3+0xb4>
80007680:	00000413          	li	s0,0
80007684:	7ff00513          	li	a0,2047
80007688:	00200713          	li	a4,2
8000768c:	e8dff06f          	j	80007518 <__muldf3+0xb4>
/home/hqfang/workspace/software/riscv-gnu-toolchain/riscv-gcc/libgcc/soft-fp/muldf3.c:46 (discriminator 2)
80007690:	00010f37          	lui	t5,0x10
80007694:	ffff0e93          	addi	t4,t5,-1 # ffff <dhry_stubs.c.aa5f359a+0xc424>
80007698:	01095713          	srli	a4,s2,0x10
8000769c:	0107d893          	srli	a7,a5,0x10
800076a0:	01d97933          	and	s2,s2,t4
800076a4:	01d7f7b3          	and	a5,a5,t4
800076a8:	03288833          	mul	a6,a7,s2
800076ac:	02f906b3          	mul	a3,s2,a5
800076b0:	02f70fb3          	mul	t6,a4,a5
800076b4:	01f80333          	add	t1,a6,t6
800076b8:	0106d813          	srli	a6,a3,0x10
800076bc:	00680833          	add	a6,a6,t1
800076c0:	03170e33          	mul	t3,a4,a7
800076c4:	01f87463          	bgeu	a6,t6,800076cc <__muldf3+0x268>
/home/hqfang/workspace/software/riscv-gnu-toolchain/riscv-gcc/libgcc/soft-fp/muldf3.c:46 (discriminator 9)
800076c8:	01ee0e33          	add	t3,t3,t5
/home/hqfang/workspace/software/riscv-gnu-toolchain/riscv-gcc/libgcc/soft-fp/muldf3.c:46 (discriminator 11)
800076cc:	01085393          	srli	t2,a6,0x10
800076d0:	01d87833          	and	a6,a6,t4
800076d4:	01d6f6b3          	and	a3,a3,t4
800076d8:	01045f13          	srli	t5,s0,0x10
800076dc:	01d472b3          	and	t0,s0,t4
800076e0:	01081813          	slli	a6,a6,0x10
800076e4:	00d80833          	add	a6,a6,a3
800076e8:	02570eb3          	mul	t4,a4,t0
800076ec:	025906b3          	mul	a3,s2,t0
800076f0:	032f0933          	mul	s2,t5,s2
800076f4:	01d90333          	add	t1,s2,t4
800076f8:	0106d913          	srli	s2,a3,0x10
800076fc:	00690933          	add	s2,s2,t1
80007700:	03e70733          	mul	a4,a4,t5
80007704:	01d97663          	bgeu	s2,t4,80007710 <__muldf3+0x2ac>
/home/hqfang/workspace/software/riscv-gnu-toolchain/riscv-gcc/libgcc/soft-fp/muldf3.c:46 (discriminator 12)
80007708:	00010337          	lui	t1,0x10
8000770c:	00670733          	add	a4,a4,t1
/home/hqfang/workspace/software/riscv-gnu-toolchain/riscv-gcc/libgcc/soft-fp/muldf3.c:46 (discriminator 14)
80007710:	01095e93          	srli	t4,s2,0x10
80007714:	000109b7          	lui	s3,0x10
80007718:	00ee8eb3          	add	t4,t4,a4
8000771c:	fff98713          	addi	a4,s3,-1 # ffff <dhry_stubs.c.aa5f359a+0xc424>
80007720:	00e97933          	and	s2,s2,a4
80007724:	00e6f6b3          	and	a3,a3,a4
80007728:	0104d413          	srli	s0,s1,0x10
8000772c:	01091913          	slli	s2,s2,0x10
80007730:	00e4f4b3          	and	s1,s1,a4
80007734:	02978733          	mul	a4,a5,s1
80007738:	00d90933          	add	s2,s2,a3
8000773c:	012383b3          	add	t2,t2,s2
80007740:	02f40333          	mul	t1,s0,a5
80007744:	029886b3          	mul	a3,a7,s1
80007748:	028887b3          	mul	a5,a7,s0
8000774c:	006688b3          	add	a7,a3,t1
80007750:	01075693          	srli	a3,a4,0x10
80007754:	011686b3          	add	a3,a3,a7
80007758:	0066f463          	bgeu	a3,t1,80007760 <__muldf3+0x2fc>
/home/hqfang/workspace/software/riscv-gnu-toolchain/riscv-gcc/libgcc/soft-fp/muldf3.c:46 (discriminator 15)
8000775c:	013787b3          	add	a5,a5,s3
/home/hqfang/workspace/software/riscv-gnu-toolchain/riscv-gcc/libgcc/soft-fp/muldf3.c:46 (discriminator 17)
80007760:	0106d893          	srli	a7,a3,0x10
80007764:	000109b7          	lui	s3,0x10
80007768:	00f88fb3          	add	t6,a7,a5
8000776c:	fff98793          	addi	a5,s3,-1 # ffff <dhry_stubs.c.aa5f359a+0xc424>
80007770:	029288b3          	mul	a7,t0,s1
80007774:	00f6f6b3          	and	a3,a3,a5
80007778:	00f77733          	and	a4,a4,a5
8000777c:	01069693          	slli	a3,a3,0x10
80007780:	00e686b3          	add	a3,a3,a4
80007784:	025407b3          	mul	a5,s0,t0
80007788:	029f04b3          	mul	s1,t5,s1
8000778c:	028f0333          	mul	t1,t5,s0
80007790:	00f484b3          	add	s1,s1,a5
80007794:	0108d413          	srli	s0,a7,0x10
80007798:	009404b3          	add	s1,s0,s1
8000779c:	00f4f463          	bgeu	s1,a5,800077a4 <__muldf3+0x340>
/home/hqfang/workspace/software/riscv-gnu-toolchain/riscv-gcc/libgcc/soft-fp/muldf3.c:46 (discriminator 18)
800077a0:	01330333          	add	t1,t1,s3
/home/hqfang/workspace/software/riscv-gnu-toolchain/riscv-gcc/libgcc/soft-fp/muldf3.c:46 (discriminator 20)
800077a4:	000107b7          	lui	a5,0x10
800077a8:	fff78793          	addi	a5,a5,-1 # ffff <dhry_stubs.c.aa5f359a+0xc424>
800077ac:	00f4f733          	and	a4,s1,a5
800077b0:	00f8f8b3          	and	a7,a7,a5
800077b4:	01071713          	slli	a4,a4,0x10
800077b8:	007e0e33          	add	t3,t3,t2
800077bc:	01170733          	add	a4,a4,a7
800077c0:	012e3933          	sltu	s2,t3,s2
800077c4:	01d70733          	add	a4,a4,t4
800077c8:	01270433          	add	s0,a4,s2
800077cc:	00de0e33          	add	t3,t3,a3
800077d0:	00de36b3          	sltu	a3,t3,a3
800077d4:	01f408b3          	add	a7,s0,t6
800077d8:	00d88f33          	add	t5,a7,a3
800077dc:	01d73733          	sltu	a4,a4,t4
800077e0:	01243433          	sltu	s0,s0,s2
800077e4:	00876433          	or	s0,a4,s0
800077e8:	0104d493          	srli	s1,s1,0x10
800077ec:	01f8b8b3          	sltu	a7,a7,t6
800077f0:	00df36b3          	sltu	a3,t5,a3
800077f4:	00940433          	add	s0,s0,s1
800077f8:	00d8e6b3          	or	a3,a7,a3
800077fc:	00d40433          	add	s0,s0,a3
80007800:	00640433          	add	s0,s0,t1
80007804:	017f5793          	srli	a5,t5,0x17
80007808:	00941413          	slli	s0,s0,0x9
8000780c:	00f46433          	or	s0,s0,a5
80007810:	009e1793          	slli	a5,t3,0x9
80007814:	0107e7b3          	or	a5,a5,a6
80007818:	00f037b3          	snez	a5,a5
8000781c:	017e5e13          	srli	t3,t3,0x17
80007820:	009f1713          	slli	a4,t5,0x9
80007824:	01c7e7b3          	or	a5,a5,t3
80007828:	00e7e7b3          	or	a5,a5,a4
8000782c:	01000737          	lui	a4,0x1000
80007830:	00e47733          	and	a4,s0,a4
80007834:	10070663          	beqz	a4,80007940 <__muldf3+0x4dc>
/home/hqfang/workspace/software/riscv-gnu-toolchain/riscv-gcc/libgcc/soft-fp/muldf3.c:46 (discriminator 38)
80007838:	0017d713          	srli	a4,a5,0x1
8000783c:	0017f793          	andi	a5,a5,1
80007840:	00f767b3          	or	a5,a4,a5
80007844:	01f41713          	slli	a4,s0,0x1f
80007848:	00e7e7b3          	or	a5,a5,a4
8000784c:	00145413          	srli	s0,s0,0x1
/home/hqfang/workspace/software/riscv-gnu-toolchain/riscv-gcc/libgcc/soft-fp/muldf3.c:47 (discriminator 2)
80007850:	3ff58693          	addi	a3,a1,1023
80007854:	0ed05a63          	blez	a3,80007948 <__muldf3+0x4e4>
/home/hqfang/workspace/software/riscv-gnu-toolchain/riscv-gcc/libgcc/soft-fp/muldf3.c:47 (discriminator 6)
80007858:	0077f713          	andi	a4,a5,7
8000785c:	02070063          	beqz	a4,8000787c <__muldf3+0x418>
/home/hqfang/workspace/software/riscv-gnu-toolchain/riscv-gcc/libgcc/soft-fp/muldf3.c:47 (discriminator 8)
80007860:	00f7f713          	andi	a4,a5,15
80007864:	00400513          	li	a0,4
80007868:	00a70a63          	beq	a4,a0,8000787c <__muldf3+0x418>
/home/hqfang/workspace/software/riscv-gnu-toolchain/riscv-gcc/libgcc/soft-fp/muldf3.c:47 (discriminator 10)
8000786c:	00478713          	addi	a4,a5,4
80007870:	00f737b3          	sltu	a5,a4,a5
80007874:	00f40433          	add	s0,s0,a5
80007878:	00070793          	mv	a5,a4
/home/hqfang/workspace/software/riscv-gnu-toolchain/riscv-gcc/libgcc/soft-fp/muldf3.c:47 (discriminator 9)
8000787c:	01000737          	lui	a4,0x1000
80007880:	00e47733          	and	a4,s0,a4
80007884:	00070a63          	beqz	a4,80007898 <__muldf3+0x434>
/home/hqfang/workspace/software/riscv-gnu-toolchain/riscv-gcc/libgcc/soft-fp/muldf3.c:47 (discriminator 24)
80007888:	ff000737          	lui	a4,0xff000
8000788c:	fff70713          	addi	a4,a4,-1 # feffffff <_sp+0x6efeffff>
80007890:	00e47433          	and	s0,s0,a4
80007894:	40058693          	addi	a3,a1,1024
/home/hqfang/workspace/software/riscv-gnu-toolchain/riscv-gcc/libgcc/soft-fp/muldf3.c:47 (discriminator 26)
80007898:	7fe00713          	li	a4,2046
8000789c:	16d74a63          	blt	a4,a3,80007a10 <__muldf3+0x5ac>
/home/hqfang/workspace/software/riscv-gnu-toolchain/riscv-gcc/libgcc/soft-fp/muldf3.c:47
800078a0:	0037d713          	srli	a4,a5,0x3
800078a4:	01d41793          	slli	a5,s0,0x1d
800078a8:	00e7e7b3          	or	a5,a5,a4
800078ac:	00345413          	srli	s0,s0,0x3
/home/hqfang/workspace/software/riscv-gnu-toolchain/riscv-gcc/libgcc/soft-fp/muldf3.c:47 (discriminator 119)
800078b0:	01469713          	slli	a4,a3,0x14
800078b4:	00c41413          	slli	s0,s0,0xc
800078b8:	7ff006b7          	lui	a3,0x7ff00
800078bc:	00d77733          	and	a4,a4,a3
800078c0:	00c45413          	srli	s0,s0,0xc
800078c4:	00876433          	or	s0,a4,s0
800078c8:	01f61613          	slli	a2,a2,0x1f
/home/hqfang/workspace/software/riscv-gnu-toolchain/riscv-gcc/libgcc/soft-fp/muldf3.c:51 (discriminator 119)
800078cc:	02c12083          	lw	ra,44(sp)
/home/hqfang/workspace/software/riscv-gnu-toolchain/riscv-gcc/libgcc/soft-fp/muldf3.c:47 (discriminator 119)
800078d0:	00c46733          	or	a4,s0,a2
/home/hqfang/workspace/software/riscv-gnu-toolchain/riscv-gcc/libgcc/soft-fp/muldf3.c:51 (discriminator 119)
800078d4:	02812403          	lw	s0,40(sp)
800078d8:	02412483          	lw	s1,36(sp)
800078dc:	02012903          	lw	s2,32(sp)
800078e0:	01c12983          	lw	s3,28(sp)
800078e4:	01812a03          	lw	s4,24(sp)
800078e8:	01412a83          	lw	s5,20(sp)
800078ec:	01012b03          	lw	s6,16(sp)
800078f0:	00c12b83          	lw	s7,12(sp)
800078f4:	00078513          	mv	a0,a5
800078f8:	00070593          	mv	a1,a4
800078fc:	03010113          	addi	sp,sp,48
80007900:	00008067          	ret
/home/hqfang/workspace/software/riscv-gnu-toolchain/riscv-gcc/libgcc/soft-fp/muldf3.c:44 (discriminator 7)
80007904:	000a0613          	mv	a2,s4
/home/hqfang/workspace/software/riscv-gnu-toolchain/riscv-gcc/libgcc/soft-fp/muldf3.c:46 (discriminator 7)
80007908:	00048413          	mv	s0,s1
8000790c:	00090793          	mv	a5,s2
80007910:	000b0713          	mv	a4,s6
/home/hqfang/workspace/software/riscv-gnu-toolchain/riscv-gcc/libgcc/soft-fp/muldf3.c:47 (discriminator 47)
80007914:	00200693          	li	a3,2
80007918:	0ed70c63          	beq	a4,a3,80007a10 <__muldf3+0x5ac>
/home/hqfang/workspace/software/riscv-gnu-toolchain/riscv-gcc/libgcc/soft-fp/muldf3.c:47
8000791c:	00300693          	li	a3,3
80007920:	0cd70e63          	beq	a4,a3,800079fc <__muldf3+0x598>
80007924:	00100693          	li	a3,1
80007928:	f2d714e3          	bne	a4,a3,80007850 <__muldf3+0x3ec>
8000792c:	00000413          	li	s0,0
80007930:	00000793          	li	a5,0
80007934:	08c0006f          	j	800079c0 <__muldf3+0x55c>
/home/hqfang/workspace/software/riscv-gnu-toolchain/riscv-gcc/libgcc/soft-fp/muldf3.c:45 (discriminator 4)
80007938:	000a8613          	mv	a2,s5
/home/hqfang/workspace/software/riscv-gnu-toolchain/riscv-gcc/libgcc/soft-fp/muldf3.c:46 (discriminator 4)
8000793c:	fd9ff06f          	j	80007914 <__muldf3+0x4b0>
/home/hqfang/workspace/software/riscv-gnu-toolchain/riscv-gcc/libgcc/soft-fp/muldf3.c:46
80007940:	00050593          	mv	a1,a0
80007944:	f0dff06f          	j	80007850 <__muldf3+0x3ec>
/home/hqfang/workspace/software/riscv-gnu-toolchain/riscv-gcc/libgcc/soft-fp/muldf3.c:47 (discriminator 59)
80007948:	00100513          	li	a0,1
8000794c:	40d50533          	sub	a0,a0,a3
80007950:	03800713          	li	a4,56
80007954:	fca74ce3          	blt	a4,a0,8000792c <__muldf3+0x4c8>
/home/hqfang/workspace/software/riscv-gnu-toolchain/riscv-gcc/libgcc/soft-fp/muldf3.c:47 (discriminator 60)
80007958:	01f00713          	li	a4,31
8000795c:	06a74663          	blt	a4,a0,800079c8 <__muldf3+0x564>
/home/hqfang/workspace/software/riscv-gnu-toolchain/riscv-gcc/libgcc/soft-fp/muldf3.c:47 (discriminator 62)
80007960:	41e58593          	addi	a1,a1,1054
80007964:	00b41733          	sll	a4,s0,a1
80007968:	00a7d6b3          	srl	a3,a5,a0
8000796c:	00b797b3          	sll	a5,a5,a1
80007970:	00d76733          	or	a4,a4,a3
80007974:	00f037b3          	snez	a5,a5
80007978:	00f767b3          	or	a5,a4,a5
8000797c:	00a45433          	srl	s0,s0,a0
/home/hqfang/workspace/software/riscv-gnu-toolchain/riscv-gcc/libgcc/soft-fp/muldf3.c:47 (discriminator 75)
80007980:	0077f713          	andi	a4,a5,7
80007984:	02070063          	beqz	a4,800079a4 <__muldf3+0x540>
/home/hqfang/workspace/software/riscv-gnu-toolchain/riscv-gcc/libgcc/soft-fp/muldf3.c:47 (discriminator 76)
80007988:	00f7f713          	andi	a4,a5,15
8000798c:	00400693          	li	a3,4
80007990:	00d70a63          	beq	a4,a3,800079a4 <__muldf3+0x540>
/home/hqfang/workspace/software/riscv-gnu-toolchain/riscv-gcc/libgcc/soft-fp/muldf3.c:47 (discriminator 78)
80007994:	00478713          	addi	a4,a5,4
80007998:	00f737b3          	sltu	a5,a4,a5
8000799c:	00f40433          	add	s0,s0,a5
800079a0:	00070793          	mv	a5,a4
/home/hqfang/workspace/software/riscv-gnu-toolchain/riscv-gcc/libgcc/soft-fp/muldf3.c:47 (discriminator 77)
800079a4:	00800737          	lui	a4,0x800
800079a8:	00e47733          	and	a4,s0,a4
800079ac:	06071a63          	bnez	a4,80007a20 <__muldf3+0x5bc>
/home/hqfang/workspace/software/riscv-gnu-toolchain/riscv-gcc/libgcc/soft-fp/muldf3.c:47 (discriminator 93)
800079b0:	01d41713          	slli	a4,s0,0x1d
800079b4:	0037d793          	srli	a5,a5,0x3
800079b8:	00f767b3          	or	a5,a4,a5
800079bc:	00345413          	srli	s0,s0,0x3
/home/hqfang/workspace/software/riscv-gnu-toolchain/riscv-gcc/libgcc/soft-fp/muldf3.c:47
800079c0:	00000693          	li	a3,0
800079c4:	eedff06f          	j	800078b0 <__muldf3+0x44c>
/home/hqfang/workspace/software/riscv-gnu-toolchain/riscv-gcc/libgcc/soft-fp/muldf3.c:47 (discriminator 63)
800079c8:	fe100713          	li	a4,-31
800079cc:	40d70733          	sub	a4,a4,a3
800079d0:	02000813          	li	a6,32
800079d4:	00e45733          	srl	a4,s0,a4
800079d8:	00000693          	li	a3,0
800079dc:	01050663          	beq	a0,a6,800079e8 <__muldf3+0x584>
/home/hqfang/workspace/software/riscv-gnu-toolchain/riscv-gcc/libgcc/soft-fp/muldf3.c:47 (discriminator 71)
800079e0:	43e58593          	addi	a1,a1,1086
800079e4:	00b416b3          	sll	a3,s0,a1
/home/hqfang/workspace/software/riscv-gnu-toolchain/riscv-gcc/libgcc/soft-fp/muldf3.c:47 (discriminator 74)
800079e8:	00f6e7b3          	or	a5,a3,a5
800079ec:	00f037b3          	snez	a5,a5
800079f0:	00f767b3          	or	a5,a4,a5
800079f4:	00000413          	li	s0,0
800079f8:	f89ff06f          	j	80007980 <__muldf3+0x51c>
/home/hqfang/workspace/software/riscv-gnu-toolchain/riscv-gcc/libgcc/soft-fp/muldf3.c:47
800079fc:	00080437          	lui	s0,0x80
80007a00:	00000793          	li	a5,0
80007a04:	7ff00693          	li	a3,2047
80007a08:	00000613          	li	a2,0
80007a0c:	ea5ff06f          	j	800078b0 <__muldf3+0x44c>
80007a10:	00000413          	li	s0,0
80007a14:	00000793          	li	a5,0
80007a18:	7ff00693          	li	a3,2047
80007a1c:	e95ff06f          	j	800078b0 <__muldf3+0x44c>
80007a20:	00000413          	li	s0,0
80007a24:	00000793          	li	a5,0
80007a28:	00100693          	li	a3,1
80007a2c:	e85ff06f          	j	800078b0 <__muldf3+0x44c>

80007a30 <__subdf3>:
__subdf3():
/home/hqfang/workspace/software/riscv-gnu-toolchain/riscv-gcc/libgcc/soft-fp/subdf3.c:44
80007a30:	00100837          	lui	a6,0x100
80007a34:	fff80813          	addi	a6,a6,-1 # fffff <dhry_stubs.c.aa5f359a+0xfc424>
/home/hqfang/workspace/software/riscv-gnu-toolchain/riscv-gcc/libgcc/soft-fp/subdf3.c:36
80007a38:	fe010113          	addi	sp,sp,-32
/home/hqfang/workspace/software/riscv-gnu-toolchain/riscv-gcc/libgcc/soft-fp/subdf3.c:44
80007a3c:	00b877b3          	and	a5,a6,a1
80007a40:	0145d713          	srli	a4,a1,0x14
/home/hqfang/workspace/software/riscv-gnu-toolchain/riscv-gcc/libgcc/soft-fp/subdf3.c:45
80007a44:	00d87833          	and	a6,a6,a3
80007a48:	0146d313          	srli	t1,a3,0x14
/home/hqfang/workspace/software/riscv-gnu-toolchain/riscv-gcc/libgcc/soft-fp/subdf3.c:36
80007a4c:	00812c23          	sw	s0,24(sp)
/home/hqfang/workspace/software/riscv-gnu-toolchain/riscv-gcc/libgcc/soft-fp/subdf3.c:44
80007a50:	00379793          	slli	a5,a5,0x3
80007a54:	7ff77413          	andi	s0,a4,2047
80007a58:	01d55713          	srli	a4,a0,0x1d
/home/hqfang/workspace/software/riscv-gnu-toolchain/riscv-gcc/libgcc/soft-fp/subdf3.c:36
80007a5c:	00912a23          	sw	s1,20(sp)
/home/hqfang/workspace/software/riscv-gnu-toolchain/riscv-gcc/libgcc/soft-fp/subdf3.c:44
80007a60:	00f767b3          	or	a5,a4,a5
80007a64:	01f5d493          	srli	s1,a1,0x1f
/home/hqfang/workspace/software/riscv-gnu-toolchain/riscv-gcc/libgcc/soft-fp/subdf3.c:45
80007a68:	01d65713          	srli	a4,a2,0x1d
/home/hqfang/workspace/software/riscv-gnu-toolchain/riscv-gcc/libgcc/soft-fp/subdf3.c:44
80007a6c:	00351593          	slli	a1,a0,0x3
/home/hqfang/workspace/software/riscv-gnu-toolchain/riscv-gcc/libgcc/soft-fp/subdf3.c:45
80007a70:	00381813          	slli	a6,a6,0x3
/home/hqfang/workspace/software/riscv-gnu-toolchain/riscv-gcc/libgcc/soft-fp/subdf3.c:36
80007a74:	00112e23          	sw	ra,28(sp)
80007a78:	01212823          	sw	s2,16(sp)
80007a7c:	01312623          	sw	s3,12(sp)
/home/hqfang/workspace/software/riscv-gnu-toolchain/riscv-gcc/libgcc/soft-fp/subdf3.c:45
80007a80:	7ff37313          	andi	t1,t1,2047
/home/hqfang/workspace/software/riscv-gnu-toolchain/riscv-gcc/libgcc/soft-fp/subdf3.c:46
80007a84:	7ff00513          	li	a0,2047
/home/hqfang/workspace/software/riscv-gnu-toolchain/riscv-gcc/libgcc/soft-fp/subdf3.c:45
80007a88:	01f6d693          	srli	a3,a3,0x1f
80007a8c:	01076733          	or	a4,a4,a6
80007a90:	00361613          	slli	a2,a2,0x3
/home/hqfang/workspace/software/riscv-gnu-toolchain/riscv-gcc/libgcc/soft-fp/subdf3.c:46
80007a94:	00a31663          	bne	t1,a0,80007aa0 <__subdf3+0x70>
/home/hqfang/workspace/software/riscv-gnu-toolchain/riscv-gcc/libgcc/soft-fp/subdf3.c:46 (discriminator 2)
80007a98:	00c76533          	or	a0,a4,a2
80007a9c:	00051463          	bnez	a0,80007aa4 <__subdf3+0x74>
/home/hqfang/workspace/software/riscv-gnu-toolchain/riscv-gcc/libgcc/soft-fp/subdf3.c:46 (discriminator 3)
80007aa0:	0016c693          	xori	a3,a3,1
/home/hqfang/workspace/software/riscv-gnu-toolchain/riscv-gcc/libgcc/soft-fp/subdf3.c:46 (discriminator 11)
80007aa4:	40640833          	sub	a6,s0,t1
80007aa8:	2c969863          	bne	a3,s1,80007d78 <__subdf3+0x348>
/home/hqfang/workspace/software/riscv-gnu-toolchain/riscv-gcc/libgcc/soft-fp/subdf3.c:46 (discriminator 12)
80007aac:	13005063          	blez	a6,80007bcc <__subdf3+0x19c>
/home/hqfang/workspace/software/riscv-gnu-toolchain/riscv-gcc/libgcc/soft-fp/subdf3.c:46 (discriminator 14)
80007ab0:	04031063          	bnez	t1,80007af0 <__subdf3+0xc0>
/home/hqfang/workspace/software/riscv-gnu-toolchain/riscv-gcc/libgcc/soft-fp/subdf3.c:46 (discriminator 16)
80007ab4:	00c766b3          	or	a3,a4,a2
80007ab8:	70068c63          	beqz	a3,800081d0 <__subdf3+0x7a0>
/home/hqfang/workspace/software/riscv-gnu-toolchain/riscv-gcc/libgcc/soft-fp/subdf3.c:46 (discriminator 19)
80007abc:	fff80513          	addi	a0,a6,-1
80007ac0:	02051063          	bnez	a0,80007ae0 <__subdf3+0xb0>
/home/hqfang/workspace/software/riscv-gnu-toolchain/riscv-gcc/libgcc/soft-fp/subdf3.c:46 (discriminator 28)
80007ac4:	00c58633          	add	a2,a1,a2
80007ac8:	00b63533          	sltu	a0,a2,a1
80007acc:	00e787b3          	add	a5,a5,a4
80007ad0:	00a787b3          	add	a5,a5,a0
80007ad4:	00060593          	mv	a1,a2
/home/hqfang/workspace/software/riscv-gnu-toolchain/riscv-gcc/libgcc/soft-fp/subdf3.c:45 (discriminator 85)
80007ad8:	00100413          	li	s0,1
/home/hqfang/workspace/software/riscv-gnu-toolchain/riscv-gcc/libgcc/soft-fp/subdf3.c:46 (discriminator 85)
80007adc:	0700006f          	j	80007b4c <__subdf3+0x11c>
/home/hqfang/workspace/software/riscv-gnu-toolchain/riscv-gcc/libgcc/soft-fp/subdf3.c:46 (discriminator 29)
80007ae0:	7ff00693          	li	a3,2047
80007ae4:	02d81063          	bne	a6,a3,80007b04 <__subdf3+0xd4>
/home/hqfang/workspace/software/riscv-gnu-toolchain/riscv-gcc/libgcc/soft-fp/subdf3.c:46
80007ae8:	7ff00413          	li	s0,2047
80007aec:	2140006f          	j	80007d00 <__subdf3+0x2d0>
/home/hqfang/workspace/software/riscv-gnu-toolchain/riscv-gcc/libgcc/soft-fp/subdf3.c:46 (discriminator 17)
80007af0:	7ff00693          	li	a3,2047
80007af4:	20d40663          	beq	s0,a3,80007d00 <__subdf3+0x2d0>
/home/hqfang/workspace/software/riscv-gnu-toolchain/riscv-gcc/libgcc/soft-fp/subdf3.c:46 (discriminator 43)
80007af8:	008006b7          	lui	a3,0x800
80007afc:	00d76733          	or	a4,a4,a3
80007b00:	00080513          	mv	a0,a6
/home/hqfang/workspace/software/riscv-gnu-toolchain/riscv-gcc/libgcc/soft-fp/subdf3.c:46 (discriminator 52)
80007b04:	03800693          	li	a3,56
80007b08:	0aa6cc63          	blt	a3,a0,80007bc0 <__subdf3+0x190>
/home/hqfang/workspace/software/riscv-gnu-toolchain/riscv-gcc/libgcc/soft-fp/subdf3.c:46 (discriminator 53)
80007b0c:	01f00693          	li	a3,31
80007b10:	06a6ce63          	blt	a3,a0,80007b8c <__subdf3+0x15c>
/home/hqfang/workspace/software/riscv-gnu-toolchain/riscv-gcc/libgcc/soft-fp/subdf3.c:46 (discriminator 55)
80007b14:	02000813          	li	a6,32
80007b18:	40a80833          	sub	a6,a6,a0
80007b1c:	010716b3          	sll	a3,a4,a6
80007b20:	00a658b3          	srl	a7,a2,a0
80007b24:	01061633          	sll	a2,a2,a6
80007b28:	0116e6b3          	or	a3,a3,a7
80007b2c:	00c03633          	snez	a2,a2
80007b30:	00c6e633          	or	a2,a3,a2
80007b34:	00a75733          	srl	a4,a4,a0
/home/hqfang/workspace/software/riscv-gnu-toolchain/riscv-gcc/libgcc/soft-fp/subdf3.c:46 (discriminator 69)
80007b38:	00b60633          	add	a2,a2,a1
80007b3c:	00b63533          	sltu	a0,a2,a1
80007b40:	00f70733          	add	a4,a4,a5
80007b44:	00a707b3          	add	a5,a4,a0
80007b48:	00060593          	mv	a1,a2
/home/hqfang/workspace/software/riscv-gnu-toolchain/riscv-gcc/libgcc/soft-fp/subdf3.c:46 (discriminator 127)
80007b4c:	00800737          	lui	a4,0x800
80007b50:	00e7f733          	and	a4,a5,a4
80007b54:	1a070663          	beqz	a4,80007d00 <__subdf3+0x2d0>
/home/hqfang/workspace/software/riscv-gnu-toolchain/riscv-gcc/libgcc/soft-fp/subdf3.c:46 (discriminator 187)
80007b58:	00140413          	addi	s0,s0,1 # 80001 <dhry_stubs.c.aa5f359a+0x7c426>
80007b5c:	7ff00713          	li	a4,2047
80007b60:	5ce40a63          	beq	s0,a4,80008134 <__subdf3+0x704>
/home/hqfang/workspace/software/riscv-gnu-toolchain/riscv-gcc/libgcc/soft-fp/subdf3.c:46
80007b64:	ff800737          	lui	a4,0xff800
80007b68:	fff70713          	addi	a4,a4,-1 # ff7fffff <_sp+0x6f7effff>
80007b6c:	00e7f7b3          	and	a5,a5,a4
80007b70:	0015f513          	andi	a0,a1,1
80007b74:	0015d713          	srli	a4,a1,0x1
80007b78:	00a76533          	or	a0,a4,a0
80007b7c:	01f79593          	slli	a1,a5,0x1f
80007b80:	00a5e5b3          	or	a1,a1,a0
80007b84:	0017d793          	srli	a5,a5,0x1
80007b88:	1780006f          	j	80007d00 <__subdf3+0x2d0>
/home/hqfang/workspace/software/riscv-gnu-toolchain/riscv-gcc/libgcc/soft-fp/subdf3.c:46 (discriminator 56)
80007b8c:	fe050693          	addi	a3,a0,-32
80007b90:	02000893          	li	a7,32
80007b94:	00d756b3          	srl	a3,a4,a3
80007b98:	00000813          	li	a6,0
80007b9c:	01150863          	beq	a0,a7,80007bac <__subdf3+0x17c>
/home/hqfang/workspace/software/riscv-gnu-toolchain/riscv-gcc/libgcc/soft-fp/subdf3.c:46 (discriminator 63)
80007ba0:	04000813          	li	a6,64
80007ba4:	40a80533          	sub	a0,a6,a0
80007ba8:	00a71833          	sll	a6,a4,a0
/home/hqfang/workspace/software/riscv-gnu-toolchain/riscv-gcc/libgcc/soft-fp/subdf3.c:46 (discriminator 66)
80007bac:	00c86633          	or	a2,a6,a2
80007bb0:	00c03633          	snez	a2,a2
80007bb4:	00c6e633          	or	a2,a3,a2
/home/hqfang/workspace/software/riscv-gnu-toolchain/riscv-gcc/libgcc/soft-fp/subdf3.c:46 (discriminator 54)
80007bb8:	00000713          	li	a4,0
80007bbc:	f7dff06f          	j	80007b38 <__subdf3+0x108>
80007bc0:	00c76633          	or	a2,a4,a2
80007bc4:	00c03633          	snez	a2,a2
80007bc8:	ff1ff06f          	j	80007bb8 <__subdf3+0x188>
/home/hqfang/workspace/software/riscv-gnu-toolchain/riscv-gcc/libgcc/soft-fp/subdf3.c:46 (discriminator 15)
80007bcc:	0e080263          	beqz	a6,80007cb0 <__subdf3+0x280>
/home/hqfang/workspace/software/riscv-gnu-toolchain/riscv-gcc/libgcc/soft-fp/subdf3.c:46 (discriminator 71)
80007bd0:	40830533          	sub	a0,t1,s0
80007bd4:	02041e63          	bnez	s0,80007c10 <__subdf3+0x1e0>
/home/hqfang/workspace/software/riscv-gnu-toolchain/riscv-gcc/libgcc/soft-fp/subdf3.c:46 (discriminator 73)
80007bd8:	00b7e6b3          	or	a3,a5,a1
80007bdc:	52068c63          	beqz	a3,80008114 <__subdf3+0x6e4>
/home/hqfang/workspace/software/riscv-gnu-toolchain/riscv-gcc/libgcc/soft-fp/subdf3.c:46 (discriminator 76)
80007be0:	fff50693          	addi	a3,a0,-1
80007be4:	00069c63          	bnez	a3,80007bfc <__subdf3+0x1cc>
/home/hqfang/workspace/software/riscv-gnu-toolchain/riscv-gcc/libgcc/soft-fp/subdf3.c:46 (discriminator 85)
80007be8:	00c585b3          	add	a1,a1,a2
80007bec:	00e787b3          	add	a5,a5,a4
80007bf0:	00c5b633          	sltu	a2,a1,a2
80007bf4:	00c787b3          	add	a5,a5,a2
80007bf8:	ee1ff06f          	j	80007ad8 <__subdf3+0xa8>
/home/hqfang/workspace/software/riscv-gnu-toolchain/riscv-gcc/libgcc/soft-fp/subdf3.c:46 (discriminator 86)
80007bfc:	7ff00813          	li	a6,2047
80007c00:	03051263          	bne	a0,a6,80007c24 <__subdf3+0x1f4>
/home/hqfang/workspace/software/riscv-gnu-toolchain/riscv-gcc/libgcc/soft-fp/subdf3.c:45
80007c04:	00070793          	mv	a5,a4
80007c08:	00060593          	mv	a1,a2
80007c0c:	eddff06f          	j	80007ae8 <__subdf3+0xb8>
/home/hqfang/workspace/software/riscv-gnu-toolchain/riscv-gcc/libgcc/soft-fp/subdf3.c:46 (discriminator 74)
80007c10:	7ff00693          	li	a3,2047
80007c14:	fed308e3          	beq	t1,a3,80007c04 <__subdf3+0x1d4>
/home/hqfang/workspace/software/riscv-gnu-toolchain/riscv-gcc/libgcc/soft-fp/subdf3.c:46 (discriminator 100)
80007c18:	008006b7          	lui	a3,0x800
80007c1c:	00d7e7b3          	or	a5,a5,a3
80007c20:	00050693          	mv	a3,a0
/home/hqfang/workspace/software/riscv-gnu-toolchain/riscv-gcc/libgcc/soft-fp/subdf3.c:46 (discriminator 109)
80007c24:	03800513          	li	a0,56
80007c28:	06d54e63          	blt	a0,a3,80007ca4 <__subdf3+0x274>
/home/hqfang/workspace/software/riscv-gnu-toolchain/riscv-gcc/libgcc/soft-fp/subdf3.c:46 (discriminator 110)
80007c2c:	01f00513          	li	a0,31
80007c30:	04d54063          	blt	a0,a3,80007c70 <__subdf3+0x240>
/home/hqfang/workspace/software/riscv-gnu-toolchain/riscv-gcc/libgcc/soft-fp/subdf3.c:46 (discriminator 112)
80007c34:	02000813          	li	a6,32
80007c38:	40d80833          	sub	a6,a6,a3
80007c3c:	01079533          	sll	a0,a5,a6
80007c40:	00d5d8b3          	srl	a7,a1,a3
80007c44:	010595b3          	sll	a1,a1,a6
80007c48:	01156533          	or	a0,a0,a7
80007c4c:	00b035b3          	snez	a1,a1
80007c50:	00b56533          	or	a0,a0,a1
80007c54:	00d7d7b3          	srl	a5,a5,a3
/home/hqfang/workspace/software/riscv-gnu-toolchain/riscv-gcc/libgcc/soft-fp/subdf3.c:46 (discriminator 126)
80007c58:	00c505b3          	add	a1,a0,a2
80007c5c:	00e787b3          	add	a5,a5,a4
80007c60:	00c5b633          	sltu	a2,a1,a2
80007c64:	00c787b3          	add	a5,a5,a2
/home/hqfang/workspace/software/riscv-gnu-toolchain/riscv-gcc/libgcc/soft-fp/subdf3.c:45 (discriminator 126)
80007c68:	00030413          	mv	s0,t1
80007c6c:	ee1ff06f          	j	80007b4c <__subdf3+0x11c>
/home/hqfang/workspace/software/riscv-gnu-toolchain/riscv-gcc/libgcc/soft-fp/subdf3.c:46 (discriminator 113)
80007c70:	fe068513          	addi	a0,a3,-32 # 7fffe0 <dhry_stubs.c.aa5f359a+0x7fc405>
80007c74:	02000893          	li	a7,32
80007c78:	00a7d833          	srl	a6,a5,a0
80007c7c:	00000513          	li	a0,0
80007c80:	01168863          	beq	a3,a7,80007c90 <__subdf3+0x260>
/home/hqfang/workspace/software/riscv-gnu-toolchain/riscv-gcc/libgcc/soft-fp/subdf3.c:46 (discriminator 120)
80007c84:	04000513          	li	a0,64
80007c88:	40d50533          	sub	a0,a0,a3
80007c8c:	00a79533          	sll	a0,a5,a0
/home/hqfang/workspace/software/riscv-gnu-toolchain/riscv-gcc/libgcc/soft-fp/subdf3.c:46 (discriminator 123)
80007c90:	00b56533          	or	a0,a0,a1
80007c94:	00a03533          	snez	a0,a0
80007c98:	00a86533          	or	a0,a6,a0
/home/hqfang/workspace/software/riscv-gnu-toolchain/riscv-gcc/libgcc/soft-fp/subdf3.c:46 (discriminator 111)
80007c9c:	00000793          	li	a5,0
80007ca0:	fb9ff06f          	j	80007c58 <__subdf3+0x228>
80007ca4:	00b7e533          	or	a0,a5,a1
80007ca8:	00a03533          	snez	a0,a0
80007cac:	ff1ff06f          	j	80007c9c <__subdf3+0x26c>
/home/hqfang/workspace/software/riscv-gnu-toolchain/riscv-gcc/libgcc/soft-fp/subdf3.c:46 (discriminator 72)
80007cb0:	00140693          	addi	a3,s0,1
80007cb4:	7fe6f513          	andi	a0,a3,2046
80007cb8:	08051863          	bnez	a0,80007d48 <__subdf3+0x318>
/home/hqfang/workspace/software/riscv-gnu-toolchain/riscv-gcc/libgcc/soft-fp/subdf3.c:46 (discriminator 128)
80007cbc:	00b7e6b3          	or	a3,a5,a1
80007cc0:	06041463          	bnez	s0,80007d28 <__subdf3+0x2f8>
/home/hqfang/workspace/software/riscv-gnu-toolchain/riscv-gcc/libgcc/soft-fp/subdf3.c:46 (discriminator 130)
80007cc4:	46068063          	beqz	a3,80008124 <__subdf3+0x6f4>
/home/hqfang/workspace/software/riscv-gnu-toolchain/riscv-gcc/libgcc/soft-fp/subdf3.c:46 (discriminator 133)
80007cc8:	00c766b3          	or	a3,a4,a2
80007ccc:	02068a63          	beqz	a3,80007d00 <__subdf3+0x2d0>
/home/hqfang/workspace/software/riscv-gnu-toolchain/riscv-gcc/libgcc/soft-fp/subdf3.c:46 (discriminator 139)
80007cd0:	00c58633          	add	a2,a1,a2
80007cd4:	00e787b3          	add	a5,a5,a4
80007cd8:	00b63533          	sltu	a0,a2,a1
80007cdc:	00a787b3          	add	a5,a5,a0
80007ce0:	00800737          	lui	a4,0x800
80007ce4:	00e7f733          	and	a4,a5,a4
80007ce8:	00060593          	mv	a1,a2
80007cec:	00070a63          	beqz	a4,80007d00 <__subdf3+0x2d0>
/home/hqfang/workspace/software/riscv-gnu-toolchain/riscv-gcc/libgcc/soft-fp/subdf3.c:46 (discriminator 141)
80007cf0:	ff800737          	lui	a4,0xff800
80007cf4:	fff70713          	addi	a4,a4,-1 # ff7fffff <_sp+0x6f7effff>
80007cf8:	00e7f7b3          	and	a5,a5,a4
80007cfc:	00100413          	li	s0,1
/home/hqfang/workspace/software/riscv-gnu-toolchain/riscv-gcc/libgcc/soft-fp/subdf3.c:47 (discriminator 426)
80007d00:	0075f713          	andi	a4,a1,7
80007d04:	42070c63          	beqz	a4,8000813c <__subdf3+0x70c>
/home/hqfang/workspace/software/riscv-gnu-toolchain/riscv-gcc/libgcc/soft-fp/subdf3.c:47 (discriminator 37)
80007d08:	00f5f713          	andi	a4,a1,15
80007d0c:	00400693          	li	a3,4
80007d10:	42d70663          	beq	a4,a3,8000813c <__subdf3+0x70c>
/home/hqfang/workspace/software/riscv-gnu-toolchain/riscv-gcc/libgcc/soft-fp/subdf3.c:47 (discriminator 44)
80007d14:	00458713          	addi	a4,a1,4
80007d18:	00b73533          	sltu	a0,a4,a1
80007d1c:	00a787b3          	add	a5,a5,a0
80007d20:	00070593          	mv	a1,a4
80007d24:	4180006f          	j	8000813c <__subdf3+0x70c>
/home/hqfang/workspace/software/riscv-gnu-toolchain/riscv-gcc/libgcc/soft-fp/subdf3.c:46 (discriminator 158)
80007d28:	ec068ee3          	beqz	a3,80007c04 <__subdf3+0x1d4>
/home/hqfang/workspace/software/riscv-gnu-toolchain/riscv-gcc/libgcc/soft-fp/subdf3.c:46 (discriminator 160)
80007d2c:	00c76633          	or	a2,a4,a2
80007d30:	da060ce3          	beqz	a2,80007ae8 <__subdf3+0xb8>
/home/hqfang/workspace/software/riscv-gnu-toolchain/riscv-gcc/libgcc/soft-fp/subdf3.c:46
80007d34:	00000493          	li	s1,0
80007d38:	004007b7          	lui	a5,0x400
80007d3c:	00000593          	li	a1,0
80007d40:	7ff00413          	li	s0,2047
80007d44:	3f80006f          	j	8000813c <__subdf3+0x70c>
/home/hqfang/workspace/software/riscv-gnu-toolchain/riscv-gcc/libgcc/soft-fp/subdf3.c:46 (discriminator 129)
80007d48:	7ff00513          	li	a0,2047
80007d4c:	3ea68263          	beq	a3,a0,80008130 <__subdf3+0x700>
/home/hqfang/workspace/software/riscv-gnu-toolchain/riscv-gcc/libgcc/soft-fp/subdf3.c:46
80007d50:	00c58633          	add	a2,a1,a2
80007d54:	00b63533          	sltu	a0,a2,a1
80007d58:	00e787b3          	add	a5,a5,a4
80007d5c:	00a787b3          	add	a5,a5,a0
80007d60:	01f79513          	slli	a0,a5,0x1f
80007d64:	00165613          	srli	a2,a2,0x1
80007d68:	00c565b3          	or	a1,a0,a2
80007d6c:	0017d793          	srli	a5,a5,0x1
80007d70:	00068413          	mv	s0,a3
80007d74:	f8dff06f          	j	80007d00 <__subdf3+0x2d0>
/home/hqfang/workspace/software/riscv-gnu-toolchain/riscv-gcc/libgcc/soft-fp/subdf3.c:46 (discriminator 13)
80007d78:	0f005c63          	blez	a6,80007e70 <__subdf3+0x440>
/home/hqfang/workspace/software/riscv-gnu-toolchain/riscv-gcc/libgcc/soft-fp/subdf3.c:46 (discriminator 205)
80007d7c:	08031e63          	bnez	t1,80007e18 <__subdf3+0x3e8>
/home/hqfang/workspace/software/riscv-gnu-toolchain/riscv-gcc/libgcc/soft-fp/subdf3.c:46 (discriminator 207)
80007d80:	00c766b3          	or	a3,a4,a2
80007d84:	44068663          	beqz	a3,800081d0 <__subdf3+0x7a0>
/home/hqfang/workspace/software/riscv-gnu-toolchain/riscv-gcc/libgcc/soft-fp/subdf3.c:46 (discriminator 210)
80007d88:	fff80513          	addi	a0,a6,-1
80007d8c:	02051063          	bnez	a0,80007dac <__subdf3+0x37c>
/home/hqfang/workspace/software/riscv-gnu-toolchain/riscv-gcc/libgcc/soft-fp/subdf3.c:46 (discriminator 219)
80007d90:	40c58633          	sub	a2,a1,a2
80007d94:	00c5b533          	sltu	a0,a1,a2
80007d98:	40e787b3          	sub	a5,a5,a4
80007d9c:	40a787b3          	sub	a5,a5,a0
80007da0:	00060593          	mv	a1,a2
/home/hqfang/workspace/software/riscv-gnu-toolchain/riscv-gcc/libgcc/soft-fp/subdf3.c:45 (discriminator 276)
80007da4:	00100413          	li	s0,1
/home/hqfang/workspace/software/riscv-gnu-toolchain/riscv-gcc/libgcc/soft-fp/subdf3.c:46 (discriminator 276)
80007da8:	0540006f          	j	80007dfc <__subdf3+0x3cc>
/home/hqfang/workspace/software/riscv-gnu-toolchain/riscv-gcc/libgcc/soft-fp/subdf3.c:46 (discriminator 220)
80007dac:	7ff00693          	li	a3,2047
80007db0:	d2d80ce3          	beq	a6,a3,80007ae8 <__subdf3+0xb8>
/home/hqfang/workspace/software/riscv-gnu-toolchain/riscv-gcc/libgcc/soft-fp/subdf3.c:46 (discriminator 243)
80007db4:	03800693          	li	a3,56
80007db8:	0aa6c663          	blt	a3,a0,80007e64 <__subdf3+0x434>
/home/hqfang/workspace/software/riscv-gnu-toolchain/riscv-gcc/libgcc/soft-fp/subdf3.c:46 (discriminator 244)
80007dbc:	01f00693          	li	a3,31
80007dc0:	06a6c863          	blt	a3,a0,80007e30 <__subdf3+0x400>
/home/hqfang/workspace/software/riscv-gnu-toolchain/riscv-gcc/libgcc/soft-fp/subdf3.c:46 (discriminator 246)
80007dc4:	02000813          	li	a6,32
80007dc8:	40a80833          	sub	a6,a6,a0
80007dcc:	010716b3          	sll	a3,a4,a6
80007dd0:	00a658b3          	srl	a7,a2,a0
80007dd4:	01061633          	sll	a2,a2,a6
80007dd8:	0116e6b3          	or	a3,a3,a7
80007ddc:	00c03633          	snez	a2,a2
80007de0:	00c6e633          	or	a2,a3,a2
80007de4:	00a75733          	srl	a4,a4,a0
/home/hqfang/workspace/software/riscv-gnu-toolchain/riscv-gcc/libgcc/soft-fp/subdf3.c:46 (discriminator 260)
80007de8:	40c58633          	sub	a2,a1,a2
80007dec:	00c5b533          	sltu	a0,a1,a2
80007df0:	40e78733          	sub	a4,a5,a4
80007df4:	40a707b3          	sub	a5,a4,a0
80007df8:	00060593          	mv	a1,a2
/home/hqfang/workspace/software/riscv-gnu-toolchain/riscv-gcc/libgcc/soft-fp/subdf3.c:46 (discriminator 318)
80007dfc:	00800937          	lui	s2,0x800
80007e00:	0127f733          	and	a4,a5,s2
80007e04:	ee070ee3          	beqz	a4,80007d00 <__subdf3+0x2d0>
/home/hqfang/workspace/software/riscv-gnu-toolchain/riscv-gcc/libgcc/soft-fp/subdf3.c:46 (discriminator 378)
80007e08:	fff90913          	addi	s2,s2,-1 # 7fffff <dhry_stubs.c.aa5f359a+0x7fc424>
80007e0c:	0127f933          	and	s2,a5,s2
80007e10:	00058993          	mv	s3,a1
80007e14:	2140006f          	j	80008028 <__subdf3+0x5f8>
/home/hqfang/workspace/software/riscv-gnu-toolchain/riscv-gcc/libgcc/soft-fp/subdf3.c:46 (discriminator 208)
80007e18:	7ff00693          	li	a3,2047
80007e1c:	eed402e3          	beq	s0,a3,80007d00 <__subdf3+0x2d0>
/home/hqfang/workspace/software/riscv-gnu-toolchain/riscv-gcc/libgcc/soft-fp/subdf3.c:46 (discriminator 234)
80007e20:	008006b7          	lui	a3,0x800
80007e24:	00d76733          	or	a4,a4,a3
80007e28:	00080513          	mv	a0,a6
80007e2c:	f89ff06f          	j	80007db4 <__subdf3+0x384>
/home/hqfang/workspace/software/riscv-gnu-toolchain/riscv-gcc/libgcc/soft-fp/subdf3.c:46 (discriminator 247)
80007e30:	fe050693          	addi	a3,a0,-32
80007e34:	02000893          	li	a7,32
80007e38:	00d756b3          	srl	a3,a4,a3
80007e3c:	00000813          	li	a6,0
80007e40:	01150863          	beq	a0,a7,80007e50 <__subdf3+0x420>
/home/hqfang/workspace/software/riscv-gnu-toolchain/riscv-gcc/libgcc/soft-fp/subdf3.c:46 (discriminator 254)
80007e44:	04000813          	li	a6,64
80007e48:	40a80533          	sub	a0,a6,a0
80007e4c:	00a71833          	sll	a6,a4,a0
/home/hqfang/workspace/software/riscv-gnu-toolchain/riscv-gcc/libgcc/soft-fp/subdf3.c:46 (discriminator 257)
80007e50:	00c86633          	or	a2,a6,a2
80007e54:	00c03633          	snez	a2,a2
80007e58:	00c6e633          	or	a2,a3,a2
/home/hqfang/workspace/software/riscv-gnu-toolchain/riscv-gcc/libgcc/soft-fp/subdf3.c:46 (discriminator 245)
80007e5c:	00000713          	li	a4,0
80007e60:	f89ff06f          	j	80007de8 <__subdf3+0x3b8>
80007e64:	00c76633          	or	a2,a4,a2
80007e68:	00c03633          	snez	a2,a2
80007e6c:	ff1ff06f          	j	80007e5c <__subdf3+0x42c>
/home/hqfang/workspace/software/riscv-gnu-toolchain/riscv-gcc/libgcc/soft-fp/subdf3.c:46 (discriminator 206)
80007e70:	0e080863          	beqz	a6,80007f60 <__subdf3+0x530>
/home/hqfang/workspace/software/riscv-gnu-toolchain/riscv-gcc/libgcc/soft-fp/subdf3.c:46 (discriminator 262)
80007e74:	40830533          	sub	a0,t1,s0
80007e78:	04041263          	bnez	s0,80007ebc <__subdf3+0x48c>
/home/hqfang/workspace/software/riscv-gnu-toolchain/riscv-gcc/libgcc/soft-fp/subdf3.c:46 (discriminator 264)
80007e7c:	00b7e833          	or	a6,a5,a1
80007e80:	34080c63          	beqz	a6,800081d8 <__subdf3+0x7a8>
/home/hqfang/workspace/software/riscv-gnu-toolchain/riscv-gcc/libgcc/soft-fp/subdf3.c:46 (discriminator 267)
80007e84:	fff50813          	addi	a6,a0,-1
80007e88:	00081e63          	bnez	a6,80007ea4 <__subdf3+0x474>
/home/hqfang/workspace/software/riscv-gnu-toolchain/riscv-gcc/libgcc/soft-fp/subdf3.c:46 (discriminator 276)
80007e8c:	40b605b3          	sub	a1,a2,a1
80007e90:	40f707b3          	sub	a5,a4,a5
80007e94:	00b63633          	sltu	a2,a2,a1
80007e98:	40c787b3          	sub	a5,a5,a2
80007e9c:	00068493          	mv	s1,a3
80007ea0:	f05ff06f          	j	80007da4 <__subdf3+0x374>
/home/hqfang/workspace/software/riscv-gnu-toolchain/riscv-gcc/libgcc/soft-fp/subdf3.c:46 (discriminator 277)
80007ea4:	7ff00893          	li	a7,2047
80007ea8:	03151463          	bne	a0,a7,80007ed0 <__subdf3+0x4a0>
/home/hqfang/workspace/software/riscv-gnu-toolchain/riscv-gcc/libgcc/soft-fp/subdf3.c:45
80007eac:	00070793          	mv	a5,a4
80007eb0:	00060593          	mv	a1,a2
/home/hqfang/workspace/software/riscv-gnu-toolchain/riscv-gcc/libgcc/soft-fp/subdf3.c:46
80007eb4:	7ff00413          	li	s0,2047
80007eb8:	0d00006f          	j	80007f88 <__subdf3+0x558>
/home/hqfang/workspace/software/riscv-gnu-toolchain/riscv-gcc/libgcc/soft-fp/subdf3.c:46 (discriminator 265)
80007ebc:	7ff00813          	li	a6,2047
80007ec0:	ff0306e3          	beq	t1,a6,80007eac <__subdf3+0x47c>
/home/hqfang/workspace/software/riscv-gnu-toolchain/riscv-gcc/libgcc/soft-fp/subdf3.c:46 (discriminator 291)
80007ec4:	00800837          	lui	a6,0x800
80007ec8:	0107e7b3          	or	a5,a5,a6
80007ecc:	00050813          	mv	a6,a0
/home/hqfang/workspace/software/riscv-gnu-toolchain/riscv-gcc/libgcc/soft-fp/subdf3.c:46 (discriminator 300)
80007ed0:	03800513          	li	a0,56
80007ed4:	09054063          	blt	a0,a6,80007f54 <__subdf3+0x524>
/home/hqfang/workspace/software/riscv-gnu-toolchain/riscv-gcc/libgcc/soft-fp/subdf3.c:46 (discriminator 301)
80007ed8:	01f00513          	li	a0,31
80007edc:	05054263          	blt	a0,a6,80007f20 <__subdf3+0x4f0>
/home/hqfang/workspace/software/riscv-gnu-toolchain/riscv-gcc/libgcc/soft-fp/subdf3.c:46 (discriminator 303)
80007ee0:	02000893          	li	a7,32
80007ee4:	410888b3          	sub	a7,a7,a6
80007ee8:	01179533          	sll	a0,a5,a7
80007eec:	0105de33          	srl	t3,a1,a6
80007ef0:	011595b3          	sll	a1,a1,a7
80007ef4:	01c56533          	or	a0,a0,t3
80007ef8:	00b035b3          	snez	a1,a1
80007efc:	00b56533          	or	a0,a0,a1
80007f00:	0107d7b3          	srl	a5,a5,a6
/home/hqfang/workspace/software/riscv-gnu-toolchain/riscv-gcc/libgcc/soft-fp/subdf3.c:46 (discriminator 317)
80007f04:	40a605b3          	sub	a1,a2,a0
80007f08:	40f707b3          	sub	a5,a4,a5
80007f0c:	00b63633          	sltu	a2,a2,a1
80007f10:	40c787b3          	sub	a5,a5,a2
/home/hqfang/workspace/software/riscv-gnu-toolchain/riscv-gcc/libgcc/soft-fp/subdf3.c:45 (discriminator 317)
80007f14:	00030413          	mv	s0,t1
80007f18:	00068493          	mv	s1,a3
80007f1c:	ee1ff06f          	j	80007dfc <__subdf3+0x3cc>
/home/hqfang/workspace/software/riscv-gnu-toolchain/riscv-gcc/libgcc/soft-fp/subdf3.c:46 (discriminator 304)
80007f20:	fe080513          	addi	a0,a6,-32 # 7fffe0 <dhry_stubs.c.aa5f359a+0x7fc405>
80007f24:	02000e13          	li	t3,32
80007f28:	00a7d8b3          	srl	a7,a5,a0
80007f2c:	00000513          	li	a0,0
80007f30:	01c80863          	beq	a6,t3,80007f40 <__subdf3+0x510>
/home/hqfang/workspace/software/riscv-gnu-toolchain/riscv-gcc/libgcc/soft-fp/subdf3.c:46 (discriminator 311)
80007f34:	04000513          	li	a0,64
80007f38:	41050533          	sub	a0,a0,a6
80007f3c:	00a79533          	sll	a0,a5,a0
/home/hqfang/workspace/software/riscv-gnu-toolchain/riscv-gcc/libgcc/soft-fp/subdf3.c:46 (discriminator 314)
80007f40:	00b56533          	or	a0,a0,a1
80007f44:	00a03533          	snez	a0,a0
80007f48:	00a8e533          	or	a0,a7,a0
/home/hqfang/workspace/software/riscv-gnu-toolchain/riscv-gcc/libgcc/soft-fp/subdf3.c:46 (discriminator 302)
80007f4c:	00000793          	li	a5,0
80007f50:	fb5ff06f          	j	80007f04 <__subdf3+0x4d4>
80007f54:	00b7e533          	or	a0,a5,a1
80007f58:	00a03533          	snez	a0,a0
80007f5c:	ff1ff06f          	j	80007f4c <__subdf3+0x51c>
/home/hqfang/workspace/software/riscv-gnu-toolchain/riscv-gcc/libgcc/soft-fp/subdf3.c:46 (discriminator 263)
80007f60:	00140513          	addi	a0,s0,1
80007f64:	7fe57513          	andi	a0,a0,2046
80007f68:	08051863          	bnez	a0,80007ff8 <__subdf3+0x5c8>
/home/hqfang/workspace/software/riscv-gnu-toolchain/riscv-gcc/libgcc/soft-fp/subdf3.c:46 (discriminator 319)
80007f6c:	00b7e833          	or	a6,a5,a1
80007f70:	00c76533          	or	a0,a4,a2
80007f74:	06041263          	bnez	s0,80007fd8 <__subdf3+0x5a8>
/home/hqfang/workspace/software/riscv-gnu-toolchain/riscv-gcc/libgcc/soft-fp/subdf3.c:46 (discriminator 321)
80007f78:	00081c63          	bnez	a6,80007f90 <__subdf3+0x560>
/home/hqfang/workspace/software/riscv-gnu-toolchain/riscv-gcc/libgcc/soft-fp/subdf3.c:46 (discriminator 323)
80007f7c:	26050663          	beqz	a0,800081e8 <__subdf3+0x7b8>
/home/hqfang/workspace/software/riscv-gnu-toolchain/riscv-gcc/libgcc/soft-fp/subdf3.c:45
80007f80:	00070793          	mv	a5,a4
80007f84:	00060593          	mv	a1,a2
80007f88:	00068493          	mv	s1,a3
80007f8c:	d75ff06f          	j	80007d00 <__subdf3+0x2d0>
/home/hqfang/workspace/software/riscv-gnu-toolchain/riscv-gcc/libgcc/soft-fp/subdf3.c:46 (discriminator 324)
80007f90:	d60508e3          	beqz	a0,80007d00 <__subdf3+0x2d0>
/home/hqfang/workspace/software/riscv-gnu-toolchain/riscv-gcc/libgcc/soft-fp/subdf3.c:46 (discriminator 331)
80007f94:	40c58833          	sub	a6,a1,a2
80007f98:	0105b8b3          	sltu	a7,a1,a6
80007f9c:	40e78533          	sub	a0,a5,a4
80007fa0:	41150533          	sub	a0,a0,a7
80007fa4:	008008b7          	lui	a7,0x800
80007fa8:	011578b3          	and	a7,a0,a7
80007fac:	00088c63          	beqz	a7,80007fc4 <__subdf3+0x594>
/home/hqfang/workspace/software/riscv-gnu-toolchain/riscv-gcc/libgcc/soft-fp/subdf3.c:46 (discriminator 333)
80007fb0:	40b605b3          	sub	a1,a2,a1
80007fb4:	40f707b3          	sub	a5,a4,a5
80007fb8:	00b63633          	sltu	a2,a2,a1
80007fbc:	40c787b3          	sub	a5,a5,a2
80007fc0:	fc9ff06f          	j	80007f88 <__subdf3+0x558>
/home/hqfang/workspace/software/riscv-gnu-toolchain/riscv-gcc/libgcc/soft-fp/subdf3.c:46 (discriminator 334)
80007fc4:	00a865b3          	or	a1,a6,a0
80007fc8:	22058863          	beqz	a1,800081f8 <__subdf3+0x7c8>
/home/hqfang/workspace/software/riscv-gnu-toolchain/riscv-gcc/libgcc/soft-fp/subdf3.c:46
80007fcc:	00050793          	mv	a5,a0
80007fd0:	00080593          	mv	a1,a6
80007fd4:	d2dff06f          	j	80007d00 <__subdf3+0x2d0>
/home/hqfang/workspace/software/riscv-gnu-toolchain/riscv-gcc/libgcc/soft-fp/subdf3.c:46 (discriminator 353)
80007fd8:	00081c63          	bnez	a6,80007ff0 <__subdf3+0x5c0>
/home/hqfang/workspace/software/riscv-gnu-toolchain/riscv-gcc/libgcc/soft-fp/subdf3.c:46 (discriminator 354)
80007fdc:	22050263          	beqz	a0,80008200 <__subdf3+0x7d0>
/home/hqfang/workspace/software/riscv-gnu-toolchain/riscv-gcc/libgcc/soft-fp/subdf3.c:45
80007fe0:	00070793          	mv	a5,a4
80007fe4:	00060593          	mv	a1,a2
/home/hqfang/workspace/software/riscv-gnu-toolchain/riscv-gcc/libgcc/soft-fp/subdf3.c:46
80007fe8:	00068493          	mv	s1,a3
80007fec:	afdff06f          	j	80007ae8 <__subdf3+0xb8>
/home/hqfang/workspace/software/riscv-gnu-toolchain/riscv-gcc/libgcc/soft-fp/subdf3.c:46 (discriminator 355)
80007ff0:	ae050ce3          	beqz	a0,80007ae8 <__subdf3+0xb8>
80007ff4:	d41ff06f          	j	80007d34 <__subdf3+0x304>
/home/hqfang/workspace/software/riscv-gnu-toolchain/riscv-gcc/libgcc/soft-fp/subdf3.c:46 (discriminator 320)
80007ff8:	40c589b3          	sub	s3,a1,a2
80007ffc:	0135b533          	sltu	a0,a1,s3
80008000:	40e78933          	sub	s2,a5,a4
80008004:	40a90933          	sub	s2,s2,a0
80008008:	00800537          	lui	a0,0x800
8000800c:	00a97533          	and	a0,s2,a0
80008010:	08050463          	beqz	a0,80008098 <__subdf3+0x668>
/home/hqfang/workspace/software/riscv-gnu-toolchain/riscv-gcc/libgcc/soft-fp/subdf3.c:46 (discriminator 371)
80008014:	40b609b3          	sub	s3,a2,a1
80008018:	40f707b3          	sub	a5,a4,a5
8000801c:	01363633          	sltu	a2,a2,s3
80008020:	40c78933          	sub	s2,a5,a2
80008024:	00068493          	mv	s1,a3
/home/hqfang/workspace/software/riscv-gnu-toolchain/riscv-gcc/libgcc/soft-fp/subdf3.c:46 (discriminator 380)
80008028:	08090263          	beqz	s2,800080ac <__subdf3+0x67c>
/home/hqfang/workspace/software/riscv-gnu-toolchain/riscv-gcc/libgcc/soft-fp/subdf3.c:46 (discriminator 383)
8000802c:	00090513          	mv	a0,s2
80008030:	740000ef          	jal	ra,80008770 <__clzsi2>
/home/hqfang/workspace/software/riscv-gnu-toolchain/riscv-gcc/libgcc/soft-fp/subdf3.c:46 (discriminator 397)
80008034:	ff850713          	addi	a4,a0,-8 # 7ffff8 <dhry_stubs.c.aa5f359a+0x7fc41d>
80008038:	01f00793          	li	a5,31
8000803c:	08e7c063          	blt	a5,a4,800080bc <__subdf3+0x68c>
/home/hqfang/workspace/software/riscv-gnu-toolchain/riscv-gcc/libgcc/soft-fp/subdf3.c:46 (discriminator 403)
80008040:	02000793          	li	a5,32
80008044:	40e787b3          	sub	a5,a5,a4
80008048:	00e91933          	sll	s2,s2,a4
8000804c:	00f9d7b3          	srl	a5,s3,a5
80008050:	0127e7b3          	or	a5,a5,s2
80008054:	00e995b3          	sll	a1,s3,a4
/home/hqfang/workspace/software/riscv-gnu-toolchain/riscv-gcc/libgcc/soft-fp/subdf3.c:46 (discriminator 407)
80008058:	0a874463          	blt	a4,s0,80008100 <__subdf3+0x6d0>
/home/hqfang/workspace/software/riscv-gnu-toolchain/riscv-gcc/libgcc/soft-fp/subdf3.c:46 (discriminator 408)
8000805c:	40870733          	sub	a4,a4,s0
80008060:	00170693          	addi	a3,a4,1
80008064:	01f00613          	li	a2,31
80008068:	06d64263          	blt	a2,a3,800080cc <__subdf3+0x69c>
/home/hqfang/workspace/software/riscv-gnu-toolchain/riscv-gcc/libgcc/soft-fp/subdf3.c:46 (discriminator 410)
8000806c:	02000713          	li	a4,32
80008070:	40d70733          	sub	a4,a4,a3
80008074:	00e79633          	sll	a2,a5,a4
80008078:	00d5d533          	srl	a0,a1,a3
8000807c:	00e595b3          	sll	a1,a1,a4
80008080:	00a66633          	or	a2,a2,a0
80008084:	00b035b3          	snez	a1,a1
80008088:	00b665b3          	or	a1,a2,a1
8000808c:	00d7d7b3          	srl	a5,a5,a3
/home/hqfang/workspace/software/riscv-gnu-toolchain/riscv-gcc/libgcc/soft-fp/subdf3.c:46 (discriminator 422)
80008090:	00000413          	li	s0,0
80008094:	c6dff06f          	j	80007d00 <__subdf3+0x2d0>
/home/hqfang/workspace/software/riscv-gnu-toolchain/riscv-gcc/libgcc/soft-fp/subdf3.c:46 (discriminator 372)
80008098:	0129e5b3          	or	a1,s3,s2
8000809c:	f80596e3          	bnez	a1,80008028 <__subdf3+0x5f8>
800080a0:	00000793          	li	a5,0
/home/hqfang/workspace/software/riscv-gnu-toolchain/riscv-gcc/libgcc/soft-fp/subdf3.c:46
800080a4:	00000413          	li	s0,0
800080a8:	1480006f          	j	800081f0 <__subdf3+0x7c0>
/home/hqfang/workspace/software/riscv-gnu-toolchain/riscv-gcc/libgcc/soft-fp/subdf3.c:46 (discriminator 390)
800080ac:	00098513          	mv	a0,s3
800080b0:	6c0000ef          	jal	ra,80008770 <__clzsi2>
800080b4:	02050513          	addi	a0,a0,32
800080b8:	f7dff06f          	j	80008034 <__subdf3+0x604>
/home/hqfang/workspace/software/riscv-gnu-toolchain/riscv-gcc/libgcc/soft-fp/subdf3.c:46 (discriminator 399)
800080bc:	fd850793          	addi	a5,a0,-40
800080c0:	00f997b3          	sll	a5,s3,a5
800080c4:	00000593          	li	a1,0
800080c8:	f91ff06f          	j	80008058 <__subdf3+0x628>
/home/hqfang/workspace/software/riscv-gnu-toolchain/riscv-gcc/libgcc/soft-fp/subdf3.c:46 (discriminator 411)
800080cc:	fe170713          	addi	a4,a4,-31
800080d0:	02000613          	li	a2,32
800080d4:	00e7d733          	srl	a4,a5,a4
800080d8:	00000513          	li	a0,0
800080dc:	00c68863          	beq	a3,a2,800080ec <__subdf3+0x6bc>
/home/hqfang/workspace/software/riscv-gnu-toolchain/riscv-gcc/libgcc/soft-fp/subdf3.c:46 (discriminator 419)
800080e0:	04000513          	li	a0,64
800080e4:	40d50533          	sub	a0,a0,a3
800080e8:	00a79533          	sll	a0,a5,a0
/home/hqfang/workspace/software/riscv-gnu-toolchain/riscv-gcc/libgcc/soft-fp/subdf3.c:46 (discriminator 422)
800080ec:	00a5e533          	or	a0,a1,a0
800080f0:	00a03533          	snez	a0,a0
800080f4:	00a765b3          	or	a1,a4,a0
800080f8:	00000793          	li	a5,0
800080fc:	f95ff06f          	j	80008090 <__subdf3+0x660>
/home/hqfang/workspace/software/riscv-gnu-toolchain/riscv-gcc/libgcc/soft-fp/subdf3.c:46 (discriminator 409)
80008100:	40e40433          	sub	s0,s0,a4
80008104:	ff800737          	lui	a4,0xff800
80008108:	fff70713          	addi	a4,a4,-1 # ff7fffff <_sp+0x6f7effff>
8000810c:	00e7f7b3          	and	a5,a5,a4
80008110:	bf1ff06f          	j	80007d00 <__subdf3+0x2d0>
/home/hqfang/workspace/software/riscv-gnu-toolchain/riscv-gcc/libgcc/soft-fp/subdf3.c:45
80008114:	00070793          	mv	a5,a4
80008118:	00060593          	mv	a1,a2
/home/hqfang/workspace/software/riscv-gnu-toolchain/riscv-gcc/libgcc/soft-fp/subdf3.c:46
8000811c:	00050413          	mv	s0,a0
80008120:	be1ff06f          	j	80007d00 <__subdf3+0x2d0>
/home/hqfang/workspace/software/riscv-gnu-toolchain/riscv-gcc/libgcc/soft-fp/subdf3.c:45
80008124:	00070793          	mv	a5,a4
80008128:	00060593          	mv	a1,a2
8000812c:	bd5ff06f          	j	80007d00 <__subdf3+0x2d0>
80008130:	7ff00413          	li	s0,2047
80008134:	00000793          	li	a5,0
80008138:	00000593          	li	a1,0
/home/hqfang/workspace/software/riscv-gnu-toolchain/riscv-gcc/libgcc/soft-fp/subdf3.c:47 (discriminator 47)
8000813c:	00800737          	lui	a4,0x800
80008140:	00e7f733          	and	a4,a5,a4
80008144:	00070e63          	beqz	a4,80008160 <__subdf3+0x730>
/home/hqfang/workspace/software/riscv-gnu-toolchain/riscv-gcc/libgcc/soft-fp/subdf3.c:47 (discriminator 63)
80008148:	00140413          	addi	s0,s0,1
8000814c:	7ff00713          	li	a4,2047
80008150:	0ce40063          	beq	s0,a4,80008210 <__subdf3+0x7e0>
/home/hqfang/workspace/software/riscv-gnu-toolchain/riscv-gcc/libgcc/soft-fp/subdf3.c:47
80008154:	ff800737          	lui	a4,0xff800
80008158:	fff70713          	addi	a4,a4,-1 # ff7fffff <_sp+0x6f7effff>
8000815c:	00e7f7b3          	and	a5,a5,a4
/home/hqfang/workspace/software/riscv-gnu-toolchain/riscv-gcc/libgcc/soft-fp/subdf3.c:47 (discriminator 79)
80008160:	01d79713          	slli	a4,a5,0x1d
80008164:	0035d513          	srli	a0,a1,0x3
80008168:	00a76533          	or	a0,a4,a0
8000816c:	7ff00713          	li	a4,2047
80008170:	0037d793          	srli	a5,a5,0x3
80008174:	00e41e63          	bne	s0,a4,80008190 <__subdf3+0x760>
/home/hqfang/workspace/software/riscv-gnu-toolchain/riscv-gcc/libgcc/soft-fp/subdf3.c:47 (discriminator 80)
80008178:	00f56533          	or	a0,a0,a5
8000817c:	00000793          	li	a5,0
80008180:	00050863          	beqz	a0,80008190 <__subdf3+0x760>
/home/hqfang/workspace/software/riscv-gnu-toolchain/riscv-gcc/libgcc/soft-fp/subdf3.c:47
80008184:	000807b7          	lui	a5,0x80
80008188:	00000513          	li	a0,0
8000818c:	00000493          	li	s1,0
/home/hqfang/workspace/software/riscv-gnu-toolchain/riscv-gcc/libgcc/soft-fp/subdf3.c:47 (discriminator 90)
80008190:	01441713          	slli	a4,s0,0x14
80008194:	7ff006b7          	lui	a3,0x7ff00
80008198:	00c79793          	slli	a5,a5,0xc
/home/hqfang/workspace/software/riscv-gnu-toolchain/riscv-gcc/libgcc/soft-fp/subdf3.c:51 (discriminator 90)
8000819c:	01c12083          	lw	ra,28(sp)
800081a0:	01812403          	lw	s0,24(sp)
/home/hqfang/workspace/software/riscv-gnu-toolchain/riscv-gcc/libgcc/soft-fp/subdf3.c:47 (discriminator 90)
800081a4:	00d77733          	and	a4,a4,a3
800081a8:	00c7d793          	srli	a5,a5,0xc
800081ac:	01f49493          	slli	s1,s1,0x1f
800081b0:	00f767b3          	or	a5,a4,a5
800081b4:	0097e733          	or	a4,a5,s1
/home/hqfang/workspace/software/riscv-gnu-toolchain/riscv-gcc/libgcc/soft-fp/subdf3.c:51 (discriminator 90)
800081b8:	01012903          	lw	s2,16(sp)
800081bc:	01412483          	lw	s1,20(sp)
800081c0:	00c12983          	lw	s3,12(sp)
800081c4:	00070593          	mv	a1,a4
800081c8:	02010113          	addi	sp,sp,32
800081cc:	00008067          	ret
800081d0:	00080413          	mv	s0,a6
800081d4:	b2dff06f          	j	80007d00 <__subdf3+0x2d0>
/home/hqfang/workspace/software/riscv-gnu-toolchain/riscv-gcc/libgcc/soft-fp/subdf3.c:45
800081d8:	00070793          	mv	a5,a4
800081dc:	00060593          	mv	a1,a2
/home/hqfang/workspace/software/riscv-gnu-toolchain/riscv-gcc/libgcc/soft-fp/subdf3.c:46
800081e0:	00050413          	mv	s0,a0
800081e4:	da5ff06f          	j	80007f88 <__subdf3+0x558>
800081e8:	00000793          	li	a5,0
800081ec:	00000593          	li	a1,0
800081f0:	00000493          	li	s1,0
800081f4:	f49ff06f          	j	8000813c <__subdf3+0x70c>
800081f8:	00000793          	li	a5,0
800081fc:	ff5ff06f          	j	800081f0 <__subdf3+0x7c0>
80008200:	00000593          	li	a1,0
80008204:	00000493          	li	s1,0
80008208:	004007b7          	lui	a5,0x400
8000820c:	b35ff06f          	j	80007d40 <__subdf3+0x310>
80008210:	00000793          	li	a5,0
80008214:	00000593          	li	a1,0
80008218:	f49ff06f          	j	80008160 <__subdf3+0x730>

8000821c <__unorddf2>:
__unorddf2():
/home/hqfang/workspace/software/riscv-gnu-toolchain/riscv-gcc/libgcc/soft-fp/unorddf2.c:42
8000821c:	00100737          	lui	a4,0x100
80008220:	fff70793          	addi	a5,a4,-1 # fffff <dhry_stubs.c.aa5f359a+0xfc424>
80008224:	00b7f733          	and	a4,a5,a1
80008228:	0145d593          	srli	a1,a1,0x14
/home/hqfang/workspace/software/riscv-gnu-toolchain/riscv-gcc/libgcc/soft-fp/unorddf2.c:43
8000822c:	00d7f7b3          	and	a5,a5,a3
/home/hqfang/workspace/software/riscv-gnu-toolchain/riscv-gcc/libgcc/soft-fp/unorddf2.c:42
80008230:	7ff5f593          	andi	a1,a1,2047
/home/hqfang/workspace/software/riscv-gnu-toolchain/riscv-gcc/libgcc/soft-fp/unorddf2.c:43
80008234:	0146d693          	srli	a3,a3,0x14
/home/hqfang/workspace/software/riscv-gnu-toolchain/riscv-gcc/libgcc/soft-fp/unorddf2.c:44
80008238:	7ff00813          	li	a6,2047
/home/hqfang/workspace/software/riscv-gnu-toolchain/riscv-gcc/libgcc/soft-fp/unorddf2.c:43
8000823c:	7ff6f693          	andi	a3,a3,2047
/home/hqfang/workspace/software/riscv-gnu-toolchain/riscv-gcc/libgcc/soft-fp/unorddf2.c:44
80008240:	01059863          	bne	a1,a6,80008250 <__unorddf2+0x34>
/home/hqfang/workspace/software/riscv-gnu-toolchain/riscv-gcc/libgcc/soft-fp/unorddf2.c:44 (discriminator 20)
80008244:	00a76733          	or	a4,a4,a0
80008248:	00100513          	li	a0,1
8000824c:	00071c63          	bnez	a4,80008264 <__unorddf2+0x48>
/home/hqfang/workspace/software/riscv-gnu-toolchain/riscv-gcc/libgcc/soft-fp/unorddf2.c:44 (discriminator 23)
80008250:	7ff00713          	li	a4,2047
80008254:	00000513          	li	a0,0
80008258:	00e69663          	bne	a3,a4,80008264 <__unorddf2+0x48>
/home/hqfang/workspace/software/riscv-gnu-toolchain/riscv-gcc/libgcc/soft-fp/unorddf2.c:44 (discriminator 24)
8000825c:	00c7e7b3          	or	a5,a5,a2
80008260:	00f03533          	snez	a0,a5
/home/hqfang/workspace/software/riscv-gnu-toolchain/riscv-gcc/libgcc/soft-fp/unorddf2.c:48
80008264:	00008067          	ret

80008268 <__fixdfsi>:
__fixdfsi():
/home/hqfang/workspace/software/riscv-gnu-toolchain/riscv-gcc/libgcc/soft-fp/fixdfsi.c:42
80008268:	0145d713          	srli	a4,a1,0x14
8000826c:	001006b7          	lui	a3,0x100
80008270:	fff68793          	addi	a5,a3,-1 # fffff <dhry_stubs.c.aa5f359a+0xfc424>
80008274:	7ff77713          	andi	a4,a4,2047
/home/hqfang/workspace/software/riscv-gnu-toolchain/riscv-gcc/libgcc/soft-fp/fixdfsi.c:43
80008278:	3fe00613          	li	a2,1022
/home/hqfang/workspace/software/riscv-gnu-toolchain/riscv-gcc/libgcc/soft-fp/fixdfsi.c:42
8000827c:	00b7f7b3          	and	a5,a5,a1
80008280:	01f5d593          	srli	a1,a1,0x1f
/home/hqfang/workspace/software/riscv-gnu-toolchain/riscv-gcc/libgcc/soft-fp/fixdfsi.c:43
80008284:	04e65e63          	bge	a2,a4,800082e0 <__fixdfsi+0x78>
/home/hqfang/workspace/software/riscv-gnu-toolchain/riscv-gcc/libgcc/soft-fp/fixdfsi.c:43 (discriminator 10)
80008288:	41d00613          	li	a2,1053
8000828c:	00e65a63          	bge	a2,a4,800082a0 <__fixdfsi+0x38>
/home/hqfang/workspace/software/riscv-gnu-toolchain/riscv-gcc/libgcc/soft-fp/fixdfsi.c:43 (discriminator 14)
80008290:	80000537          	lui	a0,0x80000
80008294:	fff54513          	not	a0,a0
80008298:	00a58533          	add	a0,a1,a0
8000829c:	00008067          	ret
/home/hqfang/workspace/software/riscv-gnu-toolchain/riscv-gcc/libgcc/soft-fp/fixdfsi.c:43 (discriminator 13)
800082a0:	00d7e7b3          	or	a5,a5,a3
800082a4:	43300693          	li	a3,1075
800082a8:	40e686b3          	sub	a3,a3,a4
800082ac:	01f00613          	li	a2,31
800082b0:	02d64063          	blt	a2,a3,800082d0 <__fixdfsi+0x68>
/home/hqfang/workspace/software/riscv-gnu-toolchain/riscv-gcc/libgcc/soft-fp/fixdfsi.c:43 (discriminator 30)
800082b4:	bed70713          	addi	a4,a4,-1043
800082b8:	00e797b3          	sll	a5,a5,a4
800082bc:	00d55533          	srl	a0,a0,a3
800082c0:	00a7e533          	or	a0,a5,a0
/home/hqfang/workspace/software/riscv-gnu-toolchain/riscv-gcc/libgcc/soft-fp/fixdfsi.c:43 (discriminator 43)
800082c4:	02058063          	beqz	a1,800082e4 <__fixdfsi+0x7c>
/home/hqfang/workspace/software/riscv-gnu-toolchain/riscv-gcc/libgcc/soft-fp/fixdfsi.c:43 (discriminator 45)
800082c8:	40a00533          	neg	a0,a0
800082cc:	00008067          	ret
/home/hqfang/workspace/software/riscv-gnu-toolchain/riscv-gcc/libgcc/soft-fp/fixdfsi.c:43 (discriminator 42)
800082d0:	41300513          	li	a0,1043
800082d4:	40e50533          	sub	a0,a0,a4
800082d8:	00a7d533          	srl	a0,a5,a0
800082dc:	fe9ff06f          	j	800082c4 <__fixdfsi+0x5c>
/home/hqfang/workspace/software/riscv-gnu-toolchain/riscv-gcc/libgcc/soft-fp/fixdfsi.c:43
800082e0:	00000513          	li	a0,0
/home/hqfang/workspace/software/riscv-gnu-toolchain/riscv-gcc/libgcc/soft-fp/fixdfsi.c:47 (discriminator 59)
800082e4:	00008067          	ret

800082e8 <__floatsidf>:
__floatsidf():
/home/hqfang/workspace/software/riscv-gnu-toolchain/riscv-gcc/libgcc/soft-fp/floatsidf.c:37
800082e8:	ff010113          	addi	sp,sp,-16
800082ec:	00112623          	sw	ra,12(sp)
800082f0:	00812423          	sw	s0,8(sp)
800082f4:	00912223          	sw	s1,4(sp)
/home/hqfang/workspace/software/riscv-gnu-toolchain/riscv-gcc/libgcc/soft-fp/floatsidf.c:41
800082f8:	08050663          	beqz	a0,80008384 <__floatsidf+0x9c>
/home/hqfang/workspace/software/riscv-gnu-toolchain/riscv-gcc/libgcc/soft-fp/floatsidf.c:41 (discriminator 1)
800082fc:	41f55793          	srai	a5,a0,0x1f
80008300:	00a7c433          	xor	s0,a5,a0
80008304:	40f40433          	sub	s0,s0,a5
80008308:	01f55493          	srli	s1,a0,0x1f
8000830c:	00040513          	mv	a0,s0
80008310:	460000ef          	jal	ra,80008770 <__clzsi2>
80008314:	41e00713          	li	a4,1054
80008318:	00a00793          	li	a5,10
8000831c:	40a70733          	sub	a4,a4,a0
80008320:	04a7c863          	blt	a5,a0,80008370 <__floatsidf+0x88>
/home/hqfang/workspace/software/riscv-gnu-toolchain/riscv-gcc/libgcc/soft-fp/floatsidf.c:41 (discriminator 23)
80008324:	00b00793          	li	a5,11
80008328:	40a787b3          	sub	a5,a5,a0
8000832c:	01550513          	addi	a0,a0,21 # 80000015 <_sp+0xefff0015>
80008330:	00f457b3          	srl	a5,s0,a5
80008334:	00a41433          	sll	s0,s0,a0
80008338:	00048513          	mv	a0,s1
/home/hqfang/workspace/software/riscv-gnu-toolchain/riscv-gcc/libgcc/soft-fp/floatsidf.c:42 (discriminator 126)
8000833c:	00c79793          	slli	a5,a5,0xc
80008340:	01471713          	slli	a4,a4,0x14
80008344:	00c7d793          	srli	a5,a5,0xc
80008348:	01f51513          	slli	a0,a0,0x1f
8000834c:	00f767b3          	or	a5,a4,a5
/home/hqfang/workspace/software/riscv-gnu-toolchain/riscv-gcc/libgcc/soft-fp/floatsidf.c:45 (discriminator 126)
80008350:	00c12083          	lw	ra,12(sp)
/home/hqfang/workspace/software/riscv-gnu-toolchain/riscv-gcc/libgcc/soft-fp/floatsidf.c:42 (discriminator 126)
80008354:	00a7e733          	or	a4,a5,a0
/home/hqfang/workspace/software/riscv-gnu-toolchain/riscv-gcc/libgcc/soft-fp/floatsidf.c:45 (discriminator 126)
80008358:	00040513          	mv	a0,s0
8000835c:	00812403          	lw	s0,8(sp)
80008360:	00412483          	lw	s1,4(sp)
80008364:	00070593          	mv	a1,a4
80008368:	01010113          	addi	sp,sp,16
8000836c:	00008067          	ret
/home/hqfang/workspace/software/riscv-gnu-toolchain/riscv-gcc/libgcc/soft-fp/floatsidf.c:41 (discriminator 24)
80008370:	ff550513          	addi	a0,a0,-11
80008374:	00a417b3          	sll	a5,s0,a0
80008378:	00048513          	mv	a0,s1
/home/hqfang/workspace/software/riscv-gnu-toolchain/riscv-gcc/libgcc/soft-fp/floatsidf.c:41
8000837c:	00000413          	li	s0,0
80008380:	fbdff06f          	j	8000833c <__floatsidf+0x54>
80008384:	00000713          	li	a4,0
80008388:	00000793          	li	a5,0
8000838c:	ff1ff06f          	j	8000837c <__floatsidf+0x94>

80008390 <__floatunsidf>:
__floatunsidf():
/home/hqfang/workspace/software/riscv-gnu-toolchain/riscv-gcc/libgcc/soft-fp/floatunsidf.c:37
80008390:	ff010113          	addi	sp,sp,-16
80008394:	00812423          	sw	s0,8(sp)
80008398:	00112623          	sw	ra,12(sp)
8000839c:	00050413          	mv	s0,a0
/home/hqfang/workspace/software/riscv-gnu-toolchain/riscv-gcc/libgcc/soft-fp/floatunsidf.c:41
800083a0:	06050263          	beqz	a0,80008404 <__floatunsidf+0x74>
/home/hqfang/workspace/software/riscv-gnu-toolchain/riscv-gcc/libgcc/soft-fp/floatunsidf.c:41 (discriminator 6)
800083a4:	3cc000ef          	jal	ra,80008770 <__clzsi2>
800083a8:	41e00713          	li	a4,1054
800083ac:	00a00793          	li	a5,10
800083b0:	40a70733          	sub	a4,a4,a0
800083b4:	04a7c063          	blt	a5,a0,800083f4 <__floatunsidf+0x64>
/home/hqfang/workspace/software/riscv-gnu-toolchain/riscv-gcc/libgcc/soft-fp/floatunsidf.c:41 (discriminator 23)
800083b8:	00b00793          	li	a5,11
800083bc:	40a787b3          	sub	a5,a5,a0
800083c0:	01550513          	addi	a0,a0,21
800083c4:	00f457b3          	srl	a5,s0,a5
800083c8:	00a41433          	sll	s0,s0,a0
/home/hqfang/workspace/software/riscv-gnu-toolchain/riscv-gcc/libgcc/soft-fp/floatunsidf.c:45 (discriminator 126)
800083cc:	00c12083          	lw	ra,12(sp)
800083d0:	00040513          	mv	a0,s0
/home/hqfang/workspace/software/riscv-gnu-toolchain/riscv-gcc/libgcc/soft-fp/floatunsidf.c:42 (discriminator 126)
800083d4:	00c79793          	slli	a5,a5,0xc
/home/hqfang/workspace/software/riscv-gnu-toolchain/riscv-gcc/libgcc/soft-fp/floatunsidf.c:45 (discriminator 126)
800083d8:	00812403          	lw	s0,8(sp)
/home/hqfang/workspace/software/riscv-gnu-toolchain/riscv-gcc/libgcc/soft-fp/floatunsidf.c:42 (discriminator 126)
800083dc:	01471713          	slli	a4,a4,0x14
800083e0:	00c7d793          	srli	a5,a5,0xc
800083e4:	00f766b3          	or	a3,a4,a5
/home/hqfang/workspace/software/riscv-gnu-toolchain/riscv-gcc/libgcc/soft-fp/floatunsidf.c:45 (discriminator 126)
800083e8:	00068593          	mv	a1,a3
800083ec:	01010113          	addi	sp,sp,16
800083f0:	00008067          	ret
/home/hqfang/workspace/software/riscv-gnu-toolchain/riscv-gcc/libgcc/soft-fp/floatunsidf.c:41 (discriminator 24)
800083f4:	ff550793          	addi	a5,a0,-11
800083f8:	00f417b3          	sll	a5,s0,a5
800083fc:	00000413          	li	s0,0
80008400:	fcdff06f          	j	800083cc <__floatunsidf+0x3c>
/home/hqfang/workspace/software/riscv-gnu-toolchain/riscv-gcc/libgcc/soft-fp/floatunsidf.c:41
80008404:	00000793          	li	a5,0
80008408:	00000713          	li	a4,0
8000840c:	fc1ff06f          	j	800083cc <__floatunsidf+0x3c>

80008410 <__trunctfdf2>:
__trunctfdf2():
/home/hqfang/workspace/software/riscv-gnu-toolchain/riscv-gcc/libgcc/soft-fp/trunctfdf2.c:37
80008410:	fd010113          	addi	sp,sp,-48
80008414:	00852783          	lw	a5,8(a0)
80008418:	02812423          	sw	s0,40(sp)
8000841c:	00c52403          	lw	s0,12(a0)
80008420:	00452703          	lw	a4,4(a0)
80008424:	00052683          	lw	a3,0(a0)
/home/hqfang/workspace/software/riscv-gnu-toolchain/riscv-gcc/libgcc/soft-fp/trunctfdf2.c:44
80008428:	00f12423          	sw	a5,8(sp)
8000842c:	00f12c23          	sw	a5,24(sp)
80008430:	01041793          	slli	a5,s0,0x10
80008434:	00e12223          	sw	a4,4(sp)
80008438:	00e12a23          	sw	a4,20(sp)
8000843c:	0107d793          	srli	a5,a5,0x10
80008440:	00141713          	slli	a4,s0,0x1
80008444:	00812623          	sw	s0,12(sp)
/home/hqfang/workspace/software/riscv-gnu-toolchain/riscv-gcc/libgcc/soft-fp/trunctfdf2.c:37
80008448:	02112623          	sw	ra,44(sp)
8000844c:	02912223          	sw	s1,36(sp)
/home/hqfang/workspace/software/riscv-gnu-toolchain/riscv-gcc/libgcc/soft-fp/trunctfdf2.c:44
80008450:	00d12023          	sw	a3,0(sp)
80008454:	00d12823          	sw	a3,16(sp)
80008458:	00f12e23          	sw	a5,28(sp)
8000845c:	01175713          	srli	a4,a4,0x11
80008460:	01f45413          	srli	s0,s0,0x1f
80008464:	01010513          	addi	a0,sp,16
80008468:	01c10613          	addi	a2,sp,28
/home/hqfang/workspace/software/riscv-gnu-toolchain/riscv-gcc/libgcc/soft-fp/trunctfdf2.c:44 (discriminator 8)
8000846c:	00062783          	lw	a5,0(a2) # 7ff00000 <dhry_stubs.c.aa5f359a+0x7fefc425>
80008470:	ffc62683          	lw	a3,-4(a2)
80008474:	ffc60613          	addi	a2,a2,-4
80008478:	00379793          	slli	a5,a5,0x3
8000847c:	01d6d693          	srli	a3,a3,0x1d
80008480:	00d7e7b3          	or	a5,a5,a3
80008484:	00f62223          	sw	a5,4(a2)
80008488:	fec512e3          	bne	a0,a2,8000846c <__trunctfdf2+0x5c>
/home/hqfang/workspace/software/riscv-gnu-toolchain/riscv-gcc/libgcc/soft-fp/trunctfdf2.c:44 (discriminator 9)
8000848c:	01012683          	lw	a3,16(sp)
/home/hqfang/workspace/software/riscv-gnu-toolchain/riscv-gcc/libgcc/soft-fp/trunctfdf2.c:46 (discriminator 9)
80008490:	00170793          	addi	a5,a4,1
/home/hqfang/workspace/software/riscv-gnu-toolchain/riscv-gcc/libgcc/soft-fp/trunctfdf2.c:44 (discriminator 9)
80008494:	00369593          	slli	a1,a3,0x3
/home/hqfang/workspace/software/riscv-gnu-toolchain/riscv-gcc/libgcc/soft-fp/trunctfdf2.c:46 (discriminator 9)
80008498:	000086b7          	lui	a3,0x8
8000849c:	ffe68693          	addi	a3,a3,-2 # 7ffe <dhry_stubs.c.aa5f359a+0x4423>
/home/hqfang/workspace/software/riscv-gnu-toolchain/riscv-gcc/libgcc/soft-fp/trunctfdf2.c:44 (discriminator 9)
800084a0:	00b12823          	sw	a1,16(sp)
/home/hqfang/workspace/software/riscv-gnu-toolchain/riscv-gcc/libgcc/soft-fp/trunctfdf2.c:46 (discriminator 9)
800084a4:	00d7f7b3          	and	a5,a5,a3
800084a8:	1c078063          	beqz	a5,80008668 <__trunctfdf2+0x258>
/home/hqfang/workspace/software/riscv-gnu-toolchain/riscv-gcc/libgcc/soft-fp/trunctfdf2.c:46 (discriminator 1)
800084ac:	ffffc7b7          	lui	a5,0xffffc
800084b0:	40078793          	addi	a5,a5,1024 # ffffc400 <_sp+0x6ffec400>
800084b4:	00f70733          	add	a4,a4,a5
800084b8:	7fe00793          	li	a5,2046
800084bc:	20e7c263          	blt	a5,a4,800086c0 <__trunctfdf2+0x2b0>
/home/hqfang/workspace/software/riscv-gnu-toolchain/riscv-gcc/libgcc/soft-fp/trunctfdf2.c:46 (discriminator 4)
800084c0:	06e05863          	blez	a4,80008530 <__trunctfdf2+0x120>
/home/hqfang/workspace/software/riscv-gnu-toolchain/riscv-gcc/libgcc/soft-fp/trunctfdf2.c:46
800084c4:	01812503          	lw	a0,24(sp)
800084c8:	01c12603          	lw	a2,28(sp)
800084cc:	01412783          	lw	a5,20(sp)
800084d0:	01c55693          	srli	a3,a0,0x1c
800084d4:	00461613          	slli	a2,a2,0x4
800084d8:	00d66633          	or	a2,a2,a3
800084dc:	00479693          	slli	a3,a5,0x4
800084e0:	00b6e6b3          	or	a3,a3,a1
800084e4:	01c7d793          	srli	a5,a5,0x1c
800084e8:	00451513          	slli	a0,a0,0x4
800084ec:	00d036b3          	snez	a3,a3
800084f0:	00a7e7b3          	or	a5,a5,a0
800084f4:	00f6e6b3          	or	a3,a3,a5
800084f8:	00c12a23          	sw	a2,20(sp)
800084fc:	00d12823          	sw	a3,16(sp)
/home/hqfang/workspace/software/riscv-gnu-toolchain/riscv-gcc/libgcc/soft-fp/trunctfdf2.c:46 (discriminator 59)
80008500:	01012683          	lw	a3,16(sp)
80008504:	01412783          	lw	a5,20(sp)
/home/hqfang/workspace/software/riscv-gnu-toolchain/riscv-gcc/libgcc/soft-fp/trunctfdf2.c:50 (discriminator 117)
80008508:	0076f613          	andi	a2,a3,7
8000850c:	1c060063          	beqz	a2,800086cc <__trunctfdf2+0x2bc>
/home/hqfang/workspace/software/riscv-gnu-toolchain/riscv-gcc/libgcc/soft-fp/trunctfdf2.c:50 (discriminator 37)
80008510:	00f6f613          	andi	a2,a3,15
80008514:	00400593          	li	a1,4
80008518:	1ab60a63          	beq	a2,a1,800086cc <__trunctfdf2+0x2bc>
/home/hqfang/workspace/software/riscv-gnu-toolchain/riscv-gcc/libgcc/soft-fp/trunctfdf2.c:50 (discriminator 44)
8000851c:	00468613          	addi	a2,a3,4
80008520:	00d636b3          	sltu	a3,a2,a3
80008524:	00d787b3          	add	a5,a5,a3
80008528:	00060693          	mv	a3,a2
8000852c:	1a00006f          	j	800086cc <__trunctfdf2+0x2bc>
/home/hqfang/workspace/software/riscv-gnu-toolchain/riscv-gcc/libgcc/soft-fp/trunctfdf2.c:46 (discriminator 18)
80008530:	fcc00793          	li	a5,-52
80008534:	00f75c63          	bge	a4,a5,8000854c <__trunctfdf2+0x13c>
/home/hqfang/workspace/software/riscv-gnu-toolchain/riscv-gcc/libgcc/soft-fp/trunctfdf2.c:46 (discriminator 20)
80008538:	00012a23          	sw	zero,20(sp)
8000853c:	00100793          	li	a5,1
/home/hqfang/workspace/software/riscv-gnu-toolchain/riscv-gcc/libgcc/soft-fp/trunctfdf2.c:46 (discriminator 37)
80008540:	00f12823          	sw	a5,16(sp)
80008544:	00000713          	li	a4,0
80008548:	fb9ff06f          	j	80008500 <__trunctfdf2+0xf0>
/home/hqfang/workspace/software/riscv-gnu-toolchain/riscv-gcc/libgcc/soft-fp/trunctfdf2.c:46 (discriminator 21)
8000854c:	01c12783          	lw	a5,28(sp)
80008550:	000808b7          	lui	a7,0x80
/home/hqfang/workspace/software/riscv-gnu-toolchain/riscv-gcc/libgcc/soft-fp/trunctfdf2.c:44 (discriminator 21)
80008554:	00050593          	mv	a1,a0
/home/hqfang/workspace/software/riscv-gnu-toolchain/riscv-gcc/libgcc/soft-fp/trunctfdf2.c:46 (discriminator 21)
80008558:	00f8e8b3          	or	a7,a7,a5
8000855c:	03d00793          	li	a5,61
80008560:	40e78733          	sub	a4,a5,a4
80008564:	01112e23          	sw	a7,28(sp)
80008568:	40575793          	srai	a5,a4,0x5
8000856c:	00000693          	li	a3,0
80008570:	00000493          	li	s1,0
/home/hqfang/workspace/software/riscv-gnu-toolchain/riscv-gcc/libgcc/soft-fp/trunctfdf2.c:46 (discriminator 25)
80008574:	0005a803          	lw	a6,0(a1)
80008578:	00168693          	addi	a3,a3,1
8000857c:	00458593          	addi	a1,a1,4
80008580:	0104e4b3          	or	s1,s1,a6
80008584:	fed798e3          	bne	a5,a3,80008574 <__trunctfdf2+0x164>
/home/hqfang/workspace/software/riscv-gnu-toolchain/riscv-gcc/libgcc/soft-fp/trunctfdf2.c:46 (discriminator 26)
80008588:	01f77713          	andi	a4,a4,31
8000858c:	00279693          	slli	a3,a5,0x2
80008590:	02071863          	bnez	a4,800085c0 <__trunctfdf2+0x1b0>
/home/hqfang/workspace/software/riscv-gnu-toolchain/riscv-gcc/libgcc/soft-fp/trunctfdf2.c:46
80008594:	00300593          	li	a1,3
80008598:	40f585b3          	sub	a1,a1,a5
/home/hqfang/workspace/software/riscv-gnu-toolchain/riscv-gcc/libgcc/soft-fp/trunctfdf2.c:46 (discriminator 31)
8000859c:	00d60833          	add	a6,a2,a3
800085a0:	00082803          	lw	a6,0(a6)
800085a4:	00170713          	addi	a4,a4,1
800085a8:	00460613          	addi	a2,a2,4
800085ac:	ff062e23          	sw	a6,-4(a2)
800085b0:	fee5d6e3          	bge	a1,a4,8000859c <__trunctfdf2+0x18c>
800085b4:	00400713          	li	a4,4
800085b8:	40f707b3          	sub	a5,a4,a5
800085bc:	0580006f          	j	80008614 <__trunctfdf2+0x204>
800085c0:	ffc00e13          	li	t3,-4
800085c4:	03c78e33          	mul	t3,a5,t3
/home/hqfang/workspace/software/riscv-gnu-toolchain/riscv-gcc/libgcc/soft-fp/trunctfdf2.c:46 (discriminator 28)
800085c8:	02010613          	addi	a2,sp,32
800085cc:	00d60633          	add	a2,a2,a3
800085d0:	ff062603          	lw	a2,-16(a2)
800085d4:	02000813          	li	a6,32
800085d8:	40e80833          	sub	a6,a6,a4
800085dc:	01061633          	sll	a2,a2,a6
800085e0:	00c4e4b3          	or	s1,s1,a2
800085e4:	00300613          	li	a2,3
800085e8:	00d506b3          	add	a3,a0,a3
800085ec:	00000313          	li	t1,0
800085f0:	40f60633          	sub	a2,a2,a5
/home/hqfang/workspace/software/riscv-gnu-toolchain/riscv-gcc/libgcc/soft-fp/trunctfdf2.c:46 (discriminator 32)
800085f4:	04c34663          	blt	t1,a2,80008640 <__trunctfdf2+0x230>
/home/hqfang/workspace/software/riscv-gnu-toolchain/riscv-gcc/libgcc/soft-fp/trunctfdf2.c:46 (discriminator 35)
800085f8:	00400693          	li	a3,4
800085fc:	40f687b3          	sub	a5,a3,a5
80008600:	00261613          	slli	a2,a2,0x2
80008604:	02010693          	addi	a3,sp,32
80008608:	00c68633          	add	a2,a3,a2
8000860c:	00e8d733          	srl	a4,a7,a4
80008610:	fee62823          	sw	a4,-16(a2)
/home/hqfang/workspace/software/riscv-gnu-toolchain/riscv-gcc/libgcc/soft-fp/trunctfdf2.c:46 (discriminator 37)
80008614:	00400613          	li	a2,4
80008618:	40f60633          	sub	a2,a2,a5
8000861c:	00279793          	slli	a5,a5,0x2
80008620:	00f50533          	add	a0,a0,a5
80008624:	00261613          	slli	a2,a2,0x2
80008628:	00000593          	li	a1,0
8000862c:	bc1fb0ef          	jal	ra,800041ec <memset>
80008630:	01012703          	lw	a4,16(sp)
80008634:	009037b3          	snez	a5,s1
80008638:	00f767b3          	or	a5,a4,a5
8000863c:	f05ff06f          	j	80008540 <__trunctfdf2+0x130>
/home/hqfang/workspace/software/riscv-gnu-toolchain/riscv-gcc/libgcc/soft-fp/trunctfdf2.c:46 (discriminator 34)
80008640:	0006a583          	lw	a1,0(a3)
80008644:	0046ae83          	lw	t4,4(a3)
80008648:	01c68f33          	add	t5,a3,t3
8000864c:	00e5d5b3          	srl	a1,a1,a4
80008650:	010e9eb3          	sll	t4,t4,a6
80008654:	01d5e5b3          	or	a1,a1,t4
80008658:	00bf2023          	sw	a1,0(t5)
8000865c:	00130313          	addi	t1,t1,1 # 10001 <dhry_stubs.c.aa5f359a+0xc426>
80008660:	00468693          	addi	a3,a3,4
80008664:	f91ff06f          	j	800085f4 <__trunctfdf2+0x1e4>
/home/hqfang/workspace/software/riscv-gnu-toolchain/riscv-gcc/libgcc/soft-fp/trunctfdf2.c:46 (discriminator 2)
80008668:	01412603          	lw	a2,20(sp)
8000866c:	01812783          	lw	a5,24(sp)
80008670:	01c12503          	lw	a0,28(sp)
80008674:	00f666b3          	or	a3,a2,a5
80008678:	00a6e6b3          	or	a3,a3,a0
8000867c:	00b6e6b3          	or	a3,a3,a1
80008680:	00071863          	bnez	a4,80008690 <__trunctfdf2+0x280>
/home/hqfang/workspace/software/riscv-gnu-toolchain/riscv-gcc/libgcc/soft-fp/trunctfdf2.c:46 (discriminator 65)
80008684:	00d036b3          	snez	a3,a3
80008688:	00000793          	li	a5,0
8000868c:	e7dff06f          	j	80008508 <__trunctfdf2+0xf8>
/home/hqfang/workspace/software/riscv-gnu-toolchain/riscv-gcc/libgcc/soft-fp/trunctfdf2.c:46 (discriminator 62)
80008690:	0c068663          	beqz	a3,8000875c <__trunctfdf2+0x34c>
/home/hqfang/workspace/software/riscv-gnu-toolchain/riscv-gcc/libgcc/soft-fp/trunctfdf2.c:46
80008694:	01c65693          	srli	a3,a2,0x1c
80008698:	00451513          	slli	a0,a0,0x4
8000869c:	00479613          	slli	a2,a5,0x4
800086a0:	01c7d793          	srli	a5,a5,0x1c
800086a4:	00400737          	lui	a4,0x400
800086a8:	00c6e6b3          	or	a3,a3,a2
800086ac:	00a7e7b3          	or	a5,a5,a0
800086b0:	00e7e7b3          	or	a5,a5,a4
800086b4:	ff86f693          	andi	a3,a3,-8
800086b8:	7ff00713          	li	a4,2047
800086bc:	e4dff06f          	j	80008508 <__trunctfdf2+0xf8>
800086c0:	00000793          	li	a5,0
800086c4:	00000693          	li	a3,0
800086c8:	7ff00713          	li	a4,2047
/home/hqfang/workspace/software/riscv-gnu-toolchain/riscv-gcc/libgcc/soft-fp/trunctfdf2.c:50 (discriminator 47)
800086cc:	00800637          	lui	a2,0x800
800086d0:	00c7f633          	and	a2,a5,a2
800086d4:	00060e63          	beqz	a2,800086f0 <__trunctfdf2+0x2e0>
/home/hqfang/workspace/software/riscv-gnu-toolchain/riscv-gcc/libgcc/soft-fp/trunctfdf2.c:50 (discriminator 63)
800086d8:	00170713          	addi	a4,a4,1 # 400001 <dhry_stubs.c.aa5f359a+0x3fc426>
800086dc:	7ff00613          	li	a2,2047
800086e0:	08c70263          	beq	a4,a2,80008764 <__trunctfdf2+0x354>
/home/hqfang/workspace/software/riscv-gnu-toolchain/riscv-gcc/libgcc/soft-fp/trunctfdf2.c:50
800086e4:	ff800637          	lui	a2,0xff800
800086e8:	fff60613          	addi	a2,a2,-1 # ff7fffff <_sp+0x6f7effff>
800086ec:	00c7f7b3          	and	a5,a5,a2
/home/hqfang/workspace/software/riscv-gnu-toolchain/riscv-gcc/libgcc/soft-fp/trunctfdf2.c:50 (discriminator 79)
800086f0:	01d79613          	slli	a2,a5,0x1d
800086f4:	0036d693          	srli	a3,a3,0x3
800086f8:	00d666b3          	or	a3,a2,a3
800086fc:	7ff00613          	li	a2,2047
80008700:	0037d793          	srli	a5,a5,0x3
80008704:	00c71e63          	bne	a4,a2,80008720 <__trunctfdf2+0x310>
/home/hqfang/workspace/software/riscv-gnu-toolchain/riscv-gcc/libgcc/soft-fp/trunctfdf2.c:50 (discriminator 80)
80008708:	00f6e6b3          	or	a3,a3,a5
8000870c:	00000793          	li	a5,0
80008710:	00068863          	beqz	a3,80008720 <__trunctfdf2+0x310>
/home/hqfang/workspace/software/riscv-gnu-toolchain/riscv-gcc/libgcc/soft-fp/trunctfdf2.c:50
80008714:	000807b7          	lui	a5,0x80
80008718:	00000693          	li	a3,0
8000871c:	00000413          	li	s0,0
/home/hqfang/workspace/software/riscv-gnu-toolchain/riscv-gcc/libgcc/soft-fp/trunctfdf2.c:50 (discriminator 90)
80008720:	01471713          	slli	a4,a4,0x14
80008724:	7ff00637          	lui	a2,0x7ff00
80008728:	00c79793          	slli	a5,a5,0xc
8000872c:	00c77733          	and	a4,a4,a2
80008730:	00c7d793          	srli	a5,a5,0xc
80008734:	01f41413          	slli	s0,s0,0x1f
80008738:	00f767b3          	or	a5,a4,a5
/home/hqfang/workspace/software/riscv-gnu-toolchain/riscv-gcc/libgcc/soft-fp/trunctfdf2.c:54 (discriminator 90)
8000873c:	02c12083          	lw	ra,44(sp)
/home/hqfang/workspace/software/riscv-gnu-toolchain/riscv-gcc/libgcc/soft-fp/trunctfdf2.c:50 (discriminator 90)
80008740:	0087e733          	or	a4,a5,s0
/home/hqfang/workspace/software/riscv-gnu-toolchain/riscv-gcc/libgcc/soft-fp/trunctfdf2.c:54 (discriminator 90)
80008744:	02812403          	lw	s0,40(sp)
80008748:	02412483          	lw	s1,36(sp)
8000874c:	00068513          	mv	a0,a3
80008750:	00070593          	mv	a1,a4
80008754:	03010113          	addi	sp,sp,48
80008758:	00008067          	ret
8000875c:	00000793          	li	a5,0
80008760:	f69ff06f          	j	800086c8 <__trunctfdf2+0x2b8>
80008764:	00000793          	li	a5,0
80008768:	00000693          	li	a3,0
8000876c:	f85ff06f          	j	800086f0 <__trunctfdf2+0x2e0>

80008770 <__clzsi2>:
__clzsi2():
/home/hqfang/workspace/software/riscv-gnu-toolchain/riscv-gcc/libgcc/libgcc2.c:710
80008770:	000107b7          	lui	a5,0x10
80008774:	02f57a63          	bgeu	a0,a5,800087a8 <__clzsi2+0x38>
/home/hqfang/workspace/software/riscv-gnu-toolchain/riscv-gcc/libgcc/libgcc2.c:710 (discriminator 3)
80008778:	0ff00793          	li	a5,255
8000877c:	00a7b7b3          	sltu	a5,a5,a0
80008780:	00379793          	slli	a5,a5,0x3
/home/hqfang/workspace/software/riscv-gnu-toolchain/riscv-gcc/libgcc/libgcc2.c:710 (discriminator 14)
80008784:	02000713          	li	a4,32
80008788:	40f70733          	sub	a4,a4,a5
8000878c:	00f55533          	srl	a0,a0,a5
80008790:	00001797          	auipc	a5,0x1
80008794:	51c78793          	addi	a5,a5,1308 # 80009cac <__clz_tab>
80008798:	00a78533          	add	a0,a5,a0
8000879c:	00054503          	lbu	a0,0(a0)
/home/hqfang/workspace/software/riscv-gnu-toolchain/riscv-gcc/libgcc/libgcc2.c:713 (discriminator 14)
800087a0:	40a70533          	sub	a0,a4,a0
800087a4:	00008067          	ret
/home/hqfang/workspace/software/riscv-gnu-toolchain/riscv-gcc/libgcc/libgcc2.c:710 (discriminator 4)
800087a8:	01000737          	lui	a4,0x1000
800087ac:	01000793          	li	a5,16
800087b0:	fce56ae3          	bltu	a0,a4,80008784 <__clzsi2+0x14>
/home/hqfang/workspace/software/riscv-gnu-toolchain/riscv-gcc/libgcc/libgcc2.c:710
800087b4:	01800793          	li	a5,24
800087b8:	fcdff06f          	j	80008784 <__clzsi2+0x14>

800087bc <__udivdi3>:
__udivdi3():
/home/hqfang/workspace/software/riscv-gnu-toolchain/riscv-gcc/libgcc/libgcc2.c:1319
800087bc:	00050893          	mv	a7,a0
800087c0:	00058793          	mv	a5,a1
__udivmoddi4():
/home/hqfang/workspace/software/riscv-gnu-toolchain/riscv-gcc/libgcc/libgcc2.c:1024
800087c4:	00060813          	mv	a6,a2
/home/hqfang/workspace/software/riscv-gnu-toolchain/riscv-gcc/libgcc/libgcc2.c:1025
800087c8:	00068513          	mv	a0,a3
/home/hqfang/workspace/software/riscv-gnu-toolchain/riscv-gcc/libgcc/libgcc2.c:1026
800087cc:	00088313          	mv	t1,a7
/home/hqfang/workspace/software/riscv-gnu-toolchain/riscv-gcc/libgcc/libgcc2.c:1064
800087d0:	28069463          	bnez	a3,80008a58 <__udivdi3+0x29c>
/home/hqfang/workspace/software/riscv-gnu-toolchain/riscv-gcc/libgcc/libgcc2.c:1066
800087d4:	00001697          	auipc	a3,0x1
800087d8:	4d868693          	addi	a3,a3,1240 # 80009cac <__clz_tab>
800087dc:	0ec5f663          	bgeu	a1,a2,800088c8 <__udivdi3+0x10c>
/home/hqfang/workspace/software/riscv-gnu-toolchain/riscv-gcc/libgcc/libgcc2.c:1070
800087e0:	00010737          	lui	a4,0x10
800087e4:	0ce67863          	bgeu	a2,a4,800088b4 <__udivdi3+0xf8>
800087e8:	0ff00713          	li	a4,255
800087ec:	00c73733          	sltu	a4,a4,a2
800087f0:	00371713          	slli	a4,a4,0x3
800087f4:	00e65533          	srl	a0,a2,a4
800087f8:	00a686b3          	add	a3,a3,a0
800087fc:	0006c683          	lbu	a3,0(a3)
80008800:	02000513          	li	a0,32
80008804:	00e68733          	add	a4,a3,a4
80008808:	40e506b3          	sub	a3,a0,a4
/home/hqfang/workspace/software/riscv-gnu-toolchain/riscv-gcc/libgcc/libgcc2.c:1072
8000880c:	00e50c63          	beq	a0,a4,80008824 <__udivdi3+0x68>
/home/hqfang/workspace/software/riscv-gnu-toolchain/riscv-gcc/libgcc/libgcc2.c:1078
80008810:	00d795b3          	sll	a1,a5,a3
80008814:	00e8d733          	srl	a4,a7,a4
/home/hqfang/workspace/software/riscv-gnu-toolchain/riscv-gcc/libgcc/libgcc2.c:1077
80008818:	00d61833          	sll	a6,a2,a3
/home/hqfang/workspace/software/riscv-gnu-toolchain/riscv-gcc/libgcc/libgcc2.c:1078
8000881c:	00b765b3          	or	a1,a4,a1
/home/hqfang/workspace/software/riscv-gnu-toolchain/riscv-gcc/libgcc/libgcc2.c:1079
80008820:	00d89333          	sll	t1,a7,a3
/home/hqfang/workspace/software/riscv-gnu-toolchain/riscv-gcc/libgcc/libgcc2.c:1082
80008824:	01085893          	srli	a7,a6,0x10
80008828:	0315d6b3          	divu	a3,a1,a7
8000882c:	01081613          	slli	a2,a6,0x10
80008830:	01065613          	srli	a2,a2,0x10
80008834:	01035793          	srli	a5,t1,0x10
80008838:	0315f733          	remu	a4,a1,a7
8000883c:	00068513          	mv	a0,a3
80008840:	02d605b3          	mul	a1,a2,a3
80008844:	01071713          	slli	a4,a4,0x10
80008848:	00f767b3          	or	a5,a4,a5
8000884c:	00b7fe63          	bgeu	a5,a1,80008868 <__udivdi3+0xac>
80008850:	010787b3          	add	a5,a5,a6
80008854:	fff68513          	addi	a0,a3,-1
80008858:	0107e863          	bltu	a5,a6,80008868 <__udivdi3+0xac>
8000885c:	00b7f663          	bgeu	a5,a1,80008868 <__udivdi3+0xac>
80008860:	ffe68513          	addi	a0,a3,-2
80008864:	010787b3          	add	a5,a5,a6
80008868:	40b787b3          	sub	a5,a5,a1
8000886c:	0317f733          	remu	a4,a5,a7
80008870:	01031313          	slli	t1,t1,0x10
80008874:	01035313          	srli	t1,t1,0x10
80008878:	0317d7b3          	divu	a5,a5,a7
8000887c:	01071713          	slli	a4,a4,0x10
80008880:	00676333          	or	t1,a4,t1
80008884:	02f606b3          	mul	a3,a2,a5
80008888:	00078613          	mv	a2,a5
8000888c:	00d37c63          	bgeu	t1,a3,800088a4 <__udivdi3+0xe8>
80008890:	00680333          	add	t1,a6,t1
80008894:	fff78613          	addi	a2,a5,-1
80008898:	01036663          	bltu	t1,a6,800088a4 <__udivdi3+0xe8>
8000889c:	00d37463          	bgeu	t1,a3,800088a4 <__udivdi3+0xe8>
800088a0:	ffe78613          	addi	a2,a5,-2
800088a4:	01051513          	slli	a0,a0,0x10
800088a8:	00c56533          	or	a0,a0,a2
/home/hqfang/workspace/software/riscv-gnu-toolchain/riscv-gcc/libgcc/libgcc2.c:1209
800088ac:	00000593          	li	a1,0
800088b0:	0e40006f          	j	80008994 <__udivdi3+0x1d8>
/home/hqfang/workspace/software/riscv-gnu-toolchain/riscv-gcc/libgcc/libgcc2.c:1070
800088b4:	01000537          	lui	a0,0x1000
800088b8:	01000713          	li	a4,16
800088bc:	f2a66ce3          	bltu	a2,a0,800087f4 <__udivdi3+0x38>
800088c0:	01800713          	li	a4,24
800088c4:	f31ff06f          	j	800087f4 <__udivdi3+0x38>
/home/hqfang/workspace/software/riscv-gnu-toolchain/riscv-gcc/libgcc/libgcc2.c:1091
800088c8:	00061663          	bnez	a2,800088d4 <__udivdi3+0x118>
/home/hqfang/workspace/software/riscv-gnu-toolchain/riscv-gcc/libgcc/libgcc2.c:1092
800088cc:	00100713          	li	a4,1
800088d0:	02c75833          	divu	a6,a4,a2
/home/hqfang/workspace/software/riscv-gnu-toolchain/riscv-gcc/libgcc/libgcc2.c:1094
800088d4:	00010737          	lui	a4,0x10
800088d8:	0ce87063          	bgeu	a6,a4,80008998 <__udivdi3+0x1dc>
800088dc:	0ff00713          	li	a4,255
800088e0:	01077463          	bgeu	a4,a6,800088e8 <__udivdi3+0x12c>
800088e4:	00800513          	li	a0,8
800088e8:	00a85733          	srl	a4,a6,a0
800088ec:	00e686b3          	add	a3,a3,a4
800088f0:	0006c703          	lbu	a4,0(a3)
800088f4:	02000613          	li	a2,32
800088f8:	00a70733          	add	a4,a4,a0
800088fc:	40e606b3          	sub	a3,a2,a4
/home/hqfang/workspace/software/riscv-gnu-toolchain/riscv-gcc/libgcc/libgcc2.c:1096
80008900:	0ae61663          	bne	a2,a4,800089ac <__udivdi3+0x1f0>
/home/hqfang/workspace/software/riscv-gnu-toolchain/riscv-gcc/libgcc/libgcc2.c:1105
80008904:	410787b3          	sub	a5,a5,a6
/home/hqfang/workspace/software/riscv-gnu-toolchain/riscv-gcc/libgcc/libgcc2.c:1106
80008908:	00100593          	li	a1,1
/home/hqfang/workspace/software/riscv-gnu-toolchain/riscv-gcc/libgcc/libgcc2.c:1124
8000890c:	01085893          	srli	a7,a6,0x10
80008910:	01081613          	slli	a2,a6,0x10
80008914:	01065613          	srli	a2,a2,0x10
80008918:	01035713          	srli	a4,t1,0x10
8000891c:	0317f6b3          	remu	a3,a5,a7
80008920:	0317d7b3          	divu	a5,a5,a7
80008924:	01069693          	slli	a3,a3,0x10
80008928:	00e6e733          	or	a4,a3,a4
8000892c:	02f60e33          	mul	t3,a2,a5
80008930:	00078513          	mv	a0,a5
80008934:	01c77e63          	bgeu	a4,t3,80008950 <__udivdi3+0x194>
80008938:	01070733          	add	a4,a4,a6
8000893c:	fff78513          	addi	a0,a5,-1
80008940:	01076863          	bltu	a4,a6,80008950 <__udivdi3+0x194>
80008944:	01c77663          	bgeu	a4,t3,80008950 <__udivdi3+0x194>
80008948:	ffe78513          	addi	a0,a5,-2
8000894c:	01070733          	add	a4,a4,a6
80008950:	41c70733          	sub	a4,a4,t3
80008954:	031777b3          	remu	a5,a4,a7
80008958:	01031313          	slli	t1,t1,0x10
8000895c:	01035313          	srli	t1,t1,0x10
80008960:	03175733          	divu	a4,a4,a7
80008964:	01079793          	slli	a5,a5,0x10
80008968:	0067e333          	or	t1,a5,t1
8000896c:	02e606b3          	mul	a3,a2,a4
80008970:	00070613          	mv	a2,a4
80008974:	00d37c63          	bgeu	t1,a3,8000898c <__udivdi3+0x1d0>
80008978:	00680333          	add	t1,a6,t1
8000897c:	fff70613          	addi	a2,a4,-1 # ffff <dhry_stubs.c.aa5f359a+0xc424>
80008980:	01036663          	bltu	t1,a6,8000898c <__udivdi3+0x1d0>
80008984:	00d37463          	bgeu	t1,a3,8000898c <__udivdi3+0x1d0>
80008988:	ffe70613          	addi	a2,a4,-2
8000898c:	01051513          	slli	a0,a0,0x10
80008990:	00c56533          	or	a0,a0,a2
__udivdi3():
/home/hqfang/workspace/software/riscv-gnu-toolchain/riscv-gcc/libgcc/libgcc2.c:1321
80008994:	00008067          	ret
__udivmoddi4():
/home/hqfang/workspace/software/riscv-gnu-toolchain/riscv-gcc/libgcc/libgcc2.c:1094
80008998:	01000737          	lui	a4,0x1000
8000899c:	01000513          	li	a0,16
800089a0:	f4e864e3          	bltu	a6,a4,800088e8 <__udivdi3+0x12c>
800089a4:	01800513          	li	a0,24
800089a8:	f41ff06f          	j	800088e8 <__udivdi3+0x12c>
/home/hqfang/workspace/software/riscv-gnu-toolchain/riscv-gcc/libgcc/libgcc2.c:1114
800089ac:	00d81833          	sll	a6,a6,a3
/home/hqfang/workspace/software/riscv-gnu-toolchain/riscv-gcc/libgcc/libgcc2.c:1115
800089b0:	00e7d533          	srl	a0,a5,a4
/home/hqfang/workspace/software/riscv-gnu-toolchain/riscv-gcc/libgcc/libgcc2.c:1117
800089b4:	00d89333          	sll	t1,a7,a3
/home/hqfang/workspace/software/riscv-gnu-toolchain/riscv-gcc/libgcc/libgcc2.c:1116
800089b8:	00d797b3          	sll	a5,a5,a3
800089bc:	00e8d733          	srl	a4,a7,a4
/home/hqfang/workspace/software/riscv-gnu-toolchain/riscv-gcc/libgcc/libgcc2.c:1119
800089c0:	01085893          	srli	a7,a6,0x10
/home/hqfang/workspace/software/riscv-gnu-toolchain/riscv-gcc/libgcc/libgcc2.c:1116
800089c4:	00f76633          	or	a2,a4,a5
/home/hqfang/workspace/software/riscv-gnu-toolchain/riscv-gcc/libgcc/libgcc2.c:1119
800089c8:	03157733          	remu	a4,a0,a7
800089cc:	01081793          	slli	a5,a6,0x10
800089d0:	0107d793          	srli	a5,a5,0x10
800089d4:	01065593          	srli	a1,a2,0x10
800089d8:	03155533          	divu	a0,a0,a7
800089dc:	01071713          	slli	a4,a4,0x10
800089e0:	00b76733          	or	a4,a4,a1
800089e4:	02a786b3          	mul	a3,a5,a0
800089e8:	00050593          	mv	a1,a0
800089ec:	00d77e63          	bgeu	a4,a3,80008a08 <__udivdi3+0x24c>
800089f0:	01070733          	add	a4,a4,a6
800089f4:	fff50593          	addi	a1,a0,-1 # ffffff <dhry_stubs.c.aa5f359a+0xffc424>
800089f8:	01076863          	bltu	a4,a6,80008a08 <__udivdi3+0x24c>
800089fc:	00d77663          	bgeu	a4,a3,80008a08 <__udivdi3+0x24c>
80008a00:	ffe50593          	addi	a1,a0,-2
80008a04:	01070733          	add	a4,a4,a6
80008a08:	40d706b3          	sub	a3,a4,a3
80008a0c:	0316f733          	remu	a4,a3,a7
80008a10:	01061613          	slli	a2,a2,0x10
80008a14:	01065613          	srli	a2,a2,0x10
80008a18:	0316d6b3          	divu	a3,a3,a7
80008a1c:	01071713          	slli	a4,a4,0x10
80008a20:	02d78533          	mul	a0,a5,a3
80008a24:	00c767b3          	or	a5,a4,a2
80008a28:	00068713          	mv	a4,a3
80008a2c:	00a7fe63          	bgeu	a5,a0,80008a48 <__udivdi3+0x28c>
80008a30:	010787b3          	add	a5,a5,a6
80008a34:	fff68713          	addi	a4,a3,-1
80008a38:	0107e863          	bltu	a5,a6,80008a48 <__udivdi3+0x28c>
80008a3c:	00a7f663          	bgeu	a5,a0,80008a48 <__udivdi3+0x28c>
80008a40:	ffe68713          	addi	a4,a3,-2
80008a44:	010787b3          	add	a5,a5,a6
80008a48:	01059593          	slli	a1,a1,0x10
80008a4c:	40a787b3          	sub	a5,a5,a0
80008a50:	00e5e5b3          	or	a1,a1,a4
80008a54:	eb9ff06f          	j	8000890c <__udivdi3+0x150>
/home/hqfang/workspace/software/riscv-gnu-toolchain/riscv-gcc/libgcc/libgcc2.c:1140
80008a58:	18d5e663          	bltu	a1,a3,80008be4 <__udivdi3+0x428>
/home/hqfang/workspace/software/riscv-gnu-toolchain/riscv-gcc/libgcc/libgcc2.c:1159
80008a5c:	00010737          	lui	a4,0x10
80008a60:	04e6f463          	bgeu	a3,a4,80008aa8 <__udivdi3+0x2ec>
80008a64:	0ff00713          	li	a4,255
80008a68:	00d735b3          	sltu	a1,a4,a3
80008a6c:	00359593          	slli	a1,a1,0x3
80008a70:	00b6d533          	srl	a0,a3,a1
80008a74:	00001717          	auipc	a4,0x1
80008a78:	23870713          	addi	a4,a4,568 # 80009cac <__clz_tab>
80008a7c:	00a70733          	add	a4,a4,a0
80008a80:	00074703          	lbu	a4,0(a4)
80008a84:	02000513          	li	a0,32
80008a88:	00b70733          	add	a4,a4,a1
80008a8c:	40e505b3          	sub	a1,a0,a4
/home/hqfang/workspace/software/riscv-gnu-toolchain/riscv-gcc/libgcc/libgcc2.c:1160
80008a90:	02e51663          	bne	a0,a4,80008abc <__udivdi3+0x300>
/home/hqfang/workspace/software/riscv-gnu-toolchain/riscv-gcc/libgcc/libgcc2.c:1172
80008a94:	00100513          	li	a0,1
/home/hqfang/workspace/software/riscv-gnu-toolchain/riscv-gcc/libgcc/libgcc2.c:1170
80008a98:	eef6eee3          	bltu	a3,a5,80008994 <__udivdi3+0x1d8>
80008a9c:	00c8b533          	sltu	a0,a7,a2
80008aa0:	00154513          	xori	a0,a0,1
80008aa4:	ef1ff06f          	j	80008994 <__udivdi3+0x1d8>
/home/hqfang/workspace/software/riscv-gnu-toolchain/riscv-gcc/libgcc/libgcc2.c:1159
80008aa8:	01000737          	lui	a4,0x1000
80008aac:	01000593          	li	a1,16
80008ab0:	fce6e0e3          	bltu	a3,a4,80008a70 <__udivdi3+0x2b4>
80008ab4:	01800593          	li	a1,24
80008ab8:	fb9ff06f          	j	80008a70 <__udivdi3+0x2b4>
/home/hqfang/workspace/software/riscv-gnu-toolchain/riscv-gcc/libgcc/libgcc2.c:1194
80008abc:	00e65833          	srl	a6,a2,a4
80008ac0:	00b696b3          	sll	a3,a3,a1
80008ac4:	00d86833          	or	a6,a6,a3
/home/hqfang/workspace/software/riscv-gnu-toolchain/riscv-gcc/libgcc/libgcc2.c:1196
80008ac8:	00e7d333          	srl	t1,a5,a4
/home/hqfang/workspace/software/riscv-gnu-toolchain/riscv-gcc/libgcc/libgcc2.c:1200
80008acc:	01085e93          	srli	t4,a6,0x10
80008ad0:	03d376b3          	remu	a3,t1,t4
/home/hqfang/workspace/software/riscv-gnu-toolchain/riscv-gcc/libgcc/libgcc2.c:1197
80008ad4:	00b797b3          	sll	a5,a5,a1
80008ad8:	00e8d733          	srl	a4,a7,a4
/home/hqfang/workspace/software/riscv-gnu-toolchain/riscv-gcc/libgcc/libgcc2.c:1195
80008adc:	00b61e33          	sll	t3,a2,a1
/home/hqfang/workspace/software/riscv-gnu-toolchain/riscv-gcc/libgcc/libgcc2.c:1197
80008ae0:	00f76633          	or	a2,a4,a5
/home/hqfang/workspace/software/riscv-gnu-toolchain/riscv-gcc/libgcc/libgcc2.c:1200
80008ae4:	01081793          	slli	a5,a6,0x10
80008ae8:	0107d793          	srli	a5,a5,0x10
80008aec:	01065713          	srli	a4,a2,0x10
80008af0:	03d35333          	divu	t1,t1,t4
80008af4:	01069693          	slli	a3,a3,0x10
80008af8:	00e6e733          	or	a4,a3,a4
80008afc:	02678f33          	mul	t5,a5,t1
80008b00:	00030513          	mv	a0,t1
80008b04:	01e77e63          	bgeu	a4,t5,80008b20 <__udivdi3+0x364>
80008b08:	01070733          	add	a4,a4,a6
80008b0c:	fff30513          	addi	a0,t1,-1
80008b10:	01076863          	bltu	a4,a6,80008b20 <__udivdi3+0x364>
80008b14:	01e77663          	bgeu	a4,t5,80008b20 <__udivdi3+0x364>
80008b18:	ffe30513          	addi	a0,t1,-2
80008b1c:	01070733          	add	a4,a4,a6
80008b20:	41e70733          	sub	a4,a4,t5
80008b24:	03d776b3          	remu	a3,a4,t4
80008b28:	03d75733          	divu	a4,a4,t4
80008b2c:	01069693          	slli	a3,a3,0x10
80008b30:	02e78333          	mul	t1,a5,a4
80008b34:	01061793          	slli	a5,a2,0x10
80008b38:	0107d793          	srli	a5,a5,0x10
80008b3c:	00f6e7b3          	or	a5,a3,a5
80008b40:	00070613          	mv	a2,a4
80008b44:	0067fe63          	bgeu	a5,t1,80008b60 <__udivdi3+0x3a4>
80008b48:	010787b3          	add	a5,a5,a6
80008b4c:	fff70613          	addi	a2,a4,-1 # ffffff <dhry_stubs.c.aa5f359a+0xffc424>
80008b50:	0107e863          	bltu	a5,a6,80008b60 <__udivdi3+0x3a4>
80008b54:	0067f663          	bgeu	a5,t1,80008b60 <__udivdi3+0x3a4>
80008b58:	ffe70613          	addi	a2,a4,-2
80008b5c:	010787b3          	add	a5,a5,a6
80008b60:	01051513          	slli	a0,a0,0x10
/home/hqfang/workspace/software/riscv-gnu-toolchain/riscv-gcc/libgcc/libgcc2.c:1201
80008b64:	00010eb7          	lui	t4,0x10
/home/hqfang/workspace/software/riscv-gnu-toolchain/riscv-gcc/libgcc/libgcc2.c:1200
80008b68:	00c56533          	or	a0,a0,a2
/home/hqfang/workspace/software/riscv-gnu-toolchain/riscv-gcc/libgcc/libgcc2.c:1201
80008b6c:	fffe8693          	addi	a3,t4,-1 # ffff <dhry_stubs.c.aa5f359a+0xc424>
80008b70:	010e5613          	srli	a2,t3,0x10
80008b74:	01055813          	srli	a6,a0,0x10
/home/hqfang/workspace/software/riscv-gnu-toolchain/riscv-gcc/libgcc/libgcc2.c:1200
80008b78:	406787b3          	sub	a5,a5,t1
/home/hqfang/workspace/software/riscv-gnu-toolchain/riscv-gcc/libgcc/libgcc2.c:1201
80008b7c:	00d57333          	and	t1,a0,a3
80008b80:	00de76b3          	and	a3,t3,a3
80008b84:	02d30e33          	mul	t3,t1,a3
80008b88:	02d806b3          	mul	a3,a6,a3
80008b8c:	010e5713          	srli	a4,t3,0x10
80008b90:	02c30333          	mul	t1,t1,a2
80008b94:	00d30333          	add	t1,t1,a3
80008b98:	00670733          	add	a4,a4,t1
80008b9c:	02c80833          	mul	a6,a6,a2
80008ba0:	00d77463          	bgeu	a4,a3,80008ba8 <__udivdi3+0x3ec>
80008ba4:	01d80833          	add	a6,a6,t4
80008ba8:	01075693          	srli	a3,a4,0x10
80008bac:	01068833          	add	a6,a3,a6
/home/hqfang/workspace/software/riscv-gnu-toolchain/riscv-gcc/libgcc/libgcc2.c:1203
80008bb0:	0307e663          	bltu	a5,a6,80008bdc <__udivdi3+0x420>
80008bb4:	cf079ce3          	bne	a5,a6,800088ac <__udivdi3+0xf0>
/home/hqfang/workspace/software/riscv-gnu-toolchain/riscv-gcc/libgcc/libgcc2.c:1201
80008bb8:	000107b7          	lui	a5,0x10
80008bbc:	fff78793          	addi	a5,a5,-1 # ffff <dhry_stubs.c.aa5f359a+0xc424>
80008bc0:	00f77733          	and	a4,a4,a5
80008bc4:	01071713          	slli	a4,a4,0x10
80008bc8:	00fe7e33          	and	t3,t3,a5
/home/hqfang/workspace/software/riscv-gnu-toolchain/riscv-gcc/libgcc/libgcc2.c:1198
80008bcc:	00b898b3          	sll	a7,a7,a1
/home/hqfang/workspace/software/riscv-gnu-toolchain/riscv-gcc/libgcc/libgcc2.c:1201
80008bd0:	01c70733          	add	a4,a4,t3
/home/hqfang/workspace/software/riscv-gnu-toolchain/riscv-gcc/libgcc/libgcc2.c:1209
80008bd4:	00000593          	li	a1,0
/home/hqfang/workspace/software/riscv-gnu-toolchain/riscv-gcc/libgcc/libgcc2.c:1203
80008bd8:	dae8fee3          	bgeu	a7,a4,80008994 <__udivdi3+0x1d8>
/home/hqfang/workspace/software/riscv-gnu-toolchain/riscv-gcc/libgcc/libgcc2.c:1205
80008bdc:	fff50513          	addi	a0,a0,-1
__udivdi3():
/home/hqfang/workspace/software/riscv-gnu-toolchain/riscv-gcc/libgcc/libgcc2.c:1206
80008be0:	ccdff06f          	j	800088ac <__udivdi3+0xf0>
__udivmoddi4():
/home/hqfang/workspace/software/riscv-gnu-toolchain/riscv-gcc/libgcc/libgcc2.c:1145
80008be4:	00000593          	li	a1,0
/home/hqfang/workspace/software/riscv-gnu-toolchain/riscv-gcc/libgcc/libgcc2.c:1144
80008be8:	00000513          	li	a0,0
80008bec:	da9ff06f          	j	80008994 <__udivdi3+0x1d8>

80008bf0 <__divsf3>:
__divsf3():
/home/hqfang/workspace/software/riscv-gnu-toolchain/riscv-gcc/libgcc/soft-fp/divsf3.c:36
80008bf0:	fe010113          	addi	sp,sp,-32
80008bf4:	00912a23          	sw	s1,20(sp)
80008bf8:	01755493          	srli	s1,a0,0x17
80008bfc:	01212823          	sw	s2,16(sp)
80008c00:	01312623          	sw	s3,12(sp)
80008c04:	01412423          	sw	s4,8(sp)
/home/hqfang/workspace/software/riscv-gnu-toolchain/riscv-gcc/libgcc/soft-fp/divsf3.c:44
80008c08:	00951993          	slli	s3,a0,0x9
/home/hqfang/workspace/software/riscv-gnu-toolchain/riscv-gcc/libgcc/soft-fp/divsf3.c:36
80008c0c:	00112e23          	sw	ra,28(sp)
80008c10:	00812c23          	sw	s0,24(sp)
80008c14:	01512223          	sw	s5,4(sp)
80008c18:	0ff4f493          	andi	s1,s1,255
80008c1c:	00058a13          	mv	s4,a1
/home/hqfang/workspace/software/riscv-gnu-toolchain/riscv-gcc/libgcc/soft-fp/divsf3.c:44
80008c20:	0099d993          	srli	s3,s3,0x9
80008c24:	01f55913          	srli	s2,a0,0x1f
80008c28:	08048663          	beqz	s1,80008cb4 <__divsf3+0xc4>
80008c2c:	0ff00793          	li	a5,255
80008c30:	0af48263          	beq	s1,a5,80008cd4 <__divsf3+0xe4>
/home/hqfang/workspace/software/riscv-gnu-toolchain/riscv-gcc/libgcc/soft-fp/divsf3.c:44 (discriminator 1)
80008c34:	00399993          	slli	s3,s3,0x3
80008c38:	040007b7          	lui	a5,0x4000
80008c3c:	00f9e9b3          	or	s3,s3,a5
80008c40:	f8148493          	addi	s1,s1,-127 # 7ff81 <dhry_stubs.c.aa5f359a+0x7c3a6>
/home/hqfang/workspace/software/riscv-gnu-toolchain/riscv-gcc/libgcc/soft-fp/divsf3.c:44 (discriminator 15)
80008c44:	00000a93          	li	s5,0
/home/hqfang/workspace/software/riscv-gnu-toolchain/riscv-gcc/libgcc/soft-fp/divsf3.c:45 (discriminator 8)
80008c48:	017a5513          	srli	a0,s4,0x17
80008c4c:	009a1413          	slli	s0,s4,0x9
80008c50:	0ff57513          	andi	a0,a0,255
80008c54:	00945413          	srli	s0,s0,0x9
80008c58:	01fa5a13          	srli	s4,s4,0x1f
80008c5c:	08050c63          	beqz	a0,80008cf4 <__divsf3+0x104>
/home/hqfang/workspace/software/riscv-gnu-toolchain/riscv-gcc/libgcc/soft-fp/divsf3.c:45
80008c60:	0ff00793          	li	a5,255
80008c64:	0af50863          	beq	a0,a5,80008d14 <__divsf3+0x124>
/home/hqfang/workspace/software/riscv-gnu-toolchain/riscv-gcc/libgcc/soft-fp/divsf3.c:45 (discriminator 1)
80008c68:	00341413          	slli	s0,s0,0x3
80008c6c:	040007b7          	lui	a5,0x4000
80008c70:	00f46433          	or	s0,s0,a5
80008c74:	f8150513          	addi	a0,a0,-127
/home/hqfang/workspace/software/riscv-gnu-toolchain/riscv-gcc/libgcc/soft-fp/divsf3.c:45 (discriminator 15)
80008c78:	00000793          	li	a5,0
/home/hqfang/workspace/software/riscv-gnu-toolchain/riscv-gcc/libgcc/soft-fp/divsf3.c:46 (discriminator 8)
80008c7c:	002a9693          	slli	a3,s5,0x2
80008c80:	00f6e6b3          	or	a3,a3,a5
80008c84:	fff68693          	addi	a3,a3,-1
80008c88:	00e00713          	li	a4,14
80008c8c:	01494633          	xor	a2,s2,s4
80008c90:	40a48533          	sub	a0,s1,a0
80008c94:	0ad76063          	bltu	a4,a3,80008d34 <__divsf3+0x144>
80008c98:	00001597          	auipc	a1,0x1
80008c9c:	11458593          	addi	a1,a1,276 # 80009dac <__clz_tab+0x100>
80008ca0:	00269693          	slli	a3,a3,0x2
80008ca4:	00b686b3          	add	a3,a3,a1
80008ca8:	0006a703          	lw	a4,0(a3)
80008cac:	00b70733          	add	a4,a4,a1
80008cb0:	00070067          	jr	a4
/home/hqfang/workspace/software/riscv-gnu-toolchain/riscv-gcc/libgcc/soft-fp/divsf3.c:44 (discriminator 2)
80008cb4:	02098a63          	beqz	s3,80008ce8 <__divsf3+0xf8>
/home/hqfang/workspace/software/riscv-gnu-toolchain/riscv-gcc/libgcc/soft-fp/divsf3.c:44 (discriminator 15)
80008cb8:	00098513          	mv	a0,s3
80008cbc:	ab5ff0ef          	jal	ra,80008770 <__clzsi2>
80008cc0:	ffb50793          	addi	a5,a0,-5
80008cc4:	f8a00493          	li	s1,-118
80008cc8:	00f999b3          	sll	s3,s3,a5
80008ccc:	40a484b3          	sub	s1,s1,a0
80008cd0:	f75ff06f          	j	80008c44 <__divsf3+0x54>
/home/hqfang/workspace/software/riscv-gnu-toolchain/riscv-gcc/libgcc/soft-fp/divsf3.c:44 (discriminator 3)
80008cd4:	0ff00493          	li	s1,255
80008cd8:	00200a93          	li	s5,2
80008cdc:	f60986e3          	beqz	s3,80008c48 <__divsf3+0x58>
/home/hqfang/workspace/software/riscv-gnu-toolchain/riscv-gcc/libgcc/soft-fp/divsf3.c:44
80008ce0:	00300a93          	li	s5,3
80008ce4:	f65ff06f          	j	80008c48 <__divsf3+0x58>
80008ce8:	00000493          	li	s1,0
80008cec:	00100a93          	li	s5,1
80008cf0:	f59ff06f          	j	80008c48 <__divsf3+0x58>
/home/hqfang/workspace/software/riscv-gnu-toolchain/riscv-gcc/libgcc/soft-fp/divsf3.c:45 (discriminator 2)
80008cf4:	02040a63          	beqz	s0,80008d28 <__divsf3+0x138>
/home/hqfang/workspace/software/riscv-gnu-toolchain/riscv-gcc/libgcc/soft-fp/divsf3.c:45 (discriminator 15)
80008cf8:	00040513          	mv	a0,s0
80008cfc:	a75ff0ef          	jal	ra,80008770 <__clzsi2>
80008d00:	ffb50793          	addi	a5,a0,-5
80008d04:	00f41433          	sll	s0,s0,a5
80008d08:	f8a00793          	li	a5,-118
80008d0c:	40a78533          	sub	a0,a5,a0
80008d10:	f69ff06f          	j	80008c78 <__divsf3+0x88>
/home/hqfang/workspace/software/riscv-gnu-toolchain/riscv-gcc/libgcc/soft-fp/divsf3.c:45 (discriminator 3)
80008d14:	0ff00513          	li	a0,255
80008d18:	00200793          	li	a5,2
80008d1c:	f60400e3          	beqz	s0,80008c7c <__divsf3+0x8c>
/home/hqfang/workspace/software/riscv-gnu-toolchain/riscv-gcc/libgcc/soft-fp/divsf3.c:45
80008d20:	00300793          	li	a5,3
80008d24:	f59ff06f          	j	80008c7c <__divsf3+0x8c>
80008d28:	00000513          	li	a0,0
80008d2c:	00100793          	li	a5,1
80008d30:	f4dff06f          	j	80008c7c <__divsf3+0x8c>
/home/hqfang/workspace/software/riscv-gnu-toolchain/riscv-gcc/libgcc/soft-fp/divsf3.c:46 (discriminator 2)
80008d34:	00541813          	slli	a6,s0,0x5
80008d38:	1289f463          	bgeu	s3,s0,80008e60 <__divsf3+0x270>
/home/hqfang/workspace/software/riscv-gnu-toolchain/riscv-gcc/libgcc/soft-fp/divsf3.c:46 (discriminator 10)
80008d3c:	fff50513          	addi	a0,a0,-1
80008d40:	00000693          	li	a3,0
/home/hqfang/workspace/software/riscv-gnu-toolchain/riscv-gcc/libgcc/soft-fp/divsf3.c:46 (discriminator 13)
80008d44:	01085413          	srli	s0,a6,0x10
80008d48:	0289d333          	divu	t1,s3,s0
80008d4c:	000107b7          	lui	a5,0x10
80008d50:	fff78793          	addi	a5,a5,-1 # ffff <dhry_stubs.c.aa5f359a+0xc424>
80008d54:	00f877b3          	and	a5,a6,a5
80008d58:	0106d693          	srli	a3,a3,0x10
80008d5c:	0289f733          	remu	a4,s3,s0
80008d60:	00030593          	mv	a1,t1
80008d64:	026788b3          	mul	a7,a5,t1
80008d68:	01071713          	slli	a4,a4,0x10
80008d6c:	00e6e733          	or	a4,a3,a4
80008d70:	01177e63          	bgeu	a4,a7,80008d8c <__divsf3+0x19c>
/home/hqfang/workspace/software/riscv-gnu-toolchain/riscv-gcc/libgcc/soft-fp/divsf3.c:46 (discriminator 14)
80008d74:	01070733          	add	a4,a4,a6
80008d78:	fff30593          	addi	a1,t1,-1
80008d7c:	01076863          	bltu	a4,a6,80008d8c <__divsf3+0x19c>
/home/hqfang/workspace/software/riscv-gnu-toolchain/riscv-gcc/libgcc/soft-fp/divsf3.c:46 (discriminator 16)
80008d80:	01177663          	bgeu	a4,a7,80008d8c <__divsf3+0x19c>
/home/hqfang/workspace/software/riscv-gnu-toolchain/riscv-gcc/libgcc/soft-fp/divsf3.c:46 (discriminator 18)
80008d84:	ffe30593          	addi	a1,t1,-2
80008d88:	01070733          	add	a4,a4,a6
/home/hqfang/workspace/software/riscv-gnu-toolchain/riscv-gcc/libgcc/soft-fp/divsf3.c:46 (discriminator 20)
80008d8c:	41170733          	sub	a4,a4,a7
80008d90:	028758b3          	divu	a7,a4,s0
80008d94:	02877733          	remu	a4,a4,s0
80008d98:	031786b3          	mul	a3,a5,a7
80008d9c:	01071793          	slli	a5,a4,0x10
80008da0:	00088713          	mv	a4,a7
80008da4:	00d7fe63          	bgeu	a5,a3,80008dc0 <__divsf3+0x1d0>
/home/hqfang/workspace/software/riscv-gnu-toolchain/riscv-gcc/libgcc/soft-fp/divsf3.c:46 (discriminator 21)
80008da8:	010787b3          	add	a5,a5,a6
80008dac:	fff88713          	addi	a4,a7,-1 # 7ffff <dhry_stubs.c.aa5f359a+0x7c424>
80008db0:	0107e863          	bltu	a5,a6,80008dc0 <__divsf3+0x1d0>
/home/hqfang/workspace/software/riscv-gnu-toolchain/riscv-gcc/libgcc/soft-fp/divsf3.c:46 (discriminator 23)
80008db4:	00d7f663          	bgeu	a5,a3,80008dc0 <__divsf3+0x1d0>
/home/hqfang/workspace/software/riscv-gnu-toolchain/riscv-gcc/libgcc/soft-fp/divsf3.c:46 (discriminator 25)
80008db8:	ffe88713          	addi	a4,a7,-2
80008dbc:	010787b3          	add	a5,a5,a6
/home/hqfang/workspace/software/riscv-gnu-toolchain/riscv-gcc/libgcc/soft-fp/divsf3.c:46 (discriminator 27)
80008dc0:	01059413          	slli	s0,a1,0x10
80008dc4:	40d787b3          	sub	a5,a5,a3
80008dc8:	00e46433          	or	s0,s0,a4
80008dcc:	00f037b3          	snez	a5,a5
80008dd0:	00f46433          	or	s0,s0,a5
/home/hqfang/workspace/software/riscv-gnu-toolchain/riscv-gcc/libgcc/soft-fp/divsf3.c:47 (discriminator 2)
80008dd4:	07f50713          	addi	a4,a0,127
80008dd8:	0ce05e63          	blez	a4,80008eb4 <__divsf3+0x2c4>
/home/hqfang/workspace/software/riscv-gnu-toolchain/riscv-gcc/libgcc/soft-fp/divsf3.c:47 (discriminator 6)
80008ddc:	00747793          	andi	a5,s0,7
80008de0:	00078a63          	beqz	a5,80008df4 <__divsf3+0x204>
/home/hqfang/workspace/software/riscv-gnu-toolchain/riscv-gcc/libgcc/soft-fp/divsf3.c:47 (discriminator 8)
80008de4:	00f47793          	andi	a5,s0,15
80008de8:	00400693          	li	a3,4
80008dec:	00d78463          	beq	a5,a3,80008df4 <__divsf3+0x204>
/home/hqfang/workspace/software/riscv-gnu-toolchain/riscv-gcc/libgcc/soft-fp/divsf3.c:47 (discriminator 10)
80008df0:	00440413          	addi	s0,s0,4
/home/hqfang/workspace/software/riscv-gnu-toolchain/riscv-gcc/libgcc/soft-fp/divsf3.c:47 (discriminator 9)
80008df4:	080007b7          	lui	a5,0x8000
80008df8:	00f477b3          	and	a5,s0,a5
80008dfc:	00078a63          	beqz	a5,80008e10 <__divsf3+0x220>
/home/hqfang/workspace/software/riscv-gnu-toolchain/riscv-gcc/libgcc/soft-fp/divsf3.c:47 (discriminator 24)
80008e00:	f80007b7          	lui	a5,0xf8000
80008e04:	fff78793          	addi	a5,a5,-1 # f7ffffff <_sp+0x67feffff>
80008e08:	00f47433          	and	s0,s0,a5
80008e0c:	08050713          	addi	a4,a0,128
/home/hqfang/workspace/software/riscv-gnu-toolchain/riscv-gcc/libgcc/soft-fp/divsf3.c:47 (discriminator 26)
80008e10:	0fe00793          	li	a5,254
80008e14:	00345413          	srli	s0,s0,0x3
80008e18:	06e7cc63          	blt	a5,a4,80008e90 <__divsf3+0x2a0>
/home/hqfang/workspace/software/riscv-gnu-toolchain/riscv-gcc/libgcc/soft-fp/divsf3.c:47 (discriminator 111)
80008e1c:	01771793          	slli	a5,a4,0x17
80008e20:	00941413          	slli	s0,s0,0x9
80008e24:	7f800737          	lui	a4,0x7f800
80008e28:	00e7f7b3          	and	a5,a5,a4
80008e2c:	00945413          	srli	s0,s0,0x9
80008e30:	0087e433          	or	s0,a5,s0
80008e34:	01f61513          	slli	a0,a2,0x1f
/home/hqfang/workspace/software/riscv-gnu-toolchain/riscv-gcc/libgcc/soft-fp/divsf3.c:51 (discriminator 111)
80008e38:	01c12083          	lw	ra,28(sp)
80008e3c:	00a46533          	or	a0,s0,a0
80008e40:	01812403          	lw	s0,24(sp)
80008e44:	01412483          	lw	s1,20(sp)
80008e48:	01012903          	lw	s2,16(sp)
80008e4c:	00c12983          	lw	s3,12(sp)
80008e50:	00812a03          	lw	s4,8(sp)
80008e54:	00412a83          	lw	s5,4(sp)
80008e58:	02010113          	addi	sp,sp,32
80008e5c:	00008067          	ret
/home/hqfang/workspace/software/riscv-gnu-toolchain/riscv-gcc/libgcc/soft-fp/divsf3.c:46 (discriminator 11)
80008e60:	01f99693          	slli	a3,s3,0x1f
80008e64:	0019d993          	srli	s3,s3,0x1
80008e68:	eddff06f          	j	80008d44 <__divsf3+0x154>
/home/hqfang/workspace/software/riscv-gnu-toolchain/riscv-gcc/libgcc/soft-fp/divsf3.c:44 (discriminator 8)
80008e6c:	00090613          	mv	a2,s2
/home/hqfang/workspace/software/riscv-gnu-toolchain/riscv-gcc/libgcc/soft-fp/divsf3.c:46 (discriminator 8)
80008e70:	00098413          	mv	s0,s3
80008e74:	000a8793          	mv	a5,s5
/home/hqfang/workspace/software/riscv-gnu-toolchain/riscv-gcc/libgcc/soft-fp/divsf3.c:47 (discriminator 35)
80008e78:	00300713          	li	a4,3
80008e7c:	08e78863          	beq	a5,a4,80008f0c <__divsf3+0x31c>
/home/hqfang/workspace/software/riscv-gnu-toolchain/riscv-gcc/libgcc/soft-fp/divsf3.c:47
80008e80:	00100713          	li	a4,1
80008e84:	08e78c63          	beq	a5,a4,80008f1c <__divsf3+0x32c>
80008e88:	00200713          	li	a4,2
80008e8c:	f4e794e3          	bne	a5,a4,80008dd4 <__divsf3+0x1e4>
80008e90:	00000413          	li	s0,0
80008e94:	0ff00713          	li	a4,255
80008e98:	f85ff06f          	j	80008e1c <__divsf3+0x22c>
/home/hqfang/workspace/software/riscv-gnu-toolchain/riscv-gcc/libgcc/soft-fp/divsf3.c:45 (discriminator 5)
80008e9c:	000a0613          	mv	a2,s4
/home/hqfang/workspace/software/riscv-gnu-toolchain/riscv-gcc/libgcc/soft-fp/divsf3.c:46 (discriminator 5)
80008ea0:	fd9ff06f          	j	80008e78 <__divsf3+0x288>
/home/hqfang/workspace/software/riscv-gnu-toolchain/riscv-gcc/libgcc/soft-fp/divsf3.c:46
80008ea4:	00400437          	lui	s0,0x400
80008ea8:	00000613          	li	a2,0
80008eac:	00300793          	li	a5,3
80008eb0:	fc9ff06f          	j	80008e78 <__divsf3+0x288>
/home/hqfang/workspace/software/riscv-gnu-toolchain/riscv-gcc/libgcc/soft-fp/divsf3.c:47 (discriminator 59)
80008eb4:	00100793          	li	a5,1
80008eb8:	40e787b3          	sub	a5,a5,a4
80008ebc:	01b00713          	li	a4,27
80008ec0:	04f74e63          	blt	a4,a5,80008f1c <__divsf3+0x32c>
/home/hqfang/workspace/software/riscv-gnu-toolchain/riscv-gcc/libgcc/soft-fp/divsf3.c:47 (discriminator 60)
80008ec4:	09e50513          	addi	a0,a0,158
80008ec8:	00f457b3          	srl	a5,s0,a5
80008ecc:	00a41433          	sll	s0,s0,a0
80008ed0:	00803433          	snez	s0,s0
80008ed4:	0087e433          	or	s0,a5,s0
80008ed8:	00747793          	andi	a5,s0,7
80008edc:	00078a63          	beqz	a5,80008ef0 <__divsf3+0x300>
/home/hqfang/workspace/software/riscv-gnu-toolchain/riscv-gcc/libgcc/soft-fp/divsf3.c:47 (discriminator 68)
80008ee0:	00f47793          	andi	a5,s0,15
80008ee4:	00400713          	li	a4,4
80008ee8:	00e78463          	beq	a5,a4,80008ef0 <__divsf3+0x300>
/home/hqfang/workspace/software/riscv-gnu-toolchain/riscv-gcc/libgcc/soft-fp/divsf3.c:47 (discriminator 70)
80008eec:	00440413          	addi	s0,s0,4 # 400004 <dhry_stubs.c.aa5f359a+0x3fc429>
/home/hqfang/workspace/software/riscv-gnu-toolchain/riscv-gcc/libgcc/soft-fp/divsf3.c:47 (discriminator 69)
80008ef0:	040007b7          	lui	a5,0x4000
80008ef4:	00f477b3          	and	a5,s0,a5
80008ef8:	00345413          	srli	s0,s0,0x3
80008efc:	02078263          	beqz	a5,80008f20 <__divsf3+0x330>
/home/hqfang/workspace/software/riscv-gnu-toolchain/riscv-gcc/libgcc/soft-fp/divsf3.c:47
80008f00:	00000413          	li	s0,0
80008f04:	00100713          	li	a4,1
80008f08:	f15ff06f          	j	80008e1c <__divsf3+0x22c>
80008f0c:	00400437          	lui	s0,0x400
80008f10:	0ff00713          	li	a4,255
80008f14:	00000613          	li	a2,0
80008f18:	f05ff06f          	j	80008e1c <__divsf3+0x22c>
80008f1c:	00000413          	li	s0,0
80008f20:	00000713          	li	a4,0
80008f24:	ef9ff06f          	j	80008e1c <__divsf3+0x22c>

80008f28 <__floatsisf>:
__floatsisf():
/home/hqfang/workspace/software/riscv-gnu-toolchain/riscv-gcc/libgcc/soft-fp/floatsisf.c:36
80008f28:	ff010113          	addi	sp,sp,-16
80008f2c:	00112623          	sw	ra,12(sp)
80008f30:	00812423          	sw	s0,8(sp)
80008f34:	00912223          	sw	s1,4(sp)
/home/hqfang/workspace/software/riscv-gnu-toolchain/riscv-gcc/libgcc/soft-fp/floatsisf.c:42
80008f38:	0e050663          	beqz	a0,80009024 <__floatsisf+0xfc>
/home/hqfang/workspace/software/riscv-gnu-toolchain/riscv-gcc/libgcc/soft-fp/floatsisf.c:42 (discriminator 1)
80008f3c:	41f55793          	srai	a5,a0,0x1f
80008f40:	00a7c433          	xor	s0,a5,a0
80008f44:	40f40433          	sub	s0,s0,a5
80008f48:	01f55493          	srli	s1,a0,0x1f
80008f4c:	00040513          	mv	a0,s0
80008f50:	821ff0ef          	jal	ra,80008770 <__clzsi2>
80008f54:	09e00793          	li	a5,158
80008f58:	00050713          	mv	a4,a0
80008f5c:	40a78533          	sub	a0,a5,a0
80008f60:	09600793          	li	a5,150
80008f64:	04a7c063          	blt	a5,a0,80008fa4 <__floatsisf+0x7c>
/home/hqfang/workspace/software/riscv-gnu-toolchain/riscv-gcc/libgcc/soft-fp/floatsisf.c:42 (discriminator 28)
80008f68:	00800793          	li	a5,8
80008f6c:	00e7d663          	bge	a5,a4,80008f78 <__floatsisf+0x50>
/home/hqfang/workspace/software/riscv-gnu-toolchain/riscv-gcc/libgcc/soft-fp/floatsisf.c:42 (discriminator 35)
80008f70:	ff870713          	addi	a4,a4,-8 # 7f7ffff8 <dhry_stubs.c.aa5f359a+0x7f7fc41d>
80008f74:	00e41433          	sll	s0,s0,a4
/home/hqfang/workspace/software/riscv-gnu-toolchain/riscv-gcc/libgcc/soft-fp/floatsisf.c:43 (discriminator 140)
80008f78:	00941413          	slli	s0,s0,0x9
80008f7c:	01751513          	slli	a0,a0,0x17
80008f80:	00945413          	srli	s0,s0,0x9
80008f84:	00856433          	or	s0,a0,s0
80008f88:	01f49513          	slli	a0,s1,0x1f
/home/hqfang/workspace/software/riscv-gnu-toolchain/riscv-gcc/libgcc/soft-fp/floatsisf.c:47 (discriminator 140)
80008f8c:	00c12083          	lw	ra,12(sp)
80008f90:	00a46533          	or	a0,s0,a0
80008f94:	00812403          	lw	s0,8(sp)
80008f98:	00412483          	lw	s1,4(sp)
80008f9c:	01010113          	addi	sp,sp,16
80008fa0:	00008067          	ret
/home/hqfang/workspace/software/riscv-gnu-toolchain/riscv-gcc/libgcc/soft-fp/floatsisf.c:42 (discriminator 29)
80008fa4:	09900793          	li	a5,153
80008fa8:	02a7d063          	bge	a5,a0,80008fc8 <__floatsisf+0xa0>
/home/hqfang/workspace/software/riscv-gnu-toolchain/riscv-gcc/libgcc/soft-fp/floatsisf.c:42 (discriminator 38)
80008fac:	00500793          	li	a5,5
80008fb0:	40e787b3          	sub	a5,a5,a4
80008fb4:	01b70693          	addi	a3,a4,27
80008fb8:	00f457b3          	srl	a5,s0,a5
80008fbc:	00d41433          	sll	s0,s0,a3
80008fc0:	00803433          	snez	s0,s0
80008fc4:	0087e433          	or	s0,a5,s0
/home/hqfang/workspace/software/riscv-gnu-toolchain/riscv-gcc/libgcc/soft-fp/floatsisf.c:42 (discriminator 40)
80008fc8:	00500793          	li	a5,5
80008fcc:	00e7d663          	bge	a5,a4,80008fd8 <__floatsisf+0xb0>
/home/hqfang/workspace/software/riscv-gnu-toolchain/riscv-gcc/libgcc/soft-fp/floatsisf.c:42 (discriminator 46)
80008fd0:	ffb70793          	addi	a5,a4,-5
80008fd4:	00f41433          	sll	s0,s0,a5
/home/hqfang/workspace/software/riscv-gnu-toolchain/riscv-gcc/libgcc/soft-fp/floatsisf.c:42 (discriminator 48)
80008fd8:	fc0006b7          	lui	a3,0xfc000
80008fdc:	fff68693          	addi	a3,a3,-1 # fbffffff <_sp+0x6bfeffff>
80008fe0:	00747793          	andi	a5,s0,7
80008fe4:	00d476b3          	and	a3,s0,a3
80008fe8:	00078a63          	beqz	a5,80008ffc <__floatsisf+0xd4>
/home/hqfang/workspace/software/riscv-gnu-toolchain/riscv-gcc/libgcc/soft-fp/floatsisf.c:42 (discriminator 89)
80008fec:	00f47413          	andi	s0,s0,15
80008ff0:	00400793          	li	a5,4
80008ff4:	00f40463          	beq	s0,a5,80008ffc <__floatsisf+0xd4>
/home/hqfang/workspace/software/riscv-gnu-toolchain/riscv-gcc/libgcc/soft-fp/floatsisf.c:42 (discriminator 93)
80008ff8:	00468693          	addi	a3,a3,4
/home/hqfang/workspace/software/riscv-gnu-toolchain/riscv-gcc/libgcc/soft-fp/floatsisf.c:42 (discriminator 96)
80008ffc:	040007b7          	lui	a5,0x4000
80009000:	00f6f7b3          	and	a5,a3,a5
80009004:	00078c63          	beqz	a5,8000901c <__floatsisf+0xf4>
/home/hqfang/workspace/software/riscv-gnu-toolchain/riscv-gcc/libgcc/soft-fp/floatsisf.c:42 (discriminator 112)
80009008:	fc0007b7          	lui	a5,0xfc000
8000900c:	fff78793          	addi	a5,a5,-1 # fbffffff <_sp+0x6bfeffff>
80009010:	00f6f6b3          	and	a3,a3,a5
80009014:	09f00793          	li	a5,159
80009018:	40e78533          	sub	a0,a5,a4
/home/hqfang/workspace/software/riscv-gnu-toolchain/riscv-gcc/libgcc/soft-fp/floatsisf.c:42 (discriminator 128)
8000901c:	0036d413          	srli	s0,a3,0x3
80009020:	f59ff06f          	j	80008f78 <__floatsisf+0x50>
/home/hqfang/workspace/software/riscv-gnu-toolchain/riscv-gcc/libgcc/soft-fp/floatsisf.c:42
80009024:	00000493          	li	s1,0
80009028:	00000413          	li	s0,0
8000902c:	f4dff06f          	j	80008f78 <__floatsisf+0x50>

80009030 <__extendsfdf2>:
__extendsfdf2():
/home/hqfang/workspace/software/riscv-gnu-toolchain/riscv-gcc/libgcc/soft-fp/extendsfdf2.c:45
80009030:	01755713          	srli	a4,a0,0x17
80009034:	0ff77713          	andi	a4,a4,255
/home/hqfang/workspace/software/riscv-gnu-toolchain/riscv-gcc/libgcc/soft-fp/extendsfdf2.c:38
80009038:	ff010113          	addi	sp,sp,-16
/home/hqfang/workspace/software/riscv-gnu-toolchain/riscv-gcc/libgcc/soft-fp/extendsfdf2.c:47
8000903c:	00170793          	addi	a5,a4,1
/home/hqfang/workspace/software/riscv-gnu-toolchain/riscv-gcc/libgcc/soft-fp/extendsfdf2.c:38
80009040:	00812423          	sw	s0,8(sp)
80009044:	00912223          	sw	s1,4(sp)
/home/hqfang/workspace/software/riscv-gnu-toolchain/riscv-gcc/libgcc/soft-fp/extendsfdf2.c:45
80009048:	00951413          	slli	s0,a0,0x9
/home/hqfang/workspace/software/riscv-gnu-toolchain/riscv-gcc/libgcc/soft-fp/extendsfdf2.c:38
8000904c:	00112623          	sw	ra,12(sp)
/home/hqfang/workspace/software/riscv-gnu-toolchain/riscv-gcc/libgcc/soft-fp/extendsfdf2.c:47
80009050:	0fe7f793          	andi	a5,a5,254
/home/hqfang/workspace/software/riscv-gnu-toolchain/riscv-gcc/libgcc/soft-fp/extendsfdf2.c:45
80009054:	00945413          	srli	s0,s0,0x9
80009058:	01f55493          	srli	s1,a0,0x1f
/home/hqfang/workspace/software/riscv-gnu-toolchain/riscv-gcc/libgcc/soft-fp/extendsfdf2.c:47
8000905c:	04078263          	beqz	a5,800090a0 <__extendsfdf2+0x70>
/home/hqfang/workspace/software/riscv-gnu-toolchain/riscv-gcc/libgcc/soft-fp/extendsfdf2.c:47 (discriminator 1)
80009060:	00345793          	srli	a5,s0,0x3
80009064:	38070713          	addi	a4,a4,896
80009068:	01d41413          	slli	s0,s0,0x1d
/home/hqfang/workspace/software/riscv-gnu-toolchain/riscv-gcc/libgcc/soft-fp/extendsfdf2.c:51 (discriminator 53)
8000906c:	00c79793          	slli	a5,a5,0xc
80009070:	01471713          	slli	a4,a4,0x14
80009074:	00c7d793          	srli	a5,a5,0xc
80009078:	01f49513          	slli	a0,s1,0x1f
8000907c:	00f767b3          	or	a5,a4,a5
/home/hqfang/workspace/software/riscv-gnu-toolchain/riscv-gcc/libgcc/soft-fp/extendsfdf2.c:55 (discriminator 53)
80009080:	00c12083          	lw	ra,12(sp)
/home/hqfang/workspace/software/riscv-gnu-toolchain/riscv-gcc/libgcc/soft-fp/extendsfdf2.c:51 (discriminator 53)
80009084:	00a7e733          	or	a4,a5,a0
/home/hqfang/workspace/software/riscv-gnu-toolchain/riscv-gcc/libgcc/soft-fp/extendsfdf2.c:55 (discriminator 53)
80009088:	00040513          	mv	a0,s0
8000908c:	00812403          	lw	s0,8(sp)
80009090:	00412483          	lw	s1,4(sp)
80009094:	00070593          	mv	a1,a4
80009098:	01010113          	addi	sp,sp,16
8000909c:	00008067          	ret
/home/hqfang/workspace/software/riscv-gnu-toolchain/riscv-gcc/libgcc/soft-fp/extendsfdf2.c:47 (discriminator 2)
800090a0:	04071663          	bnez	a4,800090ec <__extendsfdf2+0xbc>
/home/hqfang/workspace/software/riscv-gnu-toolchain/riscv-gcc/libgcc/soft-fp/extendsfdf2.c:47 (discriminator 12)
800090a4:	00000793          	li	a5,0
800090a8:	fc0402e3          	beqz	s0,8000906c <__extendsfdf2+0x3c>
/home/hqfang/workspace/software/riscv-gnu-toolchain/riscv-gcc/libgcc/soft-fp/extendsfdf2.c:47 (discriminator 16)
800090ac:	00040513          	mv	a0,s0
800090b0:	ec0ff0ef          	jal	ra,80008770 <__clzsi2>
800090b4:	00a00793          	li	a5,10
800090b8:	02a7c263          	blt	a5,a0,800090dc <__extendsfdf2+0xac>
/home/hqfang/workspace/software/riscv-gnu-toolchain/riscv-gcc/libgcc/soft-fp/extendsfdf2.c:47 (discriminator 29)
800090bc:	00b00793          	li	a5,11
800090c0:	40a787b3          	sub	a5,a5,a0
800090c4:	01550713          	addi	a4,a0,21
800090c8:	00f457b3          	srl	a5,s0,a5
800090cc:	00e41433          	sll	s0,s0,a4
/home/hqfang/workspace/software/riscv-gnu-toolchain/riscv-gcc/libgcc/soft-fp/extendsfdf2.c:47 (discriminator 38)
800090d0:	38900713          	li	a4,905
800090d4:	40a70733          	sub	a4,a4,a0
800090d8:	f95ff06f          	j	8000906c <__extendsfdf2+0x3c>
/home/hqfang/workspace/software/riscv-gnu-toolchain/riscv-gcc/libgcc/soft-fp/extendsfdf2.c:47 (discriminator 30)
800090dc:	ff550793          	addi	a5,a0,-11
800090e0:	00f417b3          	sll	a5,s0,a5
800090e4:	00000413          	li	s0,0
800090e8:	fe9ff06f          	j	800090d0 <__extendsfdf2+0xa0>
/home/hqfang/workspace/software/riscv-gnu-toolchain/riscv-gcc/libgcc/soft-fp/extendsfdf2.c:47 (discriminator 9)
800090ec:	00000793          	li	a5,0
800090f0:	00040a63          	beqz	s0,80009104 <__extendsfdf2+0xd4>
/home/hqfang/workspace/software/riscv-gnu-toolchain/riscv-gcc/libgcc/soft-fp/extendsfdf2.c:47 (discriminator 39)
800090f4:	00345793          	srli	a5,s0,0x3
800090f8:	00080737          	lui	a4,0x80
800090fc:	01d41413          	slli	s0,s0,0x1d
80009100:	00e7e7b3          	or	a5,a5,a4
/home/hqfang/workspace/software/riscv-gnu-toolchain/riscv-gcc/libgcc/soft-fp/extendsfdf2.c:47
80009104:	7ff00713          	li	a4,2047
80009108:	f65ff06f          	j	8000906c <__extendsfdf2+0x3c>
