
hellow_test.elf:     file format elf32-littleriscv
hellow_test.elf
architecture: riscv:rv32, flags 0x00000112:
EXEC_P, HAS_SYMS, D_PAGED
start address 0x80000000

Program Header:
    LOAD off    0x00001000 vaddr 0x80000000 paddr 0x80000000 align 2**12
         filesz 0x00004440 memsz 0x00004440 flags r-x
    LOAD off    0x00006000 vaddr 0x90000000 paddr 0x80004440 align 2**12
         filesz 0x00000074 memsz 0x00000074 flags rw-
    LOAD off    0x00000074 vaddr 0x90000074 paddr 0x90000074 align 2**12
         filesz 0x00000000 memsz 0x00000134 flags rw-
    LOAD off    0x00000800 vaddr 0x9000f800 paddr 0x900001a8 align 2**12
         filesz 0x00000000 memsz 0x00000800 flags rw-

Sections:
Idx Name              Size      VMA       LMA       File off  Algn  Flags
  0 .init             000000cc  80000000  80000000  00001000  2**0  CONTENTS, ALLOC, LOAD, READONLY, CODE
  1 .ilalign          00000000  800000cc  800000cc  00006074  2**0  CONTENTS
  2 .text             00003c6c  800000cc  800000cc  000010cc  2**2  CONTENTS, ALLOC, LOAD, READONLY, CODE
  3 .rodata           00000708  80003d38  80003d38  00004d38  2**2  CONTENTS, ALLOC, LOAD, READONLY, DATA
  4 .lalign           00000000  80004440  80004440  00006074  2**0  CONTENTS
  5 .dalign           00000000  90000000  90000000  00006074  2**0  CONTENTS
  6 .data             00000074  90000000  80004440  00006000  2**2  CONTENTS, ALLOC, LOAD, DATA
  7 .bss              00000134  90000074  90000074  00006074  2**2  ALLOC
  8 .stack            00000800  9000f800  900001a8  00006800  2**0  ALLOC
  9 .debug_info       00004ba1  00000000  00000000  00006074  2**0  CONTENTS, READONLY, DEBUGGING, OCTETS
 10 .debug_abbrev     00001379  00000000  00000000  0000ac15  2**0  CONTENTS, READONLY, DEBUGGING, OCTETS
 11 .debug_loc        00002ae5  00000000  00000000  0000bf8e  2**0  CONTENTS, READONLY, DEBUGGING, OCTETS
 12 .debug_aranges    000003c0  00000000  00000000  0000ea78  2**3  CONTENTS, READONLY, DEBUGGING, OCTETS
 13 .debug_ranges     00000e68  00000000  00000000  0000ee38  2**0  CONTENTS, READONLY, DEBUGGING, OCTETS
 14 .debug_line       00006e44  00000000  00000000  0000fca0  2**0  CONTENTS, READONLY, DEBUGGING, OCTETS
 15 .debug_str        000014f3  00000000  00000000  00016ae4  2**0  CONTENTS, READONLY, DEBUGGING, OCTETS
 16 .comment          00000012  00000000  00000000  00017fd7  2**0  CONTENTS, READONLY
 17 .riscv.attributes 00000025  00000000  00000000  00017fe9  2**0  CONTENTS, READONLY
 18 .debug_frame      00000620  00000000  00000000  00018010  2**2  CONTENTS, READONLY, DEBUGGING, OCTETS
SYMBOL TABLE:
80000000 l    d  .init	00000000 .init
800000cc l    d  .ilalign	00000000 .ilalign
800000cc l    d  .text	00000000 .text
80003d38 l    d  .rodata	00000000 .rodata
80004440 l    d  .lalign	00000000 .lalign
90000000 l    d  .dalign	00000000 .dalign
90000000 l    d  .data	00000000 .data
90000074 l    d  .bss	00000000 .bss
9000f800 l    d  .stack	00000000 .stack
00000000 l    d  .debug_info	00000000 .debug_info
00000000 l    d  .debug_abbrev	00000000 .debug_abbrev
00000000 l    d  .debug_loc	00000000 .debug_loc
00000000 l    d  .debug_aranges	00000000 .debug_aranges
00000000 l    d  .debug_ranges	00000000 .debug_ranges
00000000 l    d  .debug_line	00000000 .debug_line
00000000 l    d  .debug_str	00000000 .debug_str
00000000 l    d  .comment	00000000 .comment
00000000 l    d  .riscv.attributes	00000000 .riscv.attributes
00000000 l    d  .debug_frame	00000000 .debug_frame
00000000 l    df *ABS*	00000000 demo_nice.c
00000000 l    df *ABS*	00000000 close.c
00000000 l    df *ABS*	00000000 fstat.c
00000000 l    df *ABS*	00000000 isatty.c
00000000 l    df *ABS*	00000000 lseek.c
00000000 l    df *ABS*	00000000 read.c
00000000 l    df *ABS*	00000000 sbrk.c
90000060 l     O .data	00000004 curbrk.0
00000000 l    df *ABS*	00000000 write.c
00000000 l    df *ABS*	00000000 hbirdv2_gpio.c
00000000 l    df *ABS*	00000000 hbirdv2_uart.c
00000000 l    df *ABS*	00000000 hbirdv2_common.c
00000000 l    df *ABS*	00000000 system_hbirdv2.c
80000d90 l     F .text	00000050 system_default_exception_handler
80000de0 l     F .text	00000058 system_default_interrupt_handler
90000084 l     O .bss	00000028 SystemCoreInterruptHandlers
900000ac l     O .bss	0000002c SystemExceptionHandlers
900000d8 l     O .bss	00000044 SystemExtInterruptHandlers
00000000 l    df *ABS*	00000000 insn.c
00000000 l    df *ABS*	00000000 libgcc2.c
00000000 l    df *ABS*	00000000 atexit.c
00000000 l    df *ABS*	00000000 fini.c
00000000 l    df *ABS*	00000000 init.c
00000000 l    df *ABS*	00000000 printf.c
00000000 l    df *ABS*	00000000 puts.c
00000000 l    df *ABS*	00000000 sysisatty.c
00000000 l    df *ABS*	00000000 wbuf.c
00000000 l    df *ABS*	00000000 wsetup.c
00000000 l    df *ABS*	00000000 __atexit.c
9000011c l     O .bss	0000008c _global_atexit0
00000000 l    df *ABS*	00000000 fflush.c
00000000 l    df *ABS*	00000000 findfp.c
80002844 l     F .text	00000088 std
00000000 l    df *ABS*	00000000 fwalk.c
00000000 l    df *ABS*	00000000 makebuf.c
00000000 l    df *ABS*	00000000 nano-mallocr.c
00000000 l    df *ABS*	00000000 nano-mallocr.c
00000000 l    df *ABS*	00000000 nano-vfprintf.c
80003034 l     F .text	0000003c __sfputc_r
00000000 l    df *ABS*	00000000 sbrkr.c
00000000 l    df *ABS*	00000000 stdio.c
00000000 l    df *ABS*	00000000 writer.c
00000000 l    df *ABS*	00000000 closer.c
00000000 l    df *ABS*	00000000 fstatr.c
00000000 l    df *ABS*	00000000 isattyr.c
00000000 l    df *ABS*	00000000 lseekr.c
00000000 l    df *ABS*	00000000 memchr.c
00000000 l    df *ABS*	00000000 mlock.c
00000000 l    df *ABS*	00000000 nano-vfprintf_i.c
00000000 l    df *ABS*	00000000 readr.c
00000000 l    df *ABS*	00000000 libgcc2.c
00000000 l    df *ABS*	00000000 impure.c
90000000 l     O .data	00000060 impure_data
00000000 l    df *ABS*	00000000 
80004440 l       .rodata	00000000 __fini_array_end
80004440 l       .rodata	00000000 __fini_array_start
80004440 l       .rodata	00000000 __init_array_end
80004440 l       .rodata	00000000 __preinit_array_end
80004440 l       .rodata	00000000 __init_array_start
80004440 l       .rodata	00000000 __preinit_array_start
800036e8 g     F .text	00000040 _isatty_r
800020f4 g     F .text	00000160 _puts_r
80003728 g     F .text	00000048 _lseek_r
80002088 g     F .text	0000006c printf
90000860 g       .data	00000000 __global_pointer$
800035bc g     F .text	00000058 __sseek
80002944 g     F .text	000000b0 __sinit
80002264 g     F .text	00000138 __swbuf_r
800028d8 g     F .text	0000006c __sfmoreglue
80003798 g     F .text	00000004 __malloc_unlock
800036a4 g     F .text	00000044 _fstat_r
90000074 g     O .bss	00000004 errno
00000800 g       *ABS*	00000000 __stack_size
800009c0 g     F .text	0000007c uart_write
80004440 g       .rodata	00000000 __rt_init_start
80004440 g       .rodata	00000000 __fsymtab_end
800000cc g       .ilalign	00000000 _ilm_lma
800028cc g     F .text	0000000c _cleanup_r
80002254 g     F .text	0000000c puts
80004440 g       .rodata	00000000 __rt_init_end
90000064 g     O .data	00000004 SystemCoreClock
80002260 g     F .text	00000004 isatty
8000047c  w    F .text	0000002c _fstat
80000ab4 g     F .text	000002dc get_cpu_freq
800034a8 g     F .text	00000040 _sbrk_r
80003cf0 g     F .text	00000048 _read_r
80004440 g       .rodata	00000000 _eilm
9000f800 g       .stack	00000000 _heap_end
800004a8  w    F .text	00000008 _isatty
90000070 g     O .data	00000004 _global_impure_ptr
80001ff4 g     F .text	00000094 __libc_init_array
80001b54 g     F .text	00000434 .hidden __udivdi3
800004f8  w    F .text	0000003c _sbrk
800012b0 g     F .text	00000004 _init
80001f9c g     F .text	00000058 __libc_fini_array
800000cc g       .ilalign	00000000 _ilm
80000f4c g     F .text	00000360 _premain_init
8000434c g     O .rodata	00000020 __sf_fake_stderr
80000e48 g     F .text	00000104 core_trap_handler
80003070 g     F .text	00000074 __sfputs_r
8000096c g     F .text	00000054 uart_init
80003770 g     F .text	00000024 memchr
80002de8 g     F .text	000000fc _free_r
90000078 g     O .bss	00000004 _global_atexit
90010000 g       .stack	00000000 _sp
80000000 g     F .init	00000000 _start
800004b0  w    F .text	00000008 _lseek
80002510 g     F .text	000000a0 __register_exitproc
80003664 g     F .text	00000040 _close_r
80001b14 g     F .text	00000040 nice_case
8000239c g     F .text	00000174 __swsetup_r
800029f4 g     F .text	000000e8 __sfp
800034e8 g     F .text	00000050 __sread
800012b8 g     F .text	0000085c normal_case
80003794 g     F .text	00000004 __malloc_lock
800027a4 g     F .text	000000a0 _fflush_r
8000436c g     O .rodata	00000020 __sf_fake_stdin
90000074 g       .bss	00000000 __bss_start
80002d0c g     F .text	000000dc memset
800000cc g     F .text	000003a0 main
80000878  w      .text	00000000 trap_entry
80003614 g     F .text	00000008 __sclose
80002ee4 g     F .text	00000150 _malloc_r
80004440 g       .rodata	00000000 __vsymtab_start
80000e38 g     F .text	00000010 SystemInit
800012b4 g     F .text	00000004 _fini
80002088 g     F .text	0000006c iprintf
8000424c g     O .rodata	00000100 .hidden __clz_tab
80001f88 g     F .text	00000014 atexit
8000361c g     F .text	00000048 _write_r
800040cc g     O .rodata	00000080 CK
8000379c g     F .text	000001b0 _printf_common
90000068 g     O .data	00000004 _impure_ptr
800025b0 g     F .text	000001f4 __sflush_r
90000000 g       .dalign	00000000 _data
80004440 g       .rodata	00000000 __vsymtab_end
80002b8c g     F .text	00000090 __swhatbuf_r
80000534  w    F .text	00000344 _write
90000074 g       .bss	00000000 _edata
800012ac g     F .text	00000004 _postmain_fini
900001a8 g       .bss	00000000 _end
80004440 g       .lalign	00000000 _data_lma
80000a3c g     F .text	00000078 uart_read
80003538 g     F .text	00000084 __swrite
800030e4 g     F .text	000003c4 _vfiprintf_r
80002adc g     F .text	000000b0 _fwalk_reent
8000438c g     O .rodata	00000020 __sf_fake_stdout
800004b8  w    F .text	00000040 _read
80002c1c g     F .text	000000f0 __smakebuf_r
8000414c g     O .rodata	00000100 Sbox
8000394c g     F .text	000003a4 _printf_i
90000080 g     O .bss	00000004 __malloc_sbrk_start
9000007c g     O .bss	00000004 __malloc_free_list
80004440 g       .rodata	00000000 __fsymtab_start
800030e4 g     F .text	000003c4 _vfprintf_r
80000948 g     F .text	00000024 gpio_iof_config
8000046c  w    F .text	00000010 _close



Disassembly of section .init:

80000000 <_start>:
_start():
E:\VMshare\e203\zhengdian_E203\sdk\hellow_test\Debug/../hbird_sdk/SoC/hbirdv2/Common/Source/GCC/startup_hbirdv2.S:40
 * Reset Handler called on controller reset
 */
_start:
    /* ===== Startup Stage 1 ===== */
    /* Disable Global Interrupt */
    csrc CSR_MSTATUS, MSTATUS_MIE
80000000:	30047073          	csrci	mstatus,8
E:\VMshare\e203\zhengdian_E203\sdk\hellow_test\Debug/../hbird_sdk/SoC/hbirdv2/Common/Source/GCC/startup_hbirdv2.S:42
    /* Disable all interrupts controlled by CSR MIE */
    csrw CSR_MIE, 0x0
80000004:	30405073          	csrwi	mie,0
E:\VMshare\e203\zhengdian_E203\sdk\hellow_test\Debug/../hbird_sdk/SoC/hbirdv2/Common/Source/GCC/startup_hbirdv2.S:47

    /* Initialize GP and Stack Pointer SP */
    .option push
    .option norelax
    la gp, __global_pointer$
80000008:	10001197          	auipc	gp,0x10001
8000000c:	85818193          	addi	gp,gp,-1960 # 90000860 <__global_pointer$>
E:\VMshare\e203\zhengdian_E203\sdk\hellow_test\Debug/../hbird_sdk/SoC/hbirdv2/Common/Source/GCC/startup_hbirdv2.S:49
    .option pop
    la sp, _sp
80000010:	10010117          	auipc	sp,0x10010
80000014:	ff010113          	addi	sp,sp,-16 # 90010000 <_sp>
E:\VMshare\e203\zhengdian_E203\sdk\hellow_test\Debug/../hbird_sdk/SoC/hbirdv2/Common/Source/GCC/startup_hbirdv2.S:54

    /*
     * Set Trap Entry MTVEC to trap_entry
     */
    la t0, trap_entry
80000018:	00001297          	auipc	t0,0x1
8000001c:	86028293          	addi	t0,t0,-1952 # 80000878 <trap_entry>
E:\VMshare\e203\zhengdian_E203\sdk\hellow_test\Debug/../hbird_sdk/SoC/hbirdv2/Common/Source/GCC/startup_hbirdv2.S:55
    csrw CSR_MTVEC, t0
80000020:	30529073          	csrw	mtvec,t0
E:\VMshare\e203\zhengdian_E203\sdk\hellow_test\Debug/../hbird_sdk/SoC/hbirdv2/Common/Source/GCC/startup_hbirdv2.S:58

    /* Direct Mode: All exceptions set pc to BASE. */
    csrc CSR_MTVEC, 0x3
80000024:	3051f073          	csrci	mtvec,3
E:\VMshare\e203\zhengdian_E203\sdk\hellow_test\Debug/../hbird_sdk/SoC/hbirdv2/Common/Source/GCC/startup_hbirdv2.S:74
    /* ===== Startup Stage 3 ===== */
    /*
     * Load code section frm FLASH to ILM
     * when code LMA is different with VMA
     */
    la a0, _ilm_lma
80000028:	00000517          	auipc	a0,0x0
8000002c:	0a450513          	addi	a0,a0,164 # 800000cc <main>
E:\VMshare\e203\zhengdian_E203\sdk\hellow_test\Debug/../hbird_sdk/SoC/hbirdv2/Common/Source/GCC/startup_hbirdv2.S:75
    la a1, _ilm
80000030:	00000597          	auipc	a1,0x0
80000034:	09c58593          	addi	a1,a1,156 # 800000cc <main>
E:\VMshare\e203\zhengdian_E203\sdk\hellow_test\Debug/../hbird_sdk/SoC/hbirdv2/Common/Source/GCC/startup_hbirdv2.S:77
    /* If the ILM phy-address same as the logic-address, then quit */
    beq a0, a1, 2f
80000038:	02b50263          	beq	a0,a1,8000005c <_start+0x5c>
E:\VMshare\e203\zhengdian_E203\sdk\hellow_test\Debug/../hbird_sdk/SoC/hbirdv2/Common/Source/GCC/startup_hbirdv2.S:78
    la a2, _eilm
8000003c:	00004617          	auipc	a2,0x4
80000040:	40460613          	addi	a2,a2,1028 # 80004440 <__fsymtab_end>
E:\VMshare\e203\zhengdian_E203\sdk\hellow_test\Debug/../hbird_sdk/SoC/hbirdv2/Common/Source/GCC/startup_hbirdv2.S:79
    bgeu a1, a2, 2f
80000044:	00c5fc63          	bgeu	a1,a2,8000005c <_start+0x5c>
E:\VMshare\e203\zhengdian_E203\sdk\hellow_test\Debug/../hbird_sdk/SoC/hbirdv2/Common/Source/GCC/startup_hbirdv2.S:83

1:
    /* Load code section if necessary */
    lw t0, (a0)
80000048:	00052283          	lw	t0,0(a0)
E:\VMshare\e203\zhengdian_E203\sdk\hellow_test\Debug/../hbird_sdk/SoC/hbirdv2/Common/Source/GCC/startup_hbirdv2.S:84
    sw t0, (a1)
8000004c:	0055a023          	sw	t0,0(a1)
E:\VMshare\e203\zhengdian_E203\sdk\hellow_test\Debug/../hbird_sdk/SoC/hbirdv2/Common/Source/GCC/startup_hbirdv2.S:85
    addi a0, a0, 4
80000050:	00450513          	addi	a0,a0,4
E:\VMshare\e203\zhengdian_E203\sdk\hellow_test\Debug/../hbird_sdk/SoC/hbirdv2/Common/Source/GCC/startup_hbirdv2.S:86
    addi a1, a1, 4
80000054:	00458593          	addi	a1,a1,4
E:\VMshare\e203\zhengdian_E203\sdk\hellow_test\Debug/../hbird_sdk/SoC/hbirdv2/Common/Source/GCC/startup_hbirdv2.S:87
    bltu a1, a2, 1b
80000058:	fec5e8e3          	bltu	a1,a2,80000048 <_start+0x48>
E:\VMshare\e203\zhengdian_E203\sdk\hellow_test\Debug/../hbird_sdk/SoC/hbirdv2/Common/Source/GCC/startup_hbirdv2.S:90
2:
    /* Load data section */
    la a0, _data_lma
8000005c:	00004517          	auipc	a0,0x4
80000060:	3e450513          	addi	a0,a0,996 # 80004440 <__fsymtab_end>
E:\VMshare\e203\zhengdian_E203\sdk\hellow_test\Debug/../hbird_sdk/SoC/hbirdv2/Common/Source/GCC/startup_hbirdv2.S:91
    la a1, _data
80000064:	10000597          	auipc	a1,0x10000
80000068:	f9c58593          	addi	a1,a1,-100 # 90000000 <impure_data>
E:\VMshare\e203\zhengdian_E203\sdk\hellow_test\Debug/../hbird_sdk/SoC/hbirdv2/Common/Source/GCC/startup_hbirdv2.S:92
    la a2, _edata
8000006c:	81418613          	addi	a2,gp,-2028 # 90000074 <errno>
E:\VMshare\e203\zhengdian_E203\sdk\hellow_test\Debug/../hbird_sdk/SoC/hbirdv2/Common/Source/GCC/startup_hbirdv2.S:93
    bgeu a1, a2, 2f
80000070:	00c5fc63          	bgeu	a1,a2,80000088 <_start+0x88>
E:\VMshare\e203\zhengdian_E203\sdk\hellow_test\Debug/../hbird_sdk/SoC/hbirdv2/Common/Source/GCC/startup_hbirdv2.S:95
1:
    lw t0, (a0)
80000074:	00052283          	lw	t0,0(a0)
E:\VMshare\e203\zhengdian_E203\sdk\hellow_test\Debug/../hbird_sdk/SoC/hbirdv2/Common/Source/GCC/startup_hbirdv2.S:96
    sw t0, (a1)
80000078:	0055a023          	sw	t0,0(a1)
E:\VMshare\e203\zhengdian_E203\sdk\hellow_test\Debug/../hbird_sdk/SoC/hbirdv2/Common/Source/GCC/startup_hbirdv2.S:97
    addi a0, a0, 4
8000007c:	00450513          	addi	a0,a0,4
E:\VMshare\e203\zhengdian_E203\sdk\hellow_test\Debug/../hbird_sdk/SoC/hbirdv2/Common/Source/GCC/startup_hbirdv2.S:98
    addi a1, a1, 4
80000080:	00458593          	addi	a1,a1,4
E:\VMshare\e203\zhengdian_E203\sdk\hellow_test\Debug/../hbird_sdk/SoC/hbirdv2/Common/Source/GCC/startup_hbirdv2.S:99
    bltu a1, a2, 1b
80000084:	fec5e8e3          	bltu	a1,a2,80000074 <_start+0x74>
E:\VMshare\e203\zhengdian_E203\sdk\hellow_test\Debug/../hbird_sdk/SoC/hbirdv2/Common/Source/GCC/startup_hbirdv2.S:102
2:
    /* Clear bss section */
    la a0, __bss_start
80000088:	81418513          	addi	a0,gp,-2028 # 90000074 <errno>
E:\VMshare\e203\zhengdian_E203\sdk\hellow_test\Debug/../hbird_sdk/SoC/hbirdv2/Common/Source/GCC/startup_hbirdv2.S:103
    la a1, _end
8000008c:	94818593          	addi	a1,gp,-1720 # 900001a8 <_end>
E:\VMshare\e203\zhengdian_E203\sdk\hellow_test\Debug/../hbird_sdk/SoC/hbirdv2/Common/Source/GCC/startup_hbirdv2.S:104
    bgeu a0, a1, 2f
80000090:	00b57863          	bgeu	a0,a1,800000a0 <_start+0xa0>
E:\VMshare\e203\zhengdian_E203\sdk\hellow_test\Debug/../hbird_sdk/SoC/hbirdv2/Common/Source/GCC/startup_hbirdv2.S:106
1:
    sw zero, (a0)
80000094:	00052023          	sw	zero,0(a0)
E:\VMshare\e203\zhengdian_E203\sdk\hellow_test\Debug/../hbird_sdk/SoC/hbirdv2/Common/Source/GCC/startup_hbirdv2.S:107
    addi a0, a0, 4
80000098:	00450513          	addi	a0,a0,4
E:\VMshare\e203\zhengdian_E203\sdk\hellow_test\Debug/../hbird_sdk/SoC/hbirdv2/Common/Source/GCC/startup_hbirdv2.S:108
    bltu a0, a1, 1b
8000009c:	feb56ce3          	bltu	a0,a1,80000094 <_start+0x94>
E:\VMshare\e203\zhengdian_E203\sdk\hellow_test\Debug/../hbird_sdk/SoC/hbirdv2/Common/Source/GCC/startup_hbirdv2.S:115

    /*
     * Call vendor defined SystemInit to
     * initialize the micro-controller system
     */
    call SystemInit
800000a0:	599000ef          	jal	ra,80000e38 <SystemInit>
E:\VMshare\e203\zhengdian_E203\sdk\hellow_test\Debug/../hbird_sdk/SoC/hbirdv2/Common/Source/GCC/startup_hbirdv2.S:118

    /* Call global constructors */
    la a0, __libc_fini_array
800000a4:	00002517          	auipc	a0,0x2
800000a8:	ef850513          	addi	a0,a0,-264 # 80001f9c <__libc_fini_array>
E:\VMshare\e203\zhengdian_E203\sdk\hellow_test\Debug/../hbird_sdk/SoC/hbirdv2/Common/Source/GCC/startup_hbirdv2.S:119
    call atexit
800000ac:	6dd010ef          	jal	ra,80001f88 <atexit>
E:\VMshare\e203\zhengdian_E203\sdk\hellow_test\Debug/../hbird_sdk/SoC/hbirdv2/Common/Source/GCC/startup_hbirdv2.S:121
    /* Call C/C++ constructor start up code */
    call __libc_init_array
800000b0:	745010ef          	jal	ra,80001ff4 <__libc_init_array>
E:\VMshare\e203\zhengdian_E203\sdk\hellow_test\Debug/../hbird_sdk/SoC/hbirdv2/Common/Source/GCC/startup_hbirdv2.S:124

    /* do pre-init steps before main */
    call _premain_init
800000b4:	699000ef          	jal	ra,80000f4c <_premain_init>
E:\VMshare\e203\zhengdian_E203\sdk\hellow_test\Debug/../hbird_sdk/SoC/hbirdv2/Common/Source/GCC/startup_hbirdv2.S:127
    /* ===== Call Main Function  ===== */
    /* argc = argv = 0 */
    li a0, 0
800000b8:	00000513          	li	a0,0
E:\VMshare\e203\zhengdian_E203\sdk\hellow_test\Debug/../hbird_sdk/SoC/hbirdv2/Common/Source/GCC/startup_hbirdv2.S:128
    li a1, 0
800000bc:	00000593          	li	a1,0
E:\VMshare\e203\zhengdian_E203\sdk\hellow_test\Debug/../hbird_sdk/SoC/hbirdv2/Common/Source/GCC/startup_hbirdv2.S:134

#ifdef RTOS_RTTHREAD
    // Call entry function when using RT-Thread
    call entry
#else
    call main
800000c0:	00c000ef          	jal	ra,800000cc <main>
E:\VMshare\e203\zhengdian_E203\sdk\hellow_test\Debug/../hbird_sdk/SoC/hbirdv2/Common/Source/GCC/startup_hbirdv2.S:137
#endif
    /* do post-main steps after main */
    call _postmain_fini
800000c4:	1e8010ef          	jal	ra,800012ac <_postmain_fini>
E:\VMshare\e203\zhengdian_E203\sdk\hellow_test\Debug/../hbird_sdk/SoC/hbirdv2/Common/Source/GCC/startup_hbirdv2.S:140

1:
    j 1b
800000c8:	0000006f          	j	800000c8 <_start+0xc8>

Disassembly of section .text:

800000cc <main>:
main():
E:\VMshare\e203\zhengdian_E203\sdk\hellow_test\Debug/../application/demo_nice.c:19

#include "insn.h"

int main(void)
{
   volatile unsigned int key_buf[4]={0x01234567,0x89abcdef,0xfedcba98, 0x76543210};
800000cc:	00004797          	auipc	a5,0x4
800000d0:	fe078793          	addi	a5,a5,-32 # 800040ac <_read_r+0x3bc>
800000d4:	0007a583          	lw	a1,0(a5)
800000d8:	0047a603          	lw	a2,4(a5)
E:\VMshare\e203\zhengdian_E203\sdk\hellow_test\Debug/../application/demo_nice.c:18
{
800000dc:	f4010113          	addi	sp,sp,-192
E:\VMshare\e203\zhengdian_E203\sdk\hellow_test\Debug/../application/demo_nice.c:19
   volatile unsigned int key_buf[4]={0x01234567,0x89abcdef,0xfedcba98, 0x76543210};
800000e0:	0087a683          	lw	a3,8(a5)
800000e4:	06b12023          	sw	a1,96(sp)
800000e8:	00c7a703          	lw	a4,12(a5)
800000ec:	06c12223          	sw	a2,100(sp)
800000f0:	06d12423          	sw	a3,104(sp)
800000f4:	06e12623          	sw	a4,108(sp)
E:\VMshare\e203\zhengdian_E203\sdk\hellow_test\Debug/../application/demo_nice.c:20
   volatile unsigned int data0_buf[4]={0x01234567,0x89abcdef,0xfedcba98, 0x76543210};
800000f8:	06b12823          	sw	a1,112(sp)
800000fc:	06c12a23          	sw	a2,116(sp)
E:\VMshare\e203\zhengdian_E203\sdk\hellow_test\Debug/../application/demo_nice.c:18
{
80000100:	0a112e23          	sw	ra,188(sp)
E:\VMshare\e203\zhengdian_E203\sdk\hellow_test\Debug/../application/demo_nice.c:21
   volatile unsigned int data1_buf[4]={0x681edf34,0xd206965e,0x86b3e94f, 0x536e4246};
80000104:	0107a083          	lw	ra,16(a5)
E:\VMshare\e203\zhengdian_E203\sdk\hellow_test\Debug/../application/demo_nice.c:20
   volatile unsigned int data0_buf[4]={0x01234567,0x89abcdef,0xfedcba98, 0x76543210};
80000108:	06d12c23          	sw	a3,120(sp)
E:\VMshare\e203\zhengdian_E203\sdk\hellow_test\Debug/../application/demo_nice.c:21
   volatile unsigned int data1_buf[4]={0x681edf34,0xd206965e,0x86b3e94f, 0x536e4246};
8000010c:	0147a283          	lw	t0,20(a5)
E:\VMshare\e203\zhengdian_E203\sdk\hellow_test\Debug/../application/demo_nice.c:20
   volatile unsigned int data0_buf[4]={0x01234567,0x89abcdef,0xfedcba98, 0x76543210};
80000110:	06e12e23          	sw	a4,124(sp)
E:\VMshare\e203\zhengdian_E203\sdk\hellow_test\Debug/../application/demo_nice.c:21
   volatile unsigned int data1_buf[4]={0x681edf34,0xd206965e,0x86b3e94f, 0x536e4246};
80000114:	0187a303          	lw	t1,24(a5)
80000118:	08112023          	sw	ra,128(sp)
8000011c:	01c7a383          	lw	t2,28(a5)
80000120:	08512223          	sw	t0,132(sp)
80000124:	08612423          	sw	t1,136(sp)
E:\VMshare\e203\zhengdian_E203\sdk\hellow_test\Debug/../application/demo_nice.c:25
   unsigned int begin_instret, end_instret, instret_normal, instret_nice;
   unsigned int begin_cycle,   end_cycle,   cycle_normal,   cycle_nice;
   unsigned int res[4];
   printf("**********************************************\n");
80000128:	00004517          	auipc	a0,0x4
8000012c:	cd850513          	addi	a0,a0,-808 # 80003e00 <_read_r+0x110>
E:\VMshare\e203\zhengdian_E203\sdk\hellow_test\Debug/../application/demo_nice.c:21
   volatile unsigned int data1_buf[4]={0x681edf34,0xd206965e,0x86b3e94f, 0x536e4246};
80000130:	08712623          	sw	t2,140(sp)
E:\VMshare\e203\zhengdian_E203\sdk\hellow_test\Debug/../application/demo_nice.c:18
{
80000134:	0a812c23          	sw	s0,184(sp)
80000138:	0a912a23          	sw	s1,180(sp)
8000013c:	0b212823          	sw	s2,176(sp)
80000140:	0b312623          	sw	s3,172(sp)
80000144:	0b412423          	sw	s4,168(sp)
80000148:	0b512223          	sw	s5,164(sp)
E:\VMshare\e203\zhengdian_E203\sdk\hellow_test\Debug/../application/demo_nice.c:25
   printf("**********************************************\n");
8000014c:	108020ef          	jal	ra,80002254 <puts>
E:\VMshare\e203\zhengdian_E203\sdk\hellow_test\Debug/../application/demo_nice.c:26
   printf("** begin to SM4 hardware compute\n");
80000150:	00004517          	auipc	a0,0x4
80000154:	ce050513          	addi	a0,a0,-800 # 80003e30 <_read_r+0x140>
80000158:	0fc020ef          	jal	ra,80002254 <puts>
__get_rv_instret():
E:\VMshare\e203\zhengdian_E203\sdk\hellow_test\hbird_sdk\NMSIS\Core\Include/core_feature_base.h:519
{
#if __RISCV_XLEN == 32
    volatile uint32_t high0, low, high;
    uint64_t full;

    high0 = __RV_CSR_READ(CSR_MINSTRETH);
8000015c:	b8202473          	csrr	s0,minstreth
80000160:	04812a23          	sw	s0,84(sp)
E:\VMshare\e203\zhengdian_E203\sdk\hellow_test\hbird_sdk\NMSIS\Core\Include/core_feature_base.h:520
    low = __RV_CSR_READ(CSR_MINSTRET);
80000164:	b02024f3          	csrr	s1,minstret
80000168:	04912c23          	sw	s1,88(sp)
E:\VMshare\e203\zhengdian_E203\sdk\hellow_test\hbird_sdk\NMSIS\Core\Include/core_feature_base.h:521
    high = __RV_CSR_READ(CSR_MINSTRETH);
8000016c:	b8202573          	csrr	a0,minstreth
80000170:	04a12e23          	sw	a0,92(sp)
E:\VMshare\e203\zhengdian_E203\sdk\hellow_test\hbird_sdk\NMSIS\Core\Include/core_feature_base.h:522
    if (high0 != high) {
80000174:	05412803          	lw	a6,84(sp)
80000178:	05c12883          	lw	a7,92(sp)
8000017c:	01180663          	beq	a6,a7,80000188 <main+0xbc>
E:\VMshare\e203\zhengdian_E203\sdk\hellow_test\hbird_sdk\NMSIS\Core\Include/core_feature_base.h:523
        low = __RV_CSR_READ(CSR_MINSTRET);
80000180:	b0202973          	csrr	s2,minstret
80000184:	05212c23          	sw	s2,88(sp)
E:\VMshare\e203\zhengdian_E203\sdk\hellow_test\hbird_sdk\NMSIS\Core\Include/core_feature_base.h:525
    }
    full = (((uint64_t)high) << 32) | low;
80000188:	05c12783          	lw	a5,92(sp)
8000018c:	05812983          	lw	s3,88(sp)
__get_rv_cycle():
E:\VMshare\e203\zhengdian_E203\sdk\hellow_test\hbird_sdk\NMSIS\Core\Include/core_feature_base.h:492
    high0 = __RV_CSR_READ(CSR_MCYCLEH);
80000190:	b8002a73          	csrr	s4,mcycleh
80000194:	05412423          	sw	s4,72(sp)
E:\VMshare\e203\zhengdian_E203\sdk\hellow_test\hbird_sdk\NMSIS\Core\Include/core_feature_base.h:493
    low = __RV_CSR_READ(CSR_MCYCLE);
80000198:	b0002af3          	csrr	s5,mcycle
8000019c:	05512623          	sw	s5,76(sp)
E:\VMshare\e203\zhengdian_E203\sdk\hellow_test\hbird_sdk\NMSIS\Core\Include/core_feature_base.h:494
    high = __RV_CSR_READ(CSR_MCYCLEH);
800001a0:	b8002e73          	csrr	t3,mcycleh
800001a4:	05c12823          	sw	t3,80(sp)
E:\VMshare\e203\zhengdian_E203\sdk\hellow_test\hbird_sdk\NMSIS\Core\Include/core_feature_base.h:495
    if (high0 != high) {
800001a8:	04812e83          	lw	t4,72(sp)
800001ac:	05012f03          	lw	t5,80(sp)
800001b0:	01ee8663          	beq	t4,t5,800001bc <main+0xf0>
E:\VMshare\e203\zhengdian_E203\sdk\hellow_test\hbird_sdk\NMSIS\Core\Include/core_feature_base.h:496
        low = __RV_CSR_READ(CSR_MCYCLE);
800001b4:	b0002ff3          	csrr	t6,mcycle
800001b8:	05f12623          	sw	t6,76(sp)
E:\VMshare\e203\zhengdian_E203\sdk\hellow_test\hbird_sdk\NMSIS\Core\Include/core_feature_base.h:498
    full = (((uint64_t)high) << 32) | low;
800001bc:	05012783          	lw	a5,80(sp)
main():
E:\VMshare\e203\zhengdian_E203\sdk\hellow_test\Debug/../application/demo_nice.c:30
   begin_instret =  __get_rv_instret();
   begin_cycle   =  __get_rv_cycle();

   nice_case(key_buf, data1_buf, res);
800001c0:	09010613          	addi	a2,sp,144
800001c4:	08010593          	addi	a1,sp,128
800001c8:	06010513          	addi	a0,sp,96
__get_rv_cycle():
E:\VMshare\e203\zhengdian_E203\sdk\hellow_test\hbird_sdk\NMSIS\Core\Include/core_feature_base.h:498
800001cc:	04c12483          	lw	s1,76(sp)
main():
E:\VMshare\e203\zhengdian_E203\sdk\hellow_test\Debug/../application/demo_nice.c:30
800001d0:	145010ef          	jal	ra,80001b14 <nice_case>
__get_rv_instret():
E:\VMshare\e203\zhengdian_E203\sdk\hellow_test\hbird_sdk\NMSIS\Core\Include/core_feature_base.h:519
    high0 = __RV_CSR_READ(CSR_MINSTRETH);
800001d4:	b82027f3          	csrr	a5,minstreth
800001d8:	02f12e23          	sw	a5,60(sp)
E:\VMshare\e203\zhengdian_E203\sdk\hellow_test\hbird_sdk\NMSIS\Core\Include/core_feature_base.h:520
    low = __RV_CSR_READ(CSR_MINSTRET);
800001dc:	b02025f3          	csrr	a1,minstret
800001e0:	04b12023          	sw	a1,64(sp)
E:\VMshare\e203\zhengdian_E203\sdk\hellow_test\hbird_sdk\NMSIS\Core\Include/core_feature_base.h:521
    high = __RV_CSR_READ(CSR_MINSTRETH);
800001e4:	b8202673          	csrr	a2,minstreth
800001e8:	04c12223          	sw	a2,68(sp)
E:\VMshare\e203\zhengdian_E203\sdk\hellow_test\hbird_sdk\NMSIS\Core\Include/core_feature_base.h:522
    if (high0 != high) {
800001ec:	03c12683          	lw	a3,60(sp)
800001f0:	04412703          	lw	a4,68(sp)
800001f4:	00e68663          	beq	a3,a4,80000200 <main+0x134>
E:\VMshare\e203\zhengdian_E203\sdk\hellow_test\hbird_sdk\NMSIS\Core\Include/core_feature_base.h:523
        low = __RV_CSR_READ(CSR_MINSTRET);
800001f8:	b02020f3          	csrr	ra,minstret
800001fc:	04112023          	sw	ra,64(sp)
E:\VMshare\e203\zhengdian_E203\sdk\hellow_test\hbird_sdk\NMSIS\Core\Include/core_feature_base.h:525
    full = (((uint64_t)high) << 32) | low;
80000200:	04412783          	lw	a5,68(sp)
80000204:	04012283          	lw	t0,64(sp)
__get_rv_cycle():
E:\VMshare\e203\zhengdian_E203\sdk\hellow_test\hbird_sdk\NMSIS\Core\Include/core_feature_base.h:492
    high0 = __RV_CSR_READ(CSR_MCYCLEH);
80000208:	b8002373          	csrr	t1,mcycleh
8000020c:	02612823          	sw	t1,48(sp)
E:\VMshare\e203\zhengdian_E203\sdk\hellow_test\hbird_sdk\NMSIS\Core\Include/core_feature_base.h:493
    low = __RV_CSR_READ(CSR_MCYCLE);
80000210:	b00023f3          	csrr	t2,mcycle
80000214:	02712a23          	sw	t2,52(sp)
E:\VMshare\e203\zhengdian_E203\sdk\hellow_test\hbird_sdk\NMSIS\Core\Include/core_feature_base.h:494
    high = __RV_CSR_READ(CSR_MCYCLEH);
80000218:	b8002473          	csrr	s0,mcycleh
8000021c:	02812c23          	sw	s0,56(sp)
E:\VMshare\e203\zhengdian_E203\sdk\hellow_test\hbird_sdk\NMSIS\Core\Include/core_feature_base.h:495
    if (high0 != high) {
80000220:	03012503          	lw	a0,48(sp)
80000224:	03812803          	lw	a6,56(sp)
80000228:	01050663          	beq	a0,a6,80000234 <main+0x168>
E:\VMshare\e203\zhengdian_E203\sdk\hellow_test\hbird_sdk\NMSIS\Core\Include/core_feature_base.h:496
        low = __RV_CSR_READ(CSR_MCYCLE);
8000022c:	b00028f3          	csrr	a7,mcycle
80000230:	03112a23          	sw	a7,52(sp)
main():
E:\VMshare\e203\zhengdian_E203\sdk\hellow_test\Debug/../application/demo_nice.c:36

   end_instret = __get_rv_instret();
   end_cycle   = __get_rv_cycle();
   instret_nice = end_instret - begin_instret;
   cycle_nice   = end_cycle - begin_cycle;
   printf("%X %X %X %X\n", res[0], res[1], res[2], res[3]);
80000234:	09c12703          	lw	a4,156(sp)
80000238:	09812683          	lw	a3,152(sp)
8000023c:	09412603          	lw	a2,148(sp)
80000240:	09012583          	lw	a1,144(sp)
__get_rv_cycle():
E:\VMshare\e203\zhengdian_E203\sdk\hellow_test\hbird_sdk\NMSIS\Core\Include/core_feature_base.h:498
    full = (((uint64_t)high) << 32) | low;
80000244:	03812783          	lw	a5,56(sp)
main():
E:\VMshare\e203\zhengdian_E203\sdk\hellow_test\Debug/../application/demo_nice.c:36
80000248:	00004517          	auipc	a0,0x4
8000024c:	c0c50513          	addi	a0,a0,-1012 # 80003e54 <_read_r+0x164>
E:\VMshare\e203\zhengdian_E203\sdk\hellow_test\Debug/../application/demo_nice.c:34
   instret_nice = end_instret - begin_instret;
80000250:	41328433          	sub	s0,t0,s3
__get_rv_cycle():
E:\VMshare\e203\zhengdian_E203\sdk\hellow_test\hbird_sdk\NMSIS\Core\Include/core_feature_base.h:498
80000254:	03412903          	lw	s2,52(sp)
main():
E:\VMshare\e203\zhengdian_E203\sdk\hellow_test\Debug/../application/demo_nice.c:36
   printf("%X %X %X %X\n", res[0], res[1], res[2], res[3]);
80000258:	631010ef          	jal	ra,80002088 <iprintf>
E:\VMshare\e203\zhengdian_E203\sdk\hellow_test\Debug/../application/demo_nice.c:37
   printf("\n\n");
8000025c:	00004517          	auipc	a0,0x4
80000260:	c0850513          	addi	a0,a0,-1016 # 80003e64 <_read_r+0x174>
80000264:	7f1010ef          	jal	ra,80002254 <puts>
E:\VMshare\e203\zhengdian_E203\sdk\hellow_test\Debug/../application/demo_nice.c:39

   printf("**********************************************\n");
80000268:	00004517          	auipc	a0,0x4
8000026c:	b9850513          	addi	a0,a0,-1128 # 80003e00 <_read_r+0x110>
80000270:	7e5010ef          	jal	ra,80002254 <puts>
E:\VMshare\e203\zhengdian_E203\sdk\hellow_test\Debug/../application/demo_nice.c:40
   printf("** begin to SM4 software compute\n");
80000274:	00004517          	auipc	a0,0x4
80000278:	bf450513          	addi	a0,a0,-1036 # 80003e68 <_read_r+0x178>
8000027c:	7d9010ef          	jal	ra,80002254 <puts>
E:\VMshare\e203\zhengdian_E203\sdk\hellow_test\Debug/../application/demo_nice.c:35
   cycle_nice   = end_cycle - begin_cycle;
80000280:	409904b3          	sub	s1,s2,s1
__get_rv_instret():
E:\VMshare\e203\zhengdian_E203\sdk\hellow_test\hbird_sdk\NMSIS\Core\Include/core_feature_base.h:519
    high0 = __RV_CSR_READ(CSR_MINSTRETH);
80000284:	b82029f3          	csrr	s3,minstreth
80000288:	03312223          	sw	s3,36(sp)
E:\VMshare\e203\zhengdian_E203\sdk\hellow_test\hbird_sdk\NMSIS\Core\Include/core_feature_base.h:520
    low = __RV_CSR_READ(CSR_MINSTRET);
8000028c:	b0202a73          	csrr	s4,minstret
80000290:	03412423          	sw	s4,40(sp)
E:\VMshare\e203\zhengdian_E203\sdk\hellow_test\hbird_sdk\NMSIS\Core\Include/core_feature_base.h:521
    high = __RV_CSR_READ(CSR_MINSTRETH);
80000294:	b8202af3          	csrr	s5,minstreth
80000298:	03512623          	sw	s5,44(sp)
E:\VMshare\e203\zhengdian_E203\sdk\hellow_test\hbird_sdk\NMSIS\Core\Include/core_feature_base.h:522
    if (high0 != high) {
8000029c:	02412e03          	lw	t3,36(sp)
800002a0:	02c12e83          	lw	t4,44(sp)
800002a4:	01de0663          	beq	t3,t4,800002b0 <main+0x1e4>
E:\VMshare\e203\zhengdian_E203\sdk\hellow_test\hbird_sdk\NMSIS\Core\Include/core_feature_base.h:523
        low = __RV_CSR_READ(CSR_MINSTRET);
800002a8:	b0202f73          	csrr	t5,minstret
800002ac:	03e12423          	sw	t5,40(sp)
E:\VMshare\e203\zhengdian_E203\sdk\hellow_test\hbird_sdk\NMSIS\Core\Include/core_feature_base.h:525
    full = (((uint64_t)high) << 32) | low;
800002b0:	02c12783          	lw	a5,44(sp)
800002b4:	02812903          	lw	s2,40(sp)
__get_rv_cycle():
E:\VMshare\e203\zhengdian_E203\sdk\hellow_test\hbird_sdk\NMSIS\Core\Include/core_feature_base.h:492
    high0 = __RV_CSR_READ(CSR_MCYCLEH);
800002b8:	b8002ff3          	csrr	t6,mcycleh
800002bc:	01f12c23          	sw	t6,24(sp)
E:\VMshare\e203\zhengdian_E203\sdk\hellow_test\hbird_sdk\NMSIS\Core\Include/core_feature_base.h:493
    low = __RV_CSR_READ(CSR_MCYCLE);
800002c0:	b00027f3          	csrr	a5,mcycle
800002c4:	00f12e23          	sw	a5,28(sp)
E:\VMshare\e203\zhengdian_E203\sdk\hellow_test\hbird_sdk\NMSIS\Core\Include/core_feature_base.h:494
    high = __RV_CSR_READ(CSR_MCYCLEH);
800002c8:	b80025f3          	csrr	a1,mcycleh
800002cc:	02b12023          	sw	a1,32(sp)
E:\VMshare\e203\zhengdian_E203\sdk\hellow_test\hbird_sdk\NMSIS\Core\Include/core_feature_base.h:495
    if (high0 != high) {
800002d0:	01812603          	lw	a2,24(sp)
800002d4:	02012683          	lw	a3,32(sp)
800002d8:	00d60663          	beq	a2,a3,800002e4 <main+0x218>
E:\VMshare\e203\zhengdian_E203\sdk\hellow_test\hbird_sdk\NMSIS\Core\Include/core_feature_base.h:496
        low = __RV_CSR_READ(CSR_MCYCLE);
800002dc:	b0002773          	csrr	a4,mcycle
800002e0:	00e12e23          	sw	a4,28(sp)
E:\VMshare\e203\zhengdian_E203\sdk\hellow_test\hbird_sdk\NMSIS\Core\Include/core_feature_base.h:498
    full = (((uint64_t)high) << 32) | low;
800002e4:	02012783          	lw	a5,32(sp)
main():
E:\VMshare\e203\zhengdian_E203\sdk\hellow_test\Debug/../application/demo_nice.c:44
   begin_instret =  __get_rv_instret();
   begin_cycle   =  __get_rv_cycle();

   normal_case(key_buf, data0_buf, res);
800002e8:	09010613          	addi	a2,sp,144
800002ec:	07010593          	addi	a1,sp,112
800002f0:	06010513          	addi	a0,sp,96
__get_rv_cycle():
E:\VMshare\e203\zhengdian_E203\sdk\hellow_test\hbird_sdk\NMSIS\Core\Include/core_feature_base.h:498
800002f4:	01c12a03          	lw	s4,28(sp)
main():
E:\VMshare\e203\zhengdian_E203\sdk\hellow_test\Debug/../application/demo_nice.c:44
800002f8:	7c1000ef          	jal	ra,800012b8 <normal_case>
__get_rv_instret():
E:\VMshare\e203\zhengdian_E203\sdk\hellow_test\hbird_sdk\NMSIS\Core\Include/core_feature_base.h:519
    high0 = __RV_CSR_READ(CSR_MINSTRETH);
800002fc:	b82022f3          	csrr	t0,minstreth
80000300:	00512623          	sw	t0,12(sp)
E:\VMshare\e203\zhengdian_E203\sdk\hellow_test\hbird_sdk\NMSIS\Core\Include/core_feature_base.h:520
    low = __RV_CSR_READ(CSR_MINSTRET);
80000304:	b0202373          	csrr	t1,minstret
80000308:	00612823          	sw	t1,16(sp)
E:\VMshare\e203\zhengdian_E203\sdk\hellow_test\hbird_sdk\NMSIS\Core\Include/core_feature_base.h:521
    high = __RV_CSR_READ(CSR_MINSTRETH);
8000030c:	b82023f3          	csrr	t2,minstreth
80000310:	00712a23          	sw	t2,20(sp)
E:\VMshare\e203\zhengdian_E203\sdk\hellow_test\hbird_sdk\NMSIS\Core\Include/core_feature_base.h:522
    if (high0 != high) {
80000314:	00c12503          	lw	a0,12(sp)
80000318:	01412803          	lw	a6,20(sp)
8000031c:	01050663          	beq	a0,a6,80000328 <main+0x25c>
E:\VMshare\e203\zhengdian_E203\sdk\hellow_test\hbird_sdk\NMSIS\Core\Include/core_feature_base.h:523
        low = __RV_CSR_READ(CSR_MINSTRET);
80000320:	b02020f3          	csrr	ra,minstret
80000324:	00112823          	sw	ra,16(sp)
E:\VMshare\e203\zhengdian_E203\sdk\hellow_test\hbird_sdk\NMSIS\Core\Include/core_feature_base.h:525
    full = (((uint64_t)high) << 32) | low;
80000328:	01412783          	lw	a5,20(sp)
8000032c:	01012983          	lw	s3,16(sp)
__get_rv_cycle():
E:\VMshare\e203\zhengdian_E203\sdk\hellow_test\hbird_sdk\NMSIS\Core\Include/core_feature_base.h:492
    high0 = __RV_CSR_READ(CSR_MCYCLEH);
80000330:	b80028f3          	csrr	a7,mcycleh
80000334:	01112023          	sw	a7,0(sp)
E:\VMshare\e203\zhengdian_E203\sdk\hellow_test\hbird_sdk\NMSIS\Core\Include/core_feature_base.h:493
    low = __RV_CSR_READ(CSR_MCYCLE);
80000338:	b0002af3          	csrr	s5,mcycle
8000033c:	01512223          	sw	s5,4(sp)
E:\VMshare\e203\zhengdian_E203\sdk\hellow_test\hbird_sdk\NMSIS\Core\Include/core_feature_base.h:494
    high = __RV_CSR_READ(CSR_MCYCLEH);
80000340:	b8002e73          	csrr	t3,mcycleh
80000344:	01c12423          	sw	t3,8(sp)
E:\VMshare\e203\zhengdian_E203\sdk\hellow_test\hbird_sdk\NMSIS\Core\Include/core_feature_base.h:495
    if (high0 != high) {
80000348:	00012e83          	lw	t4,0(sp)
8000034c:	00812f03          	lw	t5,8(sp)
80000350:	01ee8663          	beq	t4,t5,8000035c <main+0x290>
E:\VMshare\e203\zhengdian_E203\sdk\hellow_test\hbird_sdk\NMSIS\Core\Include/core_feature_base.h:496
        low = __RV_CSR_READ(CSR_MCYCLE);
80000354:	b0002ff3          	csrr	t6,mcycle
80000358:	01f12223          	sw	t6,4(sp)
main():
E:\VMshare\e203\zhengdian_E203\sdk\hellow_test\Debug/../application/demo_nice.c:51
   end_instret = __get_rv_instret();
   end_cycle   = __get_rv_cycle();

   instret_normal = end_instret - begin_instret;
   cycle_normal = end_cycle - begin_cycle;
   printf("%X %X %X %X\n", res[0], res[1], res[2], res[3]);
8000035c:	09c12703          	lw	a4,156(sp)
80000360:	09812683          	lw	a3,152(sp)
80000364:	09412603          	lw	a2,148(sp)
80000368:	09012583          	lw	a1,144(sp)
__get_rv_cycle():
E:\VMshare\e203\zhengdian_E203\sdk\hellow_test\hbird_sdk\NMSIS\Core\Include/core_feature_base.h:498
    full = (((uint64_t)high) << 32) | low;
8000036c:	00812783          	lw	a5,8(sp)
main():
E:\VMshare\e203\zhengdian_E203\sdk\hellow_test\Debug/../application/demo_nice.c:51
80000370:	00004517          	auipc	a0,0x4
80000374:	ae450513          	addi	a0,a0,-1308 # 80003e54 <_read_r+0x164>
__get_rv_cycle():
E:\VMshare\e203\zhengdian_E203\sdk\hellow_test\hbird_sdk\NMSIS\Core\Include/core_feature_base.h:498
80000378:	00412a83          	lw	s5,4(sp)
main():
E:\VMshare\e203\zhengdian_E203\sdk\hellow_test\Debug/../application/demo_nice.c:51
8000037c:	50d010ef          	jal	ra,80002088 <iprintf>
E:\VMshare\e203\zhengdian_E203\sdk\hellow_test\Debug/../application/demo_nice.c:53

   printf("**********************************************\n");
80000380:	00004517          	auipc	a0,0x4
80000384:	a8050513          	addi	a0,a0,-1408 # 80003e00 <_read_r+0x110>
80000388:	6cd010ef          	jal	ra,80002254 <puts>
E:\VMshare\e203\zhengdian_E203\sdk\hellow_test\Debug/../application/demo_nice.c:54
   printf("** performance list \n");
8000038c:	00004517          	auipc	a0,0x4
80000390:	b0050513          	addi	a0,a0,-1280 # 80003e8c <_read_r+0x19c>
80000394:	6c1010ef          	jal	ra,80002254 <puts>
E:\VMshare\e203\zhengdian_E203\sdk\hellow_test\Debug/../application/demo_nice.c:56

   printf("\t normal: \n");
80000398:	00004517          	auipc	a0,0x4
8000039c:	b0c50513          	addi	a0,a0,-1268 # 80003ea4 <_read_r+0x1b4>
800003a0:	6b5010ef          	jal	ra,80002254 <puts>
E:\VMshare\e203\zhengdian_E203\sdk\hellow_test\Debug/../application/demo_nice.c:57
   printf("\t      instret: %d, cycle: %d \n", instret_normal, cycle_normal);
800003a4:	414a8633          	sub	a2,s5,s4
800003a8:	412985b3          	sub	a1,s3,s2
800003ac:	00004517          	auipc	a0,0x4
800003b0:	b0450513          	addi	a0,a0,-1276 # 80003eb0 <_read_r+0x1c0>
800003b4:	4d5010ef          	jal	ra,80002088 <iprintf>
E:\VMshare\e203\zhengdian_E203\sdk\hellow_test\Debug/../application/demo_nice.c:58
   printf("\t nice  : \n");
800003b8:	00004517          	auipc	a0,0x4
800003bc:	b1850513          	addi	a0,a0,-1256 # 80003ed0 <_read_r+0x1e0>
800003c0:	695010ef          	jal	ra,80002254 <puts>
E:\VMshare\e203\zhengdian_E203\sdk\hellow_test\Debug/../application/demo_nice.c:59
   printf("\t      instret: %d, cycle: %d \n", instret_nice  , cycle_nice  );
800003c4:	00048613          	mv	a2,s1
800003c8:	00040593          	mv	a1,s0
800003cc:	00004517          	auipc	a0,0x4
800003d0:	ae450513          	addi	a0,a0,-1308 # 80003eb0 <_read_r+0x1c0>
800003d4:	4b5010ef          	jal	ra,80002088 <iprintf>
E:\VMshare\e203\zhengdian_E203\sdk\hellow_test\Debug/../application/demo_nice.c:62


   printf("**********************************************\n\n");
800003d8:	00004517          	auipc	a0,0x4
800003dc:	b0450513          	addi	a0,a0,-1276 # 80003edc <_read_r+0x1ec>
800003e0:	675010ef          	jal	ra,80002254 <puts>
E:\VMshare\e203\zhengdian_E203\sdk\hellow_test\Debug/../application/demo_nice.c:65


    printf("*     *  *     *   *****   *        *******   *** \n");
800003e4:	00004517          	auipc	a0,0x4
800003e8:	b2850513          	addi	a0,a0,-1240 # 80003f0c <_read_r+0x21c>
800003ec:	669010ef          	jal	ra,80002254 <puts>
E:\VMshare\e203\zhengdian_E203\sdk\hellow_test\Debug/../application/demo_nice.c:66
    printf("**    *  *     *  *     *  *        *          *  \n");
800003f0:	00004517          	auipc	a0,0x4
800003f4:	b5050513          	addi	a0,a0,-1200 # 80003f40 <_read_r+0x250>
800003f8:	65d010ef          	jal	ra,80002254 <puts>
E:\VMshare\e203\zhengdian_E203\sdk\hellow_test\Debug/../application/demo_nice.c:67
    printf("* *   *  *     *  *        *        *          *  \n");
800003fc:	00004517          	auipc	a0,0x4
80000400:	b7850513          	addi	a0,a0,-1160 # 80003f74 <_read_r+0x284>
80000404:	651010ef          	jal	ra,80002254 <puts>
E:\VMshare\e203\zhengdian_E203\sdk\hellow_test\Debug/../application/demo_nice.c:68
    printf("*  *  *  *     *  *        *        *****      *  \n");
80000408:	00004517          	auipc	a0,0x4
8000040c:	ba050513          	addi	a0,a0,-1120 # 80003fa8 <_read_r+0x2b8>
80000410:	645010ef          	jal	ra,80002254 <puts>
E:\VMshare\e203\zhengdian_E203\sdk\hellow_test\Debug/../application/demo_nice.c:69
    printf("*   * *  *     *  *        *        *          *  \n");
80000414:	00004517          	auipc	a0,0x4
80000418:	bc850513          	addi	a0,a0,-1080 # 80003fdc <_read_r+0x2ec>
8000041c:	639010ef          	jal	ra,80002254 <puts>
E:\VMshare\e203\zhengdian_E203\sdk\hellow_test\Debug/../application/demo_nice.c:70
    printf("*    **  *     *  *     *  *        *          *  \n");
80000420:	00004517          	auipc	a0,0x4
80000424:	bf050513          	addi	a0,a0,-1040 # 80004010 <_read_r+0x320>
80000428:	62d010ef          	jal	ra,80002254 <puts>
E:\VMshare\e203\zhengdian_E203\sdk\hellow_test\Debug/../application/demo_nice.c:71
    printf("*     *   *****    *****   *******  *******   *** \n");
8000042c:	00004517          	auipc	a0,0x4
80000430:	c1850513          	addi	a0,a0,-1000 # 80004044 <_read_r+0x354>
80000434:	621010ef          	jal	ra,80002254 <puts>
E:\VMshare\e203\zhengdian_E203\sdk\hellow_test\Debug/../application/demo_nice.c:73

   printf("\n\n**********************************************");
80000438:	00004517          	auipc	a0,0x4
8000043c:	c4050513          	addi	a0,a0,-960 # 80004078 <_read_r+0x388>
80000440:	449010ef          	jal	ra,80002088 <iprintf>
E:\VMshare\e203\zhengdian_E203\sdk\hellow_test\Debug/../application/demo_nice.c:93
       }

*/

    return 0;
}
80000444:	0bc12083          	lw	ra,188(sp)
80000448:	0b812403          	lw	s0,184(sp)
8000044c:	0b412483          	lw	s1,180(sp)
80000450:	0b012903          	lw	s2,176(sp)
80000454:	0ac12983          	lw	s3,172(sp)
80000458:	0a812a03          	lw	s4,168(sp)
8000045c:	0a412a83          	lw	s5,164(sp)
80000460:	00000513          	li	a0,0
80000464:	0c010113          	addi	sp,sp,192
80000468:	00008067          	ret

8000046c <_close>:
_close():
E:\VMshare\e203\zhengdian_E203\sdk\hellow_test\Debug/../hbird_sdk/SoC/hbirdv2/Common/Source/Stubs/close.c:10
#undef errno
extern int errno;

__WEAK int _close(int fd)
{
    errno = EBADF;
8000046c:	00900793          	li	a5,9
80000470:	80f1aa23          	sw	a5,-2028(gp) # 90000074 <errno>
E:\VMshare\e203\zhengdian_E203\sdk\hellow_test\Debug/../hbird_sdk/SoC/hbirdv2/Common/Source/Stubs/close.c:12
    return -1;
}
80000474:	fff00513          	li	a0,-1
80000478:	00008067          	ret

8000047c <_fstat>:
_fstat():
E:\VMshare\e203\zhengdian_E203\sdk\hellow_test\Debug/../hbird_sdk/SoC/hbirdv2/Common/Source/Stubs/fstat.c:12
#undef errno
extern int errno;

__WEAK int _fstat(int file, struct stat *st)
{
    if ((STDOUT_FILENO == file) || (STDERR_FILENO == file)) {
8000047c:	fff50513          	addi	a0,a0,-1
80000480:	00100793          	li	a5,1
80000484:	00a7ea63          	bltu	a5,a0,80000498 <_fstat+0x1c>
E:\VMshare\e203\zhengdian_E203\sdk\hellow_test\Debug/../hbird_sdk/SoC/hbirdv2/Common/Source/Stubs/fstat.c:13
        st->st_mode = S_IFCHR;
80000488:	00002337          	lui	t1,0x2
E:\VMshare\e203\zhengdian_E203\sdk\hellow_test\Debug/../hbird_sdk/SoC/hbirdv2/Common/Source/Stubs/fstat.c:14
        return 0;
8000048c:	00000513          	li	a0,0
E:\VMshare\e203\zhengdian_E203\sdk\hellow_test\Debug/../hbird_sdk/SoC/hbirdv2/Common/Source/Stubs/fstat.c:13
        st->st_mode = S_IFCHR;
80000490:	0065a223          	sw	t1,4(a1)
E:\VMshare\e203\zhengdian_E203\sdk\hellow_test\Debug/../hbird_sdk/SoC/hbirdv2/Common/Source/Stubs/fstat.c:14
        return 0;
80000494:	00008067          	ret
E:\VMshare\e203\zhengdian_E203\sdk\hellow_test\Debug/../hbird_sdk/SoC/hbirdv2/Common/Source/Stubs/fstat.c:16
    } else {
        errno = EBADF;
80000498:	00900293          	li	t0,9
E:\VMshare\e203\zhengdian_E203\sdk\hellow_test\Debug/../hbird_sdk/SoC/hbirdv2/Common/Source/Stubs/fstat.c:17
        return -1;
8000049c:	fff00513          	li	a0,-1
E:\VMshare\e203\zhengdian_E203\sdk\hellow_test\Debug/../hbird_sdk/SoC/hbirdv2/Common/Source/Stubs/fstat.c:16
        errno = EBADF;
800004a0:	8051aa23          	sw	t0,-2028(gp) # 90000074 <errno>
E:\VMshare\e203\zhengdian_E203\sdk\hellow_test\Debug/../hbird_sdk/SoC/hbirdv2/Common/Source/Stubs/fstat.c:19
    }
}
800004a4:	00008067          	ret

800004a8 <_isatty>:
_isatty():
E:\VMshare\e203\zhengdian_E203\sdk\hellow_test\Debug/../hbird_sdk/SoC/hbirdv2/Common/Source/Stubs/isatty.c:8
#include <unistd.h>

__WEAK int _isatty(int fd)
{
    return 1;
}
800004a8:	00100513          	li	a0,1
800004ac:	00008067          	ret

800004b0 <_lseek>:
_lseek():
E:\VMshare\e203\zhengdian_E203\sdk\hellow_test\Debug/../hbird_sdk/SoC/hbirdv2/Common/Source/Stubs/lseek.c:11
extern int errno;

__WEAK int _lseek(int file, int offset, int whence)
{
    return 0;
}
800004b0:	00000513          	li	a0,0
800004b4:	00008067          	ret

800004b8 <_read>:
_read():
E:\VMshare\e203\zhengdian_E203\sdk\hellow_test\Debug/../hbird_sdk/SoC/hbirdv2/Common/Source/Stubs/read.c:12

// #define UART_AUTO_ECHO

__WEAK ssize_t _read(int fd, void* ptr, size_t len)
{
    if (fd != STDIN_FILENO) {
800004b8:	00050663          	beqz	a0,800004c4 <_read+0xc>
E:\VMshare\e203\zhengdian_E203\sdk\hellow_test\Debug/../hbird_sdk/SoC/hbirdv2/Common/Source/Stubs/read.c:13
        return -1;
800004bc:	fff00513          	li	a0,-1
E:\VMshare\e203\zhengdian_E203\sdk\hellow_test\Debug/../hbird_sdk/SoC/hbirdv2/Common/Source/Stubs/read.c:22
    readbuf[0] = uart_read(SOC_DEBUG_UART);
#ifdef UART_AUTO_ECHO
    uart_write(SOC_DEBUG_UART, readbuf[0]);
#endif
    return 1;
}
800004c0:	00008067          	ret
E:\VMshare\e203\zhengdian_E203\sdk\hellow_test\Debug/../hbird_sdk/SoC/hbirdv2/Common/Source/Stubs/read.c:11
{
800004c4:	ff010113          	addi	sp,sp,-16
E:\VMshare\e203\zhengdian_E203\sdk\hellow_test\Debug/../hbird_sdk/SoC/hbirdv2/Common/Source/Stubs/read.c:17
    readbuf[0] = uart_read(SOC_DEBUG_UART);
800004c8:	10013537          	lui	a0,0x10013
E:\VMshare\e203\zhengdian_E203\sdk\hellow_test\Debug/../hbird_sdk/SoC/hbirdv2/Common/Source/Stubs/read.c:11
{
800004cc:	00812423          	sw	s0,8(sp)
800004d0:	00112623          	sw	ra,12(sp)
800004d4:	00058413          	mv	s0,a1
E:\VMshare\e203\zhengdian_E203\sdk\hellow_test\Debug/../hbird_sdk/SoC/hbirdv2/Common/Source/Stubs/read.c:17
    readbuf[0] = uart_read(SOC_DEBUG_UART);
800004d8:	564000ef          	jal	ra,80000a3c <uart_read>
800004dc:	00050793          	mv	a5,a0
800004e0:	00f40023          	sb	a5,0(s0)
E:\VMshare\e203\zhengdian_E203\sdk\hellow_test\Debug/../hbird_sdk/SoC/hbirdv2/Common/Source/Stubs/read.c:22
}
800004e4:	00c12083          	lw	ra,12(sp)
800004e8:	00812403          	lw	s0,8(sp)
E:\VMshare\e203\zhengdian_E203\sdk\hellow_test\Debug/../hbird_sdk/SoC/hbirdv2/Common/Source/Stubs/read.c:21
    return 1;
800004ec:	00100513          	li	a0,1
E:\VMshare\e203\zhengdian_E203\sdk\hellow_test\Debug/../hbird_sdk/SoC/hbirdv2/Common/Source/Stubs/read.c:22
}
800004f0:	01010113          	addi	sp,sp,16
800004f4:	00008067          	ret

800004f8 <_sbrk>:
_sbrk():
E:\VMshare\e203\zhengdian_E203\sdk\hellow_test\Debug/../hbird_sdk/SoC/hbirdv2/Common/Source/Stubs/sbrk.c:13
{
    extern char _end[];
    extern char _heap_end[];
    static char *curbrk = _end;

    if ((curbrk + incr < _end) || (curbrk + incr > _heap_end)) {
800004f8:	10000717          	auipc	a4,0x10000
800004fc:	b6870713          	addi	a4,a4,-1176 # 90000060 <curbrk.0>
80000500:	00072783          	lw	a5,0(a4)
80000504:	94818693          	addi	a3,gp,-1720 # 900001a8 <_end>
80000508:	00a78533          	add	a0,a5,a0
8000050c:	00d56e63          	bltu	a0,a3,80000528 <_sbrk+0x30>
E:\VMshare\e203\zhengdian_E203\sdk\hellow_test\Debug/../hbird_sdk/SoC/hbirdv2/Common/Source/Stubs/sbrk.c:13 (discriminator 1)
80000510:	1000f297          	auipc	t0,0x1000f
80000514:	2f028293          	addi	t0,t0,752 # 9000f800 <_heap_end>
80000518:	00a2e863          	bltu	t0,a0,80000528 <_sbrk+0x30>
E:\VMshare\e203\zhengdian_E203\sdk\hellow_test\Debug/../hbird_sdk/SoC/hbirdv2/Common/Source/Stubs/sbrk.c:17
        return (void *)(-1);
    }

    curbrk += incr;
8000051c:	00a72023          	sw	a0,0(a4)
E:\VMshare\e203\zhengdian_E203\sdk\hellow_test\Debug/../hbird_sdk/SoC/hbirdv2/Common/Source/Stubs/sbrk.c:19
    return (void *)(curbrk - incr);
}
80000520:	00078513          	mv	a0,a5
80000524:	00008067          	ret
E:\VMshare\e203\zhengdian_E203\sdk\hellow_test\Debug/../hbird_sdk/SoC/hbirdv2/Common/Source/Stubs/sbrk.c:14
        return (void *)(-1);
80000528:	fff00793          	li	a5,-1
E:\VMshare\e203\zhengdian_E203\sdk\hellow_test\Debug/../hbird_sdk/SoC/hbirdv2/Common/Source/Stubs/sbrk.c:19
}
8000052c:	00078513          	mv	a0,a5
80000530:	00008067          	ret

80000534 <_write>:
_write():
E:\VMshare\e203\zhengdian_E203\sdk\hellow_test\Debug/../hbird_sdk/SoC/hbirdv2/Common/Source/Stubs/write.c:9
#include <unistd.h>
#include <sys/types.h>
#include <hbird_sdk_hal.h>

__WEAK ssize_t _write(int fd, const void* ptr, size_t len)
{
80000534:	fe010113          	addi	sp,sp,-32
80000538:	01212823          	sw	s2,16(sp)
8000053c:	01312623          	sw	s3,12(sp)
80000540:	00112e23          	sw	ra,28(sp)
80000544:	00812c23          	sw	s0,24(sp)
80000548:	00912a23          	sw	s1,20(sp)
8000054c:	01412423          	sw	s4,8(sp)
80000550:	00058913          	mv	s2,a1
80000554:	00060993          	mv	s3,a2
E:\VMshare\e203\zhengdian_E203\sdk\hellow_test\Debug/../hbird_sdk/SoC/hbirdv2/Common/Source/Stubs/write.c:10
    if (!isatty(fd)) {
80000558:	509010ef          	jal	ra,80002260 <isatty>
8000055c:	30050a63          	beqz	a0,80000870 <_write+0x33c>
80000560:	00090413          	mv	s0,s2
80000564:	01390a33          	add	s4,s2,s3
E:\VMshare\e203\zhengdian_E203\sdk\hellow_test\Debug/../hbird_sdk/SoC/hbirdv2/Common/Source/Stubs/write.c:15
        return -1;
    }

    const uint8_t *writebuf = (const uint8_t *)ptr;
    for (size_t i = 0; i < len; i++) {
80000568:	0c098a63          	beqz	s3,8000063c <_write+0x108>
8000056c:	412a07b3          	sub	a5,s4,s2
80000570:	0077f093          	andi	ra,a5,7
E:\VMshare\e203\zhengdian_E203\sdk\hellow_test\Debug/../hbird_sdk/SoC/hbirdv2/Common/Source/Stubs/write.c:16
        if (writebuf[i] == '\n') {
80000574:	00a00493          	li	s1,10
80000578:	16008e63          	beqz	ra,800006f4 <_write+0x1c0>
8000057c:	00100713          	li	a4,1
80000580:	0ae08263          	beq	ra,a4,80000624 <_write+0xf0>
80000584:	00200293          	li	t0,2
80000588:	08508463          	beq	ra,t0,80000610 <_write+0xdc>
8000058c:	00300313          	li	t1,3
80000590:	06608663          	beq	ra,t1,800005fc <_write+0xc8>
80000594:	00400393          	li	t2,4
80000598:	04708863          	beq	ra,t2,800005e8 <_write+0xb4>
8000059c:	00500513          	li	a0,5
800005a0:	02a08a63          	beq	ra,a0,800005d4 <_write+0xa0>
800005a4:	00600593          	li	a1,6
800005a8:	00b08c63          	beq	ra,a1,800005c0 <_write+0x8c>
800005ac:	00094583          	lbu	a1,0(s2)
800005b0:	2a958663          	beq	a1,s1,8000085c <_write+0x328>
E:\VMshare\e203\zhengdian_E203\sdk\hellow_test\Debug/../hbird_sdk/SoC/hbirdv2/Common/Source/Stubs/write.c:19
            uart_write(SOC_DEBUG_UART, '\r');
        }
        uart_write(SOC_DEBUG_UART, writebuf[i]);
800005b4:	10013537          	lui	a0,0x10013
800005b8:	408000ef          	jal	ra,800009c0 <uart_write>
E:\VMshare\e203\zhengdian_E203\sdk\hellow_test\Debug/../hbird_sdk/SoC/hbirdv2/Common/Source/Stubs/write.c:15
    for (size_t i = 0; i < len; i++) {
800005bc:	00190413          	addi	s0,s2,1
E:\VMshare\e203\zhengdian_E203\sdk\hellow_test\Debug/../hbird_sdk/SoC/hbirdv2/Common/Source/Stubs/write.c:16
        if (writebuf[i] == '\n') {
800005c0:	00044583          	lbu	a1,0(s0)
800005c4:	28958263          	beq	a1,s1,80000848 <_write+0x314>
E:\VMshare\e203\zhengdian_E203\sdk\hellow_test\Debug/../hbird_sdk/SoC/hbirdv2/Common/Source/Stubs/write.c:19
        uart_write(SOC_DEBUG_UART, writebuf[i]);
800005c8:	10013537          	lui	a0,0x10013
800005cc:	3f4000ef          	jal	ra,800009c0 <uart_write>
E:\VMshare\e203\zhengdian_E203\sdk\hellow_test\Debug/../hbird_sdk/SoC/hbirdv2/Common/Source/Stubs/write.c:15
    for (size_t i = 0; i < len; i++) {
800005d0:	00140413          	addi	s0,s0,1
E:\VMshare\e203\zhengdian_E203\sdk\hellow_test\Debug/../hbird_sdk/SoC/hbirdv2/Common/Source/Stubs/write.c:16
        if (writebuf[i] == '\n') {
800005d4:	00044583          	lbu	a1,0(s0)
800005d8:	24958e63          	beq	a1,s1,80000834 <_write+0x300>
E:\VMshare\e203\zhengdian_E203\sdk\hellow_test\Debug/../hbird_sdk/SoC/hbirdv2/Common/Source/Stubs/write.c:19
        uart_write(SOC_DEBUG_UART, writebuf[i]);
800005dc:	10013537          	lui	a0,0x10013
800005e0:	3e0000ef          	jal	ra,800009c0 <uart_write>
E:\VMshare\e203\zhengdian_E203\sdk\hellow_test\Debug/../hbird_sdk/SoC/hbirdv2/Common/Source/Stubs/write.c:15
    for (size_t i = 0; i < len; i++) {
800005e4:	00140413          	addi	s0,s0,1
E:\VMshare\e203\zhengdian_E203\sdk\hellow_test\Debug/../hbird_sdk/SoC/hbirdv2/Common/Source/Stubs/write.c:16
        if (writebuf[i] == '\n') {
800005e8:	00044583          	lbu	a1,0(s0)
800005ec:	22958a63          	beq	a1,s1,80000820 <_write+0x2ec>
E:\VMshare\e203\zhengdian_E203\sdk\hellow_test\Debug/../hbird_sdk/SoC/hbirdv2/Common/Source/Stubs/write.c:19
        uart_write(SOC_DEBUG_UART, writebuf[i]);
800005f0:	10013537          	lui	a0,0x10013
800005f4:	3cc000ef          	jal	ra,800009c0 <uart_write>
E:\VMshare\e203\zhengdian_E203\sdk\hellow_test\Debug/../hbird_sdk/SoC/hbirdv2/Common/Source/Stubs/write.c:15
    for (size_t i = 0; i < len; i++) {
800005f8:	00140413          	addi	s0,s0,1
E:\VMshare\e203\zhengdian_E203\sdk\hellow_test\Debug/../hbird_sdk/SoC/hbirdv2/Common/Source/Stubs/write.c:16
        if (writebuf[i] == '\n') {
800005fc:	00044583          	lbu	a1,0(s0)
80000600:	1e958263          	beq	a1,s1,800007e4 <_write+0x2b0>
E:\VMshare\e203\zhengdian_E203\sdk\hellow_test\Debug/../hbird_sdk/SoC/hbirdv2/Common/Source/Stubs/write.c:19
        uart_write(SOC_DEBUG_UART, writebuf[i]);
80000604:	10013537          	lui	a0,0x10013
80000608:	3b8000ef          	jal	ra,800009c0 <uart_write>
E:\VMshare\e203\zhengdian_E203\sdk\hellow_test\Debug/../hbird_sdk/SoC/hbirdv2/Common/Source/Stubs/write.c:15
    for (size_t i = 0; i < len; i++) {
8000060c:	00140413          	addi	s0,s0,1
E:\VMshare\e203\zhengdian_E203\sdk\hellow_test\Debug/../hbird_sdk/SoC/hbirdv2/Common/Source/Stubs/write.c:16
        if (writebuf[i] == '\n') {
80000610:	00044583          	lbu	a1,0(s0)
80000614:	1e958c63          	beq	a1,s1,8000080c <_write+0x2d8>
E:\VMshare\e203\zhengdian_E203\sdk\hellow_test\Debug/../hbird_sdk/SoC/hbirdv2/Common/Source/Stubs/write.c:19
        uart_write(SOC_DEBUG_UART, writebuf[i]);
80000618:	10013537          	lui	a0,0x10013
8000061c:	3a4000ef          	jal	ra,800009c0 <uart_write>
E:\VMshare\e203\zhengdian_E203\sdk\hellow_test\Debug/../hbird_sdk/SoC/hbirdv2/Common/Source/Stubs/write.c:15
    for (size_t i = 0; i < len; i++) {
80000620:	00140413          	addi	s0,s0,1
E:\VMshare\e203\zhengdian_E203\sdk\hellow_test\Debug/../hbird_sdk/SoC/hbirdv2/Common/Source/Stubs/write.c:16
        if (writebuf[i] == '\n') {
80000624:	00044583          	lbu	a1,0(s0)
80000628:	1c958863          	beq	a1,s1,800007f8 <_write+0x2c4>
E:\VMshare\e203\zhengdian_E203\sdk\hellow_test\Debug/../hbird_sdk/SoC/hbirdv2/Common/Source/Stubs/write.c:15
    for (size_t i = 0; i < len; i++) {
8000062c:	00140413          	addi	s0,s0,1
E:\VMshare\e203\zhengdian_E203\sdk\hellow_test\Debug/../hbird_sdk/SoC/hbirdv2/Common/Source/Stubs/write.c:19
        uart_write(SOC_DEBUG_UART, writebuf[i]);
80000630:	10013537          	lui	a0,0x10013
80000634:	38c000ef          	jal	ra,800009c0 <uart_write>
E:\VMshare\e203\zhengdian_E203\sdk\hellow_test\Debug/../hbird_sdk/SoC/hbirdv2/Common/Source/Stubs/write.c:15
    for (size_t i = 0; i < len; i++) {
80000638:	0b441e63          	bne	s0,s4,800006f4 <_write+0x1c0>
E:\VMshare\e203\zhengdian_E203\sdk\hellow_test\Debug/../hbird_sdk/SoC/hbirdv2/Common/Source/Stubs/write.c:21
    }
    return len;
8000063c:	00098513          	mv	a0,s3
E:\VMshare\e203\zhengdian_E203\sdk\hellow_test\Debug/../hbird_sdk/SoC/hbirdv2/Common/Source/Stubs/write.c:22
}
80000640:	01c12083          	lw	ra,28(sp)
80000644:	01812403          	lw	s0,24(sp)
80000648:	01412483          	lw	s1,20(sp)
8000064c:	01012903          	lw	s2,16(sp)
80000650:	00c12983          	lw	s3,12(sp)
80000654:	00812a03          	lw	s4,8(sp)
80000658:	02010113          	addi	sp,sp,32
8000065c:	00008067          	ret
E:\VMshare\e203\zhengdian_E203\sdk\hellow_test\Debug/../hbird_sdk/SoC/hbirdv2/Common/Source/Stubs/write.c:17
            uart_write(SOC_DEBUG_UART, '\r');
80000660:	00d00593          	li	a1,13
80000664:	10013537          	lui	a0,0x10013
80000668:	358000ef          	jal	ra,800009c0 <uart_write>
E:\VMshare\e203\zhengdian_E203\sdk\hellow_test\Debug/../hbird_sdk/SoC/hbirdv2/Common/Source/Stubs/write.c:19
        uart_write(SOC_DEBUG_UART, writebuf[i]);
8000066c:	00044583          	lbu	a1,0(s0)
80000670:	10013537          	lui	a0,0x10013
E:\VMshare\e203\zhengdian_E203\sdk\hellow_test\Debug/../hbird_sdk/SoC/hbirdv2/Common/Source/Stubs/write.c:15
    for (size_t i = 0; i < len; i++) {
80000674:	00140913          	addi	s2,s0,1
E:\VMshare\e203\zhengdian_E203\sdk\hellow_test\Debug/../hbird_sdk/SoC/hbirdv2/Common/Source/Stubs/write.c:19
        uart_write(SOC_DEBUG_UART, writebuf[i]);
80000678:	348000ef          	jal	ra,800009c0 <uart_write>
E:\VMshare\e203\zhengdian_E203\sdk\hellow_test\Debug/../hbird_sdk/SoC/hbirdv2/Common/Source/Stubs/write.c:16
        if (writebuf[i] == '\n') {
8000067c:	00144583          	lbu	a1,1(s0)
80000680:	08958863          	beq	a1,s1,80000710 <_write+0x1dc>
E:\VMshare\e203\zhengdian_E203\sdk\hellow_test\Debug/../hbird_sdk/SoC/hbirdv2/Common/Source/Stubs/write.c:19
        uart_write(SOC_DEBUG_UART, writebuf[i]);
80000684:	10013537          	lui	a0,0x10013
80000688:	338000ef          	jal	ra,800009c0 <uart_write>
E:\VMshare\e203\zhengdian_E203\sdk\hellow_test\Debug/../hbird_sdk/SoC/hbirdv2/Common/Source/Stubs/write.c:16
        if (writebuf[i] == '\n') {
8000068c:	00194583          	lbu	a1,1(s2)
80000690:	0a958063          	beq	a1,s1,80000730 <_write+0x1fc>
E:\VMshare\e203\zhengdian_E203\sdk\hellow_test\Debug/../hbird_sdk/SoC/hbirdv2/Common/Source/Stubs/write.c:19
        uart_write(SOC_DEBUG_UART, writebuf[i]);
80000694:	10013537          	lui	a0,0x10013
80000698:	328000ef          	jal	ra,800009c0 <uart_write>
E:\VMshare\e203\zhengdian_E203\sdk\hellow_test\Debug/../hbird_sdk/SoC/hbirdv2/Common/Source/Stubs/write.c:16
        if (writebuf[i] == '\n') {
8000069c:	00294583          	lbu	a1,2(s2)
800006a0:	0a958863          	beq	a1,s1,80000750 <_write+0x21c>
E:\VMshare\e203\zhengdian_E203\sdk\hellow_test\Debug/../hbird_sdk/SoC/hbirdv2/Common/Source/Stubs/write.c:19
        uart_write(SOC_DEBUG_UART, writebuf[i]);
800006a4:	10013537          	lui	a0,0x10013
800006a8:	318000ef          	jal	ra,800009c0 <uart_write>
E:\VMshare\e203\zhengdian_E203\sdk\hellow_test\Debug/../hbird_sdk/SoC/hbirdv2/Common/Source/Stubs/write.c:16
        if (writebuf[i] == '\n') {
800006ac:	00394583          	lbu	a1,3(s2)
800006b0:	0c958063          	beq	a1,s1,80000770 <_write+0x23c>
E:\VMshare\e203\zhengdian_E203\sdk\hellow_test\Debug/../hbird_sdk/SoC/hbirdv2/Common/Source/Stubs/write.c:19
        uart_write(SOC_DEBUG_UART, writebuf[i]);
800006b4:	10013537          	lui	a0,0x10013
800006b8:	308000ef          	jal	ra,800009c0 <uart_write>
E:\VMshare\e203\zhengdian_E203\sdk\hellow_test\Debug/../hbird_sdk/SoC/hbirdv2/Common/Source/Stubs/write.c:16
        if (writebuf[i] == '\n') {
800006bc:	00494583          	lbu	a1,4(s2)
800006c0:	0c958863          	beq	a1,s1,80000790 <_write+0x25c>
E:\VMshare\e203\zhengdian_E203\sdk\hellow_test\Debug/../hbird_sdk/SoC/hbirdv2/Common/Source/Stubs/write.c:19
        uart_write(SOC_DEBUG_UART, writebuf[i]);
800006c4:	10013537          	lui	a0,0x10013
800006c8:	2f8000ef          	jal	ra,800009c0 <uart_write>
E:\VMshare\e203\zhengdian_E203\sdk\hellow_test\Debug/../hbird_sdk/SoC/hbirdv2/Common/Source/Stubs/write.c:16
        if (writebuf[i] == '\n') {
800006cc:	00594583          	lbu	a1,5(s2)
800006d0:	0e958063          	beq	a1,s1,800007b0 <_write+0x27c>
E:\VMshare\e203\zhengdian_E203\sdk\hellow_test\Debug/../hbird_sdk/SoC/hbirdv2/Common/Source/Stubs/write.c:19
        uart_write(SOC_DEBUG_UART, writebuf[i]);
800006d4:	10013537          	lui	a0,0x10013
800006d8:	2e8000ef          	jal	ra,800009c0 <uart_write>
E:\VMshare\e203\zhengdian_E203\sdk\hellow_test\Debug/../hbird_sdk/SoC/hbirdv2/Common/Source/Stubs/write.c:16
        if (writebuf[i] == '\n') {
800006dc:	00694583          	lbu	a1,6(s2)
800006e0:	0e958863          	beq	a1,s1,800007d0 <_write+0x29c>
E:\VMshare\e203\zhengdian_E203\sdk\hellow_test\Debug/../hbird_sdk/SoC/hbirdv2/Common/Source/Stubs/write.c:15
    for (size_t i = 0; i < len; i++) {
800006e4:	00790413          	addi	s0,s2,7
E:\VMshare\e203\zhengdian_E203\sdk\hellow_test\Debug/../hbird_sdk/SoC/hbirdv2/Common/Source/Stubs/write.c:19
        uart_write(SOC_DEBUG_UART, writebuf[i]);
800006e8:	10013537          	lui	a0,0x10013
800006ec:	2d4000ef          	jal	ra,800009c0 <uart_write>
E:\VMshare\e203\zhengdian_E203\sdk\hellow_test\Debug/../hbird_sdk/SoC/hbirdv2/Common/Source/Stubs/write.c:15
    for (size_t i = 0; i < len; i++) {
800006f0:	f54406e3          	beq	s0,s4,8000063c <_write+0x108>
E:\VMshare\e203\zhengdian_E203\sdk\hellow_test\Debug/../hbird_sdk/SoC/hbirdv2/Common/Source/Stubs/write.c:16
        if (writebuf[i] == '\n') {
800006f4:	00044583          	lbu	a1,0(s0)
800006f8:	f69584e3          	beq	a1,s1,80000660 <_write+0x12c>
E:\VMshare\e203\zhengdian_E203\sdk\hellow_test\Debug/../hbird_sdk/SoC/hbirdv2/Common/Source/Stubs/write.c:19
        uart_write(SOC_DEBUG_UART, writebuf[i]);
800006fc:	10013537          	lui	a0,0x10013
80000700:	2c0000ef          	jal	ra,800009c0 <uart_write>
E:\VMshare\e203\zhengdian_E203\sdk\hellow_test\Debug/../hbird_sdk/SoC/hbirdv2/Common/Source/Stubs/write.c:16
        if (writebuf[i] == '\n') {
80000704:	00144583          	lbu	a1,1(s0)
E:\VMshare\e203\zhengdian_E203\sdk\hellow_test\Debug/../hbird_sdk/SoC/hbirdv2/Common/Source/Stubs/write.c:15
    for (size_t i = 0; i < len; i++) {
80000708:	00140913          	addi	s2,s0,1
E:\VMshare\e203\zhengdian_E203\sdk\hellow_test\Debug/../hbird_sdk/SoC/hbirdv2/Common/Source/Stubs/write.c:16
        if (writebuf[i] == '\n') {
8000070c:	f6959ce3          	bne	a1,s1,80000684 <_write+0x150>
E:\VMshare\e203\zhengdian_E203\sdk\hellow_test\Debug/../hbird_sdk/SoC/hbirdv2/Common/Source/Stubs/write.c:17
            uart_write(SOC_DEBUG_UART, '\r');
80000710:	00d00593          	li	a1,13
80000714:	10013537          	lui	a0,0x10013
80000718:	2a8000ef          	jal	ra,800009c0 <uart_write>
E:\VMshare\e203\zhengdian_E203\sdk\hellow_test\Debug/../hbird_sdk/SoC/hbirdv2/Common/Source/Stubs/write.c:19
        uart_write(SOC_DEBUG_UART, writebuf[i]);
8000071c:	00144583          	lbu	a1,1(s0)
80000720:	10013537          	lui	a0,0x10013
80000724:	29c000ef          	jal	ra,800009c0 <uart_write>
E:\VMshare\e203\zhengdian_E203\sdk\hellow_test\Debug/../hbird_sdk/SoC/hbirdv2/Common/Source/Stubs/write.c:16
        if (writebuf[i] == '\n') {
80000728:	00194583          	lbu	a1,1(s2)
8000072c:	f69594e3          	bne	a1,s1,80000694 <_write+0x160>
E:\VMshare\e203\zhengdian_E203\sdk\hellow_test\Debug/../hbird_sdk/SoC/hbirdv2/Common/Source/Stubs/write.c:17
            uart_write(SOC_DEBUG_UART, '\r');
80000730:	00d00593          	li	a1,13
80000734:	10013537          	lui	a0,0x10013
80000738:	288000ef          	jal	ra,800009c0 <uart_write>
E:\VMshare\e203\zhengdian_E203\sdk\hellow_test\Debug/../hbird_sdk/SoC/hbirdv2/Common/Source/Stubs/write.c:19
        uart_write(SOC_DEBUG_UART, writebuf[i]);
8000073c:	00194583          	lbu	a1,1(s2)
80000740:	10013537          	lui	a0,0x10013
80000744:	27c000ef          	jal	ra,800009c0 <uart_write>
E:\VMshare\e203\zhengdian_E203\sdk\hellow_test\Debug/../hbird_sdk/SoC/hbirdv2/Common/Source/Stubs/write.c:16
        if (writebuf[i] == '\n') {
80000748:	00294583          	lbu	a1,2(s2)
8000074c:	f4959ce3          	bne	a1,s1,800006a4 <_write+0x170>
E:\VMshare\e203\zhengdian_E203\sdk\hellow_test\Debug/../hbird_sdk/SoC/hbirdv2/Common/Source/Stubs/write.c:17
            uart_write(SOC_DEBUG_UART, '\r');
80000750:	00d00593          	li	a1,13
80000754:	10013537          	lui	a0,0x10013
80000758:	268000ef          	jal	ra,800009c0 <uart_write>
E:\VMshare\e203\zhengdian_E203\sdk\hellow_test\Debug/../hbird_sdk/SoC/hbirdv2/Common/Source/Stubs/write.c:19
        uart_write(SOC_DEBUG_UART, writebuf[i]);
8000075c:	00294583          	lbu	a1,2(s2)
80000760:	10013537          	lui	a0,0x10013
80000764:	25c000ef          	jal	ra,800009c0 <uart_write>
E:\VMshare\e203\zhengdian_E203\sdk\hellow_test\Debug/../hbird_sdk/SoC/hbirdv2/Common/Source/Stubs/write.c:16
        if (writebuf[i] == '\n') {
80000768:	00394583          	lbu	a1,3(s2)
8000076c:	f49594e3          	bne	a1,s1,800006b4 <_write+0x180>
E:\VMshare\e203\zhengdian_E203\sdk\hellow_test\Debug/../hbird_sdk/SoC/hbirdv2/Common/Source/Stubs/write.c:17
            uart_write(SOC_DEBUG_UART, '\r');
80000770:	00d00593          	li	a1,13
80000774:	10013537          	lui	a0,0x10013
80000778:	248000ef          	jal	ra,800009c0 <uart_write>
E:\VMshare\e203\zhengdian_E203\sdk\hellow_test\Debug/../hbird_sdk/SoC/hbirdv2/Common/Source/Stubs/write.c:19
        uart_write(SOC_DEBUG_UART, writebuf[i]);
8000077c:	00394583          	lbu	a1,3(s2)
80000780:	10013537          	lui	a0,0x10013
80000784:	23c000ef          	jal	ra,800009c0 <uart_write>
E:\VMshare\e203\zhengdian_E203\sdk\hellow_test\Debug/../hbird_sdk/SoC/hbirdv2/Common/Source/Stubs/write.c:16
        if (writebuf[i] == '\n') {
80000788:	00494583          	lbu	a1,4(s2)
8000078c:	f2959ce3          	bne	a1,s1,800006c4 <_write+0x190>
E:\VMshare\e203\zhengdian_E203\sdk\hellow_test\Debug/../hbird_sdk/SoC/hbirdv2/Common/Source/Stubs/write.c:17
            uart_write(SOC_DEBUG_UART, '\r');
80000790:	00d00593          	li	a1,13
80000794:	10013537          	lui	a0,0x10013
80000798:	228000ef          	jal	ra,800009c0 <uart_write>
E:\VMshare\e203\zhengdian_E203\sdk\hellow_test\Debug/../hbird_sdk/SoC/hbirdv2/Common/Source/Stubs/write.c:19
        uart_write(SOC_DEBUG_UART, writebuf[i]);
8000079c:	00494583          	lbu	a1,4(s2)
800007a0:	10013537          	lui	a0,0x10013
800007a4:	21c000ef          	jal	ra,800009c0 <uart_write>
E:\VMshare\e203\zhengdian_E203\sdk\hellow_test\Debug/../hbird_sdk/SoC/hbirdv2/Common/Source/Stubs/write.c:16
        if (writebuf[i] == '\n') {
800007a8:	00594583          	lbu	a1,5(s2)
800007ac:	f29594e3          	bne	a1,s1,800006d4 <_write+0x1a0>
E:\VMshare\e203\zhengdian_E203\sdk\hellow_test\Debug/../hbird_sdk/SoC/hbirdv2/Common/Source/Stubs/write.c:17
            uart_write(SOC_DEBUG_UART, '\r');
800007b0:	00d00593          	li	a1,13
800007b4:	10013537          	lui	a0,0x10013
800007b8:	208000ef          	jal	ra,800009c0 <uart_write>
E:\VMshare\e203\zhengdian_E203\sdk\hellow_test\Debug/../hbird_sdk/SoC/hbirdv2/Common/Source/Stubs/write.c:19
        uart_write(SOC_DEBUG_UART, writebuf[i]);
800007bc:	00594583          	lbu	a1,5(s2)
800007c0:	10013537          	lui	a0,0x10013
800007c4:	1fc000ef          	jal	ra,800009c0 <uart_write>
E:\VMshare\e203\zhengdian_E203\sdk\hellow_test\Debug/../hbird_sdk/SoC/hbirdv2/Common/Source/Stubs/write.c:16
        if (writebuf[i] == '\n') {
800007c8:	00694583          	lbu	a1,6(s2)
800007cc:	f0959ce3          	bne	a1,s1,800006e4 <_write+0x1b0>
E:\VMshare\e203\zhengdian_E203\sdk\hellow_test\Debug/../hbird_sdk/SoC/hbirdv2/Common/Source/Stubs/write.c:17
            uart_write(SOC_DEBUG_UART, '\r');
800007d0:	00d00593          	li	a1,13
800007d4:	10013537          	lui	a0,0x10013
800007d8:	1e8000ef          	jal	ra,800009c0 <uart_write>
E:\VMshare\e203\zhengdian_E203\sdk\hellow_test\Debug/../hbird_sdk/SoC/hbirdv2/Common/Source/Stubs/write.c:19
        uart_write(SOC_DEBUG_UART, writebuf[i]);
800007dc:	00694583          	lbu	a1,6(s2)
800007e0:	f05ff06f          	j	800006e4 <_write+0x1b0>
E:\VMshare\e203\zhengdian_E203\sdk\hellow_test\Debug/../hbird_sdk/SoC/hbirdv2/Common/Source/Stubs/write.c:17
            uart_write(SOC_DEBUG_UART, '\r');
800007e4:	00d00593          	li	a1,13
800007e8:	10013537          	lui	a0,0x10013
800007ec:	1d4000ef          	jal	ra,800009c0 <uart_write>
E:\VMshare\e203\zhengdian_E203\sdk\hellow_test\Debug/../hbird_sdk/SoC/hbirdv2/Common/Source/Stubs/write.c:19
        uart_write(SOC_DEBUG_UART, writebuf[i]);
800007f0:	00044583          	lbu	a1,0(s0)
800007f4:	e11ff06f          	j	80000604 <_write+0xd0>
E:\VMshare\e203\zhengdian_E203\sdk\hellow_test\Debug/../hbird_sdk/SoC/hbirdv2/Common/Source/Stubs/write.c:17
            uart_write(SOC_DEBUG_UART, '\r');
800007f8:	00d00593          	li	a1,13
800007fc:	10013537          	lui	a0,0x10013
80000800:	1c0000ef          	jal	ra,800009c0 <uart_write>
E:\VMshare\e203\zhengdian_E203\sdk\hellow_test\Debug/../hbird_sdk/SoC/hbirdv2/Common/Source/Stubs/write.c:19
        uart_write(SOC_DEBUG_UART, writebuf[i]);
80000804:	00044583          	lbu	a1,0(s0)
80000808:	e25ff06f          	j	8000062c <_write+0xf8>
E:\VMshare\e203\zhengdian_E203\sdk\hellow_test\Debug/../hbird_sdk/SoC/hbirdv2/Common/Source/Stubs/write.c:17
            uart_write(SOC_DEBUG_UART, '\r');
8000080c:	00d00593          	li	a1,13
80000810:	10013537          	lui	a0,0x10013
80000814:	1ac000ef          	jal	ra,800009c0 <uart_write>
E:\VMshare\e203\zhengdian_E203\sdk\hellow_test\Debug/../hbird_sdk/SoC/hbirdv2/Common/Source/Stubs/write.c:19
        uart_write(SOC_DEBUG_UART, writebuf[i]);
80000818:	00044583          	lbu	a1,0(s0)
8000081c:	dfdff06f          	j	80000618 <_write+0xe4>
E:\VMshare\e203\zhengdian_E203\sdk\hellow_test\Debug/../hbird_sdk/SoC/hbirdv2/Common/Source/Stubs/write.c:17
            uart_write(SOC_DEBUG_UART, '\r');
80000820:	00d00593          	li	a1,13
80000824:	10013537          	lui	a0,0x10013
80000828:	198000ef          	jal	ra,800009c0 <uart_write>
E:\VMshare\e203\zhengdian_E203\sdk\hellow_test\Debug/../hbird_sdk/SoC/hbirdv2/Common/Source/Stubs/write.c:19
        uart_write(SOC_DEBUG_UART, writebuf[i]);
8000082c:	00044583          	lbu	a1,0(s0)
80000830:	dc1ff06f          	j	800005f0 <_write+0xbc>
E:\VMshare\e203\zhengdian_E203\sdk\hellow_test\Debug/../hbird_sdk/SoC/hbirdv2/Common/Source/Stubs/write.c:17
            uart_write(SOC_DEBUG_UART, '\r');
80000834:	00d00593          	li	a1,13
80000838:	10013537          	lui	a0,0x10013
8000083c:	184000ef          	jal	ra,800009c0 <uart_write>
E:\VMshare\e203\zhengdian_E203\sdk\hellow_test\Debug/../hbird_sdk/SoC/hbirdv2/Common/Source/Stubs/write.c:19
        uart_write(SOC_DEBUG_UART, writebuf[i]);
80000840:	00044583          	lbu	a1,0(s0)
80000844:	d99ff06f          	j	800005dc <_write+0xa8>
E:\VMshare\e203\zhengdian_E203\sdk\hellow_test\Debug/../hbird_sdk/SoC/hbirdv2/Common/Source/Stubs/write.c:17
            uart_write(SOC_DEBUG_UART, '\r');
80000848:	00d00593          	li	a1,13
8000084c:	10013537          	lui	a0,0x10013
80000850:	170000ef          	jal	ra,800009c0 <uart_write>
E:\VMshare\e203\zhengdian_E203\sdk\hellow_test\Debug/../hbird_sdk/SoC/hbirdv2/Common/Source/Stubs/write.c:19
        uart_write(SOC_DEBUG_UART, writebuf[i]);
80000854:	00044583          	lbu	a1,0(s0)
80000858:	d71ff06f          	j	800005c8 <_write+0x94>
E:\VMshare\e203\zhengdian_E203\sdk\hellow_test\Debug/../hbird_sdk/SoC/hbirdv2/Common/Source/Stubs/write.c:17
            uart_write(SOC_DEBUG_UART, '\r');
8000085c:	00d00593          	li	a1,13
80000860:	10013537          	lui	a0,0x10013
80000864:	15c000ef          	jal	ra,800009c0 <uart_write>
E:\VMshare\e203\zhengdian_E203\sdk\hellow_test\Debug/../hbird_sdk/SoC/hbirdv2/Common/Source/Stubs/write.c:19
        uart_write(SOC_DEBUG_UART, writebuf[i]);
80000868:	00094583          	lbu	a1,0(s2)
8000086c:	d49ff06f          	j	800005b4 <_write+0x80>
E:\VMshare\e203\zhengdian_E203\sdk\hellow_test\Debug/../hbird_sdk/SoC/hbirdv2/Common/Source/Stubs/write.c:11
        return -1;
80000870:	fff00513          	li	a0,-1
80000874:	dcdff06f          	j	80000640 <_write+0x10c>

80000878 <trap_entry>:
trap_entry():
E:\VMshare\e203\zhengdian_E203\sdk\hellow_test\Debug/../hbird_sdk/SoC/hbirdv2/Common/Source/GCC/intexc_hbirdv2.S:159
.align 2
.global trap_entry
.weak trap_entry
trap_entry:
    /* Save the caller saving registers (context) */
    SAVE_CONTEXT
80000878:	fb010113          	addi	sp,sp,-80
8000087c:	00112023          	sw	ra,0(sp)
80000880:	00412223          	sw	tp,4(sp)
80000884:	00512423          	sw	t0,8(sp)
80000888:	00612623          	sw	t1,12(sp)
8000088c:	00712823          	sw	t2,16(sp)
80000890:	00a12a23          	sw	a0,20(sp)
80000894:	00b12c23          	sw	a1,24(sp)
80000898:	00c12e23          	sw	a2,28(sp)
8000089c:	02d12023          	sw	a3,32(sp)
800008a0:	02e12223          	sw	a4,36(sp)
800008a4:	02f12423          	sw	a5,40(sp)
800008a8:	03012c23          	sw	a6,56(sp)
800008ac:	03112e23          	sw	a7,60(sp)
800008b0:	05c12023          	sw	t3,64(sp)
800008b4:	05d12223          	sw	t4,68(sp)
800008b8:	05e12423          	sw	t5,72(sp)
800008bc:	05f12623          	sw	t6,76(sp)
E:\VMshare\e203\zhengdian_E203\sdk\hellow_test\Debug/../hbird_sdk/SoC/hbirdv2/Common/Source/GCC/intexc_hbirdv2.S:161
    /* Save the necessary CSR registers */
    SAVE_CSR_CONTEXT
800008c0:	341022f3          	csrr	t0,mepc
800008c4:	02512623          	sw	t0,44(sp)
800008c8:	342022f3          	csrr	t0,mcause
800008cc:	02512823          	sw	t0,48(sp)
800008d0:	300022f3          	csrr	t0,mstatus
800008d4:	02512a23          	sw	t0,52(sp)
E:\VMshare\e203\zhengdian_E203\sdk\hellow_test\Debug/../hbird_sdk/SoC/hbirdv2/Common/Source/GCC/intexc_hbirdv2.S:168
    /*
     * Set the exception handler function arguments
     * argument 1: mcause value
     * argument 2: current stack point(SP) value
     */
    csrr a0, mcause
800008d8:	34202573          	csrr	a0,mcause
E:\VMshare\e203\zhengdian_E203\sdk\hellow_test\Debug/../hbird_sdk/SoC/hbirdv2/Common/Source/GCC/intexc_hbirdv2.S:169
    mv a1, sp
800008dc:	00010593          	mv	a1,sp
E:\VMshare\e203\zhengdian_E203\sdk\hellow_test\Debug/../hbird_sdk/SoC/hbirdv2/Common/Source/GCC/intexc_hbirdv2.S:175
    /*
     * TODO: Call the trap handler function
     * By default, the function template is provided in
     * system_Device.c, you can adjust it as you want
     */
    call core_trap_handler
800008e0:	568000ef          	jal	ra,80000e48 <core_trap_handler>
E:\VMshare\e203\zhengdian_E203\sdk\hellow_test\Debug/../hbird_sdk/SoC/hbirdv2/Common/Source/GCC/intexc_hbirdv2.S:178

    /* Restore the necessary CSR registers */
    RESTORE_CSR_CONTEXT
800008e4:	02c12283          	lw	t0,44(sp)
800008e8:	34129073          	csrw	mepc,t0
800008ec:	03012283          	lw	t0,48(sp)
800008f0:	34229073          	csrw	mcause,t0
800008f4:	03412283          	lw	t0,52(sp)
800008f8:	30029073          	csrw	mstatus,t0
E:\VMshare\e203\zhengdian_E203\sdk\hellow_test\Debug/../hbird_sdk/SoC/hbirdv2/Common/Source/GCC/intexc_hbirdv2.S:180
    /* Restore the caller saving registers (context) */
    RESTORE_CONTEXT
800008fc:	00012083          	lw	ra,0(sp)
80000900:	00412203          	lw	tp,4(sp)
80000904:	00812283          	lw	t0,8(sp)
80000908:	00c12303          	lw	t1,12(sp)
8000090c:	01012383          	lw	t2,16(sp)
80000910:	01412503          	lw	a0,20(sp)
80000914:	01812583          	lw	a1,24(sp)
80000918:	01c12603          	lw	a2,28(sp)
8000091c:	02012683          	lw	a3,32(sp)
80000920:	02412703          	lw	a4,36(sp)
80000924:	02812783          	lw	a5,40(sp)
80000928:	03812803          	lw	a6,56(sp)
8000092c:	03c12883          	lw	a7,60(sp)
80000930:	04012e03          	lw	t3,64(sp)
80000934:	04412e83          	lw	t4,68(sp)
80000938:	04812f03          	lw	t5,72(sp)
8000093c:	04c12f83          	lw	t6,76(sp)
80000940:	05010113          	addi	sp,sp,80
E:\VMshare\e203\zhengdian_E203\sdk\hellow_test\Debug/../hbird_sdk/SoC/hbirdv2/Common/Source/GCC/intexc_hbirdv2.S:183

    /* Return to regular code */
    mret
80000944:	30200073          	mret

80000948 <gpio_iof_config>:
gpio_iof_config():
E:\VMshare\e203\zhengdian_E203\sdk\hellow_test\Debug/../hbird_sdk/SoC/hbirdv2/Common/Source/Drivers/hbirdv2_gpio.c:5
#include "hbirdv2.h"
#include "hbirdv2_gpio.h"

int32_t gpio_iof_config(GPIO_TypeDef *gpio, uint32_t mask)
{
80000948:	00050793          	mv	a5,a0
E:\VMshare\e203\zhengdian_E203\sdk\hellow_test\Debug/../hbird_sdk/SoC/hbirdv2/Common/Source/Drivers/hbirdv2_gpio.c:6
    if (__RARELY(gpio == NULL)) {
8000094c:	00050c63          	beqz	a0,80000964 <gpio_iof_config+0x1c>
E:\VMshare\e203\zhengdian_E203\sdk\hellow_test\Debug/../hbird_sdk/SoC/hbirdv2/Common/Source/Drivers/hbirdv2_gpio.c:9
        return -1;
    }
    gpio->IOFCFG |= mask;
80000950:	01c52703          	lw	a4,28(a0) # 1001301c <__stack_size+0x1001281c>
E:\VMshare\e203\zhengdian_E203\sdk\hellow_test\Debug/../hbird_sdk/SoC/hbirdv2/Common/Source/Drivers/hbirdv2_gpio.c:11

    return 0;
80000954:	00000513          	li	a0,0
E:\VMshare\e203\zhengdian_E203\sdk\hellow_test\Debug/../hbird_sdk/SoC/hbirdv2/Common/Source/Drivers/hbirdv2_gpio.c:9
    gpio->IOFCFG |= mask;
80000958:	00b765b3          	or	a1,a4,a1
8000095c:	00b7ae23          	sw	a1,28(a5)
E:\VMshare\e203\zhengdian_E203\sdk\hellow_test\Debug/../hbird_sdk/SoC/hbirdv2/Common/Source/Drivers/hbirdv2_gpio.c:11
    return 0;
80000960:	00008067          	ret
E:\VMshare\e203\zhengdian_E203\sdk\hellow_test\Debug/../hbird_sdk/SoC/hbirdv2/Common/Source/Drivers/hbirdv2_gpio.c:7
        return -1;
80000964:	fff00513          	li	a0,-1
E:\VMshare\e203\zhengdian_E203\sdk\hellow_test\Debug/../hbird_sdk/SoC/hbirdv2/Common/Source/Drivers/hbirdv2_gpio.c:12
}
80000968:	00008067          	ret

8000096c <uart_init>:
uart_init():
E:\VMshare\e203\zhengdian_E203\sdk\hellow_test\Debug/../hbird_sdk/SoC/hbirdv2/Common/Source/Drivers/hbirdv2_uart.c:5
#include "hbirdv2.h"
#include "hbirdv2_uart.h"

int32_t uart_init(UART_TypeDef *uart, uint32_t baudrate)
{
8000096c:	00050793          	mv	a5,a0
E:\VMshare\e203\zhengdian_E203\sdk\hellow_test\Debug/../hbird_sdk/SoC/hbirdv2/Common/Source/Drivers/hbirdv2_uart.c:6
    if (__RARELY(uart == NULL)) {
80000970:	04050463          	beqz	a0,800009b8 <uart_init+0x4c>
E:\VMshare\e203\zhengdian_E203\sdk\hellow_test\Debug/../hbird_sdk/SoC/hbirdv2/Common/Source/Drivers/hbirdv2_uart.c:10
        return -1;
    }

    unsigned int uart_div = SystemCoreClock / baudrate - 1;
80000974:	0ffff717          	auipc	a4,0xffff
80000978:	6f072703          	lw	a4,1776(a4) # 90000064 <SystemCoreClock>
8000097c:	02b755b3          	divu	a1,a4,a1
E:\VMshare\e203\zhengdian_E203\sdk\hellow_test\Debug/../hbird_sdk/SoC/hbirdv2/Common/Source/Drivers/hbirdv2_uart.c:11
    uart->LCR = 0x80;
80000980:	08000293          	li	t0,128
80000984:	00552623          	sw	t0,12(a0)
E:\VMshare\e203\zhengdian_E203\sdk\hellow_test\Debug/../hbird_sdk/SoC/hbirdv2/Common/Source/Drivers/hbirdv2_uart.c:14
    uart->DLM = (uart_div >> 8) & 0xFF;
    uart->DLL = uart_div        & 0xFF;
    uart->FCR = 0xC6;
80000988:	0c600813          	li	a6,198
E:\VMshare\e203\zhengdian_E203\sdk\hellow_test\Debug/../hbird_sdk/SoC/hbirdv2/Common/Source/Drivers/hbirdv2_uart.c:15
    uart->LCR = 0x03;
8000098c:	00300893          	li	a7,3
E:\VMshare\e203\zhengdian_E203\sdk\hellow_test\Debug/../hbird_sdk/SoC/hbirdv2/Common/Source/Drivers/hbirdv2_uart.c:17

    return 0;
80000990:	00000513          	li	a0,0
E:\VMshare\e203\zhengdian_E203\sdk\hellow_test\Debug/../hbird_sdk/SoC/hbirdv2/Common/Source/Drivers/hbirdv2_uart.c:10
    unsigned int uart_div = SystemCoreClock / baudrate - 1;
80000994:	fff58313          	addi	t1,a1,-1
E:\VMshare\e203\zhengdian_E203\sdk\hellow_test\Debug/../hbird_sdk/SoC/hbirdv2/Common/Source/Drivers/hbirdv2_uart.c:12
    uart->DLM = (uart_div >> 8) & 0xFF;
80000998:	00835393          	srli	t2,t1,0x8
8000099c:	0ff3f613          	andi	a2,t2,255
800009a0:	00c7a223          	sw	a2,4(a5)
E:\VMshare\e203\zhengdian_E203\sdk\hellow_test\Debug/../hbird_sdk/SoC/hbirdv2/Common/Source/Drivers/hbirdv2_uart.c:13
    uart->DLL = uart_div        & 0xFF;
800009a4:	0ff37693          	andi	a3,t1,255
800009a8:	00d7a023          	sw	a3,0(a5)
E:\VMshare\e203\zhengdian_E203\sdk\hellow_test\Debug/../hbird_sdk/SoC/hbirdv2/Common/Source/Drivers/hbirdv2_uart.c:14
    uart->FCR = 0xC6;
800009ac:	0107a423          	sw	a6,8(a5)
E:\VMshare\e203\zhengdian_E203\sdk\hellow_test\Debug/../hbird_sdk/SoC/hbirdv2/Common/Source/Drivers/hbirdv2_uart.c:15
    uart->LCR = 0x03;
800009b0:	0117a623          	sw	a7,12(a5)
E:\VMshare\e203\zhengdian_E203\sdk\hellow_test\Debug/../hbird_sdk/SoC/hbirdv2/Common/Source/Drivers/hbirdv2_uart.c:17
    return 0;
800009b4:	00008067          	ret
E:\VMshare\e203\zhengdian_E203\sdk\hellow_test\Debug/../hbird_sdk/SoC/hbirdv2/Common/Source/Drivers/hbirdv2_uart.c:7
        return -1;
800009b8:	fff00513          	li	a0,-1
E:\VMshare\e203\zhengdian_E203\sdk\hellow_test\Debug/../hbird_sdk/SoC/hbirdv2/Common/Source/Drivers/hbirdv2_uart.c:18
}
800009bc:	00008067          	ret

800009c0 <uart_write>:
uart_write():
E:\VMshare\e203\zhengdian_E203\sdk\hellow_test\Debug/../hbird_sdk/SoC/hbirdv2/Common/Source/Drivers/hbirdv2_uart.c:67

    return 0;
}

int32_t uart_write(UART_TypeDef *uart, uint8_t val)
{
800009c0:	00050793          	mv	a5,a0
E:\VMshare\e203\zhengdian_E203\sdk\hellow_test\Debug/../hbird_sdk/SoC/hbirdv2/Common/Source/Drivers/hbirdv2_uart.c:68
    if (__RARELY(uart == NULL)) {
800009c4:	06050863          	beqz	a0,80000a34 <uart_write+0x74>
E:\VMshare\e203\zhengdian_E203\sdk\hellow_test\Debug/../hbird_sdk/SoC/hbirdv2/Common/Source/Drivers/hbirdv2_uart.c:73 (discriminator 1)
        return -1;
    }
#ifndef SIMULATION_SPIKE
#ifndef SIMULATION_XLSPIKE
    while ((uart->LSR & 0x20) == 0);
800009c8:	0147a703          	lw	a4,20(a5)
800009cc:	02077293          	andi	t0,a4,32
800009d0:	04029c63          	bnez	t0,80000a28 <uart_write+0x68>
E:\VMshare\e203\zhengdian_E203\sdk\hellow_test\Debug/../hbird_sdk/SoC/hbirdv2/Common/Source/Drivers/hbirdv2_uart.c:73
800009d4:	0147a303          	lw	t1,20(a5)
800009d8:	02037393          	andi	t2,t1,32
800009dc:	04039663          	bnez	t2,80000a28 <uart_write+0x68>
800009e0:	0147a503          	lw	a0,20(a5)
800009e4:	02057613          	andi	a2,a0,32
800009e8:	04061063          	bnez	a2,80000a28 <uart_write+0x68>
800009ec:	0147a683          	lw	a3,20(a5)
800009f0:	0206f813          	andi	a6,a3,32
800009f4:	02081a63          	bnez	a6,80000a28 <uart_write+0x68>
800009f8:	0147a883          	lw	a7,20(a5)
800009fc:	0208fe13          	andi	t3,a7,32
80000a00:	020e1463          	bnez	t3,80000a28 <uart_write+0x68>
80000a04:	0147ae83          	lw	t4,20(a5)
80000a08:	020eff13          	andi	t5,t4,32
80000a0c:	000f1e63          	bnez	t5,80000a28 <uart_write+0x68>
80000a10:	0147af83          	lw	t6,20(a5)
80000a14:	020ff713          	andi	a4,t6,32
80000a18:	00071863          	bnez	a4,80000a28 <uart_write+0x68>
80000a1c:	0147a283          	lw	t0,20(a5)
80000a20:	0202f313          	andi	t1,t0,32
80000a24:	fa0302e3          	beqz	t1,800009c8 <uart_write+0x8>
E:\VMshare\e203\zhengdian_E203\sdk\hellow_test\Debug/../hbird_sdk/SoC/hbirdv2/Common/Source/Drivers/hbirdv2_uart.c:80
    uart->THR = val;
#else
    extern void htif_putc(char ch);
    htif_putc(val);
#endif
    return 0;
80000a28:	00000513          	li	a0,0
E:\VMshare\e203\zhengdian_E203\sdk\hellow_test\Debug/../hbird_sdk/SoC/hbirdv2/Common/Source/Drivers/hbirdv2_uart.c:75
    uart->THR = val;
80000a2c:	00b7a023          	sw	a1,0(a5)
E:\VMshare\e203\zhengdian_E203\sdk\hellow_test\Debug/../hbird_sdk/SoC/hbirdv2/Common/Source/Drivers/hbirdv2_uart.c:80
    return 0;
80000a30:	00008067          	ret
E:\VMshare\e203\zhengdian_E203\sdk\hellow_test\Debug/../hbird_sdk/SoC/hbirdv2/Common/Source/Drivers/hbirdv2_uart.c:69
        return -1;
80000a34:	fff00513          	li	a0,-1
E:\VMshare\e203\zhengdian_E203\sdk\hellow_test\Debug/../hbird_sdk/SoC/hbirdv2/Common/Source/Drivers/hbirdv2_uart.c:81
}
80000a38:	00008067          	ret

80000a3c <uart_read>:
uart_read():
E:\VMshare\e203\zhengdian_E203\sdk\hellow_test\Debug/../hbird_sdk/SoC/hbirdv2/Common/Source/Drivers/hbirdv2_uart.c:86

uint8_t uart_read(UART_TypeDef *uart)
{
    uint32_t reg;
    if (__RARELY(uart == NULL)) {
80000a3c:	06050863          	beqz	a0,80000aac <uart_read+0x70>
E:\VMshare\e203\zhengdian_E203\sdk\hellow_test\Debug/../hbird_sdk/SoC/hbirdv2/Common/Source/Drivers/hbirdv2_uart.c:90 (discriminator 1)
        return -1;
    }
    
    while ((uart->LSR & 0x1) == 0);
80000a40:	01452783          	lw	a5,20(a0)
80000a44:	0017f293          	andi	t0,a5,1
80000a48:	04029c63          	bnez	t0,80000aa0 <uart_read+0x64>
E:\VMshare\e203\zhengdian_E203\sdk\hellow_test\Debug/../hbird_sdk/SoC/hbirdv2/Common/Source/Drivers/hbirdv2_uart.c:90
80000a4c:	01452303          	lw	t1,20(a0)
80000a50:	00137393          	andi	t2,t1,1
80000a54:	04039663          	bnez	t2,80000aa0 <uart_read+0x64>
80000a58:	01452583          	lw	a1,20(a0)
80000a5c:	0015f613          	andi	a2,a1,1
80000a60:	04061063          	bnez	a2,80000aa0 <uart_read+0x64>
80000a64:	01452683          	lw	a3,20(a0)
80000a68:	0016f713          	andi	a4,a3,1
80000a6c:	02071a63          	bnez	a4,80000aa0 <uart_read+0x64>
80000a70:	01452803          	lw	a6,20(a0)
80000a74:	00187893          	andi	a7,a6,1
80000a78:	02089463          	bnez	a7,80000aa0 <uart_read+0x64>
80000a7c:	01452e03          	lw	t3,20(a0)
80000a80:	001e7e93          	andi	t4,t3,1
80000a84:	000e9e63          	bnez	t4,80000aa0 <uart_read+0x64>
80000a88:	01452f03          	lw	t5,20(a0)
80000a8c:	001f7f93          	andi	t6,t5,1
80000a90:	000f9863          	bnez	t6,80000aa0 <uart_read+0x64>
80000a94:	01452783          	lw	a5,20(a0)
80000a98:	0017f293          	andi	t0,a5,1
80000a9c:	fa0282e3          	beqz	t0,80000a40 <uart_read+0x4>
E:\VMshare\e203\zhengdian_E203\sdk\hellow_test\Debug/../hbird_sdk/SoC/hbirdv2/Common/Source/Drivers/hbirdv2_uart.c:91
    reg = uart->RBR;
80000aa0:	00052503          	lw	a0,0(a0)
E:\VMshare\e203\zhengdian_E203\sdk\hellow_test\Debug/../hbird_sdk/SoC/hbirdv2/Common/Source/Drivers/hbirdv2_uart.c:93
    
    return (uint8_t)(reg & 0xFF);
80000aa4:	0ff57513          	andi	a0,a0,255
80000aa8:	00008067          	ret
E:\VMshare\e203\zhengdian_E203\sdk\hellow_test\Debug/../hbird_sdk/SoC/hbirdv2/Common/Source/Drivers/hbirdv2_uart.c:87
        return -1;
80000aac:	0ff00513          	li	a0,255
E:\VMshare\e203\zhengdian_E203\sdk\hellow_test\Debug/../hbird_sdk/SoC/hbirdv2/Common/Source/Drivers/hbirdv2_uart.c:94
}
80000ab0:	00008067          	ret

80000ab4 <get_cpu_freq>:
SysTimer_GetLoadValue():
E:\VMshare\e203\zhengdian_E203\sdk\hellow_test\hbird_sdk\NMSIS\Core\Include/core_feature_timer.h:106
 * - Load value is 64bits wide.
 * - \ref SysTimer_SetLoadValue
 */
__STATIC_FORCEINLINE uint64_t SysTimer_GetLoadValue(void)
{
    return SysTimer->MTIME;
80000ab4:	0200c7b7          	lui	a5,0x200c
80000ab8:	ff87a683          	lw	a3,-8(a5) # 200bff8 <__stack_size+0x200b7f8>
80000abc:	ffc7a783          	lw	a5,-4(a5)
get_cpu_freq():
E:\VMshare\e203\zhengdian_E203\sdk\hellow_test\Debug/../hbird_sdk/SoC/hbirdv2/Common/Source/hbirdv2_common.c:31
    return (delta_mcycle / delta_mtime) * mtime_freq
           + ((delta_mcycle % delta_mtime) * mtime_freq) / delta_mtime;
}

uint32_t get_cpu_freq(void)
{
80000ac0:	ff010113          	addi	sp,sp,-16
80000ac4:	00112623          	sw	ra,12(sp)
80000ac8:	00812423          	sw	s0,8(sp)
80000acc:	00912223          	sw	s1,4(sp)
SysTimer_GetLoadValue():
E:\VMshare\e203\zhengdian_E203\sdk\hellow_test\hbird_sdk\NMSIS\Core\Include/core_feature_timer.h:106
80000ad0:	0200c637          	lui	a2,0x200c
measure_cpu_freq():
E:\VMshare\e203\zhengdian_E203\sdk\hellow_test\Debug/../hbird_sdk/SoC/hbirdv2/Common/Source/hbirdv2_common.c:15
    uint32_t tmp = (uint32_t)SysTimer_GetLoadValue();
80000ad4:	00068093          	mv	ra,a3
SysTimer_GetLoadValue():
E:\VMshare\e203\zhengdian_E203\sdk\hellow_test\hbird_sdk\NMSIS\Core\Include/core_feature_timer.h:106
80000ad8:	ff862703          	lw	a4,-8(a2) # 200bff8 <__stack_size+0x200b7f8>
80000adc:	ffc62783          	lw	a5,-4(a2)
measure_cpu_freq():
E:\VMshare\e203\zhengdian_E203\sdk\hellow_test\Debug/../hbird_sdk/SoC/hbirdv2/Common/Source/hbirdv2_common.c:17
        start_mtime = (uint32_t)SysTimer_GetLoadValue();
80000ae0:	00070813          	mv	a6,a4
E:\VMshare\e203\zhengdian_E203\sdk\hellow_test\Debug/../hbird_sdk/SoC/hbirdv2/Common/Source/hbirdv2_common.c:18
        start_mcycle = __RV_CSR_READ(CSR_MCYCLE);
80000ae4:	b0002773          	csrr	a4,mcycle
E:\VMshare\e203\zhengdian_E203\sdk\hellow_test\Debug/../hbird_sdk/SoC/hbirdv2/Common/Source/hbirdv2_common.c:19
    } while (start_mtime == tmp);
80000ae8:	09009863          	bne	ra,a6,80000b78 <get_cpu_freq+0xc4>
SysTimer_GetLoadValue():
E:\VMshare\e203\zhengdian_E203\sdk\hellow_test\hbird_sdk\NMSIS\Core\Include/core_feature_timer.h:106
80000aec:	ff862283          	lw	t0,-8(a2)
80000af0:	ffc62783          	lw	a5,-4(a2)
measure_cpu_freq():
E:\VMshare\e203\zhengdian_E203\sdk\hellow_test\Debug/../hbird_sdk/SoC/hbirdv2/Common/Source/hbirdv2_common.c:17
        start_mtime = (uint32_t)SysTimer_GetLoadValue();
80000af4:	00028813          	mv	a6,t0
E:\VMshare\e203\zhengdian_E203\sdk\hellow_test\Debug/../hbird_sdk/SoC/hbirdv2/Common/Source/hbirdv2_common.c:18
        start_mcycle = __RV_CSR_READ(CSR_MCYCLE);
80000af8:	b0002773          	csrr	a4,mcycle
E:\VMshare\e203\zhengdian_E203\sdk\hellow_test\Debug/../hbird_sdk/SoC/hbirdv2/Common/Source/hbirdv2_common.c:19
    } while (start_mtime == tmp);
80000afc:	06509e63          	bne	ra,t0,80000b78 <get_cpu_freq+0xc4>
SysTimer_GetLoadValue():
E:\VMshare\e203\zhengdian_E203\sdk\hellow_test\hbird_sdk\NMSIS\Core\Include/core_feature_timer.h:106
80000b00:	ff862303          	lw	t1,-8(a2)
80000b04:	ffc62783          	lw	a5,-4(a2)
measure_cpu_freq():
E:\VMshare\e203\zhengdian_E203\sdk\hellow_test\Debug/../hbird_sdk/SoC/hbirdv2/Common/Source/hbirdv2_common.c:17
        start_mtime = (uint32_t)SysTimer_GetLoadValue();
80000b08:	00030813          	mv	a6,t1
E:\VMshare\e203\zhengdian_E203\sdk\hellow_test\Debug/../hbird_sdk/SoC/hbirdv2/Common/Source/hbirdv2_common.c:18
        start_mcycle = __RV_CSR_READ(CSR_MCYCLE);
80000b0c:	b0002773          	csrr	a4,mcycle
E:\VMshare\e203\zhengdian_E203\sdk\hellow_test\Debug/../hbird_sdk/SoC/hbirdv2/Common/Source/hbirdv2_common.c:19
    } while (start_mtime == tmp);
80000b10:	06609463          	bne	ra,t1,80000b78 <get_cpu_freq+0xc4>
SysTimer_GetLoadValue():
E:\VMshare\e203\zhengdian_E203\sdk\hellow_test\hbird_sdk\NMSIS\Core\Include/core_feature_timer.h:106
80000b14:	ff862383          	lw	t2,-8(a2)
80000b18:	ffc62783          	lw	a5,-4(a2)
measure_cpu_freq():
E:\VMshare\e203\zhengdian_E203\sdk\hellow_test\Debug/../hbird_sdk/SoC/hbirdv2/Common/Source/hbirdv2_common.c:17
        start_mtime = (uint32_t)SysTimer_GetLoadValue();
80000b1c:	00038813          	mv	a6,t2
E:\VMshare\e203\zhengdian_E203\sdk\hellow_test\Debug/../hbird_sdk/SoC/hbirdv2/Common/Source/hbirdv2_common.c:18
        start_mcycle = __RV_CSR_READ(CSR_MCYCLE);
80000b20:	b0002773          	csrr	a4,mcycle
E:\VMshare\e203\zhengdian_E203\sdk\hellow_test\Debug/../hbird_sdk/SoC/hbirdv2/Common/Source/hbirdv2_common.c:19
    } while (start_mtime == tmp);
80000b24:	04709a63          	bne	ra,t2,80000b78 <get_cpu_freq+0xc4>
SysTimer_GetLoadValue():
E:\VMshare\e203\zhengdian_E203\sdk\hellow_test\hbird_sdk\NMSIS\Core\Include/core_feature_timer.h:106
80000b28:	ff862403          	lw	s0,-8(a2)
80000b2c:	ffc62783          	lw	a5,-4(a2)
measure_cpu_freq():
E:\VMshare\e203\zhengdian_E203\sdk\hellow_test\Debug/../hbird_sdk/SoC/hbirdv2/Common/Source/hbirdv2_common.c:17
        start_mtime = (uint32_t)SysTimer_GetLoadValue();
80000b30:	00040813          	mv	a6,s0
E:\VMshare\e203\zhengdian_E203\sdk\hellow_test\Debug/../hbird_sdk/SoC/hbirdv2/Common/Source/hbirdv2_common.c:18
        start_mcycle = __RV_CSR_READ(CSR_MCYCLE);
80000b34:	b0002773          	csrr	a4,mcycle
E:\VMshare\e203\zhengdian_E203\sdk\hellow_test\Debug/../hbird_sdk/SoC/hbirdv2/Common/Source/hbirdv2_common.c:19
    } while (start_mtime == tmp);
80000b38:	04809063          	bne	ra,s0,80000b78 <get_cpu_freq+0xc4>
SysTimer_GetLoadValue():
E:\VMshare\e203\zhengdian_E203\sdk\hellow_test\hbird_sdk\NMSIS\Core\Include/core_feature_timer.h:106
80000b3c:	ff862483          	lw	s1,-8(a2)
80000b40:	ffc62783          	lw	a5,-4(a2)
measure_cpu_freq():
E:\VMshare\e203\zhengdian_E203\sdk\hellow_test\Debug/../hbird_sdk/SoC/hbirdv2/Common/Source/hbirdv2_common.c:17
        start_mtime = (uint32_t)SysTimer_GetLoadValue();
80000b44:	00048813          	mv	a6,s1
E:\VMshare\e203\zhengdian_E203\sdk\hellow_test\Debug/../hbird_sdk/SoC/hbirdv2/Common/Source/hbirdv2_common.c:18
        start_mcycle = __RV_CSR_READ(CSR_MCYCLE);
80000b48:	b0002773          	csrr	a4,mcycle
E:\VMshare\e203\zhengdian_E203\sdk\hellow_test\Debug/../hbird_sdk/SoC/hbirdv2/Common/Source/hbirdv2_common.c:19
    } while (start_mtime == tmp);
80000b4c:	02909663          	bne	ra,s1,80000b78 <get_cpu_freq+0xc4>
SysTimer_GetLoadValue():
E:\VMshare\e203\zhengdian_E203\sdk\hellow_test\hbird_sdk\NMSIS\Core\Include/core_feature_timer.h:106
80000b50:	ff862503          	lw	a0,-8(a2)
80000b54:	ffc62783          	lw	a5,-4(a2)
measure_cpu_freq():
E:\VMshare\e203\zhengdian_E203\sdk\hellow_test\Debug/../hbird_sdk/SoC/hbirdv2/Common/Source/hbirdv2_common.c:17
        start_mtime = (uint32_t)SysTimer_GetLoadValue();
80000b58:	00050813          	mv	a6,a0
E:\VMshare\e203\zhengdian_E203\sdk\hellow_test\Debug/../hbird_sdk/SoC/hbirdv2/Common/Source/hbirdv2_common.c:18
        start_mcycle = __RV_CSR_READ(CSR_MCYCLE);
80000b5c:	b0002773          	csrr	a4,mcycle
E:\VMshare\e203\zhengdian_E203\sdk\hellow_test\Debug/../hbird_sdk/SoC/hbirdv2/Common/Source/hbirdv2_common.c:19
    } while (start_mtime == tmp);
80000b60:	00a09c63          	bne	ra,a0,80000b78 <get_cpu_freq+0xc4>
SysTimer_GetLoadValue():
E:\VMshare\e203\zhengdian_E203\sdk\hellow_test\hbird_sdk\NMSIS\Core\Include/core_feature_timer.h:106
80000b64:	ff862583          	lw	a1,-8(a2)
80000b68:	ffc62783          	lw	a5,-4(a2)
measure_cpu_freq():
E:\VMshare\e203\zhengdian_E203\sdk\hellow_test\Debug/../hbird_sdk/SoC/hbirdv2/Common/Source/hbirdv2_common.c:17
        start_mtime = (uint32_t)SysTimer_GetLoadValue();
80000b6c:	00058813          	mv	a6,a1
E:\VMshare\e203\zhengdian_E203\sdk\hellow_test\Debug/../hbird_sdk/SoC/hbirdv2/Common/Source/hbirdv2_common.c:18
        start_mcycle = __RV_CSR_READ(CSR_MCYCLE);
80000b70:	b0002773          	csrr	a4,mcycle
E:\VMshare\e203\zhengdian_E203\sdk\hellow_test\Debug/../hbird_sdk/SoC/hbirdv2/Common/Source/hbirdv2_common.c:19
    } while (start_mtime == tmp);
80000b74:	f6b082e3          	beq	ra,a1,80000ad8 <get_cpu_freq+0x24>
SysTimer_GetLoadValue():
E:\VMshare\e203\zhengdian_E203\sdk\hellow_test\hbird_sdk\NMSIS\Core\Include/core_feature_timer.h:106
80000b78:	0200c8b7          	lui	a7,0x200c
80000b7c:	ff88ae03          	lw	t3,-8(a7) # 200bff8 <__stack_size+0x200b7f8>
80000b80:	ffc8a683          	lw	a3,-4(a7)
measure_cpu_freq():
E:\VMshare\e203\zhengdian_E203\sdk\hellow_test\Debug/../hbird_sdk/SoC/hbirdv2/Common/Source/hbirdv2_common.c:23
        delta_mcycle = __RV_CSR_READ(CSR_MCYCLE) - start_mcycle;
80000b84:	b00025f3          	csrr	a1,mcycle
E:\VMshare\e203\zhengdian_E203\sdk\hellow_test\Debug/../hbird_sdk/SoC/hbirdv2/Common/Source/hbirdv2_common.c:24
    } while (delta_mtime < n);
80000b88:	07c81a63          	bne	a6,t3,80000bfc <get_cpu_freq+0x148>
SysTimer_GetLoadValue():
E:\VMshare\e203\zhengdian_E203\sdk\hellow_test\hbird_sdk\NMSIS\Core\Include/core_feature_timer.h:106
80000b8c:	ff88ae83          	lw	t4,-8(a7)
80000b90:	ffc8a683          	lw	a3,-4(a7)
measure_cpu_freq():
E:\VMshare\e203\zhengdian_E203\sdk\hellow_test\Debug/../hbird_sdk/SoC/hbirdv2/Common/Source/hbirdv2_common.c:23
        delta_mcycle = __RV_CSR_READ(CSR_MCYCLE) - start_mcycle;
80000b94:	b00025f3          	csrr	a1,mcycle
E:\VMshare\e203\zhengdian_E203\sdk\hellow_test\Debug/../hbird_sdk/SoC/hbirdv2/Common/Source/hbirdv2_common.c:24
    } while (delta_mtime < n);
80000b98:	07d81263          	bne	a6,t4,80000bfc <get_cpu_freq+0x148>
SysTimer_GetLoadValue():
E:\VMshare\e203\zhengdian_E203\sdk\hellow_test\hbird_sdk\NMSIS\Core\Include/core_feature_timer.h:106
80000b9c:	ff88af03          	lw	t5,-8(a7)
80000ba0:	ffc8a683          	lw	a3,-4(a7)
measure_cpu_freq():
E:\VMshare\e203\zhengdian_E203\sdk\hellow_test\Debug/../hbird_sdk/SoC/hbirdv2/Common/Source/hbirdv2_common.c:23
        delta_mcycle = __RV_CSR_READ(CSR_MCYCLE) - start_mcycle;
80000ba4:	b00025f3          	csrr	a1,mcycle
E:\VMshare\e203\zhengdian_E203\sdk\hellow_test\Debug/../hbird_sdk/SoC/hbirdv2/Common/Source/hbirdv2_common.c:24
    } while (delta_mtime < n);
80000ba8:	05e81a63          	bne	a6,t5,80000bfc <get_cpu_freq+0x148>
SysTimer_GetLoadValue():
E:\VMshare\e203\zhengdian_E203\sdk\hellow_test\hbird_sdk\NMSIS\Core\Include/core_feature_timer.h:106
80000bac:	ff88af83          	lw	t6,-8(a7)
80000bb0:	ffc8a683          	lw	a3,-4(a7)
measure_cpu_freq():
E:\VMshare\e203\zhengdian_E203\sdk\hellow_test\Debug/../hbird_sdk/SoC/hbirdv2/Common/Source/hbirdv2_common.c:23
        delta_mcycle = __RV_CSR_READ(CSR_MCYCLE) - start_mcycle;
80000bb4:	b00025f3          	csrr	a1,mcycle
E:\VMshare\e203\zhengdian_E203\sdk\hellow_test\Debug/../hbird_sdk/SoC/hbirdv2/Common/Source/hbirdv2_common.c:24
    } while (delta_mtime < n);
80000bb8:	05f81263          	bne	a6,t6,80000bfc <get_cpu_freq+0x148>
SysTimer_GetLoadValue():
E:\VMshare\e203\zhengdian_E203\sdk\hellow_test\hbird_sdk\NMSIS\Core\Include/core_feature_timer.h:106
80000bbc:	ff88a783          	lw	a5,-8(a7)
80000bc0:	ffc8a683          	lw	a3,-4(a7)
measure_cpu_freq():
E:\VMshare\e203\zhengdian_E203\sdk\hellow_test\Debug/../hbird_sdk/SoC/hbirdv2/Common/Source/hbirdv2_common.c:23
        delta_mcycle = __RV_CSR_READ(CSR_MCYCLE) - start_mcycle;
80000bc4:	b00025f3          	csrr	a1,mcycle
E:\VMshare\e203\zhengdian_E203\sdk\hellow_test\Debug/../hbird_sdk/SoC/hbirdv2/Common/Source/hbirdv2_common.c:24
    } while (delta_mtime < n);
80000bc8:	02f81a63          	bne	a6,a5,80000bfc <get_cpu_freq+0x148>
SysTimer_GetLoadValue():
E:\VMshare\e203\zhengdian_E203\sdk\hellow_test\hbird_sdk\NMSIS\Core\Include/core_feature_timer.h:106
80000bcc:	ff88a603          	lw	a2,-8(a7)
80000bd0:	ffc8a683          	lw	a3,-4(a7)
measure_cpu_freq():
E:\VMshare\e203\zhengdian_E203\sdk\hellow_test\Debug/../hbird_sdk/SoC/hbirdv2/Common/Source/hbirdv2_common.c:23
        delta_mcycle = __RV_CSR_READ(CSR_MCYCLE) - start_mcycle;
80000bd4:	b00025f3          	csrr	a1,mcycle
E:\VMshare\e203\zhengdian_E203\sdk\hellow_test\Debug/../hbird_sdk/SoC/hbirdv2/Common/Source/hbirdv2_common.c:24
    } while (delta_mtime < n);
80000bd8:	02c81263          	bne	a6,a2,80000bfc <get_cpu_freq+0x148>
SysTimer_GetLoadValue():
E:\VMshare\e203\zhengdian_E203\sdk\hellow_test\hbird_sdk\NMSIS\Core\Include/core_feature_timer.h:106
80000bdc:	ff88a083          	lw	ra,-8(a7)
80000be0:	ffc8a683          	lw	a3,-4(a7)
measure_cpu_freq():
E:\VMshare\e203\zhengdian_E203\sdk\hellow_test\Debug/../hbird_sdk/SoC/hbirdv2/Common/Source/hbirdv2_common.c:23
        delta_mcycle = __RV_CSR_READ(CSR_MCYCLE) - start_mcycle;
80000be4:	b00025f3          	csrr	a1,mcycle
E:\VMshare\e203\zhengdian_E203\sdk\hellow_test\Debug/../hbird_sdk/SoC/hbirdv2/Common/Source/hbirdv2_common.c:24
    } while (delta_mtime < n);
80000be8:	00181a63          	bne	a6,ra,80000bfc <get_cpu_freq+0x148>
SysTimer_GetLoadValue():
E:\VMshare\e203\zhengdian_E203\sdk\hellow_test\hbird_sdk\NMSIS\Core\Include/core_feature_timer.h:106
80000bec:	ff88a703          	lw	a4,-8(a7)
80000bf0:	ffc8a683          	lw	a3,-4(a7)
measure_cpu_freq():
E:\VMshare\e203\zhengdian_E203\sdk\hellow_test\Debug/../hbird_sdk/SoC/hbirdv2/Common/Source/hbirdv2_common.c:23
        delta_mcycle = __RV_CSR_READ(CSR_MCYCLE) - start_mcycle;
80000bf4:	b00025f3          	csrr	a1,mcycle
E:\VMshare\e203\zhengdian_E203\sdk\hellow_test\Debug/../hbird_sdk/SoC/hbirdv2/Common/Source/hbirdv2_common.c:24
    } while (delta_mtime < n);
80000bf8:	f8e802e3          	beq	a6,a4,80000b7c <get_cpu_freq+0xc8>
SysTimer_GetLoadValue():
E:\VMshare\e203\zhengdian_E203\sdk\hellow_test\hbird_sdk\NMSIS\Core\Include/core_feature_timer.h:106
80000bfc:	ffc8a783          	lw	a5,-4(a7)
80000c00:	ff88a683          	lw	a3,-8(a7)
80000c04:	0200c2b7          	lui	t0,0x200c
measure_cpu_freq():
E:\VMshare\e203\zhengdian_E203\sdk\hellow_test\Debug/../hbird_sdk/SoC/hbirdv2/Common/Source/hbirdv2_common.c:15
    uint32_t tmp = (uint32_t)SysTimer_GetLoadValue();
80000c08:	00068313          	mv	t1,a3
SysTimer_GetLoadValue():
E:\VMshare\e203\zhengdian_E203\sdk\hellow_test\hbird_sdk\NMSIS\Core\Include/core_feature_timer.h:106
80000c0c:	ff82a383          	lw	t2,-8(t0) # 200bff8 <__stack_size+0x200b7f8>
80000c10:	ffc2a783          	lw	a5,-4(t0)
measure_cpu_freq():
E:\VMshare\e203\zhengdian_E203\sdk\hellow_test\Debug/../hbird_sdk/SoC/hbirdv2/Common/Source/hbirdv2_common.c:17
        start_mtime = (uint32_t)SysTimer_GetLoadValue();
80000c14:	00038e93          	mv	t4,t2
E:\VMshare\e203\zhengdian_E203\sdk\hellow_test\Debug/../hbird_sdk/SoC/hbirdv2/Common/Source/hbirdv2_common.c:18
        start_mcycle = __RV_CSR_READ(CSR_MCYCLE);
80000c18:	b0002f73          	csrr	t5,mcycle
E:\VMshare\e203\zhengdian_E203\sdk\hellow_test\Debug/../hbird_sdk/SoC/hbirdv2/Common/Source/hbirdv2_common.c:19
    } while (start_mtime == tmp);
80000c1c:	08731863          	bne	t1,t2,80000cac <get_cpu_freq+0x1f8>
SysTimer_GetLoadValue():
E:\VMshare\e203\zhengdian_E203\sdk\hellow_test\hbird_sdk\NMSIS\Core\Include/core_feature_timer.h:106
80000c20:	ff82a403          	lw	s0,-8(t0)
80000c24:	ffc2a783          	lw	a5,-4(t0)
measure_cpu_freq():
E:\VMshare\e203\zhengdian_E203\sdk\hellow_test\Debug/../hbird_sdk/SoC/hbirdv2/Common/Source/hbirdv2_common.c:17
        start_mtime = (uint32_t)SysTimer_GetLoadValue();
80000c28:	00040e93          	mv	t4,s0
E:\VMshare\e203\zhengdian_E203\sdk\hellow_test\Debug/../hbird_sdk/SoC/hbirdv2/Common/Source/hbirdv2_common.c:18
        start_mcycle = __RV_CSR_READ(CSR_MCYCLE);
80000c2c:	b0002f73          	csrr	t5,mcycle
E:\VMshare\e203\zhengdian_E203\sdk\hellow_test\Debug/../hbird_sdk/SoC/hbirdv2/Common/Source/hbirdv2_common.c:19
    } while (start_mtime == tmp);
80000c30:	06831e63          	bne	t1,s0,80000cac <get_cpu_freq+0x1f8>
SysTimer_GetLoadValue():
E:\VMshare\e203\zhengdian_E203\sdk\hellow_test\hbird_sdk\NMSIS\Core\Include/core_feature_timer.h:106
80000c34:	ff82a483          	lw	s1,-8(t0)
80000c38:	ffc2a783          	lw	a5,-4(t0)
measure_cpu_freq():
E:\VMshare\e203\zhengdian_E203\sdk\hellow_test\Debug/../hbird_sdk/SoC/hbirdv2/Common/Source/hbirdv2_common.c:17
        start_mtime = (uint32_t)SysTimer_GetLoadValue();
80000c3c:	00048e93          	mv	t4,s1
E:\VMshare\e203\zhengdian_E203\sdk\hellow_test\Debug/../hbird_sdk/SoC/hbirdv2/Common/Source/hbirdv2_common.c:18
        start_mcycle = __RV_CSR_READ(CSR_MCYCLE);
80000c40:	b0002f73          	csrr	t5,mcycle
E:\VMshare\e203\zhengdian_E203\sdk\hellow_test\Debug/../hbird_sdk/SoC/hbirdv2/Common/Source/hbirdv2_common.c:19
    } while (start_mtime == tmp);
80000c44:	06931463          	bne	t1,s1,80000cac <get_cpu_freq+0x1f8>
SysTimer_GetLoadValue():
E:\VMshare\e203\zhengdian_E203\sdk\hellow_test\hbird_sdk\NMSIS\Core\Include/core_feature_timer.h:106
80000c48:	ff82a503          	lw	a0,-8(t0)
80000c4c:	ffc2a783          	lw	a5,-4(t0)
measure_cpu_freq():
E:\VMshare\e203\zhengdian_E203\sdk\hellow_test\Debug/../hbird_sdk/SoC/hbirdv2/Common/Source/hbirdv2_common.c:17
        start_mtime = (uint32_t)SysTimer_GetLoadValue();
80000c50:	00050e93          	mv	t4,a0
E:\VMshare\e203\zhengdian_E203\sdk\hellow_test\Debug/../hbird_sdk/SoC/hbirdv2/Common/Source/hbirdv2_common.c:18
        start_mcycle = __RV_CSR_READ(CSR_MCYCLE);
80000c54:	b0002f73          	csrr	t5,mcycle
E:\VMshare\e203\zhengdian_E203\sdk\hellow_test\Debug/../hbird_sdk/SoC/hbirdv2/Common/Source/hbirdv2_common.c:19
    } while (start_mtime == tmp);
80000c58:	04a31a63          	bne	t1,a0,80000cac <get_cpu_freq+0x1f8>
SysTimer_GetLoadValue():
E:\VMshare\e203\zhengdian_E203\sdk\hellow_test\hbird_sdk\NMSIS\Core\Include/core_feature_timer.h:106
80000c5c:	ff82a583          	lw	a1,-8(t0)
80000c60:	ffc2a783          	lw	a5,-4(t0)
measure_cpu_freq():
E:\VMshare\e203\zhengdian_E203\sdk\hellow_test\Debug/../hbird_sdk/SoC/hbirdv2/Common/Source/hbirdv2_common.c:17
        start_mtime = (uint32_t)SysTimer_GetLoadValue();
80000c64:	00058e93          	mv	t4,a1
E:\VMshare\e203\zhengdian_E203\sdk\hellow_test\Debug/../hbird_sdk/SoC/hbirdv2/Common/Source/hbirdv2_common.c:18
        start_mcycle = __RV_CSR_READ(CSR_MCYCLE);
80000c68:	b0002f73          	csrr	t5,mcycle
E:\VMshare\e203\zhengdian_E203\sdk\hellow_test\Debug/../hbird_sdk/SoC/hbirdv2/Common/Source/hbirdv2_common.c:19
    } while (start_mtime == tmp);
80000c6c:	04b31063          	bne	t1,a1,80000cac <get_cpu_freq+0x1f8>
SysTimer_GetLoadValue():
E:\VMshare\e203\zhengdian_E203\sdk\hellow_test\hbird_sdk\NMSIS\Core\Include/core_feature_timer.h:106
80000c70:	ff82a803          	lw	a6,-8(t0)
80000c74:	ffc2a783          	lw	a5,-4(t0)
measure_cpu_freq():
E:\VMshare\e203\zhengdian_E203\sdk\hellow_test\Debug/../hbird_sdk/SoC/hbirdv2/Common/Source/hbirdv2_common.c:17
        start_mtime = (uint32_t)SysTimer_GetLoadValue();
80000c78:	00080e93          	mv	t4,a6
E:\VMshare\e203\zhengdian_E203\sdk\hellow_test\Debug/../hbird_sdk/SoC/hbirdv2/Common/Source/hbirdv2_common.c:18
        start_mcycle = __RV_CSR_READ(CSR_MCYCLE);
80000c7c:	b0002f73          	csrr	t5,mcycle
E:\VMshare\e203\zhengdian_E203\sdk\hellow_test\Debug/../hbird_sdk/SoC/hbirdv2/Common/Source/hbirdv2_common.c:19
    } while (start_mtime == tmp);
80000c80:	03031663          	bne	t1,a6,80000cac <get_cpu_freq+0x1f8>
SysTimer_GetLoadValue():
E:\VMshare\e203\zhengdian_E203\sdk\hellow_test\hbird_sdk\NMSIS\Core\Include/core_feature_timer.h:106
80000c84:	ff82a883          	lw	a7,-8(t0)
80000c88:	ffc2a783          	lw	a5,-4(t0)
measure_cpu_freq():
E:\VMshare\e203\zhengdian_E203\sdk\hellow_test\Debug/../hbird_sdk/SoC/hbirdv2/Common/Source/hbirdv2_common.c:17
        start_mtime = (uint32_t)SysTimer_GetLoadValue();
80000c8c:	00088e93          	mv	t4,a7
E:\VMshare\e203\zhengdian_E203\sdk\hellow_test\Debug/../hbird_sdk/SoC/hbirdv2/Common/Source/hbirdv2_common.c:18
        start_mcycle = __RV_CSR_READ(CSR_MCYCLE);
80000c90:	b0002f73          	csrr	t5,mcycle
E:\VMshare\e203\zhengdian_E203\sdk\hellow_test\Debug/../hbird_sdk/SoC/hbirdv2/Common/Source/hbirdv2_common.c:19
    } while (start_mtime == tmp);
80000c94:	01131c63          	bne	t1,a7,80000cac <get_cpu_freq+0x1f8>
SysTimer_GetLoadValue():
E:\VMshare\e203\zhengdian_E203\sdk\hellow_test\hbird_sdk\NMSIS\Core\Include/core_feature_timer.h:106
80000c98:	ff82ae03          	lw	t3,-8(t0)
80000c9c:	ffc2a783          	lw	a5,-4(t0)
measure_cpu_freq():
E:\VMshare\e203\zhengdian_E203\sdk\hellow_test\Debug/../hbird_sdk/SoC/hbirdv2/Common/Source/hbirdv2_common.c:17
        start_mtime = (uint32_t)SysTimer_GetLoadValue();
80000ca0:	000e0e93          	mv	t4,t3
E:\VMshare\e203\zhengdian_E203\sdk\hellow_test\Debug/../hbird_sdk/SoC/hbirdv2/Common/Source/hbirdv2_common.c:18
        start_mcycle = __RV_CSR_READ(CSR_MCYCLE);
80000ca4:	b0002f73          	csrr	t5,mcycle
E:\VMshare\e203\zhengdian_E203\sdk\hellow_test\Debug/../hbird_sdk/SoC/hbirdv2/Common/Source/hbirdv2_common.c:19
    } while (start_mtime == tmp);
80000ca8:	f7c302e3          	beq	t1,t3,80000c0c <get_cpu_freq+0x158>
SysTimer_GetLoadValue():
E:\VMshare\e203\zhengdian_E203\sdk\hellow_test\hbird_sdk\NMSIS\Core\Include/core_feature_timer.h:106
80000cac:	0200cfb7          	lui	t6,0x200c
measure_cpu_freq():
E:\VMshare\e203\zhengdian_E203\sdk\hellow_test\Debug/../hbird_sdk/SoC/hbirdv2/Common/Source/hbirdv2_common.c:24
    } while (delta_mtime < n);
80000cb0:	06300793          	li	a5,99
SysTimer_GetLoadValue():
E:\VMshare\e203\zhengdian_E203\sdk\hellow_test\hbird_sdk\NMSIS\Core\Include/core_feature_timer.h:106
80000cb4:	ff8fa603          	lw	a2,-8(t6) # 200bff8 <__stack_size+0x200b7f8>
80000cb8:	ffcfa483          	lw	s1,-4(t6)
measure_cpu_freq():
E:\VMshare\e203\zhengdian_E203\sdk\hellow_test\Debug/../hbird_sdk/SoC/hbirdv2/Common/Source/hbirdv2_common.c:22
        delta_mtime = (uint32_t)SysTimer_GetLoadValue() - start_mtime;
80000cbc:	41d60433          	sub	s0,a2,t4
E:\VMshare\e203\zhengdian_E203\sdk\hellow_test\Debug/../hbird_sdk/SoC/hbirdv2/Common/Source/hbirdv2_common.c:23
        delta_mcycle = __RV_CSR_READ(CSR_MCYCLE) - start_mcycle;
80000cc0:	b00024f3          	csrr	s1,mcycle
E:\VMshare\e203\zhengdian_E203\sdk\hellow_test\Debug/../hbird_sdk/SoC/hbirdv2/Common/Source/hbirdv2_common.c:24
    } while (delta_mtime < n);
80000cc4:	0887e863          	bltu	a5,s0,80000d54 <get_cpu_freq+0x2a0>
SysTimer_GetLoadValue():
E:\VMshare\e203\zhengdian_E203\sdk\hellow_test\hbird_sdk\NMSIS\Core\Include/core_feature_timer.h:106
80000cc8:	ff8fa083          	lw	ra,-8(t6)
80000ccc:	ffcfa483          	lw	s1,-4(t6)
measure_cpu_freq():
E:\VMshare\e203\zhengdian_E203\sdk\hellow_test\Debug/../hbird_sdk/SoC/hbirdv2/Common/Source/hbirdv2_common.c:22
        delta_mtime = (uint32_t)SysTimer_GetLoadValue() - start_mtime;
80000cd0:	41d08433          	sub	s0,ra,t4
E:\VMshare\e203\zhengdian_E203\sdk\hellow_test\Debug/../hbird_sdk/SoC/hbirdv2/Common/Source/hbirdv2_common.c:23
        delta_mcycle = __RV_CSR_READ(CSR_MCYCLE) - start_mcycle;
80000cd4:	b00024f3          	csrr	s1,mcycle
E:\VMshare\e203\zhengdian_E203\sdk\hellow_test\Debug/../hbird_sdk/SoC/hbirdv2/Common/Source/hbirdv2_common.c:24
    } while (delta_mtime < n);
80000cd8:	0687ee63          	bltu	a5,s0,80000d54 <get_cpu_freq+0x2a0>
SysTimer_GetLoadValue():
E:\VMshare\e203\zhengdian_E203\sdk\hellow_test\hbird_sdk\NMSIS\Core\Include/core_feature_timer.h:106
80000cdc:	ff8fa703          	lw	a4,-8(t6)
80000ce0:	ffcfa483          	lw	s1,-4(t6)
measure_cpu_freq():
E:\VMshare\e203\zhengdian_E203\sdk\hellow_test\Debug/../hbird_sdk/SoC/hbirdv2/Common/Source/hbirdv2_common.c:22
        delta_mtime = (uint32_t)SysTimer_GetLoadValue() - start_mtime;
80000ce4:	41d70433          	sub	s0,a4,t4
E:\VMshare\e203\zhengdian_E203\sdk\hellow_test\Debug/../hbird_sdk/SoC/hbirdv2/Common/Source/hbirdv2_common.c:23
        delta_mcycle = __RV_CSR_READ(CSR_MCYCLE) - start_mcycle;
80000ce8:	b00024f3          	csrr	s1,mcycle
E:\VMshare\e203\zhengdian_E203\sdk\hellow_test\Debug/../hbird_sdk/SoC/hbirdv2/Common/Source/hbirdv2_common.c:24
    } while (delta_mtime < n);
80000cec:	0687e463          	bltu	a5,s0,80000d54 <get_cpu_freq+0x2a0>
SysTimer_GetLoadValue():
E:\VMshare\e203\zhengdian_E203\sdk\hellow_test\hbird_sdk\NMSIS\Core\Include/core_feature_timer.h:106
80000cf0:	ff8fa683          	lw	a3,-8(t6)
80000cf4:	ffcfa483          	lw	s1,-4(t6)
measure_cpu_freq():
E:\VMshare\e203\zhengdian_E203\sdk\hellow_test\Debug/../hbird_sdk/SoC/hbirdv2/Common/Source/hbirdv2_common.c:22
        delta_mtime = (uint32_t)SysTimer_GetLoadValue() - start_mtime;
80000cf8:	41d68433          	sub	s0,a3,t4
E:\VMshare\e203\zhengdian_E203\sdk\hellow_test\Debug/../hbird_sdk/SoC/hbirdv2/Common/Source/hbirdv2_common.c:23
        delta_mcycle = __RV_CSR_READ(CSR_MCYCLE) - start_mcycle;
80000cfc:	b00024f3          	csrr	s1,mcycle
E:\VMshare\e203\zhengdian_E203\sdk\hellow_test\Debug/../hbird_sdk/SoC/hbirdv2/Common/Source/hbirdv2_common.c:24
    } while (delta_mtime < n);
80000d00:	0487ea63          	bltu	a5,s0,80000d54 <get_cpu_freq+0x2a0>
SysTimer_GetLoadValue():
E:\VMshare\e203\zhengdian_E203\sdk\hellow_test\hbird_sdk\NMSIS\Core\Include/core_feature_timer.h:106
80000d04:	ff8fa283          	lw	t0,-8(t6)
80000d08:	ffcfa483          	lw	s1,-4(t6)
measure_cpu_freq():
E:\VMshare\e203\zhengdian_E203\sdk\hellow_test\Debug/../hbird_sdk/SoC/hbirdv2/Common/Source/hbirdv2_common.c:22
        delta_mtime = (uint32_t)SysTimer_GetLoadValue() - start_mtime;
80000d0c:	41d28433          	sub	s0,t0,t4
E:\VMshare\e203\zhengdian_E203\sdk\hellow_test\Debug/../hbird_sdk/SoC/hbirdv2/Common/Source/hbirdv2_common.c:23
        delta_mcycle = __RV_CSR_READ(CSR_MCYCLE) - start_mcycle;
80000d10:	b00024f3          	csrr	s1,mcycle
E:\VMshare\e203\zhengdian_E203\sdk\hellow_test\Debug/../hbird_sdk/SoC/hbirdv2/Common/Source/hbirdv2_common.c:24
    } while (delta_mtime < n);
80000d14:	0487e063          	bltu	a5,s0,80000d54 <get_cpu_freq+0x2a0>
SysTimer_GetLoadValue():
E:\VMshare\e203\zhengdian_E203\sdk\hellow_test\hbird_sdk\NMSIS\Core\Include/core_feature_timer.h:106
80000d18:	ff8fa303          	lw	t1,-8(t6)
80000d1c:	ffcfa483          	lw	s1,-4(t6)
measure_cpu_freq():
E:\VMshare\e203\zhengdian_E203\sdk\hellow_test\Debug/../hbird_sdk/SoC/hbirdv2/Common/Source/hbirdv2_common.c:22
        delta_mtime = (uint32_t)SysTimer_GetLoadValue() - start_mtime;
80000d20:	41d30433          	sub	s0,t1,t4
E:\VMshare\e203\zhengdian_E203\sdk\hellow_test\Debug/../hbird_sdk/SoC/hbirdv2/Common/Source/hbirdv2_common.c:23
        delta_mcycle = __RV_CSR_READ(CSR_MCYCLE) - start_mcycle;
80000d24:	b00024f3          	csrr	s1,mcycle
E:\VMshare\e203\zhengdian_E203\sdk\hellow_test\Debug/../hbird_sdk/SoC/hbirdv2/Common/Source/hbirdv2_common.c:24
    } while (delta_mtime < n);
80000d28:	0287e663          	bltu	a5,s0,80000d54 <get_cpu_freq+0x2a0>
SysTimer_GetLoadValue():
E:\VMshare\e203\zhengdian_E203\sdk\hellow_test\hbird_sdk\NMSIS\Core\Include/core_feature_timer.h:106
80000d2c:	ff8fa383          	lw	t2,-8(t6)
80000d30:	ffcfa483          	lw	s1,-4(t6)
measure_cpu_freq():
E:\VMshare\e203\zhengdian_E203\sdk\hellow_test\Debug/../hbird_sdk/SoC/hbirdv2/Common/Source/hbirdv2_common.c:22
        delta_mtime = (uint32_t)SysTimer_GetLoadValue() - start_mtime;
80000d34:	41d38433          	sub	s0,t2,t4
E:\VMshare\e203\zhengdian_E203\sdk\hellow_test\Debug/../hbird_sdk/SoC/hbirdv2/Common/Source/hbirdv2_common.c:23
        delta_mcycle = __RV_CSR_READ(CSR_MCYCLE) - start_mcycle;
80000d38:	b00024f3          	csrr	s1,mcycle
E:\VMshare\e203\zhengdian_E203\sdk\hellow_test\Debug/../hbird_sdk/SoC/hbirdv2/Common/Source/hbirdv2_common.c:24
    } while (delta_mtime < n);
80000d3c:	0087ec63          	bltu	a5,s0,80000d54 <get_cpu_freq+0x2a0>
SysTimer_GetLoadValue():
E:\VMshare\e203\zhengdian_E203\sdk\hellow_test\hbird_sdk\NMSIS\Core\Include/core_feature_timer.h:106
80000d40:	ff8fa403          	lw	s0,-8(t6)
80000d44:	ffcfa483          	lw	s1,-4(t6)
measure_cpu_freq():
E:\VMshare\e203\zhengdian_E203\sdk\hellow_test\Debug/../hbird_sdk/SoC/hbirdv2/Common/Source/hbirdv2_common.c:22
        delta_mtime = (uint32_t)SysTimer_GetLoadValue() - start_mtime;
80000d48:	41d40433          	sub	s0,s0,t4
E:\VMshare\e203\zhengdian_E203\sdk\hellow_test\Debug/../hbird_sdk/SoC/hbirdv2/Common/Source/hbirdv2_common.c:23
        delta_mcycle = __RV_CSR_READ(CSR_MCYCLE) - start_mcycle;
80000d4c:	b00024f3          	csrr	s1,mcycle
E:\VMshare\e203\zhengdian_E203\sdk\hellow_test\Debug/../hbird_sdk/SoC/hbirdv2/Common/Source/hbirdv2_common.c:24
    } while (delta_mtime < n);
80000d50:	f687f2e3          	bgeu	a5,s0,80000cb4 <get_cpu_freq+0x200>
E:\VMshare\e203\zhengdian_E203\sdk\hellow_test\Debug/../hbird_sdk/SoC/hbirdv2/Common/Source/hbirdv2_common.c:23
        delta_mcycle = __RV_CSR_READ(CSR_MCYCLE) - start_mcycle;
80000d54:	41e484b3          	sub	s1,s1,t5
E:\VMshare\e203\zhengdian_E203\sdk\hellow_test\Debug/../hbird_sdk/SoC/hbirdv2/Common/Source/hbirdv2_common.c:27
           + ((delta_mcycle % delta_mtime) * mtime_freq) / delta_mtime;
80000d58:	0284f5b3          	remu	a1,s1,s0
80000d5c:	00040613          	mv	a2,s0
80000d60:	00000693          	li	a3,0
80000d64:	00f59513          	slli	a0,a1,0xf
80000d68:	0115d593          	srli	a1,a1,0x11
80000d6c:	5e9000ef          	jal	ra,80001b54 <__udivdi3>
E:\VMshare\e203\zhengdian_E203\sdk\hellow_test\Debug/../hbird_sdk/SoC/hbirdv2/Common/Source/hbirdv2_common.c:26
    return (delta_mcycle / delta_mtime) * mtime_freq
80000d70:	0284d833          	divu	a6,s1,s0
get_cpu_freq():
E:\VMshare\e203\zhengdian_E203\sdk\hellow_test\Debug/../hbird_sdk/SoC/hbirdv2/Common/Source/hbirdv2_common.c:40
    measure_cpu_freq(1);
    // measure for real
    cpu_freq = measure_cpu_freq(100);

    return cpu_freq;
}
80000d74:	00c12083          	lw	ra,12(sp)
80000d78:	00812403          	lw	s0,8(sp)
80000d7c:	00412483          	lw	s1,4(sp)
80000d80:	01010113          	addi	sp,sp,16
measure_cpu_freq():
E:\VMshare\e203\zhengdian_E203\sdk\hellow_test\Debug/../hbird_sdk/SoC/hbirdv2/Common/Source/hbirdv2_common.c:27
           + ((delta_mcycle % delta_mtime) * mtime_freq) / delta_mtime;
80000d84:	00f81893          	slli	a7,a6,0xf
get_cpu_freq():
E:\VMshare\e203\zhengdian_E203\sdk\hellow_test\Debug/../hbird_sdk/SoC/hbirdv2/Common/Source/hbirdv2_common.c:40
}
80000d88:	00a88533          	add	a0,a7,a0
80000d8c:	00008067          	ret

80000d90 <system_default_exception_handler>:
system_default_exception_handler():
E:\VMshare\e203\zhengdian_E203\sdk\hellow_test\Debug/../hbird_sdk/SoC/hbirdv2/Common/Source/system_hbirdv2.c:168
 * \details
 * This function provided a default exception handling code for all exception ids.
 * By default, It will just print some information for debug, Vendor can customize it according to its requirements.
 */
static void system_default_exception_handler(unsigned long mcause, unsigned long sp)
{
80000d90:	ff010113          	addi	sp,sp,-16
80000d94:	00812423          	sw	s0,8(sp)
80000d98:	00050413          	mv	s0,a0
E:\VMshare\e203\zhengdian_E203\sdk\hellow_test\Debug/../hbird_sdk/SoC/hbirdv2/Common/Source/system_hbirdv2.c:170
    /* TODO: Uncomment this if you have implement printf function */
    printf("Trap in Exception\r\n");
80000d9c:	00003517          	auipc	a0,0x3
80000da0:	f9c50513          	addi	a0,a0,-100 # 80003d38 <_read_r+0x48>
E:\VMshare\e203\zhengdian_E203\sdk\hellow_test\Debug/../hbird_sdk/SoC/hbirdv2/Common/Source/system_hbirdv2.c:168
{
80000da4:	00112623          	sw	ra,12(sp)
E:\VMshare\e203\zhengdian_E203\sdk\hellow_test\Debug/../hbird_sdk/SoC/hbirdv2/Common/Source/system_hbirdv2.c:170
    printf("Trap in Exception\r\n");
80000da8:	4ac010ef          	jal	ra,80002254 <puts>
E:\VMshare\e203\zhengdian_E203\sdk\hellow_test\Debug/../hbird_sdk/SoC/hbirdv2/Common/Source/system_hbirdv2.c:171
    printf("MCAUSE: 0x%lx\r\n", mcause);
80000dac:	00040593          	mv	a1,s0
80000db0:	00003517          	auipc	a0,0x3
80000db4:	f9c50513          	addi	a0,a0,-100 # 80003d4c <_read_r+0x5c>
80000db8:	2d0010ef          	jal	ra,80002088 <iprintf>
E:\VMshare\e203\zhengdian_E203\sdk\hellow_test\Debug/../hbird_sdk/SoC/hbirdv2/Common/Source/system_hbirdv2.c:172
    printf("MEPC  : 0x%lx\r\n", __RV_CSR_READ(CSR_MEPC));
80000dbc:	341025f3          	csrr	a1,mepc
80000dc0:	00003517          	auipc	a0,0x3
80000dc4:	f9c50513          	addi	a0,a0,-100 # 80003d5c <_read_r+0x6c>
80000dc8:	2c0010ef          	jal	ra,80002088 <iprintf>
E:\VMshare\e203\zhengdian_E203\sdk\hellow_test\Debug/../hbird_sdk/SoC/hbirdv2/Common/Source/system_hbirdv2.c:173
    printf("MTVAL : 0x%lx\r\n", __RV_CSR_READ(CSR_MBADADDR));
80000dcc:	343025f3          	csrr	a1,mtval
80000dd0:	00003517          	auipc	a0,0x3
80000dd4:	f9c50513          	addi	a0,a0,-100 # 80003d6c <_read_r+0x7c>
80000dd8:	2b0010ef          	jal	ra,80002088 <iprintf>
80000ddc:	0000006f          	j	80000ddc <system_default_exception_handler+0x4c>

80000de0 <system_default_interrupt_handler>:
system_default_interrupt_handler():
E:\VMshare\e203\zhengdian_E203\sdk\hellow_test\Debug/../hbird_sdk/SoC/hbirdv2/Common/Source/system_hbirdv2.c:183
 * \brief      System Default Interrupt Handler
 * \details
 * This function provided a default interrupt handling code for all interrupt ids.
 */
static void system_default_interrupt_handler(unsigned long mcause, unsigned long sp)
{
80000de0:	ff010113          	addi	sp,sp,-16
80000de4:	00812423          	sw	s0,8(sp)
80000de8:	00050413          	mv	s0,a0
E:\VMshare\e203\zhengdian_E203\sdk\hellow_test\Debug/../hbird_sdk/SoC/hbirdv2/Common/Source/system_hbirdv2.c:185
    /* TODO: Uncomment this if you have implement printf function */
    printf("Trap in Interrupt\r\n");
80000dec:	00003517          	auipc	a0,0x3
80000df0:	f9050513          	addi	a0,a0,-112 # 80003d7c <_read_r+0x8c>
E:\VMshare\e203\zhengdian_E203\sdk\hellow_test\Debug/../hbird_sdk/SoC/hbirdv2/Common/Source/system_hbirdv2.c:183
{
80000df4:	00112623          	sw	ra,12(sp)
E:\VMshare\e203\zhengdian_E203\sdk\hellow_test\Debug/../hbird_sdk/SoC/hbirdv2/Common/Source/system_hbirdv2.c:185
    printf("Trap in Interrupt\r\n");
80000df8:	45c010ef          	jal	ra,80002254 <puts>
E:\VMshare\e203\zhengdian_E203\sdk\hellow_test\Debug/../hbird_sdk/SoC/hbirdv2/Common/Source/system_hbirdv2.c:186
    printf("MCAUSE: 0x%lx\r\n", mcause);
80000dfc:	00040593          	mv	a1,s0
80000e00:	00003517          	auipc	a0,0x3
80000e04:	f4c50513          	addi	a0,a0,-180 # 80003d4c <_read_r+0x5c>
80000e08:	280010ef          	jal	ra,80002088 <iprintf>
E:\VMshare\e203\zhengdian_E203\sdk\hellow_test\Debug/../hbird_sdk/SoC/hbirdv2/Common/Source/system_hbirdv2.c:187
    printf("MEPC  : 0x%lx\r\n", __RV_CSR_READ(CSR_MEPC));
80000e0c:	341025f3          	csrr	a1,mepc
80000e10:	00003517          	auipc	a0,0x3
80000e14:	f4c50513          	addi	a0,a0,-180 # 80003d5c <_read_r+0x6c>
80000e18:	270010ef          	jal	ra,80002088 <iprintf>
E:\VMshare\e203\zhengdian_E203\sdk\hellow_test\Debug/../hbird_sdk/SoC/hbirdv2/Common/Source/system_hbirdv2.c:188
    printf("MTVAL : 0x%lx\r\n", __RV_CSR_READ(CSR_MBADADDR));
80000e1c:	343025f3          	csrr	a1,mtval
E:\VMshare\e203\zhengdian_E203\sdk\hellow_test\Debug/../hbird_sdk/SoC/hbirdv2/Common/Source/system_hbirdv2.c:189
}
80000e20:	00812403          	lw	s0,8(sp)
80000e24:	00c12083          	lw	ra,12(sp)
E:\VMshare\e203\zhengdian_E203\sdk\hellow_test\Debug/../hbird_sdk/SoC/hbirdv2/Common/Source/system_hbirdv2.c:188
    printf("MTVAL : 0x%lx\r\n", __RV_CSR_READ(CSR_MBADADDR));
80000e28:	00003517          	auipc	a0,0x3
80000e2c:	f4450513          	addi	a0,a0,-188 # 80003d6c <_read_r+0x7c>
E:\VMshare\e203\zhengdian_E203\sdk\hellow_test\Debug/../hbird_sdk/SoC/hbirdv2/Common/Source/system_hbirdv2.c:189
}
80000e30:	01010113          	addi	sp,sp,16
E:\VMshare\e203\zhengdian_E203\sdk\hellow_test\Debug/../hbird_sdk/SoC/hbirdv2/Common/Source/system_hbirdv2.c:188
    printf("MTVAL : 0x%lx\r\n", __RV_CSR_READ(CSR_MBADADDR));
80000e34:	2540106f          	j	80002088 <iprintf>

80000e38 <SystemInit>:
SystemInit():
E:\VMshare\e203\zhengdian_E203\sdk\hellow_test\Debug/../hbird_sdk/SoC/hbirdv2/Common/Source/system_hbirdv2.c:125
    SystemCoreClock = SYSTEM_CLOCK;
80000e38:	04c4b7b7          	lui	a5,0x4c4b
80000e3c:	40078293          	addi	t0,a5,1024 # 4c4b400 <__stack_size+0x4c4ac00>
80000e40:	8051a223          	sw	t0,-2044(gp) # 90000064 <SystemCoreClock>
E:\VMshare\e203\zhengdian_E203\sdk\hellow_test\Debug/../hbird_sdk/SoC/hbirdv2/Common/Source/system_hbirdv2.c:126
}
80000e44:	00008067          	ret

80000e48 <core_trap_handler>:
core_trap_handler():
E:\VMshare\e203\zhengdian_E203\sdk\hellow_test\Debug/../hbird_sdk/SoC/hbirdv2/Common/Source/system_hbirdv2.c:322
 * - If you want to register core exception handler, please use \ref Exception_Register_EXC
 * - If you want to register core interrupt handler, please use \ref Interrupt_Register_CoreIRQ
 * - If you want to register external interrupt handler, please use \ref Interrupt_Register_ExtIRQ
 */
uint32_t core_trap_handler(unsigned long mcause, unsigned long sp)
{
80000e48:	ff010113          	addi	sp,sp,-16
80000e4c:	00112623          	sw	ra,12(sp)
80000e50:	00812423          	sw	s0,8(sp)
80000e54:	00050793          	mv	a5,a0
E:\VMshare\e203\zhengdian_E203\sdk\hellow_test\Debug/../hbird_sdk/SoC/hbirdv2/Common/Source/system_hbirdv2.c:323
    if (mcause & MCAUSE_INTERRUPT) {
80000e58:	04055063          	bgez	a0,80000e98 <core_trap_handler+0x50>
E:\VMshare\e203\zhengdian_E203\sdk\hellow_test\Debug/../hbird_sdk/SoC/hbirdv2/Common/Source/system_hbirdv2.c:325
        INT_HANDLER int_handler = NULL;
        uint32_t irqn = (uint32_t)(mcause & 0X00000fff);
80000e5c:	01451813          	slli	a6,a0,0x14
80000e60:	01485893          	srli	a7,a6,0x14
E:\VMshare\e203\zhengdian_E203\sdk\hellow_test\Debug/../hbird_sdk/SoC/hbirdv2/Common/Source/system_hbirdv2.c:326
        if (irqn == IRQ_M_EXT) {
80000e64:	00b00e13          	li	t3,11
80000e68:	09c88863          	beq	a7,t3,80000ef8 <core_trap_handler+0xb0>
E:\VMshare\e203\zhengdian_E203\sdk\hellow_test\Debug/../hbird_sdk/SoC/hbirdv2/Common/Source/system_hbirdv2.c:338
                }
                PLIC_CompleteInterrupt(irqn);
            }
#endif
        } else {
            int_handler = (INT_HANDLER)(SystemCoreInterruptHandlers[irqn]);
80000e6c:	00289e93          	slli	t4,a7,0x2
80000e70:	82418f13          	addi	t5,gp,-2012 # 90000084 <SystemCoreInterruptHandlers>
80000e74:	01df0fb3          	add	t6,t5,t4
80000e78:	000fa783          	lw	a5,0(t6)
E:\VMshare\e203\zhengdian_E203\sdk\hellow_test\Debug/../hbird_sdk/SoC/hbirdv2/Common/Source/system_hbirdv2.c:339
            if (int_handler != NULL) {
80000e7c:	00078463          	beqz	a5,80000e84 <core_trap_handler+0x3c>
E:\VMshare\e203\zhengdian_E203\sdk\hellow_test\Debug/../hbird_sdk/SoC/hbirdv2/Common/Source/system_hbirdv2.c:340
                int_handler(mcause, sp);
80000e80:	000780e7          	jalr	a5
E:\VMshare\e203\zhengdian_E203\sdk\hellow_test\Debug/../hbird_sdk/SoC/hbirdv2/Common/Source/system_hbirdv2.c:347
        }
        return 0;
    } else {
        return core_exception_handler(mcause, sp);
    }
}
80000e84:	00c12083          	lw	ra,12(sp)
80000e88:	00812403          	lw	s0,8(sp)
80000e8c:	00000513          	li	a0,0
80000e90:	01010113          	addi	sp,sp,16
80000e94:	00008067          	ret
core_exception_handler():
E:\VMshare\e203\zhengdian_E203\sdk\hellow_test\Debug/../hbird_sdk/SoC/hbirdv2/Common/Source/system_hbirdv2.c:362
 * - For the core_exception_handler template, we provided exception register function \ref Exception_Register_EXC
 *   which can help developer to register your exception handler for specific exception number.
 */
static uint32_t core_exception_handler(unsigned long mcause, unsigned long sp)
{
    uint32_t EXCn = (uint32_t)(mcause & 0X00000fff);
80000e98:	01451693          	slli	a3,a0,0x14
80000e9c:	0146d093          	srli	ra,a3,0x14
E:\VMshare\e203\zhengdian_E203\sdk\hellow_test\Debug/../hbird_sdk/SoC/hbirdv2/Common/Source/system_hbirdv2.c:365
    EXC_HANDLER exc_handler;

    if ((EXCn < MAX_SYSTEM_EXCEPTION_NUM) && (EXCn >= 0)) {
80000ea0:	00a00613          	li	a2,10
80000ea4:	00058713          	mv	a4,a1
80000ea8:	02166c63          	bltu	a2,ra,80000ee0 <core_trap_handler+0x98>
E:\VMshare\e203\zhengdian_E203\sdk\hellow_test\Debug/../hbird_sdk/SoC/hbirdv2/Common/Source/system_hbirdv2.c:366
        exc_handler = (EXC_HANDLER)SystemExceptionHandlers[EXCn];
80000eac:	00209293          	slli	t0,ra,0x2
80000eb0:	84c18393          	addi	t2,gp,-1972 # 900000ac <SystemExceptionHandlers>
80000eb4:	00538433          	add	s0,t2,t0
80000eb8:	00042303          	lw	t1,0(s0)
E:\VMshare\e203\zhengdian_E203\sdk\hellow_test\Debug/../hbird_sdk/SoC/hbirdv2/Common/Source/system_hbirdv2.c:370
    } else {
        exc_handler = (EXC_HANDLER)system_default_exception_handler;
    }
    if (exc_handler != NULL) {
80000ebc:	fc0304e3          	beqz	t1,80000e84 <core_trap_handler+0x3c>
E:\VMshare\e203\zhengdian_E203\sdk\hellow_test\Debug/../hbird_sdk/SoC/hbirdv2/Common/Source/system_hbirdv2.c:371
        exc_handler(mcause, sp);
80000ec0:	00070593          	mv	a1,a4
80000ec4:	00078513          	mv	a0,a5
80000ec8:	000300e7          	jalr	t1 # 2000 <__stack_size+0x1800>
core_trap_handler():
E:\VMshare\e203\zhengdian_E203\sdk\hellow_test\Debug/../hbird_sdk/SoC/hbirdv2/Common/Source/system_hbirdv2.c:347
}
80000ecc:	00c12083          	lw	ra,12(sp)
80000ed0:	00812403          	lw	s0,8(sp)
80000ed4:	00000513          	li	a0,0
80000ed8:	01010113          	addi	sp,sp,16
80000edc:	00008067          	ret
core_exception_handler():
E:\VMshare\e203\zhengdian_E203\sdk\hellow_test\Debug/../hbird_sdk/SoC/hbirdv2/Common/Source/system_hbirdv2.c:368
        exc_handler = (EXC_HANDLER)system_default_exception_handler;
80000ee0:	00000317          	auipc	t1,0x0
80000ee4:	eb030313          	addi	t1,t1,-336 # 80000d90 <system_default_exception_handler>
E:\VMshare\e203\zhengdian_E203\sdk\hellow_test\Debug/../hbird_sdk/SoC/hbirdv2/Common/Source/system_hbirdv2.c:371
        exc_handler(mcause, sp);
80000ee8:	00070593          	mv	a1,a4
80000eec:	00078513          	mv	a0,a5
80000ef0:	000300e7          	jalr	t1
80000ef4:	fd9ff06f          	j	80000ecc <core_trap_handler+0x84>
PLIC_ClaimInterrupt():
E:\VMshare\e203\zhengdian_E203\sdk\hellow_test\hbird_sdk\NMSIS\Core\Include/core_feature_plic.h:273
 * \sa
 * - \ref PLIC_CompleteInterrupt
 */
__STATIC_FORCEINLINE uint32_t PLIC_ClaimInterrupt(void)
{
    uint32_t hartid = __RV_CSR_READ(CSR_MHARTID);
80000ef8:	f1402773          	csrr	a4,mhartid
E:\VMshare\e203\zhengdian_E203\sdk\hellow_test\hbird_sdk\NMSIS\Core\Include/core_feature_plic.h:274
    volatile uint32_t *claim_reg = (uint32_t *)((PLIC_BASE) + PLIC_CLAIM_OFFSET + \
80000efc:	0c2000b7          	lui	ra,0xc200
E:\VMshare\e203\zhengdian_E203\sdk\hellow_test\hbird_sdk\NMSIS\Core\Include/core_feature_plic.h:275
                    + (hartid << PLIC_CLAIM_SHIFT_PER_TARGET));
80000f00:	00c71693          	slli	a3,a4,0xc
E:\VMshare\e203\zhengdian_E203\sdk\hellow_test\hbird_sdk\NMSIS\Core\Include/core_feature_plic.h:274
    volatile uint32_t *claim_reg = (uint32_t *)((PLIC_BASE) + PLIC_CLAIM_OFFSET + \
80000f04:	00408613          	addi	a2,ra,4 # c200004 <__stack_size+0xc1ff804>
80000f08:	00c68333          	add	t1,a3,a2
E:\VMshare\e203\zhengdian_E203\sdk\hellow_test\hbird_sdk\NMSIS\Core\Include/core_feature_plic.h:277

    return (*claim_reg);
80000f0c:	00032403          	lw	s0,0(t1)
core_trap_handler():
E:\VMshare\e203\zhengdian_E203\sdk\hellow_test\Debug/../hbird_sdk/SoC/hbirdv2/Common/Source/system_hbirdv2.c:329
            if (irqn < __PLIC_INTNUM) {
80000f10:	01000293          	li	t0,16
80000f14:	f682e8e3          	bltu	t0,s0,80000e84 <core_trap_handler+0x3c>
E:\VMshare\e203\zhengdian_E203\sdk\hellow_test\Debug/../hbird_sdk/SoC/hbirdv2/Common/Source/system_hbirdv2.c:330
                int_handler = (INT_HANDLER)(SystemExtInterruptHandlers[irqn]);
80000f18:	00241393          	slli	t2,s0,0x2
80000f1c:	87818813          	addi	a6,gp,-1928 # 900000d8 <SystemExtInterruptHandlers>
80000f20:	007808b3          	add	a7,a6,t2
80000f24:	0008ae03          	lw	t3,0(a7)
E:\VMshare\e203\zhengdian_E203\sdk\hellow_test\Debug/../hbird_sdk/SoC/hbirdv2/Common/Source/system_hbirdv2.c:331
                if (int_handler != NULL) {
80000f28:	000e0463          	beqz	t3,80000f30 <core_trap_handler+0xe8>
E:\VMshare\e203\zhengdian_E203\sdk\hellow_test\Debug/../hbird_sdk/SoC/hbirdv2/Common/Source/system_hbirdv2.c:332
                    int_handler(mcause, sp);
80000f2c:	000e00e7          	jalr	t3
PLIC_CompleteInterrupt():
E:\VMshare\e203\zhengdian_E203\sdk\hellow_test\hbird_sdk\NMSIS\Core\Include/core_feature_plic.h:298
 * \sa
 * - \ref PLIC_ClaimInterrupt
 */
__STATIC_FORCEINLINE void PLIC_CompleteInterrupt(uint32_t source)
{
    uint32_t hartid = __RV_CSR_READ(CSR_MHARTID);
80000f30:	f1402573          	csrr	a0,mhartid
E:\VMshare\e203\zhengdian_E203\sdk\hellow_test\hbird_sdk\NMSIS\Core\Include/core_feature_plic.h:299
    volatile uint32_t *complete_reg = (uint32_t *)((PLIC_BASE) + PLIC_CLAIM_OFFSET + \
80000f34:	0c200eb7          	lui	t4,0xc200
E:\VMshare\e203\zhengdian_E203\sdk\hellow_test\hbird_sdk\NMSIS\Core\Include/core_feature_plic.h:300
                    + (hartid << PLIC_CLAIM_SHIFT_PER_TARGET));
80000f38:	00c51593          	slli	a1,a0,0xc
E:\VMshare\e203\zhengdian_E203\sdk\hellow_test\hbird_sdk\NMSIS\Core\Include/core_feature_plic.h:299
    volatile uint32_t *complete_reg = (uint32_t *)((PLIC_BASE) + PLIC_CLAIM_OFFSET + \
80000f3c:	004e8f13          	addi	t5,t4,4 # c200004 <__stack_size+0xc1ff804>
80000f40:	01e58fb3          	add	t6,a1,t5
E:\VMshare\e203\zhengdian_E203\sdk\hellow_test\hbird_sdk\NMSIS\Core\Include/core_feature_plic.h:302

    *complete_reg = source;
80000f44:	008fa023          	sw	s0,0(t6)
E:\VMshare\e203\zhengdian_E203\sdk\hellow_test\hbird_sdk\NMSIS\Core\Include/core_feature_plic.h:303
}
80000f48:	f3dff06f          	j	80000e84 <core_trap_handler+0x3c>

80000f4c <_premain_init>:
_premain_init():
E:\VMshare\e203\zhengdian_E203\sdk\hellow_test\Debug/../hbird_sdk/SoC/hbirdv2/Common/Source/system_hbirdv2.c:464
 * For RISC-V gnu toolchain, _init function might not be called
 * by __libc_init_array function, so we defined a new function
 * to do initialization
 */
void _premain_init(void)
{
80000f4c:	ff010113          	addi	sp,sp,-16
80000f50:	00112623          	sw	ra,12(sp)
80000f54:	00812423          	sw	s0,8(sp)
E:\VMshare\e203\zhengdian_E203\sdk\hellow_test\Debug/../hbird_sdk/SoC/hbirdv2/Common/Source/system_hbirdv2.c:466
    /* TODO: Add your own initialization code here, called before main */
    SystemCoreClock = get_cpu_freq();
80000f58:	b5dff0ef          	jal	ra,80000ab4 <get_cpu_freq>
80000f5c:	00050793          	mv	a5,a0
80000f60:	80418413          	addi	s0,gp,-2044 # 90000064 <SystemCoreClock>
E:\VMshare\e203\zhengdian_E203\sdk\hellow_test\Debug/../hbird_sdk/SoC/hbirdv2/Common/Source/system_hbirdv2.c:468
#if ! defined(SIMULATION_SPIKE) && ! defined(SIMULATION_XLSPIKE)
    gpio_iof_config(GPIOA, IOF_UART_MASK);
80000f64:	000305b7          	lui	a1,0x30
80000f68:	10012537          	lui	a0,0x10012
E:\VMshare\e203\zhengdian_E203\sdk\hellow_test\Debug/../hbird_sdk/SoC/hbirdv2/Common/Source/system_hbirdv2.c:466
    SystemCoreClock = get_cpu_freq();
80000f6c:	00f42023          	sw	a5,0(s0)
E:\VMshare\e203\zhengdian_E203\sdk\hellow_test\Debug/../hbird_sdk/SoC/hbirdv2/Common/Source/system_hbirdv2.c:468
    gpio_iof_config(GPIOA, IOF_UART_MASK);
80000f70:	9d9ff0ef          	jal	ra,80000948 <gpio_iof_config>
E:\VMshare\e203\zhengdian_E203\sdk\hellow_test\Debug/../hbird_sdk/SoC/hbirdv2/Common/Source/system_hbirdv2.c:469
    uart_init(SOC_DEBUG_UART, 115200);
80000f74:	0001c5b7          	lui	a1,0x1c
80000f78:	20058593          	addi	a1,a1,512 # 1c200 <__stack_size+0x1ba00>
80000f7c:	10013537          	lui	a0,0x10013
80000f80:	9edff0ef          	jal	ra,8000096c <uart_init>
SystemBannerPrint():
E:\VMshare\e203\zhengdian_E203\sdk\hellow_test\Debug/../hbird_sdk/SoC/hbirdv2/Common/Source/system_hbirdv2.c:381
    printf("HummingBird SDK Build Time: %s, %s\r\n", __DATE__, __TIME__);
80000f84:	00003617          	auipc	a2,0x3
80000f88:	e0c60613          	addi	a2,a2,-500 # 80003d90 <_read_r+0xa0>
80000f8c:	00003597          	auipc	a1,0x3
80000f90:	e1058593          	addi	a1,a1,-496 # 80003d9c <_read_r+0xac>
80000f94:	00003517          	auipc	a0,0x3
80000f98:	e1450513          	addi	a0,a0,-492 # 80003da8 <_read_r+0xb8>
80000f9c:	0ec010ef          	jal	ra,80002088 <iprintf>
E:\VMshare\e203\zhengdian_E203\sdk\hellow_test\Debug/../hbird_sdk/SoC/hbirdv2/Common/Source/system_hbirdv2.c:383
    printf("Download Mode: %s\r\n", DOWNLOAD_MODE_STRING);
80000fa0:	00003597          	auipc	a1,0x3
80000fa4:	e3058593          	addi	a1,a1,-464 # 80003dd0 <_read_r+0xe0>
80000fa8:	00003517          	auipc	a0,0x3
80000fac:	e2c50513          	addi	a0,a0,-468 # 80003dd4 <_read_r+0xe4>
80000fb0:	0d8010ef          	jal	ra,80002088 <iprintf>
E:\VMshare\e203\zhengdian_E203\sdk\hellow_test\Debug/../hbird_sdk/SoC/hbirdv2/Common/Source/system_hbirdv2.c:385
    printf("CPU Frequency %lu Hz\r\n", SystemCoreClock);
80000fb4:	00042583          	lw	a1,0(s0)
80000fb8:	00003517          	auipc	a0,0x3
80000fbc:	e3050513          	addi	a0,a0,-464 # 80003de8 <_read_r+0xf8>
80000fc0:	0c8010ef          	jal	ra,80002088 <iprintf>
Interrupt_Init():
E:\VMshare\e203\zhengdian_E203\sdk\hellow_test\Debug/../hbird_sdk/SoC/hbirdv2/Common/Source/system_hbirdv2.c:216
        SystemExtInterruptHandlers[i] = (unsigned long)system_default_interrupt_handler;
80000fc4:	00000297          	auipc	t0,0x0
80000fc8:	e1c28293          	addi	t0,t0,-484 # 80000de0 <system_default_interrupt_handler>
80000fcc:	87818713          	addi	a4,gp,-1928 # 900000d8 <SystemExtInterruptHandlers>
Exception_Init():
E:\VMshare\e203\zhengdian_E203\sdk\hellow_test\Debug/../hbird_sdk/SoC/hbirdv2/Common/Source/system_hbirdv2.c:201
        SystemExceptionHandlers[i] = (unsigned long)system_default_exception_handler;
80000fd0:	00000617          	auipc	a2,0x0
80000fd4:	dc060613          	addi	a2,a2,-576 # 80000d90 <system_default_exception_handler>
80000fd8:	84c18693          	addi	a3,gp,-1972 # 900000ac <SystemExceptionHandlers>
Interrupt_Init():
E:\VMshare\e203\zhengdian_E203\sdk\hellow_test\Debug/../hbird_sdk/SoC/hbirdv2/Common/Source/system_hbirdv2.c:219
        SystemCoreInterruptHandlers[i] = (unsigned long)system_default_interrupt_handler;
80000fdc:	82418313          	addi	t1,gp,-2012 # 90000084 <SystemCoreInterruptHandlers>
Exception_Init():
E:\VMshare\e203\zhengdian_E203\sdk\hellow_test\Debug/../hbird_sdk/SoC/hbirdv2/Common/Source/system_hbirdv2.c:201
        SystemExceptionHandlers[i] = (unsigned long)system_default_exception_handler;
80000fe0:	00c6a023          	sw	a2,0(a3)
80000fe4:	00c6a223          	sw	a2,4(a3)
80000fe8:	00c6a423          	sw	a2,8(a3)
80000fec:	00c6a623          	sw	a2,12(a3)
80000ff0:	00c6a823          	sw	a2,16(a3)
80000ff4:	00c6aa23          	sw	a2,20(a3)
80000ff8:	00c6ac23          	sw	a2,24(a3)
80000ffc:	00c6ae23          	sw	a2,28(a3)
80001000:	02c6a023          	sw	a2,32(a3)
80001004:	02c6a223          	sw	a2,36(a3)
80001008:	02c6a423          	sw	a2,40(a3)
Interrupt_Init():
E:\VMshare\e203\zhengdian_E203\sdk\hellow_test\Debug/../hbird_sdk/SoC/hbirdv2/Common/Source/system_hbirdv2.c:216
        SystemExtInterruptHandlers[i] = (unsigned long)system_default_interrupt_handler;
8000100c:	00572023          	sw	t0,0(a4)
80001010:	00572223          	sw	t0,4(a4)
80001014:	00572423          	sw	t0,8(a4)
80001018:	00572623          	sw	t0,12(a4)
8000101c:	00572823          	sw	t0,16(a4)
80001020:	00572a23          	sw	t0,20(a4)
80001024:	00572c23          	sw	t0,24(a4)
80001028:	00572e23          	sw	t0,28(a4)
8000102c:	02572023          	sw	t0,32(a4)
80001030:	02572223          	sw	t0,36(a4)
80001034:	02572423          	sw	t0,40(a4)
80001038:	02572623          	sw	t0,44(a4)
8000103c:	02572823          	sw	t0,48(a4)
80001040:	02572a23          	sw	t0,52(a4)
80001044:	02572c23          	sw	t0,56(a4)
80001048:	02572e23          	sw	t0,60(a4)
8000104c:	04572023          	sw	t0,64(a4)
E:\VMshare\e203\zhengdian_E203\sdk\hellow_test\Debug/../hbird_sdk/SoC/hbirdv2/Common/Source/system_hbirdv2.c:219
        SystemCoreInterruptHandlers[i] = (unsigned long)system_default_interrupt_handler;
80001050:	00532023          	sw	t0,0(t1)
80001054:	00532223          	sw	t0,4(t1)
80001058:	00532423          	sw	t0,8(t1)
8000105c:	00532623          	sw	t0,12(t1)
80001060:	00532823          	sw	t0,16(t1)
80001064:	00532a23          	sw	t0,20(t1)
80001068:	00532c23          	sw	t0,24(t1)
8000106c:	00532e23          	sw	t0,28(t1)
80001070:	02532023          	sw	t0,32(t1)
80001074:	02532223          	sw	t0,36(t1)
PLIC_DisableInterrupt():
E:\VMshare\e203\zhengdian_E203\sdk\hellow_test\hbird_sdk\NMSIS\Core\Include/core_feature_plic.h:191
    uint32_t hartid = __RV_CSR_READ(CSR_MHARTID);
80001078:	f14023f3          	csrr	t2,mhartid
E:\VMshare\e203\zhengdian_E203\sdk\hellow_test\hbird_sdk\NMSIS\Core\Include/core_feature_plic.h:193
                    (hartid << PLIC_ENABLE_SHIFT_PER_TARGET) + (source >> 5) * 4);
8000107c:	0c002837          	lui	a6,0xc002
80001080:	00739513          	slli	a0,t2,0x7
80001084:	010508b3          	add	a7,a0,a6
E:\VMshare\e203\zhengdian_E203\sdk\hellow_test\hbird_sdk\NMSIS\Core\Include/core_feature_plic.h:195
    uint32_t current = *enable_reg;
80001088:	0008ae03          	lw	t3,0(a7)
PLIC_SetPriority():
E:\VMshare\e203\zhengdian_E203\sdk\hellow_test\hbird_sdk\NMSIS\Core\Include/core_feature_plic.h:237
    *priority_reg = priority;
8000108c:	0c000eb7          	lui	t4,0xc000
PLIC_DisableInterrupt():
E:\VMshare\e203\zhengdian_E203\sdk\hellow_test\hbird_sdk\NMSIS\Core\Include/core_feature_plic.h:196
    current = current & (~(1<<(source&0x1F)));
80001090:	ffee7f13          	andi	t5,t3,-2
E:\VMshare\e203\zhengdian_E203\sdk\hellow_test\hbird_sdk\NMSIS\Core\Include/core_feature_plic.h:197
    *enable_reg = current;
80001094:	01e8a023          	sw	t5,0(a7)
PLIC_SetPriority():
E:\VMshare\e203\zhengdian_E203\sdk\hellow_test\hbird_sdk\NMSIS\Core\Include/core_feature_plic.h:237
    *priority_reg = priority;
80001098:	000ea023          	sw	zero,0(t4) # c000000 <__stack_size+0xbfff800>
PLIC_DisableInterrupt():
E:\VMshare\e203\zhengdian_E203\sdk\hellow_test\hbird_sdk\NMSIS\Core\Include/core_feature_plic.h:191
    uint32_t hartid = __RV_CSR_READ(CSR_MHARTID);
8000109c:	f1402ff3          	csrr	t6,mhartid
E:\VMshare\e203\zhengdian_E203\sdk\hellow_test\hbird_sdk\NMSIS\Core\Include/core_feature_plic.h:193
                    (hartid << PLIC_ENABLE_SHIFT_PER_TARGET) + (source >> 5) * 4);
800010a0:	007f9793          	slli	a5,t6,0x7
800010a4:	01078433          	add	s0,a5,a6
E:\VMshare\e203\zhengdian_E203\sdk\hellow_test\hbird_sdk\NMSIS\Core\Include/core_feature_plic.h:195
    uint32_t current = *enable_reg;
800010a8:	00042583          	lw	a1,0(s0)
E:\VMshare\e203\zhengdian_E203\sdk\hellow_test\hbird_sdk\NMSIS\Core\Include/core_feature_plic.h:196
    current = current & (~(1<<(source&0x1F)));
800010ac:	ffd5f613          	andi	a2,a1,-3
E:\VMshare\e203\zhengdian_E203\sdk\hellow_test\hbird_sdk\NMSIS\Core\Include/core_feature_plic.h:197
    *enable_reg = current;
800010b0:	00c42023          	sw	a2,0(s0)
PLIC_SetPriority():
E:\VMshare\e203\zhengdian_E203\sdk\hellow_test\hbird_sdk\NMSIS\Core\Include/core_feature_plic.h:237
    *priority_reg = priority;
800010b4:	000ea223          	sw	zero,4(t4)
PLIC_DisableInterrupt():
E:\VMshare\e203\zhengdian_E203\sdk\hellow_test\hbird_sdk\NMSIS\Core\Include/core_feature_plic.h:191
    uint32_t hartid = __RV_CSR_READ(CSR_MHARTID);
800010b8:	f14026f3          	csrr	a3,mhartid
E:\VMshare\e203\zhengdian_E203\sdk\hellow_test\hbird_sdk\NMSIS\Core\Include/core_feature_plic.h:193
                    (hartid << PLIC_ENABLE_SHIFT_PER_TARGET) + (source >> 5) * 4);
800010bc:	00769293          	slli	t0,a3,0x7
800010c0:	01028733          	add	a4,t0,a6
E:\VMshare\e203\zhengdian_E203\sdk\hellow_test\hbird_sdk\NMSIS\Core\Include/core_feature_plic.h:195
    uint32_t current = *enable_reg;
800010c4:	00072303          	lw	t1,0(a4)
E:\VMshare\e203\zhengdian_E203\sdk\hellow_test\hbird_sdk\NMSIS\Core\Include/core_feature_plic.h:196
    current = current & (~(1<<(source&0x1F)));
800010c8:	ffb37393          	andi	t2,t1,-5
E:\VMshare\e203\zhengdian_E203\sdk\hellow_test\hbird_sdk\NMSIS\Core\Include/core_feature_plic.h:197
    *enable_reg = current;
800010cc:	00772023          	sw	t2,0(a4)
PLIC_SetPriority():
E:\VMshare\e203\zhengdian_E203\sdk\hellow_test\hbird_sdk\NMSIS\Core\Include/core_feature_plic.h:237
    *priority_reg = priority;
800010d0:	000ea423          	sw	zero,8(t4)
PLIC_DisableInterrupt():
E:\VMshare\e203\zhengdian_E203\sdk\hellow_test\hbird_sdk\NMSIS\Core\Include/core_feature_plic.h:191
    uint32_t hartid = __RV_CSR_READ(CSR_MHARTID);
800010d4:	f1402573          	csrr	a0,mhartid
E:\VMshare\e203\zhengdian_E203\sdk\hellow_test\hbird_sdk\NMSIS\Core\Include/core_feature_plic.h:193
                    (hartid << PLIC_ENABLE_SHIFT_PER_TARGET) + (source >> 5) * 4);
800010d8:	00751893          	slli	a7,a0,0x7
800010dc:	01088e33          	add	t3,a7,a6
E:\VMshare\e203\zhengdian_E203\sdk\hellow_test\hbird_sdk\NMSIS\Core\Include/core_feature_plic.h:195
    uint32_t current = *enable_reg;
800010e0:	000e2f03          	lw	t5,0(t3)
E:\VMshare\e203\zhengdian_E203\sdk\hellow_test\hbird_sdk\NMSIS\Core\Include/core_feature_plic.h:196
    current = current & (~(1<<(source&0x1F)));
800010e4:	ff7f7f93          	andi	t6,t5,-9
E:\VMshare\e203\zhengdian_E203\sdk\hellow_test\hbird_sdk\NMSIS\Core\Include/core_feature_plic.h:197
    *enable_reg = current;
800010e8:	01fe2023          	sw	t6,0(t3)
PLIC_SetPriority():
E:\VMshare\e203\zhengdian_E203\sdk\hellow_test\hbird_sdk\NMSIS\Core\Include/core_feature_plic.h:237
    *priority_reg = priority;
800010ec:	000ea623          	sw	zero,12(t4)
PLIC_DisableInterrupt():
E:\VMshare\e203\zhengdian_E203\sdk\hellow_test\hbird_sdk\NMSIS\Core\Include/core_feature_plic.h:191
    uint32_t hartid = __RV_CSR_READ(CSR_MHARTID);
800010f0:	f14027f3          	csrr	a5,mhartid
E:\VMshare\e203\zhengdian_E203\sdk\hellow_test\hbird_sdk\NMSIS\Core\Include/core_feature_plic.h:193
                    (hartid << PLIC_ENABLE_SHIFT_PER_TARGET) + (source >> 5) * 4);
800010f4:	00779413          	slli	s0,a5,0x7
800010f8:	010405b3          	add	a1,s0,a6
E:\VMshare\e203\zhengdian_E203\sdk\hellow_test\hbird_sdk\NMSIS\Core\Include/core_feature_plic.h:195
    uint32_t current = *enable_reg;
800010fc:	0005a603          	lw	a2,0(a1)
E:\VMshare\e203\zhengdian_E203\sdk\hellow_test\hbird_sdk\NMSIS\Core\Include/core_feature_plic.h:196
    current = current & (~(1<<(source&0x1F)));
80001100:	fef67693          	andi	a3,a2,-17
E:\VMshare\e203\zhengdian_E203\sdk\hellow_test\hbird_sdk\NMSIS\Core\Include/core_feature_plic.h:197
    *enable_reg = current;
80001104:	00d5a023          	sw	a3,0(a1)
PLIC_SetPriority():
E:\VMshare\e203\zhengdian_E203\sdk\hellow_test\hbird_sdk\NMSIS\Core\Include/core_feature_plic.h:237
    *priority_reg = priority;
80001108:	000ea823          	sw	zero,16(t4)
PLIC_DisableInterrupt():
E:\VMshare\e203\zhengdian_E203\sdk\hellow_test\hbird_sdk\NMSIS\Core\Include/core_feature_plic.h:191
    uint32_t hartid = __RV_CSR_READ(CSR_MHARTID);
8000110c:	f14022f3          	csrr	t0,mhartid
E:\VMshare\e203\zhengdian_E203\sdk\hellow_test\hbird_sdk\NMSIS\Core\Include/core_feature_plic.h:193
                    (hartid << PLIC_ENABLE_SHIFT_PER_TARGET) + (source >> 5) * 4);
80001110:	00729713          	slli	a4,t0,0x7
80001114:	01070333          	add	t1,a4,a6
E:\VMshare\e203\zhengdian_E203\sdk\hellow_test\hbird_sdk\NMSIS\Core\Include/core_feature_plic.h:195
    uint32_t current = *enable_reg;
80001118:	00032383          	lw	t2,0(t1)
E:\VMshare\e203\zhengdian_E203\sdk\hellow_test\hbird_sdk\NMSIS\Core\Include/core_feature_plic.h:196
    current = current & (~(1<<(source&0x1F)));
8000111c:	fdf3f513          	andi	a0,t2,-33
E:\VMshare\e203\zhengdian_E203\sdk\hellow_test\hbird_sdk\NMSIS\Core\Include/core_feature_plic.h:197
    *enable_reg = current;
80001120:	00a32023          	sw	a0,0(t1)
PLIC_SetPriority():
E:\VMshare\e203\zhengdian_E203\sdk\hellow_test\hbird_sdk\NMSIS\Core\Include/core_feature_plic.h:237
    *priority_reg = priority;
80001124:	000eaa23          	sw	zero,20(t4)
PLIC_DisableInterrupt():
E:\VMshare\e203\zhengdian_E203\sdk\hellow_test\hbird_sdk\NMSIS\Core\Include/core_feature_plic.h:191
    uint32_t hartid = __RV_CSR_READ(CSR_MHARTID);
80001128:	f14028f3          	csrr	a7,mhartid
E:\VMshare\e203\zhengdian_E203\sdk\hellow_test\hbird_sdk\NMSIS\Core\Include/core_feature_plic.h:193
                    (hartid << PLIC_ENABLE_SHIFT_PER_TARGET) + (source >> 5) * 4);
8000112c:	00789e13          	slli	t3,a7,0x7
80001130:	010e0f33          	add	t5,t3,a6
E:\VMshare\e203\zhengdian_E203\sdk\hellow_test\hbird_sdk\NMSIS\Core\Include/core_feature_plic.h:195
    uint32_t current = *enable_reg;
80001134:	000f2f83          	lw	t6,0(t5)
E:\VMshare\e203\zhengdian_E203\sdk\hellow_test\hbird_sdk\NMSIS\Core\Include/core_feature_plic.h:196
    current = current & (~(1<<(source&0x1F)));
80001138:	fbfff793          	andi	a5,t6,-65
E:\VMshare\e203\zhengdian_E203\sdk\hellow_test\hbird_sdk\NMSIS\Core\Include/core_feature_plic.h:197
    *enable_reg = current;
8000113c:	00ff2023          	sw	a5,0(t5)
PLIC_SetPriority():
E:\VMshare\e203\zhengdian_E203\sdk\hellow_test\hbird_sdk\NMSIS\Core\Include/core_feature_plic.h:237
    *priority_reg = priority;
80001140:	000eac23          	sw	zero,24(t4)
PLIC_DisableInterrupt():
E:\VMshare\e203\zhengdian_E203\sdk\hellow_test\hbird_sdk\NMSIS\Core\Include/core_feature_plic.h:191
    uint32_t hartid = __RV_CSR_READ(CSR_MHARTID);
80001144:	f1402473          	csrr	s0,mhartid
E:\VMshare\e203\zhengdian_E203\sdk\hellow_test\hbird_sdk\NMSIS\Core\Include/core_feature_plic.h:193
                    (hartid << PLIC_ENABLE_SHIFT_PER_TARGET) + (source >> 5) * 4);
80001148:	00741593          	slli	a1,s0,0x7
8000114c:	010586b3          	add	a3,a1,a6
E:\VMshare\e203\zhengdian_E203\sdk\hellow_test\hbird_sdk\NMSIS\Core\Include/core_feature_plic.h:195
    uint32_t current = *enable_reg;
80001150:	0006a603          	lw	a2,0(a3)
E:\VMshare\e203\zhengdian_E203\sdk\hellow_test\hbird_sdk\NMSIS\Core\Include/core_feature_plic.h:196
    current = current & (~(1<<(source&0x1F)));
80001154:	f7f67293          	andi	t0,a2,-129
E:\VMshare\e203\zhengdian_E203\sdk\hellow_test\hbird_sdk\NMSIS\Core\Include/core_feature_plic.h:197
    *enable_reg = current;
80001158:	0056a023          	sw	t0,0(a3)
PLIC_SetPriority():
E:\VMshare\e203\zhengdian_E203\sdk\hellow_test\hbird_sdk\NMSIS\Core\Include/core_feature_plic.h:237
    *priority_reg = priority;
8000115c:	000eae23          	sw	zero,28(t4)
PLIC_DisableInterrupt():
E:\VMshare\e203\zhengdian_E203\sdk\hellow_test\hbird_sdk\NMSIS\Core\Include/core_feature_plic.h:191
    uint32_t hartid = __RV_CSR_READ(CSR_MHARTID);
80001160:	f1402773          	csrr	a4,mhartid
E:\VMshare\e203\zhengdian_E203\sdk\hellow_test\hbird_sdk\NMSIS\Core\Include/core_feature_plic.h:193
                    (hartid << PLIC_ENABLE_SHIFT_PER_TARGET) + (source >> 5) * 4);
80001164:	00771313          	slli	t1,a4,0x7
80001168:	010303b3          	add	t2,t1,a6
E:\VMshare\e203\zhengdian_E203\sdk\hellow_test\hbird_sdk\NMSIS\Core\Include/core_feature_plic.h:195
    uint32_t current = *enable_reg;
8000116c:	0003a503          	lw	a0,0(t2)
E:\VMshare\e203\zhengdian_E203\sdk\hellow_test\hbird_sdk\NMSIS\Core\Include/core_feature_plic.h:196
    current = current & (~(1<<(source&0x1F)));
80001170:	eff57893          	andi	a7,a0,-257
E:\VMshare\e203\zhengdian_E203\sdk\hellow_test\hbird_sdk\NMSIS\Core\Include/core_feature_plic.h:197
    *enable_reg = current;
80001174:	0113a023          	sw	a7,0(t2)
PLIC_SetPriority():
E:\VMshare\e203\zhengdian_E203\sdk\hellow_test\hbird_sdk\NMSIS\Core\Include/core_feature_plic.h:237
    *priority_reg = priority;
80001178:	020ea023          	sw	zero,32(t4)
PLIC_DisableInterrupt():
E:\VMshare\e203\zhengdian_E203\sdk\hellow_test\hbird_sdk\NMSIS\Core\Include/core_feature_plic.h:191
    uint32_t hartid = __RV_CSR_READ(CSR_MHARTID);
8000117c:	f1402e73          	csrr	t3,mhartid
E:\VMshare\e203\zhengdian_E203\sdk\hellow_test\hbird_sdk\NMSIS\Core\Include/core_feature_plic.h:193
                    (hartid << PLIC_ENABLE_SHIFT_PER_TARGET) + (source >> 5) * 4);
80001180:	007e1f13          	slli	t5,t3,0x7
80001184:	010f0fb3          	add	t6,t5,a6
E:\VMshare\e203\zhengdian_E203\sdk\hellow_test\hbird_sdk\NMSIS\Core\Include/core_feature_plic.h:195
    uint32_t current = *enable_reg;
80001188:	000fa783          	lw	a5,0(t6)
E:\VMshare\e203\zhengdian_E203\sdk\hellow_test\hbird_sdk\NMSIS\Core\Include/core_feature_plic.h:196
    current = current & (~(1<<(source&0x1F)));
8000118c:	dff7f413          	andi	s0,a5,-513
E:\VMshare\e203\zhengdian_E203\sdk\hellow_test\hbird_sdk\NMSIS\Core\Include/core_feature_plic.h:197
    *enable_reg = current;
80001190:	008fa023          	sw	s0,0(t6)
PLIC_SetPriority():
E:\VMshare\e203\zhengdian_E203\sdk\hellow_test\hbird_sdk\NMSIS\Core\Include/core_feature_plic.h:237
    *priority_reg = priority;
80001194:	020ea223          	sw	zero,36(t4)
PLIC_DisableInterrupt():
E:\VMshare\e203\zhengdian_E203\sdk\hellow_test\hbird_sdk\NMSIS\Core\Include/core_feature_plic.h:191
    uint32_t hartid = __RV_CSR_READ(CSR_MHARTID);
80001198:	f14025f3          	csrr	a1,mhartid
E:\VMshare\e203\zhengdian_E203\sdk\hellow_test\hbird_sdk\NMSIS\Core\Include/core_feature_plic.h:193
                    (hartid << PLIC_ENABLE_SHIFT_PER_TARGET) + (source >> 5) * 4);
8000119c:	00759693          	slli	a3,a1,0x7
800011a0:	010682b3          	add	t0,a3,a6
E:\VMshare\e203\zhengdian_E203\sdk\hellow_test\hbird_sdk\NMSIS\Core\Include/core_feature_plic.h:195
    uint32_t current = *enable_reg;
800011a4:	0002a603          	lw	a2,0(t0)
E:\VMshare\e203\zhengdian_E203\sdk\hellow_test\hbird_sdk\NMSIS\Core\Include/core_feature_plic.h:196
    current = current & (~(1<<(source&0x1F)));
800011a8:	bff67713          	andi	a4,a2,-1025
E:\VMshare\e203\zhengdian_E203\sdk\hellow_test\hbird_sdk\NMSIS\Core\Include/core_feature_plic.h:197
    *enable_reg = current;
800011ac:	00e2a023          	sw	a4,0(t0)
PLIC_SetPriority():
E:\VMshare\e203\zhengdian_E203\sdk\hellow_test\hbird_sdk\NMSIS\Core\Include/core_feature_plic.h:237
    *priority_reg = priority;
800011b0:	020ea423          	sw	zero,40(t4)
PLIC_DisableInterrupt():
E:\VMshare\e203\zhengdian_E203\sdk\hellow_test\hbird_sdk\NMSIS\Core\Include/core_feature_plic.h:191
    uint32_t hartid = __RV_CSR_READ(CSR_MHARTID);
800011b4:	f1402373          	csrr	t1,mhartid
E:\VMshare\e203\zhengdian_E203\sdk\hellow_test\hbird_sdk\NMSIS\Core\Include/core_feature_plic.h:193
                    (hartid << PLIC_ENABLE_SHIFT_PER_TARGET) + (source >> 5) * 4);
800011b8:	00731393          	slli	t2,t1,0x7
800011bc:	010388b3          	add	a7,t2,a6
E:\VMshare\e203\zhengdian_E203\sdk\hellow_test\hbird_sdk\NMSIS\Core\Include/core_feature_plic.h:195
    uint32_t current = *enable_reg;
800011c0:	0008ae03          	lw	t3,0(a7)
E:\VMshare\e203\zhengdian_E203\sdk\hellow_test\hbird_sdk\NMSIS\Core\Include/core_feature_plic.h:196
    current = current & (~(1<<(source&0x1F)));
800011c4:	ffffff37          	lui	t5,0xfffff
800011c8:	7fff0513          	addi	a0,t5,2047 # fffff7ff <_sp+0x6ffef7ff>
800011cc:	00ae7fb3          	and	t6,t3,a0
E:\VMshare\e203\zhengdian_E203\sdk\hellow_test\hbird_sdk\NMSIS\Core\Include/core_feature_plic.h:197
    *enable_reg = current;
800011d0:	01f8a023          	sw	t6,0(a7)
PLIC_SetPriority():
E:\VMshare\e203\zhengdian_E203\sdk\hellow_test\hbird_sdk\NMSIS\Core\Include/core_feature_plic.h:237
    *priority_reg = priority;
800011d4:	020ea623          	sw	zero,44(t4)
PLIC_DisableInterrupt():
E:\VMshare\e203\zhengdian_E203\sdk\hellow_test\hbird_sdk\NMSIS\Core\Include/core_feature_plic.h:191
    uint32_t hartid = __RV_CSR_READ(CSR_MHARTID);
800011d8:	f14027f3          	csrr	a5,mhartid
E:\VMshare\e203\zhengdian_E203\sdk\hellow_test\hbird_sdk\NMSIS\Core\Include/core_feature_plic.h:193
                    (hartid << PLIC_ENABLE_SHIFT_PER_TARGET) + (source >> 5) * 4);
800011dc:	00779413          	slli	s0,a5,0x7
800011e0:	010406b3          	add	a3,s0,a6
E:\VMshare\e203\zhengdian_E203\sdk\hellow_test\hbird_sdk\NMSIS\Core\Include/core_feature_plic.h:195
    uint32_t current = *enable_reg;
800011e4:	0006a583          	lw	a1,0(a3)
E:\VMshare\e203\zhengdian_E203\sdk\hellow_test\hbird_sdk\NMSIS\Core\Include/core_feature_plic.h:196
    current = current & (~(1<<(source&0x1F)));
800011e8:	ffff0293          	addi	t0,t5,-1
800011ec:	0055f633          	and	a2,a1,t0
E:\VMshare\e203\zhengdian_E203\sdk\hellow_test\hbird_sdk\NMSIS\Core\Include/core_feature_plic.h:197
    *enable_reg = current;
800011f0:	00c6a023          	sw	a2,0(a3)
PLIC_SetPriority():
E:\VMshare\e203\zhengdian_E203\sdk\hellow_test\hbird_sdk\NMSIS\Core\Include/core_feature_plic.h:237
    *priority_reg = priority;
800011f4:	020ea823          	sw	zero,48(t4)
PLIC_DisableInterrupt():
E:\VMshare\e203\zhengdian_E203\sdk\hellow_test\hbird_sdk\NMSIS\Core\Include/core_feature_plic.h:191
    uint32_t hartid = __RV_CSR_READ(CSR_MHARTID);
800011f8:	f1402773          	csrr	a4,mhartid
E:\VMshare\e203\zhengdian_E203\sdk\hellow_test\hbird_sdk\NMSIS\Core\Include/core_feature_plic.h:193
                    (hartid << PLIC_ENABLE_SHIFT_PER_TARGET) + (source >> 5) * 4);
800011fc:	00771313          	slli	t1,a4,0x7
80001200:	010303b3          	add	t2,t1,a6
E:\VMshare\e203\zhengdian_E203\sdk\hellow_test\hbird_sdk\NMSIS\Core\Include/core_feature_plic.h:195
    uint32_t current = *enable_reg;
80001204:	0003a883          	lw	a7,0(t2)
E:\VMshare\e203\zhengdian_E203\sdk\hellow_test\hbird_sdk\NMSIS\Core\Include/core_feature_plic.h:196
    current = current & (~(1<<(source&0x1F)));
80001208:	ffffee37          	lui	t3,0xffffe
8000120c:	fffe0f13          	addi	t5,t3,-1 # ffffdfff <_sp+0x6ffedfff>
80001210:	01e8f533          	and	a0,a7,t5
E:\VMshare\e203\zhengdian_E203\sdk\hellow_test\hbird_sdk\NMSIS\Core\Include/core_feature_plic.h:197
    *enable_reg = current;
80001214:	00a3a023          	sw	a0,0(t2)
PLIC_SetPriority():
E:\VMshare\e203\zhengdian_E203\sdk\hellow_test\hbird_sdk\NMSIS\Core\Include/core_feature_plic.h:237
    *priority_reg = priority;
80001218:	020eaa23          	sw	zero,52(t4)
PLIC_DisableInterrupt():
E:\VMshare\e203\zhengdian_E203\sdk\hellow_test\hbird_sdk\NMSIS\Core\Include/core_feature_plic.h:191
    uint32_t hartid = __RV_CSR_READ(CSR_MHARTID);
8000121c:	f1402ff3          	csrr	t6,mhartid
E:\VMshare\e203\zhengdian_E203\sdk\hellow_test\hbird_sdk\NMSIS\Core\Include/core_feature_plic.h:193
                    (hartid << PLIC_ENABLE_SHIFT_PER_TARGET) + (source >> 5) * 4);
80001220:	007f9793          	slli	a5,t6,0x7
80001224:	01078433          	add	s0,a5,a6
E:\VMshare\e203\zhengdian_E203\sdk\hellow_test\hbird_sdk\NMSIS\Core\Include/core_feature_plic.h:195
    uint32_t current = *enable_reg;
80001228:	00042683          	lw	a3,0(s0)
E:\VMshare\e203\zhengdian_E203\sdk\hellow_test\hbird_sdk\NMSIS\Core\Include/core_feature_plic.h:196
    current = current & (~(1<<(source&0x1F)));
8000122c:	ffffc5b7          	lui	a1,0xffffc
80001230:	fff58293          	addi	t0,a1,-1 # ffffbfff <_sp+0x6ffebfff>
80001234:	0056f633          	and	a2,a3,t0
E:\VMshare\e203\zhengdian_E203\sdk\hellow_test\hbird_sdk\NMSIS\Core\Include/core_feature_plic.h:197
    *enable_reg = current;
80001238:	00c42023          	sw	a2,0(s0)
PLIC_SetPriority():
E:\VMshare\e203\zhengdian_E203\sdk\hellow_test\hbird_sdk\NMSIS\Core\Include/core_feature_plic.h:237
    *priority_reg = priority;
8000123c:	020eac23          	sw	zero,56(t4)
PLIC_DisableInterrupt():
E:\VMshare\e203\zhengdian_E203\sdk\hellow_test\hbird_sdk\NMSIS\Core\Include/core_feature_plic.h:191
    uint32_t hartid = __RV_CSR_READ(CSR_MHARTID);
80001240:	f1402773          	csrr	a4,mhartid
E:\VMshare\e203\zhengdian_E203\sdk\hellow_test\hbird_sdk\NMSIS\Core\Include/core_feature_plic.h:193
                    (hartid << PLIC_ENABLE_SHIFT_PER_TARGET) + (source >> 5) * 4);
80001244:	00771313          	slli	t1,a4,0x7
80001248:	010303b3          	add	t2,t1,a6
E:\VMshare\e203\zhengdian_E203\sdk\hellow_test\hbird_sdk\NMSIS\Core\Include/core_feature_plic.h:195
    uint32_t current = *enable_reg;
8000124c:	0003a883          	lw	a7,0(t2)
E:\VMshare\e203\zhengdian_E203\sdk\hellow_test\hbird_sdk\NMSIS\Core\Include/core_feature_plic.h:196
    current = current & (~(1<<(source&0x1F)));
80001250:	ffff8e37          	lui	t3,0xffff8
80001254:	fffe0f13          	addi	t5,t3,-1 # ffff7fff <_sp+0x6ffe7fff>
80001258:	01e8f533          	and	a0,a7,t5
E:\VMshare\e203\zhengdian_E203\sdk\hellow_test\hbird_sdk\NMSIS\Core\Include/core_feature_plic.h:197
    *enable_reg = current;
8000125c:	00a3a023          	sw	a0,0(t2)
PLIC_SetPriority():
E:\VMshare\e203\zhengdian_E203\sdk\hellow_test\hbird_sdk\NMSIS\Core\Include/core_feature_plic.h:237
    *priority_reg = priority;
80001260:	020eae23          	sw	zero,60(t4)
PLIC_DisableInterrupt():
E:\VMshare\e203\zhengdian_E203\sdk\hellow_test\hbird_sdk\NMSIS\Core\Include/core_feature_plic.h:191
    uint32_t hartid = __RV_CSR_READ(CSR_MHARTID);
80001264:	f1402ff3          	csrr	t6,mhartid
E:\VMshare\e203\zhengdian_E203\sdk\hellow_test\hbird_sdk\NMSIS\Core\Include/core_feature_plic.h:193
                    (hartid << PLIC_ENABLE_SHIFT_PER_TARGET) + (source >> 5) * 4);
80001268:	007f9793          	slli	a5,t6,0x7
8000126c:	01078833          	add	a6,a5,a6
E:\VMshare\e203\zhengdian_E203\sdk\hellow_test\hbird_sdk\NMSIS\Core\Include/core_feature_plic.h:195
    uint32_t current = *enable_reg;
80001270:	00082403          	lw	s0,0(a6) # c002000 <__stack_size+0xc001800>
E:\VMshare\e203\zhengdian_E203\sdk\hellow_test\hbird_sdk\NMSIS\Core\Include/core_feature_plic.h:196
    current = current & (~(1<<(source&0x1F)));
80001274:	ffff06b7          	lui	a3,0xffff0
80001278:	fff68593          	addi	a1,a3,-1 # fffeffff <_sp+0x6ffdffff>
8000127c:	00b472b3          	and	t0,s0,a1
E:\VMshare\e203\zhengdian_E203\sdk\hellow_test\hbird_sdk\NMSIS\Core\Include/core_feature_plic.h:197
    *enable_reg = current;
80001280:	00582023          	sw	t0,0(a6)
PLIC_SetPriority():
E:\VMshare\e203\zhengdian_E203\sdk\hellow_test\hbird_sdk\NMSIS\Core\Include/core_feature_plic.h:237
    *priority_reg = priority;
80001284:	040ea023          	sw	zero,64(t4)
PLIC_SetThreshold():
E:\VMshare\e203\zhengdian_E203\sdk\hellow_test\hbird_sdk\NMSIS\Core\Include/core_feature_plic.h:135
    uint32_t hartid = __RV_CSR_READ(CSR_MHARTID);
80001288:	f1402ef3          	csrr	t4,mhartid
E:\VMshare\e203\zhengdian_E203\sdk\hellow_test\hbird_sdk\NMSIS\Core\Include/core_feature_plic.h:137
                    PLIC_THRESHOLD_OFFSET + (hartid << PLIC_THRESHOLD_SHIFT_PER_TARGET));
8000128c:	0c200737          	lui	a4,0xc200
_premain_init():
E:\VMshare\e203\zhengdian_E203\sdk\hellow_test\Debug/../hbird_sdk/SoC/hbirdv2/Common/Source/system_hbirdv2.c:481
    Interrupt_Init();
#if defined(__PLIC_PRESENT) && __PLIC_PRESENT == 1
    /* PLIC initilization */
    PLIC_Init(__PLIC_INTNUM);
#endif
}
80001290:	00c12083          	lw	ra,12(sp)
80001294:	00812403          	lw	s0,8(sp)
PLIC_Init():
E:\VMshare\e203\zhengdian_E203\sdk\hellow_test\hbird_sdk\NMSIS\Core\Include/core_feature_plic.h:137
80001298:	00ce9613          	slli	a2,t4,0xc
8000129c:	00e60333          	add	t1,a2,a4
E:\VMshare\e203\zhengdian_E203\sdk\hellow_test\hbird_sdk\NMSIS\Core\Include/core_feature_plic.h:139
    *thresh_reg = thresh;
800012a0:	00032023          	sw	zero,0(t1)
_premain_init():
E:\VMshare\e203\zhengdian_E203\sdk\hellow_test\Debug/../hbird_sdk/SoC/hbirdv2/Common/Source/system_hbirdv2.c:481
800012a4:	01010113          	addi	sp,sp,16
800012a8:	00008067          	ret

800012ac <_postmain_fini>:
_postmain_fini():
E:\VMshare\e203\zhengdian_E203\sdk\hellow_test\Debug/../hbird_sdk/SoC/hbirdv2/Common/Source/system_hbirdv2.c:507
#ifdef SIMULATION_RTL
extern void rtlsim_exit(int status);
    rtlsim_exit(status);
#endif

}
800012ac:	00008067          	ret

800012b0 <_init>:
_init():
E:\VMshare\e203\zhengdian_E203\sdk\hellow_test\Debug/../hbird_sdk/SoC/hbirdv2/Common/Source/system_hbirdv2.c:521
 * Please use \ref _premain_init function now
 */
void _init(void)
{
    /* Don't put any code here, please use _premain_init now */
}
800012b0:	00008067          	ret

800012b4 <_fini>:
_fini():
800012b4:	00008067          	ret

800012b8 <normal_case>:
extendFirst():
E:\VMshare\e203\zhengdian_E203\sdk\hellow_test\Debug/../application/insn.c:127
	
*/
void extendFirst(u32 MK[], u32 K[]) {
	int i;
	for(i = 0; i < 4; i++) {
		K[i] = MK[i] ^ FK[i];
800012b8:	00052303          	lw	t1,0(a0)
800012bc:	00452783          	lw	a5,4(a0)
800012c0:	00852683          	lw	a3,8(a0)
800012c4:	00c52703          	lw	a4,12(a0)
800012c8:	a3b1c537          	lui	a0,0xa3b1c
800012cc:	ac650293          	addi	t0,a0,-1338 # a3b1bac6 <_sp+0x13b0bac6>
800012d0:	56aa3837          	lui	a6,0x56aa3
800012d4:	005343b3          	xor	t2,t1,t0
800012d8:	35080893          	addi	a7,a6,848 # 56aa3350 <__stack_size+0x56aa2b50>
800012dc:	677d9eb7          	lui	t4,0x677d9
800012e0:	b2702337          	lui	t1,0xb2702
normal_case():
E:\VMshare\e203\zhengdian_E203\sdk\hellow_test\Debug/../application/insn.c:207


// normal test case without NICE accelerator.

int normal_case(unsigned int key_buf[], unsigned int data_buf[], unsigned int res[])
{
800012e4:	ee010113          	addi	sp,sp,-288
extendFirst():
E:\VMshare\e203\zhengdian_E203\sdk\hellow_test\Debug/../application/insn.c:127
		K[i] = MK[i] ^ FK[i];
800012e8:	0117ce33          	xor	t3,a5,a7
800012ec:	197e8f13          	addi	t5,t4,407 # 677d9197 <__stack_size+0x677d8997>
800012f0:	2dc30793          	addi	a5,t1,732 # b27022dc <_sp+0x226f22dc>
800012f4:	01e6cfb3          	xor	t6,a3,t5
800012f8:	02010813          	addi	a6,sp,32
800012fc:	00f746b3          	xor	a3,a4,a5
80001300:	00071737          	lui	a4,0x71
80001304:	01c12223          	sw	t3,4(sp)
80001308:	00d12623          	sw	a3,12(sp)
8000130c:	00080893          	mv	a7,a6
80001310:	e1570293          	addi	t0,a4,-491 # 70e15 <__stack_size+0x70615>
extendSecond():
E:\VMshare\e203\zhengdian_E203\sdk\hellow_test\Debug/../application/insn.c:138
	for(i = 0; i <32; i++) {
80001314:	00000e93          	li	t4,0
extendFirst():
E:\VMshare\e203\zhengdian_E203\sdk\hellow_test\Debug/../application/insn.c:127
		K[i] = MK[i] ^ FK[i];
80001318:	00712023          	sw	t2,0(sp)
8000131c:	01f12423          	sw	t6,8(sp)
80001320:	00003317          	auipc	t1,0x3
80001324:	db030313          	addi	t1,t1,-592 # 800040d0 <CK+0x4>
extendSecond():
E:\VMshare\e203\zhengdian_E203\sdk\hellow_test\Debug/../application/insn.c:138
	for(i = 0; i <32; i++) {
80001328:	02000e13          	li	t3,32
8000132c:	00003697          	auipc	a3,0x3
80001330:	e2068693          	addi	a3,a3,-480 # 8000414c <Sbox>
80001334:	00c0006f          	j	80001340 <normal_case+0x88>
E:\VMshare\e203\zhengdian_E203\sdk\hellow_test\Debug/../application/insn.c:139
		K[(i+4)%4] = K[i%4] ^ functionT(K[(i+1)%4] ^ K[(i+2)%4] ^ K[(i+3)%4] ^ CK[i], 2);
80001338:	00032283          	lw	t0,0(t1)
8000133c:	00430313          	addi	t1,t1,4
80001340:	001e8393          	addi	t2,t4,1
80001344:	002e8513          	addi	a0,t4,2
80001348:	0033ff13          	andi	t5,t2,3
8000134c:	003e8713          	addi	a4,t4,3
80001350:	12010793          	addi	a5,sp,288
80001354:	00357f93          	andi	t6,a0,3
80001358:	002f1f13          	slli	t5,t5,0x2
8000135c:	002f9513          	slli	a0,t6,0x2
80001360:	01e78fb3          	add	t6,a5,t5
80001364:	00377f13          	andi	t5,a4,3
80001368:	00a78533          	add	a0,a5,a0
8000136c:	002f1713          	slli	a4,t5,0x2
80001370:	ee0fa783          	lw	a5,-288(t6)
80001374:	12010f13          	addi	t5,sp,288
80001378:	ee052f83          	lw	t6,-288(a0)
8000137c:	00ef0533          	add	a0,t5,a4
80001380:	ee052703          	lw	a4,-288(a0)
80001384:	00f2c2b3          	xor	t0,t0,a5
80001388:	01f2c7b3          	xor	a5,t0,t6
8000138c:	00e7cfb3          	xor	t6,a5,a4
functionB():
E:\VMshare\e203\zhengdian_E203\sdk\hellow_test\Debug/../application/insn.c:71
	a[0] = b / 0x1000000;
80001390:	018fd513          	srli	a0,t6,0x18
E:\VMshare\e203\zhengdian_E203\sdk\hellow_test\Debug/../application/insn.c:72
	a[1] = b / 0x10000;
80001394:	010fdf13          	srli	t5,t6,0x10
E:\VMshare\e203\zhengdian_E203\sdk\hellow_test\Debug/../application/insn.c:75
	b = Sbox[a[0]] * 0x1000000 + Sbox[a[1]] * 0x10000 + Sbox[a[2]] * 0x100 + Sbox[a[3]];
80001398:	00a68733          	add	a4,a3,a0
8000139c:	0fff7293          	andi	t0,t5,255
800013a0:	00074783          	lbu	a5,0(a4)
E:\VMshare\e203\zhengdian_E203\sdk\hellow_test\Debug/../application/insn.c:73
	a[2] = b / 0x100;
800013a4:	008fd513          	srli	a0,t6,0x8
E:\VMshare\e203\zhengdian_E203\sdk\hellow_test\Debug/../application/insn.c:75
	b = Sbox[a[0]] * 0x1000000 + Sbox[a[1]] * 0x10000 + Sbox[a[2]] * 0x100 + Sbox[a[3]];
800013a8:	00568f33          	add	t5,a3,t0
800013ac:	0ff57713          	andi	a4,a0,255
800013b0:	000f4283          	lbu	t0,0(t5)
800013b4:	00e68f33          	add	t5,a3,a4
800013b8:	000f4503          	lbu	a0,0(t5)
800013bc:	00879713          	slli	a4,a5,0x8
800013c0:	0fffff93          	andi	t6,t6,255
800013c4:	005702b3          	add	t0,a4,t0
800013c8:	01f687b3          	add	a5,a3,t6
800013cc:	0007cf83          	lbu	t6,0(a5)
800013d0:	00829f13          	slli	t5,t0,0x8
800013d4:	00af0733          	add	a4,t5,a0
800013d8:	00871513          	slli	a0,a4,0x8
800013dc:	01f50733          	add	a4,a0,t6
loopLeft():
E:\VMshare\e203\zhengdian_E203\sdk\hellow_test\Debug/../application/insn.c:87
		a = a * 2 + a / 0x80000000;
800013e0:	00171513          	slli	a0,a4,0x1
800013e4:	01f55293          	srli	t0,a0,0x1f
800013e8:	00271793          	slli	a5,a4,0x2
800013ec:	00f28fb3          	add	t6,t0,a5
800013f0:	001f9f13          	slli	t5,t6,0x1
800013f4:	01ffd293          	srli	t0,t6,0x1f
800013f8:	01e287b3          	add	a5,t0,t5
800013fc:	00179f93          	slli	t6,a5,0x1
80001400:	01f7d293          	srli	t0,a5,0x1f
80001404:	01f287b3          	add	a5,t0,t6
80001408:	00179f93          	slli	t6,a5,0x1
8000140c:	01f7d293          	srli	t0,a5,0x1f
extendSecond():
E:\VMshare\e203\zhengdian_E203\sdk\hellow_test\Debug/../application/insn.c:139
		K[(i+4)%4] = K[i%4] ^ functionT(K[(i+1)%4] ^ K[(i+2)%4] ^ K[(i+3)%4] ^ CK[i], 2);
80001410:	003efe93          	andi	t4,t4,3
80001414:	01039393          	slli	t2,t2,0x10
80001418:	002e9f13          	slli	t5,t4,0x2
8000141c:	4103de93          	srai	t4,t2,0x10
loopLeft():
E:\VMshare\e203\zhengdian_E203\sdk\hellow_test\Debug/../application/insn.c:87
		a = a * 2 + a / 0x80000000;
80001420:	01f283b3          	add	t2,t0,t6
80001424:	00139f93          	slli	t6,t2,0x1
80001428:	01f3d793          	srli	a5,t2,0x1f
8000142c:	01f782b3          	add	t0,a5,t6
80001430:	00129393          	slli	t2,t0,0x1
80001434:	01f2df93          	srli	t6,t0,0x1f
80001438:	007f87b3          	add	a5,t6,t2
8000143c:	00179293          	slli	t0,a5,0x1
80001440:	01f7d393          	srli	t2,a5,0x1f
80001444:	005387b3          	add	a5,t2,t0
80001448:	00179f93          	slli	t6,a5,0x1
8000144c:	01f7d293          	srli	t0,a5,0x1f
80001450:	01f283b3          	add	t2,t0,t6
80001454:	00139f93          	slli	t6,t2,0x1
80001458:	01f3d793          	srli	a5,t2,0x1f
8000145c:	01f782b3          	add	t0,a5,t6
80001460:	00129393          	slli	t2,t0,0x1
80001464:	01f2df93          	srli	t6,t0,0x1f
80001468:	007f87b3          	add	a5,t6,t2
extendSecond():
E:\VMshare\e203\zhengdian_E203\sdk\hellow_test\Debug/../application/insn.c:139
		K[(i+4)%4] = K[i%4] ^ functionT(K[(i+1)%4] ^ K[(i+2)%4] ^ K[(i+3)%4] ^ CK[i], 2);
8000146c:	01e10f33          	add	t5,sp,t5
loopLeft():
E:\VMshare\e203\zhengdian_E203\sdk\hellow_test\Debug/../application/insn.c:87
		a = a * 2 + a / 0x80000000;
80001470:	00179293          	slli	t0,a5,0x1
80001474:	01f7d393          	srli	t2,a5,0x1f
80001478:	000f2f83          	lw	t6,0(t5)
8000147c:	005387b3          	add	a5,t2,t0
80001480:	00179293          	slli	t0,a5,0x1
80001484:	01f7d393          	srli	t2,a5,0x1f
80001488:	007287b3          	add	a5,t0,t2
8000148c:	01f74fb3          	xor	t6,a4,t6
80001490:	01700293          	li	t0,23
E:\VMshare\e203\zhengdian_E203\sdk\hellow_test\Debug/../application/insn.c:86
	for(i = 0; i < length; i++) {
80001494:	fff28293          	addi	t0,t0,-1
80001498:	01029393          	slli	t2,t0,0x10
E:\VMshare\e203\zhengdian_E203\sdk\hellow_test\Debug/../application/insn.c:87
		a = a * 2 + a / 0x80000000;
8000149c:	01f75713          	srli	a4,a4,0x1f
E:\VMshare\e203\zhengdian_E203\sdk\hellow_test\Debug/../application/insn.c:86
	for(i = 0; i < length; i++) {
800014a0:	0103d293          	srli	t0,t2,0x10
E:\VMshare\e203\zhengdian_E203\sdk\hellow_test\Debug/../application/insn.c:87
		a = a * 2 + a / 0x80000000;
800014a4:	00e50733          	add	a4,a0,a4
E:\VMshare\e203\zhengdian_E203\sdk\hellow_test\Debug/../application/insn.c:86
	for(i = 0; i < length; i++) {
800014a8:	4c029463          	bnez	t0,80001970 <normal_case+0x6b8>
extendSecond():
E:\VMshare\e203\zhengdian_E203\sdk\hellow_test\Debug/../application/insn.c:139
		K[(i+4)%4] = K[i%4] ^ functionT(K[(i+1)%4] ^ K[(i+2)%4] ^ K[(i+3)%4] ^ CK[i], 2);
800014ac:	01f7c533          	xor	a0,a5,t6
800014b0:	00e547b3          	xor	a5,a0,a4
E:\VMshare\e203\zhengdian_E203\sdk\hellow_test\Debug/../application/insn.c:140
		RK[i] = K[(i+4)%4];
800014b4:	00f8a023          	sw	a5,0(a7)
E:\VMshare\e203\zhengdian_E203\sdk\hellow_test\Debug/../application/insn.c:139
		K[(i+4)%4] = K[i%4] ^ functionT(K[(i+1)%4] ^ K[(i+2)%4] ^ K[(i+3)%4] ^ CK[i], 2);
800014b8:	00ff2023          	sw	a5,0(t5)
E:\VMshare\e203\zhengdian_E203\sdk\hellow_test\Debug/../application/insn.c:138
	for(i = 0; i <32; i++) {
800014bc:	00488893          	addi	a7,a7,4
800014c0:	e7ce9ce3          	bne	t4,t3,80001338 <normal_case+0x80>
iterate32():
E:\VMshare\e203\zhengdian_E203\sdk\hellow_test\Debug/../application/insn.c:161
	for(i = 0; i < 32; i++) {
800014c4:	00000513          	li	a0,0
800014c8:	02000e13          	li	t3,32
800014cc:	00000893          	li	a7,0
E:\VMshare\e203\zhengdian_E203\sdk\hellow_test\Debug/../application/insn.c:162
		X[(i+4)%4] = X[i%4] ^ functionT(X[(i+1)%4] ^ X[(i+2)%4] ^ X[(i+3)%4] ^ RK[i], 1);
800014d0:	00350f93          	addi	t6,a0,3
800014d4:	00150e93          	addi	t4,a0,1
800014d8:	00250313          	addi	t1,a0,2
800014dc:	003ff293          	andi	t0,t6,3
800014e0:	00289893          	slli	a7,a7,0x2
800014e4:	00337f13          	andi	t5,t1,3
800014e8:	00229713          	slli	a4,t0,0x2
800014ec:	01158333          	add	t1,a1,a7
800014f0:	003ef893          	andi	a7,t4,3
800014f4:	002f1393          	slli	t2,t5,0x2
800014f8:	00e587b3          	add	a5,a1,a4
800014fc:	00289713          	slli	a4,a7,0x2
80001500:	00758533          	add	a0,a1,t2
80001504:	010e9293          	slli	t0,t4,0x10
80001508:	0007a383          	lw	t2,0(a5)
8000150c:	00e587b3          	add	a5,a1,a4
80001510:	00052f03          	lw	t5,0(a0)
80001514:	00082f83          	lw	t6,0(a6)
80001518:	4102d513          	srai	a0,t0,0x10
8000151c:	0007a283          	lw	t0,0(a5)
80001520:	01f2cfb3          	xor	t6,t0,t6
80001524:	01efcf33          	xor	t5,t6,t5
80001528:	007f43b3          	xor	t2,t5,t2
functionB():
E:\VMshare\e203\zhengdian_E203\sdk\hellow_test\Debug/../application/insn.c:71
	a[0] = b / 0x1000000;
8000152c:	0183de93          	srli	t4,t2,0x18
E:\VMshare\e203\zhengdian_E203\sdk\hellow_test\Debug/../application/insn.c:72
	a[1] = b / 0x10000;
80001530:	0103d793          	srli	a5,t2,0x10
E:\VMshare\e203\zhengdian_E203\sdk\hellow_test\Debug/../application/insn.c:75
	b = Sbox[a[0]] * 0x1000000 + Sbox[a[1]] * 0x10000 + Sbox[a[2]] * 0x100 + Sbox[a[3]];
80001534:	01d68733          	add	a4,a3,t4
80001538:	0ff7f293          	andi	t0,a5,255
E:\VMshare\e203\zhengdian_E203\sdk\hellow_test\Debug/../application/insn.c:73
	a[2] = b / 0x100;
8000153c:	0083de93          	srli	t4,t2,0x8
E:\VMshare\e203\zhengdian_E203\sdk\hellow_test\Debug/../application/insn.c:75
	b = Sbox[a[0]] * 0x1000000 + Sbox[a[1]] * 0x10000 + Sbox[a[2]] * 0x100 + Sbox[a[3]];
80001540:	00074f83          	lbu	t6,0(a4)
80001544:	00568f33          	add	t5,a3,t0
80001548:	000f4283          	lbu	t0,0(t5)
8000154c:	0ffef793          	andi	a5,t4,255
80001550:	00f68f33          	add	t5,a3,a5
80001554:	008f9713          	slli	a4,t6,0x8
80001558:	0ff3f393          	andi	t2,t2,255
8000155c:	000f4f83          	lbu	t6,0(t5)
80001560:	00570eb3          	add	t4,a4,t0
80001564:	007682b3          	add	t0,a3,t2
80001568:	0002c783          	lbu	a5,0(t0)
8000156c:	008e9f13          	slli	t5,t4,0x8
80001570:	01ff0733          	add	a4,t5,t6
80001574:	00871f93          	slli	t6,a4,0x8
80001578:	00ff8733          	add	a4,t6,a5
loopLeft():
E:\VMshare\e203\zhengdian_E203\sdk\hellow_test\Debug/../application/insn.c:87
		a = a * 2 + a / 0x80000000;
8000157c:	00171e93          	slli	t4,a4,0x1
80001580:	01fed393          	srli	t2,t4,0x1f
80001584:	00271293          	slli	t0,a4,0x2
80001588:	00728fb3          	add	t6,t0,t2
8000158c:	001f9f13          	slli	t5,t6,0x1
80001590:	01ffd793          	srli	a5,t6,0x1f
80001594:	01e783b3          	add	t2,a5,t5
80001598:	00139293          	slli	t0,t2,0x1
8000159c:	01f3df13          	srli	t5,t2,0x1f
800015a0:	005f07b3          	add	a5,t5,t0
800015a4:	00179393          	slli	t2,a5,0x1
800015a8:	01f7d293          	srli	t0,a5,0x1f
800015ac:	007287b3          	add	a5,t0,t2
800015b0:	00179f13          	slli	t5,a5,0x1
800015b4:	01f7d393          	srli	t2,a5,0x1f
800015b8:	01e382b3          	add	t0,t2,t5
800015bc:	00129f13          	slli	t5,t0,0x1
800015c0:	01f2d793          	srli	a5,t0,0x1f
800015c4:	01e783b3          	add	t2,a5,t5
800015c8:	00139293          	slli	t0,t2,0x1
800015cc:	01f3df13          	srli	t5,t2,0x1f
800015d0:	005f07b3          	add	a5,t5,t0
800015d4:	00032383          	lw	t2,0(t1)
800015d8:	00179293          	slli	t0,a5,0x1
800015dc:	01f7df13          	srli	t5,a5,0x1f
800015e0:	005f07b3          	add	a5,t5,t0
800015e4:	00179293          	slli	t0,a5,0x1
800015e8:	00774f33          	xor	t5,a4,t2
800015ec:	01f7d793          	srli	a5,a5,0x1f
800015f0:	00f282b3          	add	t0,t0,a5
800015f4:	00070393          	mv	t2,a4
800015f8:	01ff47b3          	xor	a5,t5,t6
800015fc:	01200f13          	li	t5,18
80001600:	00139f93          	slli	t6,t2,0x1
80001604:	01f3d393          	srli	t2,t2,0x1f
80001608:	007f83b3          	add	t2,t6,t2
8000160c:	00139f93          	slli	t6,t2,0x1
80001610:	01f3d393          	srli	t2,t2,0x1f
80001614:	007f8fb3          	add	t6,t6,t2
80001618:	001f9393          	slli	t2,t6,0x1
8000161c:	01ffdf93          	srli	t6,t6,0x1f
80001620:	01f383b3          	add	t2,t2,t6
80001624:	00139f93          	slli	t6,t2,0x1
80001628:	01f3d393          	srli	t2,t2,0x1f
8000162c:	007f8fb3          	add	t6,t6,t2
80001630:	001f9393          	slli	t2,t6,0x1
80001634:	01ffdf93          	srli	t6,t6,0x1f
80001638:	01f383b3          	add	t2,t2,t6
8000163c:	00139f93          	slli	t6,t2,0x1
80001640:	01f3d393          	srli	t2,t2,0x1f
80001644:	007f8fb3          	add	t6,t6,t2
80001648:	001f9393          	slli	t2,t6,0x1
8000164c:	01ffdf93          	srli	t6,t6,0x1f
80001650:	01f383b3          	add	t2,t2,t6
80001654:	00139f93          	slli	t6,t2,0x1
E:\VMshare\e203\zhengdian_E203\sdk\hellow_test\Debug/../application/insn.c:86
	for(i = 0; i < length; i++) {
80001658:	ff7f0f13          	addi	t5,t5,-9
E:\VMshare\e203\zhengdian_E203\sdk\hellow_test\Debug/../application/insn.c:87
		a = a * 2 + a / 0x80000000;
8000165c:	01f3d393          	srli	t2,t2,0x1f
80001660:	007f8fb3          	add	t6,t6,t2
E:\VMshare\e203\zhengdian_E203\sdk\hellow_test\Debug/../application/insn.c:86
	for(i = 0; i < length; i++) {
80001664:	010f1f13          	slli	t5,t5,0x10
E:\VMshare\e203\zhengdian_E203\sdk\hellow_test\Debug/../application/insn.c:87
		a = a * 2 + a / 0x80000000;
80001668:	001f9393          	slli	t2,t6,0x1
E:\VMshare\e203\zhengdian_E203\sdk\hellow_test\Debug/../application/insn.c:86
	for(i = 0; i < length; i++) {
8000166c:	010f5f13          	srli	t5,t5,0x10
E:\VMshare\e203\zhengdian_E203\sdk\hellow_test\Debug/../application/insn.c:87
		a = a * 2 + a / 0x80000000;
80001670:	01ffdf93          	srli	t6,t6,0x1f
80001674:	01f383b3          	add	t2,t2,t6
E:\VMshare\e203\zhengdian_E203\sdk\hellow_test\Debug/../application/insn.c:86
	for(i = 0; i < length; i++) {
80001678:	f80f14e3          	bnez	t5,80001600 <normal_case+0x348>
E:\VMshare\e203\zhengdian_E203\sdk\hellow_test\Debug/../application/insn.c:87
		a = a * 2 + a / 0x80000000;
8000167c:	01f75713          	srli	a4,a4,0x1f
80001680:	00ee8fb3          	add	t6,t4,a4
80001684:	00f2c2b3          	xor	t0,t0,a5
E:\VMshare\e203\zhengdian_E203\sdk\hellow_test\Debug/../application/insn.c:86
	for(i = 0; i < length; i++) {
80001688:	01700713          	li	a4,23
8000168c:	001f9e93          	slli	t4,t6,0x1
80001690:	fff70793          	addi	a5,a4,-1
80001694:	01079f13          	slli	t5,a5,0x10
E:\VMshare\e203\zhengdian_E203\sdk\hellow_test\Debug/../application/insn.c:87
		a = a * 2 + a / 0x80000000;
80001698:	01ffdf93          	srli	t6,t6,0x1f
E:\VMshare\e203\zhengdian_E203\sdk\hellow_test\Debug/../application/insn.c:86
	for(i = 0; i < length; i++) {
8000169c:	010f5793          	srli	a5,t5,0x10
E:\VMshare\e203\zhengdian_E203\sdk\hellow_test\Debug/../application/insn.c:87
		a = a * 2 + a / 0x80000000;
800016a0:	01fe8733          	add	a4,t4,t6
E:\VMshare\e203\zhengdian_E203\sdk\hellow_test\Debug/../application/insn.c:86
	for(i = 0; i < length; i++) {
800016a4:	3e079263          	bnez	a5,80001a88 <normal_case+0x7d0>
iterate32():
E:\VMshare\e203\zhengdian_E203\sdk\hellow_test\Debug/../application/insn.c:162
		X[(i+4)%4] = X[i%4] ^ functionT(X[(i+1)%4] ^ X[(i+2)%4] ^ X[(i+3)%4] ^ RK[i], 1);
800016a8:	0072ceb3          	xor	t4,t0,t2
800016ac:	00eec3b3          	xor	t2,t4,a4
800016b0:	00732023          	sw	t2,0(t1)
E:\VMshare\e203\zhengdian_E203\sdk\hellow_test\Debug/../application/insn.c:161
	for(i = 0; i < 32; i++) {
800016b4:	00480813          	addi	a6,a6,4
800016b8:	e1c51ce3          	bne	a0,t3,800014d0 <normal_case+0x218>
reverse():
E:\VMshare\e203\zhengdian_E203\sdk\hellow_test\Debug/../application/insn.c:174
	 	Y[i] = X[4 - 1 - i];
800016bc:	00c5a503          	lw	a0,12(a1)
800016c0:	0085ae03          	lw	t3,8(a1)
800016c4:	0045a303          	lw	t1,4(a1)
800016c8:	0005a583          	lw	a1,0(a1)
800016cc:	0a010813          	addi	a6,sp,160
800016d0:	00080793          	mv	a5,a6
800016d4:	00a12823          	sw	a0,16(sp)
800016d8:	01c12a23          	sw	t3,20(sp)
800016dc:	00612c23          	sw	t1,24(sp)
800016e0:	00b12e23          	sw	a1,28(sp)
800016e4:	09c10713          	addi	a4,sp,156
800016e8:	12010393          	addi	t2,sp,288
decryptSM4():
E:\VMshare\e203\zhengdian_E203\sdk\hellow_test\Debug/../application/insn.c:197
		reverseRK[i] = RK[32-1-i];
800016ec:	00072283          	lw	t0,0(a4)
800016f0:	ffc72f83          	lw	t6,-4(a4)
800016f4:	ff872f03          	lw	t5,-8(a4)
800016f8:	ff472e83          	lw	t4,-12(a4)
800016fc:	ff072e03          	lw	t3,-16(a4)
80001700:	fec72303          	lw	t1,-20(a4)
80001704:	fe872883          	lw	a7,-24(a4)
80001708:	fe472583          	lw	a1,-28(a4)
8000170c:	0057a023          	sw	t0,0(a5)
80001710:	01f7a223          	sw	t6,4(a5)
80001714:	01e7a423          	sw	t5,8(a5)
80001718:	01d7a623          	sw	t4,12(a5)
8000171c:	01c7a823          	sw	t3,16(a5)
80001720:	0067aa23          	sw	t1,20(a5)
80001724:	0117ac23          	sw	a7,24(a5)
80001728:	00b7ae23          	sw	a1,28(a5)
E:\VMshare\e203\zhengdian_E203\sdk\hellow_test\Debug/../application/insn.c:196
	for(i = 0; i < 32; i++) {
8000172c:	02078793          	addi	a5,a5,32
80001730:	fe070713          	addi	a4,a4,-32
80001734:	fa779ce3          	bne	a5,t2,800016ec <normal_case+0x434>
iterate32():
E:\VMshare\e203\zhengdian_E203\sdk\hellow_test\Debug/../application/insn.c:161
	for(i = 0; i < 32; i++) {
80001738:	00000313          	li	t1,0
8000173c:	02000393          	li	t2,32
80001740:	00130e13          	addi	t3,t1,1
E:\VMshare\e203\zhengdian_E203\sdk\hellow_test\Debug/../application/insn.c:162
		X[(i+4)%4] = X[i%4] ^ functionT(X[(i+1)%4] ^ X[(i+2)%4] ^ X[(i+3)%4] ^ RK[i], 1);
80001744:	003e7293          	andi	t0,t3,3
80001748:	00230f93          	addi	t6,t1,2
8000174c:	00229f13          	slli	t5,t0,0x2
80001750:	003ffe93          	andi	t4,t6,3
80001754:	00330893          	addi	a7,t1,3
80001758:	01010593          	addi	a1,sp,16
8000175c:	002e9293          	slli	t0,t4,0x2
80001760:	0038f713          	andi	a4,a7,3
80001764:	01e585b3          	add	a1,a1,t5
80001768:	12010793          	addi	a5,sp,288
8000176c:	00578fb3          	add	t6,a5,t0
80001770:	00082f03          	lw	t5,0(a6)
80001774:	00271293          	slli	t0,a4,0x2
80001778:	0005a883          	lw	a7,0(a1)
8000177c:	12010713          	addi	a4,sp,288
80001780:	005707b3          	add	a5,a4,t0
80001784:	ef0fae83          	lw	t4,-272(t6)
80001788:	ef07af83          	lw	t6,-272(a5)
8000178c:	01e8c8b3          	xor	a7,a7,t5
80001790:	01d8cf33          	xor	t5,a7,t4
80001794:	01ff42b3          	xor	t0,t5,t6
functionB():
E:\VMshare\e203\zhengdian_E203\sdk\hellow_test\Debug/../application/insn.c:71
	a[0] = b / 0x1000000;
80001798:	0182de93          	srli	t4,t0,0x18
E:\VMshare\e203\zhengdian_E203\sdk\hellow_test\Debug/../application/insn.c:72
	a[1] = b / 0x10000;
8000179c:	0102d793          	srli	a5,t0,0x10
E:\VMshare\e203\zhengdian_E203\sdk\hellow_test\Debug/../application/insn.c:75
	b = Sbox[a[0]] * 0x1000000 + Sbox[a[1]] * 0x10000 + Sbox[a[2]] * 0x100 + Sbox[a[3]];
800017a0:	01d68733          	add	a4,a3,t4
800017a4:	0ff7ff93          	andi	t6,a5,255
E:\VMshare\e203\zhengdian_E203\sdk\hellow_test\Debug/../application/insn.c:73
	a[2] = b / 0x100;
800017a8:	0082de93          	srli	t4,t0,0x8
E:\VMshare\e203\zhengdian_E203\sdk\hellow_test\Debug/../application/insn.c:75
	b = Sbox[a[0]] * 0x1000000 + Sbox[a[1]] * 0x10000 + Sbox[a[2]] * 0x100 + Sbox[a[3]];
800017ac:	00074883          	lbu	a7,0(a4)
800017b0:	01f68f33          	add	t5,a3,t6
800017b4:	000f4f83          	lbu	t6,0(t5)
800017b8:	0ffef793          	andi	a5,t4,255
800017bc:	00f68f33          	add	t5,a3,a5
800017c0:	00889713          	slli	a4,a7,0x8
800017c4:	0ff2f293          	andi	t0,t0,255
800017c8:	000f4883          	lbu	a7,0(t5)
800017cc:	01f70eb3          	add	t4,a4,t6
800017d0:	00568fb3          	add	t6,a3,t0
800017d4:	000fc783          	lbu	a5,0(t6)
800017d8:	008e9f13          	slli	t5,t4,0x8
800017dc:	011f0733          	add	a4,t5,a7
800017e0:	00871893          	slli	a7,a4,0x8
800017e4:	00f88733          	add	a4,a7,a5
loopLeft():
E:\VMshare\e203\zhengdian_E203\sdk\hellow_test\Debug/../application/insn.c:87
		a = a * 2 + a / 0x80000000;
800017e8:	00171f13          	slli	t5,a4,0x1
800017ec:	01ff5293          	srli	t0,t5,0x1f
800017f0:	00271e93          	slli	t4,a4,0x2
800017f4:	005e8fb3          	add	t6,t4,t0
800017f8:	01ffd793          	srli	a5,t6,0x1f
800017fc:	001f9893          	slli	a7,t6,0x1
80001800:	011788b3          	add	a7,a5,a7
80001804:	00189293          	slli	t0,a7,0x1
iterate32():
E:\VMshare\e203\zhengdian_E203\sdk\hellow_test\Debug/../application/insn.c:162
		X[(i+4)%4] = X[i%4] ^ functionT(X[(i+1)%4] ^ X[(i+2)%4] ^ X[(i+3)%4] ^ RK[i], 1);
80001808:	00337313          	andi	t1,t1,3
loopLeft():
E:\VMshare\e203\zhengdian_E203\sdk\hellow_test\Debug/../application/insn.c:87
		a = a * 2 + a / 0x80000000;
8000180c:	01f8d893          	srli	a7,a7,0x1f
80001810:	005882b3          	add	t0,a7,t0
iterate32():
E:\VMshare\e203\zhengdian_E203\sdk\hellow_test\Debug/../application/insn.c:162
		X[(i+4)%4] = X[i%4] ^ functionT(X[(i+1)%4] ^ X[(i+2)%4] ^ X[(i+3)%4] ^ RK[i], 1);
80001814:	00231e93          	slli	t4,t1,0x2
80001818:	01010793          	addi	a5,sp,16
8000181c:	010e1e13          	slli	t3,t3,0x10
80001820:	01d78eb3          	add	t4,a5,t4
80001824:	410e5313          	srai	t1,t3,0x10
loopLeft():
E:\VMshare\e203\zhengdian_E203\sdk\hellow_test\Debug/../application/insn.c:87
		a = a * 2 + a / 0x80000000;
80001828:	01f2d793          	srli	a5,t0,0x1f
8000182c:	00129e13          	slli	t3,t0,0x1
80001830:	01c788b3          	add	a7,a5,t3
80001834:	00189293          	slli	t0,a7,0x1
80001838:	01f8de13          	srli	t3,a7,0x1f
8000183c:	005e07b3          	add	a5,t3,t0
80001840:	00179893          	slli	a7,a5,0x1
80001844:	01f7d293          	srli	t0,a5,0x1f
80001848:	011287b3          	add	a5,t0,a7
8000184c:	00179e13          	slli	t3,a5,0x1
80001850:	01f7d893          	srli	a7,a5,0x1f
80001854:	01c882b3          	add	t0,a7,t3
80001858:	00129e13          	slli	t3,t0,0x1
8000185c:	01f2d793          	srli	a5,t0,0x1f
80001860:	01c788b3          	add	a7,a5,t3
80001864:	00189e13          	slli	t3,a7,0x1
80001868:	01f8d793          	srli	a5,a7,0x1f
8000186c:	00a74533          	xor	a0,a4,a0
80001870:	00fe08b3          	add	a7,t3,a5
80001874:	00070293          	mv	t0,a4
80001878:	00afc7b3          	xor	a5,t6,a0
8000187c:	01200e13          	li	t3,18
80001880:	00129f93          	slli	t6,t0,0x1
80001884:	01f2d293          	srli	t0,t0,0x1f
80001888:	005f8533          	add	a0,t6,t0
8000188c:	00151f93          	slli	t6,a0,0x1
80001890:	01f55293          	srli	t0,a0,0x1f
80001894:	005f8533          	add	a0,t6,t0
80001898:	00151293          	slli	t0,a0,0x1
8000189c:	01f55f93          	srli	t6,a0,0x1f
800018a0:	01f28533          	add	a0,t0,t6
800018a4:	00151f93          	slli	t6,a0,0x1
800018a8:	01f55293          	srli	t0,a0,0x1f
800018ac:	005f8533          	add	a0,t6,t0
800018b0:	00151293          	slli	t0,a0,0x1
800018b4:	01f55f93          	srli	t6,a0,0x1f
800018b8:	01f28533          	add	a0,t0,t6
800018bc:	00151f93          	slli	t6,a0,0x1
800018c0:	01f55293          	srli	t0,a0,0x1f
800018c4:	005f8533          	add	a0,t6,t0
800018c8:	00151293          	slli	t0,a0,0x1
800018cc:	01f55f93          	srli	t6,a0,0x1f
800018d0:	01f28533          	add	a0,t0,t6
800018d4:	00151f93          	slli	t6,a0,0x1
800018d8:	01f55293          	srli	t0,a0,0x1f
800018dc:	005f8533          	add	a0,t6,t0
E:\VMshare\e203\zhengdian_E203\sdk\hellow_test\Debug/../application/insn.c:86
	for(i = 0; i < length; i++) {
800018e0:	ff7e0e13          	addi	t3,t3,-9
E:\VMshare\e203\zhengdian_E203\sdk\hellow_test\Debug/../application/insn.c:87
		a = a * 2 + a / 0x80000000;
800018e4:	00151293          	slli	t0,a0,0x1
800018e8:	01f55f93          	srli	t6,a0,0x1f
E:\VMshare\e203\zhengdian_E203\sdk\hellow_test\Debug/../application/insn.c:86
	for(i = 0; i < length; i++) {
800018ec:	010e1513          	slli	a0,t3,0x10
800018f0:	01055e13          	srli	t3,a0,0x10
E:\VMshare\e203\zhengdian_E203\sdk\hellow_test\Debug/../application/insn.c:87
		a = a * 2 + a / 0x80000000;
800018f4:	01f282b3          	add	t0,t0,t6
E:\VMshare\e203\zhengdian_E203\sdk\hellow_test\Debug/../application/insn.c:86
	for(i = 0; i < length; i++) {
800018f8:	f80e14e3          	bnez	t3,80001880 <normal_case+0x5c8>
E:\VMshare\e203\zhengdian_E203\sdk\hellow_test\Debug/../application/insn.c:87
		a = a * 2 + a / 0x80000000;
800018fc:	01f75713          	srli	a4,a4,0x1f
80001900:	00ef0fb3          	add	t6,t5,a4
80001904:	001f9713          	slli	a4,t6,0x1
80001908:	00f8cf33          	xor	t5,a7,a5
E:\VMshare\e203\zhengdian_E203\sdk\hellow_test\Debug/../application/insn.c:86
	for(i = 0; i < length; i++) {
8000190c:	01700793          	li	a5,23
80001910:	fff78893          	addi	a7,a5,-1
E:\VMshare\e203\zhengdian_E203\sdk\hellow_test\Debug/../application/insn.c:87
		a = a * 2 + a / 0x80000000;
80001914:	01ffd793          	srli	a5,t6,0x1f
E:\VMshare\e203\zhengdian_E203\sdk\hellow_test\Debug/../application/insn.c:86
	for(i = 0; i < length; i++) {
80001918:	01089f93          	slli	t6,a7,0x10
8000191c:	010fd513          	srli	a0,t6,0x10
E:\VMshare\e203\zhengdian_E203\sdk\hellow_test\Debug/../application/insn.c:87
		a = a * 2 + a / 0x80000000;
80001920:	00f70733          	add	a4,a4,a5
E:\VMshare\e203\zhengdian_E203\sdk\hellow_test\Debug/../application/insn.c:86
	for(i = 0; i < length; i++) {
80001924:	0c051c63          	bnez	a0,800019fc <normal_case+0x744>
iterate32():
E:\VMshare\e203\zhengdian_E203\sdk\hellow_test\Debug/../application/insn.c:162
		X[(i+4)%4] = X[i%4] ^ functionT(X[(i+1)%4] ^ X[(i+2)%4] ^ X[(i+3)%4] ^ RK[i], 1);
80001928:	01e2ce33          	xor	t3,t0,t5
8000192c:	00ee42b3          	xor	t0,t3,a4
80001930:	005ea023          	sw	t0,0(t4)
E:\VMshare\e203\zhengdian_E203\sdk\hellow_test\Debug/../application/insn.c:161
	for(i = 0; i < 32; i++) {
80001934:	00480813          	addi	a6,a6,4
80001938:	00730663          	beq	t1,t2,80001944 <normal_case+0x68c>
E:\VMshare\e203\zhengdian_E203\sdk\hellow_test\Debug/../application/insn.c:162
		X[(i+4)%4] = X[i%4] ^ functionT(X[(i+1)%4] ^ X[(i+2)%4] ^ X[(i+3)%4] ^ RK[i], 1);
8000193c:	0005a503          	lw	a0,0(a1)
80001940:	e01ff06f          	j	80001740 <normal_case+0x488>
reverse():
E:\VMshare\e203\zhengdian_E203\sdk\hellow_test\Debug/../application/insn.c:174
	 	Y[i] = X[4 - 1 - i];
80001944:	01c12683          	lw	a3,28(sp)
80001948:	01812383          	lw	t2,24(sp)
8000194c:	01412583          	lw	a1,20(sp)
80001950:	01012e83          	lw	t4,16(sp)
80001954:	00d62023          	sw	a3,0(a2)
80001958:	00762223          	sw	t2,4(a2)
8000195c:	00b62423          	sw	a1,8(a2)
80001960:	01d62623          	sw	t4,12(a2)
normal_case():
E:\VMshare\e203\zhengdian_E203\sdk\hellow_test\Debug/../application/insn.c:220
		//printf("************** software compute *****************\n");
		decryptSM4(Y, RK, res);
		//printf("%X %X %X %X\n", res[0], res[1], res[2], res[3]);

  return 0;
}
80001964:	00000513          	li	a0,0
80001968:	12010113          	addi	sp,sp,288
8000196c:	00008067          	ret
loopLeft():
E:\VMshare\e203\zhengdian_E203\sdk\hellow_test\Debug/../application/insn.c:87
		a = a * 2 + a / 0x80000000;
80001970:	01f75513          	srli	a0,a4,0x1f
80001974:	00171393          	slli	t2,a4,0x1
80001978:	00a383b3          	add	t2,t2,a0
8000197c:	00139713          	slli	a4,t2,0x1
80001980:	01f3d513          	srli	a0,t2,0x1f
80001984:	00a703b3          	add	t2,a4,a0
80001988:	00139513          	slli	a0,t2,0x1
8000198c:	01f3d713          	srli	a4,t2,0x1f
80001990:	00e503b3          	add	t2,a0,a4
80001994:	00139713          	slli	a4,t2,0x1
80001998:	01f3d513          	srli	a0,t2,0x1f
8000199c:	00a703b3          	add	t2,a4,a0
800019a0:	00139513          	slli	a0,t2,0x1
800019a4:	01f3d713          	srli	a4,t2,0x1f
800019a8:	00e503b3          	add	t2,a0,a4
800019ac:	00139713          	slli	a4,t2,0x1
800019b0:	01f3d513          	srli	a0,t2,0x1f
800019b4:	00a703b3          	add	t2,a4,a0
800019b8:	00139513          	slli	a0,t2,0x1
800019bc:	01f3d713          	srli	a4,t2,0x1f
800019c0:	00e503b3          	add	t2,a0,a4
800019c4:	00139713          	slli	a4,t2,0x1
800019c8:	01f3d513          	srli	a0,t2,0x1f
800019cc:	00a703b3          	add	t2,a4,a0
800019d0:	00139513          	slli	a0,t2,0x1
800019d4:	01f3d713          	srli	a4,t2,0x1f
800019d8:	00e503b3          	add	t2,a0,a4
800019dc:	01f3d513          	srli	a0,t2,0x1f
800019e0:	00139713          	slli	a4,t2,0x1
E:\VMshare\e203\zhengdian_E203\sdk\hellow_test\Debug/../application/insn.c:86
	for(i = 0; i < length; i++) {
800019e4:	ff628293          	addi	t0,t0,-10
E:\VMshare\e203\zhengdian_E203\sdk\hellow_test\Debug/../application/insn.c:87
		a = a * 2 + a / 0x80000000;
800019e8:	00a70733          	add	a4,a4,a0
E:\VMshare\e203\zhengdian_E203\sdk\hellow_test\Debug/../application/insn.c:86
	for(i = 0; i < length; i++) {
800019ec:	01029393          	slli	t2,t0,0x10
800019f0:	0103d293          	srli	t0,t2,0x10
800019f4:	00171513          	slli	a0,a4,0x1
800019f8:	a9dff06f          	j	80001494 <normal_case+0x1dc>
800019fc:	00171893          	slli	a7,a4,0x1
E:\VMshare\e203\zhengdian_E203\sdk\hellow_test\Debug/../application/insn.c:87
		a = a * 2 + a / 0x80000000;
80001a00:	01f75793          	srli	a5,a4,0x1f
80001a04:	00f88fb3          	add	t6,a7,a5
80001a08:	001f9713          	slli	a4,t6,0x1
80001a0c:	01ffde13          	srli	t3,t6,0x1f
80001a10:	01c708b3          	add	a7,a4,t3
80001a14:	00189793          	slli	a5,a7,0x1
80001a18:	01f8df93          	srli	t6,a7,0x1f
80001a1c:	01f78e33          	add	t3,a5,t6
80001a20:	001e1713          	slli	a4,t3,0x1
80001a24:	01fe5893          	srli	a7,t3,0x1f
80001a28:	011707b3          	add	a5,a4,a7
80001a2c:	00179f93          	slli	t6,a5,0x1
80001a30:	01f7de13          	srli	t3,a5,0x1f
80001a34:	01cf88b3          	add	a7,t6,t3
80001a38:	00189713          	slli	a4,a7,0x1
80001a3c:	01f8d793          	srli	a5,a7,0x1f
80001a40:	00f70fb3          	add	t6,a4,a5
80001a44:	001f9e13          	slli	t3,t6,0x1
80001a48:	01ffd893          	srli	a7,t6,0x1f
80001a4c:	011e07b3          	add	a5,t3,a7
80001a50:	00179713          	slli	a4,a5,0x1
80001a54:	01f7df93          	srli	t6,a5,0x1f
80001a58:	01f708b3          	add	a7,a4,t6
80001a5c:	00189e13          	slli	t3,a7,0x1
80001a60:	01f8d793          	srli	a5,a7,0x1f
80001a64:	00fe0fb3          	add	t6,t3,a5
80001a68:	001f9713          	slli	a4,t6,0x1
80001a6c:	01ffd893          	srli	a7,t6,0x1f
E:\VMshare\e203\zhengdian_E203\sdk\hellow_test\Debug/../application/insn.c:86
	for(i = 0; i < length; i++) {
80001a70:	ff650513          	addi	a0,a0,-10
E:\VMshare\e203\zhengdian_E203\sdk\hellow_test\Debug/../application/insn.c:87
		a = a * 2 + a / 0x80000000;
80001a74:	01170fb3          	add	t6,a4,a7
E:\VMshare\e203\zhengdian_E203\sdk\hellow_test\Debug/../application/insn.c:86
	for(i = 0; i < length; i++) {
80001a78:	01051e13          	slli	t3,a0,0x10
80001a7c:	010e5793          	srli	a5,t3,0x10
80001a80:	001f9713          	slli	a4,t6,0x1
80001a84:	e8dff06f          	j	80001910 <normal_case+0x658>
80001a88:	00171f13          	slli	t5,a4,0x1
E:\VMshare\e203\zhengdian_E203\sdk\hellow_test\Debug/../application/insn.c:87
		a = a * 2 + a / 0x80000000;
80001a8c:	01f75e93          	srli	t4,a4,0x1f
80001a90:	01df0fb3          	add	t6,t5,t4
80001a94:	001f9713          	slli	a4,t6,0x1
80001a98:	01ffdf13          	srli	t5,t6,0x1f
80001a9c:	01e70fb3          	add	t6,a4,t5
80001aa0:	001f9e93          	slli	t4,t6,0x1
80001aa4:	01ffd713          	srli	a4,t6,0x1f
80001aa8:	00ee8f33          	add	t5,t4,a4
80001aac:	001f1f93          	slli	t6,t5,0x1
80001ab0:	01ff5e93          	srli	t4,t5,0x1f
80001ab4:	01df8733          	add	a4,t6,t4
80001ab8:	00171f13          	slli	t5,a4,0x1
80001abc:	01f75f93          	srli	t6,a4,0x1f
80001ac0:	01ff0eb3          	add	t4,t5,t6
80001ac4:	001e9713          	slli	a4,t4,0x1
80001ac8:	01fedf13          	srli	t5,t4,0x1f
80001acc:	01e70fb3          	add	t6,a4,t5
80001ad0:	001f9e93          	slli	t4,t6,0x1
80001ad4:	01ffd713          	srli	a4,t6,0x1f
80001ad8:	00ee8f33          	add	t5,t4,a4
80001adc:	001f1f93          	slli	t6,t5,0x1
80001ae0:	01ff5e93          	srli	t4,t5,0x1f
80001ae4:	01df8733          	add	a4,t6,t4
80001ae8:	00171f13          	slli	t5,a4,0x1
80001aec:	01f75f93          	srli	t6,a4,0x1f
80001af0:	01ff0eb3          	add	t4,t5,t6
80001af4:	001e9713          	slli	a4,t4,0x1
80001af8:	01fedf13          	srli	t5,t4,0x1f
E:\VMshare\e203\zhengdian_E203\sdk\hellow_test\Debug/../application/insn.c:86
	for(i = 0; i < length; i++) {
80001afc:	ff678793          	addi	a5,a5,-10
E:\VMshare\e203\zhengdian_E203\sdk\hellow_test\Debug/../application/insn.c:87
		a = a * 2 + a / 0x80000000;
80001b00:	01e70fb3          	add	t6,a4,t5
E:\VMshare\e203\zhengdian_E203\sdk\hellow_test\Debug/../application/insn.c:86
	for(i = 0; i < length; i++) {
80001b04:	01079e93          	slli	t4,a5,0x10
80001b08:	010ed713          	srli	a4,t4,0x10
80001b0c:	001f9e93          	slli	t4,t6,0x1
80001b10:	b81ff06f          	j	80001690 <normal_case+0x3d8>

80001b14 <nice_case>:
nice_case():
E:\VMshare\e203\zhengdian_E203\sdk\hellow_test\Debug/../application/insn.c:228
// test case using NICE accelerator.
//01234567 89abcdef fedcba98 76543210
//00000001001000110100010101100111 10001001101010111100110111101111
//11111110110111001011101010011000 01110110010101000011001000010000
int nice_case(unsigned int key_buf[], unsigned int data_buf[] , unsigned int res[])
{
80001b14:	fe010113          	addi	sp,sp,-32
E:\VMshare\e203\zhengdian_E203\sdk\hellow_test\Debug/../application/insn.c:230
  volatile unsigned char i, j;
  volatile unsigned int enc_data[4]={0};
80001b18:	00012023          	sw	zero,0(sp)
80001b1c:	00012223          	sw	zero,4(sp)
80001b20:	00012423          	sw	zero,8(sp)
80001b24:	00012623          	sw	zero,12(sp)
E:\VMshare\e203\zhengdian_E203\sdk\hellow_test\Debug/../application/insn.c:233
  //volatile unsigned int row_sum[ROW_LEN]={0};

  volatile unsigned int init_buf3[4]={0};
80001b28:	00012823          	sw	zero,16(sp)
80001b2c:	00012a23          	sw	zero,20(sp)
80001b30:	00012c23          	sw	zero,24(sp)
80001b34:	00012e23          	sw	zero,28(sp)
custom_lkey():
E:\VMshare\e203\zhengdian_E203\sdk\hellow_test\Debug/../application/insn.h:46
// custom lbuf 
__STATIC_FORCEINLINE void custom_lkey(int addr)
{
    int zero = 0;
    
    asm volatile (
80001b38:	0205207b          	0x205207b
custom_ldata():
E:\VMshare\e203\zhengdian_E203\sdk\hellow_test\Debug/../application/insn.h:58
// custom sbuf 
__STATIC_FORCEINLINE void custom_ldata(int addr)
{
    int zero = 0;
    
    asm volatile (
80001b3c:	0405a07b          	0x405a07b
decrypt():
E:\VMshare\e203\zhengdian_E203\sdk\hellow_test\Debug/../application/insn.h:105
}

__STATIC_FORCEINLINE void decrypt()
{
	//int zero = 0;
    asm volatile (
80001b40:	0e00607b          	0xe00607b
custom_sm4_res():
E:\VMshare\e203\zhengdian_E203\sdk\hellow_test\Debug/../application/insn.h:84
	    asm volatile (
80001b44:	0806207b          	0x806207b
nice_case():
E:\VMshare\e203\zhengdian_E203\sdk\hellow_test\Debug/../application/insn.c:248
  decrypt();
  custom_sm4_res((int)res);
  //printf("%X %X %X %X", init_buf3[0], init_buf3[1], init_buf3[2], init_buf3[3]); printf("\n");

  return 0;
}
80001b48:	00000513          	li	a0,0
80001b4c:	02010113          	addi	sp,sp,32
80001b50:	00008067          	ret

80001b54 <__udivdi3>:
__udivdi3():
/home/hqfang/workspace/software/riscv-gnu-toolchain/riscv-gcc/libgcc/libgcc2.c:1319
80001b54:	00050893          	mv	a7,a0
80001b58:	00058793          	mv	a5,a1
__udivmoddi4():
/home/hqfang/workspace/software/riscv-gnu-toolchain/riscv-gcc/libgcc/libgcc2.c:1024
80001b5c:	00060813          	mv	a6,a2
/home/hqfang/workspace/software/riscv-gnu-toolchain/riscv-gcc/libgcc/libgcc2.c:1025
80001b60:	00068513          	mv	a0,a3
/home/hqfang/workspace/software/riscv-gnu-toolchain/riscv-gcc/libgcc/libgcc2.c:1026
80001b64:	00088313          	mv	t1,a7
/home/hqfang/workspace/software/riscv-gnu-toolchain/riscv-gcc/libgcc/libgcc2.c:1064
80001b68:	28069463          	bnez	a3,80001df0 <__udivdi3+0x29c>
/home/hqfang/workspace/software/riscv-gnu-toolchain/riscv-gcc/libgcc/libgcc2.c:1066
80001b6c:	00002697          	auipc	a3,0x2
80001b70:	6e068693          	addi	a3,a3,1760 # 8000424c <__clz_tab>
80001b74:	0ec5f663          	bgeu	a1,a2,80001c60 <__udivdi3+0x10c>
/home/hqfang/workspace/software/riscv-gnu-toolchain/riscv-gcc/libgcc/libgcc2.c:1070
80001b78:	00010737          	lui	a4,0x10
80001b7c:	0ce67863          	bgeu	a2,a4,80001c4c <__udivdi3+0xf8>
80001b80:	0ff00713          	li	a4,255
80001b84:	00c73733          	sltu	a4,a4,a2
80001b88:	00371713          	slli	a4,a4,0x3
80001b8c:	00e65533          	srl	a0,a2,a4
80001b90:	00a686b3          	add	a3,a3,a0
80001b94:	0006c683          	lbu	a3,0(a3)
80001b98:	02000513          	li	a0,32
80001b9c:	00e68733          	add	a4,a3,a4
80001ba0:	40e506b3          	sub	a3,a0,a4
/home/hqfang/workspace/software/riscv-gnu-toolchain/riscv-gcc/libgcc/libgcc2.c:1072
80001ba4:	00e50c63          	beq	a0,a4,80001bbc <__udivdi3+0x68>
/home/hqfang/workspace/software/riscv-gnu-toolchain/riscv-gcc/libgcc/libgcc2.c:1078
80001ba8:	00d795b3          	sll	a1,a5,a3
80001bac:	00e8d733          	srl	a4,a7,a4
/home/hqfang/workspace/software/riscv-gnu-toolchain/riscv-gcc/libgcc/libgcc2.c:1077
80001bb0:	00d61833          	sll	a6,a2,a3
/home/hqfang/workspace/software/riscv-gnu-toolchain/riscv-gcc/libgcc/libgcc2.c:1078
80001bb4:	00b765b3          	or	a1,a4,a1
/home/hqfang/workspace/software/riscv-gnu-toolchain/riscv-gcc/libgcc/libgcc2.c:1079
80001bb8:	00d89333          	sll	t1,a7,a3
/home/hqfang/workspace/software/riscv-gnu-toolchain/riscv-gcc/libgcc/libgcc2.c:1082
80001bbc:	01085893          	srli	a7,a6,0x10
80001bc0:	0315d6b3          	divu	a3,a1,a7
80001bc4:	01081613          	slli	a2,a6,0x10
80001bc8:	01065613          	srli	a2,a2,0x10
80001bcc:	01035793          	srli	a5,t1,0x10
80001bd0:	0315f733          	remu	a4,a1,a7
80001bd4:	00068513          	mv	a0,a3
80001bd8:	02d605b3          	mul	a1,a2,a3
80001bdc:	01071713          	slli	a4,a4,0x10
80001be0:	00f767b3          	or	a5,a4,a5
80001be4:	00b7fe63          	bgeu	a5,a1,80001c00 <__udivdi3+0xac>
80001be8:	010787b3          	add	a5,a5,a6
80001bec:	fff68513          	addi	a0,a3,-1
80001bf0:	0107e863          	bltu	a5,a6,80001c00 <__udivdi3+0xac>
80001bf4:	00b7f663          	bgeu	a5,a1,80001c00 <__udivdi3+0xac>
80001bf8:	ffe68513          	addi	a0,a3,-2
80001bfc:	010787b3          	add	a5,a5,a6
80001c00:	40b787b3          	sub	a5,a5,a1
80001c04:	0317f733          	remu	a4,a5,a7
80001c08:	01031313          	slli	t1,t1,0x10
80001c0c:	01035313          	srli	t1,t1,0x10
80001c10:	0317d7b3          	divu	a5,a5,a7
80001c14:	01071713          	slli	a4,a4,0x10
80001c18:	00676333          	or	t1,a4,t1
80001c1c:	02f606b3          	mul	a3,a2,a5
80001c20:	00078613          	mv	a2,a5
80001c24:	00d37c63          	bgeu	t1,a3,80001c3c <__udivdi3+0xe8>
80001c28:	00680333          	add	t1,a6,t1
80001c2c:	fff78613          	addi	a2,a5,-1
80001c30:	01036663          	bltu	t1,a6,80001c3c <__udivdi3+0xe8>
80001c34:	00d37463          	bgeu	t1,a3,80001c3c <__udivdi3+0xe8>
80001c38:	ffe78613          	addi	a2,a5,-2
80001c3c:	01051513          	slli	a0,a0,0x10
80001c40:	00c56533          	or	a0,a0,a2
/home/hqfang/workspace/software/riscv-gnu-toolchain/riscv-gcc/libgcc/libgcc2.c:1209
80001c44:	00000593          	li	a1,0
80001c48:	0e40006f          	j	80001d2c <__udivdi3+0x1d8>
/home/hqfang/workspace/software/riscv-gnu-toolchain/riscv-gcc/libgcc/libgcc2.c:1070
80001c4c:	01000537          	lui	a0,0x1000
80001c50:	01000713          	li	a4,16
80001c54:	f2a66ce3          	bltu	a2,a0,80001b8c <__udivdi3+0x38>
80001c58:	01800713          	li	a4,24
80001c5c:	f31ff06f          	j	80001b8c <__udivdi3+0x38>
/home/hqfang/workspace/software/riscv-gnu-toolchain/riscv-gcc/libgcc/libgcc2.c:1091
80001c60:	00061663          	bnez	a2,80001c6c <__udivdi3+0x118>
/home/hqfang/workspace/software/riscv-gnu-toolchain/riscv-gcc/libgcc/libgcc2.c:1092
80001c64:	00100713          	li	a4,1
80001c68:	02c75833          	divu	a6,a4,a2
/home/hqfang/workspace/software/riscv-gnu-toolchain/riscv-gcc/libgcc/libgcc2.c:1094
80001c6c:	00010737          	lui	a4,0x10
80001c70:	0ce87063          	bgeu	a6,a4,80001d30 <__udivdi3+0x1dc>
80001c74:	0ff00713          	li	a4,255
80001c78:	01077463          	bgeu	a4,a6,80001c80 <__udivdi3+0x12c>
80001c7c:	00800513          	li	a0,8
80001c80:	00a85733          	srl	a4,a6,a0
80001c84:	00e686b3          	add	a3,a3,a4
80001c88:	0006c703          	lbu	a4,0(a3)
80001c8c:	02000613          	li	a2,32
80001c90:	00a70733          	add	a4,a4,a0
80001c94:	40e606b3          	sub	a3,a2,a4
/home/hqfang/workspace/software/riscv-gnu-toolchain/riscv-gcc/libgcc/libgcc2.c:1096
80001c98:	0ae61663          	bne	a2,a4,80001d44 <__udivdi3+0x1f0>
/home/hqfang/workspace/software/riscv-gnu-toolchain/riscv-gcc/libgcc/libgcc2.c:1105
80001c9c:	410787b3          	sub	a5,a5,a6
/home/hqfang/workspace/software/riscv-gnu-toolchain/riscv-gcc/libgcc/libgcc2.c:1106
80001ca0:	00100593          	li	a1,1
/home/hqfang/workspace/software/riscv-gnu-toolchain/riscv-gcc/libgcc/libgcc2.c:1124
80001ca4:	01085893          	srli	a7,a6,0x10
80001ca8:	01081613          	slli	a2,a6,0x10
80001cac:	01065613          	srli	a2,a2,0x10
80001cb0:	01035713          	srli	a4,t1,0x10
80001cb4:	0317f6b3          	remu	a3,a5,a7
80001cb8:	0317d7b3          	divu	a5,a5,a7
80001cbc:	01069693          	slli	a3,a3,0x10
80001cc0:	00e6e733          	or	a4,a3,a4
80001cc4:	02f60e33          	mul	t3,a2,a5
80001cc8:	00078513          	mv	a0,a5
80001ccc:	01c77e63          	bgeu	a4,t3,80001ce8 <__udivdi3+0x194>
80001cd0:	01070733          	add	a4,a4,a6
80001cd4:	fff78513          	addi	a0,a5,-1
80001cd8:	01076863          	bltu	a4,a6,80001ce8 <__udivdi3+0x194>
80001cdc:	01c77663          	bgeu	a4,t3,80001ce8 <__udivdi3+0x194>
80001ce0:	ffe78513          	addi	a0,a5,-2
80001ce4:	01070733          	add	a4,a4,a6
80001ce8:	41c70733          	sub	a4,a4,t3
80001cec:	031777b3          	remu	a5,a4,a7
80001cf0:	01031313          	slli	t1,t1,0x10
80001cf4:	01035313          	srli	t1,t1,0x10
80001cf8:	03175733          	divu	a4,a4,a7
80001cfc:	01079793          	slli	a5,a5,0x10
80001d00:	0067e333          	or	t1,a5,t1
80001d04:	02e606b3          	mul	a3,a2,a4
80001d08:	00070613          	mv	a2,a4
80001d0c:	00d37c63          	bgeu	t1,a3,80001d24 <__udivdi3+0x1d0>
80001d10:	00680333          	add	t1,a6,t1
80001d14:	fff70613          	addi	a2,a4,-1 # ffff <__stack_size+0xf7ff>
80001d18:	01036663          	bltu	t1,a6,80001d24 <__udivdi3+0x1d0>
80001d1c:	00d37463          	bgeu	t1,a3,80001d24 <__udivdi3+0x1d0>
80001d20:	ffe70613          	addi	a2,a4,-2
80001d24:	01051513          	slli	a0,a0,0x10
80001d28:	00c56533          	or	a0,a0,a2
__udivdi3():
/home/hqfang/workspace/software/riscv-gnu-toolchain/riscv-gcc/libgcc/libgcc2.c:1321
80001d2c:	00008067          	ret
__udivmoddi4():
/home/hqfang/workspace/software/riscv-gnu-toolchain/riscv-gcc/libgcc/libgcc2.c:1094
80001d30:	01000737          	lui	a4,0x1000
80001d34:	01000513          	li	a0,16
80001d38:	f4e864e3          	bltu	a6,a4,80001c80 <__udivdi3+0x12c>
80001d3c:	01800513          	li	a0,24
80001d40:	f41ff06f          	j	80001c80 <__udivdi3+0x12c>
/home/hqfang/workspace/software/riscv-gnu-toolchain/riscv-gcc/libgcc/libgcc2.c:1114
80001d44:	00d81833          	sll	a6,a6,a3
/home/hqfang/workspace/software/riscv-gnu-toolchain/riscv-gcc/libgcc/libgcc2.c:1115
80001d48:	00e7d533          	srl	a0,a5,a4
/home/hqfang/workspace/software/riscv-gnu-toolchain/riscv-gcc/libgcc/libgcc2.c:1117
80001d4c:	00d89333          	sll	t1,a7,a3
/home/hqfang/workspace/software/riscv-gnu-toolchain/riscv-gcc/libgcc/libgcc2.c:1116
80001d50:	00d797b3          	sll	a5,a5,a3
80001d54:	00e8d733          	srl	a4,a7,a4
/home/hqfang/workspace/software/riscv-gnu-toolchain/riscv-gcc/libgcc/libgcc2.c:1119
80001d58:	01085893          	srli	a7,a6,0x10
/home/hqfang/workspace/software/riscv-gnu-toolchain/riscv-gcc/libgcc/libgcc2.c:1116
80001d5c:	00f76633          	or	a2,a4,a5
/home/hqfang/workspace/software/riscv-gnu-toolchain/riscv-gcc/libgcc/libgcc2.c:1119
80001d60:	03157733          	remu	a4,a0,a7
80001d64:	01081793          	slli	a5,a6,0x10
80001d68:	0107d793          	srli	a5,a5,0x10
80001d6c:	01065593          	srli	a1,a2,0x10
80001d70:	03155533          	divu	a0,a0,a7
80001d74:	01071713          	slli	a4,a4,0x10
80001d78:	00b76733          	or	a4,a4,a1
80001d7c:	02a786b3          	mul	a3,a5,a0
80001d80:	00050593          	mv	a1,a0
80001d84:	00d77e63          	bgeu	a4,a3,80001da0 <__udivdi3+0x24c>
80001d88:	01070733          	add	a4,a4,a6
80001d8c:	fff50593          	addi	a1,a0,-1 # ffffff <__stack_size+0xfff7ff>
80001d90:	01076863          	bltu	a4,a6,80001da0 <__udivdi3+0x24c>
80001d94:	00d77663          	bgeu	a4,a3,80001da0 <__udivdi3+0x24c>
80001d98:	ffe50593          	addi	a1,a0,-2
80001d9c:	01070733          	add	a4,a4,a6
80001da0:	40d706b3          	sub	a3,a4,a3
80001da4:	0316f733          	remu	a4,a3,a7
80001da8:	01061613          	slli	a2,a2,0x10
80001dac:	01065613          	srli	a2,a2,0x10
80001db0:	0316d6b3          	divu	a3,a3,a7
80001db4:	01071713          	slli	a4,a4,0x10
80001db8:	02d78533          	mul	a0,a5,a3
80001dbc:	00c767b3          	or	a5,a4,a2
80001dc0:	00068713          	mv	a4,a3
80001dc4:	00a7fe63          	bgeu	a5,a0,80001de0 <__udivdi3+0x28c>
80001dc8:	010787b3          	add	a5,a5,a6
80001dcc:	fff68713          	addi	a4,a3,-1
80001dd0:	0107e863          	bltu	a5,a6,80001de0 <__udivdi3+0x28c>
80001dd4:	00a7f663          	bgeu	a5,a0,80001de0 <__udivdi3+0x28c>
80001dd8:	ffe68713          	addi	a4,a3,-2
80001ddc:	010787b3          	add	a5,a5,a6
80001de0:	01059593          	slli	a1,a1,0x10
80001de4:	40a787b3          	sub	a5,a5,a0
80001de8:	00e5e5b3          	or	a1,a1,a4
80001dec:	eb9ff06f          	j	80001ca4 <__udivdi3+0x150>
/home/hqfang/workspace/software/riscv-gnu-toolchain/riscv-gcc/libgcc/libgcc2.c:1140
80001df0:	18d5e663          	bltu	a1,a3,80001f7c <__udivdi3+0x428>
/home/hqfang/workspace/software/riscv-gnu-toolchain/riscv-gcc/libgcc/libgcc2.c:1159
80001df4:	00010737          	lui	a4,0x10
80001df8:	04e6f463          	bgeu	a3,a4,80001e40 <__udivdi3+0x2ec>
80001dfc:	0ff00713          	li	a4,255
80001e00:	00d735b3          	sltu	a1,a4,a3
80001e04:	00359593          	slli	a1,a1,0x3
80001e08:	00b6d533          	srl	a0,a3,a1
80001e0c:	00002717          	auipc	a4,0x2
80001e10:	44070713          	addi	a4,a4,1088 # 8000424c <__clz_tab>
80001e14:	00a70733          	add	a4,a4,a0
80001e18:	00074703          	lbu	a4,0(a4)
80001e1c:	02000513          	li	a0,32
80001e20:	00b70733          	add	a4,a4,a1
80001e24:	40e505b3          	sub	a1,a0,a4
/home/hqfang/workspace/software/riscv-gnu-toolchain/riscv-gcc/libgcc/libgcc2.c:1160
80001e28:	02e51663          	bne	a0,a4,80001e54 <__udivdi3+0x300>
/home/hqfang/workspace/software/riscv-gnu-toolchain/riscv-gcc/libgcc/libgcc2.c:1172
80001e2c:	00100513          	li	a0,1
/home/hqfang/workspace/software/riscv-gnu-toolchain/riscv-gcc/libgcc/libgcc2.c:1170
80001e30:	eef6eee3          	bltu	a3,a5,80001d2c <__udivdi3+0x1d8>
80001e34:	00c8b533          	sltu	a0,a7,a2
80001e38:	00154513          	xori	a0,a0,1
80001e3c:	ef1ff06f          	j	80001d2c <__udivdi3+0x1d8>
/home/hqfang/workspace/software/riscv-gnu-toolchain/riscv-gcc/libgcc/libgcc2.c:1159
80001e40:	01000737          	lui	a4,0x1000
80001e44:	01000593          	li	a1,16
80001e48:	fce6e0e3          	bltu	a3,a4,80001e08 <__udivdi3+0x2b4>
80001e4c:	01800593          	li	a1,24
80001e50:	fb9ff06f          	j	80001e08 <__udivdi3+0x2b4>
/home/hqfang/workspace/software/riscv-gnu-toolchain/riscv-gcc/libgcc/libgcc2.c:1194
80001e54:	00e65833          	srl	a6,a2,a4
80001e58:	00b696b3          	sll	a3,a3,a1
80001e5c:	00d86833          	or	a6,a6,a3
/home/hqfang/workspace/software/riscv-gnu-toolchain/riscv-gcc/libgcc/libgcc2.c:1196
80001e60:	00e7d333          	srl	t1,a5,a4
/home/hqfang/workspace/software/riscv-gnu-toolchain/riscv-gcc/libgcc/libgcc2.c:1200
80001e64:	01085e93          	srli	t4,a6,0x10
80001e68:	03d376b3          	remu	a3,t1,t4
/home/hqfang/workspace/software/riscv-gnu-toolchain/riscv-gcc/libgcc/libgcc2.c:1197
80001e6c:	00b797b3          	sll	a5,a5,a1
80001e70:	00e8d733          	srl	a4,a7,a4
/home/hqfang/workspace/software/riscv-gnu-toolchain/riscv-gcc/libgcc/libgcc2.c:1195
80001e74:	00b61e33          	sll	t3,a2,a1
/home/hqfang/workspace/software/riscv-gnu-toolchain/riscv-gcc/libgcc/libgcc2.c:1197
80001e78:	00f76633          	or	a2,a4,a5
/home/hqfang/workspace/software/riscv-gnu-toolchain/riscv-gcc/libgcc/libgcc2.c:1200
80001e7c:	01081793          	slli	a5,a6,0x10
80001e80:	0107d793          	srli	a5,a5,0x10
80001e84:	01065713          	srli	a4,a2,0x10
80001e88:	03d35333          	divu	t1,t1,t4
80001e8c:	01069693          	slli	a3,a3,0x10
80001e90:	00e6e733          	or	a4,a3,a4
80001e94:	02678f33          	mul	t5,a5,t1
80001e98:	00030513          	mv	a0,t1
80001e9c:	01e77e63          	bgeu	a4,t5,80001eb8 <__udivdi3+0x364>
80001ea0:	01070733          	add	a4,a4,a6
80001ea4:	fff30513          	addi	a0,t1,-1
80001ea8:	01076863          	bltu	a4,a6,80001eb8 <__udivdi3+0x364>
80001eac:	01e77663          	bgeu	a4,t5,80001eb8 <__udivdi3+0x364>
80001eb0:	ffe30513          	addi	a0,t1,-2
80001eb4:	01070733          	add	a4,a4,a6
80001eb8:	41e70733          	sub	a4,a4,t5
80001ebc:	03d776b3          	remu	a3,a4,t4
80001ec0:	03d75733          	divu	a4,a4,t4
80001ec4:	01069693          	slli	a3,a3,0x10
80001ec8:	02e78333          	mul	t1,a5,a4
80001ecc:	01061793          	slli	a5,a2,0x10
80001ed0:	0107d793          	srli	a5,a5,0x10
80001ed4:	00f6e7b3          	or	a5,a3,a5
80001ed8:	00070613          	mv	a2,a4
80001edc:	0067fe63          	bgeu	a5,t1,80001ef8 <__udivdi3+0x3a4>
80001ee0:	010787b3          	add	a5,a5,a6
80001ee4:	fff70613          	addi	a2,a4,-1 # ffffff <__stack_size+0xfff7ff>
80001ee8:	0107e863          	bltu	a5,a6,80001ef8 <__udivdi3+0x3a4>
80001eec:	0067f663          	bgeu	a5,t1,80001ef8 <__udivdi3+0x3a4>
80001ef0:	ffe70613          	addi	a2,a4,-2
80001ef4:	010787b3          	add	a5,a5,a6
80001ef8:	01051513          	slli	a0,a0,0x10
/home/hqfang/workspace/software/riscv-gnu-toolchain/riscv-gcc/libgcc/libgcc2.c:1201
80001efc:	00010eb7          	lui	t4,0x10
/home/hqfang/workspace/software/riscv-gnu-toolchain/riscv-gcc/libgcc/libgcc2.c:1200
80001f00:	00c56533          	or	a0,a0,a2
/home/hqfang/workspace/software/riscv-gnu-toolchain/riscv-gcc/libgcc/libgcc2.c:1201
80001f04:	fffe8693          	addi	a3,t4,-1 # ffff <__stack_size+0xf7ff>
80001f08:	010e5613          	srli	a2,t3,0x10
80001f0c:	01055813          	srli	a6,a0,0x10
/home/hqfang/workspace/software/riscv-gnu-toolchain/riscv-gcc/libgcc/libgcc2.c:1200
80001f10:	406787b3          	sub	a5,a5,t1
/home/hqfang/workspace/software/riscv-gnu-toolchain/riscv-gcc/libgcc/libgcc2.c:1201
80001f14:	00d57333          	and	t1,a0,a3
80001f18:	00de76b3          	and	a3,t3,a3
80001f1c:	02d30e33          	mul	t3,t1,a3
80001f20:	02d806b3          	mul	a3,a6,a3
80001f24:	010e5713          	srli	a4,t3,0x10
80001f28:	02c30333          	mul	t1,t1,a2
80001f2c:	00d30333          	add	t1,t1,a3
80001f30:	00670733          	add	a4,a4,t1
80001f34:	02c80833          	mul	a6,a6,a2
80001f38:	00d77463          	bgeu	a4,a3,80001f40 <__udivdi3+0x3ec>
80001f3c:	01d80833          	add	a6,a6,t4
80001f40:	01075693          	srli	a3,a4,0x10
80001f44:	01068833          	add	a6,a3,a6
/home/hqfang/workspace/software/riscv-gnu-toolchain/riscv-gcc/libgcc/libgcc2.c:1203
80001f48:	0307e663          	bltu	a5,a6,80001f74 <__udivdi3+0x420>
80001f4c:	cf079ce3          	bne	a5,a6,80001c44 <__udivdi3+0xf0>
/home/hqfang/workspace/software/riscv-gnu-toolchain/riscv-gcc/libgcc/libgcc2.c:1201
80001f50:	000107b7          	lui	a5,0x10
80001f54:	fff78793          	addi	a5,a5,-1 # ffff <__stack_size+0xf7ff>
80001f58:	00f77733          	and	a4,a4,a5
80001f5c:	01071713          	slli	a4,a4,0x10
80001f60:	00fe7e33          	and	t3,t3,a5
/home/hqfang/workspace/software/riscv-gnu-toolchain/riscv-gcc/libgcc/libgcc2.c:1198
80001f64:	00b898b3          	sll	a7,a7,a1
/home/hqfang/workspace/software/riscv-gnu-toolchain/riscv-gcc/libgcc/libgcc2.c:1201
80001f68:	01c70733          	add	a4,a4,t3
/home/hqfang/workspace/software/riscv-gnu-toolchain/riscv-gcc/libgcc/libgcc2.c:1209
80001f6c:	00000593          	li	a1,0
/home/hqfang/workspace/software/riscv-gnu-toolchain/riscv-gcc/libgcc/libgcc2.c:1203
80001f70:	dae8fee3          	bgeu	a7,a4,80001d2c <__udivdi3+0x1d8>
/home/hqfang/workspace/software/riscv-gnu-toolchain/riscv-gcc/libgcc/libgcc2.c:1205
80001f74:	fff50513          	addi	a0,a0,-1
__udivdi3():
/home/hqfang/workspace/software/riscv-gnu-toolchain/riscv-gcc/libgcc/libgcc2.c:1206
80001f78:	ccdff06f          	j	80001c44 <__udivdi3+0xf0>
__udivmoddi4():
/home/hqfang/workspace/software/riscv-gnu-toolchain/riscv-gcc/libgcc/libgcc2.c:1145
80001f7c:	00000593          	li	a1,0
/home/hqfang/workspace/software/riscv-gnu-toolchain/riscv-gcc/libgcc/libgcc2.c:1144
80001f80:	00000513          	li	a0,0
80001f84:	da9ff06f          	j	80001d2c <__udivdi3+0x1d8>

80001f88 <atexit>:
atexit():
80001f88:	00050593          	mv	a1,a0
80001f8c:	00000693          	li	a3,0
80001f90:	00000613          	li	a2,0
80001f94:	00000513          	li	a0,0
80001f98:	5780006f          	j	80002510 <__register_exitproc>

80001f9c <__libc_fini_array>:
__libc_fini_array():
80001f9c:	ff010113          	addi	sp,sp,-16
80001fa0:	00812423          	sw	s0,8(sp)
80001fa4:	00912223          	sw	s1,4(sp)
80001fa8:	00002417          	auipc	s0,0x2
80001fac:	49840413          	addi	s0,s0,1176 # 80004440 <__fsymtab_end>
80001fb0:	00002497          	auipc	s1,0x2
80001fb4:	49048493          	addi	s1,s1,1168 # 80004440 <__fsymtab_end>
80001fb8:	40940433          	sub	s0,s0,s1
80001fbc:	00112623          	sw	ra,12(sp)
80001fc0:	40245413          	srai	s0,s0,0x2
80001fc4:	00041c63          	bnez	s0,80001fdc <__libc_fini_array+0x40>
80001fc8:	00c12083          	lw	ra,12(sp)
80001fcc:	00812403          	lw	s0,8(sp)
80001fd0:	00412483          	lw	s1,4(sp)
80001fd4:	01010113          	addi	sp,sp,16
80001fd8:	00008067          	ret
80001fdc:	fff40413          	addi	s0,s0,-1
80001fe0:	00241793          	slli	a5,s0,0x2
80001fe4:	00f487b3          	add	a5,s1,a5
80001fe8:	0007a783          	lw	a5,0(a5)
80001fec:	000780e7          	jalr	a5
80001ff0:	fd5ff06f          	j	80001fc4 <__libc_fini_array+0x28>

80001ff4 <__libc_init_array>:
__libc_init_array():
80001ff4:	ff010113          	addi	sp,sp,-16
80001ff8:	00812423          	sw	s0,8(sp)
80001ffc:	00912223          	sw	s1,4(sp)
80002000:	00002417          	auipc	s0,0x2
80002004:	44040413          	addi	s0,s0,1088 # 80004440 <__fsymtab_end>
80002008:	00002497          	auipc	s1,0x2
8000200c:	43848493          	addi	s1,s1,1080 # 80004440 <__fsymtab_end>
80002010:	408484b3          	sub	s1,s1,s0
80002014:	01212023          	sw	s2,0(sp)
80002018:	00112623          	sw	ra,12(sp)
8000201c:	4024d493          	srai	s1,s1,0x2
80002020:	00000913          	li	s2,0
80002024:	02991e63          	bne	s2,s1,80002060 <__libc_init_array+0x6c>
80002028:	00002417          	auipc	s0,0x2
8000202c:	41840413          	addi	s0,s0,1048 # 80004440 <__fsymtab_end>
80002030:	00002497          	auipc	s1,0x2
80002034:	41048493          	addi	s1,s1,1040 # 80004440 <__fsymtab_end>
80002038:	408484b3          	sub	s1,s1,s0
8000203c:	4024d493          	srai	s1,s1,0x2
80002040:	00000913          	li	s2,0
80002044:	02991863          	bne	s2,s1,80002074 <__libc_init_array+0x80>
80002048:	00c12083          	lw	ra,12(sp)
8000204c:	00812403          	lw	s0,8(sp)
80002050:	00412483          	lw	s1,4(sp)
80002054:	00012903          	lw	s2,0(sp)
80002058:	01010113          	addi	sp,sp,16
8000205c:	00008067          	ret
80002060:	00042783          	lw	a5,0(s0)
80002064:	00190913          	addi	s2,s2,1
80002068:	00440413          	addi	s0,s0,4
8000206c:	000780e7          	jalr	a5
80002070:	fb5ff06f          	j	80002024 <__libc_init_array+0x30>
80002074:	00042783          	lw	a5,0(s0)
80002078:	00190913          	addi	s2,s2,1
8000207c:	00440413          	addi	s0,s0,4
80002080:	000780e7          	jalr	a5
80002084:	fc1ff06f          	j	80002044 <__libc_init_array+0x50>

80002088 <iprintf>:
printf():
80002088:	fb010113          	addi	sp,sp,-80
8000208c:	02812423          	sw	s0,40(sp)
80002090:	02112623          	sw	ra,44(sp)
80002094:	00050413          	mv	s0,a0
80002098:	02b12a23          	sw	a1,52(sp)
8000209c:	02c12c23          	sw	a2,56(sp)
800020a0:	02d12e23          	sw	a3,60(sp)
800020a4:	04e12023          	sw	a4,64(sp)
800020a8:	04f12223          	sw	a5,68(sp)
800020ac:	05012423          	sw	a6,72(sp)
800020b0:	05112623          	sw	a7,76(sp)
800020b4:	8081a503          	lw	a0,-2040(gp) # 90000068 <_impure_ptr>
800020b8:	00050c63          	beqz	a0,800020d0 <iprintf+0x48>
800020bc:	01852783          	lw	a5,24(a0)
800020c0:	00079863          	bnez	a5,800020d0 <iprintf+0x48>
800020c4:	00a12623          	sw	a0,12(sp)
800020c8:	07d000ef          	jal	ra,80002944 <__sinit>
800020cc:	00c12503          	lw	a0,12(sp)
800020d0:	00852583          	lw	a1,8(a0)
800020d4:	03410693          	addi	a3,sp,52
800020d8:	00040613          	mv	a2,s0
800020dc:	00d12e23          	sw	a3,28(sp)
800020e0:	004010ef          	jal	ra,800030e4 <_vfiprintf_r>
800020e4:	02c12083          	lw	ra,44(sp)
800020e8:	02812403          	lw	s0,40(sp)
800020ec:	05010113          	addi	sp,sp,80
800020f0:	00008067          	ret

800020f4 <_puts_r>:
_puts_r():
800020f4:	fe010113          	addi	sp,sp,-32
800020f8:	00912a23          	sw	s1,20(sp)
800020fc:	01212823          	sw	s2,16(sp)
80002100:	00112e23          	sw	ra,28(sp)
80002104:	00812c23          	sw	s0,24(sp)
80002108:	01312623          	sw	s3,12(sp)
8000210c:	01412423          	sw	s4,8(sp)
80002110:	00050493          	mv	s1,a0
80002114:	00058913          	mv	s2,a1
80002118:	00050863          	beqz	a0,80002128 <_puts_r+0x34>
8000211c:	01852783          	lw	a5,24(a0)
80002120:	00079463          	bnez	a5,80002128 <_puts_r+0x34>
80002124:	021000ef          	jal	ra,80002944 <__sinit>
80002128:	0184a783          	lw	a5,24(s1)
8000212c:	0084a403          	lw	s0,8(s1)
80002130:	00079663          	bnez	a5,8000213c <_puts_r+0x48>
80002134:	00048513          	mv	a0,s1
80002138:	00d000ef          	jal	ra,80002944 <__sinit>
8000213c:	00002797          	auipc	a5,0x2
80002140:	23078793          	addi	a5,a5,560 # 8000436c <__sf_fake_stdin>
80002144:	04f41e63          	bne	s0,a5,800021a0 <_puts_r+0xac>
80002148:	0044a403          	lw	s0,4(s1)
8000214c:	00c45783          	lhu	a5,12(s0)
80002150:	0087f793          	andi	a5,a5,8
80002154:	06078a63          	beqz	a5,800021c8 <_puts_r+0xd4>
80002158:	01042783          	lw	a5,16(s0)
8000215c:	06078663          	beqz	a5,800021c8 <_puts_r+0xd4>
80002160:	fff00993          	li	s3,-1
80002164:	00a00a13          	li	s4,10
80002168:	00842783          	lw	a5,8(s0)
8000216c:	00094583          	lbu	a1,0(s2)
80002170:	fff78793          	addi	a5,a5,-1
80002174:	08059463          	bnez	a1,800021fc <_puts_r+0x108>
80002178:	00f42423          	sw	a5,8(s0)
8000217c:	0c07d063          	bgez	a5,8000223c <_puts_r+0x148>
80002180:	00040613          	mv	a2,s0
80002184:	00a00593          	li	a1,10
80002188:	00048513          	mv	a0,s1
8000218c:	0d8000ef          	jal	ra,80002264 <__swbuf_r>
80002190:	fff00793          	li	a5,-1
80002194:	04f50263          	beq	a0,a5,800021d8 <_puts_r+0xe4>
80002198:	00a00513          	li	a0,10
8000219c:	0400006f          	j	800021dc <_puts_r+0xe8>
800021a0:	00002797          	auipc	a5,0x2
800021a4:	1ec78793          	addi	a5,a5,492 # 8000438c <__sf_fake_stdout>
800021a8:	00f41663          	bne	s0,a5,800021b4 <_puts_r+0xc0>
800021ac:	0084a403          	lw	s0,8(s1)
800021b0:	f9dff06f          	j	8000214c <_puts_r+0x58>
800021b4:	00002797          	auipc	a5,0x2
800021b8:	19878793          	addi	a5,a5,408 # 8000434c <__sf_fake_stderr>
800021bc:	f8f418e3          	bne	s0,a5,8000214c <_puts_r+0x58>
800021c0:	00c4a403          	lw	s0,12(s1)
800021c4:	f89ff06f          	j	8000214c <_puts_r+0x58>
800021c8:	00040593          	mv	a1,s0
800021cc:	00048513          	mv	a0,s1
800021d0:	1cc000ef          	jal	ra,8000239c <__swsetup_r>
800021d4:	f80506e3          	beqz	a0,80002160 <_puts_r+0x6c>
800021d8:	fff00513          	li	a0,-1
800021dc:	01c12083          	lw	ra,28(sp)
800021e0:	01812403          	lw	s0,24(sp)
800021e4:	01412483          	lw	s1,20(sp)
800021e8:	01012903          	lw	s2,16(sp)
800021ec:	00c12983          	lw	s3,12(sp)
800021f0:	00812a03          	lw	s4,8(sp)
800021f4:	02010113          	addi	sp,sp,32
800021f8:	00008067          	ret
800021fc:	00f42423          	sw	a5,8(s0)
80002200:	00190913          	addi	s2,s2,1
80002204:	0007d863          	bgez	a5,80002214 <_puts_r+0x120>
80002208:	01842703          	lw	a4,24(s0)
8000220c:	00e7ce63          	blt	a5,a4,80002228 <_puts_r+0x134>
80002210:	01458c63          	beq	a1,s4,80002228 <_puts_r+0x134>
80002214:	00042783          	lw	a5,0(s0)
80002218:	00178713          	addi	a4,a5,1
8000221c:	00e42023          	sw	a4,0(s0)
80002220:	00b78023          	sb	a1,0(a5)
80002224:	f45ff06f          	j	80002168 <_puts_r+0x74>
80002228:	00040613          	mv	a2,s0
8000222c:	00048513          	mv	a0,s1
80002230:	034000ef          	jal	ra,80002264 <__swbuf_r>
80002234:	f3351ae3          	bne	a0,s3,80002168 <_puts_r+0x74>
80002238:	fa1ff06f          	j	800021d8 <_puts_r+0xe4>
8000223c:	00042783          	lw	a5,0(s0)
80002240:	00178713          	addi	a4,a5,1
80002244:	00e42023          	sw	a4,0(s0)
80002248:	00a00713          	li	a4,10
8000224c:	00e78023          	sb	a4,0(a5)
80002250:	f49ff06f          	j	80002198 <_puts_r+0xa4>

80002254 <puts>:
puts():
80002254:	00050593          	mv	a1,a0
80002258:	8081a503          	lw	a0,-2040(gp) # 90000068 <_impure_ptr>
8000225c:	e99ff06f          	j	800020f4 <_puts_r>

80002260 <isatty>:
isatty():
80002260:	a48fe06f          	j	800004a8 <_isatty>

80002264 <__swbuf_r>:
__swbuf_r():
80002264:	fe010113          	addi	sp,sp,-32
80002268:	00812c23          	sw	s0,24(sp)
8000226c:	00912a23          	sw	s1,20(sp)
80002270:	01212823          	sw	s2,16(sp)
80002274:	00112e23          	sw	ra,28(sp)
80002278:	01312623          	sw	s3,12(sp)
8000227c:	00050493          	mv	s1,a0
80002280:	00058913          	mv	s2,a1
80002284:	00060413          	mv	s0,a2
80002288:	00050863          	beqz	a0,80002298 <__swbuf_r+0x34>
8000228c:	01852783          	lw	a5,24(a0)
80002290:	00079463          	bnez	a5,80002298 <__swbuf_r+0x34>
80002294:	6b0000ef          	jal	ra,80002944 <__sinit>
80002298:	00002797          	auipc	a5,0x2
8000229c:	0d478793          	addi	a5,a5,212 # 8000436c <__sf_fake_stdin>
800022a0:	0af41e63          	bne	s0,a5,8000235c <__swbuf_r+0xf8>
800022a4:	0044a403          	lw	s0,4(s1)
800022a8:	01842783          	lw	a5,24(s0)
800022ac:	00f42423          	sw	a5,8(s0)
800022b0:	00c45783          	lhu	a5,12(s0)
800022b4:	0087f793          	andi	a5,a5,8
800022b8:	0c078663          	beqz	a5,80002384 <__swbuf_r+0x120>
800022bc:	01042783          	lw	a5,16(s0)
800022c0:	0c078263          	beqz	a5,80002384 <__swbuf_r+0x120>
800022c4:	01042783          	lw	a5,16(s0)
800022c8:	00042503          	lw	a0,0(s0)
800022cc:	0ff97993          	andi	s3,s2,255
800022d0:	0ff97913          	andi	s2,s2,255
800022d4:	40f50533          	sub	a0,a0,a5
800022d8:	01442783          	lw	a5,20(s0)
800022dc:	00f54a63          	blt	a0,a5,800022f0 <__swbuf_r+0x8c>
800022e0:	00040593          	mv	a1,s0
800022e4:	00048513          	mv	a0,s1
800022e8:	4bc000ef          	jal	ra,800027a4 <_fflush_r>
800022ec:	0a051463          	bnez	a0,80002394 <__swbuf_r+0x130>
800022f0:	00842783          	lw	a5,8(s0)
800022f4:	00150513          	addi	a0,a0,1
800022f8:	fff78793          	addi	a5,a5,-1
800022fc:	00f42423          	sw	a5,8(s0)
80002300:	00042783          	lw	a5,0(s0)
80002304:	00178713          	addi	a4,a5,1
80002308:	00e42023          	sw	a4,0(s0)
8000230c:	01378023          	sb	s3,0(a5)
80002310:	01442783          	lw	a5,20(s0)
80002314:	00a78c63          	beq	a5,a0,8000232c <__swbuf_r+0xc8>
80002318:	00c45783          	lhu	a5,12(s0)
8000231c:	0017f793          	andi	a5,a5,1
80002320:	00078e63          	beqz	a5,8000233c <__swbuf_r+0xd8>
80002324:	00a00793          	li	a5,10
80002328:	00f91a63          	bne	s2,a5,8000233c <__swbuf_r+0xd8>
8000232c:	00040593          	mv	a1,s0
80002330:	00048513          	mv	a0,s1
80002334:	470000ef          	jal	ra,800027a4 <_fflush_r>
80002338:	04051e63          	bnez	a0,80002394 <__swbuf_r+0x130>
8000233c:	01c12083          	lw	ra,28(sp)
80002340:	01812403          	lw	s0,24(sp)
80002344:	01412483          	lw	s1,20(sp)
80002348:	00c12983          	lw	s3,12(sp)
8000234c:	00090513          	mv	a0,s2
80002350:	01012903          	lw	s2,16(sp)
80002354:	02010113          	addi	sp,sp,32
80002358:	00008067          	ret
8000235c:	00002797          	auipc	a5,0x2
80002360:	03078793          	addi	a5,a5,48 # 8000438c <__sf_fake_stdout>
80002364:	00f41663          	bne	s0,a5,80002370 <__swbuf_r+0x10c>
80002368:	0084a403          	lw	s0,8(s1)
8000236c:	f3dff06f          	j	800022a8 <__swbuf_r+0x44>
80002370:	00002797          	auipc	a5,0x2
80002374:	fdc78793          	addi	a5,a5,-36 # 8000434c <__sf_fake_stderr>
80002378:	f2f418e3          	bne	s0,a5,800022a8 <__swbuf_r+0x44>
8000237c:	00c4a403          	lw	s0,12(s1)
80002380:	f29ff06f          	j	800022a8 <__swbuf_r+0x44>
80002384:	00040593          	mv	a1,s0
80002388:	00048513          	mv	a0,s1
8000238c:	010000ef          	jal	ra,8000239c <__swsetup_r>
80002390:	f2050ae3          	beqz	a0,800022c4 <__swbuf_r+0x60>
80002394:	fff00913          	li	s2,-1
80002398:	fa5ff06f          	j	8000233c <__swbuf_r+0xd8>

8000239c <__swsetup_r>:
__swsetup_r():
8000239c:	ff010113          	addi	sp,sp,-16
800023a0:	00812423          	sw	s0,8(sp)
800023a4:	00912223          	sw	s1,4(sp)
800023a8:	01212023          	sw	s2,0(sp)
800023ac:	00112623          	sw	ra,12(sp)
800023b0:	8081a483          	lw	s1,-2040(gp) # 90000068 <_impure_ptr>
800023b4:	00050913          	mv	s2,a0
800023b8:	00058413          	mv	s0,a1
800023bc:	00048a63          	beqz	s1,800023d0 <__swsetup_r+0x34>
800023c0:	0184a783          	lw	a5,24(s1)
800023c4:	00079663          	bnez	a5,800023d0 <__swsetup_r+0x34>
800023c8:	00048513          	mv	a0,s1
800023cc:	578000ef          	jal	ra,80002944 <__sinit>
800023d0:	00002797          	auipc	a5,0x2
800023d4:	f9c78793          	addi	a5,a5,-100 # 8000436c <__sf_fake_stdin>
800023d8:	02f41e63          	bne	s0,a5,80002414 <__swsetup_r+0x78>
800023dc:	0044a403          	lw	s0,4(s1)
800023e0:	00c41783          	lh	a5,12(s0)
800023e4:	01079713          	slli	a4,a5,0x10
800023e8:	0087f693          	andi	a3,a5,8
800023ec:	01075713          	srli	a4,a4,0x10
800023f0:	08069a63          	bnez	a3,80002484 <__swsetup_r+0xe8>
800023f4:	01077693          	andi	a3,a4,16
800023f8:	04069263          	bnez	a3,8000243c <__swsetup_r+0xa0>
800023fc:	00900713          	li	a4,9
80002400:	00e92023          	sw	a4,0(s2)
80002404:	0407e793          	ori	a5,a5,64
80002408:	00f41623          	sh	a5,12(s0)
8000240c:	fff00513          	li	a0,-1
80002410:	0d00006f          	j	800024e0 <__swsetup_r+0x144>
80002414:	00002797          	auipc	a5,0x2
80002418:	f7878793          	addi	a5,a5,-136 # 8000438c <__sf_fake_stdout>
8000241c:	00f41663          	bne	s0,a5,80002428 <__swsetup_r+0x8c>
80002420:	0084a403          	lw	s0,8(s1)
80002424:	fbdff06f          	j	800023e0 <__swsetup_r+0x44>
80002428:	00002797          	auipc	a5,0x2
8000242c:	f2478793          	addi	a5,a5,-220 # 8000434c <__sf_fake_stderr>
80002430:	faf418e3          	bne	s0,a5,800023e0 <__swsetup_r+0x44>
80002434:	00c4a403          	lw	s0,12(s1)
80002438:	fa9ff06f          	j	800023e0 <__swsetup_r+0x44>
8000243c:	00477713          	andi	a4,a4,4
80002440:	02070c63          	beqz	a4,80002478 <__swsetup_r+0xdc>
80002444:	03442583          	lw	a1,52(s0)
80002448:	00058c63          	beqz	a1,80002460 <__swsetup_r+0xc4>
8000244c:	04440793          	addi	a5,s0,68
80002450:	00f58663          	beq	a1,a5,8000245c <__swsetup_r+0xc0>
80002454:	00090513          	mv	a0,s2
80002458:	191000ef          	jal	ra,80002de8 <_free_r>
8000245c:	02042a23          	sw	zero,52(s0)
80002460:	00c45783          	lhu	a5,12(s0)
80002464:	00042223          	sw	zero,4(s0)
80002468:	fdb7f793          	andi	a5,a5,-37
8000246c:	00f41623          	sh	a5,12(s0)
80002470:	01042783          	lw	a5,16(s0)
80002474:	00f42023          	sw	a5,0(s0)
80002478:	00c45783          	lhu	a5,12(s0)
8000247c:	0087e793          	ori	a5,a5,8
80002480:	00f41623          	sh	a5,12(s0)
80002484:	01042783          	lw	a5,16(s0)
80002488:	02079063          	bnez	a5,800024a8 <__swsetup_r+0x10c>
8000248c:	00c45783          	lhu	a5,12(s0)
80002490:	20000713          	li	a4,512
80002494:	2807f793          	andi	a5,a5,640
80002498:	00e78863          	beq	a5,a4,800024a8 <__swsetup_r+0x10c>
8000249c:	00040593          	mv	a1,s0
800024a0:	00090513          	mv	a0,s2
800024a4:	778000ef          	jal	ra,80002c1c <__smakebuf_r>
800024a8:	00c41783          	lh	a5,12(s0)
800024ac:	01079713          	slli	a4,a5,0x10
800024b0:	0017f693          	andi	a3,a5,1
800024b4:	01075713          	srli	a4,a4,0x10
800024b8:	04068063          	beqz	a3,800024f8 <__swsetup_r+0x15c>
800024bc:	01442683          	lw	a3,20(s0)
800024c0:	00042423          	sw	zero,8(s0)
800024c4:	40d006b3          	neg	a3,a3
800024c8:	00d42c23          	sw	a3,24(s0)
800024cc:	01042683          	lw	a3,16(s0)
800024d0:	00000513          	li	a0,0
800024d4:	00069663          	bnez	a3,800024e0 <__swsetup_r+0x144>
800024d8:	08077713          	andi	a4,a4,128
800024dc:	f20714e3          	bnez	a4,80002404 <__swsetup_r+0x68>
800024e0:	00c12083          	lw	ra,12(sp)
800024e4:	00812403          	lw	s0,8(sp)
800024e8:	00412483          	lw	s1,4(sp)
800024ec:	00012903          	lw	s2,0(sp)
800024f0:	01010113          	addi	sp,sp,16
800024f4:	00008067          	ret
800024f8:	00277693          	andi	a3,a4,2
800024fc:	00000613          	li	a2,0
80002500:	00069463          	bnez	a3,80002508 <__swsetup_r+0x16c>
80002504:	01442603          	lw	a2,20(s0)
80002508:	00c42423          	sw	a2,8(s0)
8000250c:	fc1ff06f          	j	800024cc <__swsetup_r+0x130>

80002510 <__register_exitproc>:
__register_exitproc():
80002510:	00050893          	mv	a7,a0
80002514:	81818513          	addi	a0,gp,-2024 # 90000078 <_global_atexit>
80002518:	00052783          	lw	a5,0(a0)
8000251c:	02079263          	bnez	a5,80002540 <__register_exitproc+0x30>
80002520:	8bc18713          	addi	a4,gp,-1860 # 9000011c <_global_atexit0>
80002524:	00e52023          	sw	a4,0(a0)
80002528:	00000513          	li	a0,0
8000252c:	00070793          	mv	a5,a4
80002530:	00050863          	beqz	a0,80002540 <__register_exitproc+0x30>
80002534:	00052783          	lw	a5,0(a0)
80002538:	08f72423          	sw	a5,136(a4)
8000253c:	00070793          	mv	a5,a4
80002540:	0047a703          	lw	a4,4(a5)
80002544:	01f00813          	li	a6,31
80002548:	fff00513          	li	a0,-1
8000254c:	06e84063          	blt	a6,a4,800025ac <__register_exitproc+0x9c>
80002550:	04088263          	beqz	a7,80002594 <__register_exitproc+0x84>
80002554:	0887a803          	lw	a6,136(a5)
80002558:	04080a63          	beqz	a6,800025ac <__register_exitproc+0x9c>
8000255c:	00271513          	slli	a0,a4,0x2
80002560:	00a80533          	add	a0,a6,a0
80002564:	00c52023          	sw	a2,0(a0)
80002568:	10082303          	lw	t1,256(a6)
8000256c:	00100613          	li	a2,1
80002570:	00e61633          	sll	a2,a2,a4
80002574:	00c36333          	or	t1,t1,a2
80002578:	10682023          	sw	t1,256(a6)
8000257c:	08d52023          	sw	a3,128(a0)
80002580:	00200693          	li	a3,2
80002584:	00d89863          	bne	a7,a3,80002594 <__register_exitproc+0x84>
80002588:	10482683          	lw	a3,260(a6)
8000258c:	00c6e633          	or	a2,a3,a2
80002590:	10c82223          	sw	a2,260(a6)
80002594:	00170693          	addi	a3,a4,1
80002598:	00271713          	slli	a4,a4,0x2
8000259c:	00d7a223          	sw	a3,4(a5)
800025a0:	00e787b3          	add	a5,a5,a4
800025a4:	00b7a423          	sw	a1,8(a5)
800025a8:	00000513          	li	a0,0
800025ac:	00008067          	ret

800025b0 <__sflush_r>:
__sflush_r():
800025b0:	00c5d783          	lhu	a5,12(a1)
800025b4:	fe010113          	addi	sp,sp,-32
800025b8:	00812c23          	sw	s0,24(sp)
800025bc:	00912a23          	sw	s1,20(sp)
800025c0:	00112e23          	sw	ra,28(sp)
800025c4:	01212823          	sw	s2,16(sp)
800025c8:	01312623          	sw	s3,12(sp)
800025cc:	0087f713          	andi	a4,a5,8
800025d0:	00050493          	mv	s1,a0
800025d4:	00058413          	mv	s0,a1
800025d8:	16071263          	bnez	a4,8000273c <__sflush_r+0x18c>
800025dc:	0045a703          	lw	a4,4(a1)
800025e0:	00e04a63          	bgtz	a4,800025f4 <__sflush_r+0x44>
800025e4:	0405a703          	lw	a4,64(a1)
800025e8:	00e04663          	bgtz	a4,800025f4 <__sflush_r+0x44>
800025ec:	00000513          	li	a0,0
800025f0:	1240006f          	j	80002714 <__sflush_r+0x164>
800025f4:	02c42703          	lw	a4,44(s0)
800025f8:	fe070ae3          	beqz	a4,800025ec <__sflush_r+0x3c>
800025fc:	000016b7          	lui	a3,0x1
80002600:	0004a903          	lw	s2,0(s1)
80002604:	00d7f7b3          	and	a5,a5,a3
80002608:	0004a023          	sw	zero,0(s1)
8000260c:	0c078063          	beqz	a5,800026cc <__sflush_r+0x11c>
80002610:	05442503          	lw	a0,84(s0)
80002614:	00c45783          	lhu	a5,12(s0)
80002618:	0047f793          	andi	a5,a5,4
8000261c:	00078e63          	beqz	a5,80002638 <__sflush_r+0x88>
80002620:	00442783          	lw	a5,4(s0)
80002624:	40f50533          	sub	a0,a0,a5
80002628:	03442783          	lw	a5,52(s0)
8000262c:	00078663          	beqz	a5,80002638 <__sflush_r+0x88>
80002630:	04042783          	lw	a5,64(s0)
80002634:	40f50533          	sub	a0,a0,a5
80002638:	02c42783          	lw	a5,44(s0)
8000263c:	02042583          	lw	a1,32(s0)
80002640:	00050613          	mv	a2,a0
80002644:	00000693          	li	a3,0
80002648:	00048513          	mv	a0,s1
8000264c:	000780e7          	jalr	a5
80002650:	fff00793          	li	a5,-1
80002654:	00c45703          	lhu	a4,12(s0)
80002658:	02f51263          	bne	a0,a5,8000267c <__sflush_r+0xcc>
8000265c:	0004a683          	lw	a3,0(s1)
80002660:	01d00793          	li	a5,29
80002664:	0cd7e663          	bltu	a5,a3,80002730 <__sflush_r+0x180>
80002668:	204007b7          	lui	a5,0x20400
8000266c:	00178793          	addi	a5,a5,1 # 20400001 <__stack_size+0x203ff801>
80002670:	00d7d7b3          	srl	a5,a5,a3
80002674:	0017f793          	andi	a5,a5,1
80002678:	0a078c63          	beqz	a5,80002730 <__sflush_r+0x180>
8000267c:	01042783          	lw	a5,16(s0)
80002680:	00042223          	sw	zero,4(s0)
80002684:	00f42023          	sw	a5,0(s0)
80002688:	000017b7          	lui	a5,0x1
8000268c:	00f77733          	and	a4,a4,a5
80002690:	00070c63          	beqz	a4,800026a8 <__sflush_r+0xf8>
80002694:	fff00793          	li	a5,-1
80002698:	00f51663          	bne	a0,a5,800026a4 <__sflush_r+0xf4>
8000269c:	0004a783          	lw	a5,0(s1)
800026a0:	00079463          	bnez	a5,800026a8 <__sflush_r+0xf8>
800026a4:	04a42a23          	sw	a0,84(s0)
800026a8:	03442583          	lw	a1,52(s0)
800026ac:	0124a023          	sw	s2,0(s1)
800026b0:	f2058ee3          	beqz	a1,800025ec <__sflush_r+0x3c>
800026b4:	04440793          	addi	a5,s0,68
800026b8:	00f58663          	beq	a1,a5,800026c4 <__sflush_r+0x114>
800026bc:	00048513          	mv	a0,s1
800026c0:	728000ef          	jal	ra,80002de8 <_free_r>
800026c4:	02042a23          	sw	zero,52(s0)
800026c8:	f25ff06f          	j	800025ec <__sflush_r+0x3c>
800026cc:	02042583          	lw	a1,32(s0)
800026d0:	00100693          	li	a3,1
800026d4:	00000613          	li	a2,0
800026d8:	00048513          	mv	a0,s1
800026dc:	000700e7          	jalr	a4
800026e0:	fff00793          	li	a5,-1
800026e4:	f2f518e3          	bne	a0,a5,80002614 <__sflush_r+0x64>
800026e8:	0004a783          	lw	a5,0(s1)
800026ec:	f20784e3          	beqz	a5,80002614 <__sflush_r+0x64>
800026f0:	01d00713          	li	a4,29
800026f4:	00e78663          	beq	a5,a4,80002700 <__sflush_r+0x150>
800026f8:	01600713          	li	a4,22
800026fc:	00e79663          	bne	a5,a4,80002708 <__sflush_r+0x158>
80002700:	0124a023          	sw	s2,0(s1)
80002704:	ee9ff06f          	j	800025ec <__sflush_r+0x3c>
80002708:	00c45783          	lhu	a5,12(s0)
8000270c:	0407e793          	ori	a5,a5,64
80002710:	00f41623          	sh	a5,12(s0)
80002714:	01c12083          	lw	ra,28(sp)
80002718:	01812403          	lw	s0,24(sp)
8000271c:	01412483          	lw	s1,20(sp)
80002720:	01012903          	lw	s2,16(sp)
80002724:	00c12983          	lw	s3,12(sp)
80002728:	02010113          	addi	sp,sp,32
8000272c:	00008067          	ret
80002730:	04076713          	ori	a4,a4,64
80002734:	00e41623          	sh	a4,12(s0)
80002738:	fddff06f          	j	80002714 <__sflush_r+0x164>
8000273c:	0105a983          	lw	s3,16(a1)
80002740:	ea0986e3          	beqz	s3,800025ec <__sflush_r+0x3c>
80002744:	0005a903          	lw	s2,0(a1)
80002748:	0037f793          	andi	a5,a5,3
8000274c:	0135a023          	sw	s3,0(a1)
80002750:	41390933          	sub	s2,s2,s3
80002754:	00000713          	li	a4,0
80002758:	00079463          	bnez	a5,80002760 <__sflush_r+0x1b0>
8000275c:	0145a703          	lw	a4,20(a1)
80002760:	00e42423          	sw	a4,8(s0)
80002764:	e92054e3          	blez	s2,800025ec <__sflush_r+0x3c>
80002768:	02842783          	lw	a5,40(s0)
8000276c:	02042583          	lw	a1,32(s0)
80002770:	00090693          	mv	a3,s2
80002774:	00098613          	mv	a2,s3
80002778:	00048513          	mv	a0,s1
8000277c:	000780e7          	jalr	a5 # 1000 <__stack_size+0x800>
80002780:	00a04c63          	bgtz	a0,80002798 <__sflush_r+0x1e8>
80002784:	00c45783          	lhu	a5,12(s0)
80002788:	fff00513          	li	a0,-1
8000278c:	0407e793          	ori	a5,a5,64
80002790:	00f41623          	sh	a5,12(s0)
80002794:	f81ff06f          	j	80002714 <__sflush_r+0x164>
80002798:	00a989b3          	add	s3,s3,a0
8000279c:	40a90933          	sub	s2,s2,a0
800027a0:	fc5ff06f          	j	80002764 <__sflush_r+0x1b4>

800027a4 <_fflush_r>:
_fflush_r():
800027a4:	0105a783          	lw	a5,16(a1)
800027a8:	08078a63          	beqz	a5,8000283c <_fflush_r+0x98>
800027ac:	fe010113          	addi	sp,sp,-32
800027b0:	00812c23          	sw	s0,24(sp)
800027b4:	00112e23          	sw	ra,28(sp)
800027b8:	00050413          	mv	s0,a0
800027bc:	00050c63          	beqz	a0,800027d4 <_fflush_r+0x30>
800027c0:	01852783          	lw	a5,24(a0)
800027c4:	00079863          	bnez	a5,800027d4 <_fflush_r+0x30>
800027c8:	00b12623          	sw	a1,12(sp)
800027cc:	178000ef          	jal	ra,80002944 <__sinit>
800027d0:	00c12583          	lw	a1,12(sp)
800027d4:	00002797          	auipc	a5,0x2
800027d8:	b9878793          	addi	a5,a5,-1128 # 8000436c <__sf_fake_stdin>
800027dc:	02f59263          	bne	a1,a5,80002800 <_fflush_r+0x5c>
800027e0:	00442583          	lw	a1,4(s0)
800027e4:	00c59783          	lh	a5,12(a1)
800027e8:	04078063          	beqz	a5,80002828 <_fflush_r+0x84>
800027ec:	00040513          	mv	a0,s0
800027f0:	01812403          	lw	s0,24(sp)
800027f4:	01c12083          	lw	ra,28(sp)
800027f8:	02010113          	addi	sp,sp,32
800027fc:	db5ff06f          	j	800025b0 <__sflush_r>
80002800:	00002797          	auipc	a5,0x2
80002804:	b8c78793          	addi	a5,a5,-1140 # 8000438c <__sf_fake_stdout>
80002808:	00f59663          	bne	a1,a5,80002814 <_fflush_r+0x70>
8000280c:	00842583          	lw	a1,8(s0)
80002810:	fd5ff06f          	j	800027e4 <_fflush_r+0x40>
80002814:	00002797          	auipc	a5,0x2
80002818:	b3878793          	addi	a5,a5,-1224 # 8000434c <__sf_fake_stderr>
8000281c:	fcf594e3          	bne	a1,a5,800027e4 <_fflush_r+0x40>
80002820:	00c42583          	lw	a1,12(s0)
80002824:	fc1ff06f          	j	800027e4 <_fflush_r+0x40>
80002828:	01c12083          	lw	ra,28(sp)
8000282c:	01812403          	lw	s0,24(sp)
80002830:	00000513          	li	a0,0
80002834:	02010113          	addi	sp,sp,32
80002838:	00008067          	ret
8000283c:	00000513          	li	a0,0
80002840:	00008067          	ret

80002844 <std>:
std():
80002844:	ff010113          	addi	sp,sp,-16
80002848:	00812423          	sw	s0,8(sp)
8000284c:	00112623          	sw	ra,12(sp)
80002850:	00050413          	mv	s0,a0
80002854:	00b51623          	sh	a1,12(a0)
80002858:	00c51723          	sh	a2,14(a0)
8000285c:	00052023          	sw	zero,0(a0)
80002860:	00052223          	sw	zero,4(a0)
80002864:	00052423          	sw	zero,8(a0)
80002868:	06052223          	sw	zero,100(a0)
8000286c:	00052823          	sw	zero,16(a0)
80002870:	00052a23          	sw	zero,20(a0)
80002874:	00052c23          	sw	zero,24(a0)
80002878:	00800613          	li	a2,8
8000287c:	00000593          	li	a1,0
80002880:	05c50513          	addi	a0,a0,92
80002884:	488000ef          	jal	ra,80002d0c <memset>
80002888:	00001797          	auipc	a5,0x1
8000288c:	c6078793          	addi	a5,a5,-928 # 800034e8 <__sread>
80002890:	02f42223          	sw	a5,36(s0)
80002894:	00001797          	auipc	a5,0x1
80002898:	ca478793          	addi	a5,a5,-860 # 80003538 <__swrite>
8000289c:	02f42423          	sw	a5,40(s0)
800028a0:	00001797          	auipc	a5,0x1
800028a4:	d1c78793          	addi	a5,a5,-740 # 800035bc <__sseek>
800028a8:	02f42623          	sw	a5,44(s0)
800028ac:	00001797          	auipc	a5,0x1
800028b0:	d6878793          	addi	a5,a5,-664 # 80003614 <__sclose>
800028b4:	00c12083          	lw	ra,12(sp)
800028b8:	02842023          	sw	s0,32(s0)
800028bc:	02f42823          	sw	a5,48(s0)
800028c0:	00812403          	lw	s0,8(sp)
800028c4:	01010113          	addi	sp,sp,16
800028c8:	00008067          	ret

800028cc <_cleanup_r>:
_cleanup_r():
800028cc:	00000597          	auipc	a1,0x0
800028d0:	ed858593          	addi	a1,a1,-296 # 800027a4 <_fflush_r>
800028d4:	2080006f          	j	80002adc <_fwalk_reent>

800028d8 <__sfmoreglue>:
__sfmoreglue():
800028d8:	ff010113          	addi	sp,sp,-16
800028dc:	00912223          	sw	s1,4(sp)
800028e0:	06800613          	li	a2,104
800028e4:	fff58493          	addi	s1,a1,-1
800028e8:	02c484b3          	mul	s1,s1,a2
800028ec:	01212023          	sw	s2,0(sp)
800028f0:	00058913          	mv	s2,a1
800028f4:	00812423          	sw	s0,8(sp)
800028f8:	00112623          	sw	ra,12(sp)
800028fc:	07448593          	addi	a1,s1,116
80002900:	5e4000ef          	jal	ra,80002ee4 <_malloc_r>
80002904:	00050413          	mv	s0,a0
80002908:	02050063          	beqz	a0,80002928 <__sfmoreglue+0x50>
8000290c:	00052023          	sw	zero,0(a0)
80002910:	01252223          	sw	s2,4(a0)
80002914:	00c50513          	addi	a0,a0,12
80002918:	00a42423          	sw	a0,8(s0)
8000291c:	06848613          	addi	a2,s1,104
80002920:	00000593          	li	a1,0
80002924:	3e8000ef          	jal	ra,80002d0c <memset>
80002928:	00c12083          	lw	ra,12(sp)
8000292c:	00040513          	mv	a0,s0
80002930:	00812403          	lw	s0,8(sp)
80002934:	00412483          	lw	s1,4(sp)
80002938:	00012903          	lw	s2,0(sp)
8000293c:	01010113          	addi	sp,sp,16
80002940:	00008067          	ret

80002944 <__sinit>:
__sinit():
80002944:	01852783          	lw	a5,24(a0)
80002948:	0a079463          	bnez	a5,800029f0 <__sinit+0xac>
8000294c:	ff010113          	addi	sp,sp,-16
80002950:	00812423          	sw	s0,8(sp)
80002954:	00112623          	sw	ra,12(sp)
80002958:	00000797          	auipc	a5,0x0
8000295c:	f7478793          	addi	a5,a5,-140 # 800028cc <_cleanup_r>
80002960:	02f52423          	sw	a5,40(a0)
80002964:	04052423          	sw	zero,72(a0)
80002968:	04052623          	sw	zero,76(a0)
8000296c:	04052823          	sw	zero,80(a0)
80002970:	8101a783          	lw	a5,-2032(gp) # 90000070 <_global_impure_ptr>
80002974:	00050413          	mv	s0,a0
80002978:	00f51663          	bne	a0,a5,80002984 <__sinit+0x40>
8000297c:	00100793          	li	a5,1
80002980:	00f52c23          	sw	a5,24(a0)
80002984:	00040513          	mv	a0,s0
80002988:	06c000ef          	jal	ra,800029f4 <__sfp>
8000298c:	00a42223          	sw	a0,4(s0)
80002990:	00040513          	mv	a0,s0
80002994:	060000ef          	jal	ra,800029f4 <__sfp>
80002998:	00a42423          	sw	a0,8(s0)
8000299c:	00040513          	mv	a0,s0
800029a0:	054000ef          	jal	ra,800029f4 <__sfp>
800029a4:	00a42623          	sw	a0,12(s0)
800029a8:	00442503          	lw	a0,4(s0)
800029ac:	00000613          	li	a2,0
800029b0:	00400593          	li	a1,4
800029b4:	e91ff0ef          	jal	ra,80002844 <std>
800029b8:	00842503          	lw	a0,8(s0)
800029bc:	00100613          	li	a2,1
800029c0:	00900593          	li	a1,9
800029c4:	e81ff0ef          	jal	ra,80002844 <std>
800029c8:	00c42503          	lw	a0,12(s0)
800029cc:	00200613          	li	a2,2
800029d0:	01200593          	li	a1,18
800029d4:	e71ff0ef          	jal	ra,80002844 <std>
800029d8:	00100793          	li	a5,1
800029dc:	00c12083          	lw	ra,12(sp)
800029e0:	00f42c23          	sw	a5,24(s0)
800029e4:	00812403          	lw	s0,8(sp)
800029e8:	01010113          	addi	sp,sp,16
800029ec:	00008067          	ret
800029f0:	00008067          	ret

800029f4 <__sfp>:
__sfp():
800029f4:	ff010113          	addi	sp,sp,-16
800029f8:	00912223          	sw	s1,4(sp)
800029fc:	8101a483          	lw	s1,-2032(gp) # 90000070 <_global_impure_ptr>
80002a00:	0184a783          	lw	a5,24(s1)
80002a04:	01212023          	sw	s2,0(sp)
80002a08:	00112623          	sw	ra,12(sp)
80002a0c:	00812423          	sw	s0,8(sp)
80002a10:	00050913          	mv	s2,a0
80002a14:	00079663          	bnez	a5,80002a20 <__sfp+0x2c>
80002a18:	00048513          	mv	a0,s1
80002a1c:	f29ff0ef          	jal	ra,80002944 <__sinit>
80002a20:	04848493          	addi	s1,s1,72
80002a24:	0084a403          	lw	s0,8(s1)
80002a28:	0044a783          	lw	a5,4(s1)
80002a2c:	fff78793          	addi	a5,a5,-1
80002a30:	0007da63          	bgez	a5,80002a44 <__sfp+0x50>
80002a34:	0004a783          	lw	a5,0(s1)
80002a38:	08078063          	beqz	a5,80002ab8 <__sfp+0xc4>
80002a3c:	0004a483          	lw	s1,0(s1)
80002a40:	fe5ff06f          	j	80002a24 <__sfp+0x30>
80002a44:	00c41703          	lh	a4,12(s0)
80002a48:	06071463          	bnez	a4,80002ab0 <__sfp+0xbc>
80002a4c:	ffff07b7          	lui	a5,0xffff0
80002a50:	00178793          	addi	a5,a5,1 # ffff0001 <_sp+0x6ffe0001>
80002a54:	06042223          	sw	zero,100(s0)
80002a58:	00042023          	sw	zero,0(s0)
80002a5c:	00042223          	sw	zero,4(s0)
80002a60:	00042423          	sw	zero,8(s0)
80002a64:	00f42623          	sw	a5,12(s0)
80002a68:	00042823          	sw	zero,16(s0)
80002a6c:	00042a23          	sw	zero,20(s0)
80002a70:	00042c23          	sw	zero,24(s0)
80002a74:	00800613          	li	a2,8
80002a78:	00000593          	li	a1,0
80002a7c:	05c40513          	addi	a0,s0,92
80002a80:	28c000ef          	jal	ra,80002d0c <memset>
80002a84:	02042a23          	sw	zero,52(s0)
80002a88:	02042c23          	sw	zero,56(s0)
80002a8c:	04042423          	sw	zero,72(s0)
80002a90:	04042623          	sw	zero,76(s0)
80002a94:	00c12083          	lw	ra,12(sp)
80002a98:	00040513          	mv	a0,s0
80002a9c:	00812403          	lw	s0,8(sp)
80002aa0:	00412483          	lw	s1,4(sp)
80002aa4:	00012903          	lw	s2,0(sp)
80002aa8:	01010113          	addi	sp,sp,16
80002aac:	00008067          	ret
80002ab0:	06840413          	addi	s0,s0,104
80002ab4:	f79ff06f          	j	80002a2c <__sfp+0x38>
80002ab8:	00400593          	li	a1,4
80002abc:	00090513          	mv	a0,s2
80002ac0:	e19ff0ef          	jal	ra,800028d8 <__sfmoreglue>
80002ac4:	00a4a023          	sw	a0,0(s1)
80002ac8:	00050413          	mv	s0,a0
80002acc:	f60518e3          	bnez	a0,80002a3c <__sfp+0x48>
80002ad0:	00c00793          	li	a5,12
80002ad4:	00f92023          	sw	a5,0(s2)
80002ad8:	fbdff06f          	j	80002a94 <__sfp+0xa0>

80002adc <_fwalk_reent>:
_fwalk_reent():
80002adc:	fd010113          	addi	sp,sp,-48
80002ae0:	02812423          	sw	s0,40(sp)
80002ae4:	03212023          	sw	s2,32(sp)
80002ae8:	01312e23          	sw	s3,28(sp)
80002aec:	01412c23          	sw	s4,24(sp)
80002af0:	01612823          	sw	s6,16(sp)
80002af4:	01712623          	sw	s7,12(sp)
80002af8:	02112623          	sw	ra,44(sp)
80002afc:	02912223          	sw	s1,36(sp)
80002b00:	01512a23          	sw	s5,20(sp)
80002b04:	00050913          	mv	s2,a0
80002b08:	00058a13          	mv	s4,a1
80002b0c:	04850413          	addi	s0,a0,72
80002b10:	00000993          	li	s3,0
80002b14:	00100b13          	li	s6,1
80002b18:	fff00b93          	li	s7,-1
80002b1c:	00842483          	lw	s1,8(s0)
80002b20:	00442a83          	lw	s5,4(s0)
80002b24:	fffa8a93          	addi	s5,s5,-1
80002b28:	020ade63          	bgez	s5,80002b64 <_fwalk_reent+0x88>
80002b2c:	00042403          	lw	s0,0(s0)
80002b30:	fe0416e3          	bnez	s0,80002b1c <_fwalk_reent+0x40>
80002b34:	02c12083          	lw	ra,44(sp)
80002b38:	02812403          	lw	s0,40(sp)
80002b3c:	02412483          	lw	s1,36(sp)
80002b40:	02012903          	lw	s2,32(sp)
80002b44:	01812a03          	lw	s4,24(sp)
80002b48:	01412a83          	lw	s5,20(sp)
80002b4c:	01012b03          	lw	s6,16(sp)
80002b50:	00c12b83          	lw	s7,12(sp)
80002b54:	00098513          	mv	a0,s3
80002b58:	01c12983          	lw	s3,28(sp)
80002b5c:	03010113          	addi	sp,sp,48
80002b60:	00008067          	ret
80002b64:	00c4d783          	lhu	a5,12(s1)
80002b68:	00fb7e63          	bgeu	s6,a5,80002b84 <_fwalk_reent+0xa8>
80002b6c:	00e49783          	lh	a5,14(s1)
80002b70:	01778a63          	beq	a5,s7,80002b84 <_fwalk_reent+0xa8>
80002b74:	00048593          	mv	a1,s1
80002b78:	00090513          	mv	a0,s2
80002b7c:	000a00e7          	jalr	s4
80002b80:	00a9e9b3          	or	s3,s3,a0
80002b84:	06848493          	addi	s1,s1,104
80002b88:	f9dff06f          	j	80002b24 <_fwalk_reent+0x48>

80002b8c <__swhatbuf_r>:
__swhatbuf_r():
80002b8c:	f9010113          	addi	sp,sp,-112
80002b90:	07212023          	sw	s2,96(sp)
80002b94:	00058913          	mv	s2,a1
80002b98:	00e59583          	lh	a1,14(a1)
80002b9c:	06812423          	sw	s0,104(sp)
80002ba0:	06912223          	sw	s1,100(sp)
80002ba4:	06112623          	sw	ra,108(sp)
80002ba8:	00060413          	mv	s0,a2
80002bac:	00068493          	mv	s1,a3
80002bb0:	0005de63          	bgez	a1,80002bcc <__swhatbuf_r+0x40>
80002bb4:	00c91783          	lh	a5,12(s2)
80002bb8:	0004a023          	sw	zero,0(s1)
80002bbc:	0807f793          	andi	a5,a5,128
80002bc0:	02079c63          	bnez	a5,80002bf8 <__swhatbuf_r+0x6c>
80002bc4:	40000793          	li	a5,1024
80002bc8:	0340006f          	j	80002bfc <__swhatbuf_r+0x70>
80002bcc:	00810613          	addi	a2,sp,8
80002bd0:	2d5000ef          	jal	ra,800036a4 <_fstat_r>
80002bd4:	fe0540e3          	bltz	a0,80002bb4 <__swhatbuf_r+0x28>
80002bd8:	00c12703          	lw	a4,12(sp)
80002bdc:	0000f7b7          	lui	a5,0xf
80002be0:	00e7f7b3          	and	a5,a5,a4
80002be4:	ffffe737          	lui	a4,0xffffe
80002be8:	00e787b3          	add	a5,a5,a4
80002bec:	0017b793          	seqz	a5,a5
80002bf0:	00f4a023          	sw	a5,0(s1)
80002bf4:	fd1ff06f          	j	80002bc4 <__swhatbuf_r+0x38>
80002bf8:	04000793          	li	a5,64
80002bfc:	06c12083          	lw	ra,108(sp)
80002c00:	00f42023          	sw	a5,0(s0)
80002c04:	06812403          	lw	s0,104(sp)
80002c08:	06412483          	lw	s1,100(sp)
80002c0c:	06012903          	lw	s2,96(sp)
80002c10:	00000513          	li	a0,0
80002c14:	07010113          	addi	sp,sp,112
80002c18:	00008067          	ret

80002c1c <__smakebuf_r>:
__smakebuf_r():
80002c1c:	00c5d783          	lhu	a5,12(a1)
80002c20:	fe010113          	addi	sp,sp,-32
80002c24:	00812c23          	sw	s0,24(sp)
80002c28:	00112e23          	sw	ra,28(sp)
80002c2c:	00912a23          	sw	s1,20(sp)
80002c30:	01212823          	sw	s2,16(sp)
80002c34:	0027f793          	andi	a5,a5,2
80002c38:	00058413          	mv	s0,a1
80002c3c:	02078863          	beqz	a5,80002c6c <__smakebuf_r+0x50>
80002c40:	04740793          	addi	a5,s0,71
80002c44:	00f42023          	sw	a5,0(s0)
80002c48:	00f42823          	sw	a5,16(s0)
80002c4c:	00100793          	li	a5,1
80002c50:	00f42a23          	sw	a5,20(s0)
80002c54:	01c12083          	lw	ra,28(sp)
80002c58:	01812403          	lw	s0,24(sp)
80002c5c:	01412483          	lw	s1,20(sp)
80002c60:	01012903          	lw	s2,16(sp)
80002c64:	02010113          	addi	sp,sp,32
80002c68:	00008067          	ret
80002c6c:	00c10693          	addi	a3,sp,12
80002c70:	00810613          	addi	a2,sp,8
80002c74:	00050913          	mv	s2,a0
80002c78:	f15ff0ef          	jal	ra,80002b8c <__swhatbuf_r>
80002c7c:	00812583          	lw	a1,8(sp)
80002c80:	00050493          	mv	s1,a0
80002c84:	00090513          	mv	a0,s2
80002c88:	25c000ef          	jal	ra,80002ee4 <_malloc_r>
80002c8c:	02051063          	bnez	a0,80002cac <__smakebuf_r+0x90>
80002c90:	00c41783          	lh	a5,12(s0)
80002c94:	2007f713          	andi	a4,a5,512
80002c98:	fa071ee3          	bnez	a4,80002c54 <__smakebuf_r+0x38>
80002c9c:	ffc7f793          	andi	a5,a5,-4
80002ca0:	0027e793          	ori	a5,a5,2
80002ca4:	00f41623          	sh	a5,12(s0)
80002ca8:	f99ff06f          	j	80002c40 <__smakebuf_r+0x24>
80002cac:	00000797          	auipc	a5,0x0
80002cb0:	c2078793          	addi	a5,a5,-992 # 800028cc <_cleanup_r>
80002cb4:	02f92423          	sw	a5,40(s2)
80002cb8:	00c45783          	lhu	a5,12(s0)
80002cbc:	00a42023          	sw	a0,0(s0)
80002cc0:	00a42823          	sw	a0,16(s0)
80002cc4:	0807e793          	ori	a5,a5,128
80002cc8:	00f41623          	sh	a5,12(s0)
80002ccc:	00812783          	lw	a5,8(sp)
80002cd0:	00f42a23          	sw	a5,20(s0)
80002cd4:	00c12783          	lw	a5,12(sp)
80002cd8:	02078263          	beqz	a5,80002cfc <__smakebuf_r+0xe0>
80002cdc:	00e41583          	lh	a1,14(s0)
80002ce0:	00090513          	mv	a0,s2
80002ce4:	205000ef          	jal	ra,800036e8 <_isatty_r>
80002ce8:	00050a63          	beqz	a0,80002cfc <__smakebuf_r+0xe0>
80002cec:	00c45783          	lhu	a5,12(s0)
80002cf0:	ffc7f793          	andi	a5,a5,-4
80002cf4:	0017e793          	ori	a5,a5,1
80002cf8:	00f41623          	sh	a5,12(s0)
80002cfc:	00c45503          	lhu	a0,12(s0)
80002d00:	00a4e4b3          	or	s1,s1,a0
80002d04:	00941623          	sh	s1,12(s0)
80002d08:	f4dff06f          	j	80002c54 <__smakebuf_r+0x38>

80002d0c <memset>:
memset():
80002d0c:	00f00313          	li	t1,15
80002d10:	00050713          	mv	a4,a0
80002d14:	02c37e63          	bgeu	t1,a2,80002d50 <memset+0x44>
80002d18:	00f77793          	andi	a5,a4,15
80002d1c:	0a079063          	bnez	a5,80002dbc <memset+0xb0>
80002d20:	08059263          	bnez	a1,80002da4 <memset+0x98>
80002d24:	ff067693          	andi	a3,a2,-16
80002d28:	00f67613          	andi	a2,a2,15
80002d2c:	00e686b3          	add	a3,a3,a4
80002d30:	00b72023          	sw	a1,0(a4) # ffffe000 <_sp+0x6ffee000>
80002d34:	00b72223          	sw	a1,4(a4)
80002d38:	00b72423          	sw	a1,8(a4)
80002d3c:	00b72623          	sw	a1,12(a4)
80002d40:	01070713          	addi	a4,a4,16
80002d44:	fed766e3          	bltu	a4,a3,80002d30 <memset+0x24>
80002d48:	00061463          	bnez	a2,80002d50 <memset+0x44>
80002d4c:	00008067          	ret
80002d50:	40c306b3          	sub	a3,t1,a2
80002d54:	00269693          	slli	a3,a3,0x2
80002d58:	00000297          	auipc	t0,0x0
80002d5c:	005686b3          	add	a3,a3,t0
80002d60:	00c68067          	jr	12(a3) # 100c <__stack_size+0x80c>
80002d64:	00b70723          	sb	a1,14(a4)
80002d68:	00b706a3          	sb	a1,13(a4)
80002d6c:	00b70623          	sb	a1,12(a4)
80002d70:	00b705a3          	sb	a1,11(a4)
80002d74:	00b70523          	sb	a1,10(a4)
80002d78:	00b704a3          	sb	a1,9(a4)
80002d7c:	00b70423          	sb	a1,8(a4)
80002d80:	00b703a3          	sb	a1,7(a4)
80002d84:	00b70323          	sb	a1,6(a4)
80002d88:	00b702a3          	sb	a1,5(a4)
80002d8c:	00b70223          	sb	a1,4(a4)
80002d90:	00b701a3          	sb	a1,3(a4)
80002d94:	00b70123          	sb	a1,2(a4)
80002d98:	00b700a3          	sb	a1,1(a4)
80002d9c:	00b70023          	sb	a1,0(a4)
80002da0:	00008067          	ret
80002da4:	0ff5f593          	andi	a1,a1,255
80002da8:	00859693          	slli	a3,a1,0x8
80002dac:	00d5e5b3          	or	a1,a1,a3
80002db0:	01059693          	slli	a3,a1,0x10
80002db4:	00d5e5b3          	or	a1,a1,a3
80002db8:	f6dff06f          	j	80002d24 <memset+0x18>
80002dbc:	00279693          	slli	a3,a5,0x2
80002dc0:	00000297          	auipc	t0,0x0
80002dc4:	005686b3          	add	a3,a3,t0
80002dc8:	00008293          	mv	t0,ra
80002dcc:	fa0680e7          	jalr	-96(a3)
80002dd0:	00028093          	mv	ra,t0
80002dd4:	ff078793          	addi	a5,a5,-16
80002dd8:	40f70733          	sub	a4,a4,a5
80002ddc:	00f60633          	add	a2,a2,a5
80002de0:	f6c378e3          	bgeu	t1,a2,80002d50 <memset+0x44>
80002de4:	f3dff06f          	j	80002d20 <memset+0x14>

80002de8 <_free_r>:
_free_r():
80002de8:	0e058c63          	beqz	a1,80002ee0 <_free_r+0xf8>
80002dec:	ffc5a783          	lw	a5,-4(a1)
80002df0:	fe010113          	addi	sp,sp,-32
80002df4:	00812c23          	sw	s0,24(sp)
80002df8:	00112e23          	sw	ra,28(sp)
80002dfc:	ffc58413          	addi	s0,a1,-4
80002e00:	0007d463          	bgez	a5,80002e08 <_free_r+0x20>
80002e04:	00f40433          	add	s0,s0,a5
80002e08:	00a12623          	sw	a0,12(sp)
80002e0c:	189000ef          	jal	ra,80003794 <__malloc_lock>
80002e10:	81c18713          	addi	a4,gp,-2020 # 9000007c <__malloc_free_list>
80002e14:	00072783          	lw	a5,0(a4)
80002e18:	00c12503          	lw	a0,12(sp)
80002e1c:	00079e63          	bnez	a5,80002e38 <_free_r+0x50>
80002e20:	00042223          	sw	zero,4(s0)
80002e24:	00872023          	sw	s0,0(a4)
80002e28:	01812403          	lw	s0,24(sp)
80002e2c:	01c12083          	lw	ra,28(sp)
80002e30:	02010113          	addi	sp,sp,32
80002e34:	1650006f          	j	80003798 <__malloc_unlock>
80002e38:	02f47463          	bgeu	s0,a5,80002e60 <_free_r+0x78>
80002e3c:	00042603          	lw	a2,0(s0)
80002e40:	00c406b3          	add	a3,s0,a2
80002e44:	00d79a63          	bne	a5,a3,80002e58 <_free_r+0x70>
80002e48:	0007a683          	lw	a3,0(a5)
80002e4c:	0047a783          	lw	a5,4(a5)
80002e50:	00c686b3          	add	a3,a3,a2
80002e54:	00d42023          	sw	a3,0(s0)
80002e58:	00f42223          	sw	a5,4(s0)
80002e5c:	fc9ff06f          	j	80002e24 <_free_r+0x3c>
80002e60:	00078713          	mv	a4,a5
80002e64:	0047a783          	lw	a5,4(a5)
80002e68:	00078463          	beqz	a5,80002e70 <_free_r+0x88>
80002e6c:	fef47ae3          	bgeu	s0,a5,80002e60 <_free_r+0x78>
80002e70:	00072683          	lw	a3,0(a4)
80002e74:	00d70633          	add	a2,a4,a3
80002e78:	02861863          	bne	a2,s0,80002ea8 <_free_r+0xc0>
80002e7c:	00042603          	lw	a2,0(s0)
80002e80:	00c686b3          	add	a3,a3,a2
80002e84:	00d72023          	sw	a3,0(a4)
80002e88:	00d70633          	add	a2,a4,a3
80002e8c:	f8c79ee3          	bne	a5,a2,80002e28 <_free_r+0x40>
80002e90:	0007a603          	lw	a2,0(a5)
80002e94:	0047a783          	lw	a5,4(a5)
80002e98:	00d606b3          	add	a3,a2,a3
80002e9c:	00d72023          	sw	a3,0(a4)
80002ea0:	00f72223          	sw	a5,4(a4)
80002ea4:	f85ff06f          	j	80002e28 <_free_r+0x40>
80002ea8:	00c47863          	bgeu	s0,a2,80002eb8 <_free_r+0xd0>
80002eac:	00c00793          	li	a5,12
80002eb0:	00f52023          	sw	a5,0(a0)
80002eb4:	f75ff06f          	j	80002e28 <_free_r+0x40>
80002eb8:	00042603          	lw	a2,0(s0)
80002ebc:	00c406b3          	add	a3,s0,a2
80002ec0:	00d79a63          	bne	a5,a3,80002ed4 <_free_r+0xec>
80002ec4:	0007a683          	lw	a3,0(a5)
80002ec8:	0047a783          	lw	a5,4(a5)
80002ecc:	00c686b3          	add	a3,a3,a2
80002ed0:	00d42023          	sw	a3,0(s0)
80002ed4:	00f42223          	sw	a5,4(s0)
80002ed8:	00872223          	sw	s0,4(a4)
80002edc:	f4dff06f          	j	80002e28 <_free_r+0x40>
80002ee0:	00008067          	ret

80002ee4 <_malloc_r>:
_malloc_r():
80002ee4:	fe010113          	addi	sp,sp,-32
80002ee8:	00912a23          	sw	s1,20(sp)
80002eec:	00358493          	addi	s1,a1,3
80002ef0:	ffc4f493          	andi	s1,s1,-4
80002ef4:	01212823          	sw	s2,16(sp)
80002ef8:	00112e23          	sw	ra,28(sp)
80002efc:	00812c23          	sw	s0,24(sp)
80002f00:	01312623          	sw	s3,12(sp)
80002f04:	00848493          	addi	s1,s1,8
80002f08:	00c00793          	li	a5,12
80002f0c:	00050913          	mv	s2,a0
80002f10:	06f4f463          	bgeu	s1,a5,80002f78 <_malloc_r+0x94>
80002f14:	00c00493          	li	s1,12
80002f18:	06b4e263          	bltu	s1,a1,80002f7c <_malloc_r+0x98>
80002f1c:	00090513          	mv	a0,s2
80002f20:	075000ef          	jal	ra,80003794 <__malloc_lock>
80002f24:	81c18693          	addi	a3,gp,-2020 # 9000007c <__malloc_free_list>
80002f28:	0006a703          	lw	a4,0(a3)
80002f2c:	00070413          	mv	s0,a4
80002f30:	06041a63          	bnez	s0,80002fa4 <_malloc_r+0xc0>
80002f34:	82018413          	addi	s0,gp,-2016 # 90000080 <__malloc_sbrk_start>
80002f38:	00042783          	lw	a5,0(s0)
80002f3c:	00079a63          	bnez	a5,80002f50 <_malloc_r+0x6c>
80002f40:	00000593          	li	a1,0
80002f44:	00090513          	mv	a0,s2
80002f48:	560000ef          	jal	ra,800034a8 <_sbrk_r>
80002f4c:	00a42023          	sw	a0,0(s0)
80002f50:	00048593          	mv	a1,s1
80002f54:	00090513          	mv	a0,s2
80002f58:	550000ef          	jal	ra,800034a8 <_sbrk_r>
80002f5c:	fff00993          	li	s3,-1
80002f60:	0b351a63          	bne	a0,s3,80003014 <_malloc_r+0x130>
80002f64:	00c00793          	li	a5,12
80002f68:	00f92023          	sw	a5,0(s2)
80002f6c:	00090513          	mv	a0,s2
80002f70:	029000ef          	jal	ra,80003798 <__malloc_unlock>
80002f74:	0100006f          	j	80002f84 <_malloc_r+0xa0>
80002f78:	fa04d0e3          	bgez	s1,80002f18 <_malloc_r+0x34>
80002f7c:	00c00793          	li	a5,12
80002f80:	00f92023          	sw	a5,0(s2)
80002f84:	00000513          	li	a0,0
80002f88:	01c12083          	lw	ra,28(sp)
80002f8c:	01812403          	lw	s0,24(sp)
80002f90:	01412483          	lw	s1,20(sp)
80002f94:	01012903          	lw	s2,16(sp)
80002f98:	00c12983          	lw	s3,12(sp)
80002f9c:	02010113          	addi	sp,sp,32
80002fa0:	00008067          	ret
80002fa4:	00042783          	lw	a5,0(s0)
80002fa8:	409787b3          	sub	a5,a5,s1
80002fac:	0407ce63          	bltz	a5,80003008 <_malloc_r+0x124>
80002fb0:	00b00613          	li	a2,11
80002fb4:	00f67a63          	bgeu	a2,a5,80002fc8 <_malloc_r+0xe4>
80002fb8:	00f42023          	sw	a5,0(s0)
80002fbc:	00f40433          	add	s0,s0,a5
80002fc0:	00942023          	sw	s1,0(s0)
80002fc4:	0100006f          	j	80002fd4 <_malloc_r+0xf0>
80002fc8:	00442783          	lw	a5,4(s0)
80002fcc:	02871a63          	bne	a4,s0,80003000 <_malloc_r+0x11c>
80002fd0:	00f6a023          	sw	a5,0(a3)
80002fd4:	00090513          	mv	a0,s2
80002fd8:	7c0000ef          	jal	ra,80003798 <__malloc_unlock>
80002fdc:	00b40513          	addi	a0,s0,11
80002fe0:	00440793          	addi	a5,s0,4
80002fe4:	ff857513          	andi	a0,a0,-8
80002fe8:	40f50733          	sub	a4,a0,a5
80002fec:	f8f50ee3          	beq	a0,a5,80002f88 <_malloc_r+0xa4>
80002ff0:	00e40433          	add	s0,s0,a4
80002ff4:	40a787b3          	sub	a5,a5,a0
80002ff8:	00f42023          	sw	a5,0(s0)
80002ffc:	f8dff06f          	j	80002f88 <_malloc_r+0xa4>
80003000:	00f72223          	sw	a5,4(a4)
80003004:	fd1ff06f          	j	80002fd4 <_malloc_r+0xf0>
80003008:	00040713          	mv	a4,s0
8000300c:	00442403          	lw	s0,4(s0)
80003010:	f21ff06f          	j	80002f30 <_malloc_r+0x4c>
80003014:	00350413          	addi	s0,a0,3
80003018:	ffc47413          	andi	s0,s0,-4
8000301c:	fa8502e3          	beq	a0,s0,80002fc0 <_malloc_r+0xdc>
80003020:	40a405b3          	sub	a1,s0,a0
80003024:	00090513          	mv	a0,s2
80003028:	480000ef          	jal	ra,800034a8 <_sbrk_r>
8000302c:	f9351ae3          	bne	a0,s3,80002fc0 <_malloc_r+0xdc>
80003030:	f35ff06f          	j	80002f64 <_malloc_r+0x80>

80003034 <__sfputc_r>:
__sfputc_r():
80003034:	00862783          	lw	a5,8(a2)
80003038:	fff78793          	addi	a5,a5,-1
8000303c:	00f62423          	sw	a5,8(a2)
80003040:	0007dc63          	bgez	a5,80003058 <__sfputc_r+0x24>
80003044:	01862703          	lw	a4,24(a2)
80003048:	00e7c663          	blt	a5,a4,80003054 <__sfputc_r+0x20>
8000304c:	00a00793          	li	a5,10
80003050:	00f59463          	bne	a1,a5,80003058 <__sfputc_r+0x24>
80003054:	a10ff06f          	j	80002264 <__swbuf_r>
80003058:	00062783          	lw	a5,0(a2)
8000305c:	00058513          	mv	a0,a1
80003060:	00178713          	addi	a4,a5,1
80003064:	00e62023          	sw	a4,0(a2)
80003068:	00b78023          	sb	a1,0(a5)
8000306c:	00008067          	ret

80003070 <__sfputs_r>:
__sfputs_r():
80003070:	fe010113          	addi	sp,sp,-32
80003074:	00812c23          	sw	s0,24(sp)
80003078:	00912a23          	sw	s1,20(sp)
8000307c:	01212823          	sw	s2,16(sp)
80003080:	01312623          	sw	s3,12(sp)
80003084:	01412423          	sw	s4,8(sp)
80003088:	00112e23          	sw	ra,28(sp)
8000308c:	00050913          	mv	s2,a0
80003090:	00058993          	mv	s3,a1
80003094:	00060413          	mv	s0,a2
80003098:	00d604b3          	add	s1,a2,a3
8000309c:	fff00a13          	li	s4,-1
800030a0:	00941663          	bne	s0,s1,800030ac <__sfputs_r+0x3c>
800030a4:	00000513          	li	a0,0
800030a8:	01c0006f          	j	800030c4 <__sfputs_r+0x54>
800030ac:	00044583          	lbu	a1,0(s0)
800030b0:	00098613          	mv	a2,s3
800030b4:	00090513          	mv	a0,s2
800030b8:	f7dff0ef          	jal	ra,80003034 <__sfputc_r>
800030bc:	00140413          	addi	s0,s0,1
800030c0:	ff4510e3          	bne	a0,s4,800030a0 <__sfputs_r+0x30>
800030c4:	01c12083          	lw	ra,28(sp)
800030c8:	01812403          	lw	s0,24(sp)
800030cc:	01412483          	lw	s1,20(sp)
800030d0:	01012903          	lw	s2,16(sp)
800030d4:	00c12983          	lw	s3,12(sp)
800030d8:	00812a03          	lw	s4,8(sp)
800030dc:	02010113          	addi	sp,sp,32
800030e0:	00008067          	ret

800030e4 <_vfiprintf_r>:
_vfiprintf_r():
800030e4:	f6010113          	addi	sp,sp,-160
800030e8:	08812c23          	sw	s0,152(sp)
800030ec:	08912a23          	sw	s1,148(sp)
800030f0:	09212823          	sw	s2,144(sp)
800030f4:	09312623          	sw	s3,140(sp)
800030f8:	08112e23          	sw	ra,156(sp)
800030fc:	09412423          	sw	s4,136(sp)
80003100:	09512223          	sw	s5,132(sp)
80003104:	09612023          	sw	s6,128(sp)
80003108:	07712e23          	sw	s7,124(sp)
8000310c:	07812c23          	sw	s8,120(sp)
80003110:	07912a23          	sw	s9,116(sp)
80003114:	00050993          	mv	s3,a0
80003118:	00058493          	mv	s1,a1
8000311c:	00060913          	mv	s2,a2
80003120:	00068413          	mv	s0,a3
80003124:	00050863          	beqz	a0,80003134 <_vfiprintf_r+0x50>
80003128:	01852783          	lw	a5,24(a0)
8000312c:	00079463          	bnez	a5,80003134 <_vfiprintf_r+0x50>
80003130:	815ff0ef          	jal	ra,80002944 <__sinit>
80003134:	00001797          	auipc	a5,0x1
80003138:	23878793          	addi	a5,a5,568 # 8000436c <__sf_fake_stdin>
8000313c:	12f49263          	bne	s1,a5,80003260 <_vfiprintf_r+0x17c>
80003140:	0049a483          	lw	s1,4(s3)
80003144:	00c4d783          	lhu	a5,12(s1)
80003148:	0087f793          	andi	a5,a5,8
8000314c:	12078e63          	beqz	a5,80003288 <_vfiprintf_r+0x1a4>
80003150:	0104a783          	lw	a5,16(s1)
80003154:	12078a63          	beqz	a5,80003288 <_vfiprintf_r+0x1a4>
80003158:	02000793          	li	a5,32
8000315c:	02f104a3          	sb	a5,41(sp)
80003160:	03000793          	li	a5,48
80003164:	02012223          	sw	zero,36(sp)
80003168:	02f10523          	sb	a5,42(sp)
8000316c:	00812623          	sw	s0,12(sp)
80003170:	02500b93          	li	s7,37
80003174:	00001a97          	auipc	s5,0x1
80003178:	238a8a93          	addi	s5,s5,568 # 800043ac <__sf_fake_stdout+0x20>
8000317c:	00100c13          	li	s8,1
80003180:	00a00b13          	li	s6,10
80003184:	00090413          	mv	s0,s2
80003188:	00044783          	lbu	a5,0(s0)
8000318c:	00078463          	beqz	a5,80003194 <_vfiprintf_r+0xb0>
80003190:	15779063          	bne	a5,s7,800032d0 <_vfiprintf_r+0x1ec>
80003194:	41240cb3          	sub	s9,s0,s2
80003198:	03240663          	beq	s0,s2,800031c4 <_vfiprintf_r+0xe0>
8000319c:	000c8693          	mv	a3,s9
800031a0:	00090613          	mv	a2,s2
800031a4:	00048593          	mv	a1,s1
800031a8:	00098513          	mv	a0,s3
800031ac:	ec5ff0ef          	jal	ra,80003070 <__sfputs_r>
800031b0:	fff00793          	li	a5,-1
800031b4:	2cf50063          	beq	a0,a5,80003474 <_vfiprintf_r+0x390>
800031b8:	02412783          	lw	a5,36(sp)
800031bc:	019787b3          	add	a5,a5,s9
800031c0:	02f12223          	sw	a5,36(sp)
800031c4:	00044783          	lbu	a5,0(s0)
800031c8:	2a078663          	beqz	a5,80003474 <_vfiprintf_r+0x390>
800031cc:	fff00793          	li	a5,-1
800031d0:	00140913          	addi	s2,s0,1
800031d4:	00012823          	sw	zero,16(sp)
800031d8:	00012e23          	sw	zero,28(sp)
800031dc:	00f12a23          	sw	a5,20(sp)
800031e0:	00012c23          	sw	zero,24(sp)
800031e4:	040109a3          	sb	zero,83(sp)
800031e8:	06012423          	sw	zero,104(sp)
800031ec:	00094583          	lbu	a1,0(s2)
800031f0:	00500613          	li	a2,5
800031f4:	000a8513          	mv	a0,s5
800031f8:	578000ef          	jal	ra,80003770 <memchr>
800031fc:	01012783          	lw	a5,16(sp)
80003200:	00190413          	addi	s0,s2,1
80003204:	0c051a63          	bnez	a0,800032d8 <_vfiprintf_r+0x1f4>
80003208:	0107f713          	andi	a4,a5,16
8000320c:	00070663          	beqz	a4,80003218 <_vfiprintf_r+0x134>
80003210:	02000713          	li	a4,32
80003214:	04e109a3          	sb	a4,83(sp)
80003218:	0087f713          	andi	a4,a5,8
8000321c:	00070663          	beqz	a4,80003228 <_vfiprintf_r+0x144>
80003220:	02b00713          	li	a4,43
80003224:	04e109a3          	sb	a4,83(sp)
80003228:	00094683          	lbu	a3,0(s2)
8000322c:	02a00713          	li	a4,42
80003230:	0ce68063          	beq	a3,a4,800032f0 <_vfiprintf_r+0x20c>
80003234:	01c12783          	lw	a5,28(sp)
80003238:	00090413          	mv	s0,s2
8000323c:	00000693          	li	a3,0
80003240:	00900613          	li	a2,9
80003244:	00044703          	lbu	a4,0(s0)
80003248:	00140593          	addi	a1,s0,1
8000324c:	fd070713          	addi	a4,a4,-48
80003250:	10e67263          	bgeu	a2,a4,80003354 <_vfiprintf_r+0x270>
80003254:	0a068a63          	beqz	a3,80003308 <_vfiprintf_r+0x224>
80003258:	00f12e23          	sw	a5,28(sp)
8000325c:	0ac0006f          	j	80003308 <_vfiprintf_r+0x224>
80003260:	00001797          	auipc	a5,0x1
80003264:	12c78793          	addi	a5,a5,300 # 8000438c <__sf_fake_stdout>
80003268:	00f49663          	bne	s1,a5,80003274 <_vfiprintf_r+0x190>
8000326c:	0089a483          	lw	s1,8(s3)
80003270:	ed5ff06f          	j	80003144 <_vfiprintf_r+0x60>
80003274:	00001797          	auipc	a5,0x1
80003278:	0d878793          	addi	a5,a5,216 # 8000434c <__sf_fake_stderr>
8000327c:	ecf494e3          	bne	s1,a5,80003144 <_vfiprintf_r+0x60>
80003280:	00c9a483          	lw	s1,12(s3)
80003284:	ec1ff06f          	j	80003144 <_vfiprintf_r+0x60>
80003288:	00048593          	mv	a1,s1
8000328c:	00098513          	mv	a0,s3
80003290:	90cff0ef          	jal	ra,8000239c <__swsetup_r>
80003294:	ec0502e3          	beqz	a0,80003158 <_vfiprintf_r+0x74>
80003298:	fff00513          	li	a0,-1
8000329c:	09c12083          	lw	ra,156(sp)
800032a0:	09812403          	lw	s0,152(sp)
800032a4:	09412483          	lw	s1,148(sp)
800032a8:	09012903          	lw	s2,144(sp)
800032ac:	08c12983          	lw	s3,140(sp)
800032b0:	08812a03          	lw	s4,136(sp)
800032b4:	08412a83          	lw	s5,132(sp)
800032b8:	08012b03          	lw	s6,128(sp)
800032bc:	07c12b83          	lw	s7,124(sp)
800032c0:	07812c03          	lw	s8,120(sp)
800032c4:	07412c83          	lw	s9,116(sp)
800032c8:	0a010113          	addi	sp,sp,160
800032cc:	00008067          	ret
800032d0:	00140413          	addi	s0,s0,1
800032d4:	eb5ff06f          	j	80003188 <_vfiprintf_r+0xa4>
800032d8:	41550533          	sub	a0,a0,s5
800032dc:	00ac1533          	sll	a0,s8,a0
800032e0:	00a7e7b3          	or	a5,a5,a0
800032e4:	00f12823          	sw	a5,16(sp)
800032e8:	00040913          	mv	s2,s0
800032ec:	f01ff06f          	j	800031ec <_vfiprintf_r+0x108>
800032f0:	00c12703          	lw	a4,12(sp)
800032f4:	00470693          	addi	a3,a4,4
800032f8:	00072703          	lw	a4,0(a4)
800032fc:	00d12623          	sw	a3,12(sp)
80003300:	04074063          	bltz	a4,80003340 <_vfiprintf_r+0x25c>
80003304:	00e12e23          	sw	a4,28(sp)
80003308:	00044703          	lbu	a4,0(s0)
8000330c:	02e00793          	li	a5,46
80003310:	08f71463          	bne	a4,a5,80003398 <_vfiprintf_r+0x2b4>
80003314:	00144703          	lbu	a4,1(s0)
80003318:	02a00793          	li	a5,42
8000331c:	04f71a63          	bne	a4,a5,80003370 <_vfiprintf_r+0x28c>
80003320:	00c12783          	lw	a5,12(sp)
80003324:	00240413          	addi	s0,s0,2
80003328:	00478713          	addi	a4,a5,4
8000332c:	0007a783          	lw	a5,0(a5)
80003330:	00e12623          	sw	a4,12(sp)
80003334:	0207ca63          	bltz	a5,80003368 <_vfiprintf_r+0x284>
80003338:	00f12a23          	sw	a5,20(sp)
8000333c:	05c0006f          	j	80003398 <_vfiprintf_r+0x2b4>
80003340:	40e00733          	neg	a4,a4
80003344:	0027e793          	ori	a5,a5,2
80003348:	00e12e23          	sw	a4,28(sp)
8000334c:	00f12823          	sw	a5,16(sp)
80003350:	fb9ff06f          	j	80003308 <_vfiprintf_r+0x224>
80003354:	036787b3          	mul	a5,a5,s6
80003358:	00058413          	mv	s0,a1
8000335c:	00100693          	li	a3,1
80003360:	00e787b3          	add	a5,a5,a4
80003364:	ee1ff06f          	j	80003244 <_vfiprintf_r+0x160>
80003368:	fff00793          	li	a5,-1
8000336c:	fcdff06f          	j	80003338 <_vfiprintf_r+0x254>
80003370:	00140413          	addi	s0,s0,1
80003374:	00012a23          	sw	zero,20(sp)
80003378:	00000693          	li	a3,0
8000337c:	00000793          	li	a5,0
80003380:	00900613          	li	a2,9
80003384:	00044703          	lbu	a4,0(s0)
80003388:	00140593          	addi	a1,s0,1
8000338c:	fd070713          	addi	a4,a4,-48
80003390:	08e67a63          	bgeu	a2,a4,80003424 <_vfiprintf_r+0x340>
80003394:	fa0692e3          	bnez	a3,80003338 <_vfiprintf_r+0x254>
80003398:	00044583          	lbu	a1,0(s0)
8000339c:	00300613          	li	a2,3
800033a0:	00001517          	auipc	a0,0x1
800033a4:	01450513          	addi	a0,a0,20 # 800043b4 <__sf_fake_stdout+0x28>
800033a8:	3c8000ef          	jal	ra,80003770 <memchr>
800033ac:	02050463          	beqz	a0,800033d4 <_vfiprintf_r+0x2f0>
800033b0:	00001797          	auipc	a5,0x1
800033b4:	00478793          	addi	a5,a5,4 # 800043b4 <__sf_fake_stdout+0x28>
800033b8:	40f50533          	sub	a0,a0,a5
800033bc:	04000793          	li	a5,64
800033c0:	00a797b3          	sll	a5,a5,a0
800033c4:	01012503          	lw	a0,16(sp)
800033c8:	00140413          	addi	s0,s0,1
800033cc:	00f56533          	or	a0,a0,a5
800033d0:	00a12823          	sw	a0,16(sp)
800033d4:	00044583          	lbu	a1,0(s0)
800033d8:	00600613          	li	a2,6
800033dc:	00001517          	auipc	a0,0x1
800033e0:	fdc50513          	addi	a0,a0,-36 # 800043b8 <__sf_fake_stdout+0x2c>
800033e4:	00140913          	addi	s2,s0,1
800033e8:	02b10423          	sb	a1,40(sp)
800033ec:	384000ef          	jal	ra,80003770 <memchr>
800033f0:	08050c63          	beqz	a0,80003488 <_vfiprintf_r+0x3a4>
800033f4:	00000793          	li	a5,0
800033f8:	04079863          	bnez	a5,80003448 <_vfiprintf_r+0x364>
800033fc:	01012703          	lw	a4,16(sp)
80003400:	00c12783          	lw	a5,12(sp)
80003404:	10077713          	andi	a4,a4,256
80003408:	02070863          	beqz	a4,80003438 <_vfiprintf_r+0x354>
8000340c:	00478793          	addi	a5,a5,4
80003410:	00f12623          	sw	a5,12(sp)
80003414:	02412783          	lw	a5,36(sp)
80003418:	014787b3          	add	a5,a5,s4
8000341c:	02f12223          	sw	a5,36(sp)
80003420:	d65ff06f          	j	80003184 <_vfiprintf_r+0xa0>
80003424:	036787b3          	mul	a5,a5,s6
80003428:	00058413          	mv	s0,a1
8000342c:	00100693          	li	a3,1
80003430:	00e787b3          	add	a5,a5,a4
80003434:	f51ff06f          	j	80003384 <_vfiprintf_r+0x2a0>
80003438:	00778793          	addi	a5,a5,7
8000343c:	ff87f793          	andi	a5,a5,-8
80003440:	00878793          	addi	a5,a5,8
80003444:	fcdff06f          	j	80003410 <_vfiprintf_r+0x32c>
80003448:	00c10713          	addi	a4,sp,12
8000344c:	00000697          	auipc	a3,0x0
80003450:	c2468693          	addi	a3,a3,-988 # 80003070 <__sfputs_r>
80003454:	00048613          	mv	a2,s1
80003458:	01010593          	addi	a1,sp,16
8000345c:	00098513          	mv	a0,s3
80003460:	00000097          	auipc	ra,0x0
80003464:	000000e7          	jalr	zero # 0 <__stack_size-0x800>
80003468:	fff00793          	li	a5,-1
8000346c:	00050a13          	mv	s4,a0
80003470:	faf512e3          	bne	a0,a5,80003414 <_vfiprintf_r+0x330>
80003474:	00c4d783          	lhu	a5,12(s1)
80003478:	0407f793          	andi	a5,a5,64
8000347c:	e0079ee3          	bnez	a5,80003298 <_vfiprintf_r+0x1b4>
80003480:	02412503          	lw	a0,36(sp)
80003484:	e19ff06f          	j	8000329c <_vfiprintf_r+0x1b8>
80003488:	00c10713          	addi	a4,sp,12
8000348c:	00000697          	auipc	a3,0x0
80003490:	be468693          	addi	a3,a3,-1052 # 80003070 <__sfputs_r>
80003494:	00048613          	mv	a2,s1
80003498:	01010593          	addi	a1,sp,16
8000349c:	00098513          	mv	a0,s3
800034a0:	4ac000ef          	jal	ra,8000394c <_printf_i>
800034a4:	fc5ff06f          	j	80003468 <_vfiprintf_r+0x384>

800034a8 <_sbrk_r>:
_sbrk_r():
800034a8:	ff010113          	addi	sp,sp,-16
800034ac:	00812423          	sw	s0,8(sp)
800034b0:	00050413          	mv	s0,a0
800034b4:	00058513          	mv	a0,a1
800034b8:	8001aa23          	sw	zero,-2028(gp) # 90000074 <errno>
800034bc:	00112623          	sw	ra,12(sp)
800034c0:	838fd0ef          	jal	ra,800004f8 <_sbrk>
800034c4:	fff00793          	li	a5,-1
800034c8:	00f51863          	bne	a0,a5,800034d8 <_sbrk_r+0x30>
800034cc:	8141a783          	lw	a5,-2028(gp) # 90000074 <errno>
800034d0:	00078463          	beqz	a5,800034d8 <_sbrk_r+0x30>
800034d4:	00f42023          	sw	a5,0(s0)
800034d8:	00c12083          	lw	ra,12(sp)
800034dc:	00812403          	lw	s0,8(sp)
800034e0:	01010113          	addi	sp,sp,16
800034e4:	00008067          	ret

800034e8 <__sread>:
__sread():
800034e8:	ff010113          	addi	sp,sp,-16
800034ec:	00812423          	sw	s0,8(sp)
800034f0:	00058413          	mv	s0,a1
800034f4:	00e59583          	lh	a1,14(a1)
800034f8:	00112623          	sw	ra,12(sp)
800034fc:	7f4000ef          	jal	ra,80003cf0 <_read_r>
80003500:	02054063          	bltz	a0,80003520 <__sread+0x38>
80003504:	05442783          	lw	a5,84(s0)
80003508:	00a787b3          	add	a5,a5,a0
8000350c:	04f42a23          	sw	a5,84(s0)
80003510:	00c12083          	lw	ra,12(sp)
80003514:	00812403          	lw	s0,8(sp)
80003518:	01010113          	addi	sp,sp,16
8000351c:	00008067          	ret
80003520:	00c45783          	lhu	a5,12(s0)
80003524:	fffff737          	lui	a4,0xfffff
80003528:	fff70713          	addi	a4,a4,-1 # ffffefff <_sp+0x6ffeefff>
8000352c:	00e7f7b3          	and	a5,a5,a4
80003530:	00f41623          	sh	a5,12(s0)
80003534:	fddff06f          	j	80003510 <__sread+0x28>

80003538 <__swrite>:
__swrite():
80003538:	00c5d783          	lhu	a5,12(a1)
8000353c:	fe010113          	addi	sp,sp,-32
80003540:	00812c23          	sw	s0,24(sp)
80003544:	00912a23          	sw	s1,20(sp)
80003548:	01212823          	sw	s2,16(sp)
8000354c:	01312623          	sw	s3,12(sp)
80003550:	00112e23          	sw	ra,28(sp)
80003554:	1007f793          	andi	a5,a5,256
80003558:	00050493          	mv	s1,a0
8000355c:	00058413          	mv	s0,a1
80003560:	00060913          	mv	s2,a2
80003564:	00068993          	mv	s3,a3
80003568:	00078a63          	beqz	a5,8000357c <__swrite+0x44>
8000356c:	00e59583          	lh	a1,14(a1)
80003570:	00200693          	li	a3,2
80003574:	00000613          	li	a2,0
80003578:	1b0000ef          	jal	ra,80003728 <_lseek_r>
8000357c:	00c45783          	lhu	a5,12(s0)
80003580:	fffff737          	lui	a4,0xfffff
80003584:	fff70713          	addi	a4,a4,-1 # ffffefff <_sp+0x6ffeefff>
80003588:	00e7f7b3          	and	a5,a5,a4
8000358c:	00e41583          	lh	a1,14(s0)
80003590:	00f41623          	sh	a5,12(s0)
80003594:	01812403          	lw	s0,24(sp)
80003598:	01c12083          	lw	ra,28(sp)
8000359c:	00098693          	mv	a3,s3
800035a0:	00090613          	mv	a2,s2
800035a4:	00c12983          	lw	s3,12(sp)
800035a8:	01012903          	lw	s2,16(sp)
800035ac:	00048513          	mv	a0,s1
800035b0:	01412483          	lw	s1,20(sp)
800035b4:	02010113          	addi	sp,sp,32
800035b8:	0640006f          	j	8000361c <_write_r>

800035bc <__sseek>:
__sseek():
800035bc:	ff010113          	addi	sp,sp,-16
800035c0:	00812423          	sw	s0,8(sp)
800035c4:	00058413          	mv	s0,a1
800035c8:	00e59583          	lh	a1,14(a1)
800035cc:	00112623          	sw	ra,12(sp)
800035d0:	158000ef          	jal	ra,80003728 <_lseek_r>
800035d4:	fff00793          	li	a5,-1
800035d8:	00c45703          	lhu	a4,12(s0)
800035dc:	02f51263          	bne	a0,a5,80003600 <__sseek+0x44>
800035e0:	fffff7b7          	lui	a5,0xfffff
800035e4:	fff78793          	addi	a5,a5,-1 # ffffefff <_sp+0x6ffeefff>
800035e8:	00e7f7b3          	and	a5,a5,a4
800035ec:	00f41623          	sh	a5,12(s0)
800035f0:	00c12083          	lw	ra,12(sp)
800035f4:	00812403          	lw	s0,8(sp)
800035f8:	01010113          	addi	sp,sp,16
800035fc:	00008067          	ret
80003600:	000017b7          	lui	a5,0x1
80003604:	00f767b3          	or	a5,a4,a5
80003608:	00f41623          	sh	a5,12(s0)
8000360c:	04a42a23          	sw	a0,84(s0)
80003610:	fe1ff06f          	j	800035f0 <__sseek+0x34>

80003614 <__sclose>:
__sclose():
80003614:	00e59583          	lh	a1,14(a1)
80003618:	04c0006f          	j	80003664 <_close_r>

8000361c <_write_r>:
_write_r():
8000361c:	ff010113          	addi	sp,sp,-16
80003620:	00812423          	sw	s0,8(sp)
80003624:	00050413          	mv	s0,a0
80003628:	00058513          	mv	a0,a1
8000362c:	00060593          	mv	a1,a2
80003630:	00068613          	mv	a2,a3
80003634:	8001aa23          	sw	zero,-2028(gp) # 90000074 <errno>
80003638:	00112623          	sw	ra,12(sp)
8000363c:	ef9fc0ef          	jal	ra,80000534 <_write>
80003640:	fff00793          	li	a5,-1
80003644:	00f51863          	bne	a0,a5,80003654 <_write_r+0x38>
80003648:	8141a783          	lw	a5,-2028(gp) # 90000074 <errno>
8000364c:	00078463          	beqz	a5,80003654 <_write_r+0x38>
80003650:	00f42023          	sw	a5,0(s0)
80003654:	00c12083          	lw	ra,12(sp)
80003658:	00812403          	lw	s0,8(sp)
8000365c:	01010113          	addi	sp,sp,16
80003660:	00008067          	ret

80003664 <_close_r>:
_close_r():
80003664:	ff010113          	addi	sp,sp,-16
80003668:	00812423          	sw	s0,8(sp)
8000366c:	00050413          	mv	s0,a0
80003670:	00058513          	mv	a0,a1
80003674:	8001aa23          	sw	zero,-2028(gp) # 90000074 <errno>
80003678:	00112623          	sw	ra,12(sp)
8000367c:	df1fc0ef          	jal	ra,8000046c <_close>
80003680:	fff00793          	li	a5,-1
80003684:	00f51863          	bne	a0,a5,80003694 <_close_r+0x30>
80003688:	8141a783          	lw	a5,-2028(gp) # 90000074 <errno>
8000368c:	00078463          	beqz	a5,80003694 <_close_r+0x30>
80003690:	00f42023          	sw	a5,0(s0)
80003694:	00c12083          	lw	ra,12(sp)
80003698:	00812403          	lw	s0,8(sp)
8000369c:	01010113          	addi	sp,sp,16
800036a0:	00008067          	ret

800036a4 <_fstat_r>:
_fstat_r():
800036a4:	ff010113          	addi	sp,sp,-16
800036a8:	00812423          	sw	s0,8(sp)
800036ac:	00050413          	mv	s0,a0
800036b0:	00058513          	mv	a0,a1
800036b4:	00060593          	mv	a1,a2
800036b8:	8001aa23          	sw	zero,-2028(gp) # 90000074 <errno>
800036bc:	00112623          	sw	ra,12(sp)
800036c0:	dbdfc0ef          	jal	ra,8000047c <_fstat>
800036c4:	fff00793          	li	a5,-1
800036c8:	00f51863          	bne	a0,a5,800036d8 <_fstat_r+0x34>
800036cc:	8141a783          	lw	a5,-2028(gp) # 90000074 <errno>
800036d0:	00078463          	beqz	a5,800036d8 <_fstat_r+0x34>
800036d4:	00f42023          	sw	a5,0(s0)
800036d8:	00c12083          	lw	ra,12(sp)
800036dc:	00812403          	lw	s0,8(sp)
800036e0:	01010113          	addi	sp,sp,16
800036e4:	00008067          	ret

800036e8 <_isatty_r>:
_isatty_r():
800036e8:	ff010113          	addi	sp,sp,-16
800036ec:	00812423          	sw	s0,8(sp)
800036f0:	00050413          	mv	s0,a0
800036f4:	00058513          	mv	a0,a1
800036f8:	8001aa23          	sw	zero,-2028(gp) # 90000074 <errno>
800036fc:	00112623          	sw	ra,12(sp)
80003700:	da9fc0ef          	jal	ra,800004a8 <_isatty>
80003704:	fff00793          	li	a5,-1
80003708:	00f51863          	bne	a0,a5,80003718 <_isatty_r+0x30>
8000370c:	8141a783          	lw	a5,-2028(gp) # 90000074 <errno>
80003710:	00078463          	beqz	a5,80003718 <_isatty_r+0x30>
80003714:	00f42023          	sw	a5,0(s0)
80003718:	00c12083          	lw	ra,12(sp)
8000371c:	00812403          	lw	s0,8(sp)
80003720:	01010113          	addi	sp,sp,16
80003724:	00008067          	ret

80003728 <_lseek_r>:
_lseek_r():
80003728:	ff010113          	addi	sp,sp,-16
8000372c:	00812423          	sw	s0,8(sp)
80003730:	00050413          	mv	s0,a0
80003734:	00058513          	mv	a0,a1
80003738:	00060593          	mv	a1,a2
8000373c:	00068613          	mv	a2,a3
80003740:	8001aa23          	sw	zero,-2028(gp) # 90000074 <errno>
80003744:	00112623          	sw	ra,12(sp)
80003748:	d69fc0ef          	jal	ra,800004b0 <_lseek>
8000374c:	fff00793          	li	a5,-1
80003750:	00f51863          	bne	a0,a5,80003760 <_lseek_r+0x38>
80003754:	8141a783          	lw	a5,-2028(gp) # 90000074 <errno>
80003758:	00078463          	beqz	a5,80003760 <_lseek_r+0x38>
8000375c:	00f42023          	sw	a5,0(s0)
80003760:	00c12083          	lw	ra,12(sp)
80003764:	00812403          	lw	s0,8(sp)
80003768:	01010113          	addi	sp,sp,16
8000376c:	00008067          	ret

80003770 <memchr>:
memchr():
80003770:	0ff5f593          	andi	a1,a1,255
80003774:	00c50633          	add	a2,a0,a2
80003778:	00c51663          	bne	a0,a2,80003784 <memchr+0x14>
8000377c:	00000513          	li	a0,0
80003780:	00008067          	ret
80003784:	00054783          	lbu	a5,0(a0)
80003788:	feb78ce3          	beq	a5,a1,80003780 <memchr+0x10>
8000378c:	00150513          	addi	a0,a0,1
80003790:	fe9ff06f          	j	80003778 <memchr+0x8>

80003794 <__malloc_lock>:
__malloc_lock():
80003794:	00008067          	ret

80003798 <__malloc_unlock>:
__malloc_unlock():
80003798:	00008067          	ret

8000379c <_printf_common>:
_printf_common():
8000379c:	fd010113          	addi	sp,sp,-48
800037a0:	01412c23          	sw	s4,24(sp)
800037a4:	0105a783          	lw	a5,16(a1)
800037a8:	00070a13          	mv	s4,a4
800037ac:	0085a703          	lw	a4,8(a1)
800037b0:	02812423          	sw	s0,40(sp)
800037b4:	02912223          	sw	s1,36(sp)
800037b8:	01312e23          	sw	s3,28(sp)
800037bc:	01512a23          	sw	s5,20(sp)
800037c0:	02112623          	sw	ra,44(sp)
800037c4:	03212023          	sw	s2,32(sp)
800037c8:	01612823          	sw	s6,16(sp)
800037cc:	01712623          	sw	s7,12(sp)
800037d0:	00050993          	mv	s3,a0
800037d4:	00058413          	mv	s0,a1
800037d8:	00060493          	mv	s1,a2
800037dc:	00068a93          	mv	s5,a3
800037e0:	00e7d463          	bge	a5,a4,800037e8 <_printf_common+0x4c>
800037e4:	00070793          	mv	a5,a4
800037e8:	00f4a023          	sw	a5,0(s1)
800037ec:	04344703          	lbu	a4,67(s0)
800037f0:	00070663          	beqz	a4,800037fc <_printf_common+0x60>
800037f4:	00178793          	addi	a5,a5,1 # 1001 <__stack_size+0x801>
800037f8:	00f4a023          	sw	a5,0(s1)
800037fc:	00042783          	lw	a5,0(s0)
80003800:	0207f793          	andi	a5,a5,32
80003804:	00078863          	beqz	a5,80003814 <_printf_common+0x78>
80003808:	0004a783          	lw	a5,0(s1)
8000380c:	00278793          	addi	a5,a5,2
80003810:	00f4a023          	sw	a5,0(s1)
80003814:	00042903          	lw	s2,0(s0)
80003818:	00697913          	andi	s2,s2,6
8000381c:	00091e63          	bnez	s2,80003838 <_printf_common+0x9c>
80003820:	01940b13          	addi	s6,s0,25
80003824:	fff00b93          	li	s7,-1
80003828:	00c42783          	lw	a5,12(s0)
8000382c:	0004a703          	lw	a4,0(s1)
80003830:	40e787b3          	sub	a5,a5,a4
80003834:	08f94263          	blt	s2,a5,800038b8 <_printf_common+0x11c>
80003838:	04344783          	lbu	a5,67(s0)
8000383c:	00f036b3          	snez	a3,a5
80003840:	00042783          	lw	a5,0(s0)
80003844:	0207f793          	andi	a5,a5,32
80003848:	0c079063          	bnez	a5,80003908 <_printf_common+0x16c>
8000384c:	04340613          	addi	a2,s0,67
80003850:	000a8593          	mv	a1,s5
80003854:	00098513          	mv	a0,s3
80003858:	000a00e7          	jalr	s4
8000385c:	fff00793          	li	a5,-1
80003860:	06f50863          	beq	a0,a5,800038d0 <_printf_common+0x134>
80003864:	00042783          	lw	a5,0(s0)
80003868:	00400613          	li	a2,4
8000386c:	0004a703          	lw	a4,0(s1)
80003870:	0067f793          	andi	a5,a5,6
80003874:	00c42683          	lw	a3,12(s0)
80003878:	00000493          	li	s1,0
8000387c:	00c79863          	bne	a5,a2,8000388c <_printf_common+0xf0>
80003880:	40e684b3          	sub	s1,a3,a4
80003884:	0004d463          	bgez	s1,8000388c <_printf_common+0xf0>
80003888:	00000493          	li	s1,0
8000388c:	00842783          	lw	a5,8(s0)
80003890:	01042703          	lw	a4,16(s0)
80003894:	00f75663          	bge	a4,a5,800038a0 <_printf_common+0x104>
80003898:	40e787b3          	sub	a5,a5,a4
8000389c:	00f484b3          	add	s1,s1,a5
800038a0:	00000913          	li	s2,0
800038a4:	01a40413          	addi	s0,s0,26
800038a8:	fff00b13          	li	s6,-1
800038ac:	09249063          	bne	s1,s2,8000392c <_printf_common+0x190>
800038b0:	00000513          	li	a0,0
800038b4:	0200006f          	j	800038d4 <_printf_common+0x138>
800038b8:	00100693          	li	a3,1
800038bc:	000b0613          	mv	a2,s6
800038c0:	000a8593          	mv	a1,s5
800038c4:	00098513          	mv	a0,s3
800038c8:	000a00e7          	jalr	s4
800038cc:	03751a63          	bne	a0,s7,80003900 <_printf_common+0x164>
800038d0:	fff00513          	li	a0,-1
800038d4:	02c12083          	lw	ra,44(sp)
800038d8:	02812403          	lw	s0,40(sp)
800038dc:	02412483          	lw	s1,36(sp)
800038e0:	02012903          	lw	s2,32(sp)
800038e4:	01c12983          	lw	s3,28(sp)
800038e8:	01812a03          	lw	s4,24(sp)
800038ec:	01412a83          	lw	s5,20(sp)
800038f0:	01012b03          	lw	s6,16(sp)
800038f4:	00c12b83          	lw	s7,12(sp)
800038f8:	03010113          	addi	sp,sp,48
800038fc:	00008067          	ret
80003900:	00190913          	addi	s2,s2,1
80003904:	f25ff06f          	j	80003828 <_printf_common+0x8c>
80003908:	00d40733          	add	a4,s0,a3
8000390c:	03000613          	li	a2,48
80003910:	04c701a3          	sb	a2,67(a4)
80003914:	04544703          	lbu	a4,69(s0)
80003918:	00168793          	addi	a5,a3,1
8000391c:	00f407b3          	add	a5,s0,a5
80003920:	00268693          	addi	a3,a3,2
80003924:	04e781a3          	sb	a4,67(a5)
80003928:	f25ff06f          	j	8000384c <_printf_common+0xb0>
8000392c:	00100693          	li	a3,1
80003930:	00040613          	mv	a2,s0
80003934:	000a8593          	mv	a1,s5
80003938:	00098513          	mv	a0,s3
8000393c:	000a00e7          	jalr	s4
80003940:	f96508e3          	beq	a0,s6,800038d0 <_printf_common+0x134>
80003944:	00190913          	addi	s2,s2,1
80003948:	f65ff06f          	j	800038ac <_printf_common+0x110>

8000394c <_printf_i>:
_printf_i():
8000394c:	fd010113          	addi	sp,sp,-48
80003950:	02812423          	sw	s0,40(sp)
80003954:	02912223          	sw	s1,36(sp)
80003958:	03212023          	sw	s2,32(sp)
8000395c:	01312e23          	sw	s3,28(sp)
80003960:	02112623          	sw	ra,44(sp)
80003964:	01412c23          	sw	s4,24(sp)
80003968:	01512a23          	sw	s5,20(sp)
8000396c:	01612823          	sw	s6,16(sp)
80003970:	0185c803          	lbu	a6,24(a1)
80003974:	07800793          	li	a5,120
80003978:	00050493          	mv	s1,a0
8000397c:	00058413          	mv	s0,a1
80003980:	00060913          	mv	s2,a2
80003984:	00068993          	mv	s3,a3
80003988:	0107ee63          	bltu	a5,a6,800039a4 <_printf_i+0x58>
8000398c:	06200793          	li	a5,98
80003990:	04358693          	addi	a3,a1,67
80003994:	0107ee63          	bltu	a5,a6,800039b0 <_printf_i+0x64>
80003998:	28080c63          	beqz	a6,80003c30 <_printf_i+0x2e4>
8000399c:	05800793          	li	a5,88
800039a0:	1cf80263          	beq	a6,a5,80003b64 <_printf_i+0x218>
800039a4:	04240a93          	addi	s5,s0,66
800039a8:	05040123          	sb	a6,66(s0)
800039ac:	0480006f          	j	800039f4 <_printf_i+0xa8>
800039b0:	f9d80793          	addi	a5,a6,-99
800039b4:	0ff7f793          	andi	a5,a5,255
800039b8:	01500613          	li	a2,21
800039bc:	fef664e3          	bltu	a2,a5,800039a4 <_printf_i+0x58>
800039c0:	00001617          	auipc	a2,0x1
800039c4:	a2860613          	addi	a2,a2,-1496 # 800043e8 <__sf_fake_stdout+0x5c>
800039c8:	00279793          	slli	a5,a5,0x2
800039cc:	00c787b3          	add	a5,a5,a2
800039d0:	0007a783          	lw	a5,0(a5)
800039d4:	00c787b3          	add	a5,a5,a2
800039d8:	00078067          	jr	a5
800039dc:	00072783          	lw	a5,0(a4)
800039e0:	04258a93          	addi	s5,a1,66
800039e4:	00478693          	addi	a3,a5,4
800039e8:	0007a783          	lw	a5,0(a5)
800039ec:	00d72023          	sw	a3,0(a4)
800039f0:	04f58123          	sb	a5,66(a1)
800039f4:	00100793          	li	a5,1
800039f8:	2740006f          	j	80003c6c <_printf_i+0x320>
800039fc:	0005a783          	lw	a5,0(a1)
80003a00:	00072503          	lw	a0,0(a4)
80003a04:	0807f613          	andi	a2,a5,128
80003a08:	00450593          	addi	a1,a0,4
80003a0c:	02060663          	beqz	a2,80003a38 <_printf_i+0xec>
80003a10:	00052783          	lw	a5,0(a0)
80003a14:	00b72023          	sw	a1,0(a4)
80003a18:	0007d863          	bgez	a5,80003a28 <_printf_i+0xdc>
80003a1c:	02d00713          	li	a4,45
80003a20:	40f007b3          	neg	a5,a5
80003a24:	04e401a3          	sb	a4,67(s0)
80003a28:	00001617          	auipc	a2,0x1
80003a2c:	99860613          	addi	a2,a2,-1640 # 800043c0 <__sf_fake_stdout+0x34>
80003a30:	00a00813          	li	a6,10
80003a34:	0680006f          	j	80003a9c <_printf_i+0x150>
80003a38:	0407f613          	andi	a2,a5,64
80003a3c:	00052783          	lw	a5,0(a0)
80003a40:	00b72023          	sw	a1,0(a4)
80003a44:	fc060ae3          	beqz	a2,80003a18 <_printf_i+0xcc>
80003a48:	01079793          	slli	a5,a5,0x10
80003a4c:	4107d793          	srai	a5,a5,0x10
80003a50:	fc9ff06f          	j	80003a18 <_printf_i+0xcc>
80003a54:	0005a603          	lw	a2,0(a1)
80003a58:	00072783          	lw	a5,0(a4)
80003a5c:	08067513          	andi	a0,a2,128
80003a60:	00478593          	addi	a1,a5,4
80003a64:	00050863          	beqz	a0,80003a74 <_printf_i+0x128>
80003a68:	00b72023          	sw	a1,0(a4)
80003a6c:	0007a783          	lw	a5,0(a5)
80003a70:	0140006f          	j	80003a84 <_printf_i+0x138>
80003a74:	04067613          	andi	a2,a2,64
80003a78:	00b72023          	sw	a1,0(a4)
80003a7c:	fe0608e3          	beqz	a2,80003a6c <_printf_i+0x120>
80003a80:	0007d783          	lhu	a5,0(a5)
80003a84:	06f00713          	li	a4,111
80003a88:	00001617          	auipc	a2,0x1
80003a8c:	93860613          	addi	a2,a2,-1736 # 800043c0 <__sf_fake_stdout+0x34>
80003a90:	14e80e63          	beq	a6,a4,80003bec <_printf_i+0x2a0>
80003a94:	00a00813          	li	a6,10
80003a98:	040401a3          	sb	zero,67(s0)
80003a9c:	00442703          	lw	a4,4(s0)
80003aa0:	00e42423          	sw	a4,8(s0)
80003aa4:	00074863          	bltz	a4,80003ab4 <_printf_i+0x168>
80003aa8:	00042583          	lw	a1,0(s0)
80003aac:	ffb5f593          	andi	a1,a1,-5
80003ab0:	00b42023          	sw	a1,0(s0)
80003ab4:	00079663          	bnez	a5,80003ac0 <_printf_i+0x174>
80003ab8:	00068a93          	mv	s5,a3
80003abc:	02070463          	beqz	a4,80003ae4 <_printf_i+0x198>
80003ac0:	00068a93          	mv	s5,a3
80003ac4:	0307f733          	remu	a4,a5,a6
80003ac8:	fffa8a93          	addi	s5,s5,-1
80003acc:	00e60733          	add	a4,a2,a4
80003ad0:	00074703          	lbu	a4,0(a4)
80003ad4:	00ea8023          	sb	a4,0(s5)
80003ad8:	00078713          	mv	a4,a5
80003adc:	0307d7b3          	divu	a5,a5,a6
80003ae0:	ff0772e3          	bgeu	a4,a6,80003ac4 <_printf_i+0x178>
80003ae4:	00800793          	li	a5,8
80003ae8:	02f81463          	bne	a6,a5,80003b10 <_printf_i+0x1c4>
80003aec:	00042783          	lw	a5,0(s0)
80003af0:	0017f793          	andi	a5,a5,1
80003af4:	00078e63          	beqz	a5,80003b10 <_printf_i+0x1c4>
80003af8:	00442703          	lw	a4,4(s0)
80003afc:	01042783          	lw	a5,16(s0)
80003b00:	00e7c863          	blt	a5,a4,80003b10 <_printf_i+0x1c4>
80003b04:	03000793          	li	a5,48
80003b08:	fefa8fa3          	sb	a5,-1(s5)
80003b0c:	fffa8a93          	addi	s5,s5,-1
80003b10:	415686b3          	sub	a3,a3,s5
80003b14:	00d42823          	sw	a3,16(s0)
80003b18:	00098713          	mv	a4,s3
80003b1c:	00090693          	mv	a3,s2
80003b20:	00c10613          	addi	a2,sp,12
80003b24:	00040593          	mv	a1,s0
80003b28:	00048513          	mv	a0,s1
80003b2c:	c71ff0ef          	jal	ra,8000379c <_printf_common>
80003b30:	fff00a13          	li	s4,-1
80003b34:	15451263          	bne	a0,s4,80003c78 <_printf_i+0x32c>
80003b38:	fff00513          	li	a0,-1
80003b3c:	02c12083          	lw	ra,44(sp)
80003b40:	02812403          	lw	s0,40(sp)
80003b44:	02412483          	lw	s1,36(sp)
80003b48:	02012903          	lw	s2,32(sp)
80003b4c:	01c12983          	lw	s3,28(sp)
80003b50:	01812a03          	lw	s4,24(sp)
80003b54:	01412a83          	lw	s5,20(sp)
80003b58:	01012b03          	lw	s6,16(sp)
80003b5c:	03010113          	addi	sp,sp,48
80003b60:	00008067          	ret
80003b64:	050582a3          	sb	a6,69(a1)
80003b68:	00001617          	auipc	a2,0x1
80003b6c:	85860613          	addi	a2,a2,-1960 # 800043c0 <__sf_fake_stdout+0x34>
80003b70:	00042583          	lw	a1,0(s0)
80003b74:	00072503          	lw	a0,0(a4)
80003b78:	0805f813          	andi	a6,a1,128
80003b7c:	00052783          	lw	a5,0(a0)
80003b80:	00450513          	addi	a0,a0,4
80003b84:	04080863          	beqz	a6,80003bd4 <_printf_i+0x288>
80003b88:	00a72023          	sw	a0,0(a4)
80003b8c:	0015f713          	andi	a4,a1,1
80003b90:	00070663          	beqz	a4,80003b9c <_printf_i+0x250>
80003b94:	0205e593          	ori	a1,a1,32
80003b98:	00b42023          	sw	a1,0(s0)
80003b9c:	01000813          	li	a6,16
80003ba0:	ee079ce3          	bnez	a5,80003a98 <_printf_i+0x14c>
80003ba4:	00042703          	lw	a4,0(s0)
80003ba8:	fdf77713          	andi	a4,a4,-33
80003bac:	00e42023          	sw	a4,0(s0)
80003bb0:	ee9ff06f          	j	80003a98 <_printf_i+0x14c>
80003bb4:	0005a783          	lw	a5,0(a1)
80003bb8:	0207e793          	ori	a5,a5,32
80003bbc:	00f5a023          	sw	a5,0(a1)
80003bc0:	07800793          	li	a5,120
80003bc4:	04f402a3          	sb	a5,69(s0)
80003bc8:	00001617          	auipc	a2,0x1
80003bcc:	80c60613          	addi	a2,a2,-2036 # 800043d4 <__sf_fake_stdout+0x48>
80003bd0:	fa1ff06f          	j	80003b70 <_printf_i+0x224>
80003bd4:	0405f813          	andi	a6,a1,64
80003bd8:	00a72023          	sw	a0,0(a4)
80003bdc:	fa0808e3          	beqz	a6,80003b8c <_printf_i+0x240>
80003be0:	01079793          	slli	a5,a5,0x10
80003be4:	0107d793          	srli	a5,a5,0x10
80003be8:	fa5ff06f          	j	80003b8c <_printf_i+0x240>
80003bec:	00800813          	li	a6,8
80003bf0:	ea9ff06f          	j	80003a98 <_printf_i+0x14c>
80003bf4:	0005a603          	lw	a2,0(a1)
80003bf8:	00072783          	lw	a5,0(a4)
80003bfc:	0145a583          	lw	a1,20(a1)
80003c00:	08067813          	andi	a6,a2,128
80003c04:	00478513          	addi	a0,a5,4
80003c08:	00080a63          	beqz	a6,80003c1c <_printf_i+0x2d0>
80003c0c:	00a72023          	sw	a0,0(a4)
80003c10:	0007a783          	lw	a5,0(a5)
80003c14:	00b7a023          	sw	a1,0(a5)
80003c18:	0180006f          	j	80003c30 <_printf_i+0x2e4>
80003c1c:	00a72023          	sw	a0,0(a4)
80003c20:	04067613          	andi	a2,a2,64
80003c24:	0007a783          	lw	a5,0(a5)
80003c28:	fe0606e3          	beqz	a2,80003c14 <_printf_i+0x2c8>
80003c2c:	00b79023          	sh	a1,0(a5)
80003c30:	00042823          	sw	zero,16(s0)
80003c34:	00068a93          	mv	s5,a3
80003c38:	ee1ff06f          	j	80003b18 <_printf_i+0x1cc>
80003c3c:	00072783          	lw	a5,0(a4)
80003c40:	0045a603          	lw	a2,4(a1)
80003c44:	00000593          	li	a1,0
80003c48:	00478693          	addi	a3,a5,4
80003c4c:	00d72023          	sw	a3,0(a4)
80003c50:	0007aa83          	lw	s5,0(a5)
80003c54:	000a8513          	mv	a0,s5
80003c58:	b19ff0ef          	jal	ra,80003770 <memchr>
80003c5c:	00050663          	beqz	a0,80003c68 <_printf_i+0x31c>
80003c60:	41550533          	sub	a0,a0,s5
80003c64:	00a42223          	sw	a0,4(s0)
80003c68:	00442783          	lw	a5,4(s0)
80003c6c:	00f42823          	sw	a5,16(s0)
80003c70:	040401a3          	sb	zero,67(s0)
80003c74:	ea5ff06f          	j	80003b18 <_printf_i+0x1cc>
80003c78:	01042683          	lw	a3,16(s0)
80003c7c:	000a8613          	mv	a2,s5
80003c80:	00090593          	mv	a1,s2
80003c84:	00048513          	mv	a0,s1
80003c88:	000980e7          	jalr	s3
80003c8c:	eb4506e3          	beq	a0,s4,80003b38 <_printf_i+0x1ec>
80003c90:	00042783          	lw	a5,0(s0)
80003c94:	0027f793          	andi	a5,a5,2
80003c98:	04079463          	bnez	a5,80003ce0 <_printf_i+0x394>
80003c9c:	00c12783          	lw	a5,12(sp)
80003ca0:	00c42503          	lw	a0,12(s0)
80003ca4:	e8f55ce3          	bge	a0,a5,80003b3c <_printf_i+0x1f0>
80003ca8:	00078513          	mv	a0,a5
80003cac:	e91ff06f          	j	80003b3c <_printf_i+0x1f0>
80003cb0:	00100693          	li	a3,1
80003cb4:	000a8613          	mv	a2,s5
80003cb8:	00090593          	mv	a1,s2
80003cbc:	00048513          	mv	a0,s1
80003cc0:	000980e7          	jalr	s3
80003cc4:	e7650ae3          	beq	a0,s6,80003b38 <_printf_i+0x1ec>
80003cc8:	001a0a13          	addi	s4,s4,1
80003ccc:	00c42783          	lw	a5,12(s0)
80003cd0:	00c12703          	lw	a4,12(sp)
80003cd4:	40e787b3          	sub	a5,a5,a4
80003cd8:	fcfa4ce3          	blt	s4,a5,80003cb0 <_printf_i+0x364>
80003cdc:	fc1ff06f          	j	80003c9c <_printf_i+0x350>
80003ce0:	00000a13          	li	s4,0
80003ce4:	01940a93          	addi	s5,s0,25
80003ce8:	fff00b13          	li	s6,-1
80003cec:	fe1ff06f          	j	80003ccc <_printf_i+0x380>

80003cf0 <_read_r>:
_read_r():
80003cf0:	ff010113          	addi	sp,sp,-16
80003cf4:	00812423          	sw	s0,8(sp)
80003cf8:	00050413          	mv	s0,a0
80003cfc:	00058513          	mv	a0,a1
80003d00:	00060593          	mv	a1,a2
80003d04:	00068613          	mv	a2,a3
80003d08:	8001aa23          	sw	zero,-2028(gp) # 90000074 <errno>
80003d0c:	00112623          	sw	ra,12(sp)
80003d10:	fa8fc0ef          	jal	ra,800004b8 <_read>
80003d14:	fff00793          	li	a5,-1
80003d18:	00f51863          	bne	a0,a5,80003d28 <_read_r+0x38>
80003d1c:	8141a783          	lw	a5,-2028(gp) # 90000074 <errno>
80003d20:	00078463          	beqz	a5,80003d28 <_read_r+0x38>
80003d24:	00f42023          	sw	a5,0(s0)
80003d28:	00c12083          	lw	ra,12(sp)
80003d2c:	00812403          	lw	s0,8(sp)
80003d30:	01010113          	addi	sp,sp,16
80003d34:	00008067          	ret
