
decmec.elf:     file format elf32-littleriscv
decmec.elf
architecture: riscv:rv32, flags 0x00000112:
EXEC_P, HAS_SYMS, D_PAGED
start address 0x80000000

Program Header:
    LOAD off    0x00001000 vaddr 0x80000000 paddr 0x80000000 align 2**12
         filesz 0x000022a4 memsz 0x000022a4 flags r-x
    LOAD off    0x00004000 vaddr 0x90000000 paddr 0x800022a4 align 2**12
         filesz 0x00000074 memsz 0x00000074 flags rw-
    LOAD off    0x00000074 vaddr 0x90000074 paddr 0x90000074 align 2**12
         filesz 0x00000000 memsz 0x00000154 flags rw-
    LOAD off    0x00000800 vaddr 0x9000f800 paddr 0x900001c8 align 2**12
         filesz 0x00000000 memsz 0x00000800 flags rw-

Sections:
Idx Name              Size      VMA       LMA       File off  Algn  Flags
  0 .init             000000b4  80000000  80000000  00001000  2**0  CONTENTS, ALLOC, LOAD, READONLY, CODE
  1 .ilalign          00000000  800000b4  800000b4  00004074  2**0  CONTENTS
  2 .text             00001ece  800000b4  800000b4  000010b4  2**2  CONTENTS, ALLOC, LOAD, READONLY, CODE
  3 .rodata           00000320  80001f84  80001f84  00002f84  2**2  CONTENTS, ALLOC, LOAD, READONLY, DATA
  4 .lalign           00000000  800022a4  800022a4  00004074  2**0  CONTENTS
  5 .dalign           00000000  90000000  90000000  00004074  2**0  CONTENTS
  6 .data             00000074  90000000  800022a4  00004000  2**2  CONTENTS, ALLOC, LOAD, DATA
  7 .bss              00000154  90000074  90000074  00004074  2**2  ALLOC
  8 .stack            00000800  9000f800  900001c8  00004800  2**0  ALLOC
  9 .debug_info       000035a1  00000000  00000000  00004074  2**0  CONTENTS, READONLY, DEBUGGING, OCTETS
 10 .debug_abbrev     00001201  00000000  00000000  00007615  2**0  CONTENTS, READONLY, DEBUGGING, OCTETS
 11 .debug_loc        000020b6  00000000  00000000  00008816  2**0  CONTENTS, READONLY, DEBUGGING, OCTETS
 12 .debug_aranges    00000340  00000000  00000000  0000a8d0  2**3  CONTENTS, READONLY, DEBUGGING, OCTETS
 13 .debug_ranges     00000458  00000000  00000000  0000ac10  2**0  CONTENTS, READONLY, DEBUGGING, OCTETS
 14 .debug_line       000040ae  00000000  00000000  0000b068  2**0  CONTENTS, READONLY, DEBUGGING, OCTETS
 15 .debug_str        00001314  00000000  00000000  0000f116  2**0  CONTENTS, READONLY, DEBUGGING, OCTETS
 16 .comment          00000012  00000000  00000000  0001042a  2**0  CONTENTS, READONLY
 17 .riscv.attributes 0000002f  00000000  00000000  0001043c  2**0  CONTENTS, READONLY
 18 .debug_frame      000004e8  00000000  00000000  0001046c  2**2  CONTENTS, READONLY, DEBUGGING, OCTETS
SYMBOL TABLE:
80000000 l    d  .init	00000000 .init
800000b4 l    d  .ilalign	00000000 .ilalign
800000b4 l    d  .text	00000000 .text
80001f84 l    d  .rodata	00000000 .rodata
800022a4 l    d  .lalign	00000000 .lalign
90000000 l    d  .dalign	00000000 .dalign
90000000 l    d  .data	00000000 .data
90000074 l    d  .bss	00000000 .bss
9000f800 l    d  .stack	00000000 .stack
00000000 l    d  .debug_info	00000000 .debug_info
00000000 l    d  .debug_abbrev	00000000 .debug_abbrev
00000000 l    d  .debug_loc	00000000 .debug_loc
00000000 l    d  .debug_aranges	00000000 .debug_aranges
00000000 l    d  .debug_ranges	00000000 .debug_ranges
00000000 l    d  .debug_line	00000000 .debug_line
00000000 l    d  .debug_str	00000000 .debug_str
00000000 l    d  .comment	00000000 .comment
00000000 l    d  .riscv.attributes	00000000 .riscv.attributes
00000000 l    d  .debug_frame	00000000 .debug_frame
00000000 l    df *ABS*	00000000 main.c
9000011c l     O .bss	0000001e misa_chars.0
00000000 l    df *ABS*	00000000 close.c
00000000 l    df *ABS*	00000000 fstat.c
00000000 l    df *ABS*	00000000 isatty.c
00000000 l    df *ABS*	00000000 lseek.c
00000000 l    df *ABS*	00000000 read.c
00000000 l    df *ABS*	00000000 sbrk.c
90000060 l     O .data	00000004 curbrk.0
00000000 l    df *ABS*	00000000 write.c
00000000 l    df *ABS*	00000000 hbirdv2_gpio.c
00000000 l    df *ABS*	00000000 hbirdv2_uart.c
00000000 l    df *ABS*	00000000 hbirdv2_common.c
00000000 l    df *ABS*	00000000 system_hbirdv2.c
800003a8 l     F .text	00000044 system_default_exception_handler
800003ec l     F .text	00000048 system_default_interrupt_handler
90000084 l     O .bss	00000028 SystemCoreInterruptHandlers
900000ac l     O .bss	0000002c SystemExceptionHandlers
900000d8 l     O .bss	00000044 SystemExtInterruptHandlers
00000000 l    df *ABS*	00000000 libgcc2.c
00000000 l    df *ABS*	00000000 atexit.c
00000000 l    df *ABS*	00000000 fini.c
00000000 l    df *ABS*	00000000 init.c
00000000 l    df *ABS*	00000000 printf.c
00000000 l    df *ABS*	00000000 puts.c
00000000 l    df *ABS*	00000000 rand.c
00000000 l    df *ABS*	00000000 sysisatty.c
00000000 l    df *ABS*	00000000 wbuf.c
00000000 l    df *ABS*	00000000 wsetup.c
00000000 l    df *ABS*	00000000 __atexit.c
9000013c l     O .bss	0000008c _global_atexit0
00000000 l    df *ABS*	00000000 fflush.c
00000000 l    df *ABS*	00000000 findfp.c
800011d6 l     F .text	00000068 std
00000000 l    df *ABS*	00000000 fwalk.c
00000000 l    df *ABS*	00000000 makebuf.c
00000000 l    df *ABS*	00000000 malloc.c
00000000 l    df *ABS*	00000000 nano-mallocr.c
00000000 l    df *ABS*	00000000 nano-mallocr.c
00000000 l    df *ABS*	00000000 nano-vfprintf.c
80001708 l     F .text	0000002a __sfputc_r
00000000 l    df *ABS*	00000000 sbrkr.c
00000000 l    df *ABS*	00000000 stdio.c
00000000 l    df *ABS*	00000000 writer.c
00000000 l    df *ABS*	00000000 closer.c
00000000 l    df *ABS*	00000000 fstatr.c
00000000 l    df *ABS*	00000000 isattyr.c
00000000 l    df *ABS*	00000000 lseekr.c
00000000 l    df *ABS*	00000000 memchr.c
00000000 l    df *ABS*	00000000 mlock.c
00000000 l    df *ABS*	00000000 nano-vfprintf_i.c
00000000 l    df *ABS*	00000000 readr.c
00000000 l    df *ABS*	00000000 libgcc2.c
00000000 l    df *ABS*	00000000 impure.c
90000000 l     O .data	00000060 impure_data
00000000 l    df *ABS*	00000000 
800022a4 l       .rodata	00000000 __fini_array_end
800022a4 l       .rodata	00000000 __fini_array_start
800022a4 l       .rodata	00000000 __init_array_end
800022a4 l       .rodata	00000000 __preinit_array_end
800022a4 l       .rodata	00000000 __init_array_start
800022a4 l       .rodata	00000000 __preinit_array_start
80001b68 g     F .text	00000028 _isatty_r
80000c2e g     F .text	000000da _puts_r
80001b90 g     F .text	0000002c _lseek_r
80000bf4 g     F .text	0000003a printf
90000860 g       .data	00000000 __global_pointer$
80001aae g     F .text	00000036 __sseek
8000128c g     F .text	00000066 __sinit
80000df2 g     F .text	000000c0 __swbuf_r
80001248 g     F .text	00000044 __sfmoreglue
80001bd8 g     F .text	00000002 __malloc_unlock
80001b3e g     F .text	0000002a _fstat_r
90000074 g     O .bss	00000004 errno
00000800 g       *ABS*	00000000 __stack_size
80000304 g     F .text	00000014 uart_write
800022a4 g       .rodata	00000000 __rt_init_start
800022a4 g       .rodata	00000000 __fsymtab_end
800000b4 g       .ilalign	00000000 _ilm_lma
8000123e g     F .text	0000000a _cleanup_r
80000d08 g     F .text	00000008 puts
800022a4 g       .rodata	00000000 __rt_init_end
90000064 g     O .data	00000004 SystemCoreClock
800014ea g     F .text	00000008 malloc
80000dee g     F .text	00000004 isatty
8000016c  w    F .text	0000001a _fstat
80000396 g     F .text	00000012 get_cpu_freq
80001a08 g     F .text	00000028 _sbrk_r
80001f56 g     F .text	0000002c _read_r
800022a4 g       .rodata	00000000 _eilm
9000f800 g       .stack	00000000 _heap_end
80000186  w    F .text	00000004 _isatty
90000070 g     O .data	00000004 _global_impure_ptr
80000b96 g     F .text	0000005e __libc_init_array
800007f6 g     F .text	00000360 .hidden __udivdi3
800001b0  w    F .text	0000002c _sbrk
800005ba g     F .text	00000002 _init
80000b60 g     F .text	00000036 __libc_fini_array
800000b4 g       .ilalign	00000000 _ilm
800004d2 g     F .text	000000e6 _premain_init
800021b0 g     O .rodata	00000020 __sf_fake_stderr
80000442 g     F .text	00000090 core_trap_handler
80001732 g     F .text	00000042 __sfputs_r
800002ca g     F .text	0000003a uart_init
80001bbc g     F .text	0000001a memchr
8000159a g     F .text	0000009e _free_r
90000078 g     O .bss	00000004 _global_atexit
90010000 g       .stack	00000000 _sp
80000000 g     F .init	00000000 _start
80000d68 g     F .text	00000086 rand
8000018a  w    F .text	00000004 _lseek
80000fb8 g     F .text	00000074 __register_exitproc
80001b16 g     F .text	00000028 _close_r
80000eb2 g     F .text	00000106 __swsetup_r
800012f2 g     F .text	00000098 __sfp
80001a30 g     F .text	00000030 __sread
80001bd6 g     F .text	00000002 __malloc_lock
80001172 g     F .text	00000064 _fflush_r
800021d0 g     O .rodata	00000020 __sf_fake_stdin
90000074 g       .bss	00000000 __bss_start
800014f2 g     F .text	000000a8 memset
800000b4 g     F .text	000000ae main
80000240  w      .text	00000000 trap_entry
80000d10 g     F .text	00000058 srand
80001ae4 g     F .text	00000006 __sclose
80001638 g     F .text	000000d0 _malloc_r
800022a4 g       .rodata	00000000 __vsymtab_start
80000434 g     F .text	0000000e SystemInit
800005bc g     F .text	00000002 _fini
80000bf4 g     F .text	0000003a iprintf
800020b0 g     O .rodata	00000100 .hidden __clz_tab
80000b56 g     F .text	0000000a atexit
80001aea g     F .text	0000002c _write_r
80001bda g     F .text	0000010c _printf_common
90000068 g     O .data	00000004 _impure_ptr
8000102c g     F .text	00000146 __sflush_r
90000000 g       .dalign	00000000 _data
800022a4 g       .rodata	00000000 __vsymtab_end
8000032e g     F .text	00000068 measure_cpu_freq
800013f4 g     F .text	0000005a __swhatbuf_r
800001dc  w    F .text	00000062 _write
90000074 g       .bss	00000000 _edata
800005b8 g     F .text	00000002 _postmain_fini
900001c8 g       .bss	00000000 _end
800022a4 g       .lalign	00000000 _data_lma
80000318 g     F .text	00000016 uart_read
80001a60 g     F .text	0000004e __swrite
80001774 g     F .text	00000294 _vfiprintf_r
8000138a g     F .text	0000006a _fwalk_reent
800021f0 g     O .rodata	00000020 __sf_fake_stdout
800005be g     F .text	00000238 print_misa
8000018e  w    F .text	00000022 _read
8000144e g     F .text	0000009c __smakebuf_r
80001ce6 g     F .text	00000270 _printf_i
90000080 g     O .bss	00000004 __malloc_sbrk_start
9000007c g     O .bss	00000004 __malloc_free_list
800022a4 g       .rodata	00000000 __fsymtab_start
80001774 g     F .text	00000294 _vfprintf_r
800002b8 g     F .text	00000012 gpio_iof_config
80000162  w    F .text	0000000a _close



Disassembly of section .init:

80000000 <_start>:
_start():
E:\VMshare\e203\zhengdian_E203\sdk\decmec\Release/../hbird_sdk/SoC/hbirdv2/Common/Source/GCC/startup_hbirdv2.S:40
 * Reset Handler called on controller reset
 */
_start:
    /* ===== Startup Stage 1 ===== */
    /* Disable Global Interrupt */
    csrc CSR_MSTATUS, MSTATUS_MIE
80000000:	30047073          	csrci	mstatus,8
E:\VMshare\e203\zhengdian_E203\sdk\decmec\Release/../hbird_sdk/SoC/hbirdv2/Common/Source/GCC/startup_hbirdv2.S:42
    /* Disable all interrupts controlled by CSR MIE */
    csrw CSR_MIE, 0x0
80000004:	30405073          	csrwi	mie,0
E:\VMshare\e203\zhengdian_E203\sdk\decmec\Release/../hbird_sdk/SoC/hbirdv2/Common/Source/GCC/startup_hbirdv2.S:47

    /* Initialize GP and Stack Pointer SP */
    .option push
    .option norelax
    la gp, __global_pointer$
80000008:	10001197          	auipc	gp,0x10001
8000000c:	85818193          	addi	gp,gp,-1960 # 90000860 <__global_pointer$>
E:\VMshare\e203\zhengdian_E203\sdk\decmec\Release/../hbird_sdk/SoC/hbirdv2/Common/Source/GCC/startup_hbirdv2.S:49
    .option pop
    la sp, _sp
80000010:	10010117          	auipc	sp,0x10010
80000014:	ff010113          	addi	sp,sp,-16 # 90010000 <_sp>
E:\VMshare\e203\zhengdian_E203\sdk\decmec\Release/../hbird_sdk/SoC/hbirdv2/Common/Source/GCC/startup_hbirdv2.S:54

    /*
     * Set Trap Entry MTVEC to trap_entry
     */
    la t0, trap_entry
80000018:	00000297          	auipc	t0,0x0
8000001c:	22828293          	addi	t0,t0,552 # 80000240 <trap_entry>
E:\VMshare\e203\zhengdian_E203\sdk\decmec\Release/../hbird_sdk/SoC/hbirdv2/Common/Source/GCC/startup_hbirdv2.S:55
    csrw CSR_MTVEC, t0
80000020:	30529073          	csrw	mtvec,t0
E:\VMshare\e203\zhengdian_E203\sdk\decmec\Release/../hbird_sdk/SoC/hbirdv2/Common/Source/GCC/startup_hbirdv2.S:58

    /* Direct Mode: All exceptions set pc to BASE. */
    csrc CSR_MTVEC, 0x3
80000024:	3051f073          	csrci	mtvec,3
E:\VMshare\e203\zhengdian_E203\sdk\decmec\Release/../hbird_sdk/SoC/hbirdv2/Common/Source/GCC/startup_hbirdv2.S:74
    /* ===== Startup Stage 3 ===== */
    /*
     * Load code section frm FLASH to ILM
     * when code LMA is different with VMA
     */
    la a0, _ilm_lma
80000028:	00000517          	auipc	a0,0x0
8000002c:	08c50513          	addi	a0,a0,140 # 800000b4 <main>
E:\VMshare\e203\zhengdian_E203\sdk\decmec\Release/../hbird_sdk/SoC/hbirdv2/Common/Source/GCC/startup_hbirdv2.S:75
    la a1, _ilm
80000030:	00000597          	auipc	a1,0x0
80000034:	08458593          	addi	a1,a1,132 # 800000b4 <main>
E:\VMshare\e203\zhengdian_E203\sdk\decmec\Release/../hbird_sdk/SoC/hbirdv2/Common/Source/GCC/startup_hbirdv2.S:77
    /* If the ILM phy-address same as the logic-address, then quit */
    beq a0, a1, 2f
80000038:	02b50063          	beq	a0,a1,80000058 <_start+0x58>
E:\VMshare\e203\zhengdian_E203\sdk\decmec\Release/../hbird_sdk/SoC/hbirdv2/Common/Source/GCC/startup_hbirdv2.S:78
    la a2, _eilm
8000003c:	00002617          	auipc	a2,0x2
80000040:	26860613          	addi	a2,a2,616 # 800022a4 <__fsymtab_end>
E:\VMshare\e203\zhengdian_E203\sdk\decmec\Release/../hbird_sdk/SoC/hbirdv2/Common/Source/GCC/startup_hbirdv2.S:79
    bgeu a1, a2, 2f
80000044:	00c5fa63          	bgeu	a1,a2,80000058 <_start+0x58>
E:\VMshare\e203\zhengdian_E203\sdk\decmec\Release/../hbird_sdk/SoC/hbirdv2/Common/Source/GCC/startup_hbirdv2.S:83

1:
    /* Load code section if necessary */
    lw t0, (a0)
80000048:	00052283          	lw	t0,0(a0)
E:\VMshare\e203\zhengdian_E203\sdk\decmec\Release/../hbird_sdk/SoC/hbirdv2/Common/Source/GCC/startup_hbirdv2.S:84
    sw t0, (a1)
8000004c:	0055a023          	sw	t0,0(a1)
E:\VMshare\e203\zhengdian_E203\sdk\decmec\Release/../hbird_sdk/SoC/hbirdv2/Common/Source/GCC/startup_hbirdv2.S:85
    addi a0, a0, 4
80000050:	0511                	addi	a0,a0,4
E:\VMshare\e203\zhengdian_E203\sdk\decmec\Release/../hbird_sdk/SoC/hbirdv2/Common/Source/GCC/startup_hbirdv2.S:86
    addi a1, a1, 4
80000052:	0591                	addi	a1,a1,4
E:\VMshare\e203\zhengdian_E203\sdk\decmec\Release/../hbird_sdk/SoC/hbirdv2/Common/Source/GCC/startup_hbirdv2.S:87
    bltu a1, a2, 1b
80000054:	fec5eae3          	bltu	a1,a2,80000048 <_start+0x48>
E:\VMshare\e203\zhengdian_E203\sdk\decmec\Release/../hbird_sdk/SoC/hbirdv2/Common/Source/GCC/startup_hbirdv2.S:90
2:
    /* Load data section */
    la a0, _data_lma
80000058:	00002517          	auipc	a0,0x2
8000005c:	24c50513          	addi	a0,a0,588 # 800022a4 <__fsymtab_end>
E:\VMshare\e203\zhengdian_E203\sdk\decmec\Release/../hbird_sdk/SoC/hbirdv2/Common/Source/GCC/startup_hbirdv2.S:91
    la a1, _data
80000060:	10000597          	auipc	a1,0x10000
80000064:	fa058593          	addi	a1,a1,-96 # 90000000 <impure_data>
E:\VMshare\e203\zhengdian_E203\sdk\decmec\Release/../hbird_sdk/SoC/hbirdv2/Common/Source/GCC/startup_hbirdv2.S:92
    la a2, _edata
80000068:	81418613          	addi	a2,gp,-2028 # 90000074 <errno>
E:\VMshare\e203\zhengdian_E203\sdk\decmec\Release/../hbird_sdk/SoC/hbirdv2/Common/Source/GCC/startup_hbirdv2.S:93
    bgeu a1, a2, 2f
8000006c:	00c5fa63          	bgeu	a1,a2,80000080 <_start+0x80>
E:\VMshare\e203\zhengdian_E203\sdk\decmec\Release/../hbird_sdk/SoC/hbirdv2/Common/Source/GCC/startup_hbirdv2.S:95
1:
    lw t0, (a0)
80000070:	00052283          	lw	t0,0(a0)
E:\VMshare\e203\zhengdian_E203\sdk\decmec\Release/../hbird_sdk/SoC/hbirdv2/Common/Source/GCC/startup_hbirdv2.S:96
    sw t0, (a1)
80000074:	0055a023          	sw	t0,0(a1)
E:\VMshare\e203\zhengdian_E203\sdk\decmec\Release/../hbird_sdk/SoC/hbirdv2/Common/Source/GCC/startup_hbirdv2.S:97
    addi a0, a0, 4
80000078:	0511                	addi	a0,a0,4
E:\VMshare\e203\zhengdian_E203\sdk\decmec\Release/../hbird_sdk/SoC/hbirdv2/Common/Source/GCC/startup_hbirdv2.S:98
    addi a1, a1, 4
8000007a:	0591                	addi	a1,a1,4
E:\VMshare\e203\zhengdian_E203\sdk\decmec\Release/../hbird_sdk/SoC/hbirdv2/Common/Source/GCC/startup_hbirdv2.S:99
    bltu a1, a2, 1b
8000007c:	fec5eae3          	bltu	a1,a2,80000070 <_start+0x70>
E:\VMshare\e203\zhengdian_E203\sdk\decmec\Release/../hbird_sdk/SoC/hbirdv2/Common/Source/GCC/startup_hbirdv2.S:102
2:
    /* Clear bss section */
    la a0, __bss_start
80000080:	81418513          	addi	a0,gp,-2028 # 90000074 <errno>
E:\VMshare\e203\zhengdian_E203\sdk\decmec\Release/../hbird_sdk/SoC/hbirdv2/Common/Source/GCC/startup_hbirdv2.S:103
    la a1, _end
80000084:	96818593          	addi	a1,gp,-1688 # 900001c8 <_end>
E:\VMshare\e203\zhengdian_E203\sdk\decmec\Release/../hbird_sdk/SoC/hbirdv2/Common/Source/GCC/startup_hbirdv2.S:104
    bgeu a0, a1, 2f
80000088:	00b57763          	bgeu	a0,a1,80000096 <_start+0x96>
E:\VMshare\e203\zhengdian_E203\sdk\decmec\Release/../hbird_sdk/SoC/hbirdv2/Common/Source/GCC/startup_hbirdv2.S:106
1:
    sw zero, (a0)
8000008c:	00052023          	sw	zero,0(a0)
E:\VMshare\e203\zhengdian_E203\sdk\decmec\Release/../hbird_sdk/SoC/hbirdv2/Common/Source/GCC/startup_hbirdv2.S:107
    addi a0, a0, 4
80000090:	0511                	addi	a0,a0,4
E:\VMshare\e203\zhengdian_E203\sdk\decmec\Release/../hbird_sdk/SoC/hbirdv2/Common/Source/GCC/startup_hbirdv2.S:108
    bltu a0, a1, 1b
80000092:	feb56de3          	bltu	a0,a1,8000008c <_start+0x8c>
E:\VMshare\e203\zhengdian_E203\sdk\decmec\Release/../hbird_sdk/SoC/hbirdv2/Common/Source/GCC/startup_hbirdv2.S:115

    /*
     * Call vendor defined SystemInit to
     * initialize the micro-controller system
     */
    call SystemInit
80000096:	2e79                	jal	80000434 <SystemInit>
E:\VMshare\e203\zhengdian_E203\sdk\decmec\Release/../hbird_sdk/SoC/hbirdv2/Common/Source/GCC/startup_hbirdv2.S:118

    /* Call global constructors */
    la a0, __libc_fini_array
80000098:	00001517          	auipc	a0,0x1
8000009c:	ac850513          	addi	a0,a0,-1336 # 80000b60 <__libc_fini_array>
E:\VMshare\e203\zhengdian_E203\sdk\decmec\Release/../hbird_sdk/SoC/hbirdv2/Common/Source/GCC/startup_hbirdv2.S:119
    call atexit
800000a0:	2b7000ef          	jal	ra,80000b56 <atexit>
E:\VMshare\e203\zhengdian_E203\sdk\decmec\Release/../hbird_sdk/SoC/hbirdv2/Common/Source/GCC/startup_hbirdv2.S:121
    /* Call C/C++ constructor start up code */
    call __libc_init_array
800000a4:	2f3000ef          	jal	ra,80000b96 <__libc_init_array>
E:\VMshare\e203\zhengdian_E203\sdk\decmec\Release/../hbird_sdk/SoC/hbirdv2/Common/Source/GCC/startup_hbirdv2.S:124

    /* do pre-init steps before main */
    call _premain_init
800000a8:	212d                	jal	800004d2 <_premain_init>
E:\VMshare\e203\zhengdian_E203\sdk\decmec\Release/../hbird_sdk/SoC/hbirdv2/Common/Source/GCC/startup_hbirdv2.S:127
    /* ===== Call Main Function  ===== */
    /* argc = argv = 0 */
    li a0, 0
800000aa:	4501                	li	a0,0
E:\VMshare\e203\zhengdian_E203\sdk\decmec\Release/../hbird_sdk/SoC/hbirdv2/Common/Source/GCC/startup_hbirdv2.S:128
    li a1, 0
800000ac:	4581                	li	a1,0
E:\VMshare\e203\zhengdian_E203\sdk\decmec\Release/../hbird_sdk/SoC/hbirdv2/Common/Source/GCC/startup_hbirdv2.S:134

#ifdef RTOS_RTTHREAD
    // Call entry function when using RT-Thread
    call entry
#else
    call main
800000ae:	2019                	jal	800000b4 <main>
E:\VMshare\e203\zhengdian_E203\sdk\decmec\Release/../hbird_sdk/SoC/hbirdv2/Common/Source/GCC/startup_hbirdv2.S:137
#endif
    /* do post-main steps after main */
    call _postmain_fini
800000b0:	2321                	jal	800005b8 <_postmain_fini>
E:\VMshare\e203\zhengdian_E203\sdk\decmec\Release/../hbird_sdk/SoC/hbirdv2/Common/Source/GCC/startup_hbirdv2.S:140

1:
    j 1b
800000b2:	a001                	j	800000b2 <_start+0xb2>

Disassembly of section .text:

800000b4 <main>:
main():
E:\VMshare\e203\zhengdian_E203\sdk\decmec\Release/../application/main.c:86

    printf("MISA: RV%s\r\n", misa_chars);
}

int main(void)
{
800000b4:	7179                	addi	sp,sp,-48
800000b6:	d606                	sw	ra,44(sp)
800000b8:	d422                	sw	s0,40(sp)
800000ba:	d226                	sw	s1,36(sp)
800000bc:	d04a                	sw	s2,32(sp)
__get_rv_cycle():
E:\VMshare\e203\zhengdian_E203\sdk\decmec\hbird_sdk\NMSIS\Core\Include/core_feature_base.h:492
{
#if __RISCV_XLEN == 32
    volatile uint32_t high0, low, high;
    uint64_t full;

    high0 = __RV_CSR_READ(CSR_MCYCLEH);
800000be:	b80027f3          	csrr	a5,mcycleh
800000c2:	ca3e                	sw	a5,20(sp)
E:\VMshare\e203\zhengdian_E203\sdk\decmec\hbird_sdk\NMSIS\Core\Include/core_feature_base.h:493
    low = __RV_CSR_READ(CSR_MCYCLE);
800000c4:	b00027f3          	csrr	a5,mcycle
800000c8:	cc3e                	sw	a5,24(sp)
E:\VMshare\e203\zhengdian_E203\sdk\decmec\hbird_sdk\NMSIS\Core\Include/core_feature_base.h:494
    high = __RV_CSR_READ(CSR_MCYCLEH);
800000ca:	b80027f3          	csrr	a5,mcycleh
800000ce:	ce3e                	sw	a5,28(sp)
E:\VMshare\e203\zhengdian_E203\sdk\decmec\hbird_sdk\NMSIS\Core\Include/core_feature_base.h:495
    if (high0 != high) {
800000d0:	4752                	lw	a4,20(sp)
800000d2:	47f2                	lw	a5,28(sp)
800000d4:	00f70563          	beq	a4,a5,800000de <main+0x2a>
E:\VMshare\e203\zhengdian_E203\sdk\decmec\hbird_sdk\NMSIS\Core\Include/core_feature_base.h:496
        low = __RV_CSR_READ(CSR_MCYCLE);
800000d8:	b00027f3          	csrr	a5,mcycle
800000dc:	cc3e                	sw	a5,24(sp)
E:\VMshare\e203\zhengdian_E203\sdk\decmec\hbird_sdk\NMSIS\Core\Include/core_feature_base.h:498
    }
    full = (((uint64_t)high) << 32) | low;
800000de:	47f2                	lw	a5,28(sp)
800000e0:	47e2                	lw	a5,24(sp)
__get_rv_instret():
E:\VMshare\e203\zhengdian_E203\sdk\decmec\hbird_sdk\NMSIS\Core\Include/core_feature_base.h:519
{
#if __RISCV_XLEN == 32
    volatile uint32_t high0, low, high;
    uint64_t full;

    high0 = __RV_CSR_READ(CSR_MINSTRETH);
800000e2:	b8202773          	csrr	a4,minstreth
800000e6:	c43a                	sw	a4,8(sp)
E:\VMshare\e203\zhengdian_E203\sdk\decmec\hbird_sdk\NMSIS\Core\Include/core_feature_base.h:520
    low = __RV_CSR_READ(CSR_MINSTRET);
800000e8:	b0202773          	csrr	a4,minstret
800000ec:	c63a                	sw	a4,12(sp)
E:\VMshare\e203\zhengdian_E203\sdk\decmec\hbird_sdk\NMSIS\Core\Include/core_feature_base.h:521
    high = __RV_CSR_READ(CSR_MINSTRETH);
800000ee:	b8202773          	csrr	a4,minstreth
800000f2:	c83a                	sw	a4,16(sp)
E:\VMshare\e203\zhengdian_E203\sdk\decmec\hbird_sdk\NMSIS\Core\Include/core_feature_base.h:522
    if (high0 != high) {
800000f4:	46a2                	lw	a3,8(sp)
800000f6:	4742                	lw	a4,16(sp)
800000f8:	00e68563          	beq	a3,a4,80000102 <main+0x4e>
E:\VMshare\e203\zhengdian_E203\sdk\decmec\hbird_sdk\NMSIS\Core\Include/core_feature_base.h:523
        low = __RV_CSR_READ(CSR_MINSTRET);
800000fc:	b0202773          	csrr	a4,minstret
80000100:	c63a                	sw	a4,12(sp)
E:\VMshare\e203\zhengdian_E203\sdk\decmec\hbird_sdk\NMSIS\Core\Include/core_feature_base.h:525
    }
    full = (((uint64_t)high) << 32) | low;
80000102:	4742                	lw	a4,16(sp)
80000104:	4732                	lw	a4,12(sp)
main():
E:\VMshare\e203\zhengdian_E203\sdk\decmec\Release/../application/main.c:87
    srand(__get_rv_cycle()  | __get_rv_instret() | __RV_CSR_READ(CSR_MCYCLE));
80000106:	b0002573          	csrr	a0,mcycle
8000010a:	8fd9                	or	a5,a5,a4
8000010c:	8d5d                	or	a0,a0,a5
8000010e:	403000ef          	jal	ra,80000d10 <srand>
E:\VMshare\e203\zhengdian_E203\sdk\decmec\Release/../application/main.c:88
    uint32_t rval = rand();
80000112:	457000ef          	jal	ra,80000d68 <rand>
E:\VMshare\e203\zhengdian_E203\sdk\decmec\Release/../application/main.c:89
    rv_csr_t misa = __RV_CSR_READ(CSR_MISA);
80000116:	301025f3          	csrr	a1,misa
E:\VMshare\e203\zhengdian_E203\sdk\decmec\Release/../application/main.c:91

    printf("MISA: 0x%lx\r\n", misa);
8000011a:	00002517          	auipc	a0,0x2
8000011e:	f4250513          	addi	a0,a0,-190 # 8000205c <_read_r+0x106>
80000122:	2d3000ef          	jal	ra,80000bf4 <iprintf>
E:\VMshare\e203\zhengdian_E203\sdk\decmec\Release/../application/main.c:92
    print_misa();
80000126:	2961                	jal	800005be <print_misa>
E:\VMshare\e203\zhengdian_E203\sdk\decmec\Release/../application/main.c:94

    for (int i = 0; i < 20; i ++) {
80000128:	4401                	li	s0,0
E:\VMshare\e203\zhengdian_E203\sdk\decmec\Release/../application/main.c:95
        printf("%d: Hello World From RISC-V Processor!\r\n", i);
8000012a:	00002917          	auipc	s2,0x2
8000012e:	f4290913          	addi	s2,s2,-190 # 8000206c <_read_r+0x116>
E:\VMshare\e203\zhengdian_E203\sdk\decmec\Release/../application/main.c:94
    for (int i = 0; i < 20; i ++) {
80000132:	44d1                	li	s1,20
E:\VMshare\e203\zhengdian_E203\sdk\decmec\Release/../application/main.c:95 (discriminator 3)
        printf("%d: Hello World From RISC-V Processor!\r\n", i);
80000134:	85a2                	mv	a1,s0
80000136:	854a                	mv	a0,s2
E:\VMshare\e203\zhengdian_E203\sdk\decmec\Release/../application/main.c:94 (discriminator 3)
    for (int i = 0; i < 20; i ++) {
80000138:	0405                	addi	s0,s0,1
E:\VMshare\e203\zhengdian_E203\sdk\decmec\Release/../application/main.c:95 (discriminator 3)
        printf("%d: Hello World From RISC-V Processor!\r\n", i);
8000013a:	2bb000ef          	jal	ra,80000bf4 <iprintf>
E:\VMshare\e203\zhengdian_E203\sdk\decmec\Release/../application/main.c:94 (discriminator 3)
    for (int i = 0; i < 20; i ++) {
8000013e:	fe941be3          	bne	s0,s1,80000134 <main+0x80>
E:\VMshare\e203\zhengdian_E203\sdk\decmec\Release/../application/main.c:99
    }

    int x,y;
           _REG32(AXI_BASSE,0) = 1;
80000142:	100417b7          	lui	a5,0x10041
80000146:	4705                	li	a4,1
80000148:	c398                	sw	a4,0(a5)
E:\VMshare\e203\zhengdian_E203\sdk\decmec\Release/../application/main.c:102

           while(1){
        	   x = _REG32A(AXI_BASSE + 4) ;
8000014a:	10041437          	lui	s0,0x10041
E:\VMshare\e203\zhengdian_E203\sdk\decmec\Release/../application/main.c:104
        	   y = _REG32A(AXI_BASSE + 8) ;
        	   printf("%d, %d: Hello AXI!\r\n", x, y);
8000014e:	00002497          	auipc	s1,0x2
80000152:	f4a48493          	addi	s1,s1,-182 # 80002098 <_read_r+0x142>
E:\VMshare\e203\zhengdian_E203\sdk\decmec\Release/../application/main.c:102 (discriminator 1)
        	   x = _REG32A(AXI_BASSE + 4) ;
80000156:	404c                	lw	a1,4(s0)
E:\VMshare\e203\zhengdian_E203\sdk\decmec\Release/../application/main.c:103 (discriminator 1)
        	   y = _REG32A(AXI_BASSE + 8) ;
80000158:	4410                	lw	a2,8(s0)
E:\VMshare\e203\zhengdian_E203\sdk\decmec\Release/../application/main.c:104 (discriminator 1)
        	   printf("%d, %d: Hello AXI!\r\n", x, y);
8000015a:	8526                	mv	a0,s1
8000015c:	299000ef          	jal	ra,80000bf4 <iprintf>
E:\VMshare\e203\zhengdian_E203\sdk\decmec\Release/../application/main.c:101 (discriminator 1)
           while(1){
80000160:	bfdd                	j	80000156 <main+0xa2>

80000162 <_close>:
_close():
E:\VMshare\e203\zhengdian_E203\sdk\decmec\Release/../hbird_sdk/SoC/hbirdv2/Common/Source/Stubs/close.c:10
#undef errno
extern int errno;

__WEAK int _close(int fd)
{
    errno = EBADF;
80000162:	47a5                	li	a5,9
80000164:	80f1aa23          	sw	a5,-2028(gp) # 90000074 <errno>
E:\VMshare\e203\zhengdian_E203\sdk\decmec\Release/../hbird_sdk/SoC/hbirdv2/Common/Source/Stubs/close.c:12
    return -1;
}
80000168:	557d                	li	a0,-1
8000016a:	8082                	ret

8000016c <_fstat>:
_fstat():
E:\VMshare\e203\zhengdian_E203\sdk\decmec\Release/../hbird_sdk/SoC/hbirdv2/Common/Source/Stubs/fstat.c:12
#undef errno
extern int errno;

__WEAK int _fstat(int file, struct stat *st)
{
    if ((STDOUT_FILENO == file) || (STDERR_FILENO == file)) {
8000016c:	157d                	addi	a0,a0,-1
8000016e:	4785                	li	a5,1
80000170:	00a7e663          	bltu	a5,a0,8000017c <_fstat+0x10>
E:\VMshare\e203\zhengdian_E203\sdk\decmec\Release/../hbird_sdk/SoC/hbirdv2/Common/Source/Stubs/fstat.c:13
        st->st_mode = S_IFCHR;
80000174:	6789                	lui	a5,0x2
80000176:	c1dc                	sw	a5,4(a1)
E:\VMshare\e203\zhengdian_E203\sdk\decmec\Release/../hbird_sdk/SoC/hbirdv2/Common/Source/Stubs/fstat.c:14
        return 0;
80000178:	4501                	li	a0,0
8000017a:	8082                	ret
E:\VMshare\e203\zhengdian_E203\sdk\decmec\Release/../hbird_sdk/SoC/hbirdv2/Common/Source/Stubs/fstat.c:16
    } else {
        errno = EBADF;
8000017c:	47a5                	li	a5,9
8000017e:	80f1aa23          	sw	a5,-2028(gp) # 90000074 <errno>
E:\VMshare\e203\zhengdian_E203\sdk\decmec\Release/../hbird_sdk/SoC/hbirdv2/Common/Source/Stubs/fstat.c:17
        return -1;
80000182:	557d                	li	a0,-1
E:\VMshare\e203\zhengdian_E203\sdk\decmec\Release/../hbird_sdk/SoC/hbirdv2/Common/Source/Stubs/fstat.c:19
    }
}
80000184:	8082                	ret

80000186 <_isatty>:
_isatty():
E:\VMshare\e203\zhengdian_E203\sdk\decmec\Release/../hbird_sdk/SoC/hbirdv2/Common/Source/Stubs/isatty.c:8
#include <unistd.h>

__WEAK int _isatty(int fd)
{
    return 1;
}
80000186:	4505                	li	a0,1
80000188:	8082                	ret

8000018a <_lseek>:
_lseek():
E:\VMshare\e203\zhengdian_E203\sdk\decmec\Release/../hbird_sdk/SoC/hbirdv2/Common/Source/Stubs/lseek.c:11
extern int errno;

__WEAK int _lseek(int file, int offset, int whence)
{
    return 0;
}
8000018a:	4501                	li	a0,0
8000018c:	8082                	ret

8000018e <_read>:
_read():
E:\VMshare\e203\zhengdian_E203\sdk\decmec\Release/../hbird_sdk/SoC/hbirdv2/Common/Source/Stubs/read.c:12

// #define UART_AUTO_ECHO

__WEAK ssize_t _read(int fd, void* ptr, size_t len)
{
    if (fd != STDIN_FILENO) {
8000018e:	c119                	beqz	a0,80000194 <_read+0x6>
E:\VMshare\e203\zhengdian_E203\sdk\decmec\Release/../hbird_sdk/SoC/hbirdv2/Common/Source/Stubs/read.c:13
        return -1;
80000190:	557d                	li	a0,-1
E:\VMshare\e203\zhengdian_E203\sdk\decmec\Release/../hbird_sdk/SoC/hbirdv2/Common/Source/Stubs/read.c:22
    readbuf[0] = uart_read(SOC_DEBUG_UART);
#ifdef UART_AUTO_ECHO
    uart_write(SOC_DEBUG_UART, readbuf[0]);
#endif
    return 1;
}
80000192:	8082                	ret
E:\VMshare\e203\zhengdian_E203\sdk\decmec\Release/../hbird_sdk/SoC/hbirdv2/Common/Source/Stubs/read.c:11
{
80000194:	1141                	addi	sp,sp,-16
E:\VMshare\e203\zhengdian_E203\sdk\decmec\Release/../hbird_sdk/SoC/hbirdv2/Common/Source/Stubs/read.c:17
    readbuf[0] = uart_read(SOC_DEBUG_UART);
80000196:	10013537          	lui	a0,0x10013
E:\VMshare\e203\zhengdian_E203\sdk\decmec\Release/../hbird_sdk/SoC/hbirdv2/Common/Source/Stubs/read.c:11
{
8000019a:	c422                	sw	s0,8(sp)
8000019c:	c606                	sw	ra,12(sp)
8000019e:	842e                	mv	s0,a1
E:\VMshare\e203\zhengdian_E203\sdk\decmec\Release/../hbird_sdk/SoC/hbirdv2/Common/Source/Stubs/read.c:17
    readbuf[0] = uart_read(SOC_DEBUG_UART);
800001a0:	2aa5                	jal	80000318 <uart_read>
800001a2:	00a40023          	sb	a0,0(s0) # 10041000 <__stack_size+0x10040800>
E:\VMshare\e203\zhengdian_E203\sdk\decmec\Release/../hbird_sdk/SoC/hbirdv2/Common/Source/Stubs/read.c:22
}
800001a6:	40b2                	lw	ra,12(sp)
800001a8:	4422                	lw	s0,8(sp)
E:\VMshare\e203\zhengdian_E203\sdk\decmec\Release/../hbird_sdk/SoC/hbirdv2/Common/Source/Stubs/read.c:21
    return 1;
800001aa:	4505                	li	a0,1
E:\VMshare\e203\zhengdian_E203\sdk\decmec\Release/../hbird_sdk/SoC/hbirdv2/Common/Source/Stubs/read.c:22
}
800001ac:	0141                	addi	sp,sp,16
800001ae:	8082                	ret

800001b0 <_sbrk>:
_sbrk():
E:\VMshare\e203\zhengdian_E203\sdk\decmec\Release/../hbird_sdk/SoC/hbirdv2/Common/Source/Stubs/sbrk.c:13
{
    extern char _end[];
    extern char _heap_end[];
    static char *curbrk = _end;

    if ((curbrk + incr < _end) || (curbrk + incr > _heap_end)) {
800001b0:	10000717          	auipc	a4,0x10000
800001b4:	eb070713          	addi	a4,a4,-336 # 90000060 <curbrk.0>
800001b8:	431c                	lw	a5,0(a4)
800001ba:	96818693          	addi	a3,gp,-1688 # 900001c8 <_end>
800001be:	953e                	add	a0,a0,a5
800001c0:	00d56b63          	bltu	a0,a3,800001d6 <_sbrk+0x26>
E:\VMshare\e203\zhengdian_E203\sdk\decmec\Release/../hbird_sdk/SoC/hbirdv2/Common/Source/Stubs/sbrk.c:13 (discriminator 1)
800001c4:	1000f697          	auipc	a3,0x1000f
800001c8:	63c68693          	addi	a3,a3,1596 # 9000f800 <_heap_end>
800001cc:	00a6e563          	bltu	a3,a0,800001d6 <_sbrk+0x26>
E:\VMshare\e203\zhengdian_E203\sdk\decmec\Release/../hbird_sdk/SoC/hbirdv2/Common/Source/Stubs/sbrk.c:17
        return (void *)(-1);
    }

    curbrk += incr;
800001d0:	c308                	sw	a0,0(a4)
E:\VMshare\e203\zhengdian_E203\sdk\decmec\Release/../hbird_sdk/SoC/hbirdv2/Common/Source/Stubs/sbrk.c:19
    return (void *)(curbrk - incr);
}
800001d2:	853e                	mv	a0,a5
800001d4:	8082                	ret
E:\VMshare\e203\zhengdian_E203\sdk\decmec\Release/../hbird_sdk/SoC/hbirdv2/Common/Source/Stubs/sbrk.c:14
        return (void *)(-1);
800001d6:	57fd                	li	a5,-1
E:\VMshare\e203\zhengdian_E203\sdk\decmec\Release/../hbird_sdk/SoC/hbirdv2/Common/Source/Stubs/sbrk.c:19
}
800001d8:	853e                	mv	a0,a5
800001da:	8082                	ret

800001dc <_write>:
_write():
E:\VMshare\e203\zhengdian_E203\sdk\decmec\Release/../hbird_sdk/SoC/hbirdv2/Common/Source/Stubs/write.c:9
#include <unistd.h>
#include <sys/types.h>
#include <hbird_sdk_hal.h>

__WEAK ssize_t _write(int fd, const void* ptr, size_t len)
{
800001dc:	1101                	addi	sp,sp,-32
800001de:	cc22                	sw	s0,24(sp)
800001e0:	c64e                	sw	s3,12(sp)
800001e2:	ce06                	sw	ra,28(sp)
800001e4:	ca26                	sw	s1,20(sp)
800001e6:	c84a                	sw	s2,16(sp)
800001e8:	842e                	mv	s0,a1
800001ea:	89b2                	mv	s3,a2
E:\VMshare\e203\zhengdian_E203\sdk\decmec\Release/../hbird_sdk/SoC/hbirdv2/Common/Source/Stubs/write.c:10
    if (!isatty(fd)) {
800001ec:	403000ef          	jal	ra,80000dee <isatty>
800001f0:	c529                	beqz	a0,8000023a <_write+0x5e>
E:\VMshare\e203\zhengdian_E203\sdk\decmec\Release/../hbird_sdk/SoC/hbirdv2/Common/Source/Stubs/write.c:15
        return -1;
    }

    const uint8_t *writebuf = (const uint8_t *)ptr;
    for (size_t i = 0; i < len; i++) {
800001f2:	01340933          	add	s2,s0,s3
E:\VMshare\e203\zhengdian_E203\sdk\decmec\Release/../hbird_sdk/SoC/hbirdv2/Common/Source/Stubs/write.c:16
        if (writebuf[i] == '\n') {
800001f6:	44a9                	li	s1,10
E:\VMshare\e203\zhengdian_E203\sdk\decmec\Release/../hbird_sdk/SoC/hbirdv2/Common/Source/Stubs/write.c:15
    for (size_t i = 0; i < len; i++) {
800001f8:	00099963          	bnez	s3,8000020a <_write+0x2e>
800001fc:	a03d                	j	8000022a <_write+0x4e>
E:\VMshare\e203\zhengdian_E203\sdk\decmec\Release/../hbird_sdk/SoC/hbirdv2/Common/Source/Stubs/write.c:15 (discriminator 2)
800001fe:	0405                	addi	s0,s0,1
E:\VMshare\e203\zhengdian_E203\sdk\decmec\Release/../hbird_sdk/SoC/hbirdv2/Common/Source/Stubs/write.c:19 (discriminator 2)
            uart_write(SOC_DEBUG_UART, '\r');
        }
        uart_write(SOC_DEBUG_UART, writebuf[i]);
80000200:	10013537          	lui	a0,0x10013
80000204:	2201                	jal	80000304 <uart_write>
E:\VMshare\e203\zhengdian_E203\sdk\decmec\Release/../hbird_sdk/SoC/hbirdv2/Common/Source/Stubs/write.c:15 (discriminator 2)
    for (size_t i = 0; i < len; i++) {
80000206:	03240263          	beq	s0,s2,8000022a <_write+0x4e>
E:\VMshare\e203\zhengdian_E203\sdk\decmec\Release/../hbird_sdk/SoC/hbirdv2/Common/Source/Stubs/write.c:16
        if (writebuf[i] == '\n') {
8000020a:	00044583          	lbu	a1,0(s0)
8000020e:	fe9598e3          	bne	a1,s1,800001fe <_write+0x22>
E:\VMshare\e203\zhengdian_E203\sdk\decmec\Release/../hbird_sdk/SoC/hbirdv2/Common/Source/Stubs/write.c:17
            uart_write(SOC_DEBUG_UART, '\r');
80000212:	45b5                	li	a1,13
80000214:	10013537          	lui	a0,0x10013
80000218:	20f5                	jal	80000304 <uart_write>
E:\VMshare\e203\zhengdian_E203\sdk\decmec\Release/../hbird_sdk/SoC/hbirdv2/Common/Source/Stubs/write.c:19
        uart_write(SOC_DEBUG_UART, writebuf[i]);
8000021a:	00044583          	lbu	a1,0(s0)
8000021e:	10013537          	lui	a0,0x10013
E:\VMshare\e203\zhengdian_E203\sdk\decmec\Release/../hbird_sdk/SoC/hbirdv2/Common/Source/Stubs/write.c:15
    for (size_t i = 0; i < len; i++) {
80000222:	0405                	addi	s0,s0,1
E:\VMshare\e203\zhengdian_E203\sdk\decmec\Release/../hbird_sdk/SoC/hbirdv2/Common/Source/Stubs/write.c:19
        uart_write(SOC_DEBUG_UART, writebuf[i]);
80000224:	20c5                	jal	80000304 <uart_write>
E:\VMshare\e203\zhengdian_E203\sdk\decmec\Release/../hbird_sdk/SoC/hbirdv2/Common/Source/Stubs/write.c:15
    for (size_t i = 0; i < len; i++) {
80000226:	ff2412e3          	bne	s0,s2,8000020a <_write+0x2e>
E:\VMshare\e203\zhengdian_E203\sdk\decmec\Release/../hbird_sdk/SoC/hbirdv2/Common/Source/Stubs/write.c:21
    }
    return len;
8000022a:	854e                	mv	a0,s3
E:\VMshare\e203\zhengdian_E203\sdk\decmec\Release/../hbird_sdk/SoC/hbirdv2/Common/Source/Stubs/write.c:22
}
8000022c:	40f2                	lw	ra,28(sp)
8000022e:	4462                	lw	s0,24(sp)
80000230:	44d2                	lw	s1,20(sp)
80000232:	4942                	lw	s2,16(sp)
80000234:	49b2                	lw	s3,12(sp)
80000236:	6105                	addi	sp,sp,32
80000238:	8082                	ret
E:\VMshare\e203\zhengdian_E203\sdk\decmec\Release/../hbird_sdk/SoC/hbirdv2/Common/Source/Stubs/write.c:11
        return -1;
8000023a:	557d                	li	a0,-1
8000023c:	bfc5                	j	8000022c <_write+0x50>
	...

80000240 <trap_entry>:
trap_entry():
E:\VMshare\e203\zhengdian_E203\sdk\decmec\Release/../hbird_sdk/SoC/hbirdv2/Common/Source/GCC/intexc_hbirdv2.S:159
.align 2
.global trap_entry
.weak trap_entry
trap_entry:
    /* Save the caller saving registers (context) */
    SAVE_CONTEXT
80000240:	715d                	addi	sp,sp,-80
80000242:	c006                	sw	ra,0(sp)
80000244:	c212                	sw	tp,4(sp)
80000246:	c416                	sw	t0,8(sp)
80000248:	c61a                	sw	t1,12(sp)
8000024a:	c81e                	sw	t2,16(sp)
8000024c:	ca2a                	sw	a0,20(sp)
8000024e:	cc2e                	sw	a1,24(sp)
80000250:	ce32                	sw	a2,28(sp)
80000252:	d036                	sw	a3,32(sp)
80000254:	d23a                	sw	a4,36(sp)
80000256:	d43e                	sw	a5,40(sp)
80000258:	dc42                	sw	a6,56(sp)
8000025a:	de46                	sw	a7,60(sp)
8000025c:	c0f2                	sw	t3,64(sp)
8000025e:	c2f6                	sw	t4,68(sp)
80000260:	c4fa                	sw	t5,72(sp)
80000262:	c6fe                	sw	t6,76(sp)
E:\VMshare\e203\zhengdian_E203\sdk\decmec\Release/../hbird_sdk/SoC/hbirdv2/Common/Source/GCC/intexc_hbirdv2.S:161
    /* Save the necessary CSR registers */
    SAVE_CSR_CONTEXT
80000264:	341022f3          	csrr	t0,mepc
80000268:	d616                	sw	t0,44(sp)
8000026a:	342022f3          	csrr	t0,mcause
8000026e:	d816                	sw	t0,48(sp)
80000270:	300022f3          	csrr	t0,mstatus
80000274:	da16                	sw	t0,52(sp)
E:\VMshare\e203\zhengdian_E203\sdk\decmec\Release/../hbird_sdk/SoC/hbirdv2/Common/Source/GCC/intexc_hbirdv2.S:168
    /*
     * Set the exception handler function arguments
     * argument 1: mcause value
     * argument 2: current stack point(SP) value
     */
    csrr a0, mcause
80000276:	34202573          	csrr	a0,mcause
E:\VMshare\e203\zhengdian_E203\sdk\decmec\Release/../hbird_sdk/SoC/hbirdv2/Common/Source/GCC/intexc_hbirdv2.S:169
    mv a1, sp
8000027a:	858a                	mv	a1,sp
E:\VMshare\e203\zhengdian_E203\sdk\decmec\Release/../hbird_sdk/SoC/hbirdv2/Common/Source/GCC/intexc_hbirdv2.S:175
    /*
     * TODO: Call the trap handler function
     * By default, the function template is provided in
     * system_Device.c, you can adjust it as you want
     */
    call core_trap_handler
8000027c:	22d9                	jal	80000442 <core_trap_handler>
E:\VMshare\e203\zhengdian_E203\sdk\decmec\Release/../hbird_sdk/SoC/hbirdv2/Common/Source/GCC/intexc_hbirdv2.S:178

    /* Restore the necessary CSR registers */
    RESTORE_CSR_CONTEXT
8000027e:	52b2                	lw	t0,44(sp)
80000280:	34129073          	csrw	mepc,t0
80000284:	52c2                	lw	t0,48(sp)
80000286:	34229073          	csrw	mcause,t0
8000028a:	52d2                	lw	t0,52(sp)
8000028c:	30029073          	csrw	mstatus,t0
E:\VMshare\e203\zhengdian_E203\sdk\decmec\Release/../hbird_sdk/SoC/hbirdv2/Common/Source/GCC/intexc_hbirdv2.S:180
    /* Restore the caller saving registers (context) */
    RESTORE_CONTEXT
80000290:	4082                	lw	ra,0(sp)
80000292:	4212                	lw	tp,4(sp)
80000294:	42a2                	lw	t0,8(sp)
80000296:	4332                	lw	t1,12(sp)
80000298:	43c2                	lw	t2,16(sp)
8000029a:	4552                	lw	a0,20(sp)
8000029c:	45e2                	lw	a1,24(sp)
8000029e:	4672                	lw	a2,28(sp)
800002a0:	5682                	lw	a3,32(sp)
800002a2:	5712                	lw	a4,36(sp)
800002a4:	57a2                	lw	a5,40(sp)
800002a6:	5862                	lw	a6,56(sp)
800002a8:	58f2                	lw	a7,60(sp)
800002aa:	4e06                	lw	t3,64(sp)
800002ac:	4e96                	lw	t4,68(sp)
800002ae:	4f26                	lw	t5,72(sp)
800002b0:	4fb6                	lw	t6,76(sp)
800002b2:	6161                	addi	sp,sp,80
E:\VMshare\e203\zhengdian_E203\sdk\decmec\Release/../hbird_sdk/SoC/hbirdv2/Common/Source/GCC/intexc_hbirdv2.S:183

    /* Return to regular code */
    mret
800002b4:	30200073          	mret

800002b8 <gpio_iof_config>:
gpio_iof_config():
E:\VMshare\e203\zhengdian_E203\sdk\decmec\Release/../hbird_sdk/SoC/hbirdv2/Common/Source/Drivers/hbirdv2_gpio.c:5
#include "hbirdv2.h"
#include "hbirdv2_gpio.h"

int32_t gpio_iof_config(GPIO_TypeDef *gpio, uint32_t mask)
{
800002b8:	87aa                	mv	a5,a0
E:\VMshare\e203\zhengdian_E203\sdk\decmec\Release/../hbird_sdk/SoC/hbirdv2/Common/Source/Drivers/hbirdv2_gpio.c:6
    if (__RARELY(gpio == NULL)) {
800002ba:	c511                	beqz	a0,800002c6 <gpio_iof_config+0xe>
E:\VMshare\e203\zhengdian_E203\sdk\decmec\Release/../hbird_sdk/SoC/hbirdv2/Common/Source/Drivers/hbirdv2_gpio.c:9
        return -1;
    }
    gpio->IOFCFG |= mask;
800002bc:	4d58                	lw	a4,28(a0)
E:\VMshare\e203\zhengdian_E203\sdk\decmec\Release/../hbird_sdk/SoC/hbirdv2/Common/Source/Drivers/hbirdv2_gpio.c:11

    return 0;
800002be:	4501                	li	a0,0
E:\VMshare\e203\zhengdian_E203\sdk\decmec\Release/../hbird_sdk/SoC/hbirdv2/Common/Source/Drivers/hbirdv2_gpio.c:9
    gpio->IOFCFG |= mask;
800002c0:	8dd9                	or	a1,a1,a4
800002c2:	cfcc                	sw	a1,28(a5)
E:\VMshare\e203\zhengdian_E203\sdk\decmec\Release/../hbird_sdk/SoC/hbirdv2/Common/Source/Drivers/hbirdv2_gpio.c:11
    return 0;
800002c4:	8082                	ret
E:\VMshare\e203\zhengdian_E203\sdk\decmec\Release/../hbird_sdk/SoC/hbirdv2/Common/Source/Drivers/hbirdv2_gpio.c:7
        return -1;
800002c6:	557d                	li	a0,-1
E:\VMshare\e203\zhengdian_E203\sdk\decmec\Release/../hbird_sdk/SoC/hbirdv2/Common/Source/Drivers/hbirdv2_gpio.c:12
}
800002c8:	8082                	ret

800002ca <uart_init>:
uart_init():
E:\VMshare\e203\zhengdian_E203\sdk\decmec\Release/../hbird_sdk/SoC/hbirdv2/Common/Source/Drivers/hbirdv2_uart.c:5
#include "hbirdv2.h"
#include "hbirdv2_uart.h"

int32_t uart_init(UART_TypeDef *uart, uint32_t baudrate)
{
800002ca:	87aa                	mv	a5,a0
E:\VMshare\e203\zhengdian_E203\sdk\decmec\Release/../hbird_sdk/SoC/hbirdv2/Common/Source/Drivers/hbirdv2_uart.c:6
    if (__RARELY(uart == NULL)) {
800002cc:	c915                	beqz	a0,80000300 <uart_init+0x36>
E:\VMshare\e203\zhengdian_E203\sdk\decmec\Release/../hbird_sdk/SoC/hbirdv2/Common/Source/Drivers/hbirdv2_uart.c:10
        return -1;
    }

    unsigned int uart_div = SystemCoreClock / baudrate - 1;
800002ce:	10000717          	auipc	a4,0x10000
800002d2:	d9672703          	lw	a4,-618(a4) # 90000064 <SystemCoreClock>
800002d6:	02b755b3          	divu	a1,a4,a1
E:\VMshare\e203\zhengdian_E203\sdk\decmec\Release/../hbird_sdk/SoC/hbirdv2/Common/Source/Drivers/hbirdv2_uart.c:11
    uart->LCR = 0x80;
800002da:	08000713          	li	a4,128
800002de:	c558                	sw	a4,12(a0)
E:\VMshare\e203\zhengdian_E203\sdk\decmec\Release/../hbird_sdk/SoC/hbirdv2/Common/Source/Drivers/hbirdv2_uart.c:17
    uart->DLM = (uart_div >> 8) & 0xFF;
    uart->DLL = uart_div        & 0xFF;
    uart->FCR = 0xC6;
    uart->LCR = 0x03;

    return 0;
800002e0:	4501                	li	a0,0
E:\VMshare\e203\zhengdian_E203\sdk\decmec\Release/../hbird_sdk/SoC/hbirdv2/Common/Source/Drivers/hbirdv2_uart.c:10
    unsigned int uart_div = SystemCoreClock / baudrate - 1;
800002e2:	15fd                	addi	a1,a1,-1
E:\VMshare\e203\zhengdian_E203\sdk\decmec\Release/../hbird_sdk/SoC/hbirdv2/Common/Source/Drivers/hbirdv2_uart.c:12
    uart->DLM = (uart_div >> 8) & 0xFF;
800002e4:	0085d713          	srli	a4,a1,0x8
800002e8:	0ff77713          	andi	a4,a4,255
800002ec:	c3d8                	sw	a4,4(a5)
E:\VMshare\e203\zhengdian_E203\sdk\decmec\Release/../hbird_sdk/SoC/hbirdv2/Common/Source/Drivers/hbirdv2_uart.c:13
    uart->DLL = uart_div        & 0xFF;
800002ee:	0ff5f593          	andi	a1,a1,255
800002f2:	c38c                	sw	a1,0(a5)
E:\VMshare\e203\zhengdian_E203\sdk\decmec\Release/../hbird_sdk/SoC/hbirdv2/Common/Source/Drivers/hbirdv2_uart.c:14
    uart->FCR = 0xC6;
800002f4:	0c600713          	li	a4,198
800002f8:	c798                	sw	a4,8(a5)
E:\VMshare\e203\zhengdian_E203\sdk\decmec\Release/../hbird_sdk/SoC/hbirdv2/Common/Source/Drivers/hbirdv2_uart.c:15
    uart->LCR = 0x03;
800002fa:	470d                	li	a4,3
800002fc:	c7d8                	sw	a4,12(a5)
E:\VMshare\e203\zhengdian_E203\sdk\decmec\Release/../hbird_sdk/SoC/hbirdv2/Common/Source/Drivers/hbirdv2_uart.c:17
    return 0;
800002fe:	8082                	ret
E:\VMshare\e203\zhengdian_E203\sdk\decmec\Release/../hbird_sdk/SoC/hbirdv2/Common/Source/Drivers/hbirdv2_uart.c:7
        return -1;
80000300:	557d                	li	a0,-1
E:\VMshare\e203\zhengdian_E203\sdk\decmec\Release/../hbird_sdk/SoC/hbirdv2/Common/Source/Drivers/hbirdv2_uart.c:18
}
80000302:	8082                	ret

80000304 <uart_write>:
uart_write():
E:\VMshare\e203\zhengdian_E203\sdk\decmec\Release/../hbird_sdk/SoC/hbirdv2/Common/Source/Drivers/hbirdv2_uart.c:68
    return 0;
}

int32_t uart_write(UART_TypeDef *uart, uint8_t val)
{
    if (__RARELY(uart == NULL)) {
80000304:	c901                	beqz	a0,80000314 <uart_write+0x10>
E:\VMshare\e203\zhengdian_E203\sdk\decmec\Release/../hbird_sdk/SoC/hbirdv2/Common/Source/Drivers/hbirdv2_uart.c:73 (discriminator 1)
        return -1;
    }
#ifndef SIMULATION_SPIKE
#ifndef SIMULATION_XLSPIKE
    while ((uart->LSR & 0x20) == 0);
80000306:	495c                	lw	a5,20(a0)
80000308:	0207f793          	andi	a5,a5,32
8000030c:	dfed                	beqz	a5,80000306 <uart_write+0x2>
E:\VMshare\e203\zhengdian_E203\sdk\decmec\Release/../hbird_sdk/SoC/hbirdv2/Common/Source/Drivers/hbirdv2_uart.c:75
#endif
    uart->THR = val;
8000030e:	c10c                	sw	a1,0(a0)
E:\VMshare\e203\zhengdian_E203\sdk\decmec\Release/../hbird_sdk/SoC/hbirdv2/Common/Source/Drivers/hbirdv2_uart.c:80
#else
    extern void htif_putc(char ch);
    htif_putc(val);
#endif
    return 0;
80000310:	4501                	li	a0,0
80000312:	8082                	ret
E:\VMshare\e203\zhengdian_E203\sdk\decmec\Release/../hbird_sdk/SoC/hbirdv2/Common/Source/Drivers/hbirdv2_uart.c:69
        return -1;
80000314:	557d                	li	a0,-1
E:\VMshare\e203\zhengdian_E203\sdk\decmec\Release/../hbird_sdk/SoC/hbirdv2/Common/Source/Drivers/hbirdv2_uart.c:81
}
80000316:	8082                	ret

80000318 <uart_read>:
uart_read():
E:\VMshare\e203\zhengdian_E203\sdk\decmec\Release/../hbird_sdk/SoC/hbirdv2/Common/Source/Drivers/hbirdv2_uart.c:86

uint8_t uart_read(UART_TypeDef *uart)
{
    uint32_t reg;
    if (__RARELY(uart == NULL)) {
80000318:	c901                	beqz	a0,80000328 <uart_read+0x10>
E:\VMshare\e203\zhengdian_E203\sdk\decmec\Release/../hbird_sdk/SoC/hbirdv2/Common/Source/Drivers/hbirdv2_uart.c:90 (discriminator 1)
        return -1;
    }
    
    while ((uart->LSR & 0x1) == 0);
8000031a:	495c                	lw	a5,20(a0)
8000031c:	8b85                	andi	a5,a5,1
8000031e:	dff5                	beqz	a5,8000031a <uart_read+0x2>
E:\VMshare\e203\zhengdian_E203\sdk\decmec\Release/../hbird_sdk/SoC/hbirdv2/Common/Source/Drivers/hbirdv2_uart.c:91
    reg = uart->RBR;
80000320:	4108                	lw	a0,0(a0)
E:\VMshare\e203\zhengdian_E203\sdk\decmec\Release/../hbird_sdk/SoC/hbirdv2/Common/Source/Drivers/hbirdv2_uart.c:93
    
    return (uint8_t)(reg & 0xFF);
80000322:	0ff57513          	andi	a0,a0,255
80000326:	8082                	ret
E:\VMshare\e203\zhengdian_E203\sdk\decmec\Release/../hbird_sdk/SoC/hbirdv2/Common/Source/Drivers/hbirdv2_uart.c:87
        return -1;
80000328:	0ff00513          	li	a0,255
E:\VMshare\e203\zhengdian_E203\sdk\decmec\Release/../hbird_sdk/SoC/hbirdv2/Common/Source/Drivers/hbirdv2_uart.c:94
}
8000032c:	8082                	ret

8000032e <measure_cpu_freq>:
SysTimer_GetLoadValue():
E:\VMshare\e203\zhengdian_E203\sdk\decmec\hbird_sdk\NMSIS\Core\Include/core_feature_timer.h:106
 * - Load value is 64bits wide.
 * - \ref SysTimer_SetLoadValue
 */
__STATIC_FORCEINLINE uint64_t SysTimer_GetLoadValue(void)
{
    return SysTimer->MTIME;
8000032e:	0200c7b7          	lui	a5,0x200c
80000332:	ff87a703          	lw	a4,-8(a5) # 200bff8 <__stack_size+0x200b7f8>
80000336:	ffc7a783          	lw	a5,-4(a5)
measure_cpu_freq():
E:\VMshare\e203\zhengdian_E203\sdk\decmec\Release/../hbird_sdk/SoC/hbirdv2/Common/Source/hbirdv2_common.c:9
{
    return SOC_TIMER_FREQ;
}

uint32_t measure_cpu_freq(uint32_t n)
{
8000033a:	1141                	addi	sp,sp,-16
8000033c:	c606                	sw	ra,12(sp)
8000033e:	c422                	sw	s0,8(sp)
80000340:	c226                	sw	s1,4(sp)
E:\VMshare\e203\zhengdian_E203\sdk\decmec\Release/../hbird_sdk/SoC/hbirdv2/Common/Source/hbirdv2_common.c:15
    uint32_t start_mcycle, delta_mcycle;
    uint32_t start_mtime, delta_mtime;
    uint64_t mtime_freq = get_timer_freq();

    // Don't start measuruing until we see an mtime tick
    uint32_t tmp = (uint32_t)SysTimer_GetLoadValue();
80000342:	86ba                	mv	a3,a4
SysTimer_GetLoadValue():
E:\VMshare\e203\zhengdian_E203\sdk\decmec\hbird_sdk\NMSIS\Core\Include/core_feature_timer.h:106
80000344:	0200c5b7          	lui	a1,0x200c
E:\VMshare\e203\zhengdian_E203\sdk\decmec\hbird_sdk\NMSIS\Core\Include/core_feature_timer.h:106 (discriminator 1)
80000348:	ff85a703          	lw	a4,-8(a1) # 200bff8 <__stack_size+0x200b7f8>
8000034c:	ffc5a783          	lw	a5,-4(a1)
measure_cpu_freq():
E:\VMshare\e203\zhengdian_E203\sdk\decmec\Release/../hbird_sdk/SoC/hbirdv2/Common/Source/hbirdv2_common.c:17 (discriminator 1)
    do {
        start_mtime = (uint32_t)SysTimer_GetLoadValue();
80000350:	87ba                	mv	a5,a4
E:\VMshare\e203\zhengdian_E203\sdk\decmec\Release/../hbird_sdk/SoC/hbirdv2/Common/Source/hbirdv2_common.c:18 (discriminator 1)
        start_mcycle = __RV_CSR_READ(CSR_MCYCLE);
80000352:	b0002673          	csrr	a2,mcycle
E:\VMshare\e203\zhengdian_E203\sdk\decmec\Release/../hbird_sdk/SoC/hbirdv2/Common/Source/hbirdv2_common.c:19 (discriminator 1)
    } while (start_mtime == tmp);
80000356:	fee689e3          	beq	a3,a4,80000348 <measure_cpu_freq+0x1a>
SysTimer_GetLoadValue():
E:\VMshare\e203\zhengdian_E203\sdk\decmec\hbird_sdk\NMSIS\Core\Include/core_feature_timer.h:106
8000035a:	0200c6b7          	lui	a3,0x200c
E:\VMshare\e203\zhengdian_E203\sdk\decmec\hbird_sdk\NMSIS\Core\Include/core_feature_timer.h:106 (discriminator 1)
8000035e:	ff86a403          	lw	s0,-8(a3) # 200bff8 <__stack_size+0x200b7f8>
80000362:	ffc6a483          	lw	s1,-4(a3)
measure_cpu_freq():
E:\VMshare\e203\zhengdian_E203\sdk\decmec\Release/../hbird_sdk/SoC/hbirdv2/Common/Source/hbirdv2_common.c:22 (discriminator 1)

    do {
        delta_mtime = (uint32_t)SysTimer_GetLoadValue() - start_mtime;
80000366:	8c1d                	sub	s0,s0,a5
E:\VMshare\e203\zhengdian_E203\sdk\decmec\Release/../hbird_sdk/SoC/hbirdv2/Common/Source/hbirdv2_common.c:23 (discriminator 1)
        delta_mcycle = __RV_CSR_READ(CSR_MCYCLE) - start_mcycle;
80000368:	b0002773          	csrr	a4,mcycle
E:\VMshare\e203\zhengdian_E203\sdk\decmec\Release/../hbird_sdk/SoC/hbirdv2/Common/Source/hbirdv2_common.c:24 (discriminator 1)
    } while (delta_mtime < n);
8000036c:	fea469e3          	bltu	s0,a0,8000035e <measure_cpu_freq+0x30>
E:\VMshare\e203\zhengdian_E203\sdk\decmec\Release/../hbird_sdk/SoC/hbirdv2/Common/Source/hbirdv2_common.c:23
        delta_mcycle = __RV_CSR_READ(CSR_MCYCLE) - start_mcycle;
80000370:	40c704b3          	sub	s1,a4,a2
E:\VMshare\e203\zhengdian_E203\sdk\decmec\Release/../hbird_sdk/SoC/hbirdv2/Common/Source/hbirdv2_common.c:27

    return (delta_mcycle / delta_mtime) * mtime_freq
           + ((delta_mcycle % delta_mtime) * mtime_freq) / delta_mtime;
80000374:	0284f5b3          	remu	a1,s1,s0
80000378:	8622                	mv	a2,s0
8000037a:	4681                	li	a3,0
8000037c:	00f59513          	slli	a0,a1,0xf
80000380:	81c5                	srli	a1,a1,0x11
80000382:	2995                	jal	800007f6 <__udivdi3>
E:\VMshare\e203\zhengdian_E203\sdk\decmec\Release/../hbird_sdk/SoC/hbirdv2/Common/Source/hbirdv2_common.c:26
    return (delta_mcycle / delta_mtime) * mtime_freq
80000384:	0284d733          	divu	a4,s1,s0
E:\VMshare\e203\zhengdian_E203\sdk\decmec\Release/../hbird_sdk/SoC/hbirdv2/Common/Source/hbirdv2_common.c:28
}
80000388:	40b2                	lw	ra,12(sp)
8000038a:	4422                	lw	s0,8(sp)
8000038c:	4492                	lw	s1,4(sp)
8000038e:	0141                	addi	sp,sp,16
E:\VMshare\e203\zhengdian_E203\sdk\decmec\Release/../hbird_sdk/SoC/hbirdv2/Common/Source/hbirdv2_common.c:27
           + ((delta_mcycle % delta_mtime) * mtime_freq) / delta_mtime;
80000390:	073e                	slli	a4,a4,0xf
E:\VMshare\e203\zhengdian_E203\sdk\decmec\Release/../hbird_sdk/SoC/hbirdv2/Common/Source/hbirdv2_common.c:28
}
80000392:	953a                	add	a0,a0,a4
80000394:	8082                	ret

80000396 <get_cpu_freq>:
get_cpu_freq():
E:\VMshare\e203\zhengdian_E203\sdk\decmec\Release/../hbird_sdk/SoC/hbirdv2/Common/Source/hbirdv2_common.c:31

uint32_t get_cpu_freq(void)
{
80000396:	1141                	addi	sp,sp,-16
E:\VMshare\e203\zhengdian_E203\sdk\decmec\Release/../hbird_sdk/SoC/hbirdv2/Common/Source/hbirdv2_common.c:35
    uint32_t cpu_freq;

    // warm up
    measure_cpu_freq(1);
80000398:	4505                	li	a0,1
E:\VMshare\e203\zhengdian_E203\sdk\decmec\Release/../hbird_sdk/SoC/hbirdv2/Common/Source/hbirdv2_common.c:31
{
8000039a:	c606                	sw	ra,12(sp)
E:\VMshare\e203\zhengdian_E203\sdk\decmec\Release/../hbird_sdk/SoC/hbirdv2/Common/Source/hbirdv2_common.c:35
    measure_cpu_freq(1);
8000039c:	3f49                	jal	8000032e <measure_cpu_freq>
E:\VMshare\e203\zhengdian_E203\sdk\decmec\Release/../hbird_sdk/SoC/hbirdv2/Common/Source/hbirdv2_common.c:40
    // measure for real
    cpu_freq = measure_cpu_freq(100);

    return cpu_freq;
}
8000039e:	40b2                	lw	ra,12(sp)
E:\VMshare\e203\zhengdian_E203\sdk\decmec\Release/../hbird_sdk/SoC/hbirdv2/Common/Source/hbirdv2_common.c:37
    cpu_freq = measure_cpu_freq(100);
800003a0:	06400513          	li	a0,100
E:\VMshare\e203\zhengdian_E203\sdk\decmec\Release/../hbird_sdk/SoC/hbirdv2/Common/Source/hbirdv2_common.c:40
}
800003a4:	0141                	addi	sp,sp,16
E:\VMshare\e203\zhengdian_E203\sdk\decmec\Release/../hbird_sdk/SoC/hbirdv2/Common/Source/hbirdv2_common.c:37
    cpu_freq = measure_cpu_freq(100);
800003a6:	b761                	j	8000032e <measure_cpu_freq>

800003a8 <system_default_exception_handler>:
system_default_exception_handler():
E:\VMshare\e203\zhengdian_E203\sdk\decmec\Release/../hbird_sdk/SoC/hbirdv2/Common/Source/system_hbirdv2.c:168
 * \details
 * This function provided a default exception handling code for all exception ids.
 * By default, It will just print some information for debug, Vendor can customize it according to its requirements.
 */
static void system_default_exception_handler(unsigned long mcause, unsigned long sp)
{
800003a8:	1141                	addi	sp,sp,-16
800003aa:	c422                	sw	s0,8(sp)
800003ac:	842a                	mv	s0,a0
E:\VMshare\e203\zhengdian_E203\sdk\decmec\Release/../hbird_sdk/SoC/hbirdv2/Common/Source/system_hbirdv2.c:170
    /* TODO: Uncomment this if you have implement printf function */
    printf("Trap in Exception\r\n");
800003ae:	00002517          	auipc	a0,0x2
800003b2:	bd650513          	addi	a0,a0,-1066 # 80001f84 <_read_r+0x2e>
E:\VMshare\e203\zhengdian_E203\sdk\decmec\Release/../hbird_sdk/SoC/hbirdv2/Common/Source/system_hbirdv2.c:168
{
800003b6:	c606                	sw	ra,12(sp)
E:\VMshare\e203\zhengdian_E203\sdk\decmec\Release/../hbird_sdk/SoC/hbirdv2/Common/Source/system_hbirdv2.c:170
    printf("Trap in Exception\r\n");
800003b8:	151000ef          	jal	ra,80000d08 <puts>
E:\VMshare\e203\zhengdian_E203\sdk\decmec\Release/../hbird_sdk/SoC/hbirdv2/Common/Source/system_hbirdv2.c:171
    printf("MCAUSE: 0x%lx\r\n", mcause);
800003bc:	85a2                	mv	a1,s0
800003be:	00002517          	auipc	a0,0x2
800003c2:	bda50513          	addi	a0,a0,-1062 # 80001f98 <_read_r+0x42>
800003c6:	02f000ef          	jal	ra,80000bf4 <iprintf>
E:\VMshare\e203\zhengdian_E203\sdk\decmec\Release/../hbird_sdk/SoC/hbirdv2/Common/Source/system_hbirdv2.c:172
    printf("MEPC  : 0x%lx\r\n", __RV_CSR_READ(CSR_MEPC));
800003ca:	341025f3          	csrr	a1,mepc
800003ce:	00002517          	auipc	a0,0x2
800003d2:	bda50513          	addi	a0,a0,-1062 # 80001fa8 <_read_r+0x52>
800003d6:	01f000ef          	jal	ra,80000bf4 <iprintf>
E:\VMshare\e203\zhengdian_E203\sdk\decmec\Release/../hbird_sdk/SoC/hbirdv2/Common/Source/system_hbirdv2.c:173
    printf("MTVAL : 0x%lx\r\n", __RV_CSR_READ(CSR_MBADADDR));
800003da:	343025f3          	csrr	a1,mtval
800003de:	00002517          	auipc	a0,0x2
800003e2:	bda50513          	addi	a0,a0,-1062 # 80001fb8 <_read_r+0x62>
800003e6:	00f000ef          	jal	ra,80000bf4 <iprintf>
E:\VMshare\e203\zhengdian_E203\sdk\decmec\Release/../hbird_sdk/SoC/hbirdv2/Common/Source/system_hbirdv2.c:174 (discriminator 1)
    while(1);
800003ea:	a001                	j	800003ea <system_default_exception_handler+0x42>

800003ec <system_default_interrupt_handler>:
system_default_interrupt_handler():
E:\VMshare\e203\zhengdian_E203\sdk\decmec\Release/../hbird_sdk/SoC/hbirdv2/Common/Source/system_hbirdv2.c:183
 * \brief      System Default Interrupt Handler
 * \details
 * This function provided a default interrupt handling code for all interrupt ids.
 */
static void system_default_interrupt_handler(unsigned long mcause, unsigned long sp)
{
800003ec:	1141                	addi	sp,sp,-16
800003ee:	c422                	sw	s0,8(sp)
800003f0:	842a                	mv	s0,a0
E:\VMshare\e203\zhengdian_E203\sdk\decmec\Release/../hbird_sdk/SoC/hbirdv2/Common/Source/system_hbirdv2.c:185
    /* TODO: Uncomment this if you have implement printf function */
    printf("Trap in Interrupt\r\n");
800003f2:	00002517          	auipc	a0,0x2
800003f6:	bd650513          	addi	a0,a0,-1066 # 80001fc8 <_read_r+0x72>
E:\VMshare\e203\zhengdian_E203\sdk\decmec\Release/../hbird_sdk/SoC/hbirdv2/Common/Source/system_hbirdv2.c:183
{
800003fa:	c606                	sw	ra,12(sp)
E:\VMshare\e203\zhengdian_E203\sdk\decmec\Release/../hbird_sdk/SoC/hbirdv2/Common/Source/system_hbirdv2.c:185
    printf("Trap in Interrupt\r\n");
800003fc:	10d000ef          	jal	ra,80000d08 <puts>
E:\VMshare\e203\zhengdian_E203\sdk\decmec\Release/../hbird_sdk/SoC/hbirdv2/Common/Source/system_hbirdv2.c:186
    printf("MCAUSE: 0x%lx\r\n", mcause);
80000400:	85a2                	mv	a1,s0
80000402:	00002517          	auipc	a0,0x2
80000406:	b9650513          	addi	a0,a0,-1130 # 80001f98 <_read_r+0x42>
8000040a:	7ea000ef          	jal	ra,80000bf4 <iprintf>
E:\VMshare\e203\zhengdian_E203\sdk\decmec\Release/../hbird_sdk/SoC/hbirdv2/Common/Source/system_hbirdv2.c:187
    printf("MEPC  : 0x%lx\r\n", __RV_CSR_READ(CSR_MEPC));
8000040e:	341025f3          	csrr	a1,mepc
80000412:	00002517          	auipc	a0,0x2
80000416:	b9650513          	addi	a0,a0,-1130 # 80001fa8 <_read_r+0x52>
8000041a:	7da000ef          	jal	ra,80000bf4 <iprintf>
E:\VMshare\e203\zhengdian_E203\sdk\decmec\Release/../hbird_sdk/SoC/hbirdv2/Common/Source/system_hbirdv2.c:188
    printf("MTVAL : 0x%lx\r\n", __RV_CSR_READ(CSR_MBADADDR));
8000041e:	343025f3          	csrr	a1,mtval
E:\VMshare\e203\zhengdian_E203\sdk\decmec\Release/../hbird_sdk/SoC/hbirdv2/Common/Source/system_hbirdv2.c:189
}
80000422:	4422                	lw	s0,8(sp)
80000424:	40b2                	lw	ra,12(sp)
E:\VMshare\e203\zhengdian_E203\sdk\decmec\Release/../hbird_sdk/SoC/hbirdv2/Common/Source/system_hbirdv2.c:188
    printf("MTVAL : 0x%lx\r\n", __RV_CSR_READ(CSR_MBADADDR));
80000426:	00002517          	auipc	a0,0x2
8000042a:	b9250513          	addi	a0,a0,-1134 # 80001fb8 <_read_r+0x62>
E:\VMshare\e203\zhengdian_E203\sdk\decmec\Release/../hbird_sdk/SoC/hbirdv2/Common/Source/system_hbirdv2.c:189
}
8000042e:	0141                	addi	sp,sp,16
E:\VMshare\e203\zhengdian_E203\sdk\decmec\Release/../hbird_sdk/SoC/hbirdv2/Common/Source/system_hbirdv2.c:188
    printf("MTVAL : 0x%lx\r\n", __RV_CSR_READ(CSR_MBADADDR));
80000430:	7c40006f          	j	80000bf4 <iprintf>

80000434 <SystemInit>:
SystemInit():
E:\VMshare\e203\zhengdian_E203\sdk\decmec\Release/../hbird_sdk/SoC/hbirdv2/Common/Source/system_hbirdv2.c:125
    SystemCoreClock = SYSTEM_CLOCK;
80000434:	04c4b7b7          	lui	a5,0x4c4b
80000438:	40078793          	addi	a5,a5,1024 # 4c4b400 <__stack_size+0x4c4ac00>
8000043c:	80f1a223          	sw	a5,-2044(gp) # 90000064 <SystemCoreClock>
E:\VMshare\e203\zhengdian_E203\sdk\decmec\Release/../hbird_sdk/SoC/hbirdv2/Common/Source/system_hbirdv2.c:126
}
80000440:	8082                	ret

80000442 <core_trap_handler>:
core_trap_handler():
E:\VMshare\e203\zhengdian_E203\sdk\decmec\Release/../hbird_sdk/SoC/hbirdv2/Common/Source/system_hbirdv2.c:322
 * - If you want to register core exception handler, please use \ref Exception_Register_EXC
 * - If you want to register core interrupt handler, please use \ref Interrupt_Register_CoreIRQ
 * - If you want to register external interrupt handler, please use \ref Interrupt_Register_ExtIRQ
 */
uint32_t core_trap_handler(unsigned long mcause, unsigned long sp)
{
80000442:	1141                	addi	sp,sp,-16
E:\VMshare\e203\zhengdian_E203\sdk\decmec\Release/../hbird_sdk/SoC/hbirdv2/Common/Source/system_hbirdv2.c:325
    if (mcause & MCAUSE_INTERRUPT) {
        INT_HANDLER int_handler = NULL;
        uint32_t irqn = (uint32_t)(mcause & 0X00000fff);
80000444:	01451793          	slli	a5,a0,0x14
E:\VMshare\e203\zhengdian_E203\sdk\decmec\Release/../hbird_sdk/SoC/hbirdv2/Common/Source/system_hbirdv2.c:322
{
80000448:	c606                	sw	ra,12(sp)
8000044a:	c422                	sw	s0,8(sp)
E:\VMshare\e203\zhengdian_E203\sdk\decmec\Release/../hbird_sdk/SoC/hbirdv2/Common/Source/system_hbirdv2.c:325
        uint32_t irqn = (uint32_t)(mcause & 0X00000fff);
8000044c:	83d1                	srli	a5,a5,0x14
E:\VMshare\e203\zhengdian_E203\sdk\decmec\Release/../hbird_sdk/SoC/hbirdv2/Common/Source/system_hbirdv2.c:323
    if (mcause & MCAUSE_INTERRUPT) {
8000044e:	02055163          	bgez	a0,80000470 <core_trap_handler+0x2e>
E:\VMshare\e203\zhengdian_E203\sdk\decmec\Release/../hbird_sdk/SoC/hbirdv2/Common/Source/system_hbirdv2.c:326
        if (irqn == IRQ_M_EXT) {
80000452:	472d                	li	a4,11
80000454:	04e78363          	beq	a5,a4,8000049a <core_trap_handler+0x58>
E:\VMshare\e203\zhengdian_E203\sdk\decmec\Release/../hbird_sdk/SoC/hbirdv2/Common/Source/system_hbirdv2.c:338
                }
                PLIC_CompleteInterrupt(irqn);
            }
#endif
        } else {
            int_handler = (INT_HANDLER)(SystemCoreInterruptHandlers[irqn]);
80000458:	078a                	slli	a5,a5,0x2
8000045a:	82418713          	addi	a4,gp,-2012 # 90000084 <SystemCoreInterruptHandlers>
8000045e:	97ba                	add	a5,a5,a4
80000460:	439c                	lw	a5,0(a5)
E:\VMshare\e203\zhengdian_E203\sdk\decmec\Release/../hbird_sdk/SoC/hbirdv2/Common/Source/system_hbirdv2.c:339
            if (int_handler != NULL) {
80000462:	c391                	beqz	a5,80000466 <core_trap_handler+0x24>
core_exception_handler():
E:\VMshare\e203\zhengdian_E203\sdk\decmec\Release/../hbird_sdk/SoC/hbirdv2/Common/Source/system_hbirdv2.c:371
        exc_handler = (EXC_HANDLER)SystemExceptionHandlers[EXCn];
    } else {
        exc_handler = (EXC_HANDLER)system_default_exception_handler;
    }
    if (exc_handler != NULL) {
        exc_handler(mcause, sp);
80000464:	9782                	jalr	a5
core_trap_handler():
E:\VMshare\e203\zhengdian_E203\sdk\decmec\Release/../hbird_sdk/SoC/hbirdv2/Common/Source/system_hbirdv2.c:347
}
80000466:	40b2                	lw	ra,12(sp)
80000468:	4422                	lw	s0,8(sp)
8000046a:	4501                	li	a0,0
8000046c:	0141                	addi	sp,sp,16
8000046e:	8082                	ret
core_exception_handler():
E:\VMshare\e203\zhengdian_E203\sdk\decmec\Release/../hbird_sdk/SoC/hbirdv2/Common/Source/system_hbirdv2.c:365
    if ((EXCn < MAX_SYSTEM_EXCEPTION_NUM) && (EXCn >= 0)) {
80000470:	4629                	li	a2,10
80000472:	872a                	mv	a4,a0
80000474:	86ae                	mv	a3,a1
80000476:	00f66b63          	bltu	a2,a5,8000048c <core_trap_handler+0x4a>
E:\VMshare\e203\zhengdian_E203\sdk\decmec\Release/../hbird_sdk/SoC/hbirdv2/Common/Source/system_hbirdv2.c:366
        exc_handler = (EXC_HANDLER)SystemExceptionHandlers[EXCn];
8000047a:	078a                	slli	a5,a5,0x2
8000047c:	84c18613          	addi	a2,gp,-1972 # 900000ac <SystemExceptionHandlers>
80000480:	97b2                	add	a5,a5,a2
80000482:	439c                	lw	a5,0(a5)
E:\VMshare\e203\zhengdian_E203\sdk\decmec\Release/../hbird_sdk/SoC/hbirdv2/Common/Source/system_hbirdv2.c:370
    if (exc_handler != NULL) {
80000484:	d3ed                	beqz	a5,80000466 <core_trap_handler+0x24>
E:\VMshare\e203\zhengdian_E203\sdk\decmec\Release/../hbird_sdk/SoC/hbirdv2/Common/Source/system_hbirdv2.c:371
        exc_handler(mcause, sp);
80000486:	85b6                	mv	a1,a3
80000488:	853a                	mv	a0,a4
8000048a:	bfe9                	j	80000464 <core_trap_handler+0x22>
E:\VMshare\e203\zhengdian_E203\sdk\decmec\Release/../hbird_sdk/SoC/hbirdv2/Common/Source/system_hbirdv2.c:368
        exc_handler = (EXC_HANDLER)system_default_exception_handler;
8000048c:	00000797          	auipc	a5,0x0
80000490:	f1c78793          	addi	a5,a5,-228 # 800003a8 <system_default_exception_handler>
E:\VMshare\e203\zhengdian_E203\sdk\decmec\Release/../hbird_sdk/SoC/hbirdv2/Common/Source/system_hbirdv2.c:371
        exc_handler(mcause, sp);
80000494:	85b6                	mv	a1,a3
80000496:	853a                	mv	a0,a4
80000498:	b7f1                	j	80000464 <core_trap_handler+0x22>
PLIC_ClaimInterrupt():
E:\VMshare\e203\zhengdian_E203\sdk\decmec\hbird_sdk\NMSIS\Core\Include/core_feature_plic.h:273
 * \sa
 * - \ref PLIC_CompleteInterrupt
 */
__STATIC_FORCEINLINE uint32_t PLIC_ClaimInterrupt(void)
{
    uint32_t hartid = __RV_CSR_READ(CSR_MHARTID);
8000049a:	f14027f3          	csrr	a5,mhartid
E:\VMshare\e203\zhengdian_E203\sdk\decmec\hbird_sdk\NMSIS\Core\Include/core_feature_plic.h:274
    volatile uint32_t *claim_reg = (uint32_t *)((PLIC_BASE) + PLIC_CLAIM_OFFSET + \
8000049e:	0c200737          	lui	a4,0xc200
E:\VMshare\e203\zhengdian_E203\sdk\decmec\hbird_sdk\NMSIS\Core\Include/core_feature_plic.h:275
                    + (hartid << PLIC_CLAIM_SHIFT_PER_TARGET));
800004a2:	07b2                	slli	a5,a5,0xc
E:\VMshare\e203\zhengdian_E203\sdk\decmec\hbird_sdk\NMSIS\Core\Include/core_feature_plic.h:274
    volatile uint32_t *claim_reg = (uint32_t *)((PLIC_BASE) + PLIC_CLAIM_OFFSET + \
800004a4:	0711                	addi	a4,a4,4
800004a6:	97ba                	add	a5,a5,a4
E:\VMshare\e203\zhengdian_E203\sdk\decmec\hbird_sdk\NMSIS\Core\Include/core_feature_plic.h:277

    return (*claim_reg);
800004a8:	4380                	lw	s0,0(a5)
core_trap_handler():
E:\VMshare\e203\zhengdian_E203\sdk\decmec\Release/../hbird_sdk/SoC/hbirdv2/Common/Source/system_hbirdv2.c:329
            if (irqn < __PLIC_INTNUM) {
800004aa:	47c1                	li	a5,16
800004ac:	fa87ede3          	bltu	a5,s0,80000466 <core_trap_handler+0x24>
E:\VMshare\e203\zhengdian_E203\sdk\decmec\Release/../hbird_sdk/SoC/hbirdv2/Common/Source/system_hbirdv2.c:330
                int_handler = (INT_HANDLER)(SystemExtInterruptHandlers[irqn]);
800004b0:	00241713          	slli	a4,s0,0x2
800004b4:	87818793          	addi	a5,gp,-1928 # 900000d8 <SystemExtInterruptHandlers>
800004b8:	97ba                	add	a5,a5,a4
800004ba:	439c                	lw	a5,0(a5)
E:\VMshare\e203\zhengdian_E203\sdk\decmec\Release/../hbird_sdk/SoC/hbirdv2/Common/Source/system_hbirdv2.c:331
                if (int_handler != NULL) {
800004bc:	c391                	beqz	a5,800004c0 <core_trap_handler+0x7e>
E:\VMshare\e203\zhengdian_E203\sdk\decmec\Release/../hbird_sdk/SoC/hbirdv2/Common/Source/system_hbirdv2.c:332
                    int_handler(mcause, sp);
800004be:	9782                	jalr	a5
PLIC_CompleteInterrupt():
E:\VMshare\e203\zhengdian_E203\sdk\decmec\hbird_sdk\NMSIS\Core\Include/core_feature_plic.h:298
 * \sa
 * - \ref PLIC_ClaimInterrupt
 */
__STATIC_FORCEINLINE void PLIC_CompleteInterrupt(uint32_t source)
{
    uint32_t hartid = __RV_CSR_READ(CSR_MHARTID);
800004c0:	f14027f3          	csrr	a5,mhartid
E:\VMshare\e203\zhengdian_E203\sdk\decmec\hbird_sdk\NMSIS\Core\Include/core_feature_plic.h:299
    volatile uint32_t *complete_reg = (uint32_t *)((PLIC_BASE) + PLIC_CLAIM_OFFSET + \
800004c4:	0c200737          	lui	a4,0xc200
E:\VMshare\e203\zhengdian_E203\sdk\decmec\hbird_sdk\NMSIS\Core\Include/core_feature_plic.h:300
                    + (hartid << PLIC_CLAIM_SHIFT_PER_TARGET));
800004c8:	07b2                	slli	a5,a5,0xc
E:\VMshare\e203\zhengdian_E203\sdk\decmec\hbird_sdk\NMSIS\Core\Include/core_feature_plic.h:299
    volatile uint32_t *complete_reg = (uint32_t *)((PLIC_BASE) + PLIC_CLAIM_OFFSET + \
800004ca:	0711                	addi	a4,a4,4
800004cc:	97ba                	add	a5,a5,a4
E:\VMshare\e203\zhengdian_E203\sdk\decmec\hbird_sdk\NMSIS\Core\Include/core_feature_plic.h:302

    *complete_reg = source;
800004ce:	c380                	sw	s0,0(a5)
E:\VMshare\e203\zhengdian_E203\sdk\decmec\hbird_sdk\NMSIS\Core\Include/core_feature_plic.h:303
}
800004d0:	bf59                	j	80000466 <core_trap_handler+0x24>

800004d2 <_premain_init>:
_premain_init():
E:\VMshare\e203\zhengdian_E203\sdk\decmec\Release/../hbird_sdk/SoC/hbirdv2/Common/Source/system_hbirdv2.c:464
 * For RISC-V gnu toolchain, _init function might not be called
 * by __libc_init_array function, so we defined a new function
 * to do initialization
 */
void _premain_init(void)
{
800004d2:	1141                	addi	sp,sp,-16
800004d4:	c606                	sw	ra,12(sp)
800004d6:	c422                	sw	s0,8(sp)
E:\VMshare\e203\zhengdian_E203\sdk\decmec\Release/../hbird_sdk/SoC/hbirdv2/Common/Source/system_hbirdv2.c:466
    /* TODO: Add your own initialization code here, called before main */
    SystemCoreClock = get_cpu_freq();
800004d8:	3d7d                	jal	80000396 <get_cpu_freq>
800004da:	87aa                	mv	a5,a0
800004dc:	80418413          	addi	s0,gp,-2044 # 90000064 <SystemCoreClock>
E:\VMshare\e203\zhengdian_E203\sdk\decmec\Release/../hbird_sdk/SoC/hbirdv2/Common/Source/system_hbirdv2.c:468
#if ! defined(SIMULATION_SPIKE) && ! defined(SIMULATION_XLSPIKE)
    gpio_iof_config(GPIOA, IOF_UART_MASK);
800004e0:	000305b7          	lui	a1,0x30
800004e4:	10012537          	lui	a0,0x10012
E:\VMshare\e203\zhengdian_E203\sdk\decmec\Release/../hbird_sdk/SoC/hbirdv2/Common/Source/system_hbirdv2.c:466
    SystemCoreClock = get_cpu_freq();
800004e8:	c01c                	sw	a5,0(s0)
E:\VMshare\e203\zhengdian_E203\sdk\decmec\Release/../hbird_sdk/SoC/hbirdv2/Common/Source/system_hbirdv2.c:468
    gpio_iof_config(GPIOA, IOF_UART_MASK);
800004ea:	33f9                	jal	800002b8 <gpio_iof_config>
E:\VMshare\e203\zhengdian_E203\sdk\decmec\Release/../hbird_sdk/SoC/hbirdv2/Common/Source/system_hbirdv2.c:469
    uart_init(SOC_DEBUG_UART, 115200);
800004ec:	65f1                	lui	a1,0x1c
800004ee:	20058593          	addi	a1,a1,512 # 1c200 <__stack_size+0x1ba00>
800004f2:	10013537          	lui	a0,0x10013
800004f6:	3bd1                	jal	800002ca <uart_init>
SystemBannerPrint():
E:\VMshare\e203\zhengdian_E203\sdk\decmec\Release/../hbird_sdk/SoC/hbirdv2/Common/Source/system_hbirdv2.c:381
    printf("HummingBird SDK Build Time: %s, %s\r\n", __DATE__, __TIME__);
800004f8:	00002617          	auipc	a2,0x2
800004fc:	ae460613          	addi	a2,a2,-1308 # 80001fdc <_read_r+0x86>
80000500:	00002597          	auipc	a1,0x2
80000504:	ae858593          	addi	a1,a1,-1304 # 80001fe8 <_read_r+0x92>
80000508:	00002517          	auipc	a0,0x2
8000050c:	aec50513          	addi	a0,a0,-1300 # 80001ff4 <_read_r+0x9e>
80000510:	25d5                	jal	80000bf4 <iprintf>
E:\VMshare\e203\zhengdian_E203\sdk\decmec\Release/../hbird_sdk/SoC/hbirdv2/Common/Source/system_hbirdv2.c:383
    printf("Download Mode: %s\r\n", DOWNLOAD_MODE_STRING);
80000512:	00002597          	auipc	a1,0x2
80000516:	b0a58593          	addi	a1,a1,-1270 # 8000201c <_read_r+0xc6>
8000051a:	00002517          	auipc	a0,0x2
8000051e:	b0650513          	addi	a0,a0,-1274 # 80002020 <_read_r+0xca>
80000522:	2dc9                	jal	80000bf4 <iprintf>
E:\VMshare\e203\zhengdian_E203\sdk\decmec\Release/../hbird_sdk/SoC/hbirdv2/Common/Source/system_hbirdv2.c:385
    printf("CPU Frequency %lu Hz\r\n", SystemCoreClock);
80000524:	400c                	lw	a1,0(s0)
80000526:	00002517          	auipc	a0,0x2
8000052a:	b0e50513          	addi	a0,a0,-1266 # 80002034 <_read_r+0xde>
8000052e:	25d9                	jal	80000bf4 <iprintf>
Exception_Init():
E:\VMshare\e203\zhengdian_E203\sdk\decmec\Release/../hbird_sdk/SoC/hbirdv2/Common/Source/system_hbirdv2.c:201
        SystemExceptionHandlers[i] = (unsigned long)system_default_exception_handler;
80000530:	00000697          	auipc	a3,0x0
80000534:	e7868693          	addi	a3,a3,-392 # 800003a8 <system_default_exception_handler>
80000538:	84c18793          	addi	a5,gp,-1972 # 900000ac <SystemExceptionHandlers>
8000053c:	87818713          	addi	a4,gp,-1928 # 900000d8 <SystemExtInterruptHandlers>
80000540:	c394                	sw	a3,0(a5)
E:\VMshare\e203\zhengdian_E203\sdk\decmec\Release/../hbird_sdk/SoC/hbirdv2/Common/Source/system_hbirdv2.c:200
    for (int i = 0; i < MAX_SYSTEM_EXCEPTION_NUM; i++) {
80000542:	0791                	addi	a5,a5,4
80000544:	fee79ee3          	bne	a5,a4,80000540 <_premain_init+0x6e>
Interrupt_Init():
E:\VMshare\e203\zhengdian_E203\sdk\decmec\Release/../hbird_sdk/SoC/hbirdv2/Common/Source/system_hbirdv2.c:216
        SystemExtInterruptHandlers[i] = (unsigned long)system_default_interrupt_handler;
80000548:	00000717          	auipc	a4,0x0
8000054c:	ea470713          	addi	a4,a4,-348 # 800003ec <system_default_interrupt_handler>
80000550:	87818793          	addi	a5,gp,-1928 # 900000d8 <SystemExtInterruptHandlers>
80000554:	8bc18693          	addi	a3,gp,-1860 # 9000011c <misa_chars.0>
80000558:	c398                	sw	a4,0(a5)
E:\VMshare\e203\zhengdian_E203\sdk\decmec\Release/../hbird_sdk/SoC/hbirdv2/Common/Source/system_hbirdv2.c:215
    for (i = 0; i < __PLIC_INTNUM; i++) {
8000055a:	0791                	addi	a5,a5,4
8000055c:	fef69ee3          	bne	a3,a5,80000558 <_premain_init+0x86>
80000560:	82418793          	addi	a5,gp,-2012 # 90000084 <SystemCoreInterruptHandlers>
80000564:	84c18693          	addi	a3,gp,-1972 # 900000ac <SystemExceptionHandlers>
E:\VMshare\e203\zhengdian_E203\sdk\decmec\Release/../hbird_sdk/SoC/hbirdv2/Common/Source/system_hbirdv2.c:219
        SystemCoreInterruptHandlers[i] = (unsigned long)system_default_interrupt_handler;
80000568:	c398                	sw	a4,0(a5)
E:\VMshare\e203\zhengdian_E203\sdk\decmec\Release/../hbird_sdk/SoC/hbirdv2/Common/Source/system_hbirdv2.c:218
    for (i = 0; i < 10; i++) {
8000056a:	0791                	addi	a5,a5,4
8000056c:	fed79ee3          	bne	a5,a3,80000568 <_premain_init+0x96>
80000570:	0c000637          	lui	a2,0xc000
PLIC_Init():
E:\VMshare\e203\zhengdian_E203\sdk\decmec\hbird_sdk\NMSIS\Core\Include/core_feature_plic.h:318
 */
__STATIC_FORCEINLINE void PLIC_Init(uint32_t num_sources)
{
    uint32_t i;

    for (i = 0; i < num_sources; i ++) {
80000574:	4681                	li	a3,0
PLIC_DisableInterrupt():
E:\VMshare\e203\zhengdian_E203\sdk\decmec\hbird_sdk\NMSIS\Core\Include/core_feature_plic.h:193
                    (hartid << PLIC_ENABLE_SHIFT_PER_TARGET) + (source >> 5) * 4);
80000576:	0c0028b7          	lui	a7,0xc002
E:\VMshare\e203\zhengdian_E203\sdk\decmec\hbird_sdk\NMSIS\Core\Include/core_feature_plic.h:196
    current = current & (~(1<<(source&0x1F)));
8000057a:	4805                	li	a6,1
PLIC_Init():
E:\VMshare\e203\zhengdian_E203\sdk\decmec\hbird_sdk\NMSIS\Core\Include/core_feature_plic.h:318
    for (i = 0; i < num_sources; i ++) {
8000057c:	4545                	li	a0,17
PLIC_DisableInterrupt():
E:\VMshare\e203\zhengdian_E203\sdk\decmec\hbird_sdk\NMSIS\Core\Include/core_feature_plic.h:191
    uint32_t hartid = __RV_CSR_READ(CSR_MHARTID);
8000057e:	f14027f3          	csrr	a5,mhartid
E:\VMshare\e203\zhengdian_E203\sdk\decmec\hbird_sdk\NMSIS\Core\Include/core_feature_plic.h:193
                    (hartid << PLIC_ENABLE_SHIFT_PER_TARGET) + (source >> 5) * 4);
80000582:	079e                	slli	a5,a5,0x7
80000584:	97c6                	add	a5,a5,a7
E:\VMshare\e203\zhengdian_E203\sdk\decmec\hbird_sdk\NMSIS\Core\Include/core_feature_plic.h:195
    uint32_t current = *enable_reg;
80000586:	438c                	lw	a1,0(a5)
E:\VMshare\e203\zhengdian_E203\sdk\decmec\hbird_sdk\NMSIS\Core\Include/core_feature_plic.h:196
    current = current & (~(1<<(source&0x1F)));
80000588:	00d81733          	sll	a4,a6,a3
8000058c:	fff74713          	not	a4,a4
80000590:	8f6d                	and	a4,a4,a1
E:\VMshare\e203\zhengdian_E203\sdk\decmec\hbird_sdk\NMSIS\Core\Include/core_feature_plic.h:197
    *enable_reg = current;
80000592:	c398                	sw	a4,0(a5)
PLIC_SetPriority():
E:\VMshare\e203\zhengdian_E203\sdk\decmec\hbird_sdk\NMSIS\Core\Include/core_feature_plic.h:237
    *priority_reg = priority;
80000594:	00062023          	sw	zero,0(a2) # c000000 <__stack_size+0xbfff800>
PLIC_Init():
E:\VMshare\e203\zhengdian_E203\sdk\decmec\hbird_sdk\NMSIS\Core\Include/core_feature_plic.h:318
    for (i = 0; i < num_sources; i ++) {
80000598:	0685                	addi	a3,a3,1
8000059a:	0611                	addi	a2,a2,4
8000059c:	fea691e3          	bne	a3,a0,8000057e <_premain_init+0xac>
PLIC_SetThreshold():
E:\VMshare\e203\zhengdian_E203\sdk\decmec\hbird_sdk\NMSIS\Core\Include/core_feature_plic.h:135
    uint32_t hartid = __RV_CSR_READ(CSR_MHARTID);
800005a0:	f14027f3          	csrr	a5,mhartid
E:\VMshare\e203\zhengdian_E203\sdk\decmec\hbird_sdk\NMSIS\Core\Include/core_feature_plic.h:137
                    PLIC_THRESHOLD_OFFSET + (hartid << PLIC_THRESHOLD_SHIFT_PER_TARGET));
800005a4:	0c200737          	lui	a4,0xc200
_premain_init():
E:\VMshare\e203\zhengdian_E203\sdk\decmec\Release/../hbird_sdk/SoC/hbirdv2/Common/Source/system_hbirdv2.c:481
    Interrupt_Init();
#if defined(__PLIC_PRESENT) && __PLIC_PRESENT == 1
    /* PLIC initilization */
    PLIC_Init(__PLIC_INTNUM);
#endif
}
800005a8:	40b2                	lw	ra,12(sp)
800005aa:	4422                	lw	s0,8(sp)
PLIC_SetThreshold():
E:\VMshare\e203\zhengdian_E203\sdk\decmec\hbird_sdk\NMSIS\Core\Include/core_feature_plic.h:137
800005ac:	07b2                	slli	a5,a5,0xc
800005ae:	97ba                	add	a5,a5,a4
E:\VMshare\e203\zhengdian_E203\sdk\decmec\hbird_sdk\NMSIS\Core\Include/core_feature_plic.h:139
    *thresh_reg = thresh;
800005b0:	0007a023          	sw	zero,0(a5)
_premain_init():
E:\VMshare\e203\zhengdian_E203\sdk\decmec\Release/../hbird_sdk/SoC/hbirdv2/Common/Source/system_hbirdv2.c:481
800005b4:	0141                	addi	sp,sp,16
800005b6:	8082                	ret

800005b8 <_postmain_fini>:
_postmain_fini():
E:\VMshare\e203\zhengdian_E203\sdk\decmec\Release/../hbird_sdk/SoC/hbirdv2/Common/Source/system_hbirdv2.c:507
#ifdef SIMULATION_RTL
extern void rtlsim_exit(int status);
    rtlsim_exit(status);
#endif

}
800005b8:	8082                	ret

800005ba <_init>:
_init():
E:\VMshare\e203\zhengdian_E203\sdk\decmec\Release/../hbird_sdk/SoC/hbirdv2/Common/Source/system_hbirdv2.c:521
 * Please use \ref _premain_init function now
 */
void _init(void)
{
    /* Don't put any code here, please use _premain_init now */
}
800005ba:	8082                	ret

800005bc <_fini>:
_fini():
800005bc:	8082                	ret

800005be <print_misa>:
print_misa():
E:\VMshare\e203\zhengdian_E203\sdk\decmec\Release/../application/main.c:11
    CSR_MISA_Type misa_bits = (CSR_MISA_Type) __RV_CSR_READ(CSR_MISA);
800005be:	301026f3          	csrr	a3,misa
E:\VMshare\e203\zhengdian_E203\sdk\decmec\Release/../application/main.c:14
    if (misa_bits.b.mxl == 1) {
800005c2:	c0000737          	lui	a4,0xc0000
800005c6:	00e6f7b3          	and	a5,a3,a4
800005ca:	40000637          	lui	a2,0x40000
800005ce:	1ec78c63          	beq	a5,a2,800007c6 <print_misa+0x208>
E:\VMshare\e203\zhengdian_E203\sdk\decmec\Release/../application/main.c:17
    } else if (misa_bits.b.mxl == 2) {
800005d2:	80000637          	lui	a2,0x80000
800005d6:	1cc78e63          	beq	a5,a2,800007b2 <print_misa+0x1f4>
E:\VMshare\e203\zhengdian_E203\sdk\decmec\Release/../application/main.c:20
    } else if (misa_bits.b.mxl == 3) {
800005da:	20e78063          	beq	a5,a4,800007da <print_misa+0x21c>
800005de:	4701                	li	a4,0
E:\VMshare\e203\zhengdian_E203\sdk\decmec\Release/../application/main.c:13
    uint8_t index = 0;
800005e0:	4781                	li	a5,0
800005e2:	8bc18613          	addi	a2,gp,-1860 # 9000011c <misa_chars.0>
E:\VMshare\e203\zhengdian_E203\sdk\decmec\Release/../application/main.c:25
    if (misa_bits.b.i) {
800005e6:	1006f593          	andi	a1,a3,256
800005ea:	c991                	beqz	a1,800005fe <print_misa+0x40>
E:\VMshare\e203\zhengdian_E203\sdk\decmec\Release/../application/main.c:26
        misa_chars[index++] = 'I';
800005ec:	0785                	addi	a5,a5,1
800005ee:	9732                	add	a4,a4,a2
800005f0:	0ff7f793          	andi	a5,a5,255
800005f4:	04900593          	li	a1,73
800005f8:	00b70023          	sb	a1,0(a4) # c0000000 <_sp+0x2fff0000>
E:\VMshare\e203\zhengdian_E203\sdk\decmec\Release/../application/main.c:29
        misa_chars[index++] = 'M';
800005fc:	873e                	mv	a4,a5
E:\VMshare\e203\zhengdian_E203\sdk\decmec\Release/../application/main.c:28
    if (misa_bits.b.m) {
800005fe:	6585                	lui	a1,0x1
80000600:	8df5                	and	a1,a1,a3
80000602:	c991                	beqz	a1,80000616 <print_misa+0x58>
E:\VMshare\e203\zhengdian_E203\sdk\decmec\Release/../application/main.c:29
        misa_chars[index++] = 'M';
80000604:	0785                	addi	a5,a5,1
80000606:	9732                	add	a4,a4,a2
80000608:	0ff7f793          	andi	a5,a5,255
8000060c:	04d00593          	li	a1,77
80000610:	00b70023          	sb	a1,0(a4)
E:\VMshare\e203\zhengdian_E203\sdk\decmec\Release/../application/main.c:32
        misa_chars[index++] = 'A';
80000614:	873e                	mv	a4,a5
E:\VMshare\e203\zhengdian_E203\sdk\decmec\Release/../application/main.c:31
    if (misa_bits.b.a) {
80000616:	0016f593          	andi	a1,a3,1
8000061a:	c991                	beqz	a1,8000062e <print_misa+0x70>
E:\VMshare\e203\zhengdian_E203\sdk\decmec\Release/../application/main.c:32
        misa_chars[index++] = 'A';
8000061c:	0785                	addi	a5,a5,1
8000061e:	9732                	add	a4,a4,a2
80000620:	0ff7f793          	andi	a5,a5,255
80000624:	04100593          	li	a1,65
80000628:	00b70023          	sb	a1,0(a4)
E:\VMshare\e203\zhengdian_E203\sdk\decmec\Release/../application/main.c:35
        misa_chars[index++] = 'B';
8000062c:	873e                	mv	a4,a5
E:\VMshare\e203\zhengdian_E203\sdk\decmec\Release/../application/main.c:34
    if (misa_bits.b.b) {
8000062e:	0026f593          	andi	a1,a3,2
80000632:	c991                	beqz	a1,80000646 <print_misa+0x88>
E:\VMshare\e203\zhengdian_E203\sdk\decmec\Release/../application/main.c:35
        misa_chars[index++] = 'B';
80000634:	0785                	addi	a5,a5,1
80000636:	9732                	add	a4,a4,a2
80000638:	0ff7f793          	andi	a5,a5,255
8000063c:	04200593          	li	a1,66
80000640:	00b70023          	sb	a1,0(a4)
E:\VMshare\e203\zhengdian_E203\sdk\decmec\Release/../application/main.c:38
        misa_chars[index++] = 'C';
80000644:	873e                	mv	a4,a5
E:\VMshare\e203\zhengdian_E203\sdk\decmec\Release/../application/main.c:37
    if (misa_bits.b.c) {
80000646:	0046f593          	andi	a1,a3,4
8000064a:	c991                	beqz	a1,8000065e <print_misa+0xa0>
E:\VMshare\e203\zhengdian_E203\sdk\decmec\Release/../application/main.c:38
        misa_chars[index++] = 'C';
8000064c:	0785                	addi	a5,a5,1
8000064e:	9732                	add	a4,a4,a2
80000650:	0ff7f793          	andi	a5,a5,255
80000654:	04300593          	li	a1,67
80000658:	00b70023          	sb	a1,0(a4)
E:\VMshare\e203\zhengdian_E203\sdk\decmec\Release/../application/main.c:41
        misa_chars[index++] = 'E';
8000065c:	873e                	mv	a4,a5
E:\VMshare\e203\zhengdian_E203\sdk\decmec\Release/../application/main.c:40
    if (misa_bits.b.e) {
8000065e:	0106f593          	andi	a1,a3,16
80000662:	c991                	beqz	a1,80000676 <print_misa+0xb8>
E:\VMshare\e203\zhengdian_E203\sdk\decmec\Release/../application/main.c:41
        misa_chars[index++] = 'E';
80000664:	0785                	addi	a5,a5,1
80000666:	9732                	add	a4,a4,a2
80000668:	0ff7f793          	andi	a5,a5,255
8000066c:	04500593          	li	a1,69
80000670:	00b70023          	sb	a1,0(a4)
E:\VMshare\e203\zhengdian_E203\sdk\decmec\Release/../application/main.c:44
        misa_chars[index++] = 'F';
80000674:	873e                	mv	a4,a5
E:\VMshare\e203\zhengdian_E203\sdk\decmec\Release/../application/main.c:43
    if (misa_bits.b.f) {
80000676:	0206f593          	andi	a1,a3,32
8000067a:	c991                	beqz	a1,8000068e <print_misa+0xd0>
E:\VMshare\e203\zhengdian_E203\sdk\decmec\Release/../application/main.c:44
        misa_chars[index++] = 'F';
8000067c:	0785                	addi	a5,a5,1
8000067e:	9732                	add	a4,a4,a2
80000680:	0ff7f793          	andi	a5,a5,255
80000684:	04600593          	li	a1,70
80000688:	00b70023          	sb	a1,0(a4)
E:\VMshare\e203\zhengdian_E203\sdk\decmec\Release/../application/main.c:47
        misa_chars[index++] = 'D';
8000068c:	873e                	mv	a4,a5
E:\VMshare\e203\zhengdian_E203\sdk\decmec\Release/../application/main.c:46
    if (misa_bits.b.d) {
8000068e:	0086f593          	andi	a1,a3,8
80000692:	c991                	beqz	a1,800006a6 <print_misa+0xe8>
E:\VMshare\e203\zhengdian_E203\sdk\decmec\Release/../application/main.c:47
        misa_chars[index++] = 'D';
80000694:	0785                	addi	a5,a5,1
80000696:	9732                	add	a4,a4,a2
80000698:	0ff7f793          	andi	a5,a5,255
8000069c:	04400593          	li	a1,68
800006a0:	00b70023          	sb	a1,0(a4)
E:\VMshare\e203\zhengdian_E203\sdk\decmec\Release/../application/main.c:50
        misa_chars[index++] = 'Q';
800006a4:	873e                	mv	a4,a5
E:\VMshare\e203\zhengdian_E203\sdk\decmec\Release/../application/main.c:49
    if (misa_bits.b.q) {
800006a6:	65c1                	lui	a1,0x10
800006a8:	8df5                	and	a1,a1,a3
800006aa:	c991                	beqz	a1,800006be <print_misa+0x100>
E:\VMshare\e203\zhengdian_E203\sdk\decmec\Release/../application/main.c:50
        misa_chars[index++] = 'Q';
800006ac:	0785                	addi	a5,a5,1
800006ae:	9732                	add	a4,a4,a2
800006b0:	0ff7f793          	andi	a5,a5,255
800006b4:	05100593          	li	a1,81
800006b8:	00b70023          	sb	a1,0(a4)
E:\VMshare\e203\zhengdian_E203\sdk\decmec\Release/../application/main.c:53
        misa_chars[index++] = 'H';
800006bc:	873e                	mv	a4,a5
E:\VMshare\e203\zhengdian_E203\sdk\decmec\Release/../application/main.c:52
    if (misa_bits.b.h) {
800006be:	0806f593          	andi	a1,a3,128
800006c2:	c991                	beqz	a1,800006d6 <print_misa+0x118>
E:\VMshare\e203\zhengdian_E203\sdk\decmec\Release/../application/main.c:53
        misa_chars[index++] = 'H';
800006c4:	0785                	addi	a5,a5,1
800006c6:	9732                	add	a4,a4,a2
800006c8:	0ff7f793          	andi	a5,a5,255
800006cc:	04800593          	li	a1,72
800006d0:	00b70023          	sb	a1,0(a4)
E:\VMshare\e203\zhengdian_E203\sdk\decmec\Release/../application/main.c:56
        misa_chars[index++] = 'J';
800006d4:	873e                	mv	a4,a5
E:\VMshare\e203\zhengdian_E203\sdk\decmec\Release/../application/main.c:55
    if (misa_bits.b.j) {
800006d6:	2006f593          	andi	a1,a3,512
800006da:	c991                	beqz	a1,800006ee <print_misa+0x130>
E:\VMshare\e203\zhengdian_E203\sdk\decmec\Release/../application/main.c:56
        misa_chars[index++] = 'J';
800006dc:	0785                	addi	a5,a5,1
800006de:	9732                	add	a4,a4,a2
800006e0:	0ff7f793          	andi	a5,a5,255
800006e4:	04a00593          	li	a1,74
800006e8:	00b70023          	sb	a1,0(a4)
E:\VMshare\e203\zhengdian_E203\sdk\decmec\Release/../application/main.c:59
        misa_chars[index++] = 'L';
800006ec:	873e                	mv	a4,a5
E:\VMshare\e203\zhengdian_E203\sdk\decmec\Release/../application/main.c:58
    if (misa_bits.b.l) {
800006ee:	00b6d593          	srli	a1,a3,0xb
800006f2:	8985                	andi	a1,a1,1
800006f4:	c991                	beqz	a1,80000708 <print_misa+0x14a>
E:\VMshare\e203\zhengdian_E203\sdk\decmec\Release/../application/main.c:59
        misa_chars[index++] = 'L';
800006f6:	0785                	addi	a5,a5,1
800006f8:	9732                	add	a4,a4,a2
800006fa:	0ff7f793          	andi	a5,a5,255
800006fe:	04c00593          	li	a1,76
80000702:	00b70023          	sb	a1,0(a4)
E:\VMshare\e203\zhengdian_E203\sdk\decmec\Release/../application/main.c:62
        misa_chars[index++] = 'N';
80000706:	873e                	mv	a4,a5
E:\VMshare\e203\zhengdian_E203\sdk\decmec\Release/../application/main.c:61
    if (misa_bits.b.n) {
80000708:	6589                	lui	a1,0x2
8000070a:	8df5                	and	a1,a1,a3
8000070c:	c991                	beqz	a1,80000720 <print_misa+0x162>
E:\VMshare\e203\zhengdian_E203\sdk\decmec\Release/../application/main.c:62
        misa_chars[index++] = 'N';
8000070e:	0785                	addi	a5,a5,1
80000710:	9732                	add	a4,a4,a2
80000712:	0ff7f793          	andi	a5,a5,255
80000716:	04e00593          	li	a1,78
8000071a:	00b70023          	sb	a1,0(a4)
E:\VMshare\e203\zhengdian_E203\sdk\decmec\Release/../application/main.c:65
        misa_chars[index++] = 'S';
8000071e:	873e                	mv	a4,a5
E:\VMshare\e203\zhengdian_E203\sdk\decmec\Release/../application/main.c:64
    if (misa_bits.b.s) {
80000720:	000405b7          	lui	a1,0x40
80000724:	8df5                	and	a1,a1,a3
80000726:	c991                	beqz	a1,8000073a <print_misa+0x17c>
E:\VMshare\e203\zhengdian_E203\sdk\decmec\Release/../application/main.c:65
        misa_chars[index++] = 'S';
80000728:	0785                	addi	a5,a5,1
8000072a:	9732                	add	a4,a4,a2
8000072c:	0ff7f793          	andi	a5,a5,255
80000730:	05300593          	li	a1,83
80000734:	00b70023          	sb	a1,0(a4)
E:\VMshare\e203\zhengdian_E203\sdk\decmec\Release/../application/main.c:68
        misa_chars[index++] = 'P';
80000738:	873e                	mv	a4,a5
E:\VMshare\e203\zhengdian_E203\sdk\decmec\Release/../application/main.c:67
    if (misa_bits.b.p) {
8000073a:	65a1                	lui	a1,0x8
8000073c:	8df5                	and	a1,a1,a3
8000073e:	c991                	beqz	a1,80000752 <print_misa+0x194>
E:\VMshare\e203\zhengdian_E203\sdk\decmec\Release/../application/main.c:68
        misa_chars[index++] = 'P';
80000740:	0785                	addi	a5,a5,1
80000742:	9732                	add	a4,a4,a2
80000744:	0ff7f793          	andi	a5,a5,255
80000748:	05000593          	li	a1,80
8000074c:	00b70023          	sb	a1,0(a4)
E:\VMshare\e203\zhengdian_E203\sdk\decmec\Release/../application/main.c:71
        misa_chars[index++] = 'T';
80000750:	873e                	mv	a4,a5
E:\VMshare\e203\zhengdian_E203\sdk\decmec\Release/../application/main.c:70
    if (misa_bits.b.t) {
80000752:	000805b7          	lui	a1,0x80
80000756:	8df5                	and	a1,a1,a3
80000758:	c991                	beqz	a1,8000076c <print_misa+0x1ae>
E:\VMshare\e203\zhengdian_E203\sdk\decmec\Release/../application/main.c:71
        misa_chars[index++] = 'T';
8000075a:	0785                	addi	a5,a5,1
8000075c:	9732                	add	a4,a4,a2
8000075e:	0ff7f793          	andi	a5,a5,255
80000762:	05400593          	li	a1,84
80000766:	00b70023          	sb	a1,0(a4)
E:\VMshare\e203\zhengdian_E203\sdk\decmec\Release/../application/main.c:74
        misa_chars[index++] = 'U';
8000076a:	873e                	mv	a4,a5
E:\VMshare\e203\zhengdian_E203\sdk\decmec\Release/../application/main.c:73
    if (misa_bits.b.u) {
8000076c:	001005b7          	lui	a1,0x100
80000770:	8df5                	and	a1,a1,a3
80000772:	c991                	beqz	a1,80000786 <print_misa+0x1c8>
E:\VMshare\e203\zhengdian_E203\sdk\decmec\Release/../application/main.c:74
        misa_chars[index++] = 'U';
80000774:	0785                	addi	a5,a5,1
80000776:	9732                	add	a4,a4,a2
80000778:	0ff7f793          	andi	a5,a5,255
8000077c:	05500593          	li	a1,85
80000780:	00b70023          	sb	a1,0(a4)
E:\VMshare\e203\zhengdian_E203\sdk\decmec\Release/../application/main.c:77
        misa_chars[index++] = 'X';
80000784:	873e                	mv	a4,a5
E:\VMshare\e203\zhengdian_E203\sdk\decmec\Release/../application/main.c:76
    if (misa_bits.b.x) {
80000786:	008005b7          	lui	a1,0x800
8000078a:	8eed                	and	a3,a3,a1
8000078c:	ca89                	beqz	a3,8000079e <print_misa+0x1e0>
E:\VMshare\e203\zhengdian_E203\sdk\decmec\Release/../application/main.c:77
        misa_chars[index++] = 'X';
8000078e:	9732                	add	a4,a4,a2
80000790:	0785                	addi	a5,a5,1
80000792:	05800693          	li	a3,88
80000796:	00d70023          	sb	a3,0(a4)
E:\VMshare\e203\zhengdian_E203\sdk\decmec\Release/../application/main.c:80
    misa_chars[index++] = '\0';
8000079a:	0ff7f713          	andi	a4,a5,255
8000079e:	9732                	add	a4,a4,a2
E:\VMshare\e203\zhengdian_E203\sdk\decmec\Release/../application/main.c:82
    printf("MISA: RV%s\r\n", misa_chars);
800007a0:	8bc18593          	addi	a1,gp,-1860 # 9000011c <misa_chars.0>
800007a4:	00002517          	auipc	a0,0x2
800007a8:	8a850513          	addi	a0,a0,-1880 # 8000204c <_read_r+0xf6>
E:\VMshare\e203\zhengdian_E203\sdk\decmec\Release/../application/main.c:80
    misa_chars[index++] = '\0';
800007ac:	00070023          	sb	zero,0(a4)
E:\VMshare\e203\zhengdian_E203\sdk\decmec\Release/../application/main.c:82
    printf("MISA: RV%s\r\n", misa_chars);
800007b0:	a191                	j	80000bf4 <iprintf>
E:\VMshare\e203\zhengdian_E203\sdk\decmec\Release/../application/main.c:18
        misa_chars[index++] = '6';
800007b2:	678d                	lui	a5,0x3
800007b4:	43678793          	addi	a5,a5,1078 # 3436 <__stack_size+0x2c36>
800007b8:	8bc18613          	addi	a2,gp,-1860 # 9000011c <misa_chars.0>
800007bc:	00f61023          	sh	a5,0(a2) # 80000000 <_sp+0xefff0000>
800007c0:	4709                	li	a4,2
E:\VMshare\e203\zhengdian_E203\sdk\decmec\Release/../application/main.c:19
        misa_chars[index++] = '4';
800007c2:	4789                	li	a5,2
800007c4:	b50d                	j	800005e6 <print_misa+0x28>
E:\VMshare\e203\zhengdian_E203\sdk\decmec\Release/../application/main.c:15
        misa_chars[index++] = '3';
800007c6:	678d                	lui	a5,0x3
800007c8:	23378793          	addi	a5,a5,563 # 3233 <__stack_size+0x2a33>
800007cc:	8bc18613          	addi	a2,gp,-1860 # 9000011c <misa_chars.0>
800007d0:	00f61023          	sh	a5,0(a2)
800007d4:	4709                	li	a4,2
E:\VMshare\e203\zhengdian_E203\sdk\decmec\Release/../application/main.c:16
        misa_chars[index++] = '2';
800007d6:	4789                	li	a5,2
800007d8:	b539                	j	800005e6 <print_misa+0x28>
E:\VMshare\e203\zhengdian_E203\sdk\decmec\Release/../application/main.c:21
        misa_chars[index++] = '1';
800007da:	678d                	lui	a5,0x3
800007dc:	8bc18613          	addi	a2,gp,-1860 # 9000011c <misa_chars.0>
800007e0:	23178793          	addi	a5,a5,561 # 3231 <__stack_size+0x2a31>
800007e4:	00f61023          	sh	a5,0(a2)
E:\VMshare\e203\zhengdian_E203\sdk\decmec\Release/../application/main.c:23
        misa_chars[index++] = '8';
800007e8:	03800793          	li	a5,56
800007ec:	00f60123          	sb	a5,2(a2)
800007f0:	470d                	li	a4,3
800007f2:	478d                	li	a5,3
800007f4:	bbcd                	j	800005e6 <print_misa+0x28>

800007f6 <__udivdi3>:
__udivdi3():
/home/hqfang/workspace/software/riscv-gnu-toolchain/riscv-gcc/libgcc/libgcc2.c:1319
800007f6:	88aa                	mv	a7,a0
800007f8:	87ae                	mv	a5,a1
__udivmoddi4():
/home/hqfang/workspace/software/riscv-gnu-toolchain/riscv-gcc/libgcc/libgcc2.c:1024
800007fa:	8832                	mv	a6,a2
/home/hqfang/workspace/software/riscv-gnu-toolchain/riscv-gcc/libgcc/libgcc2.c:1025
800007fc:	8536                	mv	a0,a3
/home/hqfang/workspace/software/riscv-gnu-toolchain/riscv-gcc/libgcc/libgcc2.c:1026
800007fe:	8346                	mv	t1,a7
/home/hqfang/workspace/software/riscv-gnu-toolchain/riscv-gcc/libgcc/libgcc2.c:1064
80000800:	20069663          	bnez	a3,80000a0c <__udivdi3+0x216>
/home/hqfang/workspace/software/riscv-gnu-toolchain/riscv-gcc/libgcc/libgcc2.c:1066
80000804:	00002697          	auipc	a3,0x2
80000808:	8ac68693          	addi	a3,a3,-1876 # 800020b0 <__clz_tab>
8000080c:	0ac5ff63          	bgeu	a1,a2,800008ca <__udivdi3+0xd4>
/home/hqfang/workspace/software/riscv-gnu-toolchain/riscv-gcc/libgcc/libgcc2.c:1070
80000810:	6741                	lui	a4,0x10
80000812:	0ae67563          	bgeu	a2,a4,800008bc <__udivdi3+0xc6>
80000816:	0ff00713          	li	a4,255
8000081a:	00c73733          	sltu	a4,a4,a2
8000081e:	070e                	slli	a4,a4,0x3
80000820:	00e65533          	srl	a0,a2,a4
80000824:	96aa                	add	a3,a3,a0
80000826:	0006c683          	lbu	a3,0(a3)
8000082a:	02000513          	li	a0,32
8000082e:	9736                	add	a4,a4,a3
80000830:	40e506b3          	sub	a3,a0,a4
/home/hqfang/workspace/software/riscv-gnu-toolchain/riscv-gcc/libgcc/libgcc2.c:1072
80000834:	00e50b63          	beq	a0,a4,8000084a <__udivdi3+0x54>
/home/hqfang/workspace/software/riscv-gnu-toolchain/riscv-gcc/libgcc/libgcc2.c:1078
80000838:	00d795b3          	sll	a1,a5,a3
8000083c:	00e8d733          	srl	a4,a7,a4
/home/hqfang/workspace/software/riscv-gnu-toolchain/riscv-gcc/libgcc/libgcc2.c:1077
80000840:	00d61833          	sll	a6,a2,a3
/home/hqfang/workspace/software/riscv-gnu-toolchain/riscv-gcc/libgcc/libgcc2.c:1078
80000844:	8dd9                	or	a1,a1,a4
/home/hqfang/workspace/software/riscv-gnu-toolchain/riscv-gcc/libgcc/libgcc2.c:1079
80000846:	00d89333          	sll	t1,a7,a3
/home/hqfang/workspace/software/riscv-gnu-toolchain/riscv-gcc/libgcc/libgcc2.c:1082
8000084a:	01085893          	srli	a7,a6,0x10
8000084e:	0315d6b3          	divu	a3,a1,a7
80000852:	01081613          	slli	a2,a6,0x10
80000856:	8241                	srli	a2,a2,0x10
80000858:	01035793          	srli	a5,t1,0x10
8000085c:	0315f733          	remu	a4,a1,a7
80000860:	8536                	mv	a0,a3
80000862:	02d605b3          	mul	a1,a2,a3
80000866:	0742                	slli	a4,a4,0x10
80000868:	8fd9                	or	a5,a5,a4
8000086a:	00b7fc63          	bgeu	a5,a1,80000882 <__udivdi3+0x8c>
8000086e:	97c2                	add	a5,a5,a6
80000870:	fff68513          	addi	a0,a3,-1
80000874:	0107e763          	bltu	a5,a6,80000882 <__udivdi3+0x8c>
80000878:	00b7f563          	bgeu	a5,a1,80000882 <__udivdi3+0x8c>
8000087c:	ffe68513          	addi	a0,a3,-2
80000880:	97c2                	add	a5,a5,a6
80000882:	8f8d                	sub	a5,a5,a1
80000884:	0317f733          	remu	a4,a5,a7
80000888:	0342                	slli	t1,t1,0x10
8000088a:	01035313          	srli	t1,t1,0x10
8000088e:	0317d7b3          	divu	a5,a5,a7
80000892:	0742                	slli	a4,a4,0x10
80000894:	00676333          	or	t1,a4,t1
80000898:	02f606b3          	mul	a3,a2,a5
8000089c:	863e                	mv	a2,a5
8000089e:	00d37b63          	bgeu	t1,a3,800008b4 <__udivdi3+0xbe>
800008a2:	9342                	add	t1,t1,a6
800008a4:	fff78613          	addi	a2,a5,-1
800008a8:	01036663          	bltu	t1,a6,800008b4 <__udivdi3+0xbe>
800008ac:	00d37463          	bgeu	t1,a3,800008b4 <__udivdi3+0xbe>
800008b0:	ffe78613          	addi	a2,a5,-2
800008b4:	0542                	slli	a0,a0,0x10
800008b6:	8d51                	or	a0,a0,a2
/home/hqfang/workspace/software/riscv-gnu-toolchain/riscv-gcc/libgcc/libgcc2.c:1209
800008b8:	4581                	li	a1,0
800008ba:	a85d                	j	80000970 <__udivdi3+0x17a>
/home/hqfang/workspace/software/riscv-gnu-toolchain/riscv-gcc/libgcc/libgcc2.c:1070
800008bc:	01000537          	lui	a0,0x1000
800008c0:	4741                	li	a4,16
800008c2:	f4a66fe3          	bltu	a2,a0,80000820 <__udivdi3+0x2a>
800008c6:	4761                	li	a4,24
800008c8:	bfa1                	j	80000820 <__udivdi3+0x2a>
/home/hqfang/workspace/software/riscv-gnu-toolchain/riscv-gcc/libgcc/libgcc2.c:1091
800008ca:	e601                	bnez	a2,800008d2 <__udivdi3+0xdc>
/home/hqfang/workspace/software/riscv-gnu-toolchain/riscv-gcc/libgcc/libgcc2.c:1092
800008cc:	4705                	li	a4,1
800008ce:	02c75833          	divu	a6,a4,a2
/home/hqfang/workspace/software/riscv-gnu-toolchain/riscv-gcc/libgcc/libgcc2.c:1094
800008d2:	6741                	lui	a4,0x10
800008d4:	08e87f63          	bgeu	a6,a4,80000972 <__udivdi3+0x17c>
800008d8:	0ff00713          	li	a4,255
800008dc:	01077363          	bgeu	a4,a6,800008e2 <__udivdi3+0xec>
800008e0:	4521                	li	a0,8
800008e2:	00a85733          	srl	a4,a6,a0
800008e6:	96ba                	add	a3,a3,a4
800008e8:	0006c703          	lbu	a4,0(a3)
800008ec:	02000613          	li	a2,32
800008f0:	972a                	add	a4,a4,a0
800008f2:	40e606b3          	sub	a3,a2,a4
/home/hqfang/workspace/software/riscv-gnu-toolchain/riscv-gcc/libgcc/libgcc2.c:1096
800008f6:	08e61563          	bne	a2,a4,80000980 <__udivdi3+0x18a>
/home/hqfang/workspace/software/riscv-gnu-toolchain/riscv-gcc/libgcc/libgcc2.c:1105
800008fa:	410787b3          	sub	a5,a5,a6
/home/hqfang/workspace/software/riscv-gnu-toolchain/riscv-gcc/libgcc/libgcc2.c:1106
800008fe:	4585                	li	a1,1
/home/hqfang/workspace/software/riscv-gnu-toolchain/riscv-gcc/libgcc/libgcc2.c:1124
80000900:	01085893          	srli	a7,a6,0x10
80000904:	01081613          	slli	a2,a6,0x10
80000908:	8241                	srli	a2,a2,0x10
8000090a:	01035713          	srli	a4,t1,0x10
8000090e:	0317f6b3          	remu	a3,a5,a7
80000912:	0317d7b3          	divu	a5,a5,a7
80000916:	06c2                	slli	a3,a3,0x10
80000918:	8f55                	or	a4,a4,a3
8000091a:	02f60e33          	mul	t3,a2,a5
8000091e:	853e                	mv	a0,a5
80000920:	01c77c63          	bgeu	a4,t3,80000938 <__udivdi3+0x142>
80000924:	9742                	add	a4,a4,a6
80000926:	fff78513          	addi	a0,a5,-1
8000092a:	01076763          	bltu	a4,a6,80000938 <__udivdi3+0x142>
8000092e:	01c77563          	bgeu	a4,t3,80000938 <__udivdi3+0x142>
80000932:	ffe78513          	addi	a0,a5,-2
80000936:	9742                	add	a4,a4,a6
80000938:	41c70733          	sub	a4,a4,t3
8000093c:	031777b3          	remu	a5,a4,a7
80000940:	0342                	slli	t1,t1,0x10
80000942:	01035313          	srli	t1,t1,0x10
80000946:	03175733          	divu	a4,a4,a7
8000094a:	07c2                	slli	a5,a5,0x10
8000094c:	0067e333          	or	t1,a5,t1
80000950:	02e606b3          	mul	a3,a2,a4
80000954:	863a                	mv	a2,a4
80000956:	00d37b63          	bgeu	t1,a3,8000096c <__udivdi3+0x176>
8000095a:	9342                	add	t1,t1,a6
8000095c:	fff70613          	addi	a2,a4,-1 # ffff <__stack_size+0xf7ff>
80000960:	01036663          	bltu	t1,a6,8000096c <__udivdi3+0x176>
80000964:	00d37463          	bgeu	t1,a3,8000096c <__udivdi3+0x176>
80000968:	ffe70613          	addi	a2,a4,-2
8000096c:	0542                	slli	a0,a0,0x10
8000096e:	8d51                	or	a0,a0,a2
__udivdi3():
/home/hqfang/workspace/software/riscv-gnu-toolchain/riscv-gcc/libgcc/libgcc2.c:1321
80000970:	8082                	ret
__udivmoddi4():
/home/hqfang/workspace/software/riscv-gnu-toolchain/riscv-gcc/libgcc/libgcc2.c:1094
80000972:	01000737          	lui	a4,0x1000
80000976:	4541                	li	a0,16
80000978:	f6e865e3          	bltu	a6,a4,800008e2 <__udivdi3+0xec>
8000097c:	4561                	li	a0,24
8000097e:	b795                	j	800008e2 <__udivdi3+0xec>
/home/hqfang/workspace/software/riscv-gnu-toolchain/riscv-gcc/libgcc/libgcc2.c:1114
80000980:	00d81833          	sll	a6,a6,a3
/home/hqfang/workspace/software/riscv-gnu-toolchain/riscv-gcc/libgcc/libgcc2.c:1115
80000984:	00e7d533          	srl	a0,a5,a4
/home/hqfang/workspace/software/riscv-gnu-toolchain/riscv-gcc/libgcc/libgcc2.c:1117
80000988:	00d89333          	sll	t1,a7,a3
/home/hqfang/workspace/software/riscv-gnu-toolchain/riscv-gcc/libgcc/libgcc2.c:1116
8000098c:	00d797b3          	sll	a5,a5,a3
80000990:	00e8d733          	srl	a4,a7,a4
/home/hqfang/workspace/software/riscv-gnu-toolchain/riscv-gcc/libgcc/libgcc2.c:1119
80000994:	01085893          	srli	a7,a6,0x10
/home/hqfang/workspace/software/riscv-gnu-toolchain/riscv-gcc/libgcc/libgcc2.c:1116
80000998:	00f76633          	or	a2,a4,a5
/home/hqfang/workspace/software/riscv-gnu-toolchain/riscv-gcc/libgcc/libgcc2.c:1119
8000099c:	03157733          	remu	a4,a0,a7
800009a0:	01081793          	slli	a5,a6,0x10
800009a4:	83c1                	srli	a5,a5,0x10
800009a6:	01065593          	srli	a1,a2,0x10
800009aa:	03155533          	divu	a0,a0,a7
800009ae:	0742                	slli	a4,a4,0x10
800009b0:	8f4d                	or	a4,a4,a1
800009b2:	02a786b3          	mul	a3,a5,a0
800009b6:	85aa                	mv	a1,a0
800009b8:	00d77c63          	bgeu	a4,a3,800009d0 <__udivdi3+0x1da>
800009bc:	9742                	add	a4,a4,a6
800009be:	fff50593          	addi	a1,a0,-1 # ffffff <__stack_size+0xfff7ff>
800009c2:	01076763          	bltu	a4,a6,800009d0 <__udivdi3+0x1da>
800009c6:	00d77563          	bgeu	a4,a3,800009d0 <__udivdi3+0x1da>
800009ca:	ffe50593          	addi	a1,a0,-2
800009ce:	9742                	add	a4,a4,a6
800009d0:	40d706b3          	sub	a3,a4,a3
800009d4:	0316f733          	remu	a4,a3,a7
800009d8:	0642                	slli	a2,a2,0x10
800009da:	8241                	srli	a2,a2,0x10
800009dc:	0316d6b3          	divu	a3,a3,a7
800009e0:	0742                	slli	a4,a4,0x10
800009e2:	02d78533          	mul	a0,a5,a3
800009e6:	00c767b3          	or	a5,a4,a2
800009ea:	8736                	mv	a4,a3
800009ec:	00a7fc63          	bgeu	a5,a0,80000a04 <__udivdi3+0x20e>
800009f0:	97c2                	add	a5,a5,a6
800009f2:	fff68713          	addi	a4,a3,-1
800009f6:	0107e763          	bltu	a5,a6,80000a04 <__udivdi3+0x20e>
800009fa:	00a7f563          	bgeu	a5,a0,80000a04 <__udivdi3+0x20e>
800009fe:	ffe68713          	addi	a4,a3,-2
80000a02:	97c2                	add	a5,a5,a6
80000a04:	05c2                	slli	a1,a1,0x10
80000a06:	8f89                	sub	a5,a5,a0
80000a08:	8dd9                	or	a1,a1,a4
80000a0a:	bddd                	j	80000900 <__udivdi3+0x10a>
/home/hqfang/workspace/software/riscv-gnu-toolchain/riscv-gcc/libgcc/libgcc2.c:1140
80000a0c:	14d5e263          	bltu	a1,a3,80000b50 <__udivdi3+0x35a>
/home/hqfang/workspace/software/riscv-gnu-toolchain/riscv-gcc/libgcc/libgcc2.c:1159
80000a10:	6741                	lui	a4,0x10
80000a12:	02e6ff63          	bgeu	a3,a4,80000a50 <__udivdi3+0x25a>
80000a16:	0ff00713          	li	a4,255
80000a1a:	00d735b3          	sltu	a1,a4,a3
80000a1e:	058e                	slli	a1,a1,0x3
80000a20:	00b6d533          	srl	a0,a3,a1
80000a24:	00001717          	auipc	a4,0x1
80000a28:	68c70713          	addi	a4,a4,1676 # 800020b0 <__clz_tab>
80000a2c:	972a                	add	a4,a4,a0
80000a2e:	00074703          	lbu	a4,0(a4)
80000a32:	02000513          	li	a0,32
80000a36:	972e                	add	a4,a4,a1
80000a38:	40e505b3          	sub	a1,a0,a4
/home/hqfang/workspace/software/riscv-gnu-toolchain/riscv-gcc/libgcc/libgcc2.c:1160
80000a3c:	02e51163          	bne	a0,a4,80000a5e <__udivdi3+0x268>
/home/hqfang/workspace/software/riscv-gnu-toolchain/riscv-gcc/libgcc/libgcc2.c:1172
80000a40:	4505                	li	a0,1
/home/hqfang/workspace/software/riscv-gnu-toolchain/riscv-gcc/libgcc/libgcc2.c:1170
80000a42:	f2f6e7e3          	bltu	a3,a5,80000970 <__udivdi3+0x17a>
80000a46:	00c8b533          	sltu	a0,a7,a2
80000a4a:	00154513          	xori	a0,a0,1
80000a4e:	b70d                	j	80000970 <__udivdi3+0x17a>
/home/hqfang/workspace/software/riscv-gnu-toolchain/riscv-gcc/libgcc/libgcc2.c:1159
80000a50:	01000737          	lui	a4,0x1000
80000a54:	45c1                	li	a1,16
80000a56:	fce6e5e3          	bltu	a3,a4,80000a20 <__udivdi3+0x22a>
80000a5a:	45e1                	li	a1,24
80000a5c:	b7d1                	j	80000a20 <__udivdi3+0x22a>
/home/hqfang/workspace/software/riscv-gnu-toolchain/riscv-gcc/libgcc/libgcc2.c:1194
80000a5e:	00e65833          	srl	a6,a2,a4
80000a62:	00b696b3          	sll	a3,a3,a1
80000a66:	00d86833          	or	a6,a6,a3
/home/hqfang/workspace/software/riscv-gnu-toolchain/riscv-gcc/libgcc/libgcc2.c:1196
80000a6a:	00e7d333          	srl	t1,a5,a4
/home/hqfang/workspace/software/riscv-gnu-toolchain/riscv-gcc/libgcc/libgcc2.c:1200
80000a6e:	01085e93          	srli	t4,a6,0x10
80000a72:	03d376b3          	remu	a3,t1,t4
/home/hqfang/workspace/software/riscv-gnu-toolchain/riscv-gcc/libgcc/libgcc2.c:1197
80000a76:	00b797b3          	sll	a5,a5,a1
80000a7a:	00e8d733          	srl	a4,a7,a4
/home/hqfang/workspace/software/riscv-gnu-toolchain/riscv-gcc/libgcc/libgcc2.c:1195
80000a7e:	00b61e33          	sll	t3,a2,a1
/home/hqfang/workspace/software/riscv-gnu-toolchain/riscv-gcc/libgcc/libgcc2.c:1197
80000a82:	00f76633          	or	a2,a4,a5
/home/hqfang/workspace/software/riscv-gnu-toolchain/riscv-gcc/libgcc/libgcc2.c:1200
80000a86:	01081793          	slli	a5,a6,0x10
80000a8a:	83c1                	srli	a5,a5,0x10
80000a8c:	01065713          	srli	a4,a2,0x10
80000a90:	03d35333          	divu	t1,t1,t4
80000a94:	06c2                	slli	a3,a3,0x10
80000a96:	8f55                	or	a4,a4,a3
80000a98:	02678f33          	mul	t5,a5,t1
80000a9c:	851a                	mv	a0,t1
80000a9e:	01e77c63          	bgeu	a4,t5,80000ab6 <__udivdi3+0x2c0>
80000aa2:	9742                	add	a4,a4,a6
80000aa4:	fff30513          	addi	a0,t1,-1
80000aa8:	01076763          	bltu	a4,a6,80000ab6 <__udivdi3+0x2c0>
80000aac:	01e77563          	bgeu	a4,t5,80000ab6 <__udivdi3+0x2c0>
80000ab0:	ffe30513          	addi	a0,t1,-2
80000ab4:	9742                	add	a4,a4,a6
80000ab6:	41e70733          	sub	a4,a4,t5
80000aba:	03d776b3          	remu	a3,a4,t4
80000abe:	03d75733          	divu	a4,a4,t4
80000ac2:	06c2                	slli	a3,a3,0x10
80000ac4:	02e78333          	mul	t1,a5,a4
80000ac8:	01061793          	slli	a5,a2,0x10
80000acc:	83c1                	srli	a5,a5,0x10
80000ace:	8fd5                	or	a5,a5,a3
80000ad0:	863a                	mv	a2,a4
80000ad2:	0067fc63          	bgeu	a5,t1,80000aea <__udivdi3+0x2f4>
80000ad6:	97c2                	add	a5,a5,a6
80000ad8:	fff70613          	addi	a2,a4,-1 # ffffff <__stack_size+0xfff7ff>
80000adc:	0107e763          	bltu	a5,a6,80000aea <__udivdi3+0x2f4>
80000ae0:	0067f563          	bgeu	a5,t1,80000aea <__udivdi3+0x2f4>
80000ae4:	ffe70613          	addi	a2,a4,-2
80000ae8:	97c2                	add	a5,a5,a6
80000aea:	0542                	slli	a0,a0,0x10
/home/hqfang/workspace/software/riscv-gnu-toolchain/riscv-gcc/libgcc/libgcc2.c:1201
80000aec:	6ec1                	lui	t4,0x10
/home/hqfang/workspace/software/riscv-gnu-toolchain/riscv-gcc/libgcc/libgcc2.c:1200
80000aee:	8d51                	or	a0,a0,a2
/home/hqfang/workspace/software/riscv-gnu-toolchain/riscv-gcc/libgcc/libgcc2.c:1201
80000af0:	fffe8693          	addi	a3,t4,-1 # ffff <__stack_size+0xf7ff>
80000af4:	010e5613          	srli	a2,t3,0x10
80000af8:	01055813          	srli	a6,a0,0x10
/home/hqfang/workspace/software/riscv-gnu-toolchain/riscv-gcc/libgcc/libgcc2.c:1200
80000afc:	406787b3          	sub	a5,a5,t1
/home/hqfang/workspace/software/riscv-gnu-toolchain/riscv-gcc/libgcc/libgcc2.c:1201
80000b00:	00d57333          	and	t1,a0,a3
80000b04:	00de76b3          	and	a3,t3,a3
80000b08:	02d30e33          	mul	t3,t1,a3
80000b0c:	02d806b3          	mul	a3,a6,a3
80000b10:	010e5713          	srli	a4,t3,0x10
80000b14:	02c30333          	mul	t1,t1,a2
80000b18:	9336                	add	t1,t1,a3
80000b1a:	971a                	add	a4,a4,t1
80000b1c:	02c80833          	mul	a6,a6,a2
80000b20:	00d77363          	bgeu	a4,a3,80000b26 <__udivdi3+0x330>
80000b24:	9876                	add	a6,a6,t4
80000b26:	01075693          	srli	a3,a4,0x10
80000b2a:	9836                	add	a6,a6,a3
/home/hqfang/workspace/software/riscv-gnu-toolchain/riscv-gcc/libgcc/libgcc2.c:1203
80000b2c:	0307e063          	bltu	a5,a6,80000b4c <__udivdi3+0x356>
80000b30:	d90794e3          	bne	a5,a6,800008b8 <__udivdi3+0xc2>
/home/hqfang/workspace/software/riscv-gnu-toolchain/riscv-gcc/libgcc/libgcc2.c:1201
80000b34:	67c1                	lui	a5,0x10
80000b36:	17fd                	addi	a5,a5,-1
80000b38:	8f7d                	and	a4,a4,a5
80000b3a:	0742                	slli	a4,a4,0x10
80000b3c:	00fe7e33          	and	t3,t3,a5
/home/hqfang/workspace/software/riscv-gnu-toolchain/riscv-gcc/libgcc/libgcc2.c:1198
80000b40:	00b898b3          	sll	a7,a7,a1
/home/hqfang/workspace/software/riscv-gnu-toolchain/riscv-gcc/libgcc/libgcc2.c:1201
80000b44:	9772                	add	a4,a4,t3
/home/hqfang/workspace/software/riscv-gnu-toolchain/riscv-gcc/libgcc/libgcc2.c:1209
80000b46:	4581                	li	a1,0
/home/hqfang/workspace/software/riscv-gnu-toolchain/riscv-gcc/libgcc/libgcc2.c:1203
80000b48:	e2e8f4e3          	bgeu	a7,a4,80000970 <__udivdi3+0x17a>
/home/hqfang/workspace/software/riscv-gnu-toolchain/riscv-gcc/libgcc/libgcc2.c:1205
80000b4c:	157d                	addi	a0,a0,-1
__udivdi3():
/home/hqfang/workspace/software/riscv-gnu-toolchain/riscv-gcc/libgcc/libgcc2.c:1206
80000b4e:	b3ad                	j	800008b8 <__udivdi3+0xc2>
__udivmoddi4():
/home/hqfang/workspace/software/riscv-gnu-toolchain/riscv-gcc/libgcc/libgcc2.c:1145
80000b50:	4581                	li	a1,0
/home/hqfang/workspace/software/riscv-gnu-toolchain/riscv-gcc/libgcc/libgcc2.c:1144
80000b52:	4501                	li	a0,0
80000b54:	bd31                	j	80000970 <__udivdi3+0x17a>

80000b56 <atexit>:
atexit():
80000b56:	85aa                	mv	a1,a0
80000b58:	4681                	li	a3,0
80000b5a:	4601                	li	a2,0
80000b5c:	4501                	li	a0,0
80000b5e:	a9a9                	j	80000fb8 <__register_exitproc>

80000b60 <__libc_fini_array>:
__libc_fini_array():
80000b60:	1141                	addi	sp,sp,-16
80000b62:	c422                	sw	s0,8(sp)
80000b64:	c226                	sw	s1,4(sp)
80000b66:	00001417          	auipc	s0,0x1
80000b6a:	73e40413          	addi	s0,s0,1854 # 800022a4 <__fsymtab_end>
80000b6e:	00001497          	auipc	s1,0x1
80000b72:	73648493          	addi	s1,s1,1846 # 800022a4 <__fsymtab_end>
80000b76:	8c05                	sub	s0,s0,s1
80000b78:	c606                	sw	ra,12(sp)
80000b7a:	8409                	srai	s0,s0,0x2
80000b7c:	e411                	bnez	s0,80000b88 <__libc_fini_array+0x28>
80000b7e:	40b2                	lw	ra,12(sp)
80000b80:	4422                	lw	s0,8(sp)
80000b82:	4492                	lw	s1,4(sp)
80000b84:	0141                	addi	sp,sp,16
80000b86:	8082                	ret
80000b88:	147d                	addi	s0,s0,-1
80000b8a:	00241793          	slli	a5,s0,0x2
80000b8e:	97a6                	add	a5,a5,s1
80000b90:	439c                	lw	a5,0(a5)
80000b92:	9782                	jalr	a5
80000b94:	b7e5                	j	80000b7c <__libc_fini_array+0x1c>

80000b96 <__libc_init_array>:
__libc_init_array():
80000b96:	1141                	addi	sp,sp,-16
80000b98:	c422                	sw	s0,8(sp)
80000b9a:	c226                	sw	s1,4(sp)
80000b9c:	00001417          	auipc	s0,0x1
80000ba0:	70840413          	addi	s0,s0,1800 # 800022a4 <__fsymtab_end>
80000ba4:	00001497          	auipc	s1,0x1
80000ba8:	70048493          	addi	s1,s1,1792 # 800022a4 <__fsymtab_end>
80000bac:	8c81                	sub	s1,s1,s0
80000bae:	c04a                	sw	s2,0(sp)
80000bb0:	c606                	sw	ra,12(sp)
80000bb2:	8489                	srai	s1,s1,0x2
80000bb4:	4901                	li	s2,0
80000bb6:	02991563          	bne	s2,s1,80000be0 <__libc_init_array+0x4a>
80000bba:	00001417          	auipc	s0,0x1
80000bbe:	6ea40413          	addi	s0,s0,1770 # 800022a4 <__fsymtab_end>
80000bc2:	00001497          	auipc	s1,0x1
80000bc6:	6e248493          	addi	s1,s1,1762 # 800022a4 <__fsymtab_end>
80000bca:	8c81                	sub	s1,s1,s0
80000bcc:	8489                	srai	s1,s1,0x2
80000bce:	4901                	li	s2,0
80000bd0:	00991d63          	bne	s2,s1,80000bea <__libc_init_array+0x54>
80000bd4:	40b2                	lw	ra,12(sp)
80000bd6:	4422                	lw	s0,8(sp)
80000bd8:	4492                	lw	s1,4(sp)
80000bda:	4902                	lw	s2,0(sp)
80000bdc:	0141                	addi	sp,sp,16
80000bde:	8082                	ret
80000be0:	401c                	lw	a5,0(s0)
80000be2:	0905                	addi	s2,s2,1
80000be4:	0411                	addi	s0,s0,4
80000be6:	9782                	jalr	a5
80000be8:	b7f9                	j	80000bb6 <__libc_init_array+0x20>
80000bea:	401c                	lw	a5,0(s0)
80000bec:	0905                	addi	s2,s2,1
80000bee:	0411                	addi	s0,s0,4
80000bf0:	9782                	jalr	a5
80000bf2:	bff9                	j	80000bd0 <__libc_init_array+0x3a>

80000bf4 <iprintf>:
printf():
80000bf4:	715d                	addi	sp,sp,-80
80000bf6:	d422                	sw	s0,40(sp)
80000bf8:	d606                	sw	ra,44(sp)
80000bfa:	842a                	mv	s0,a0
80000bfc:	da2e                	sw	a1,52(sp)
80000bfe:	dc32                	sw	a2,56(sp)
80000c00:	de36                	sw	a3,60(sp)
80000c02:	c0ba                	sw	a4,64(sp)
80000c04:	c2be                	sw	a5,68(sp)
80000c06:	c4c2                	sw	a6,72(sp)
80000c08:	c6c6                	sw	a7,76(sp)
80000c0a:	8081a503          	lw	a0,-2040(gp) # 90000068 <_impure_ptr>
80000c0e:	c511                	beqz	a0,80000c1a <iprintf+0x26>
80000c10:	4d1c                	lw	a5,24(a0)
80000c12:	e781                	bnez	a5,80000c1a <iprintf+0x26>
80000c14:	c62a                	sw	a0,12(sp)
80000c16:	2d9d                	jal	8000128c <__sinit>
80000c18:	4532                	lw	a0,12(sp)
80000c1a:	450c                	lw	a1,8(a0)
80000c1c:	1854                	addi	a3,sp,52
80000c1e:	8622                	mv	a2,s0
80000c20:	ce36                	sw	a3,28(sp)
80000c22:	353000ef          	jal	ra,80001774 <_vfiprintf_r>
80000c26:	50b2                	lw	ra,44(sp)
80000c28:	5422                	lw	s0,40(sp)
80000c2a:	6161                	addi	sp,sp,80
80000c2c:	8082                	ret

80000c2e <_puts_r>:
_puts_r():
80000c2e:	1101                	addi	sp,sp,-32
80000c30:	ca26                	sw	s1,20(sp)
80000c32:	c84a                	sw	s2,16(sp)
80000c34:	ce06                	sw	ra,28(sp)
80000c36:	cc22                	sw	s0,24(sp)
80000c38:	c64e                	sw	s3,12(sp)
80000c3a:	c452                	sw	s4,8(sp)
80000c3c:	84aa                	mv	s1,a0
80000c3e:	892e                	mv	s2,a1
80000c40:	c501                	beqz	a0,80000c48 <_puts_r+0x1a>
80000c42:	4d1c                	lw	a5,24(a0)
80000c44:	e391                	bnez	a5,80000c48 <_puts_r+0x1a>
80000c46:	2599                	jal	8000128c <__sinit>
80000c48:	4c9c                	lw	a5,24(s1)
80000c4a:	4480                	lw	s0,8(s1)
80000c4c:	e399                	bnez	a5,80000c52 <_puts_r+0x24>
80000c4e:	8526                	mv	a0,s1
80000c50:	2d35                	jal	8000128c <__sinit>
80000c52:	00001797          	auipc	a5,0x1
80000c56:	57e78793          	addi	a5,a5,1406 # 800021d0 <__sf_fake_stdin>
80000c5a:	02f41c63          	bne	s0,a5,80000c92 <_puts_r+0x64>
80000c5e:	40c0                	lw	s0,4(s1)
80000c60:	00c45783          	lhu	a5,12(s0)
80000c64:	8ba1                	andi	a5,a5,8
80000c66:	c7b1                	beqz	a5,80000cb2 <_puts_r+0x84>
80000c68:	481c                	lw	a5,16(s0)
80000c6a:	c7a1                	beqz	a5,80000cb2 <_puts_r+0x84>
80000c6c:	59fd                	li	s3,-1
80000c6e:	4a29                	li	s4,10
80000c70:	441c                	lw	a5,8(s0)
80000c72:	00094583          	lbu	a1,0(s2)
80000c76:	17fd                	addi	a5,a5,-1
80000c78:	e9b1                	bnez	a1,80000ccc <_puts_r+0x9e>
80000c7a:	c41c                	sw	a5,8(s0)
80000c7c:	0607de63          	bgez	a5,80000cf8 <_puts_r+0xca>
80000c80:	8622                	mv	a2,s0
80000c82:	45a9                	li	a1,10
80000c84:	8526                	mv	a0,s1
80000c86:	22b5                	jal	80000df2 <__swbuf_r>
80000c88:	57fd                	li	a5,-1
80000c8a:	02f50863          	beq	a0,a5,80000cba <_puts_r+0x8c>
80000c8e:	4529                	li	a0,10
80000c90:	a035                	j	80000cbc <_puts_r+0x8e>
80000c92:	00001797          	auipc	a5,0x1
80000c96:	55e78793          	addi	a5,a5,1374 # 800021f0 <__sf_fake_stdout>
80000c9a:	00f41463          	bne	s0,a5,80000ca2 <_puts_r+0x74>
80000c9e:	4480                	lw	s0,8(s1)
80000ca0:	b7c1                	j	80000c60 <_puts_r+0x32>
80000ca2:	00001797          	auipc	a5,0x1
80000ca6:	50e78793          	addi	a5,a5,1294 # 800021b0 <__sf_fake_stderr>
80000caa:	faf41be3          	bne	s0,a5,80000c60 <_puts_r+0x32>
80000cae:	44c0                	lw	s0,12(s1)
80000cb0:	bf45                	j	80000c60 <_puts_r+0x32>
80000cb2:	85a2                	mv	a1,s0
80000cb4:	8526                	mv	a0,s1
80000cb6:	2af5                	jal	80000eb2 <__swsetup_r>
80000cb8:	d955                	beqz	a0,80000c6c <_puts_r+0x3e>
80000cba:	557d                	li	a0,-1
80000cbc:	40f2                	lw	ra,28(sp)
80000cbe:	4462                	lw	s0,24(sp)
80000cc0:	44d2                	lw	s1,20(sp)
80000cc2:	4942                	lw	s2,16(sp)
80000cc4:	49b2                	lw	s3,12(sp)
80000cc6:	4a22                	lw	s4,8(sp)
80000cc8:	6105                	addi	sp,sp,32
80000cca:	8082                	ret
80000ccc:	c41c                	sw	a5,8(s0)
80000cce:	0905                	addi	s2,s2,1
80000cd0:	0007d763          	bgez	a5,80000cde <_puts_r+0xb0>
80000cd4:	4c18                	lw	a4,24(s0)
80000cd6:	00e7cb63          	blt	a5,a4,80000cec <_puts_r+0xbe>
80000cda:	01458963          	beq	a1,s4,80000cec <_puts_r+0xbe>
80000cde:	401c                	lw	a5,0(s0)
80000ce0:	00178713          	addi	a4,a5,1
80000ce4:	c018                	sw	a4,0(s0)
80000ce6:	00b78023          	sb	a1,0(a5)
80000cea:	b759                	j	80000c70 <_puts_r+0x42>
80000cec:	8622                	mv	a2,s0
80000cee:	8526                	mv	a0,s1
80000cf0:	2209                	jal	80000df2 <__swbuf_r>
80000cf2:	f7351fe3          	bne	a0,s3,80000c70 <_puts_r+0x42>
80000cf6:	b7d1                	j	80000cba <_puts_r+0x8c>
80000cf8:	401c                	lw	a5,0(s0)
80000cfa:	00178713          	addi	a4,a5,1
80000cfe:	c018                	sw	a4,0(s0)
80000d00:	4729                	li	a4,10
80000d02:	00e78023          	sb	a4,0(a5)
80000d06:	b761                	j	80000c8e <_puts_r+0x60>

80000d08 <puts>:
puts():
80000d08:	85aa                	mv	a1,a0
80000d0a:	8081a503          	lw	a0,-2040(gp) # 90000068 <_impure_ptr>
80000d0e:	b705                	j	80000c2e <_puts_r>

80000d10 <srand>:
srand():
80000d10:	1141                	addi	sp,sp,-16
80000d12:	c226                	sw	s1,4(sp)
80000d14:	8081a483          	lw	s1,-2040(gp) # 90000068 <_impure_ptr>
80000d18:	5c9c                	lw	a5,56(s1)
80000d1a:	c422                	sw	s0,8(sp)
80000d1c:	c606                	sw	ra,12(sp)
80000d1e:	842a                	mv	s0,a0
80000d20:	eb9d                	bnez	a5,80000d56 <srand+0x46>
80000d22:	4561                	li	a0,24
80000d24:	7c6000ef          	jal	ra,800014ea <malloc>
80000d28:	abcd37b7          	lui	a5,0xabcd3
80000d2c:	dc88                	sw	a0,56(s1)
80000d2e:	30e78793          	addi	a5,a5,782 # abcd330e <_sp+0x1bcc330e>
80000d32:	c11c                	sw	a5,0(a0)
80000d34:	e66d17b7          	lui	a5,0xe66d1
80000d38:	23478793          	addi	a5,a5,564 # e66d1234 <_sp+0x566c1234>
80000d3c:	c15c                	sw	a5,4(a0)
80000d3e:	0005e7b7          	lui	a5,0x5e
80000d42:	eec78793          	addi	a5,a5,-276 # 5deec <__stack_size+0x5d6ec>
80000d46:	c51c                	sw	a5,8(a0)
80000d48:	47ad                	li	a5,11
80000d4a:	00f51623          	sh	a5,12(a0)
80000d4e:	4705                	li	a4,1
80000d50:	4781                	li	a5,0
80000d52:	c918                	sw	a4,16(a0)
80000d54:	c95c                	sw	a5,20(a0)
80000d56:	5c9c                	lw	a5,56(s1)
80000d58:	40b2                	lw	ra,12(sp)
80000d5a:	4492                	lw	s1,4(sp)
80000d5c:	cb80                	sw	s0,16(a5)
80000d5e:	4422                	lw	s0,8(sp)
80000d60:	0007aa23          	sw	zero,20(a5)
80000d64:	0141                	addi	sp,sp,16
80000d66:	8082                	ret

80000d68 <rand>:
rand():
80000d68:	1141                	addi	sp,sp,-16
80000d6a:	c422                	sw	s0,8(sp)
80000d6c:	8081a403          	lw	s0,-2040(gp) # 90000068 <_impure_ptr>
80000d70:	5c1c                	lw	a5,56(s0)
80000d72:	c606                	sw	ra,12(sp)
80000d74:	eb9d                	bnez	a5,80000daa <rand+0x42>
80000d76:	4561                	li	a0,24
80000d78:	772000ef          	jal	ra,800014ea <malloc>
80000d7c:	abcd37b7          	lui	a5,0xabcd3
80000d80:	dc08                	sw	a0,56(s0)
80000d82:	30e78793          	addi	a5,a5,782 # abcd330e <_sp+0x1bcc330e>
80000d86:	c11c                	sw	a5,0(a0)
80000d88:	e66d17b7          	lui	a5,0xe66d1
80000d8c:	23478793          	addi	a5,a5,564 # e66d1234 <_sp+0x566c1234>
80000d90:	c15c                	sw	a5,4(a0)
80000d92:	0005e7b7          	lui	a5,0x5e
80000d96:	eec78793          	addi	a5,a5,-276 # 5deec <__stack_size+0x5d6ec>
80000d9a:	c51c                	sw	a5,8(a0)
80000d9c:	47ad                	li	a5,11
80000d9e:	00f51623          	sh	a5,12(a0)
80000da2:	4705                	li	a4,1
80000da4:	4781                	li	a5,0
80000da6:	c918                	sw	a4,16(a0)
80000da8:	c95c                	sw	a5,20(a0)
80000daa:	5c10                	lw	a2,56(s0)
80000dac:	4c958737          	lui	a4,0x4c958
80000db0:	5851f7b7          	lui	a5,0x5851f
80000db4:	4a14                	lw	a3,16(a2)
80000db6:	4a48                	lw	a0,20(a2)
80000db8:	f2d70713          	addi	a4,a4,-211 # 4c957f2d <__stack_size+0x4c95772d>
80000dbc:	42d78793          	addi	a5,a5,1069 # 5851f42d <__stack_size+0x5851ec2d>
80000dc0:	02f687b3          	mul	a5,a3,a5
80000dc4:	40b2                	lw	ra,12(sp)
80000dc6:	4422                	lw	s0,8(sp)
80000dc8:	02e50533          	mul	a0,a0,a4
80000dcc:	953e                	add	a0,a0,a5
80000dce:	02e687b3          	mul	a5,a3,a4
80000dd2:	02e6b733          	mulhu	a4,a3,a4
80000dd6:	00178693          	addi	a3,a5,1
80000dda:	ca14                	sw	a3,16(a2)
80000ddc:	972a                	add	a4,a4,a0
80000dde:	00f6b533          	sltu	a0,a3,a5
80000de2:	953a                	add	a0,a0,a4
80000de4:	ca48                	sw	a0,20(a2)
80000de6:	0506                	slli	a0,a0,0x1
80000de8:	8105                	srli	a0,a0,0x1
80000dea:	0141                	addi	sp,sp,16
80000dec:	8082                	ret

80000dee <isatty>:
isatty():
80000dee:	b98ff06f          	j	80000186 <_isatty>

80000df2 <__swbuf_r>:
__swbuf_r():
80000df2:	1101                	addi	sp,sp,-32
80000df4:	cc22                	sw	s0,24(sp)
80000df6:	ca26                	sw	s1,20(sp)
80000df8:	c84a                	sw	s2,16(sp)
80000dfa:	ce06                	sw	ra,28(sp)
80000dfc:	c64e                	sw	s3,12(sp)
80000dfe:	84aa                	mv	s1,a0
80000e00:	892e                	mv	s2,a1
80000e02:	8432                	mv	s0,a2
80000e04:	c501                	beqz	a0,80000e0c <__swbuf_r+0x1a>
80000e06:	4d1c                	lw	a5,24(a0)
80000e08:	e391                	bnez	a5,80000e0c <__swbuf_r+0x1a>
80000e0a:	2149                	jal	8000128c <__sinit>
80000e0c:	00001797          	auipc	a5,0x1
80000e10:	3c478793          	addi	a5,a5,964 # 800021d0 <__sf_fake_stdin>
80000e14:	06f41963          	bne	s0,a5,80000e86 <__swbuf_r+0x94>
80000e18:	40c0                	lw	s0,4(s1)
80000e1a:	4c1c                	lw	a5,24(s0)
80000e1c:	c41c                	sw	a5,8(s0)
80000e1e:	00c45783          	lhu	a5,12(s0)
80000e22:	8ba1                	andi	a5,a5,8
80000e24:	c3c9                	beqz	a5,80000ea6 <__swbuf_r+0xb4>
80000e26:	481c                	lw	a5,16(s0)
80000e28:	cfbd                	beqz	a5,80000ea6 <__swbuf_r+0xb4>
80000e2a:	481c                	lw	a5,16(s0)
80000e2c:	4008                	lw	a0,0(s0)
80000e2e:	0ff97993          	andi	s3,s2,255
80000e32:	0ff97913          	andi	s2,s2,255
80000e36:	8d1d                	sub	a0,a0,a5
80000e38:	485c                	lw	a5,20(s0)
80000e3a:	00f54663          	blt	a0,a5,80000e46 <__swbuf_r+0x54>
80000e3e:	85a2                	mv	a1,s0
80000e40:	8526                	mv	a0,s1
80000e42:	2e05                	jal	80001172 <_fflush_r>
80000e44:	e52d                	bnez	a0,80000eae <__swbuf_r+0xbc>
80000e46:	441c                	lw	a5,8(s0)
80000e48:	0505                	addi	a0,a0,1
80000e4a:	17fd                	addi	a5,a5,-1
80000e4c:	c41c                	sw	a5,8(s0)
80000e4e:	401c                	lw	a5,0(s0)
80000e50:	00178713          	addi	a4,a5,1
80000e54:	c018                	sw	a4,0(s0)
80000e56:	01378023          	sb	s3,0(a5)
80000e5a:	485c                	lw	a5,20(s0)
80000e5c:	00a78963          	beq	a5,a0,80000e6e <__swbuf_r+0x7c>
80000e60:	00c45783          	lhu	a5,12(s0)
80000e64:	8b85                	andi	a5,a5,1
80000e66:	cb81                	beqz	a5,80000e76 <__swbuf_r+0x84>
80000e68:	47a9                	li	a5,10
80000e6a:	00f91663          	bne	s2,a5,80000e76 <__swbuf_r+0x84>
80000e6e:	85a2                	mv	a1,s0
80000e70:	8526                	mv	a0,s1
80000e72:	2601                	jal	80001172 <_fflush_r>
80000e74:	ed0d                	bnez	a0,80000eae <__swbuf_r+0xbc>
80000e76:	40f2                	lw	ra,28(sp)
80000e78:	4462                	lw	s0,24(sp)
80000e7a:	44d2                	lw	s1,20(sp)
80000e7c:	49b2                	lw	s3,12(sp)
80000e7e:	854a                	mv	a0,s2
80000e80:	4942                	lw	s2,16(sp)
80000e82:	6105                	addi	sp,sp,32
80000e84:	8082                	ret
80000e86:	00001797          	auipc	a5,0x1
80000e8a:	36a78793          	addi	a5,a5,874 # 800021f0 <__sf_fake_stdout>
80000e8e:	00f41463          	bne	s0,a5,80000e96 <__swbuf_r+0xa4>
80000e92:	4480                	lw	s0,8(s1)
80000e94:	b759                	j	80000e1a <__swbuf_r+0x28>
80000e96:	00001797          	auipc	a5,0x1
80000e9a:	31a78793          	addi	a5,a5,794 # 800021b0 <__sf_fake_stderr>
80000e9e:	f6f41ee3          	bne	s0,a5,80000e1a <__swbuf_r+0x28>
80000ea2:	44c0                	lw	s0,12(s1)
80000ea4:	bf9d                	j	80000e1a <__swbuf_r+0x28>
80000ea6:	85a2                	mv	a1,s0
80000ea8:	8526                	mv	a0,s1
80000eaa:	2021                	jal	80000eb2 <__swsetup_r>
80000eac:	dd3d                	beqz	a0,80000e2a <__swbuf_r+0x38>
80000eae:	597d                	li	s2,-1
80000eb0:	b7d9                	j	80000e76 <__swbuf_r+0x84>

80000eb2 <__swsetup_r>:
__swsetup_r():
80000eb2:	1141                	addi	sp,sp,-16
80000eb4:	c422                	sw	s0,8(sp)
80000eb6:	c226                	sw	s1,4(sp)
80000eb8:	c04a                	sw	s2,0(sp)
80000eba:	c606                	sw	ra,12(sp)
80000ebc:	8081a483          	lw	s1,-2040(gp) # 90000068 <_impure_ptr>
80000ec0:	892a                	mv	s2,a0
80000ec2:	842e                	mv	s0,a1
80000ec4:	c489                	beqz	s1,80000ece <__swsetup_r+0x1c>
80000ec6:	4c9c                	lw	a5,24(s1)
80000ec8:	e399                	bnez	a5,80000ece <__swsetup_r+0x1c>
80000eca:	8526                	mv	a0,s1
80000ecc:	26c1                	jal	8000128c <__sinit>
80000ece:	00001797          	auipc	a5,0x1
80000ed2:	30278793          	addi	a5,a5,770 # 800021d0 <__sf_fake_stdin>
80000ed6:	02f41763          	bne	s0,a5,80000f04 <__swsetup_r+0x52>
80000eda:	40c0                	lw	s0,4(s1)
80000edc:	00c41783          	lh	a5,12(s0)
80000ee0:	01079713          	slli	a4,a5,0x10
80000ee4:	0087f693          	andi	a3,a5,8
80000ee8:	8341                	srli	a4,a4,0x10
80000eea:	eaad                	bnez	a3,80000f5c <__swsetup_r+0xaa>
80000eec:	01077693          	andi	a3,a4,16
80000ef0:	ea95                	bnez	a3,80000f24 <__swsetup_r+0x72>
80000ef2:	4725                	li	a4,9
80000ef4:	00e92023          	sw	a4,0(s2)
80000ef8:	0407e793          	ori	a5,a5,64
80000efc:	00f41623          	sh	a5,12(s0)
80000f00:	557d                	li	a0,-1
80000f02:	a871                	j	80000f9e <__swsetup_r+0xec>
80000f04:	00001797          	auipc	a5,0x1
80000f08:	2ec78793          	addi	a5,a5,748 # 800021f0 <__sf_fake_stdout>
80000f0c:	00f41463          	bne	s0,a5,80000f14 <__swsetup_r+0x62>
80000f10:	4480                	lw	s0,8(s1)
80000f12:	b7e9                	j	80000edc <__swsetup_r+0x2a>
80000f14:	00001797          	auipc	a5,0x1
80000f18:	29c78793          	addi	a5,a5,668 # 800021b0 <__sf_fake_stderr>
80000f1c:	fcf410e3          	bne	s0,a5,80000edc <__swsetup_r+0x2a>
80000f20:	44c0                	lw	s0,12(s1)
80000f22:	bf6d                	j	80000edc <__swsetup_r+0x2a>
80000f24:	8b11                	andi	a4,a4,4
80000f26:	c70d                	beqz	a4,80000f50 <__swsetup_r+0x9e>
80000f28:	584c                	lw	a1,52(s0)
80000f2a:	c989                	beqz	a1,80000f3c <__swsetup_r+0x8a>
80000f2c:	04440793          	addi	a5,s0,68
80000f30:	00f58463          	beq	a1,a5,80000f38 <__swsetup_r+0x86>
80000f34:	854a                	mv	a0,s2
80000f36:	2595                	jal	8000159a <_free_r>
80000f38:	02042a23          	sw	zero,52(s0)
80000f3c:	00c45783          	lhu	a5,12(s0)
80000f40:	00042223          	sw	zero,4(s0)
80000f44:	fdb7f793          	andi	a5,a5,-37
80000f48:	00f41623          	sh	a5,12(s0)
80000f4c:	481c                	lw	a5,16(s0)
80000f4e:	c01c                	sw	a5,0(s0)
80000f50:	00c45783          	lhu	a5,12(s0)
80000f54:	0087e793          	ori	a5,a5,8
80000f58:	00f41623          	sh	a5,12(s0)
80000f5c:	481c                	lw	a5,16(s0)
80000f5e:	ef81                	bnez	a5,80000f76 <__swsetup_r+0xc4>
80000f60:	00c45783          	lhu	a5,12(s0)
80000f64:	20000713          	li	a4,512
80000f68:	2807f793          	andi	a5,a5,640
80000f6c:	00e78563          	beq	a5,a4,80000f76 <__swsetup_r+0xc4>
80000f70:	85a2                	mv	a1,s0
80000f72:	854a                	mv	a0,s2
80000f74:	29e9                	jal	8000144e <__smakebuf_r>
80000f76:	00c41783          	lh	a5,12(s0)
80000f7a:	01079713          	slli	a4,a5,0x10
80000f7e:	0017f693          	andi	a3,a5,1
80000f82:	8341                	srli	a4,a4,0x10
80000f84:	c29d                	beqz	a3,80000faa <__swsetup_r+0xf8>
80000f86:	4854                	lw	a3,20(s0)
80000f88:	00042423          	sw	zero,8(s0)
80000f8c:	40d006b3          	neg	a3,a3
80000f90:	cc14                	sw	a3,24(s0)
80000f92:	4814                	lw	a3,16(s0)
80000f94:	4501                	li	a0,0
80000f96:	e681                	bnez	a3,80000f9e <__swsetup_r+0xec>
80000f98:	08077713          	andi	a4,a4,128
80000f9c:	ff31                	bnez	a4,80000ef8 <__swsetup_r+0x46>
80000f9e:	40b2                	lw	ra,12(sp)
80000fa0:	4422                	lw	s0,8(sp)
80000fa2:	4492                	lw	s1,4(sp)
80000fa4:	4902                	lw	s2,0(sp)
80000fa6:	0141                	addi	sp,sp,16
80000fa8:	8082                	ret
80000faa:	00277693          	andi	a3,a4,2
80000fae:	4601                	li	a2,0
80000fb0:	e291                	bnez	a3,80000fb4 <__swsetup_r+0x102>
80000fb2:	4850                	lw	a2,20(s0)
80000fb4:	c410                	sw	a2,8(s0)
80000fb6:	bff1                	j	80000f92 <__swsetup_r+0xe0>

80000fb8 <__register_exitproc>:
__register_exitproc():
80000fb8:	88aa                	mv	a7,a0
80000fba:	81818513          	addi	a0,gp,-2024 # 90000078 <_global_atexit>
80000fbe:	411c                	lw	a5,0(a0)
80000fc0:	ef81                	bnez	a5,80000fd8 <__register_exitproc+0x20>
80000fc2:	8dc18713          	addi	a4,gp,-1828 # 9000013c <_global_atexit0>
80000fc6:	c118                	sw	a4,0(a0)
80000fc8:	00000513          	li	a0,0
80000fcc:	87ba                	mv	a5,a4
80000fce:	c509                	beqz	a0,80000fd8 <__register_exitproc+0x20>
80000fd0:	411c                	lw	a5,0(a0)
80000fd2:	08f72423          	sw	a5,136(a4)
80000fd6:	87ba                	mv	a5,a4
80000fd8:	43d8                	lw	a4,4(a5)
80000fda:	487d                	li	a6,31
80000fdc:	557d                	li	a0,-1
80000fde:	04e84663          	blt	a6,a4,8000102a <__register_exitproc+0x72>
80000fe2:	02088d63          	beqz	a7,8000101c <__register_exitproc+0x64>
80000fe6:	0887a803          	lw	a6,136(a5)
80000fea:	04080063          	beqz	a6,8000102a <__register_exitproc+0x72>
80000fee:	00271513          	slli	a0,a4,0x2
80000ff2:	9542                	add	a0,a0,a6
80000ff4:	c110                	sw	a2,0(a0)
80000ff6:	10082303          	lw	t1,256(a6)
80000ffa:	4605                	li	a2,1
80000ffc:	00e61633          	sll	a2,a2,a4
80001000:	00c36333          	or	t1,t1,a2
80001004:	10682023          	sw	t1,256(a6)
80001008:	08d52023          	sw	a3,128(a0)
8000100c:	4689                	li	a3,2
8000100e:	00d89763          	bne	a7,a3,8000101c <__register_exitproc+0x64>
80001012:	10482683          	lw	a3,260(a6)
80001016:	8e55                	or	a2,a2,a3
80001018:	10c82223          	sw	a2,260(a6)
8000101c:	00170693          	addi	a3,a4,1
80001020:	070a                	slli	a4,a4,0x2
80001022:	c3d4                	sw	a3,4(a5)
80001024:	97ba                	add	a5,a5,a4
80001026:	c78c                	sw	a1,8(a5)
80001028:	4501                	li	a0,0
8000102a:	8082                	ret

8000102c <__sflush_r>:
__sflush_r():
8000102c:	00c5d783          	lhu	a5,12(a1) # 80000c <__stack_size+0x7ff80c>
80001030:	1101                	addi	sp,sp,-32
80001032:	cc22                	sw	s0,24(sp)
80001034:	ca26                	sw	s1,20(sp)
80001036:	ce06                	sw	ra,28(sp)
80001038:	c84a                	sw	s2,16(sp)
8000103a:	c64e                	sw	s3,12(sp)
8000103c:	0087f713          	andi	a4,a5,8
80001040:	84aa                	mv	s1,a0
80001042:	842e                	mv	s0,a1
80001044:	e375                	bnez	a4,80001128 <__sflush_r+0xfc>
80001046:	41d8                	lw	a4,4(a1)
80001048:	00e04763          	bgtz	a4,80001056 <__sflush_r+0x2a>
8000104c:	41b8                	lw	a4,64(a1)
8000104e:	00e04463          	bgtz	a4,80001056 <__sflush_r+0x2a>
80001052:	4501                	li	a0,0
80001054:	a875                	j	80001110 <__sflush_r+0xe4>
80001056:	5458                	lw	a4,44(s0)
80001058:	df6d                	beqz	a4,80001052 <__sflush_r+0x26>
8000105a:	6685                	lui	a3,0x1
8000105c:	0004a903          	lw	s2,0(s1)
80001060:	8ff5                	and	a5,a5,a3
80001062:	0004a023          	sw	zero,0(s1)
80001066:	cfa5                	beqz	a5,800010de <__sflush_r+0xb2>
80001068:	4868                	lw	a0,84(s0)
8000106a:	00c45783          	lhu	a5,12(s0)
8000106e:	8b91                	andi	a5,a5,4
80001070:	c799                	beqz	a5,8000107e <__sflush_r+0x52>
80001072:	405c                	lw	a5,4(s0)
80001074:	8d1d                	sub	a0,a0,a5
80001076:	585c                	lw	a5,52(s0)
80001078:	c399                	beqz	a5,8000107e <__sflush_r+0x52>
8000107a:	403c                	lw	a5,64(s0)
8000107c:	8d1d                	sub	a0,a0,a5
8000107e:	545c                	lw	a5,44(s0)
80001080:	500c                	lw	a1,32(s0)
80001082:	862a                	mv	a2,a0
80001084:	4681                	li	a3,0
80001086:	8526                	mv	a0,s1
80001088:	9782                	jalr	a5
8000108a:	57fd                	li	a5,-1
8000108c:	00c45703          	lhu	a4,12(s0)
80001090:	00f51d63          	bne	a0,a5,800010aa <__sflush_r+0x7e>
80001094:	4094                	lw	a3,0(s1)
80001096:	47f5                	li	a5,29
80001098:	08d7e363          	bltu	a5,a3,8000111e <__sflush_r+0xf2>
8000109c:	204007b7          	lui	a5,0x20400
800010a0:	0785                	addi	a5,a5,1
800010a2:	00d7d7b3          	srl	a5,a5,a3
800010a6:	8b85                	andi	a5,a5,1
800010a8:	cbbd                	beqz	a5,8000111e <__sflush_r+0xf2>
800010aa:	481c                	lw	a5,16(s0)
800010ac:	00042223          	sw	zero,4(s0)
800010b0:	c01c                	sw	a5,0(s0)
800010b2:	6785                	lui	a5,0x1
800010b4:	8f7d                	and	a4,a4,a5
800010b6:	c719                	beqz	a4,800010c4 <__sflush_r+0x98>
800010b8:	57fd                	li	a5,-1
800010ba:	00f51463          	bne	a0,a5,800010c2 <__sflush_r+0x96>
800010be:	409c                	lw	a5,0(s1)
800010c0:	e391                	bnez	a5,800010c4 <__sflush_r+0x98>
800010c2:	c868                	sw	a0,84(s0)
800010c4:	584c                	lw	a1,52(s0)
800010c6:	0124a023          	sw	s2,0(s1)
800010ca:	d5c1                	beqz	a1,80001052 <__sflush_r+0x26>
800010cc:	04440793          	addi	a5,s0,68
800010d0:	00f58463          	beq	a1,a5,800010d8 <__sflush_r+0xac>
800010d4:	8526                	mv	a0,s1
800010d6:	21d1                	jal	8000159a <_free_r>
800010d8:	02042a23          	sw	zero,52(s0)
800010dc:	bf9d                	j	80001052 <__sflush_r+0x26>
800010de:	500c                	lw	a1,32(s0)
800010e0:	4685                	li	a3,1
800010e2:	4601                	li	a2,0
800010e4:	8526                	mv	a0,s1
800010e6:	9702                	jalr	a4
800010e8:	57fd                	li	a5,-1
800010ea:	f8f510e3          	bne	a0,a5,8000106a <__sflush_r+0x3e>
800010ee:	409c                	lw	a5,0(s1)
800010f0:	dfad                	beqz	a5,8000106a <__sflush_r+0x3e>
800010f2:	4775                	li	a4,29
800010f4:	00e78563          	beq	a5,a4,800010fe <__sflush_r+0xd2>
800010f8:	4759                	li	a4,22
800010fa:	00e79563          	bne	a5,a4,80001104 <__sflush_r+0xd8>
800010fe:	0124a023          	sw	s2,0(s1)
80001102:	bf81                	j	80001052 <__sflush_r+0x26>
80001104:	00c45783          	lhu	a5,12(s0)
80001108:	0407e793          	ori	a5,a5,64
8000110c:	00f41623          	sh	a5,12(s0)
80001110:	40f2                	lw	ra,28(sp)
80001112:	4462                	lw	s0,24(sp)
80001114:	44d2                	lw	s1,20(sp)
80001116:	4942                	lw	s2,16(sp)
80001118:	49b2                	lw	s3,12(sp)
8000111a:	6105                	addi	sp,sp,32
8000111c:	8082                	ret
8000111e:	04076713          	ori	a4,a4,64
80001122:	00e41623          	sh	a4,12(s0)
80001126:	b7ed                	j	80001110 <__sflush_r+0xe4>
80001128:	0105a983          	lw	s3,16(a1)
8000112c:	f20983e3          	beqz	s3,80001052 <__sflush_r+0x26>
80001130:	0005a903          	lw	s2,0(a1)
80001134:	8b8d                	andi	a5,a5,3
80001136:	0135a023          	sw	s3,0(a1)
8000113a:	41390933          	sub	s2,s2,s3
8000113e:	4701                	li	a4,0
80001140:	e391                	bnez	a5,80001144 <__sflush_r+0x118>
80001142:	49d8                	lw	a4,20(a1)
80001144:	c418                	sw	a4,8(s0)
80001146:	f12056e3          	blez	s2,80001052 <__sflush_r+0x26>
8000114a:	541c                	lw	a5,40(s0)
8000114c:	500c                	lw	a1,32(s0)
8000114e:	86ca                	mv	a3,s2
80001150:	864e                	mv	a2,s3
80001152:	8526                	mv	a0,s1
80001154:	9782                	jalr	a5
80001156:	00a04a63          	bgtz	a0,8000116a <__sflush_r+0x13e>
8000115a:	00c45783          	lhu	a5,12(s0)
8000115e:	557d                	li	a0,-1
80001160:	0407e793          	ori	a5,a5,64
80001164:	00f41623          	sh	a5,12(s0)
80001168:	b765                	j	80001110 <__sflush_r+0xe4>
8000116a:	99aa                	add	s3,s3,a0
8000116c:	40a90933          	sub	s2,s2,a0
80001170:	bfd9                	j	80001146 <__sflush_r+0x11a>

80001172 <_fflush_r>:
_fflush_r():
80001172:	499c                	lw	a5,16(a1)
80001174:	cfb9                	beqz	a5,800011d2 <_fflush_r+0x60>
80001176:	1101                	addi	sp,sp,-32
80001178:	cc22                	sw	s0,24(sp)
8000117a:	ce06                	sw	ra,28(sp)
8000117c:	842a                	mv	s0,a0
8000117e:	c511                	beqz	a0,8000118a <_fflush_r+0x18>
80001180:	4d1c                	lw	a5,24(a0)
80001182:	e781                	bnez	a5,8000118a <_fflush_r+0x18>
80001184:	c62e                	sw	a1,12(sp)
80001186:	2219                	jal	8000128c <__sinit>
80001188:	45b2                	lw	a1,12(sp)
8000118a:	00001797          	auipc	a5,0x1
8000118e:	04678793          	addi	a5,a5,70 # 800021d0 <__sf_fake_stdin>
80001192:	00f59b63          	bne	a1,a5,800011a8 <_fflush_r+0x36>
80001196:	404c                	lw	a1,4(s0)
80001198:	00c59783          	lh	a5,12(a1)
8000119c:	c795                	beqz	a5,800011c8 <_fflush_r+0x56>
8000119e:	8522                	mv	a0,s0
800011a0:	4462                	lw	s0,24(sp)
800011a2:	40f2                	lw	ra,28(sp)
800011a4:	6105                	addi	sp,sp,32
800011a6:	b559                	j	8000102c <__sflush_r>
800011a8:	00001797          	auipc	a5,0x1
800011ac:	04878793          	addi	a5,a5,72 # 800021f0 <__sf_fake_stdout>
800011b0:	00f59463          	bne	a1,a5,800011b8 <_fflush_r+0x46>
800011b4:	440c                	lw	a1,8(s0)
800011b6:	b7cd                	j	80001198 <_fflush_r+0x26>
800011b8:	00001797          	auipc	a5,0x1
800011bc:	ff878793          	addi	a5,a5,-8 # 800021b0 <__sf_fake_stderr>
800011c0:	fcf59ce3          	bne	a1,a5,80001198 <_fflush_r+0x26>
800011c4:	444c                	lw	a1,12(s0)
800011c6:	bfc9                	j	80001198 <_fflush_r+0x26>
800011c8:	40f2                	lw	ra,28(sp)
800011ca:	4462                	lw	s0,24(sp)
800011cc:	4501                	li	a0,0
800011ce:	6105                	addi	sp,sp,32
800011d0:	8082                	ret
800011d2:	4501                	li	a0,0
800011d4:	8082                	ret

800011d6 <std>:
std():
800011d6:	1141                	addi	sp,sp,-16
800011d8:	c422                	sw	s0,8(sp)
800011da:	c606                	sw	ra,12(sp)
800011dc:	842a                	mv	s0,a0
800011de:	00b51623          	sh	a1,12(a0)
800011e2:	00c51723          	sh	a2,14(a0)
800011e6:	00052023          	sw	zero,0(a0)
800011ea:	00052223          	sw	zero,4(a0)
800011ee:	00052423          	sw	zero,8(a0)
800011f2:	06052223          	sw	zero,100(a0)
800011f6:	00052823          	sw	zero,16(a0)
800011fa:	00052a23          	sw	zero,20(a0)
800011fe:	00052c23          	sw	zero,24(a0)
80001202:	4621                	li	a2,8
80001204:	4581                	li	a1,0
80001206:	05c50513          	addi	a0,a0,92
8000120a:	24e5                	jal	800014f2 <memset>
8000120c:	00001797          	auipc	a5,0x1
80001210:	82478793          	addi	a5,a5,-2012 # 80001a30 <__sread>
80001214:	d05c                	sw	a5,36(s0)
80001216:	00001797          	auipc	a5,0x1
8000121a:	84a78793          	addi	a5,a5,-1974 # 80001a60 <__swrite>
8000121e:	d41c                	sw	a5,40(s0)
80001220:	00001797          	auipc	a5,0x1
80001224:	88e78793          	addi	a5,a5,-1906 # 80001aae <__sseek>
80001228:	d45c                	sw	a5,44(s0)
8000122a:	00001797          	auipc	a5,0x1
8000122e:	8ba78793          	addi	a5,a5,-1862 # 80001ae4 <__sclose>
80001232:	40b2                	lw	ra,12(sp)
80001234:	d000                	sw	s0,32(s0)
80001236:	d81c                	sw	a5,48(s0)
80001238:	4422                	lw	s0,8(sp)
8000123a:	0141                	addi	sp,sp,16
8000123c:	8082                	ret

8000123e <_cleanup_r>:
_cleanup_r():
8000123e:	00000597          	auipc	a1,0x0
80001242:	f3458593          	addi	a1,a1,-204 # 80001172 <_fflush_r>
80001246:	a291                	j	8000138a <_fwalk_reent>

80001248 <__sfmoreglue>:
__sfmoreglue():
80001248:	1141                	addi	sp,sp,-16
8000124a:	c226                	sw	s1,4(sp)
8000124c:	06800613          	li	a2,104
80001250:	fff58493          	addi	s1,a1,-1
80001254:	02c484b3          	mul	s1,s1,a2
80001258:	c04a                	sw	s2,0(sp)
8000125a:	892e                	mv	s2,a1
8000125c:	c422                	sw	s0,8(sp)
8000125e:	c606                	sw	ra,12(sp)
80001260:	07448593          	addi	a1,s1,116
80001264:	2ed1                	jal	80001638 <_malloc_r>
80001266:	842a                	mv	s0,a0
80001268:	c919                	beqz	a0,8000127e <__sfmoreglue+0x36>
8000126a:	00052023          	sw	zero,0(a0)
8000126e:	01252223          	sw	s2,4(a0)
80001272:	0531                	addi	a0,a0,12
80001274:	c408                	sw	a0,8(s0)
80001276:	06848613          	addi	a2,s1,104
8000127a:	4581                	li	a1,0
8000127c:	2c9d                	jal	800014f2 <memset>
8000127e:	40b2                	lw	ra,12(sp)
80001280:	8522                	mv	a0,s0
80001282:	4422                	lw	s0,8(sp)
80001284:	4492                	lw	s1,4(sp)
80001286:	4902                	lw	s2,0(sp)
80001288:	0141                	addi	sp,sp,16
8000128a:	8082                	ret

8000128c <__sinit>:
__sinit():
8000128c:	4d1c                	lw	a5,24(a0)
8000128e:	e3ad                	bnez	a5,800012f0 <__sinit+0x64>
80001290:	1141                	addi	sp,sp,-16
80001292:	c422                	sw	s0,8(sp)
80001294:	c606                	sw	ra,12(sp)
80001296:	00000797          	auipc	a5,0x0
8000129a:	fa878793          	addi	a5,a5,-88 # 8000123e <_cleanup_r>
8000129e:	d51c                	sw	a5,40(a0)
800012a0:	04052423          	sw	zero,72(a0)
800012a4:	04052623          	sw	zero,76(a0)
800012a8:	04052823          	sw	zero,80(a0)
800012ac:	8101a783          	lw	a5,-2032(gp) # 90000070 <_global_impure_ptr>
800012b0:	842a                	mv	s0,a0
800012b2:	00f51463          	bne	a0,a5,800012ba <__sinit+0x2e>
800012b6:	4785                	li	a5,1
800012b8:	cd1c                	sw	a5,24(a0)
800012ba:	8522                	mv	a0,s0
800012bc:	281d                	jal	800012f2 <__sfp>
800012be:	c048                	sw	a0,4(s0)
800012c0:	8522                	mv	a0,s0
800012c2:	2805                	jal	800012f2 <__sfp>
800012c4:	c408                	sw	a0,8(s0)
800012c6:	8522                	mv	a0,s0
800012c8:	202d                	jal	800012f2 <__sfp>
800012ca:	c448                	sw	a0,12(s0)
800012cc:	4048                	lw	a0,4(s0)
800012ce:	4601                	li	a2,0
800012d0:	4591                	li	a1,4
800012d2:	3711                	jal	800011d6 <std>
800012d4:	4408                	lw	a0,8(s0)
800012d6:	4605                	li	a2,1
800012d8:	45a5                	li	a1,9
800012da:	3df5                	jal	800011d6 <std>
800012dc:	4448                	lw	a0,12(s0)
800012de:	4609                	li	a2,2
800012e0:	45c9                	li	a1,18
800012e2:	3dd5                	jal	800011d6 <std>
800012e4:	4785                	li	a5,1
800012e6:	40b2                	lw	ra,12(sp)
800012e8:	cc1c                	sw	a5,24(s0)
800012ea:	4422                	lw	s0,8(sp)
800012ec:	0141                	addi	sp,sp,16
800012ee:	8082                	ret
800012f0:	8082                	ret

800012f2 <__sfp>:
__sfp():
800012f2:	1141                	addi	sp,sp,-16
800012f4:	c226                	sw	s1,4(sp)
800012f6:	8101a483          	lw	s1,-2032(gp) # 90000070 <_global_impure_ptr>
800012fa:	4c9c                	lw	a5,24(s1)
800012fc:	c04a                	sw	s2,0(sp)
800012fe:	c606                	sw	ra,12(sp)
80001300:	c422                	sw	s0,8(sp)
80001302:	892a                	mv	s2,a0
80001304:	e399                	bnez	a5,8000130a <__sfp+0x18>
80001306:	8526                	mv	a0,s1
80001308:	3751                	jal	8000128c <__sinit>
8000130a:	04848493          	addi	s1,s1,72
8000130e:	4480                	lw	s0,8(s1)
80001310:	40dc                	lw	a5,4(s1)
80001312:	17fd                	addi	a5,a5,-1
80001314:	0007d663          	bgez	a5,80001320 <__sfp+0x2e>
80001318:	409c                	lw	a5,0(s1)
8000131a:	cfb1                	beqz	a5,80001376 <__sfp+0x84>
8000131c:	4084                	lw	s1,0(s1)
8000131e:	bfc5                	j	8000130e <__sfp+0x1c>
80001320:	00c41703          	lh	a4,12(s0)
80001324:	e731                	bnez	a4,80001370 <__sfp+0x7e>
80001326:	77c1                	lui	a5,0xffff0
80001328:	0785                	addi	a5,a5,1
8000132a:	06042223          	sw	zero,100(s0)
8000132e:	00042023          	sw	zero,0(s0)
80001332:	00042223          	sw	zero,4(s0)
80001336:	00042423          	sw	zero,8(s0)
8000133a:	c45c                	sw	a5,12(s0)
8000133c:	00042823          	sw	zero,16(s0)
80001340:	00042a23          	sw	zero,20(s0)
80001344:	00042c23          	sw	zero,24(s0)
80001348:	4621                	li	a2,8
8000134a:	4581                	li	a1,0
8000134c:	05c40513          	addi	a0,s0,92
80001350:	224d                	jal	800014f2 <memset>
80001352:	02042a23          	sw	zero,52(s0)
80001356:	02042c23          	sw	zero,56(s0)
8000135a:	04042423          	sw	zero,72(s0)
8000135e:	04042623          	sw	zero,76(s0)
80001362:	40b2                	lw	ra,12(sp)
80001364:	8522                	mv	a0,s0
80001366:	4422                	lw	s0,8(sp)
80001368:	4492                	lw	s1,4(sp)
8000136a:	4902                	lw	s2,0(sp)
8000136c:	0141                	addi	sp,sp,16
8000136e:	8082                	ret
80001370:	06840413          	addi	s0,s0,104
80001374:	bf79                	j	80001312 <__sfp+0x20>
80001376:	4591                	li	a1,4
80001378:	854a                	mv	a0,s2
8000137a:	35f9                	jal	80001248 <__sfmoreglue>
8000137c:	c088                	sw	a0,0(s1)
8000137e:	842a                	mv	s0,a0
80001380:	fd51                	bnez	a0,8000131c <__sfp+0x2a>
80001382:	47b1                	li	a5,12
80001384:	00f92023          	sw	a5,0(s2)
80001388:	bfe9                	j	80001362 <__sfp+0x70>

8000138a <_fwalk_reent>:
_fwalk_reent():
8000138a:	7179                	addi	sp,sp,-48
8000138c:	d422                	sw	s0,40(sp)
8000138e:	d04a                	sw	s2,32(sp)
80001390:	ce4e                	sw	s3,28(sp)
80001392:	cc52                	sw	s4,24(sp)
80001394:	c85a                	sw	s6,16(sp)
80001396:	c65e                	sw	s7,12(sp)
80001398:	d606                	sw	ra,44(sp)
8000139a:	d226                	sw	s1,36(sp)
8000139c:	ca56                	sw	s5,20(sp)
8000139e:	892a                	mv	s2,a0
800013a0:	8a2e                	mv	s4,a1
800013a2:	04850413          	addi	s0,a0,72
800013a6:	4981                	li	s3,0
800013a8:	4b05                	li	s6,1
800013aa:	5bfd                	li	s7,-1
800013ac:	4404                	lw	s1,8(s0)
800013ae:	00442a83          	lw	s5,4(s0)
800013b2:	1afd                	addi	s5,s5,-1
800013b4:	020ad063          	bgez	s5,800013d4 <_fwalk_reent+0x4a>
800013b8:	4000                	lw	s0,0(s0)
800013ba:	f86d                	bnez	s0,800013ac <_fwalk_reent+0x22>
800013bc:	50b2                	lw	ra,44(sp)
800013be:	5422                	lw	s0,40(sp)
800013c0:	5492                	lw	s1,36(sp)
800013c2:	5902                	lw	s2,32(sp)
800013c4:	4a62                	lw	s4,24(sp)
800013c6:	4ad2                	lw	s5,20(sp)
800013c8:	4b42                	lw	s6,16(sp)
800013ca:	4bb2                	lw	s7,12(sp)
800013cc:	854e                	mv	a0,s3
800013ce:	49f2                	lw	s3,28(sp)
800013d0:	6145                	addi	sp,sp,48
800013d2:	8082                	ret
800013d4:	00c4d783          	lhu	a5,12(s1)
800013d8:	00fb7b63          	bgeu	s6,a5,800013ee <_fwalk_reent+0x64>
800013dc:	00e49783          	lh	a5,14(s1)
800013e0:	01778763          	beq	a5,s7,800013ee <_fwalk_reent+0x64>
800013e4:	85a6                	mv	a1,s1
800013e6:	854a                	mv	a0,s2
800013e8:	9a02                	jalr	s4
800013ea:	00a9e9b3          	or	s3,s3,a0
800013ee:	06848493          	addi	s1,s1,104
800013f2:	b7c1                	j	800013b2 <_fwalk_reent+0x28>

800013f4 <__swhatbuf_r>:
__swhatbuf_r():
800013f4:	7159                	addi	sp,sp,-112
800013f6:	d0ca                	sw	s2,96(sp)
800013f8:	892e                	mv	s2,a1
800013fa:	00e59583          	lh	a1,14(a1)
800013fe:	d4a2                	sw	s0,104(sp)
80001400:	d2a6                	sw	s1,100(sp)
80001402:	d686                	sw	ra,108(sp)
80001404:	8432                	mv	s0,a2
80001406:	84b6                	mv	s1,a3
80001408:	0005dc63          	bgez	a1,80001420 <__swhatbuf_r+0x2c>
8000140c:	00c91783          	lh	a5,12(s2)
80001410:	0004a023          	sw	zero,0(s1)
80001414:	0807f793          	andi	a5,a5,128
80001418:	e38d                	bnez	a5,8000143a <__swhatbuf_r+0x46>
8000141a:	40000793          	li	a5,1024
8000141e:	a005                	j	8000143e <__swhatbuf_r+0x4a>
80001420:	0030                	addi	a2,sp,8
80001422:	2f31                	jal	80001b3e <_fstat_r>
80001424:	fe0544e3          	bltz	a0,8000140c <__swhatbuf_r+0x18>
80001428:	4732                	lw	a4,12(sp)
8000142a:	67bd                	lui	a5,0xf
8000142c:	8ff9                	and	a5,a5,a4
8000142e:	7779                	lui	a4,0xffffe
80001430:	97ba                	add	a5,a5,a4
80001432:	0017b793          	seqz	a5,a5
80001436:	c09c                	sw	a5,0(s1)
80001438:	b7cd                	j	8000141a <__swhatbuf_r+0x26>
8000143a:	04000793          	li	a5,64
8000143e:	50b6                	lw	ra,108(sp)
80001440:	c01c                	sw	a5,0(s0)
80001442:	5426                	lw	s0,104(sp)
80001444:	5496                	lw	s1,100(sp)
80001446:	5906                	lw	s2,96(sp)
80001448:	4501                	li	a0,0
8000144a:	6165                	addi	sp,sp,112
8000144c:	8082                	ret

8000144e <__smakebuf_r>:
__smakebuf_r():
8000144e:	00c5d783          	lhu	a5,12(a1)
80001452:	1101                	addi	sp,sp,-32
80001454:	cc22                	sw	s0,24(sp)
80001456:	ce06                	sw	ra,28(sp)
80001458:	ca26                	sw	s1,20(sp)
8000145a:	c84a                	sw	s2,16(sp)
8000145c:	8b89                	andi	a5,a5,2
8000145e:	842e                	mv	s0,a1
80001460:	cf89                	beqz	a5,8000147a <__smakebuf_r+0x2c>
80001462:	04740793          	addi	a5,s0,71
80001466:	c01c                	sw	a5,0(s0)
80001468:	c81c                	sw	a5,16(s0)
8000146a:	4785                	li	a5,1
8000146c:	c85c                	sw	a5,20(s0)
8000146e:	40f2                	lw	ra,28(sp)
80001470:	4462                	lw	s0,24(sp)
80001472:	44d2                	lw	s1,20(sp)
80001474:	4942                	lw	s2,16(sp)
80001476:	6105                	addi	sp,sp,32
80001478:	8082                	ret
8000147a:	0074                	addi	a3,sp,12
8000147c:	0030                	addi	a2,sp,8
8000147e:	892a                	mv	s2,a0
80001480:	3f95                	jal	800013f4 <__swhatbuf_r>
80001482:	45a2                	lw	a1,8(sp)
80001484:	84aa                	mv	s1,a0
80001486:	854a                	mv	a0,s2
80001488:	2a45                	jal	80001638 <_malloc_r>
8000148a:	ed01                	bnez	a0,800014a2 <__smakebuf_r+0x54>
8000148c:	00c41783          	lh	a5,12(s0)
80001490:	2007f713          	andi	a4,a5,512
80001494:	ff69                	bnez	a4,8000146e <__smakebuf_r+0x20>
80001496:	9bf1                	andi	a5,a5,-4
80001498:	0027e793          	ori	a5,a5,2
8000149c:	00f41623          	sh	a5,12(s0)
800014a0:	b7c9                	j	80001462 <__smakebuf_r+0x14>
800014a2:	00000797          	auipc	a5,0x0
800014a6:	d9c78793          	addi	a5,a5,-612 # 8000123e <_cleanup_r>
800014aa:	02f92423          	sw	a5,40(s2)
800014ae:	00c45783          	lhu	a5,12(s0)
800014b2:	c008                	sw	a0,0(s0)
800014b4:	c808                	sw	a0,16(s0)
800014b6:	0807e793          	ori	a5,a5,128
800014ba:	00f41623          	sh	a5,12(s0)
800014be:	47a2                	lw	a5,8(sp)
800014c0:	c85c                	sw	a5,20(s0)
800014c2:	47b2                	lw	a5,12(sp)
800014c4:	cf89                	beqz	a5,800014de <__smakebuf_r+0x90>
800014c6:	00e41583          	lh	a1,14(s0)
800014ca:	854a                	mv	a0,s2
800014cc:	2d71                	jal	80001b68 <_isatty_r>
800014ce:	c901                	beqz	a0,800014de <__smakebuf_r+0x90>
800014d0:	00c45783          	lhu	a5,12(s0)
800014d4:	9bf1                	andi	a5,a5,-4
800014d6:	0017e793          	ori	a5,a5,1
800014da:	00f41623          	sh	a5,12(s0)
800014de:	00c45503          	lhu	a0,12(s0)
800014e2:	8cc9                	or	s1,s1,a0
800014e4:	00941623          	sh	s1,12(s0)
800014e8:	b759                	j	8000146e <__smakebuf_r+0x20>

800014ea <malloc>:
malloc():
800014ea:	85aa                	mv	a1,a0
800014ec:	8081a503          	lw	a0,-2040(gp) # 90000068 <_impure_ptr>
800014f0:	a2a1                	j	80001638 <_malloc_r>

800014f2 <memset>:
memset():
800014f2:	433d                	li	t1,15
800014f4:	872a                	mv	a4,a0
800014f6:	02c37363          	bgeu	t1,a2,8000151c <memset+0x2a>
800014fa:	00f77793          	andi	a5,a4,15
800014fe:	efbd                	bnez	a5,8000157c <memset+0x8a>
80001500:	e5ad                	bnez	a1,8000156a <memset+0x78>
80001502:	ff067693          	andi	a3,a2,-16
80001506:	8a3d                	andi	a2,a2,15
80001508:	96ba                	add	a3,a3,a4
8000150a:	c30c                	sw	a1,0(a4)
8000150c:	c34c                	sw	a1,4(a4)
8000150e:	c70c                	sw	a1,8(a4)
80001510:	c74c                	sw	a1,12(a4)
80001512:	0741                	addi	a4,a4,16
80001514:	fed76be3          	bltu	a4,a3,8000150a <memset+0x18>
80001518:	e211                	bnez	a2,8000151c <memset+0x2a>
8000151a:	8082                	ret
8000151c:	40c306b3          	sub	a3,t1,a2
80001520:	068a                	slli	a3,a3,0x2
80001522:	00000297          	auipc	t0,0x0
80001526:	9696                	add	a3,a3,t0
80001528:	00a68067          	jr	10(a3) # 100a <__stack_size+0x80a>
8000152c:	00b70723          	sb	a1,14(a4) # ffffe00e <_sp+0x6ffee00e>
80001530:	00b706a3          	sb	a1,13(a4)
80001534:	00b70623          	sb	a1,12(a4)
80001538:	00b705a3          	sb	a1,11(a4)
8000153c:	00b70523          	sb	a1,10(a4)
80001540:	00b704a3          	sb	a1,9(a4)
80001544:	00b70423          	sb	a1,8(a4)
80001548:	00b703a3          	sb	a1,7(a4)
8000154c:	00b70323          	sb	a1,6(a4)
80001550:	00b702a3          	sb	a1,5(a4)
80001554:	00b70223          	sb	a1,4(a4)
80001558:	00b701a3          	sb	a1,3(a4)
8000155c:	00b70123          	sb	a1,2(a4)
80001560:	00b700a3          	sb	a1,1(a4)
80001564:	00b70023          	sb	a1,0(a4)
80001568:	8082                	ret
8000156a:	0ff5f593          	andi	a1,a1,255
8000156e:	00859693          	slli	a3,a1,0x8
80001572:	8dd5                	or	a1,a1,a3
80001574:	01059693          	slli	a3,a1,0x10
80001578:	8dd5                	or	a1,a1,a3
8000157a:	b761                	j	80001502 <memset+0x10>
8000157c:	00279693          	slli	a3,a5,0x2
80001580:	00000297          	auipc	t0,0x0
80001584:	9696                	add	a3,a3,t0
80001586:	8286                	mv	t0,ra
80001588:	fa8680e7          	jalr	-88(a3)
8000158c:	8096                	mv	ra,t0
8000158e:	17c1                	addi	a5,a5,-16
80001590:	8f1d                	sub	a4,a4,a5
80001592:	963e                	add	a2,a2,a5
80001594:	f8c374e3          	bgeu	t1,a2,8000151c <memset+0x2a>
80001598:	b7a5                	j	80001500 <memset+0xe>

8000159a <_free_r>:
_free_r():
8000159a:	cdd1                	beqz	a1,80001636 <_free_r+0x9c>
8000159c:	ffc5a783          	lw	a5,-4(a1)
800015a0:	1101                	addi	sp,sp,-32
800015a2:	cc22                	sw	s0,24(sp)
800015a4:	ce06                	sw	ra,28(sp)
800015a6:	ffc58413          	addi	s0,a1,-4
800015aa:	0007d363          	bgez	a5,800015b0 <_free_r+0x16>
800015ae:	943e                	add	s0,s0,a5
800015b0:	c62a                	sw	a0,12(sp)
800015b2:	2515                	jal	80001bd6 <__malloc_lock>
800015b4:	81c18713          	addi	a4,gp,-2020 # 9000007c <__malloc_free_list>
800015b8:	431c                	lw	a5,0(a4)
800015ba:	4532                	lw	a0,12(sp)
800015bc:	eb81                	bnez	a5,800015cc <_free_r+0x32>
800015be:	00042223          	sw	zero,4(s0)
800015c2:	c300                	sw	s0,0(a4)
800015c4:	4462                	lw	s0,24(sp)
800015c6:	40f2                	lw	ra,28(sp)
800015c8:	6105                	addi	sp,sp,32
800015ca:	a539                	j	80001bd8 <__malloc_unlock>
800015cc:	00f47d63          	bgeu	s0,a5,800015e6 <_free_r+0x4c>
800015d0:	4010                	lw	a2,0(s0)
800015d2:	00c406b3          	add	a3,s0,a2
800015d6:	00d79663          	bne	a5,a3,800015e2 <_free_r+0x48>
800015da:	4394                	lw	a3,0(a5)
800015dc:	43dc                	lw	a5,4(a5)
800015de:	96b2                	add	a3,a3,a2
800015e0:	c014                	sw	a3,0(s0)
800015e2:	c05c                	sw	a5,4(s0)
800015e4:	bff9                	j	800015c2 <_free_r+0x28>
800015e6:	873e                	mv	a4,a5
800015e8:	43dc                	lw	a5,4(a5)
800015ea:	c399                	beqz	a5,800015f0 <_free_r+0x56>
800015ec:	fef47de3          	bgeu	s0,a5,800015e6 <_free_r+0x4c>
800015f0:	4314                	lw	a3,0(a4)
800015f2:	00d70633          	add	a2,a4,a3
800015f6:	00861f63          	bne	a2,s0,80001614 <_free_r+0x7a>
800015fa:	4010                	lw	a2,0(s0)
800015fc:	96b2                	add	a3,a3,a2
800015fe:	c314                	sw	a3,0(a4)
80001600:	00d70633          	add	a2,a4,a3
80001604:	fcc790e3          	bne	a5,a2,800015c4 <_free_r+0x2a>
80001608:	4390                	lw	a2,0(a5)
8000160a:	43dc                	lw	a5,4(a5)
8000160c:	96b2                	add	a3,a3,a2
8000160e:	c314                	sw	a3,0(a4)
80001610:	c35c                	sw	a5,4(a4)
80001612:	bf4d                	j	800015c4 <_free_r+0x2a>
80001614:	00c47563          	bgeu	s0,a2,8000161e <_free_r+0x84>
80001618:	47b1                	li	a5,12
8000161a:	c11c                	sw	a5,0(a0)
8000161c:	b765                	j	800015c4 <_free_r+0x2a>
8000161e:	4010                	lw	a2,0(s0)
80001620:	00c406b3          	add	a3,s0,a2
80001624:	00d79663          	bne	a5,a3,80001630 <_free_r+0x96>
80001628:	4394                	lw	a3,0(a5)
8000162a:	43dc                	lw	a5,4(a5)
8000162c:	96b2                	add	a3,a3,a2
8000162e:	c014                	sw	a3,0(s0)
80001630:	c05c                	sw	a5,4(s0)
80001632:	c340                	sw	s0,4(a4)
80001634:	bf41                	j	800015c4 <_free_r+0x2a>
80001636:	8082                	ret

80001638 <_malloc_r>:
_malloc_r():
80001638:	1101                	addi	sp,sp,-32
8000163a:	ca26                	sw	s1,20(sp)
8000163c:	00358493          	addi	s1,a1,3
80001640:	98f1                	andi	s1,s1,-4
80001642:	c84a                	sw	s2,16(sp)
80001644:	ce06                	sw	ra,28(sp)
80001646:	cc22                	sw	s0,24(sp)
80001648:	c64e                	sw	s3,12(sp)
8000164a:	04a1                	addi	s1,s1,8
8000164c:	47b1                	li	a5,12
8000164e:	892a                	mv	s2,a0
80001650:	04f4f063          	bgeu	s1,a5,80001690 <_malloc_r+0x58>
80001654:	44b1                	li	s1,12
80001656:	02b4ef63          	bltu	s1,a1,80001694 <_malloc_r+0x5c>
8000165a:	854a                	mv	a0,s2
8000165c:	2bad                	jal	80001bd6 <__malloc_lock>
8000165e:	81c18693          	addi	a3,gp,-2020 # 9000007c <__malloc_free_list>
80001662:	4298                	lw	a4,0(a3)
80001664:	843a                	mv	s0,a4
80001666:	e031                	bnez	s0,800016aa <_malloc_r+0x72>
80001668:	82018413          	addi	s0,gp,-2016 # 90000080 <__malloc_sbrk_start>
8000166c:	401c                	lw	a5,0(s0)
8000166e:	e789                	bnez	a5,80001678 <_malloc_r+0x40>
80001670:	4581                	li	a1,0
80001672:	854a                	mv	a0,s2
80001674:	2e51                	jal	80001a08 <_sbrk_r>
80001676:	c008                	sw	a0,0(s0)
80001678:	85a6                	mv	a1,s1
8000167a:	854a                	mv	a0,s2
8000167c:	2671                	jal	80001a08 <_sbrk_r>
8000167e:	59fd                	li	s3,-1
80001680:	07351863          	bne	a0,s3,800016f0 <_malloc_r+0xb8>
80001684:	47b1                	li	a5,12
80001686:	00f92023          	sw	a5,0(s2)
8000168a:	854a                	mv	a0,s2
8000168c:	23b1                	jal	80001bd8 <__malloc_unlock>
8000168e:	a031                	j	8000169a <_malloc_r+0x62>
80001690:	fc04d3e3          	bgez	s1,80001656 <_malloc_r+0x1e>
80001694:	47b1                	li	a5,12
80001696:	00f92023          	sw	a5,0(s2)
8000169a:	4501                	li	a0,0
8000169c:	40f2                	lw	ra,28(sp)
8000169e:	4462                	lw	s0,24(sp)
800016a0:	44d2                	lw	s1,20(sp)
800016a2:	4942                	lw	s2,16(sp)
800016a4:	49b2                	lw	s3,12(sp)
800016a6:	6105                	addi	sp,sp,32
800016a8:	8082                	ret
800016aa:	401c                	lw	a5,0(s0)
800016ac:	8f85                	sub	a5,a5,s1
800016ae:	0207ce63          	bltz	a5,800016ea <_malloc_r+0xb2>
800016b2:	462d                	li	a2,11
800016b4:	00f67663          	bgeu	a2,a5,800016c0 <_malloc_r+0x88>
800016b8:	c01c                	sw	a5,0(s0)
800016ba:	943e                	add	s0,s0,a5
800016bc:	c004                	sw	s1,0(s0)
800016be:	a029                	j	800016c8 <_malloc_r+0x90>
800016c0:	405c                	lw	a5,4(s0)
800016c2:	02871263          	bne	a4,s0,800016e6 <_malloc_r+0xae>
800016c6:	c29c                	sw	a5,0(a3)
800016c8:	854a                	mv	a0,s2
800016ca:	2339                	jal	80001bd8 <__malloc_unlock>
800016cc:	00b40513          	addi	a0,s0,11
800016d0:	00440793          	addi	a5,s0,4
800016d4:	9961                	andi	a0,a0,-8
800016d6:	40f50733          	sub	a4,a0,a5
800016da:	fcf501e3          	beq	a0,a5,8000169c <_malloc_r+0x64>
800016de:	943a                	add	s0,s0,a4
800016e0:	8f89                	sub	a5,a5,a0
800016e2:	c01c                	sw	a5,0(s0)
800016e4:	bf65                	j	8000169c <_malloc_r+0x64>
800016e6:	c35c                	sw	a5,4(a4)
800016e8:	b7c5                	j	800016c8 <_malloc_r+0x90>
800016ea:	8722                	mv	a4,s0
800016ec:	4040                	lw	s0,4(s0)
800016ee:	bfa5                	j	80001666 <_malloc_r+0x2e>
800016f0:	00350413          	addi	s0,a0,3
800016f4:	9871                	andi	s0,s0,-4
800016f6:	fc8503e3          	beq	a0,s0,800016bc <_malloc_r+0x84>
800016fa:	40a405b3          	sub	a1,s0,a0
800016fe:	854a                	mv	a0,s2
80001700:	2621                	jal	80001a08 <_sbrk_r>
80001702:	fb351de3          	bne	a0,s3,800016bc <_malloc_r+0x84>
80001706:	bfbd                	j	80001684 <_malloc_r+0x4c>

80001708 <__sfputc_r>:
__sfputc_r():
80001708:	461c                	lw	a5,8(a2)
8000170a:	17fd                	addi	a5,a5,-1
8000170c:	c61c                	sw	a5,8(a2)
8000170e:	0007da63          	bgez	a5,80001722 <__sfputc_r+0x1a>
80001712:	4e18                	lw	a4,24(a2)
80001714:	00e7c563          	blt	a5,a4,8000171e <__sfputc_r+0x16>
80001718:	47a9                	li	a5,10
8000171a:	00f59463          	bne	a1,a5,80001722 <__sfputc_r+0x1a>
8000171e:	ed4ff06f          	j	80000df2 <__swbuf_r>
80001722:	421c                	lw	a5,0(a2)
80001724:	852e                	mv	a0,a1
80001726:	00178713          	addi	a4,a5,1
8000172a:	c218                	sw	a4,0(a2)
8000172c:	00b78023          	sb	a1,0(a5)
80001730:	8082                	ret

80001732 <__sfputs_r>:
__sfputs_r():
80001732:	1101                	addi	sp,sp,-32
80001734:	cc22                	sw	s0,24(sp)
80001736:	ca26                	sw	s1,20(sp)
80001738:	c84a                	sw	s2,16(sp)
8000173a:	c64e                	sw	s3,12(sp)
8000173c:	c452                	sw	s4,8(sp)
8000173e:	ce06                	sw	ra,28(sp)
80001740:	892a                	mv	s2,a0
80001742:	89ae                	mv	s3,a1
80001744:	8432                	mv	s0,a2
80001746:	00d604b3          	add	s1,a2,a3
8000174a:	5a7d                	li	s4,-1
8000174c:	00941463          	bne	s0,s1,80001754 <__sfputs_r+0x22>
80001750:	4501                	li	a0,0
80001752:	a809                	j	80001764 <__sfputs_r+0x32>
80001754:	00044583          	lbu	a1,0(s0)
80001758:	864e                	mv	a2,s3
8000175a:	854a                	mv	a0,s2
8000175c:	3775                	jal	80001708 <__sfputc_r>
8000175e:	0405                	addi	s0,s0,1
80001760:	ff4516e3          	bne	a0,s4,8000174c <__sfputs_r+0x1a>
80001764:	40f2                	lw	ra,28(sp)
80001766:	4462                	lw	s0,24(sp)
80001768:	44d2                	lw	s1,20(sp)
8000176a:	4942                	lw	s2,16(sp)
8000176c:	49b2                	lw	s3,12(sp)
8000176e:	4a22                	lw	s4,8(sp)
80001770:	6105                	addi	sp,sp,32
80001772:	8082                	ret

80001774 <_vfiprintf_r>:
_vfiprintf_r():
80001774:	7135                	addi	sp,sp,-160
80001776:	cd22                	sw	s0,152(sp)
80001778:	cb26                	sw	s1,148(sp)
8000177a:	c94a                	sw	s2,144(sp)
8000177c:	c74e                	sw	s3,140(sp)
8000177e:	cf06                	sw	ra,156(sp)
80001780:	c552                	sw	s4,136(sp)
80001782:	c356                	sw	s5,132(sp)
80001784:	c15a                	sw	s6,128(sp)
80001786:	dede                	sw	s7,124(sp)
80001788:	dce2                	sw	s8,120(sp)
8000178a:	dae6                	sw	s9,116(sp)
8000178c:	89aa                	mv	s3,a0
8000178e:	84ae                	mv	s1,a1
80001790:	8932                	mv	s2,a2
80001792:	8436                	mv	s0,a3
80001794:	c501                	beqz	a0,8000179c <_vfiprintf_r+0x28>
80001796:	4d1c                	lw	a5,24(a0)
80001798:	e391                	bnez	a5,8000179c <_vfiprintf_r+0x28>
8000179a:	3ccd                	jal	8000128c <__sinit>
8000179c:	00001797          	auipc	a5,0x1
800017a0:	a3478793          	addi	a5,a5,-1484 # 800021d0 <__sf_fake_stdin>
800017a4:	0cf49b63          	bne	s1,a5,8000187a <_vfiprintf_r+0x106>
800017a8:	0049a483          	lw	s1,4(s3)
800017ac:	00c4d783          	lhu	a5,12(s1)
800017b0:	8ba1                	andi	a5,a5,8
800017b2:	c7f5                	beqz	a5,8000189e <_vfiprintf_r+0x12a>
800017b4:	489c                	lw	a5,16(s1)
800017b6:	c7e5                	beqz	a5,8000189e <_vfiprintf_r+0x12a>
800017b8:	02000793          	li	a5,32
800017bc:	02f104a3          	sb	a5,41(sp)
800017c0:	03000793          	li	a5,48
800017c4:	d202                	sw	zero,36(sp)
800017c6:	02f10523          	sb	a5,42(sp)
800017ca:	c622                	sw	s0,12(sp)
800017cc:	02500b93          	li	s7,37
800017d0:	00001a97          	auipc	s5,0x1
800017d4:	a40a8a93          	addi	s5,s5,-1472 # 80002210 <__sf_fake_stdout+0x20>
800017d8:	4c05                	li	s8,1
800017da:	4b29                	li	s6,10
800017dc:	844a                	mv	s0,s2
800017de:	00044783          	lbu	a5,0(s0)
800017e2:	c399                	beqz	a5,800017e8 <_vfiprintf_r+0x74>
800017e4:	0f779063          	bne	a5,s7,800018c4 <_vfiprintf_r+0x150>
800017e8:	41240cb3          	sub	s9,s0,s2
800017ec:	01240d63          	beq	s0,s2,80001806 <_vfiprintf_r+0x92>
800017f0:	86e6                	mv	a3,s9
800017f2:	864a                	mv	a2,s2
800017f4:	85a6                	mv	a1,s1
800017f6:	854e                	mv	a0,s3
800017f8:	3f2d                	jal	80001732 <__sfputs_r>
800017fa:	57fd                	li	a5,-1
800017fc:	1ef50463          	beq	a0,a5,800019e4 <_vfiprintf_r+0x270>
80001800:	5792                	lw	a5,36(sp)
80001802:	97e6                	add	a5,a5,s9
80001804:	d23e                	sw	a5,36(sp)
80001806:	00044783          	lbu	a5,0(s0)
8000180a:	1c078d63          	beqz	a5,800019e4 <_vfiprintf_r+0x270>
8000180e:	57fd                	li	a5,-1
80001810:	00140913          	addi	s2,s0,1
80001814:	c802                	sw	zero,16(sp)
80001816:	ce02                	sw	zero,28(sp)
80001818:	ca3e                	sw	a5,20(sp)
8000181a:	cc02                	sw	zero,24(sp)
8000181c:	040109a3          	sb	zero,83(sp)
80001820:	d482                	sw	zero,104(sp)
80001822:	00094583          	lbu	a1,0(s2)
80001826:	4615                	li	a2,5
80001828:	8556                	mv	a0,s5
8000182a:	2e49                	jal	80001bbc <memchr>
8000182c:	47c2                	lw	a5,16(sp)
8000182e:	00190413          	addi	s0,s2,1
80001832:	e959                	bnez	a0,800018c8 <_vfiprintf_r+0x154>
80001834:	0107f713          	andi	a4,a5,16
80001838:	c709                	beqz	a4,80001842 <_vfiprintf_r+0xce>
8000183a:	02000713          	li	a4,32
8000183e:	04e109a3          	sb	a4,83(sp)
80001842:	0087f713          	andi	a4,a5,8
80001846:	c709                	beqz	a4,80001850 <_vfiprintf_r+0xdc>
80001848:	02b00713          	li	a4,43
8000184c:	04e109a3          	sb	a4,83(sp)
80001850:	00094683          	lbu	a3,0(s2)
80001854:	02a00713          	li	a4,42
80001858:	08e68063          	beq	a3,a4,800018d8 <_vfiprintf_r+0x164>
8000185c:	47f2                	lw	a5,28(sp)
8000185e:	844a                	mv	s0,s2
80001860:	4681                	li	a3,0
80001862:	4625                	li	a2,9
80001864:	00044703          	lbu	a4,0(s0)
80001868:	00140593          	addi	a1,s0,1
8000186c:	fd070713          	addi	a4,a4,-48
80001870:	0ae67963          	bgeu	a2,a4,80001922 <_vfiprintf_r+0x1ae>
80001874:	cab5                	beqz	a3,800018e8 <_vfiprintf_r+0x174>
80001876:	ce3e                	sw	a5,28(sp)
80001878:	a885                	j	800018e8 <_vfiprintf_r+0x174>
8000187a:	00001797          	auipc	a5,0x1
8000187e:	97678793          	addi	a5,a5,-1674 # 800021f0 <__sf_fake_stdout>
80001882:	00f49563          	bne	s1,a5,8000188c <_vfiprintf_r+0x118>
80001886:	0089a483          	lw	s1,8(s3)
8000188a:	b70d                	j	800017ac <_vfiprintf_r+0x38>
8000188c:	00001797          	auipc	a5,0x1
80001890:	92478793          	addi	a5,a5,-1756 # 800021b0 <__sf_fake_stderr>
80001894:	f0f49ce3          	bne	s1,a5,800017ac <_vfiprintf_r+0x38>
80001898:	00c9a483          	lw	s1,12(s3)
8000189c:	bf01                	j	800017ac <_vfiprintf_r+0x38>
8000189e:	85a6                	mv	a1,s1
800018a0:	854e                	mv	a0,s3
800018a2:	e10ff0ef          	jal	ra,80000eb2 <__swsetup_r>
800018a6:	d909                	beqz	a0,800017b8 <_vfiprintf_r+0x44>
800018a8:	557d                	li	a0,-1
800018aa:	40fa                	lw	ra,156(sp)
800018ac:	446a                	lw	s0,152(sp)
800018ae:	44da                	lw	s1,148(sp)
800018b0:	494a                	lw	s2,144(sp)
800018b2:	49ba                	lw	s3,140(sp)
800018b4:	4a2a                	lw	s4,136(sp)
800018b6:	4a9a                	lw	s5,132(sp)
800018b8:	4b0a                	lw	s6,128(sp)
800018ba:	5bf6                	lw	s7,124(sp)
800018bc:	5c66                	lw	s8,120(sp)
800018be:	5cd6                	lw	s9,116(sp)
800018c0:	610d                	addi	sp,sp,160
800018c2:	8082                	ret
800018c4:	0405                	addi	s0,s0,1
800018c6:	bf21                	j	800017de <_vfiprintf_r+0x6a>
800018c8:	41550533          	sub	a0,a0,s5
800018cc:	00ac1533          	sll	a0,s8,a0
800018d0:	8fc9                	or	a5,a5,a0
800018d2:	c83e                	sw	a5,16(sp)
800018d4:	8922                	mv	s2,s0
800018d6:	b7b1                	j	80001822 <_vfiprintf_r+0xae>
800018d8:	4732                	lw	a4,12(sp)
800018da:	00470693          	addi	a3,a4,4
800018de:	4318                	lw	a4,0(a4)
800018e0:	c636                	sw	a3,12(sp)
800018e2:	02074963          	bltz	a4,80001914 <_vfiprintf_r+0x1a0>
800018e6:	ce3a                	sw	a4,28(sp)
800018e8:	00044703          	lbu	a4,0(s0)
800018ec:	02e00793          	li	a5,46
800018f0:	04f71f63          	bne	a4,a5,8000194e <_vfiprintf_r+0x1da>
800018f4:	00144703          	lbu	a4,1(s0)
800018f8:	02a00793          	li	a5,42
800018fc:	02f71b63          	bne	a4,a5,80001932 <_vfiprintf_r+0x1be>
80001900:	47b2                	lw	a5,12(sp)
80001902:	0409                	addi	s0,s0,2
80001904:	00478713          	addi	a4,a5,4
80001908:	439c                	lw	a5,0(a5)
8000190a:	c63a                	sw	a4,12(sp)
8000190c:	0207c163          	bltz	a5,8000192e <_vfiprintf_r+0x1ba>
80001910:	ca3e                	sw	a5,20(sp)
80001912:	a835                	j	8000194e <_vfiprintf_r+0x1da>
80001914:	40e00733          	neg	a4,a4
80001918:	0027e793          	ori	a5,a5,2
8000191c:	ce3a                	sw	a4,28(sp)
8000191e:	c83e                	sw	a5,16(sp)
80001920:	b7e1                	j	800018e8 <_vfiprintf_r+0x174>
80001922:	036787b3          	mul	a5,a5,s6
80001926:	842e                	mv	s0,a1
80001928:	4685                	li	a3,1
8000192a:	97ba                	add	a5,a5,a4
8000192c:	bf25                	j	80001864 <_vfiprintf_r+0xf0>
8000192e:	57fd                	li	a5,-1
80001930:	b7c5                	j	80001910 <_vfiprintf_r+0x19c>
80001932:	0405                	addi	s0,s0,1
80001934:	ca02                	sw	zero,20(sp)
80001936:	4681                	li	a3,0
80001938:	4781                	li	a5,0
8000193a:	4625                	li	a2,9
8000193c:	00044703          	lbu	a4,0(s0)
80001940:	00140593          	addi	a1,s0,1
80001944:	fd070713          	addi	a4,a4,-48
80001948:	06e67463          	bgeu	a2,a4,800019b0 <_vfiprintf_r+0x23c>
8000194c:	f2f1                	bnez	a3,80001910 <_vfiprintf_r+0x19c>
8000194e:	00044583          	lbu	a1,0(s0)
80001952:	460d                	li	a2,3
80001954:	00001517          	auipc	a0,0x1
80001958:	8c450513          	addi	a0,a0,-1852 # 80002218 <__sf_fake_stdout+0x28>
8000195c:	2485                	jal	80001bbc <memchr>
8000195e:	cd11                	beqz	a0,8000197a <_vfiprintf_r+0x206>
80001960:	00001797          	auipc	a5,0x1
80001964:	8b878793          	addi	a5,a5,-1864 # 80002218 <__sf_fake_stdout+0x28>
80001968:	8d1d                	sub	a0,a0,a5
8000196a:	04000793          	li	a5,64
8000196e:	00a797b3          	sll	a5,a5,a0
80001972:	4542                	lw	a0,16(sp)
80001974:	0405                	addi	s0,s0,1
80001976:	8d5d                	or	a0,a0,a5
80001978:	c82a                	sw	a0,16(sp)
8000197a:	00044583          	lbu	a1,0(s0)
8000197e:	4619                	li	a2,6
80001980:	00001517          	auipc	a0,0x1
80001984:	89c50513          	addi	a0,a0,-1892 # 8000221c <__sf_fake_stdout+0x2c>
80001988:	00140913          	addi	s2,s0,1
8000198c:	02b10423          	sb	a1,40(sp)
80001990:	2435                	jal	80001bbc <memchr>
80001992:	c12d                	beqz	a0,800019f4 <_vfiprintf_r+0x280>
80001994:	00000793          	li	a5,0
80001998:	e795                	bnez	a5,800019c4 <_vfiprintf_r+0x250>
8000199a:	4742                	lw	a4,16(sp)
8000199c:	47b2                	lw	a5,12(sp)
8000199e:	10077713          	andi	a4,a4,256
800019a2:	cf09                	beqz	a4,800019bc <_vfiprintf_r+0x248>
800019a4:	0791                	addi	a5,a5,4
800019a6:	c63e                	sw	a5,12(sp)
800019a8:	5792                	lw	a5,36(sp)
800019aa:	97d2                	add	a5,a5,s4
800019ac:	d23e                	sw	a5,36(sp)
800019ae:	b53d                	j	800017dc <_vfiprintf_r+0x68>
800019b0:	036787b3          	mul	a5,a5,s6
800019b4:	842e                	mv	s0,a1
800019b6:	4685                	li	a3,1
800019b8:	97ba                	add	a5,a5,a4
800019ba:	b749                	j	8000193c <_vfiprintf_r+0x1c8>
800019bc:	079d                	addi	a5,a5,7
800019be:	9be1                	andi	a5,a5,-8
800019c0:	07a1                	addi	a5,a5,8
800019c2:	b7d5                	j	800019a6 <_vfiprintf_r+0x232>
800019c4:	0078                	addi	a4,sp,12
800019c6:	00000697          	auipc	a3,0x0
800019ca:	d6c68693          	addi	a3,a3,-660 # 80001732 <__sfputs_r>
800019ce:	8626                	mv	a2,s1
800019d0:	080c                	addi	a1,sp,16
800019d2:	854e                	mv	a0,s3
800019d4:	00000097          	auipc	ra,0x0
800019d8:	000000e7          	jalr	zero # 0 <__stack_size-0x800>
800019dc:	57fd                	li	a5,-1
800019de:	8a2a                	mv	s4,a0
800019e0:	fcf514e3          	bne	a0,a5,800019a8 <_vfiprintf_r+0x234>
800019e4:	00c4d783          	lhu	a5,12(s1)
800019e8:	0407f793          	andi	a5,a5,64
800019ec:	ea079ee3          	bnez	a5,800018a8 <_vfiprintf_r+0x134>
800019f0:	5512                	lw	a0,36(sp)
800019f2:	bd65                	j	800018aa <_vfiprintf_r+0x136>
800019f4:	0078                	addi	a4,sp,12
800019f6:	00000697          	auipc	a3,0x0
800019fa:	d3c68693          	addi	a3,a3,-708 # 80001732 <__sfputs_r>
800019fe:	8626                	mv	a2,s1
80001a00:	080c                	addi	a1,sp,16
80001a02:	854e                	mv	a0,s3
80001a04:	24cd                	jal	80001ce6 <_printf_i>
80001a06:	bfd9                	j	800019dc <_vfiprintf_r+0x268>

80001a08 <_sbrk_r>:
_sbrk_r():
80001a08:	1141                	addi	sp,sp,-16
80001a0a:	c422                	sw	s0,8(sp)
80001a0c:	842a                	mv	s0,a0
80001a0e:	852e                	mv	a0,a1
80001a10:	8001aa23          	sw	zero,-2028(gp) # 90000074 <errno>
80001a14:	c606                	sw	ra,12(sp)
80001a16:	f9afe0ef          	jal	ra,800001b0 <_sbrk>
80001a1a:	57fd                	li	a5,-1
80001a1c:	00f51663          	bne	a0,a5,80001a28 <_sbrk_r+0x20>
80001a20:	8141a783          	lw	a5,-2028(gp) # 90000074 <errno>
80001a24:	c391                	beqz	a5,80001a28 <_sbrk_r+0x20>
80001a26:	c01c                	sw	a5,0(s0)
80001a28:	40b2                	lw	ra,12(sp)
80001a2a:	4422                	lw	s0,8(sp)
80001a2c:	0141                	addi	sp,sp,16
80001a2e:	8082                	ret

80001a30 <__sread>:
__sread():
80001a30:	1141                	addi	sp,sp,-16
80001a32:	c422                	sw	s0,8(sp)
80001a34:	842e                	mv	s0,a1
80001a36:	00e59583          	lh	a1,14(a1)
80001a3a:	c606                	sw	ra,12(sp)
80001a3c:	2b29                	jal	80001f56 <_read_r>
80001a3e:	00054963          	bltz	a0,80001a50 <__sread+0x20>
80001a42:	487c                	lw	a5,84(s0)
80001a44:	97aa                	add	a5,a5,a0
80001a46:	c87c                	sw	a5,84(s0)
80001a48:	40b2                	lw	ra,12(sp)
80001a4a:	4422                	lw	s0,8(sp)
80001a4c:	0141                	addi	sp,sp,16
80001a4e:	8082                	ret
80001a50:	00c45783          	lhu	a5,12(s0)
80001a54:	777d                	lui	a4,0xfffff
80001a56:	177d                	addi	a4,a4,-1
80001a58:	8ff9                	and	a5,a5,a4
80001a5a:	00f41623          	sh	a5,12(s0)
80001a5e:	b7ed                	j	80001a48 <__sread+0x18>

80001a60 <__swrite>:
__swrite():
80001a60:	00c5d783          	lhu	a5,12(a1)
80001a64:	1101                	addi	sp,sp,-32
80001a66:	cc22                	sw	s0,24(sp)
80001a68:	ca26                	sw	s1,20(sp)
80001a6a:	c84a                	sw	s2,16(sp)
80001a6c:	c64e                	sw	s3,12(sp)
80001a6e:	ce06                	sw	ra,28(sp)
80001a70:	1007f793          	andi	a5,a5,256
80001a74:	84aa                	mv	s1,a0
80001a76:	842e                	mv	s0,a1
80001a78:	8932                	mv	s2,a2
80001a7a:	89b6                	mv	s3,a3
80001a7c:	c791                	beqz	a5,80001a88 <__swrite+0x28>
80001a7e:	00e59583          	lh	a1,14(a1)
80001a82:	4689                	li	a3,2
80001a84:	4601                	li	a2,0
80001a86:	2229                	jal	80001b90 <_lseek_r>
80001a88:	00c45783          	lhu	a5,12(s0)
80001a8c:	777d                	lui	a4,0xfffff
80001a8e:	177d                	addi	a4,a4,-1
80001a90:	8ff9                	and	a5,a5,a4
80001a92:	00e41583          	lh	a1,14(s0)
80001a96:	00f41623          	sh	a5,12(s0)
80001a9a:	4462                	lw	s0,24(sp)
80001a9c:	40f2                	lw	ra,28(sp)
80001a9e:	86ce                	mv	a3,s3
80001aa0:	864a                	mv	a2,s2
80001aa2:	49b2                	lw	s3,12(sp)
80001aa4:	4942                	lw	s2,16(sp)
80001aa6:	8526                	mv	a0,s1
80001aa8:	44d2                	lw	s1,20(sp)
80001aaa:	6105                	addi	sp,sp,32
80001aac:	a83d                	j	80001aea <_write_r>

80001aae <__sseek>:
__sseek():
80001aae:	1141                	addi	sp,sp,-16
80001ab0:	c422                	sw	s0,8(sp)
80001ab2:	842e                	mv	s0,a1
80001ab4:	00e59583          	lh	a1,14(a1)
80001ab8:	c606                	sw	ra,12(sp)
80001aba:	28d9                	jal	80001b90 <_lseek_r>
80001abc:	57fd                	li	a5,-1
80001abe:	00c45703          	lhu	a4,12(s0)
80001ac2:	00f51b63          	bne	a0,a5,80001ad8 <__sseek+0x2a>
80001ac6:	77fd                	lui	a5,0xfffff
80001ac8:	17fd                	addi	a5,a5,-1
80001aca:	8ff9                	and	a5,a5,a4
80001acc:	00f41623          	sh	a5,12(s0)
80001ad0:	40b2                	lw	ra,12(sp)
80001ad2:	4422                	lw	s0,8(sp)
80001ad4:	0141                	addi	sp,sp,16
80001ad6:	8082                	ret
80001ad8:	6785                	lui	a5,0x1
80001ada:	8fd9                	or	a5,a5,a4
80001adc:	00f41623          	sh	a5,12(s0)
80001ae0:	c868                	sw	a0,84(s0)
80001ae2:	b7fd                	j	80001ad0 <__sseek+0x22>

80001ae4 <__sclose>:
__sclose():
80001ae4:	00e59583          	lh	a1,14(a1)
80001ae8:	a03d                	j	80001b16 <_close_r>

80001aea <_write_r>:
_write_r():
80001aea:	1141                	addi	sp,sp,-16
80001aec:	c422                	sw	s0,8(sp)
80001aee:	842a                	mv	s0,a0
80001af0:	852e                	mv	a0,a1
80001af2:	85b2                	mv	a1,a2
80001af4:	8636                	mv	a2,a3
80001af6:	8001aa23          	sw	zero,-2028(gp) # 90000074 <errno>
80001afa:	c606                	sw	ra,12(sp)
80001afc:	ee0fe0ef          	jal	ra,800001dc <_write>
80001b00:	57fd                	li	a5,-1
80001b02:	00f51663          	bne	a0,a5,80001b0e <_write_r+0x24>
80001b06:	8141a783          	lw	a5,-2028(gp) # 90000074 <errno>
80001b0a:	c391                	beqz	a5,80001b0e <_write_r+0x24>
80001b0c:	c01c                	sw	a5,0(s0)
80001b0e:	40b2                	lw	ra,12(sp)
80001b10:	4422                	lw	s0,8(sp)
80001b12:	0141                	addi	sp,sp,16
80001b14:	8082                	ret

80001b16 <_close_r>:
_close_r():
80001b16:	1141                	addi	sp,sp,-16
80001b18:	c422                	sw	s0,8(sp)
80001b1a:	842a                	mv	s0,a0
80001b1c:	852e                	mv	a0,a1
80001b1e:	8001aa23          	sw	zero,-2028(gp) # 90000074 <errno>
80001b22:	c606                	sw	ra,12(sp)
80001b24:	e3efe0ef          	jal	ra,80000162 <_close>
80001b28:	57fd                	li	a5,-1
80001b2a:	00f51663          	bne	a0,a5,80001b36 <_close_r+0x20>
80001b2e:	8141a783          	lw	a5,-2028(gp) # 90000074 <errno>
80001b32:	c391                	beqz	a5,80001b36 <_close_r+0x20>
80001b34:	c01c                	sw	a5,0(s0)
80001b36:	40b2                	lw	ra,12(sp)
80001b38:	4422                	lw	s0,8(sp)
80001b3a:	0141                	addi	sp,sp,16
80001b3c:	8082                	ret

80001b3e <_fstat_r>:
_fstat_r():
80001b3e:	1141                	addi	sp,sp,-16
80001b40:	c422                	sw	s0,8(sp)
80001b42:	842a                	mv	s0,a0
80001b44:	852e                	mv	a0,a1
80001b46:	85b2                	mv	a1,a2
80001b48:	8001aa23          	sw	zero,-2028(gp) # 90000074 <errno>
80001b4c:	c606                	sw	ra,12(sp)
80001b4e:	e1efe0ef          	jal	ra,8000016c <_fstat>
80001b52:	57fd                	li	a5,-1
80001b54:	00f51663          	bne	a0,a5,80001b60 <_fstat_r+0x22>
80001b58:	8141a783          	lw	a5,-2028(gp) # 90000074 <errno>
80001b5c:	c391                	beqz	a5,80001b60 <_fstat_r+0x22>
80001b5e:	c01c                	sw	a5,0(s0)
80001b60:	40b2                	lw	ra,12(sp)
80001b62:	4422                	lw	s0,8(sp)
80001b64:	0141                	addi	sp,sp,16
80001b66:	8082                	ret

80001b68 <_isatty_r>:
_isatty_r():
80001b68:	1141                	addi	sp,sp,-16
80001b6a:	c422                	sw	s0,8(sp)
80001b6c:	842a                	mv	s0,a0
80001b6e:	852e                	mv	a0,a1
80001b70:	8001aa23          	sw	zero,-2028(gp) # 90000074 <errno>
80001b74:	c606                	sw	ra,12(sp)
80001b76:	e10fe0ef          	jal	ra,80000186 <_isatty>
80001b7a:	57fd                	li	a5,-1
80001b7c:	00f51663          	bne	a0,a5,80001b88 <_isatty_r+0x20>
80001b80:	8141a783          	lw	a5,-2028(gp) # 90000074 <errno>
80001b84:	c391                	beqz	a5,80001b88 <_isatty_r+0x20>
80001b86:	c01c                	sw	a5,0(s0)
80001b88:	40b2                	lw	ra,12(sp)
80001b8a:	4422                	lw	s0,8(sp)
80001b8c:	0141                	addi	sp,sp,16
80001b8e:	8082                	ret

80001b90 <_lseek_r>:
_lseek_r():
80001b90:	1141                	addi	sp,sp,-16
80001b92:	c422                	sw	s0,8(sp)
80001b94:	842a                	mv	s0,a0
80001b96:	852e                	mv	a0,a1
80001b98:	85b2                	mv	a1,a2
80001b9a:	8636                	mv	a2,a3
80001b9c:	8001aa23          	sw	zero,-2028(gp) # 90000074 <errno>
80001ba0:	c606                	sw	ra,12(sp)
80001ba2:	de8fe0ef          	jal	ra,8000018a <_lseek>
80001ba6:	57fd                	li	a5,-1
80001ba8:	00f51663          	bne	a0,a5,80001bb4 <_lseek_r+0x24>
80001bac:	8141a783          	lw	a5,-2028(gp) # 90000074 <errno>
80001bb0:	c391                	beqz	a5,80001bb4 <_lseek_r+0x24>
80001bb2:	c01c                	sw	a5,0(s0)
80001bb4:	40b2                	lw	ra,12(sp)
80001bb6:	4422                	lw	s0,8(sp)
80001bb8:	0141                	addi	sp,sp,16
80001bba:	8082                	ret

80001bbc <memchr>:
memchr():
80001bbc:	0ff5f593          	andi	a1,a1,255
80001bc0:	962a                	add	a2,a2,a0
80001bc2:	00c51463          	bne	a0,a2,80001bca <memchr+0xe>
80001bc6:	4501                	li	a0,0
80001bc8:	8082                	ret
80001bca:	00054783          	lbu	a5,0(a0)
80001bce:	feb78de3          	beq	a5,a1,80001bc8 <memchr+0xc>
80001bd2:	0505                	addi	a0,a0,1
80001bd4:	b7fd                	j	80001bc2 <memchr+0x6>

80001bd6 <__malloc_lock>:
__malloc_lock():
80001bd6:	8082                	ret

80001bd8 <__malloc_unlock>:
__malloc_unlock():
80001bd8:	8082                	ret

80001bda <_printf_common>:
_printf_common():
80001bda:	7179                	addi	sp,sp,-48
80001bdc:	cc52                	sw	s4,24(sp)
80001bde:	499c                	lw	a5,16(a1)
80001be0:	8a3a                	mv	s4,a4
80001be2:	4598                	lw	a4,8(a1)
80001be4:	d422                	sw	s0,40(sp)
80001be6:	d226                	sw	s1,36(sp)
80001be8:	ce4e                	sw	s3,28(sp)
80001bea:	ca56                	sw	s5,20(sp)
80001bec:	d606                	sw	ra,44(sp)
80001bee:	d04a                	sw	s2,32(sp)
80001bf0:	c85a                	sw	s6,16(sp)
80001bf2:	c65e                	sw	s7,12(sp)
80001bf4:	89aa                	mv	s3,a0
80001bf6:	842e                	mv	s0,a1
80001bf8:	84b2                	mv	s1,a2
80001bfa:	8ab6                	mv	s5,a3
80001bfc:	00e7d363          	bge	a5,a4,80001c02 <_printf_common+0x28>
80001c00:	87ba                	mv	a5,a4
80001c02:	c09c                	sw	a5,0(s1)
80001c04:	04344703          	lbu	a4,67(s0)
80001c08:	c319                	beqz	a4,80001c0e <_printf_common+0x34>
80001c0a:	0785                	addi	a5,a5,1
80001c0c:	c09c                	sw	a5,0(s1)
80001c0e:	401c                	lw	a5,0(s0)
80001c10:	0207f793          	andi	a5,a5,32
80001c14:	c781                	beqz	a5,80001c1c <_printf_common+0x42>
80001c16:	409c                	lw	a5,0(s1)
80001c18:	0789                	addi	a5,a5,2
80001c1a:	c09c                	sw	a5,0(s1)
80001c1c:	00042903          	lw	s2,0(s0)
80001c20:	00697913          	andi	s2,s2,6
80001c24:	00091a63          	bnez	s2,80001c38 <_printf_common+0x5e>
80001c28:	01940b13          	addi	s6,s0,25
80001c2c:	5bfd                	li	s7,-1
80001c2e:	445c                	lw	a5,12(s0)
80001c30:	4098                	lw	a4,0(s1)
80001c32:	8f99                	sub	a5,a5,a4
80001c34:	04f94c63          	blt	s2,a5,80001c8c <_printf_common+0xb2>
80001c38:	04344783          	lbu	a5,67(s0)
80001c3c:	00f036b3          	snez	a3,a5
80001c40:	401c                	lw	a5,0(s0)
80001c42:	0207f793          	andi	a5,a5,32
80001c46:	eba5                	bnez	a5,80001cb6 <_printf_common+0xdc>
80001c48:	04340613          	addi	a2,s0,67
80001c4c:	85d6                	mv	a1,s5
80001c4e:	854e                	mv	a0,s3
80001c50:	9a02                	jalr	s4
80001c52:	57fd                	li	a5,-1
80001c54:	04f50363          	beq	a0,a5,80001c9a <_printf_common+0xc0>
80001c58:	401c                	lw	a5,0(s0)
80001c5a:	4611                	li	a2,4
80001c5c:	4098                	lw	a4,0(s1)
80001c5e:	8b99                	andi	a5,a5,6
80001c60:	4454                	lw	a3,12(s0)
80001c62:	4481                	li	s1,0
80001c64:	00c79763          	bne	a5,a2,80001c72 <_printf_common+0x98>
80001c68:	40e684b3          	sub	s1,a3,a4
80001c6c:	0004d363          	bgez	s1,80001c72 <_printf_common+0x98>
80001c70:	4481                	li	s1,0
80001c72:	441c                	lw	a5,8(s0)
80001c74:	4818                	lw	a4,16(s0)
80001c76:	00f75463          	bge	a4,a5,80001c7e <_printf_common+0xa4>
80001c7a:	8f99                	sub	a5,a5,a4
80001c7c:	94be                	add	s1,s1,a5
80001c7e:	4901                	li	s2,0
80001c80:	0469                	addi	s0,s0,26
80001c82:	5b7d                	li	s6,-1
80001c84:	05249863          	bne	s1,s2,80001cd4 <_printf_common+0xfa>
80001c88:	4501                	li	a0,0
80001c8a:	a809                	j	80001c9c <_printf_common+0xc2>
80001c8c:	4685                	li	a3,1
80001c8e:	865a                	mv	a2,s6
80001c90:	85d6                	mv	a1,s5
80001c92:	854e                	mv	a0,s3
80001c94:	9a02                	jalr	s4
80001c96:	01751e63          	bne	a0,s7,80001cb2 <_printf_common+0xd8>
80001c9a:	557d                	li	a0,-1
80001c9c:	50b2                	lw	ra,44(sp)
80001c9e:	5422                	lw	s0,40(sp)
80001ca0:	5492                	lw	s1,36(sp)
80001ca2:	5902                	lw	s2,32(sp)
80001ca4:	49f2                	lw	s3,28(sp)
80001ca6:	4a62                	lw	s4,24(sp)
80001ca8:	4ad2                	lw	s5,20(sp)
80001caa:	4b42                	lw	s6,16(sp)
80001cac:	4bb2                	lw	s7,12(sp)
80001cae:	6145                	addi	sp,sp,48
80001cb0:	8082                	ret
80001cb2:	0905                	addi	s2,s2,1
80001cb4:	bfad                	j	80001c2e <_printf_common+0x54>
80001cb6:	00d40733          	add	a4,s0,a3
80001cba:	03000613          	li	a2,48
80001cbe:	04c701a3          	sb	a2,67(a4) # fffff043 <_sp+0x6ffef043>
80001cc2:	04544703          	lbu	a4,69(s0)
80001cc6:	00168793          	addi	a5,a3,1
80001cca:	97a2                	add	a5,a5,s0
80001ccc:	0689                	addi	a3,a3,2
80001cce:	04e781a3          	sb	a4,67(a5) # 1043 <__stack_size+0x843>
80001cd2:	bf9d                	j	80001c48 <_printf_common+0x6e>
80001cd4:	4685                	li	a3,1
80001cd6:	8622                	mv	a2,s0
80001cd8:	85d6                	mv	a1,s5
80001cda:	854e                	mv	a0,s3
80001cdc:	9a02                	jalr	s4
80001cde:	fb650ee3          	beq	a0,s6,80001c9a <_printf_common+0xc0>
80001ce2:	0905                	addi	s2,s2,1
80001ce4:	b745                	j	80001c84 <_printf_common+0xaa>

80001ce6 <_printf_i>:
_printf_i():
80001ce6:	7179                	addi	sp,sp,-48
80001ce8:	d422                	sw	s0,40(sp)
80001cea:	d226                	sw	s1,36(sp)
80001cec:	d04a                	sw	s2,32(sp)
80001cee:	ce4e                	sw	s3,28(sp)
80001cf0:	d606                	sw	ra,44(sp)
80001cf2:	cc52                	sw	s4,24(sp)
80001cf4:	ca56                	sw	s5,20(sp)
80001cf6:	c85a                	sw	s6,16(sp)
80001cf8:	0185c803          	lbu	a6,24(a1)
80001cfc:	07800793          	li	a5,120
80001d00:	84aa                	mv	s1,a0
80001d02:	842e                	mv	s0,a1
80001d04:	8932                	mv	s2,a2
80001d06:	89b6                	mv	s3,a3
80001d08:	0107ee63          	bltu	a5,a6,80001d24 <_printf_i+0x3e>
80001d0c:	06200793          	li	a5,98
80001d10:	04358693          	addi	a3,a1,67
80001d14:	0107ed63          	bltu	a5,a6,80001d2e <_printf_i+0x48>
80001d18:	1c080563          	beqz	a6,80001ee2 <_printf_i+0x1fc>
80001d1c:	05800793          	li	a5,88
80001d20:	12f80a63          	beq	a6,a5,80001e54 <_printf_i+0x16e>
80001d24:	04240a93          	addi	s5,s0,66
80001d28:	05040123          	sb	a6,66(s0)
80001d2c:	a815                	j	80001d60 <_printf_i+0x7a>
80001d2e:	f9d80793          	addi	a5,a6,-99
80001d32:	0ff7f793          	andi	a5,a5,255
80001d36:	4655                	li	a2,21
80001d38:	fef666e3          	bltu	a2,a5,80001d24 <_printf_i+0x3e>
80001d3c:	00000617          	auipc	a2,0x0
80001d40:	51060613          	addi	a2,a2,1296 # 8000224c <__sf_fake_stdout+0x5c>
80001d44:	078a                	slli	a5,a5,0x2
80001d46:	97b2                	add	a5,a5,a2
80001d48:	439c                	lw	a5,0(a5)
80001d4a:	97b2                	add	a5,a5,a2
80001d4c:	8782                	jr	a5
80001d4e:	431c                	lw	a5,0(a4)
80001d50:	04258a93          	addi	s5,a1,66
80001d54:	00478693          	addi	a3,a5,4
80001d58:	439c                	lw	a5,0(a5)
80001d5a:	c314                	sw	a3,0(a4)
80001d5c:	04f58123          	sb	a5,66(a1)
80001d60:	4785                	li	a5,1
80001d62:	a25d                	j	80001f08 <_printf_i+0x222>
80001d64:	419c                	lw	a5,0(a1)
80001d66:	4308                	lw	a0,0(a4)
80001d68:	0807f613          	andi	a2,a5,128
80001d6c:	00450593          	addi	a1,a0,4
80001d70:	c20d                	beqz	a2,80001d92 <_printf_i+0xac>
80001d72:	411c                	lw	a5,0(a0)
80001d74:	c30c                	sw	a1,0(a4)
80001d76:	0007d863          	bgez	a5,80001d86 <_printf_i+0xa0>
80001d7a:	02d00713          	li	a4,45
80001d7e:	40f007b3          	neg	a5,a5
80001d82:	04e401a3          	sb	a4,67(s0)
80001d86:	00000617          	auipc	a2,0x0
80001d8a:	49e60613          	addi	a2,a2,1182 # 80002224 <__sf_fake_stdout+0x34>
80001d8e:	4829                	li	a6,10
80001d90:	a0a1                	j	80001dd8 <_printf_i+0xf2>
80001d92:	0407f613          	andi	a2,a5,64
80001d96:	411c                	lw	a5,0(a0)
80001d98:	c30c                	sw	a1,0(a4)
80001d9a:	de71                	beqz	a2,80001d76 <_printf_i+0x90>
80001d9c:	07c2                	slli	a5,a5,0x10
80001d9e:	87c1                	srai	a5,a5,0x10
80001da0:	bfd9                	j	80001d76 <_printf_i+0x90>
80001da2:	4190                	lw	a2,0(a1)
80001da4:	431c                	lw	a5,0(a4)
80001da6:	08067513          	andi	a0,a2,128
80001daa:	00478593          	addi	a1,a5,4
80001dae:	c501                	beqz	a0,80001db6 <_printf_i+0xd0>
80001db0:	c30c                	sw	a1,0(a4)
80001db2:	439c                	lw	a5,0(a5)
80001db4:	a039                	j	80001dc2 <_printf_i+0xdc>
80001db6:	04067613          	andi	a2,a2,64
80001dba:	c30c                	sw	a1,0(a4)
80001dbc:	da7d                	beqz	a2,80001db2 <_printf_i+0xcc>
80001dbe:	0007d783          	lhu	a5,0(a5)
80001dc2:	06f00713          	li	a4,111
80001dc6:	00000617          	auipc	a2,0x0
80001dca:	45e60613          	addi	a2,a2,1118 # 80002224 <__sf_fake_stdout+0x34>
80001dce:	0ee80463          	beq	a6,a4,80001eb6 <_printf_i+0x1d0>
80001dd2:	4829                	li	a6,10
80001dd4:	040401a3          	sb	zero,67(s0)
80001dd8:	4058                	lw	a4,4(s0)
80001dda:	c418                	sw	a4,8(s0)
80001ddc:	00074563          	bltz	a4,80001de6 <_printf_i+0x100>
80001de0:	400c                	lw	a1,0(s0)
80001de2:	99ed                	andi	a1,a1,-5
80001de4:	c00c                	sw	a1,0(s0)
80001de6:	e399                	bnez	a5,80001dec <_printf_i+0x106>
80001de8:	8ab6                	mv	s5,a3
80001dea:	cf19                	beqz	a4,80001e08 <_printf_i+0x122>
80001dec:	8ab6                	mv	s5,a3
80001dee:	0307f733          	remu	a4,a5,a6
80001df2:	1afd                	addi	s5,s5,-1
80001df4:	9732                	add	a4,a4,a2
80001df6:	00074703          	lbu	a4,0(a4)
80001dfa:	00ea8023          	sb	a4,0(s5)
80001dfe:	873e                	mv	a4,a5
80001e00:	0307d7b3          	divu	a5,a5,a6
80001e04:	ff0775e3          	bgeu	a4,a6,80001dee <_printf_i+0x108>
80001e08:	47a1                	li	a5,8
80001e0a:	00f81e63          	bne	a6,a5,80001e26 <_printf_i+0x140>
80001e0e:	401c                	lw	a5,0(s0)
80001e10:	8b85                	andi	a5,a5,1
80001e12:	cb91                	beqz	a5,80001e26 <_printf_i+0x140>
80001e14:	4058                	lw	a4,4(s0)
80001e16:	481c                	lw	a5,16(s0)
80001e18:	00e7c763          	blt	a5,a4,80001e26 <_printf_i+0x140>
80001e1c:	03000793          	li	a5,48
80001e20:	fefa8fa3          	sb	a5,-1(s5)
80001e24:	1afd                	addi	s5,s5,-1
80001e26:	415686b3          	sub	a3,a3,s5
80001e2a:	c814                	sw	a3,16(s0)
80001e2c:	874e                	mv	a4,s3
80001e2e:	86ca                	mv	a3,s2
80001e30:	0070                	addi	a2,sp,12
80001e32:	85a2                	mv	a1,s0
80001e34:	8526                	mv	a0,s1
80001e36:	3355                	jal	80001bda <_printf_common>
80001e38:	5a7d                	li	s4,-1
80001e3a:	0d451b63          	bne	a0,s4,80001f10 <_printf_i+0x22a>
80001e3e:	557d                	li	a0,-1
80001e40:	50b2                	lw	ra,44(sp)
80001e42:	5422                	lw	s0,40(sp)
80001e44:	5492                	lw	s1,36(sp)
80001e46:	5902                	lw	s2,32(sp)
80001e48:	49f2                	lw	s3,28(sp)
80001e4a:	4a62                	lw	s4,24(sp)
80001e4c:	4ad2                	lw	s5,20(sp)
80001e4e:	4b42                	lw	s6,16(sp)
80001e50:	6145                	addi	sp,sp,48
80001e52:	8082                	ret
80001e54:	050582a3          	sb	a6,69(a1)
80001e58:	00000617          	auipc	a2,0x0
80001e5c:	3cc60613          	addi	a2,a2,972 # 80002224 <__sf_fake_stdout+0x34>
80001e60:	400c                	lw	a1,0(s0)
80001e62:	4308                	lw	a0,0(a4)
80001e64:	0805f813          	andi	a6,a1,128
80001e68:	411c                	lw	a5,0(a0)
80001e6a:	0511                	addi	a0,a0,4
80001e6c:	02080d63          	beqz	a6,80001ea6 <_printf_i+0x1c0>
80001e70:	c308                	sw	a0,0(a4)
80001e72:	0015f713          	andi	a4,a1,1
80001e76:	c701                	beqz	a4,80001e7e <_printf_i+0x198>
80001e78:	0205e593          	ori	a1,a1,32
80001e7c:	c00c                	sw	a1,0(s0)
80001e7e:	4841                	li	a6,16
80001e80:	fbb1                	bnez	a5,80001dd4 <_printf_i+0xee>
80001e82:	4018                	lw	a4,0(s0)
80001e84:	fdf77713          	andi	a4,a4,-33
80001e88:	c018                	sw	a4,0(s0)
80001e8a:	b7a9                	j	80001dd4 <_printf_i+0xee>
80001e8c:	419c                	lw	a5,0(a1)
80001e8e:	0207e793          	ori	a5,a5,32
80001e92:	c19c                	sw	a5,0(a1)
80001e94:	07800793          	li	a5,120
80001e98:	04f402a3          	sb	a5,69(s0)
80001e9c:	00000617          	auipc	a2,0x0
80001ea0:	39c60613          	addi	a2,a2,924 # 80002238 <__sf_fake_stdout+0x48>
80001ea4:	bf75                	j	80001e60 <_printf_i+0x17a>
80001ea6:	0405f813          	andi	a6,a1,64
80001eaa:	c308                	sw	a0,0(a4)
80001eac:	fc0803e3          	beqz	a6,80001e72 <_printf_i+0x18c>
80001eb0:	07c2                	slli	a5,a5,0x10
80001eb2:	83c1                	srli	a5,a5,0x10
80001eb4:	bf7d                	j	80001e72 <_printf_i+0x18c>
80001eb6:	4821                	li	a6,8
80001eb8:	bf31                	j	80001dd4 <_printf_i+0xee>
80001eba:	4190                	lw	a2,0(a1)
80001ebc:	431c                	lw	a5,0(a4)
80001ebe:	49cc                	lw	a1,20(a1)
80001ec0:	08067813          	andi	a6,a2,128
80001ec4:	00478513          	addi	a0,a5,4
80001ec8:	00080663          	beqz	a6,80001ed4 <_printf_i+0x1ee>
80001ecc:	c308                	sw	a0,0(a4)
80001ece:	439c                	lw	a5,0(a5)
80001ed0:	c38c                	sw	a1,0(a5)
80001ed2:	a801                	j	80001ee2 <_printf_i+0x1fc>
80001ed4:	c308                	sw	a0,0(a4)
80001ed6:	04067613          	andi	a2,a2,64
80001eda:	439c                	lw	a5,0(a5)
80001edc:	da75                	beqz	a2,80001ed0 <_printf_i+0x1ea>
80001ede:	00b79023          	sh	a1,0(a5)
80001ee2:	00042823          	sw	zero,16(s0)
80001ee6:	8ab6                	mv	s5,a3
80001ee8:	b791                	j	80001e2c <_printf_i+0x146>
80001eea:	431c                	lw	a5,0(a4)
80001eec:	41d0                	lw	a2,4(a1)
80001eee:	4581                	li	a1,0
80001ef0:	00478693          	addi	a3,a5,4
80001ef4:	c314                	sw	a3,0(a4)
80001ef6:	0007aa83          	lw	s5,0(a5)
80001efa:	8556                	mv	a0,s5
80001efc:	31c1                	jal	80001bbc <memchr>
80001efe:	c501                	beqz	a0,80001f06 <_printf_i+0x220>
80001f00:	41550533          	sub	a0,a0,s5
80001f04:	c048                	sw	a0,4(s0)
80001f06:	405c                	lw	a5,4(s0)
80001f08:	c81c                	sw	a5,16(s0)
80001f0a:	040401a3          	sb	zero,67(s0)
80001f0e:	bf39                	j	80001e2c <_printf_i+0x146>
80001f10:	4814                	lw	a3,16(s0)
80001f12:	8656                	mv	a2,s5
80001f14:	85ca                	mv	a1,s2
80001f16:	8526                	mv	a0,s1
80001f18:	9982                	jalr	s3
80001f1a:	f34502e3          	beq	a0,s4,80001e3e <_printf_i+0x158>
80001f1e:	401c                	lw	a5,0(s0)
80001f20:	8b89                	andi	a5,a5,2
80001f22:	e78d                	bnez	a5,80001f4c <_printf_i+0x266>
80001f24:	47b2                	lw	a5,12(sp)
80001f26:	4448                	lw	a0,12(s0)
80001f28:	f0f55ce3          	bge	a0,a5,80001e40 <_printf_i+0x15a>
80001f2c:	853e                	mv	a0,a5
80001f2e:	bf09                	j	80001e40 <_printf_i+0x15a>
80001f30:	4685                	li	a3,1
80001f32:	8656                	mv	a2,s5
80001f34:	85ca                	mv	a1,s2
80001f36:	8526                	mv	a0,s1
80001f38:	9982                	jalr	s3
80001f3a:	f16502e3          	beq	a0,s6,80001e3e <_printf_i+0x158>
80001f3e:	0a05                	addi	s4,s4,1
80001f40:	445c                	lw	a5,12(s0)
80001f42:	4732                	lw	a4,12(sp)
80001f44:	8f99                	sub	a5,a5,a4
80001f46:	fefa45e3          	blt	s4,a5,80001f30 <_printf_i+0x24a>
80001f4a:	bfe9                	j	80001f24 <_printf_i+0x23e>
80001f4c:	4a01                	li	s4,0
80001f4e:	01940a93          	addi	s5,s0,25
80001f52:	5b7d                	li	s6,-1
80001f54:	b7f5                	j	80001f40 <_printf_i+0x25a>

80001f56 <_read_r>:
_read_r():
80001f56:	1141                	addi	sp,sp,-16
80001f58:	c422                	sw	s0,8(sp)
80001f5a:	842a                	mv	s0,a0
80001f5c:	852e                	mv	a0,a1
80001f5e:	85b2                	mv	a1,a2
80001f60:	8636                	mv	a2,a3
80001f62:	8001aa23          	sw	zero,-2028(gp) # 90000074 <errno>
80001f66:	c606                	sw	ra,12(sp)
80001f68:	a26fe0ef          	jal	ra,8000018e <_read>
80001f6c:	57fd                	li	a5,-1
80001f6e:	00f51663          	bne	a0,a5,80001f7a <_read_r+0x24>
80001f72:	8141a783          	lw	a5,-2028(gp) # 90000074 <errno>
80001f76:	c391                	beqz	a5,80001f7a <_read_r+0x24>
80001f78:	c01c                	sw	a5,0(s0)
80001f7a:	40b2                	lw	ra,12(sp)
80001f7c:	4422                	lw	s0,8(sp)
80001f7e:	0141                	addi	sp,sp,16
80001f80:	8082                	ret
