
dhrystone.elf:     file format elf32-littleriscv
dhrystone.elf
architecture: riscv:rv32, flags 0x00000112:
EXEC_P, HAS_SYMS, D_PAGED
start address 0x80000000

Program Header:
    LOAD off    0x00001000 vaddr 0x80000000 paddr 0x80000000 align 2**12
         filesz 0x00007558 memsz 0x00007558 flags rwx
    LOAD off    0x00009000 vaddr 0x90000000 paddr 0x80007558 align 2**12
         filesz 0x00000240 memsz 0x00000240 flags rw-
    LOAD off    0x00000240 vaddr 0x90000240 paddr 0x90000240 align 2**12
         filesz 0x00000000 memsz 0x00002940 flags rw-
    LOAD off    0x00000800 vaddr 0x9000f800 paddr 0x90002b80 align 2**12
         filesz 0x00000000 memsz 0x00000800 flags rw-

Sections:
Idx Name              Size      VMA       LMA       File off  Algn  Flags
  0 .init             000000be  80000000  80000000  00001000  2**0  CONTENTS, ALLOC, LOAD, READONLY, CODE
  1 .ilalign          00000002  800000be  800000be  000010be  2**0  ALLOC
  2 .text             000067c0  800000c0  800000c0  000010c0  2**2  CONTENTS, ALLOC, LOAD, READONLY, CODE
  3 .rodata           00000cd8  80006880  80006880  00007880  2**3  CONTENTS, ALLOC, LOAD, READONLY, DATA
  4 .lalign           00000000  80007558  80007558  00009240  2**0  CONTENTS
  5 .dalign           00000000  90000000  90000000  00009240  2**0  CONTENTS
  6 .data             00000240  90000000  80007558  00009000  2**3  CONTENTS, ALLOC, LOAD, DATA
  7 .bss              00002940  90000240  90000240  00009240  2**2  ALLOC
  8 .stack            00000800  9000f800  90002b80  00009800  2**0  ALLOC
  9 .debug_info       00008011  00000000  00000000  00009240  2**0  CONTENTS, READONLY, DEBUGGING, OCTETS
 10 .debug_abbrev     00002747  00000000  00000000  00011251  2**0  CONTENTS, READONLY, DEBUGGING, OCTETS
 11 .debug_loc        00007fa4  00000000  00000000  00013998  2**0  CONTENTS, READONLY, DEBUGGING, OCTETS
 12 .debug_aranges    000003d8  00000000  00000000  0001b940  2**3  CONTENTS, READONLY, DEBUGGING, OCTETS
 13 .debug_ranges     00001210  00000000  00000000  0001bd18  2**0  CONTENTS, READONLY, DEBUGGING, OCTETS
 14 .debug_line       0000b8eb  00000000  00000000  0001cf28  2**0  CONTENTS, READONLY, DEBUGGING, OCTETS
 15 .debug_str        0000252a  00000000  00000000  00028813  2**0  CONTENTS, READONLY, DEBUGGING, OCTETS
 16 .comment          00000012  00000000  00000000  0002ad3d  2**0  CONTENTS, READONLY
 17 .riscv.attributes 0000002f  00000000  00000000  0002ad4f  2**0  CONTENTS, READONLY
 18 .debug_frame      00000774  00000000  00000000  0002ad80  2**2  CONTENTS, READONLY, DEBUGGING, OCTETS
SYMBOL TABLE:
80000000 l    d  .init	00000000 .init
800000be l    d  .ilalign	00000000 .ilalign
800000c0 l    d  .text	00000000 .text
80006880 l    d  .rodata	00000000 .rodata
80007558 l    d  .lalign	00000000 .lalign
90000000 l    d  .dalign	00000000 .dalign
90000000 l    d  .data	00000000 .data
90000240 l    d  .bss	00000000 .bss
9000f800 l    d  .stack	00000000 .stack
00000000 l    d  .debug_info	00000000 .debug_info
00000000 l    d  .debug_abbrev	00000000 .debug_abbrev
00000000 l    d  .debug_loc	00000000 .debug_loc
00000000 l    d  .debug_aranges	00000000 .debug_aranges
00000000 l    d  .debug_ranges	00000000 .debug_ranges
00000000 l    d  .debug_line	00000000 .debug_line
00000000 l    d  .debug_str	00000000 .debug_str
00000000 l    d  .comment	00000000 .comment
00000000 l    d  .riscv.attributes	00000000 .riscv.attributes
00000000 l    d  .debug_frame	00000000 .debug_frame
00000000 l    df *ABS*	00000000 
800007dc l     F .text	00000074 measure_cpu_freq
80000854 l     F .text	00000012 get_cpu_freq
80000868 l     F .text	0000003e Exception_Init
80000c74 l     F .text	00000044 system_default_exception_handler
800008a8 l     F .text	00000086 Interrupt_Init
80000cbc l     F .text	00000048 system_default_interrupt_handler
80000930 l     F .text	00000042 core_exception_handler
80000974 l     F .text	00000010 Func_1
80000984 l     F .text	00000008 Func_3
80000990 l     F .text	0000002a csr_cycle
800009bc l     F .text	0000002a csr_instret
800009e8 l     F .text	0000001a time
80000a04 l     F .text	00000060 Proc_8.constprop.0.isra.0
9000034c l     O .bss	00002710 Arr_2_Glob
80000a68 l     F .text	00000076 Proc_6.isra.0
80000ae0 l     F .text	0000000c Proc_7.isra.0
80000af0 l     F .text	0000000e Proc_5.isra.0
80000b00 l     F .text	00000026 Proc_4.isra.0
80000b28 l     F .text	00000018 Proc_3.isra.0
80000b40 l     F .text	0000010a Proc_1.isra.0
80000c4c l     F .text	00000024 Proc_2.isra.0
80000d08 l     F .text	0000004c SystemBannerPrint
80000d58 l     F .text	00000040 Func_2
80000d98 l     F .text	00000016 uart_read.constprop.0
80000db0 l     F .text	00000012 uart_write.constprop.0.isra.0
80000dc4 l     F .text	00000014 gpio_iof_config.constprop.0.isra.0
80000ddc l     F .text	00000044 uart_init.constprop.0.isra.0
90000284 l     O .bss	000000c8 Arr_1_Glob
90002a5c l     O .bss	00000028 SystemCoreInterruptHandlers
90002a84 l     O .bss	0000002c SystemExceptionHandlers
90002ab0 l     O .bss	00000044 SystemExtInterruptHandlers
90000240 l     O .bss	00000004 Begin_Cycle
90000244 l     O .bss	00000004 Begin_Instret
90000248 l     O .bss	00000004 Begin_Time
9000024c l     O .bss	00000004 Bool_Glob
90000250 l     O .bss	00000001 Ch_1_Glob
90000251 l     O .bss	00000001 Ch_2_Glob
90000254 l     O .bss	00000004 DMIPS_MHZ
90000258 l     O .bss	00000004 End_Cycle
9000025c l     O .bss	00000004 End_Instret
90000260 l     O .bss	00000004 End_Time
90000264 l     O .bss	00000004 Int_Glob
90000268 l     O .bss	00000004 Next_Ptr_Glob
9000026c l     O .bss	00000004 Ptr_Glob
90000270 l     O .bss	00000004 User_Cycle
900001d0 l     O .data	00000004 SystemCoreClock
900001d4 l     O .data	00000004 curbrk.0
00000000 l    df *ABS*	00000000 atexit.c
00000000 l    df *ABS*	00000000 fini.c
00000000 l    df *ABS*	00000000 init.c
00000000 l    df *ABS*	00000000 nano-vfprintf_float.c
00000000 l    df *ABS*	00000000 nano-vfprintf_i.c
00000000 l    df *ABS*	00000000 printf.c
00000000 l    df *ABS*	00000000 strlen.c
00000000 l    df *ABS*	00000000 sysisatty.c
00000000 l    df *ABS*	00000000 __atexit.c
90002af4 l     O .bss	0000008c _global_atexit0
00000000 l    df *ABS*	00000000 dtoa.c
80001f74 l     F .text	0000012c quorem
00000000 l    df *ABS*	00000000 findfp.c
80002cd0 l     F .text	00000068 std
00000000 l    df *ABS*	00000000 fwalk.c
00000000 l    df *ABS*	00000000 localeconv.c
00000000 l    df *ABS*	00000000 malloc.c
00000000 l    df *ABS*	00000000 mbtowc_r.c
00000000 l    df *ABS*	00000000 memchr.c
00000000 l    df *ABS*	00000000 memcpy.c
00000000 l    df *ABS*	00000000 mprec.c
80007240 l     O .rodata	0000000c p05.0
00000000 l    df *ABS*	00000000 nano-mallocr.c
00000000 l    df *ABS*	00000000 nano-mallocr.c
00000000 l    df *ABS*	00000000 nano-mallocr.c
00000000 l    df *ABS*	00000000 nano-vfprintf.c
80003aa8 l     F .text	00000028 __sfputc_r
00000000 l    df *ABS*	00000000 sbrkr.c
00000000 l    df *ABS*	00000000 stdio.c
00000000 l    df *ABS*	00000000 wbuf.c
00000000 l    df *ABS*	00000000 wctomb_r.c
00000000 l    df *ABS*	00000000 writer.c
00000000 l    df *ABS*	00000000 wsetup.c
00000000 l    df *ABS*	00000000 assert.c
00000000 l    df *ABS*	00000000 closer.c
00000000 l    df *ABS*	00000000 fflush.c
00000000 l    df *ABS*	00000000 fprintf.c
00000000 l    df *ABS*	00000000 lseekr.c
00000000 l    df *ABS*	00000000 makebuf.c
00000000 l    df *ABS*	00000000 mlock.c
00000000 l    df *ABS*	00000000 readr.c
00000000 l    df *ABS*	00000000 abort.c
00000000 l    df *ABS*	00000000 fstatr.c
00000000 l    df *ABS*	00000000 isattyr.c
00000000 l    df *ABS*	00000000 signal.c
00000000 l    df *ABS*	00000000 signalr.c
00000000 l    df *ABS*	00000000 adddf3.c
00000000 l    df *ABS*	00000000 divdf3.c
00000000 l    df *ABS*	00000000 eqdf2.c
00000000 l    df *ABS*	00000000 gedf2.c
00000000 l    df *ABS*	00000000 ledf2.c
00000000 l    df *ABS*	00000000 muldf3.c
00000000 l    df *ABS*	00000000 subdf3.c
00000000 l    df *ABS*	00000000 unorddf2.c
00000000 l    df *ABS*	00000000 fixdfsi.c
00000000 l    df *ABS*	00000000 floatsidf.c
00000000 l    df *ABS*	00000000 floatunsidf.c
00000000 l    df *ABS*	00000000 trunctfdf2.c
00000000 l    df *ABS*	00000000 libgcc2.c
00000000 l    df *ABS*	00000000 libgcc2.c
00000000 l    df *ABS*	00000000 divsf3.c
00000000 l    df *ABS*	00000000 floatsisf.c
00000000 l    df *ABS*	00000000 extendsfdf2.c
00000000 l    df *ABS*	00000000 locale.c
00000000 l    df *ABS*	00000000 ctype_.c
00000000 l    df *ABS*	00000000 libgcc2.c
00000000 l    df *ABS*	00000000 impure.c
90000000 l     O .data	00000060 impure_data
00000000 l    df *ABS*	00000000 
00001766 l       .debug_info	00000000 
00001766 l       .debug_info	00000000 
00001766 l       .debug_info	00000000 
00001766 l       .debug_info	00000000 
00001766 l       .debug_info	00000000 
00001766 l       .debug_info	00000000 
00001766 l       .debug_info	00000000 
00001766 l       .debug_info	00000000 
00001766 l       .debug_info	00000000 
00001766 l       .debug_info	00000000 
00001766 l       .debug_info	00000000 
00001766 l       .debug_info	00000000 
00001766 l       .debug_info	00000000 
00001766 l       .debug_info	00000000 
00001766 l       .debug_info	00000000 
00001766 l       .debug_info	00000000 
00001766 l       .debug_info	00000000 
00001766 l       .debug_info	00000000 
00000000 l    df *ABS*	00000000 
000017fc l       .debug_info	00000000 
000017fc l       .debug_info	00000000 
000017fc l       .debug_info	00000000 
000017fc l       .debug_info	00000000 
000017fc l       .debug_info	00000000 
000017fc l       .debug_info	00000000 
000017fc l       .debug_info	00000000 
000017fc l       .debug_info	00000000 
000017fc l       .debug_info	00000000 
000017fc l       .debug_info	00000000 
000017fc l       .debug_info	00000000 
000017fc l       .debug_info	00000000 
000017fc l       .debug_info	00000000 
000017fc l       .debug_info	00000000 
000017fc l       .debug_info	00000000 
000017fc l       .debug_info	00000000 
000017fc l       .debug_info	00000000 
000017fc l       .debug_info	00000000 
00000000 l    df *ABS*	00000000 
00001888 l       .debug_info	00000000 
00001888 l       .debug_info	00000000 
00001888 l       .debug_info	00000000 
00001888 l       .debug_info	00000000 
00001888 l       .debug_info	00000000 
00001888 l       .debug_info	00000000 
00001888 l       .debug_info	00000000 
00001888 l       .debug_info	00000000 
00001888 l       .debug_info	00000000 
00001888 l       .debug_info	00000000 
00001888 l       .debug_info	00000000 
00001888 l       .debug_info	00000000 
00001888 l       .debug_info	00000000 
00001888 l       .debug_info	00000000 
00001888 l       .debug_info	00000000 
00001888 l       .debug_info	00000000 
00001888 l       .debug_info	00000000 
00001888 l       .debug_info	00000000 
00000000 l    df *ABS*	00000000 
00001b38 l       .debug_info	00000000 
00001b38 l       .debug_info	00000000 
00001b38 l       .debug_info	00000000 
00001b38 l       .debug_info	00000000 
00001b38 l       .debug_info	00000000 
00001b38 l       .debug_info	00000000 
00001b38 l       .debug_info	00000000 
00001b38 l       .debug_info	00000000 
00001b38 l       .debug_info	00000000 
00001b38 l       .debug_info	00000000 
00001b38 l       .debug_info	00000000 
00001b38 l       .debug_info	00000000 
00001b38 l       .debug_info	00000000 
00001b38 l       .debug_info	00000000 
00001b38 l       .debug_info	00000000 
00001b38 l       .debug_info	00000000 
00001b38 l       .debug_info	00000000 
00001b38 l       .debug_info	00000000 
00000000 l    df *ABS*	00000000 
00001bb6 l       .debug_info	00000000 
00001bb6 l       .debug_info	00000000 
00001bb6 l       .debug_info	00000000 
00001bb6 l       .debug_info	00000000 
00001bb6 l       .debug_info	00000000 
00001bb6 l       .debug_info	00000000 
00001bb6 l       .debug_info	00000000 
00001bb6 l       .debug_info	00000000 
00001bb6 l       .debug_info	00000000 
00001bb6 l       .debug_info	00000000 
00001bb6 l       .debug_info	00000000 
00001bb6 l       .debug_info	00000000 
00001bb6 l       .debug_info	00000000 
00001bb6 l       .debug_info	00000000 
00001bb6 l       .debug_info	00000000 
00001bb6 l       .debug_info	00000000 
00001bb6 l       .debug_info	00000000 
00001bb6 l       .debug_info	00000000 
00000000 l    df *ABS*	00000000 
00001c40 l       .debug_info	00000000 
00001c40 l       .debug_info	00000000 
00001c40 l       .debug_info	00000000 
00001c40 l       .debug_info	00000000 
00001c40 l       .debug_info	00000000 
00001c40 l       .debug_info	00000000 
00001c40 l       .debug_info	00000000 
00001c40 l       .debug_info	00000000 
00001c40 l       .debug_info	00000000 
00001c40 l       .debug_info	00000000 
00001c40 l       .debug_info	00000000 
00001c40 l       .debug_info	00000000 
00001c40 l       .debug_info	00000000 
00001c40 l       .debug_info	00000000 
00001c40 l       .debug_info	00000000 
00001c40 l       .debug_info	00000000 
00001c40 l       .debug_info	00000000 
00001c40 l       .debug_info	00000000 
00000000 l    df *ABS*	00000000 
00001ce3 l       .debug_info	00000000 
00001ce3 l       .debug_info	00000000 
00001ce3 l       .debug_info	00000000 
00001ce3 l       .debug_info	00000000 
00001ce3 l       .debug_info	00000000 
00001ce3 l       .debug_info	00000000 
00001ce3 l       .debug_info	00000000 
00001ce3 l       .debug_info	00000000 
00001ce3 l       .debug_info	00000000 
00001ce3 l       .debug_info	00000000 
00001ce3 l       .debug_info	00000000 
00001ce3 l       .debug_info	00000000 
00001ce3 l       .debug_info	00000000 
00001ce3 l       .debug_info	00000000 
00001ce3 l       .debug_info	00000000 
00001ce3 l       .debug_info	00000000 
00001ce3 l       .debug_info	00000000 
00001ce3 l       .debug_info	00000000 
00000000 l    df *ABS*	00000000 
00001d86 l       .debug_info	00000000 
00001d86 l       .debug_info	00000000 
00001d86 l       .debug_info	00000000 
00001d86 l       .debug_info	00000000 
00001d86 l       .debug_info	00000000 
00001d86 l       .debug_info	00000000 
00001d86 l       .debug_info	00000000 
00001d86 l       .debug_info	00000000 
00001d86 l       .debug_info	00000000 
00001d86 l       .debug_info	00000000 
00001d86 l       .debug_info	00000000 
00001d86 l       .debug_info	00000000 
00001d86 l       .debug_info	00000000 
00001d86 l       .debug_info	00000000 
00001d86 l       .debug_info	00000000 
00001d86 l       .debug_info	00000000 
00001d86 l       .debug_info	00000000 
00001d86 l       .debug_info	00000000 
00000000 l    df *ABS*	00000000 
00001f85 l       .debug_info	00000000 
00001f85 l       .debug_info	00000000 
00001f85 l       .debug_info	00000000 
00001f85 l       .debug_info	00000000 
00001f85 l       .debug_info	00000000 
00001f85 l       .debug_info	00000000 
00001f85 l       .debug_info	00000000 
00001f85 l       .debug_info	00000000 
00001f85 l       .debug_info	00000000 
00001f85 l       .debug_info	00000000 
00001f85 l       .debug_info	00000000 
00001f85 l       .debug_info	00000000 
00001f85 l       .debug_info	00000000 
00001f85 l       .debug_info	00000000 
00001f85 l       .debug_info	00000000 
00001f85 l       .debug_info	00000000 
00001f85 l       .debug_info	00000000 
00001f85 l       .debug_info	00000000 
00001f85 l       .debug_info	00000000 
00000000 l    df *ABS*	00000000 
00002053 l       .debug_info	00000000 
00002053 l       .debug_info	00000000 
00002053 l       .debug_info	00000000 
00002053 l       .debug_info	00000000 
00002053 l       .debug_info	00000000 
00002053 l       .debug_info	00000000 
00002053 l       .debug_info	00000000 
00002053 l       .debug_info	00000000 
00002053 l       .debug_info	00000000 
00002053 l       .debug_info	00000000 
00002053 l       .debug_info	00000000 
00002053 l       .debug_info	00000000 
00002053 l       .debug_info	00000000 
00002053 l       .debug_info	00000000 
00002053 l       .debug_info	00000000 
00002053 l       .debug_info	00000000 
00002053 l       .debug_info	00000000 
00002053 l       .debug_info	00000000 
00000000 l    df *ABS*	00000000 
00002268 l       .debug_info	00000000 
00002268 l       .debug_info	00000000 
00002268 l       .debug_info	00000000 
00002268 l       .debug_info	00000000 
00002268 l       .debug_info	00000000 
00002268 l       .debug_info	00000000 
00002268 l       .debug_info	00000000 
00002268 l       .debug_info	00000000 
00002268 l       .debug_info	00000000 
00002268 l       .debug_info	00000000 
00002268 l       .debug_info	00000000 
00002268 l       .debug_info	00000000 
00002268 l       .debug_info	00000000 
00002268 l       .debug_info	00000000 
00002268 l       .debug_info	00000000 
00002268 l       .debug_info	00000000 
00002268 l       .debug_info	00000000 
00002268 l       .debug_info	00000000 
00002268 l       .debug_info	00000000 
00002268 l       .debug_info	00000000 
00002268 l       .debug_info	00000000 
00002268 l       .debug_info	00000000 
00002268 l       .debug_info	00000000 
00002268 l       .debug_info	00000000 
00002268 l       .debug_info	00000000 
00002268 l       .debug_info	00000000 
00000000 l    df *ABS*	00000000 
00002546 l       .debug_info	00000000 
00002546 l       .debug_info	00000000 
00002546 l       .debug_info	00000000 
00002546 l       .debug_info	00000000 
00002546 l       .debug_info	00000000 
00002546 l       .debug_info	00000000 
00002546 l       .debug_info	00000000 
00002546 l       .debug_info	00000000 
00002546 l       .debug_info	00000000 
00002546 l       .debug_info	00000000 
00002546 l       .debug_info	00000000 
00002546 l       .debug_info	00000000 
00002546 l       .debug_info	00000000 
00002546 l       .debug_info	00000000 
00002546 l       .debug_info	00000000 
00002546 l       .debug_info	00000000 
00002546 l       .debug_info	00000000 
00002546 l       .debug_info	00000000 
00002546 l       .debug_info	00000000 
00002546 l       .debug_info	00000000 
00002546 l       .debug_info	00000000 
00002546 l       .debug_info	00000000 
00002546 l       .debug_info	00000000 
00002546 l       .debug_info	00000000 
00002546 l       .debug_info	00000000 
00002546 l       .debug_info	00000000 
00002546 l       .debug_info	00000000 
00002546 l       .debug_info	00000000 
00002546 l       .debug_info	00000000 
00002546 l       .debug_info	00000000 
00002546 l       .debug_info	00000000 
00002546 l       .debug_info	00000000 
00002546 l       .debug_info	00000000 
00000000 l    df *ABS*	00000000 
0000297d l       .debug_info	00000000 
0000297d l       .debug_info	00000000 
0000297d l       .debug_info	00000000 
0000297d l       .debug_info	00000000 
0000297d l       .debug_info	00000000 
0000297d l       .debug_info	00000000 
0000297d l       .debug_info	00000000 
0000297d l       .debug_info	00000000 
0000297d l       .debug_info	00000000 
0000297d l       .debug_info	00000000 
0000297d l       .debug_info	00000000 
0000297d l       .debug_info	00000000 
0000297d l       .debug_info	00000000 
0000297d l       .debug_info	00000000 
0000297d l       .debug_info	00000000 
0000297d l       .debug_info	00000000 
0000297d l       .debug_info	00000000 
0000297d l       .debug_info	00000000 
0000297d l       .debug_info	00000000 
0000297d l       .debug_info	00000000 
00000000 l    df *ABS*	00000000 
00002baa l       .debug_info	00000000 
00002baa l       .debug_info	00000000 
00002baa l       .debug_info	00000000 
00002baa l       .debug_info	00000000 
00002baa l       .debug_info	00000000 
00002baa l       .debug_info	00000000 
00002baa l       .debug_info	00000000 
00002baa l       .debug_info	00000000 
00002baa l       .debug_info	00000000 
00002baa l       .debug_info	00000000 
00002baa l       .debug_info	00000000 
00002baa l       .debug_info	00000000 
00002baa l       .debug_info	00000000 
00002baa l       .debug_info	00000000 
00002baa l       .debug_info	00000000 
00002baa l       .debug_info	00000000 
00002baa l       .debug_info	00000000 
00002baa l       .debug_info	00000000 
00002baa l       .debug_info	00000000 
00002baa l       .debug_info	00000000 
00002baa l       .debug_info	00000000 
00002baa l       .debug_info	00000000 
00002baa l       .debug_info	00000000 
00002baa l       .debug_info	00000000 
00002baa l       .debug_info	00000000 
00002baa l       .debug_info	00000000 
00002baa l       .debug_info	00000000 
00002baa l       .debug_info	00000000 
00002baa l       .debug_info	00000000 
00002baa l       .debug_info	00000000 
00002baa l       .debug_info	00000000 
00002baa l       .debug_info	00000000 
00002baa l       .debug_info	00000000 
00002baa l       .debug_info	00000000 
00002baa l       .debug_info	00000000 
00002baa l       .debug_info	00000000 
00002baa l       .debug_info	00000000 
00002baa l       .debug_info	00000000 
00000000 l    df *ABS*	00000000 
0000342b l       .debug_info	00000000 
0000342b l       .debug_info	00000000 
0000342b l       .debug_info	00000000 
0000342b l       .debug_info	00000000 
0000342b l       .debug_info	00000000 
0000342b l       .debug_info	00000000 
0000342b l       .debug_info	00000000 
0000342b l       .debug_info	00000000 
0000342b l       .debug_info	00000000 
0000342b l       .debug_info	00000000 
0000342b l       .debug_info	00000000 
0000342b l       .debug_info	00000000 
0000342b l       .debug_info	00000000 
0000342b l       .debug_info	00000000 
0000342b l       .debug_info	00000000 
0000342b l       .debug_info	00000000 
0000342b l       .debug_info	00000000 
0000342b l       .debug_info	00000000 
0000342b l       .debug_info	00000000 
0000342b l       .debug_info	00000000 
0000342b l       .debug_info	00000000 
0000342b l       .debug_info	00000000 
0000342b l       .debug_info	00000000 
00000000 l    df *ABS*	00000000 
00003955 l       .debug_info	00000000 
00003955 l       .debug_info	00000000 
00003955 l       .debug_info	00000000 
00003955 l       .debug_info	00000000 
00003955 l       .debug_info	00000000 
00003955 l       .debug_info	00000000 
00003955 l       .debug_info	00000000 
00003955 l       .debug_info	00000000 
00003955 l       .debug_info	00000000 
00003955 l       .debug_info	00000000 
00003955 l       .debug_info	00000000 
00003955 l       .debug_info	00000000 
00003955 l       .debug_info	00000000 
00003955 l       .debug_info	00000000 
00003955 l       .debug_info	00000000 
00003955 l       .debug_info	00000000 
00003955 l       .debug_info	00000000 
00003955 l       .debug_info	00000000 
00003955 l       .debug_info	00000000 
00003955 l       .debug_info	00000000 
00003955 l       .debug_info	00000000 
00003955 l       .debug_info	00000000 
00003955 l       .debug_info	00000000 
00000000 l    df *ABS*	00000000 
00003bdb l       .debug_info	00000000 
00003bdb l       .debug_info	00000000 
00003bdb l       .debug_info	00000000 
00003bdb l       .debug_info	00000000 
00003bdb l       .debug_info	00000000 
00003bdb l       .debug_info	00000000 
00003bdb l       .debug_info	00000000 
00003bdb l       .debug_info	00000000 
00003bdb l       .debug_info	00000000 
00003bdb l       .debug_info	00000000 
00003bdb l       .debug_info	00000000 
00003bdb l       .debug_info	00000000 
00003bdb l       .debug_info	00000000 
00003bdb l       .debug_info	00000000 
00003bdb l       .debug_info	00000000 
00003bdb l       .debug_info	00000000 
00003bdb l       .debug_info	00000000 
00003bdb l       .debug_info	00000000 
00003bdb l       .debug_info	00000000 
00003bdb l       .debug_info	00000000 
00000000 l    df *ABS*	00000000 
80007558 l       .rodata	00000000 __fini_array_end
80007558 l       .rodata	00000000 __fini_array_start
80007558 l       .rodata	00000000 __init_array_end
80007558 l       .rodata	00000000 __preinit_array_end
80007558 l       .rodata	00000000 __init_array_start
80007558 l       .rodata	00000000 __preinit_array_start
800014bc g     F .text	000000ee __cvt
80004590 g     F .text	00000028 _isatty_r
80000e58 g     F .text	00000004 _getpid
80004404 g     F .text	0000002c _lseek_r
00002053  w      .debug_info	00000000 .hidden write.c.fe2569ec
8000519e g     F .text	0000006a .hidden __eqdf2
80004626 g     F .text	0000002a _kill_r
80001ea6 g     F .text	00000040 printf
900009d0 g       .data	00000000 __global_pointer$
80003e54 g     F .text	00000036 __sseek
80002d88 g     F .text	00000066 __sinit
80003fae g     F .text	000000c2 __swbuf_r
80002d42 g     F .text	00000046 __sfmoreglue
8000452a g     F .text	00000002 __malloc_unlock
800064d8 g     F .text	00000254 .hidden __divsf3
800030d8 g     F .text	00000090 _Balloc
80005208 g     F .text	000000a6 .hidden __gtdf2
80004566 g     F .text	0000002a _fstat_r
90000274 g     O .bss	00000004 errno
00000800 g       *ABS*	00000000 __stack_size
80007558 g       .rodata	00000000 __rt_init_start
80007558 g       .rodata	00000000 __fsymtab_end
800000c0 g       .ilalign	00000000 _ilm_lma
80002f5c g     F .text	000000d4 memcpy
0000342b  w      .debug_info	00000000 .hidden dhry_1.c.488b74b2
80002d38 g     F .text	0000000a _cleanup_r
80005e4c g     F .text	00000066 .hidden __floatsidf
800052ae g     F .text	000000a6 .hidden __ltdf2
80007558 g       .rodata	00000000 __rt_init_end
80002efa g     F .text	0000000e malloc
80001ef8 g     F .text	00000004 isatty
800045b8 g     F .text	00000062 _raise_r
80000e38 g     F .text	0000001e _fstat
800041ca g     F .text	0000003a __assert_func
80007178 g     O .rodata	000000c8 __mprec_tens
80004650 g     F .text	00000004 _getpid_r
80002ef0 g     F .text	0000000a _localeconv_r
80003318 g     F .text	00000036 __i2b
80003dae g     F .text	00000028 _sbrk_r
8000452c g     F .text	0000002c _read_r
80007558 g       .rodata	00000000 _eilm
00002baa  w      .debug_info	00000000 .hidden system_hbirdv2.c.135e882f
800067e8 g     F .text	00000098 .hidden __extendsfdf2
80004654 g     F .text	0000060a .hidden __adddf3
9000f800 g       .stack	00000000 _heap_end
00002546  w      .debug_info	00000000 .hidden hbirdv2_uart.c.016069a0
80000e60 g     F .text	00000004 _isatty
9000023c g     O .data	00000004 _global_impure_ptr
8000145e g     F .text	0000005e __libc_init_array
80006178 g     F .text	00000360 .hidden __udivdi3
80007150 g     O .rodata	00000028 __mprec_bigtens
80004558 g     F .text	0000000e abort
80005eb2 g     F .text	0000004e .hidden __floatunsidf
80000e9c g     F .text	00000036 _sbrk
80003688 g     F .text	00000036 __mcmp
00001d86  w      .debug_info	00000000 .hidden read.c.64a19208
80001428 g     F .text	00000036 __libc_fini_array
00002268  w      .debug_info	00000000 .hidden hbirdv2_gpio.c.3ddcd516
80003268 g     F .text	00000046 __hi0bits
800000c0 g       .ilalign	00000000 _ilm
80005de8 g     F .text	00000064 .hidden __fixdfsi
80001174 g     F .text	0000022a _premain_init
800043da g     F .text	0000002a fprintf
00003bdb  w      .debug_info	00000000 .hidden dhry_stubs.c.c3a4eb6e
800052ae g     F .text	000000a6 .hidden __ledf2
800034cc g     F .text	000000b8 __pow5mult
80007080 g     O .rodata	00000020 __sf_fake_stderr
00001ce3  w      .debug_info	00000000 .hidden lseek.c.d668c96a
800010e4 g     F .text	0000008c core_trap_handler
00003955  w      .debug_info	00000000 .hidden dhry_2.c.54ad346a
8000613c g     F .text	0000003c .hidden __clzsi2
80003ad0 g     F .text	00000042 __sfputs_r
80002f42 g     F .text	0000001a memchr
80001646  w    F .text	000004e2 _printf_float
80003930 g     F .text	000000a2 _free_r
90000278 g     O .bss	00000004 _global_atexit
90010000 g       .stack	00000000 _sp
80000000 g     F .init	00000000 _start
80000e74 g     F .text	00000004 _lseek
80003584 g     F .text	00000104 __lshift
8000672c g     F .text	000000bc .hidden __floatsisf
80001efc g     F .text	00000078 __register_exitproc
8000334e g     F .text	0000017e __multiply
8000381a g     F .text	000000f0 __d2b
00001bb6  w      .debug_info	00000000 .hidden isatty.c.2a712c41
80004204 g     F .text	00000028 _close_r
00001b38  w      .debug_info	00000000 .hidden getpid.c.d9a2f64d
800040bc g     F .text	0000010e __swsetup_r
80004c5e g     F .text	00000540 .hidden __divdf3
80002dee g     F .text	00000098 __sfp
80005354 g     F .text	00000442 .hidden __muldf3
80003dd6 g     F .text	00000030 __sread
80004528 g     F .text	00000002 __malloc_lock
80004374 g     F .text	00000066 _fflush_r
8000390a g     F .text	00000026 _calloc_r
800070a0 g     O .rodata	00000020 __sf_fake_stdin
90000240 g       .bss	00000000 __bss_start
80003030 g     F .text	000000a8 memset
800000c0 g     F .text	0000071a main
800013a4  w      .text	00000000 trap_entry
000017fc  w      .debug_info	00000000 .hidden exit.c.a956ca8b
80003e8a g     F .text	00000006 __sclose
800020a0 g     F .text	00000c30 _dtoa_r
800039d2 g     F .text	000000d6 _malloc_r
80004070 g     F .text	00000020 __ascii_wctomb
80007558 g       .rodata	00000000 __vsymtab_start
80003e90 g     F .text	0000011e strcmp
800010d0 g     F .text	00000012 SystemInit
8000519e g     F .text	0000006a .hidden __nedf2
80001ea6 g     F .text	00000040 iprintf
00001c40  w      .debug_info	00000000 .hidden kill.c.9d85bf9c
8000741c g     O .rodata	00000100 .hidden __clz_tab
800015aa g     F .text	0000009c __exponent
8000141c g     F .text	0000000c atexit
80004090 g     F .text	0000002c _write_r
80001b28 g     F .text	0000010c _printf_common
900001d8 g     O .data	00000004 _impure_ptr
8000422c g     F .text	00000148 __sflush_r
80002f08 g     F .text	0000003a __ascii_mbtowc
90000000 g       .dalign	00000000 _data
80007558 g       .rodata	00000000 __vsymtab_end
00001888  w      .debug_info	00000000 .hidden fstat.c.8cdc07ac
00001f85  w      .debug_info	00000000 .hidden sbrk.c.93c13689
0000297d  w      .debug_info	00000000 .hidden hbirdv2_common.c.061182ea
80004430 g     F .text	0000005a __swhatbuf_r
80000ed4 g     F .text	000001fa _write
90000240 g       .bss	00000000 _edata
800013a0 g     F .text	00000002 _postmain_fini
90002b80 g       .bss	00000000 _end
80007558 g       .lalign	00000000 _data_lma
80003e06 g     F .text	0000004e __swrite
800043da g     F .text	0000002a fiprintf
80003b12 g     F .text	0000029c _vfiprintf_r
80002e86 g     F .text	0000006a _fwalk_reent
800036be g     F .text	0000015c __mdiff
80000e68 g     F .text	0000000a _kill
800070c0 g     O .rodata	00000020 __sf_fake_stdout
800072a0 g     O .rodata	00000101 _ctype_
80000e7c g     F .text	00000020 _read
80005dae g     F .text	0000003a .hidden __unorddf2
80000e30  w    F .text	00000006 _exit
8000448a g     F .text	0000009e __smakebuf_r
80001ee6 g     F .text	00000012 strlen
80001c34 g     F .text	00000272 _printf_i
80005208 g     F .text	000000a6 .hidden __gedf2
90000280 g     O .bss	00000004 __malloc_sbrk_start
00001766  w      .debug_info	00000000 .hidden close.c.3b364356
9000027c g     O .bss	00000004 __malloc_free_list
80007558 g       .rodata	00000000 __fsymtab_start
80005796 g     F .text	00000618 .hidden __subdf3
80003b12 g     F .text	0000029c _vfprintf_r
800032ae g     F .text	0000006a __lo0bits
90000060 g     O .data	0000016c __global_locale
80005f00 g     F .text	0000023c .hidden __trunctfdf2
8000461a g     F .text	0000000c raise
80000e24 g     F .text	0000000a _close
800031ac g     F .text	000000bc __multadd
80003168 g     F .text	00000044 _Bfree



Disassembly of section .init:

80000000 <_start>:
_start():
E:\VMshare\e203\zhengdian_E203\sdk\dhrystone\Release/../hbird_sdk/SoC/hbirdv2/Common/Source/GCC/startup_hbirdv2.S:40
 * Reset Handler called on controller reset
 */
_start:
    /* ===== Startup Stage 1 ===== */
    /* Disable Global Interrupt */
    csrc CSR_MSTATUS, MSTATUS_MIE
80000000:	30047073          	csrci	mstatus,8
E:\VMshare\e203\zhengdian_E203\sdk\dhrystone\Release/../hbird_sdk/SoC/hbirdv2/Common/Source/GCC/startup_hbirdv2.S:42
    /* Disable all interrupts controlled by CSR MIE */
    csrw CSR_MIE, 0x0
80000004:	30405073          	csrwi	mie,0
E:\VMshare\e203\zhengdian_E203\sdk\dhrystone\Release/../hbird_sdk/SoC/hbirdv2/Common/Source/GCC/startup_hbirdv2.S:47

    /* Initialize GP and Stack Pointer SP */
    .option push
    .option norelax
    la gp, __global_pointer$
80000008:	10001197          	auipc	gp,0x10001
8000000c:	9c818193          	addi	gp,gp,-1592 # 900009d0 <__global_pointer$>
E:\VMshare\e203\zhengdian_E203\sdk\dhrystone\Release/../hbird_sdk/SoC/hbirdv2/Common/Source/GCC/startup_hbirdv2.S:49
    .option pop
    la sp, _sp
80000010:	10010117          	auipc	sp,0x10010
80000014:	ff010113          	addi	sp,sp,-16 # 90010000 <_sp>
E:\VMshare\e203\zhengdian_E203\sdk\dhrystone\Release/../hbird_sdk/SoC/hbirdv2/Common/Source/GCC/startup_hbirdv2.S:54

    /*
     * Set Trap Entry MTVEC to trap_entry
     */
    la t0, trap_entry
80000018:	00001297          	auipc	t0,0x1
8000001c:	38c28293          	addi	t0,t0,908 # 800013a4 <trap_entry>
E:\VMshare\e203\zhengdian_E203\sdk\dhrystone\Release/../hbird_sdk/SoC/hbirdv2/Common/Source/GCC/startup_hbirdv2.S:55
    csrw CSR_MTVEC, t0
80000020:	30529073          	csrw	mtvec,t0
E:\VMshare\e203\zhengdian_E203\sdk\dhrystone\Release/../hbird_sdk/SoC/hbirdv2/Common/Source/GCC/startup_hbirdv2.S:58

    /* Direct Mode: All exceptions set pc to BASE. */
    csrc CSR_MTVEC, 0x3
80000024:	3051f073          	csrci	mtvec,3
E:\VMshare\e203\zhengdian_E203\sdk\dhrystone\Release/../hbird_sdk/SoC/hbirdv2/Common/Source/GCC/startup_hbirdv2.S:74
    /* ===== Startup Stage 3 ===== */
    /*
     * Load code section frm FLASH to ILM
     * when code LMA is different with VMA
     */
    la a0, _ilm_lma
80000028:	00000517          	auipc	a0,0x0
8000002c:	09850513          	addi	a0,a0,152 # 800000c0 <main>
E:\VMshare\e203\zhengdian_E203\sdk\dhrystone\Release/../hbird_sdk/SoC/hbirdv2/Common/Source/GCC/startup_hbirdv2.S:75
    la a1, _ilm
80000030:	00000597          	auipc	a1,0x0
80000034:	09058593          	addi	a1,a1,144 # 800000c0 <main>
E:\VMshare\e203\zhengdian_E203\sdk\dhrystone\Release/../hbird_sdk/SoC/hbirdv2/Common/Source/GCC/startup_hbirdv2.S:77
    /* If the ILM phy-address same as the logic-address, then quit */
    beq a0, a1, 2f
80000038:	02b50063          	beq	a0,a1,80000058 <_start+0x58>
E:\VMshare\e203\zhengdian_E203\sdk\dhrystone\Release/../hbird_sdk/SoC/hbirdv2/Common/Source/GCC/startup_hbirdv2.S:78
    la a2, _eilm
8000003c:	00007617          	auipc	a2,0x7
80000040:	51c60613          	addi	a2,a2,1308 # 80007558 <__fsymtab_end>
E:\VMshare\e203\zhengdian_E203\sdk\dhrystone\Release/../hbird_sdk/SoC/hbirdv2/Common/Source/GCC/startup_hbirdv2.S:79
    bgeu a1, a2, 2f
80000044:	00c5fa63          	bgeu	a1,a2,80000058 <_start+0x58>
E:\VMshare\e203\zhengdian_E203\sdk\dhrystone\Release/../hbird_sdk/SoC/hbirdv2/Common/Source/GCC/startup_hbirdv2.S:83

1:
    /* Load code section if necessary */
    lw t0, (a0)
80000048:	00052283          	lw	t0,0(a0)
E:\VMshare\e203\zhengdian_E203\sdk\dhrystone\Release/../hbird_sdk/SoC/hbirdv2/Common/Source/GCC/startup_hbirdv2.S:84
    sw t0, (a1)
8000004c:	0055a023          	sw	t0,0(a1)
E:\VMshare\e203\zhengdian_E203\sdk\dhrystone\Release/../hbird_sdk/SoC/hbirdv2/Common/Source/GCC/startup_hbirdv2.S:85
    addi a0, a0, 4
80000050:	0511                	addi	a0,a0,4
E:\VMshare\e203\zhengdian_E203\sdk\dhrystone\Release/../hbird_sdk/SoC/hbirdv2/Common/Source/GCC/startup_hbirdv2.S:86
    addi a1, a1, 4
80000052:	0591                	addi	a1,a1,4
E:\VMshare\e203\zhengdian_E203\sdk\dhrystone\Release/../hbird_sdk/SoC/hbirdv2/Common/Source/GCC/startup_hbirdv2.S:87
    bltu a1, a2, 1b
80000054:	fec5eae3          	bltu	a1,a2,80000048 <_start+0x48>
E:\VMshare\e203\zhengdian_E203\sdk\dhrystone\Release/../hbird_sdk/SoC/hbirdv2/Common/Source/GCC/startup_hbirdv2.S:90
2:
    /* Load data section */
    la a0, _data_lma
80000058:	00007517          	auipc	a0,0x7
8000005c:	50050513          	addi	a0,a0,1280 # 80007558 <__fsymtab_end>
E:\VMshare\e203\zhengdian_E203\sdk\dhrystone\Release/../hbird_sdk/SoC/hbirdv2/Common/Source/GCC/startup_hbirdv2.S:91
    la a1, _data
80000060:	10000597          	auipc	a1,0x10000
80000064:	fa058593          	addi	a1,a1,-96 # 90000000 <impure_data>
E:\VMshare\e203\zhengdian_E203\sdk\dhrystone\Release/../hbird_sdk/SoC/hbirdv2/Common/Source/GCC/startup_hbirdv2.S:92
    la a2, _edata
80000068:	87018613          	addi	a2,gp,-1936 # 90000240 <Begin_Cycle>
E:\VMshare\e203\zhengdian_E203\sdk\dhrystone\Release/../hbird_sdk/SoC/hbirdv2/Common/Source/GCC/startup_hbirdv2.S:93
    bgeu a1, a2, 2f
8000006c:	00c5fa63          	bgeu	a1,a2,80000080 <_start+0x80>
E:\VMshare\e203\zhengdian_E203\sdk\dhrystone\Release/../hbird_sdk/SoC/hbirdv2/Common/Source/GCC/startup_hbirdv2.S:95
1:
    lw t0, (a0)
80000070:	00052283          	lw	t0,0(a0)
E:\VMshare\e203\zhengdian_E203\sdk\dhrystone\Release/../hbird_sdk/SoC/hbirdv2/Common/Source/GCC/startup_hbirdv2.S:96
    sw t0, (a1)
80000074:	0055a023          	sw	t0,0(a1)
E:\VMshare\e203\zhengdian_E203\sdk\dhrystone\Release/../hbird_sdk/SoC/hbirdv2/Common/Source/GCC/startup_hbirdv2.S:97
    addi a0, a0, 4
80000078:	0511                	addi	a0,a0,4
E:\VMshare\e203\zhengdian_E203\sdk\dhrystone\Release/../hbird_sdk/SoC/hbirdv2/Common/Source/GCC/startup_hbirdv2.S:98
    addi a1, a1, 4
8000007a:	0591                	addi	a1,a1,4
E:\VMshare\e203\zhengdian_E203\sdk\dhrystone\Release/../hbird_sdk/SoC/hbirdv2/Common/Source/GCC/startup_hbirdv2.S:99
    bltu a1, a2, 1b
8000007c:	fec5eae3          	bltu	a1,a2,80000070 <_start+0x70>
E:\VMshare\e203\zhengdian_E203\sdk\dhrystone\Release/../hbird_sdk/SoC/hbirdv2/Common/Source/GCC/startup_hbirdv2.S:102
2:
    /* Clear bss section */
    la a0, __bss_start
80000080:	87018513          	addi	a0,gp,-1936 # 90000240 <Begin_Cycle>
E:\VMshare\e203\zhengdian_E203\sdk\dhrystone\Release/../hbird_sdk/SoC/hbirdv2/Common/Source/GCC/startup_hbirdv2.S:103
    la a1, _end
80000084:	10003597          	auipc	a1,0x10003
80000088:	afc58593          	addi	a1,a1,-1284 # 90002b80 <_end>
E:\VMshare\e203\zhengdian_E203\sdk\dhrystone\Release/../hbird_sdk/SoC/hbirdv2/Common/Source/GCC/startup_hbirdv2.S:104
    bgeu a0, a1, 2f
8000008c:	00b57763          	bgeu	a0,a1,8000009a <_start+0x9a>
E:\VMshare\e203\zhengdian_E203\sdk\dhrystone\Release/../hbird_sdk/SoC/hbirdv2/Common/Source/GCC/startup_hbirdv2.S:106
1:
    sw zero, (a0)
80000090:	00052023          	sw	zero,0(a0)
E:\VMshare\e203\zhengdian_E203\sdk\dhrystone\Release/../hbird_sdk/SoC/hbirdv2/Common/Source/GCC/startup_hbirdv2.S:107
    addi a0, a0, 4
80000094:	0511                	addi	a0,a0,4
E:\VMshare\e203\zhengdian_E203\sdk\dhrystone\Release/../hbird_sdk/SoC/hbirdv2/Common/Source/GCC/startup_hbirdv2.S:108
    bltu a0, a1, 1b
80000096:	feb56de3          	bltu	a0,a1,80000090 <_start+0x90>
E:\VMshare\e203\zhengdian_E203\sdk\dhrystone\Release/../hbird_sdk/SoC/hbirdv2/Common/Source/GCC/startup_hbirdv2.S:115

    /*
     * Call vendor defined SystemInit to
     * initialize the micro-controller system
     */
    call SystemInit
8000009a:	036010ef          	jal	ra,800010d0 <SystemInit>
E:\VMshare\e203\zhengdian_E203\sdk\dhrystone\Release/../hbird_sdk/SoC/hbirdv2/Common/Source/GCC/startup_hbirdv2.S:118

    /* Call global constructors */
    la a0, __libc_fini_array
8000009e:	00001517          	auipc	a0,0x1
800000a2:	38a50513          	addi	a0,a0,906 # 80001428 <__libc_fini_array>
E:\VMshare\e203\zhengdian_E203\sdk\dhrystone\Release/../hbird_sdk/SoC/hbirdv2/Common/Source/GCC/startup_hbirdv2.S:119
    call atexit
800000a6:	376010ef          	jal	ra,8000141c <atexit>
E:\VMshare\e203\zhengdian_E203\sdk\dhrystone\Release/../hbird_sdk/SoC/hbirdv2/Common/Source/GCC/startup_hbirdv2.S:121
    /* Call C/C++ constructor start up code */
    call __libc_init_array
800000aa:	3b4010ef          	jal	ra,8000145e <__libc_init_array>
E:\VMshare\e203\zhengdian_E203\sdk\dhrystone\Release/../hbird_sdk/SoC/hbirdv2/Common/Source/GCC/startup_hbirdv2.S:124

    /* do pre-init steps before main */
    call _premain_init
800000ae:	0c6010ef          	jal	ra,80001174 <_premain_init>
E:\VMshare\e203\zhengdian_E203\sdk\dhrystone\Release/../hbird_sdk/SoC/hbirdv2/Common/Source/GCC/startup_hbirdv2.S:127
    /* ===== Call Main Function  ===== */
    /* argc = argv = 0 */
    li a0, 0
800000b2:	4501                	li	a0,0
E:\VMshare\e203\zhengdian_E203\sdk\dhrystone\Release/../hbird_sdk/SoC/hbirdv2/Common/Source/GCC/startup_hbirdv2.S:128
    li a1, 0
800000b4:	4581                	li	a1,0
E:\VMshare\e203\zhengdian_E203\sdk\dhrystone\Release/../hbird_sdk/SoC/hbirdv2/Common/Source/GCC/startup_hbirdv2.S:134

#ifdef RTOS_RTTHREAD
    // Call entry function when using RT-Thread
    call entry
#else
    call main
800000b6:	2029                	jal	800000c0 <main>
E:\VMshare\e203\zhengdian_E203\sdk\dhrystone\Release/../hbird_sdk/SoC/hbirdv2/Common/Source/GCC/startup_hbirdv2.S:137
#endif
    /* do post-main steps after main */
    call _postmain_fini
800000b8:	2e8010ef          	jal	ra,800013a0 <_postmain_fini>
E:\VMshare\e203\zhengdian_E203\sdk\dhrystone\Release/../hbird_sdk/SoC/hbirdv2/Common/Source/GCC/startup_hbirdv2.S:140

1:
    j 1b
800000bc:	a001                	j	800000bc <_start+0xbc>

Disassembly of section .text:

800000c0 <main>:
main():
E:\VMshare\e203\zhengdian_E203\sdk\dhrystone\Release/../application/dhry_1.c:83
main ()
/*****/

  /* main program, corresponds to procedures        */
  /* Main and Proc_0 in the Ada version             */
{
800000c0:	7135                	addi	sp,sp,-160
E:\VMshare\e203\zhengdian_E203\sdk\dhrystone\Release/../application/dhry_1.c:96
  REG   int             Run_Index;
  REG   int             Number_Of_Runs;

  /* Initializations */

  Next_Ptr_Glob = (Rec_Pointer) malloc (sizeof (Rec_Type));
800000c2:	03000513          	li	a0,48
E:\VMshare\e203\zhengdian_E203\sdk\dhrystone\Release/../application/dhry_1.c:83
{
800000c6:	cf06                	sw	ra,156(sp)
800000c8:	cd22                	sw	s0,152(sp)
800000ca:	cb26                	sw	s1,148(sp)
800000cc:	c94a                	sw	s2,144(sp)
800000ce:	c74e                	sw	s3,140(sp)
800000d0:	c552                	sw	s4,136(sp)
800000d2:	c356                	sw	s5,132(sp)
800000d4:	c15a                	sw	s6,128(sp)
800000d6:	dede                	sw	s7,124(sp)
800000d8:	dce2                	sw	s8,120(sp)
800000da:	dae6                	sw	s9,116(sp)
800000dc:	d8ea                	sw	s10,112(sp)
800000de:	d6ee                	sw	s11,108(sp)
E:\VMshare\e203\zhengdian_E203\sdk\dhrystone\Release/../application/dhry_1.c:96
  Next_Ptr_Glob = (Rec_Pointer) malloc (sizeof (Rec_Type));
800000e0:	61b020ef          	jal	ra,80002efa <malloc>
800000e4:	89818293          	addi	t0,gp,-1896 # 90000268 <Next_Ptr_Glob>
800000e8:	842a                	mv	s0,a0
E:\VMshare\e203\zhengdian_E203\sdk\dhrystone\Release/../application/dhry_1.c:97
  Ptr_Glob = (Rec_Pointer) malloc (sizeof (Rec_Type));
800000ea:	03000513          	li	a0,48
E:\VMshare\e203\zhengdian_E203\sdk\dhrystone\Release/../application/dhry_1.c:96
  Next_Ptr_Glob = (Rec_Pointer) malloc (sizeof (Rec_Type));
800000ee:	0082a023          	sw	s0,0(t0)
800000f2:	c216                	sw	t0,4(sp)
E:\VMshare\e203\zhengdian_E203\sdk\dhrystone\Release/../application/dhry_1.c:97
  Ptr_Glob = (Rec_Pointer) malloc (sizeof (Rec_Type));
800000f4:	607020ef          	jal	ra,80002efa <malloc>
E:\VMshare\e203\zhengdian_E203\sdk\dhrystone\Release/../application/dhry_1.c:103

  Ptr_Glob->Ptr_Comp                    = Next_Ptr_Glob;
  Ptr_Glob->Discr                       = Ident_1;
  Ptr_Glob->variant.var_1.Enum_Comp     = Ident_3;
  Ptr_Glob->variant.var_1.Int_Comp      = 40;
  strcpy (Ptr_Glob->variant.var_1.Str_Comp,
800000f8:	00007317          	auipc	t1,0x7
E:\VMshare\e203\zhengdian_E203\sdk\dhrystone\Release/../application/dhry_1.c:105
          "DHRYSTONE PROGRAM, SOME STRING");
  strcpy (Str_1_Loc, "DHRYSTONE PROGRAM, 1'ST STRING");
800000fc:	00007717          	auipc	a4,0x7
E:\VMshare\e203\zhengdian_E203\sdk\dhrystone\Release/../application/dhry_1.c:103
  strcpy (Ptr_Glob->variant.var_1.Str_Comp,
80000100:	85030493          	addi	s1,t1,-1968 # 80006948 <__extendsfdf2+0x160>
E:\VMshare\e203\zhengdian_E203\sdk\dhrystone\Release/../application/dhry_1.c:105
  strcpy (Str_1_Loc, "DHRYSTONE PROGRAM, 1'ST STRING");
80000104:	e1070913          	addi	s2,a4,-496 # 80006f0c <__extendsfdf2+0x724>
E:\VMshare\e203\zhengdian_E203\sdk\dhrystone\Release/../application/dhry_1.c:103
  strcpy (Ptr_Glob->variant.var_1.Str_Comp,
80000108:	01e4c603          	lbu	a2,30(s1)
E:\VMshare\e203\zhengdian_E203\sdk\dhrystone\Release/../application/dhry_1.c:105
  strcpy (Str_1_Loc, "DHRYSTONE PROGRAM, 1'ST STRING");
8000010c:	00492f83          	lw	t6,4(s2)
E:\VMshare\e203\zhengdian_E203\sdk\dhrystone\Release/../application/dhry_1.c:103
  strcpy (Ptr_Glob->variant.var_1.Str_Comp,
80000110:	0184a803          	lw	a6,24(s1)
80000114:	01c4d583          	lhu	a1,28(s1)
80000118:	0144a883          	lw	a7,20(s1)
8000011c:	00c4ae03          	lw	t3,12(s1)
80000120:	0084ae83          	lw	t4,8(s1)
80000124:	0044af03          	lw	t5,4(s1)
80000128:	0004a383          	lw	t2,0(s1)
8000012c:	0104a983          	lw	s3,16(s1)
E:\VMshare\e203\zhengdian_E203\sdk\dhrystone\Release/../application/dhry_1.c:105
  strcpy (Str_1_Loc, "DHRYSTONE PROGRAM, 1'ST STRING");
80000130:	00092a03          	lw	s4,0(s2)
E:\VMshare\e203\zhengdian_E203\sdk\dhrystone\Release/../application/dhry_1.c:97
  Ptr_Glob = (Rec_Pointer) malloc (sizeof (Rec_Type));
80000134:	8aaa                	mv	s5,a0
E:\VMshare\e203\zhengdian_E203\sdk\dhrystone\Release/../application/dhry_1.c:99
  Ptr_Glob->Ptr_Comp                    = Next_Ptr_Glob;
80000136:	c100                	sw	s0,0(a0)
E:\VMshare\e203\zhengdian_E203\sdk\dhrystone\Release/../application/dhry_1.c:100
  Ptr_Glob->Discr                       = Ident_1;
80000138:	00052223          	sw	zero,4(a0)
E:\VMshare\e203\zhengdian_E203\sdk\dhrystone\Release/../application/dhry_1.c:97
  Ptr_Glob = (Rec_Pointer) malloc (sizeof (Rec_Type));
8000013c:	89c18c13          	addi	s8,gp,-1892 # 9000026c <Ptr_Glob>
E:\VMshare\e203\zhengdian_E203\sdk\dhrystone\Release/../application/dhry_1.c:101
  Ptr_Glob->variant.var_1.Enum_Comp     = Ident_3;
80000140:	4509                	li	a0,2
E:\VMshare\e203\zhengdian_E203\sdk\dhrystone\Release/../application/dhry_1.c:102
  Ptr_Glob->variant.var_1.Int_Comp      = 40;
80000142:	02800b13          	li	s6,40
E:\VMshare\e203\zhengdian_E203\sdk\dhrystone\Release/../application/dhry_1.c:105
  strcpy (Str_1_Loc, "DHRYSTONE PROGRAM, 1'ST STRING");
80000146:	00892683          	lw	a3,8(s2)
E:\VMshare\e203\zhengdian_E203\sdk\dhrystone\Release/../application/dhry_1.c:103
  strcpy (Ptr_Glob->variant.var_1.Str_Comp,
8000014a:	02ca8723          	sb	a2,46(s5)
E:\VMshare\e203\zhengdian_E203\sdk\dhrystone\Release/../application/dhry_1.c:105
  strcpy (Str_1_Loc, "DHRYSTONE PROGRAM, 1'ST STRING");
8000014e:	c2fe                	sw	t6,68(sp)
E:\VMshare\e203\zhengdian_E203\sdk\dhrystone\Release/../application/dhry_1.c:103
  strcpy (Ptr_Glob->variant.var_1.Str_Comp,
80000150:	030aa423          	sw	a6,40(s5)
80000154:	02ba9623          	sh	a1,44(s5)
80000158:	031aa223          	sw	a7,36(s5)
8000015c:	01caae23          	sw	t3,28(s5)
80000160:	01daac23          	sw	t4,24(s5)
80000164:	01eaaa23          	sw	t5,20(s5)
E:\VMshare\e203\zhengdian_E203\sdk\dhrystone\Release/../application/dhry_1.c:105
  strcpy (Str_1_Loc, "DHRYSTONE PROGRAM, 1'ST STRING");
80000168:	00c92c83          	lw	s9,12(s2)
8000016c:	01092d03          	lw	s10,16(s2)
80000170:	01492d83          	lw	s11,20(s2)
E:\VMshare\e203\zhengdian_E203\sdk\dhrystone\Release/../application/dhry_1.c:103
  strcpy (Ptr_Glob->variant.var_1.Str_Comp,
80000174:	007aa823          	sw	t2,16(s5)
E:\VMshare\e203\zhengdian_E203\sdk\dhrystone\Release/../application/dhry_1.c:101
  Ptr_Glob->variant.var_1.Enum_Comp     = Ident_3;
80000178:	00aaa423          	sw	a0,8(s5)
E:\VMshare\e203\zhengdian_E203\sdk\dhrystone\Release/../application/dhry_1.c:102
  Ptr_Glob->variant.var_1.Int_Comp      = 40;
8000017c:	016aa623          	sw	s6,12(s5)
E:\VMshare\e203\zhengdian_E203\sdk\dhrystone\Release/../application/dhry_1.c:97
  Ptr_Glob = (Rec_Pointer) malloc (sizeof (Rec_Type));
80000180:	015c2023          	sw	s5,0(s8)
E:\VMshare\e203\zhengdian_E203\sdk\dhrystone\Release/../application/dhry_1.c:103
  strcpy (Ptr_Glob->variant.var_1.Str_Comp,
80000184:	033aa023          	sw	s3,32(s5)
E:\VMshare\e203\zhengdian_E203\sdk\dhrystone\Release/../application/dhry_1.c:97
  Ptr_Glob = (Rec_Pointer) malloc (sizeof (Rec_Type));
80000188:	c062                	sw	s8,0(sp)
E:\VMshare\e203\zhengdian_E203\sdk\dhrystone\Release/../application/dhry_1.c:105
  strcpy (Str_1_Loc, "DHRYSTONE PROGRAM, 1'ST STRING");
8000018a:	c0d2                	sw	s4,64(sp)
8000018c:	01892403          	lw	s0,24(s2)
80000190:	01c95283          	lhu	t0,28(s2)
80000194:	01e94303          	lbu	t1,30(s2)
E:\VMshare\e203\zhengdian_E203\sdk\dhrystone\Release/../application/dhry_1.c:107

  Arr_2_Glob [8][7] = 10;
80000198:	10000797          	auipc	a5,0x10000
E:\VMshare\e203\zhengdian_E203\sdk\dhrystone\Release/../application/dhry_1.c:113
        /* Was missing in published program. Without this statement,    */
        /* Arr_2_Glob [8][7] would have an undefined value.             */
        /* Warning: With 16-Bit processors and Number_Of_Runs > 32000,  */
        /* overflow may occur for this array element.                   */

  printf ("\n");
8000019c:	00007497          	auipc	s1,0x7
E:\VMshare\e203\zhengdian_E203\sdk\dhrystone\Release/../application/dhry_1.c:107
  Arr_2_Glob [8][7] = 10;
800001a0:	1b478913          	addi	s2,a5,436 # 9000034c <Arr_2_Glob>
800001a4:	4729                	li	a4,10
E:\VMshare\e203\zhengdian_E203\sdk\dhrystone\Release/../application/dhry_1.c:113
  printf ("\n");
800001a6:	cf848513          	addi	a0,s1,-776 # 80006e94 <__extendsfdf2+0x6ac>
E:\VMshare\e203\zhengdian_E203\sdk\dhrystone\Release/../application/dhry_1.c:105
  strcpy (Str_1_Loc, "DHRYSTONE PROGRAM, 1'ST STRING");
800001aa:	04511e23          	sh	t0,92(sp)
800001ae:	c4b6                	sw	a3,72(sp)
800001b0:	04610f23          	sb	t1,94(sp)
E:\VMshare\e203\zhengdian_E203\sdk\dhrystone\Release/../application/dhry_1.c:107
  Arr_2_Glob [8][7] = 10;
800001b4:	64e92e23          	sw	a4,1628(s2)
E:\VMshare\e203\zhengdian_E203\sdk\dhrystone\Release/../application/dhry_1.c:105
  strcpy (Str_1_Loc, "DHRYSTONE PROGRAM, 1'ST STRING");
800001b8:	c6e6                	sw	s9,76(sp)
800001ba:	c8ea                	sw	s10,80(sp)
800001bc:	caee                	sw	s11,84(sp)
800001be:	cca2                	sw	s0,88(sp)
E:\VMshare\e203\zhengdian_E203\sdk\dhrystone\Release/../application/dhry_1.c:113
  printf ("\n");
800001c0:	4e7010ef          	jal	ra,80001ea6 <iprintf>
E:\VMshare\e203\zhengdian_E203\sdk\dhrystone\Release/../application/dhry_1.c:114
  printf ("Dhrystone Benchmark, Version 2.1 (Language: C)\n");
800001c4:	00006397          	auipc	t2,0x6
800001c8:	7a438513          	addi	a0,t2,1956 # 80006968 <__extendsfdf2+0x180>
800001cc:	4db010ef          	jal	ra,80001ea6 <iprintf>
E:\VMshare\e203\zhengdian_E203\sdk\dhrystone\Release/../application/dhry_1.c:115
  printf ("\n");
800001d0:	00007f17          	auipc	t5,0x7
800001d4:	cc4f0513          	addi	a0,t5,-828 # 80006e94 <__extendsfdf2+0x6ac>
800001d8:	4cf010ef          	jal	ra,80001ea6 <iprintf>
E:\VMshare\e203\zhengdian_E203\sdk\dhrystone\Release/../application/dhry_1.c:123
    printf ("Program compiled with 'register' attribute\n");
    printf ("\n");
  }
  else
  {
    printf ("Program compiled without 'register' attribute\n");
800001dc:	00006e97          	auipc	t4,0x6
800001e0:	7bce8513          	addi	a0,t4,1980 # 80006998 <__extendsfdf2+0x1b0>
800001e4:	4c3010ef          	jal	ra,80001ea6 <iprintf>
E:\VMshare\e203\zhengdian_E203\sdk\dhrystone\Release/../application/dhry_1.c:124
    printf ("\n");
800001e8:	00007e17          	auipc	t3,0x7
800001ec:	cace0513          	addi	a0,t3,-852 # 80006e94 <__extendsfdf2+0x6ac>
800001f0:	4b7010ef          	jal	ra,80001ea6 <iprintf>
E:\VMshare\e203\zhengdian_E203\sdk\dhrystone\Release/../application/dhry_1.c:126
  }
  printf ("Please give the number of runs through the benchmark: ");
800001f4:	00006997          	auipc	s3,0x6
800001f8:	7d498513          	addi	a0,s3,2004 # 800069c8 <__extendsfdf2+0x1e0>
800001fc:	4ab010ef          	jal	ra,80001ea6 <iprintf>
E:\VMshare\e203\zhengdian_E203\sdk\dhrystone\Release/../application/dhry_1.c:137
    Number_Of_Runs = 5;
#else
    Number_Of_Runs = 500000;
#endif
  }
  printf ("\n");
80000200:	00007897          	auipc	a7,0x7
80000204:	c9488513          	addi	a0,a7,-876 # 80006e94 <__extendsfdf2+0x6ac>
80000208:	49f010ef          	jal	ra,80001ea6 <iprintf>
E:\VMshare\e203\zhengdian_E203\sdk\dhrystone\Release/../application/dhry_1.c:139

  printf ("Execution starts, %d runs through Dhrystone\n", Number_Of_Runs);
8000020c:	00006817          	auipc	a6,0x6
80000210:	0007a5b7          	lui	a1,0x7a
80000214:	12058593          	addi	a1,a1,288 # 7a120 <dhry_stubs.c.c3a4eb6e+0x76545>
80000218:	7f480513          	addi	a0,a6,2036 # 80006a00 <__extendsfdf2+0x218>
8000021c:	48b010ef          	jal	ra,80001ea6 <iprintf>
E:\VMshare\e203\zhengdian_E203\sdk\dhrystone\Release/../application/dhry_1.c:151
#ifdef TIMES
  times (&time_info);
  Begin_Time = (long) time_info.tms_utime;
#endif
#ifdef TIME
  Begin_Time = time ( (long *) 0);
80000220:	4501                	li	a0,0
80000222:	7c6000ef          	jal	ra,800009e8 <time>
80000226:	862a                	mv	a2,a0
80000228:	87818f93          	addi	t6,gp,-1928 # 90000248 <Begin_Time>
E:\VMshare\e203\zhengdian_E203\sdk\dhrystone\Release/../application/dhry_1.c:153
#endif
  Begin_Instret =  csr_instret ( (long *) 0);
8000022c:	4501                	li	a0,0
E:\VMshare\e203\zhengdian_E203\sdk\dhrystone\Release/../application/dhry_1.c:151
  Begin_Time = time ( (long *) 0);
8000022e:	c47e                	sw	t6,8(sp)
80000230:	00cfa023          	sw	a2,0(t6)
E:\VMshare\e203\zhengdian_E203\sdk\dhrystone\Release/../application/dhry_1.c:153
  Begin_Instret =  csr_instret ( (long *) 0);
80000234:	788000ef          	jal	ra,800009bc <csr_instret>
80000238:	8aaa                	mv	s5,a0
E:\VMshare\e203\zhengdian_E203\sdk\dhrystone\Release/../application/dhry_1.c:154
  Begin_Cycle =  csr_cycle ( (long *) 0);
8000023a:	4501                	li	a0,0
8000023c:	87018b93          	addi	s7,gp,-1936 # 90000240 <Begin_Cycle>
E:\VMshare\e203\zhengdian_E203\sdk\dhrystone\Release/../application/dhry_1.c:153
  Begin_Instret =  csr_instret ( (long *) 0);
80000240:	8751aa23          	sw	s5,-1932(gp) # 90000244 <Begin_Instret>
E:\VMshare\e203\zhengdian_E203\sdk\dhrystone\Release/../application/dhry_1.c:154
  Begin_Cycle =  csr_cycle ( (long *) 0);
80000244:	74c000ef          	jal	ra,80000990 <csr_cycle>
80000248:	00aba023          	sw	a0,0(s7)
E:\VMshare\e203\zhengdian_E203\sdk\dhrystone\Release/../application/dhry_1.c:179
      Int_1_Loc += 1;
    } /* while */
      /* Int_1_Loc == 3, Int_2_Loc == 3, Int_3_Loc == 7 */
    Proc_8 (Arr_1_Glob, Arr_2_Glob, Int_1_Loc, Int_3_Loc);
      /* Int_Glob == 5 */
    Proc_1 (Ptr_Glob);
8000024c:	000c2d83          	lw	s11,0(s8)
E:\VMshare\e203\zhengdian_E203\sdk\dhrystone\Release/../application/dhry_1.c:156
  for (Run_Index = 1; Run_Index <= Number_Of_Runs; ++Run_Index)
80000250:	0007a2b7          	lui	t0,0x7a
E:\VMshare\e203\zhengdian_E203\sdk\dhrystone\Release/../application/dhry_1.c:154
  Begin_Cycle =  csr_cycle ( (long *) 0);
80000254:	c65e                	sw	s7,12(sp)
80000256:	88118b13          	addi	s6,gp,-1919 # 90000251 <Ch_2_Glob>
8000025a:	89418a93          	addi	s5,gp,-1900 # 90000264 <Int_Glob>
E:\VMshare\e203\zhengdian_E203\sdk\dhrystone\Release/../application/dhry_1.c:156
  for (Run_Index = 1; Run_Index <= Number_Of_Runs; ++Run_Index)
8000025e:	4485                	li	s1,1
80000260:	87c18b93          	addi	s7,gp,-1924 # 9000024c <Bool_Glob>
E:\VMshare\e203\zhengdian_E203\sdk\dhrystone\Release/../application/dhry_1.c:162
    Int_1_Loc = 2;
80000264:	4409                	li	s0,2
E:\VMshare\e203\zhengdian_E203\sdk\dhrystone\Release/../application/dhry_1.c:165
    Enum_Loc = Ident_2;
80000266:	4d05                	li	s10,1
E:\VMshare\e203\zhengdian_E203\sdk\dhrystone\Release/../application/dhry_1.c:180
    for (Ch_Index = 'A'; Ch_Index <= Ch_2_Glob; ++Ch_Index)
80000268:	04000c93          	li	s9,64
E:\VMshare\e203\zhengdian_E203\sdk\dhrystone\Release/../application/dhry_1.c:156
  for (Run_Index = 1; Run_Index <= Number_Of_Runs; ++Run_Index)
8000026c:	12128c13          	addi	s8,t0,289 # 7a121 <dhry_stubs.c.c3a4eb6e+0x76546>
E:\VMshare\e203\zhengdian_E203\sdk\dhrystone\Release/../application/dhry_1.c:159
    Proc_5();
80000270:	081000ef          	jal	ra,80000af0 <Proc_5.isra.0>
E:\VMshare\e203\zhengdian_E203\sdk\dhrystone\Release/../application/dhry_1.c:160
    Proc_4();
80000274:	08d000ef          	jal	ra,80000b00 <Proc_4.isra.0>
E:\VMshare\e203\zhengdian_E203\sdk\dhrystone\Release/../application/dhry_1.c:164
    strcpy (Str_2_Loc, "DHRYSTONE PROGRAM, 2'ND STRING");
80000278:	00007317          	auipc	t1,0x7
8000027c:	cb430793          	addi	a5,t1,-844 # 80006f2c <__extendsfdf2+0x744>
80000280:	0007a903          	lw	s2,0(a5)
80000284:	0047a383          	lw	t2,4(a5)
80000288:	0087af03          	lw	t5,8(a5)
8000028c:	00c7ae83          	lw	t4,12(a5)
80000290:	0107ae03          	lw	t3,16(a5)
80000294:	0147a983          	lw	s3,20(a5)
80000298:	0187a883          	lw	a7,24(a5)
8000029c:	01c7d703          	lhu	a4,28(a5)
800002a0:	01e7c803          	lbu	a6,30(a5)
E:\VMshare\e203\zhengdian_E203\sdk\dhrystone\Release/../application/dhry_1.c:166
    Bool_Glob = ! Func_2 (Str_1_Loc, Str_2_Loc);
800002a4:	100c                	addi	a1,sp,32
800002a6:	0088                	addi	a0,sp,64
E:\VMshare\e203\zhengdian_E203\sdk\dhrystone\Release/../application/dhry_1.c:162
    Int_1_Loc = 2;
800002a8:	ce22                	sw	s0,28(sp)
E:\VMshare\e203\zhengdian_E203\sdk\dhrystone\Release/../application/dhry_1.c:164
    strcpy (Str_2_Loc, "DHRYSTONE PROGRAM, 2'ND STRING");
800002aa:	d04a                	sw	s2,32(sp)
800002ac:	d21e                	sw	t2,36(sp)
800002ae:	d47a                	sw	t5,40(sp)
800002b0:	d676                	sw	t4,44(sp)
800002b2:	d872                	sw	t3,48(sp)
800002b4:	da4e                	sw	s3,52(sp)
800002b6:	dc46                	sw	a7,56(sp)
800002b8:	02e11e23          	sh	a4,60(sp)
800002bc:	03010f23          	sb	a6,62(sp)
E:\VMshare\e203\zhengdian_E203\sdk\dhrystone\Release/../application/dhry_1.c:165
    Enum_Loc = Ident_2;
800002c0:	ca6a                	sw	s10,20(sp)
E:\VMshare\e203\zhengdian_E203\sdk\dhrystone\Release/../application/dhry_1.c:166
    Bool_Glob = ! Func_2 (Str_1_Loc, Str_2_Loc);
800002c2:	297000ef          	jal	ra,80000d58 <Func_2>
800002c6:	85aa                	mv	a1,a0
E:\VMshare\e203\zhengdian_E203\sdk\dhrystone\Release/../application/dhry_1.c:168
    while (Int_1_Loc < Int_2_Loc)  /* loop body executed once */
800002c8:	4572                	lw	a0,28(sp)
E:\VMshare\e203\zhengdian_E203\sdk\dhrystone\Release/../application/dhry_1.c:166
    Bool_Glob = ! Func_2 (Str_1_Loc, Str_2_Loc);
800002ca:	0015b613          	seqz	a2,a1
800002ce:	00cba023          	sw	a2,0(s7)
E:\VMshare\e203\zhengdian_E203\sdk\dhrystone\Release/../application/dhry_1.c:168
    while (Int_1_Loc < Int_2_Loc)  /* loop body executed once */
800002d2:	02a44463          	blt	s0,a0,800002fa <main+0x23a>
800002d6:	0001                	nop
E:\VMshare\e203\zhengdian_E203\sdk\dhrystone\Release/../application/dhry_1.c:170
      Int_3_Loc = 5 * Int_1_Loc - Int_2_Loc;
800002d8:	00251093          	slli	ra,a0,0x2
800002dc:	00a08a33          	add	s4,ra,a0
800002e0:	ffda0f93          	addi	t6,s4,-3
E:\VMshare\e203\zhengdian_E203\sdk\dhrystone\Release/../application/dhry_1.c:172
      Proc_7 (Int_1_Loc, Int_2_Loc, &Int_3_Loc);
800002e4:	0830                	addi	a2,sp,24
800002e6:	458d                	li	a1,3
E:\VMshare\e203\zhengdian_E203\sdk\dhrystone\Release/../application/dhry_1.c:170
      Int_3_Loc = 5 * Int_1_Loc - Int_2_Loc;
800002e8:	cc7e                	sw	t6,24(sp)
E:\VMshare\e203\zhengdian_E203\sdk\dhrystone\Release/../application/dhry_1.c:172
      Proc_7 (Int_1_Loc, Int_2_Loc, &Int_3_Loc);
800002ea:	7f6000ef          	jal	ra,80000ae0 <Proc_7.isra.0>
E:\VMshare\e203\zhengdian_E203\sdk\dhrystone\Release/../application/dhry_1.c:174
      Int_1_Loc += 1;
800002ee:	46f2                	lw	a3,28(sp)
800002f0:	00168513          	addi	a0,a3,1
800002f4:	ce2a                	sw	a0,28(sp)
E:\VMshare\e203\zhengdian_E203\sdk\dhrystone\Release/../application/dhry_1.c:168
    while (Int_1_Loc < Int_2_Loc)  /* loop body executed once */
800002f6:	fea451e3          	bge	s0,a0,800002d8 <main+0x218>
E:\VMshare\e203\zhengdian_E203\sdk\dhrystone\Release/../application/dhry_1.c:177
    Proc_8 (Arr_1_Glob, Arr_2_Glob, Int_1_Loc, Int_3_Loc);
800002fa:	45e2                	lw	a1,24(sp)
800002fc:	708000ef          	jal	ra,80000a04 <Proc_8.constprop.0.isra.0>
E:\VMshare\e203\zhengdian_E203\sdk\dhrystone\Release/../application/dhry_1.c:179
    Proc_1 (Ptr_Glob);
80000300:	856e                	mv	a0,s11
80000302:	03f000ef          	jal	ra,80000b40 <Proc_1.isra.0>
E:\VMshare\e203\zhengdian_E203\sdk\dhrystone\Release/../application/dhry_1.c:180
    for (Ch_Index = 'A'; Ch_Index <= Ch_2_Glob; ++Ch_Index)
80000306:	000b4983          	lbu	s3,0(s6)
8000030a:	4b3cf363          	bgeu	s9,s3,800007b0 <main+0x6f0>
8000030e:	04100a13          	li	s4,65
E:\VMshare\e203\zhengdian_E203\sdk\dhrystone\Release/../application/dhry_1.c:163
    Int_2_Loc = 3;
80000312:	490d                	li	s2,3
80000314:	a801                	j	80000324 <main+0x264>
80000316:	0001                	nop
E:\VMshare\e203\zhengdian_E203\sdk\dhrystone\Release/../application/dhry_1.c:180 (discriminator 2)
    for (Ch_Index = 'A'; Ch_Index <= Ch_2_Glob; ++Ch_Index)
80000318:	001a0613          	addi	a2,s4,1
8000031c:	0ff67a13          	andi	s4,a2,255
80000320:	0749e863          	bltu	s3,s4,80000390 <main+0x2d0>
E:\VMshare\e203\zhengdian_E203\sdk\dhrystone\Release/../application/dhry_1.c:183
                             /* loop body executed twice */
    {
      if (Enum_Loc == Func_1 (Ch_Index, 'C'))
80000324:	04300593          	li	a1,67
80000328:	8552                	mv	a0,s4
8000032a:	25a9                	jal	80000974 <Func_1>
8000032c:	42d2                	lw	t0,20(sp)
8000032e:	fe5515e3          	bne	a0,t0,80000318 <main+0x258>
E:\VMshare\e203\zhengdian_E203\sdk\dhrystone\Release/../application/dhry_1.c:186
          /* then, not executed */
        {
        Proc_6 (Ident_1, &Enum_Loc);
80000332:	084c                	addi	a1,sp,20
80000334:	4501                	li	a0,0
80000336:	732000ef          	jal	ra,80000a68 <Proc_6.isra.0>
E:\VMshare\e203\zhengdian_E203\sdk\dhrystone\Release/../application/dhry_1.c:187
        strcpy (Str_2_Loc, "DHRYSTONE PROGRAM, 3'RD STRING");
8000033a:	00007517          	auipc	a0,0x7
8000033e:	c1250793          	addi	a5,a0,-1006 # 80006f4c <__extendsfdf2+0x764>
80000342:	0007a303          	lw	t1,0(a5)
80000346:	0047a383          	lw	t2,4(a5)
8000034a:	0087af03          	lw	t5,8(a5)
8000034e:	00c7ae83          	lw	t4,12(a5)
80000352:	0107ae03          	lw	t3,16(a5)
80000356:	0147a883          	lw	a7,20(a5)
8000035a:	0187a803          	lw	a6,24(a5)
8000035e:	01c7d703          	lhu	a4,28(a5)
80000362:	01e7c583          	lbu	a1,30(a5)
E:\VMshare\e203\zhengdian_E203\sdk\dhrystone\Release/../application/dhry_1.c:180
    for (Ch_Index = 'A'; Ch_Index <= Ch_2_Glob; ++Ch_Index)
80000366:	001a0613          	addi	a2,s4,1
E:\VMshare\e203\zhengdian_E203\sdk\dhrystone\Release/../application/dhry_1.c:187
        strcpy (Str_2_Loc, "DHRYSTONE PROGRAM, 3'RD STRING");
8000036a:	d01a                	sw	t1,32(sp)
8000036c:	d21e                	sw	t2,36(sp)
8000036e:	d47a                	sw	t5,40(sp)
80000370:	d676                	sw	t4,44(sp)
80000372:	d872                	sw	t3,48(sp)
80000374:	da46                	sw	a7,52(sp)
80000376:	dc42                	sw	a6,56(sp)
80000378:	02e11e23          	sh	a4,60(sp)
8000037c:	02b10f23          	sb	a1,62(sp)
E:\VMshare\e203\zhengdian_E203\sdk\dhrystone\Release/../application/dhry_1.c:189
        Int_2_Loc = Run_Index;
        Int_Glob = Run_Index;
80000380:	009aa023          	sw	s1,0(s5)
E:\VMshare\e203\zhengdian_E203\sdk\dhrystone\Release/../application/dhry_1.c:180
    for (Ch_Index = 'A'; Ch_Index <= Ch_2_Glob; ++Ch_Index)
80000384:	0ff67a13          	andi	s4,a2,255
E:\VMshare\e203\zhengdian_E203\sdk\dhrystone\Release/../application/dhry_1.c:189
        Int_Glob = Run_Index;
80000388:	8926                	mv	s2,s1
E:\VMshare\e203\zhengdian_E203\sdk\dhrystone\Release/../application/dhry_1.c:180
    for (Ch_Index = 'A'; Ch_Index <= Ch_2_Glob; ++Ch_Index)
8000038a:	f949fde3          	bgeu	s3,s4,80000324 <main+0x264>
8000038e:	0001                	nop
E:\VMshare\e203\zhengdian_E203\sdk\dhrystone\Release/../application/dhry_1.c:193 (discriminator 2)
        }
    }
      /* Int_1_Loc == 3, Int_2_Loc == 3, Int_3_Loc == 7 */
    Int_2_Loc = Int_2_Loc * Int_1_Loc;
80000390:	40f2                	lw	ra,28(sp)
E:\VMshare\e203\zhengdian_E203\sdk\dhrystone\Release/../application/dhry_1.c:194 (discriminator 2)
    Int_1_Loc = Int_2_Loc / Int_3_Loc;
80000392:	4a62                	lw	s4,24(sp)
E:\VMshare\e203\zhengdian_E203\sdk\dhrystone\Release/../application/dhry_1.c:156 (discriminator 2)
  for (Run_Index = 1; Run_Index <= Number_Of_Runs; ++Run_Index)
80000394:	0485                	addi	s1,s1,1
E:\VMshare\e203\zhengdian_E203\sdk\dhrystone\Release/../application/dhry_1.c:193 (discriminator 2)
    Int_2_Loc = Int_2_Loc * Int_1_Loc;
80000396:	02190933          	mul	s2,s2,ra
E:\VMshare\e203\zhengdian_E203\sdk\dhrystone\Release/../application/dhry_1.c:197 (discriminator 2)
    Int_2_Loc = 7 * (Int_2_Loc - Int_3_Loc) - Int_1_Loc;
      /* Int_1_Loc == 1, Int_2_Loc == 13, Int_3_Loc == 7 */
    Proc_2 (&Int_1_Loc);
8000039a:	0868                	addi	a0,sp,28
E:\VMshare\e203\zhengdian_E203\sdk\dhrystone\Release/../application/dhry_1.c:194 (discriminator 2)
    Int_1_Loc = Int_2_Loc / Int_3_Loc;
8000039c:	034949b3          	div	s3,s2,s4
800003a0:	ce4e                	sw	s3,28(sp)
E:\VMshare\e203\zhengdian_E203\sdk\dhrystone\Release/../application/dhry_1.c:197 (discriminator 2)
    Proc_2 (&Int_1_Loc);
800003a2:	0ab000ef          	jal	ra,80000c4c <Proc_2.isra.0>
E:\VMshare\e203\zhengdian_E203\sdk\dhrystone\Release/../application/dhry_1.c:156 (discriminator 2)
  for (Run_Index = 1; Run_Index <= Number_Of_Runs; ++Run_Index)
800003a6:	ed8495e3          	bne	s1,s8,80000270 <main+0x1b0>
E:\VMshare\e203\zhengdian_E203\sdk\dhrystone\Release/../application/dhry_1.c:205
  } /* loop "for Run_Index" */

  /**************/
  /* Stop timer */
  /**************/
  End_Cycle = csr_cycle ( (long *) 0);
800003aa:	4501                	li	a0,0
800003ac:	23d5                	jal	80000990 <csr_cycle>
800003ae:	8daa                	mv	s11,a0
800003b0:	88818d13          	addi	s10,gp,-1912 # 90000258 <End_Cycle>
E:\VMshare\e203\zhengdian_E203\sdk\dhrystone\Release/../application/dhry_1.c:212
#ifdef TIMES
  times (&time_info);
  End_Time = (long) time_info.tms_utime;
#endif
#ifdef TIME
  End_Time = time ( (long *) 0);
800003b4:	4501                	li	a0,0
E:\VMshare\e203\zhengdian_E203\sdk\dhrystone\Release/../application/dhry_1.c:205
  End_Cycle = csr_cycle ( (long *) 0);
800003b6:	01bd2023          	sw	s11,0(s10)
E:\VMshare\e203\zhengdian_E203\sdk\dhrystone\Release/../application/dhry_1.c:212
  End_Time = time ( (long *) 0);
800003ba:	253d                	jal	800009e8 <time>
800003bc:	89018493          	addi	s1,gp,-1904 # 90000260 <End_Time>
800003c0:	8caa                	mv	s9,a0
E:\VMshare\e203\zhengdian_E203\sdk\dhrystone\Release/../application/dhry_1.c:214
#endif
  End_Instret = csr_instret ( (long *) 0);
800003c2:	4501                	li	a0,0
E:\VMshare\e203\zhengdian_E203\sdk\dhrystone\Release/../application/dhry_1.c:212
  End_Time = time ( (long *) 0);
800003c4:	0194a023          	sw	s9,0(s1)
E:\VMshare\e203\zhengdian_E203\sdk\dhrystone\Release/../application/dhry_1.c:214
  End_Instret = csr_instret ( (long *) 0);
800003c8:	2bd5                	jal	800009bc <csr_instret>
E:\VMshare\e203\zhengdian_E203\sdk\dhrystone\Release/../application/dhry_1.c:216

  printf ("Execution ends\n");
800003ca:	00006697          	auipc	a3,0x6
E:\VMshare\e203\zhengdian_E203\sdk\dhrystone\Release/../application/dhry_1.c:214
  End_Instret = csr_instret ( (long *) 0);
800003ce:	8faa                	mv	t6,a0
E:\VMshare\e203\zhengdian_E203\sdk\dhrystone\Release/../application/dhry_1.c:216
  printf ("Execution ends\n");
800003d0:	66668513          	addi	a0,a3,1638 # 80006a30 <__extendsfdf2+0x248>
E:\VMshare\e203\zhengdian_E203\sdk\dhrystone\Release/../application/dhry_1.c:214
  End_Instret = csr_instret ( (long *) 0);
800003d4:	89f1a623          	sw	t6,-1908(gp) # 9000025c <End_Instret>
E:\VMshare\e203\zhengdian_E203\sdk\dhrystone\Release/../application/dhry_1.c:216
  printf ("Execution ends\n");
800003d8:	2cf010ef          	jal	ra,80001ea6 <iprintf>
E:\VMshare\e203\zhengdian_E203\sdk\dhrystone\Release/../application/dhry_1.c:217
  printf ("\n");
800003dc:	00007517          	auipc	a0,0x7
800003e0:	ab850513          	addi	a0,a0,-1352 # 80006e94 <__extendsfdf2+0x6ac>
800003e4:	2c3010ef          	jal	ra,80001ea6 <iprintf>
E:\VMshare\e203\zhengdian_E203\sdk\dhrystone\Release/../application/dhry_1.c:218
  printf ("Final values of the variables used in the benchmark:\n");
800003e8:	00006797          	auipc	a5,0x6
800003ec:	65878513          	addi	a0,a5,1624 # 80006a40 <__extendsfdf2+0x258>
800003f0:	2b7010ef          	jal	ra,80001ea6 <iprintf>
E:\VMshare\e203\zhengdian_E203\sdk\dhrystone\Release/../application/dhry_1.c:219
  printf ("\n");
800003f4:	00007317          	auipc	t1,0x7
800003f8:	aa030513          	addi	a0,t1,-1376 # 80006e94 <__extendsfdf2+0x6ac>
800003fc:	2ab010ef          	jal	ra,80001ea6 <iprintf>
E:\VMshare\e203\zhengdian_E203\sdk\dhrystone\Release/../application/dhry_1.c:220
  printf ("Int_Glob:            %d\n", Int_Glob);
80000400:	000aa583          	lw	a1,0(s5)
80000404:	00006a97          	auipc	s5,0x6
80000408:	674a8513          	addi	a0,s5,1652 # 80006a78 <__extendsfdf2+0x290>
8000040c:	29b010ef          	jal	ra,80001ea6 <iprintf>
E:\VMshare\e203\zhengdian_E203\sdk\dhrystone\Release/../application/dhry_1.c:221
  printf ("        should be:   %d\n", 5);
80000410:	00006397          	auipc	t2,0x6
80000414:	68438513          	addi	a0,t2,1668 # 80006a94 <__extendsfdf2+0x2ac>
80000418:	4595                	li	a1,5
8000041a:	28d010ef          	jal	ra,80001ea6 <iprintf>
E:\VMshare\e203\zhengdian_E203\sdk\dhrystone\Release/../application/dhry_1.c:222
  printf ("Bool_Glob:           %d\n", Bool_Glob);
8000041e:	000ba583          	lw	a1,0(s7)
80000422:	00006b97          	auipc	s7,0x6
80000426:	68eb8513          	addi	a0,s7,1678 # 80006ab0 <__extendsfdf2+0x2c8>
8000042a:	27d010ef          	jal	ra,80001ea6 <iprintf>
E:\VMshare\e203\zhengdian_E203\sdk\dhrystone\Release/../application/dhry_1.c:223
  printf ("        should be:   %d\n", 1);
8000042e:	00006f17          	auipc	t5,0x6
80000432:	666f0513          	addi	a0,t5,1638 # 80006a94 <__extendsfdf2+0x2ac>
80000436:	4585                	li	a1,1
80000438:	26f010ef          	jal	ra,80001ea6 <iprintf>
E:\VMshare\e203\zhengdian_E203\sdk\dhrystone\Release/../application/dhry_1.c:224
  printf ("Ch_1_Glob:           %c\n", Ch_1_Glob);
8000043c:	8801c583          	lbu	a1,-1920(gp) # 90000250 <Ch_1_Glob>
80000440:	00006e17          	auipc	t3,0x6
80000444:	68ce0513          	addi	a0,t3,1676 # 80006acc <__extendsfdf2+0x2e4>
80000448:	25f010ef          	jal	ra,80001ea6 <iprintf>
E:\VMshare\e203\zhengdian_E203\sdk\dhrystone\Release/../application/dhry_1.c:225
  printf ("        should be:   %c\n", 'A');
8000044c:	00006897          	auipc	a7,0x6
80000450:	69c88513          	addi	a0,a7,1692 # 80006ae8 <__extendsfdf2+0x300>
80000454:	04100593          	li	a1,65
80000458:	24f010ef          	jal	ra,80001ea6 <iprintf>
E:\VMshare\e203\zhengdian_E203\sdk\dhrystone\Release/../application/dhry_1.c:226
  printf ("Ch_2_Glob:           %c\n", Ch_2_Glob);
8000045c:	000b4583          	lbu	a1,0(s6)
80000460:	00006b17          	auipc	s6,0x6
80000464:	6a4b0513          	addi	a0,s6,1700 # 80006b04 <__extendsfdf2+0x31c>
80000468:	23f010ef          	jal	ra,80001ea6 <iprintf>
E:\VMshare\e203\zhengdian_E203\sdk\dhrystone\Release/../application/dhry_1.c:227
  printf ("        should be:   %c\n", 'B');
8000046c:	00006817          	auipc	a6,0x6
80000470:	67c80513          	addi	a0,a6,1660 # 80006ae8 <__extendsfdf2+0x300>
80000474:	04200593          	li	a1,66
80000478:	22f010ef          	jal	ra,80001ea6 <iprintf>
E:\VMshare\e203\zhengdian_E203\sdk\dhrystone\Release/../application/dhry_1.c:228
  printf ("Arr_1_Glob[8]:       %d\n", Arr_1_Glob[8]);
8000047c:	8b418593          	addi	a1,gp,-1868 # 90000284 <Arr_1_Glob>
80000480:	518c                	lw	a1,32(a1)
80000482:	00006617          	auipc	a2,0x6
80000486:	69e60513          	addi	a0,a2,1694 # 80006b20 <__extendsfdf2+0x338>
8000048a:	21d010ef          	jal	ra,80001ea6 <iprintf>
E:\VMshare\e203\zhengdian_E203\sdk\dhrystone\Release/../application/dhry_1.c:229
  printf ("        should be:   %d\n", 7);
8000048e:	00006d97          	auipc	s11,0x6
80000492:	459d                	li	a1,7
80000494:	606d8513          	addi	a0,s11,1542 # 80006a94 <__extendsfdf2+0x2ac>
E:\VMshare\e203\zhengdian_E203\sdk\dhrystone\Release/../application/dhry_1.c:230
  printf ("Arr_2_Glob[8][7]:    %d\n", Arr_2_Glob[8][7]);
80000498:	10000417          	auipc	s0,0x10000
E:\VMshare\e203\zhengdian_E203\sdk\dhrystone\Release/../application/dhry_1.c:229
  printf ("        should be:   %d\n", 7);
8000049c:	20b010ef          	jal	ra,80001ea6 <iprintf>
E:\VMshare\e203\zhengdian_E203\sdk\dhrystone\Release/../application/dhry_1.c:230
  printf ("Arr_2_Glob[8][7]:    %d\n", Arr_2_Glob[8][7]);
800004a0:	eb440c93          	addi	s9,s0,-332 # 9000034c <Arr_2_Glob>
800004a4:	65cca583          	lw	a1,1628(s9)
800004a8:	00006c17          	auipc	s8,0x6
800004ac:	694c0513          	addi	a0,s8,1684 # 80006b3c <__extendsfdf2+0x354>
800004b0:	1f7010ef          	jal	ra,80001ea6 <iprintf>
E:\VMshare\e203\zhengdian_E203\sdk\dhrystone\Release/../application/dhry_1.c:231
  printf ("        should be:   Number_Of_Runs + 10\n");
800004b4:	00006f97          	auipc	t6,0x6
800004b8:	6a4f8513          	addi	a0,t6,1700 # 80006b58 <__extendsfdf2+0x370>
800004bc:	1eb010ef          	jal	ra,80001ea6 <iprintf>
E:\VMshare\e203\zhengdian_E203\sdk\dhrystone\Release/../application/dhry_1.c:232
  printf ("Ptr_Glob->\n");
800004c0:	00006697          	auipc	a3,0x6
800004c4:	6c468513          	addi	a0,a3,1732 # 80006b84 <__extendsfdf2+0x39c>
800004c8:	1df010ef          	jal	ra,80001ea6 <iprintf>
E:\VMshare\e203\zhengdian_E203\sdk\dhrystone\Release/../application/dhry_1.c:233
  printf ("  Ptr_Comp:          %d\n", (int) Ptr_Glob->Ptr_Comp);
800004cc:	4a82                	lw	s5,0(sp)
800004ce:	00006517          	auipc	a0,0x6
800004d2:	6c250513          	addi	a0,a0,1730 # 80006b90 <__extendsfdf2+0x3a8>
800004d6:	000aa283          	lw	t0,0(s5)
E:\VMshare\e203\zhengdian_E203\sdk\dhrystone\Release/../application/dhry_1.c:236
  printf ("        should be:   (implementation-dependent)\n");
  printf ("  Discr:             %d\n", Ptr_Glob->Discr);
  printf ("        should be:   %d\n", 0);
800004da:	00006b97          	auipc	s7,0x6
E:\VMshare\e203\zhengdian_E203\sdk\dhrystone\Release/../application/dhry_1.c:239
  printf ("  Enum_Comp:         %d\n", Ptr_Glob->variant.var_1.Enum_Comp);
  printf ("        should be:   %d\n", 2);
  printf ("  Int_Comp:          %d\n", Ptr_Glob->variant.var_1.Int_Comp);
800004de:	00006b17          	auipc	s6,0x6
E:\VMshare\e203\zhengdian_E203\sdk\dhrystone\Release/../application/dhry_1.c:233
  printf ("  Ptr_Comp:          %d\n", (int) Ptr_Glob->Ptr_Comp);
800004e2:	0002a583          	lw	a1,0(t0)
E:\VMshare\e203\zhengdian_E203\sdk\dhrystone\Release/../application/dhry_1.c:243
  printf ("        should be:   %d\n", 17);
  printf ("  Str_Comp:          %s\n", Ptr_Glob->variant.var_1.Str_Comp);
  printf ("        should be:   DHRYSTONE PROGRAM, SOME STRING\n");
  printf ("Next_Ptr_Glob->\n");
800004e6:	00006d97          	auipc	s11,0x6
E:\VMshare\e203\zhengdian_E203\sdk\dhrystone\Release/../application/dhry_1.c:244
  printf ("  Ptr_Comp:          %d\n", (int) Next_Ptr_Glob->Ptr_Comp);
800004ea:	00006c17          	auipc	s8,0x6
E:\VMshare\e203\zhengdian_E203\sdk\dhrystone\Release/../application/dhry_1.c:233
  printf ("  Ptr_Comp:          %d\n", (int) Ptr_Glob->Ptr_Comp);
800004ee:	1b9010ef          	jal	ra,80001ea6 <iprintf>
E:\VMshare\e203\zhengdian_E203\sdk\dhrystone\Release/../application/dhry_1.c:234
  printf ("        should be:   (implementation-dependent)\n");
800004f2:	00006797          	auipc	a5,0x6
800004f6:	6ba78513          	addi	a0,a5,1722 # 80006bac <__extendsfdf2+0x3c4>
800004fa:	1ad010ef          	jal	ra,80001ea6 <iprintf>
E:\VMshare\e203\zhengdian_E203\sdk\dhrystone\Release/../application/dhry_1.c:235
  printf ("  Discr:             %d\n", Ptr_Glob->Discr);
800004fe:	000aa303          	lw	t1,0(s5)
80000502:	00006397          	auipc	t2,0x6
80000506:	6de38513          	addi	a0,t2,1758 # 80006be0 <__extendsfdf2+0x3f8>
8000050a:	00432583          	lw	a1,4(t1)
E:\VMshare\e203\zhengdian_E203\sdk\dhrystone\Release/../application/dhry_1.c:195
    Int_2_Loc = 7 * (Int_2_Loc - Int_3_Loc) - Int_1_Loc;
8000050e:	41490a33          	sub	s4,s2,s4
80000512:	003a1913          	slli	s2,s4,0x3
E:\VMshare\e203\zhengdian_E203\sdk\dhrystone\Release/../application/dhry_1.c:235
  printf ("  Discr:             %d\n", Ptr_Glob->Discr);
80000516:	191010ef          	jal	ra,80001ea6 <iprintf>
E:\VMshare\e203\zhengdian_E203\sdk\dhrystone\Release/../application/dhry_1.c:236
  printf ("        should be:   %d\n", 0);
8000051a:	4581                	li	a1,0
8000051c:	5bab8513          	addi	a0,s7,1466 # 80006a94 <__extendsfdf2+0x2ac>
80000520:	187010ef          	jal	ra,80001ea6 <iprintf>
E:\VMshare\e203\zhengdian_E203\sdk\dhrystone\Release/../application/dhry_1.c:237
  printf ("  Enum_Comp:         %d\n", Ptr_Glob->variant.var_1.Enum_Comp);
80000524:	000aaf03          	lw	t5,0(s5)
80000528:	00006e97          	auipc	t4,0x6
8000052c:	6d4e8513          	addi	a0,t4,1748 # 80006bfc <__extendsfdf2+0x414>
80000530:	008f2583          	lw	a1,8(t5)
E:\VMshare\e203\zhengdian_E203\sdk\dhrystone\Release/../application/dhry_1.c:250
  printf ("        should be:   (implementation-dependent), same as above\n");
  printf ("  Discr:             %d\n", Next_Ptr_Glob->Discr);
  printf ("        should be:   %d\n", 0);
  printf ("  Enum_Comp:         %d\n", Next_Ptr_Glob->variant.var_1.Enum_Comp);
  printf ("        should be:   %d\n", 1);
  printf ("  Int_Comp:          %d\n", Next_Ptr_Glob->variant.var_1.Int_Comp);
80000534:	00006b97          	auipc	s7,0x6
E:\VMshare\e203\zhengdian_E203\sdk\dhrystone\Release/../application/dhry_1.c:237
  printf ("  Enum_Comp:         %d\n", Ptr_Glob->variant.var_1.Enum_Comp);
80000538:	16f010ef          	jal	ra,80001ea6 <iprintf>
E:\VMshare\e203\zhengdian_E203\sdk\dhrystone\Release/../application/dhry_1.c:238
  printf ("        should be:   %d\n", 2);
8000053c:	00006e17          	auipc	t3,0x6
80000540:	558e0513          	addi	a0,t3,1368 # 80006a94 <__extendsfdf2+0x2ac>
80000544:	4589                	li	a1,2
80000546:	161010ef          	jal	ra,80001ea6 <iprintf>
E:\VMshare\e203\zhengdian_E203\sdk\dhrystone\Release/../application/dhry_1.c:239
  printf ("  Int_Comp:          %d\n", Ptr_Glob->variant.var_1.Int_Comp);
8000054a:	000aa883          	lw	a7,0(s5)
8000054e:	73ab0513          	addi	a0,s6,1850 # 80006c18 <__extendsfdf2+0x430>
E:\VMshare\e203\zhengdian_E203\sdk\dhrystone\Release/../application/dhry_1.c:255
  printf ("        should be:   %d\n", 18);
  printf ("  Str_Comp:          %s\n",
                                Next_Ptr_Glob->variant.var_1.Str_Comp);
  printf ("        should be:   DHRYSTONE PROGRAM, SOME STRING\n");
  printf ("Int_1_Loc:           %d\n", Int_1_Loc);
80000552:	00006b17          	auipc	s6,0x6
E:\VMshare\e203\zhengdian_E203\sdk\dhrystone\Release/../application/dhry_1.c:239
  printf ("  Int_Comp:          %d\n", Ptr_Glob->variant.var_1.Int_Comp);
80000556:	00c8a583          	lw	a1,12(a7)
8000055a:	14d010ef          	jal	ra,80001ea6 <iprintf>
E:\VMshare\e203\zhengdian_E203\sdk\dhrystone\Release/../application/dhry_1.c:240
  printf ("        should be:   %d\n", 17);
8000055e:	00006817          	auipc	a6,0x6
80000562:	53680513          	addi	a0,a6,1334 # 80006a94 <__extendsfdf2+0x2ac>
80000566:	45c5                	li	a1,17
80000568:	13f010ef          	jal	ra,80001ea6 <iprintf>
E:\VMshare\e203\zhengdian_E203\sdk\dhrystone\Release/../application/dhry_1.c:241
  printf ("  Str_Comp:          %s\n", Ptr_Glob->variant.var_1.Str_Comp);
8000056c:	000aa703          	lw	a4,0(s5)
80000570:	00006597          	auipc	a1,0x6
80000574:	6c458513          	addi	a0,a1,1732 # 80006c34 <__extendsfdf2+0x44c>
80000578:	01070593          	addi	a1,a4,16
8000057c:	12b010ef          	jal	ra,80001ea6 <iprintf>
E:\VMshare\e203\zhengdian_E203\sdk\dhrystone\Release/../application/dhry_1.c:242
  printf ("        should be:   DHRYSTONE PROGRAM, SOME STRING\n");
80000580:	00006617          	auipc	a2,0x6
80000584:	6d060513          	addi	a0,a2,1744 # 80006c50 <__extendsfdf2+0x468>
80000588:	11f010ef          	jal	ra,80001ea6 <iprintf>
E:\VMshare\e203\zhengdian_E203\sdk\dhrystone\Release/../application/dhry_1.c:243
  printf ("Next_Ptr_Glob->\n");
8000058c:	7a2d8513          	addi	a0,s11,1954 # 80006c88 <__extendsfdf2+0x4a0>
80000590:	117010ef          	jal	ra,80001ea6 <iprintf>
E:\VMshare\e203\zhengdian_E203\sdk\dhrystone\Release/../application/dhry_1.c:244
  printf ("  Ptr_Comp:          %d\n", (int) Next_Ptr_Glob->Ptr_Comp);
80000594:	4412                	lw	s0,4(sp)
80000596:	6a6c0513          	addi	a0,s8,1702 # 80006b90 <__extendsfdf2+0x3a8>
E:\VMshare\e203\zhengdian_E203\sdk\dhrystone\Release/../application/dhry_1.c:246
  printf ("  Discr:             %d\n", Next_Ptr_Glob->Discr);
8000059a:	00006a97          	auipc	s5,0x6
E:\VMshare\e203\zhengdian_E203\sdk\dhrystone\Release/../application/dhry_1.c:244
  printf ("  Ptr_Comp:          %d\n", (int) Next_Ptr_Glob->Ptr_Comp);
8000059e:	00042c83          	lw	s9,0(s0)
E:\VMshare\e203\zhengdian_E203\sdk\dhrystone\Release/../application/dhry_1.c:259
  printf ("        should be:   %d\n", 5);
  printf ("Int_2_Loc:           %d\n", Int_2_Loc);
  printf ("        should be:   %d\n", 13);
  printf ("Int_3_Loc:           %d\n", Int_3_Loc);
800005a2:	00006d97          	auipc	s11,0x6
E:\VMshare\e203\zhengdian_E203\sdk\dhrystone\Release/../application/dhry_1.c:262
  printf ("        should be:   %d\n", 7);
  printf ("Enum_Loc:            %d\n", Enum_Loc);
  printf ("        should be:   %d\n", 1);
800005a6:	00006c17          	auipc	s8,0x6
E:\VMshare\e203\zhengdian_E203\sdk\dhrystone\Release/../application/dhry_1.c:244
  printf ("  Ptr_Comp:          %d\n", (int) Next_Ptr_Glob->Ptr_Comp);
800005aa:	000ca583          	lw	a1,0(s9)
E:\VMshare\e203\zhengdian_E203\sdk\dhrystone\Release/../application/dhry_1.c:261
  printf ("Enum_Loc:            %d\n", Enum_Loc);
800005ae:	00006c97          	auipc	s9,0x6
E:\VMshare\e203\zhengdian_E203\sdk\dhrystone\Release/../application/dhry_1.c:244
  printf ("  Ptr_Comp:          %d\n", (int) Next_Ptr_Glob->Ptr_Comp);
800005b2:	0f5010ef          	jal	ra,80001ea6 <iprintf>
E:\VMshare\e203\zhengdian_E203\sdk\dhrystone\Release/../application/dhry_1.c:245
  printf ("        should be:   (implementation-dependent), same as above\n");
800005b6:	00006f97          	auipc	t6,0x6
800005ba:	6e6f8513          	addi	a0,t6,1766 # 80006c9c <__extendsfdf2+0x4b4>
800005be:	0e9010ef          	jal	ra,80001ea6 <iprintf>
E:\VMshare\e203\zhengdian_E203\sdk\dhrystone\Release/../application/dhry_1.c:246
  printf ("  Discr:             %d\n", Next_Ptr_Glob->Discr);
800005c2:	4014                	lw	a3,0(s0)
800005c4:	646a8513          	addi	a0,s5,1606 # 80006be0 <__extendsfdf2+0x3f8>
E:\VMshare\e203\zhengdian_E203\sdk\dhrystone\Release/../application/dhry_1.c:266
  printf ("Str_1_Loc:           %s\n", Str_1_Loc);
  printf ("        should be:   DHRYSTONE PROGRAM, 1'ST STRING\n");
  printf ("Str_2_Loc:           %s\n", Str_2_Loc);
  printf ("        should be:   DHRYSTONE PROGRAM, 2'ND STRING\n");
800005c8:	00006a97          	auipc	s5,0x6
E:\VMshare\e203\zhengdian_E203\sdk\dhrystone\Release/../application/dhry_1.c:246
  printf ("  Discr:             %d\n", Next_Ptr_Glob->Discr);
800005cc:	42cc                	lw	a1,4(a3)
800005ce:	0d9010ef          	jal	ra,80001ea6 <iprintf>
E:\VMshare\e203\zhengdian_E203\sdk\dhrystone\Release/../application/dhry_1.c:247
  printf ("        should be:   %d\n", 0);
800005d2:	00006297          	auipc	t0,0x6
800005d6:	4c228513          	addi	a0,t0,1218 # 80006a94 <__extendsfdf2+0x2ac>
800005da:	4581                	li	a1,0
800005dc:	0cb010ef          	jal	ra,80001ea6 <iprintf>
E:\VMshare\e203\zhengdian_E203\sdk\dhrystone\Release/../application/dhry_1.c:248
  printf ("  Enum_Comp:         %d\n", Next_Ptr_Glob->variant.var_1.Enum_Comp);
800005e0:	401c                	lw	a5,0(s0)
800005e2:	00006517          	auipc	a0,0x6
800005e6:	61a50513          	addi	a0,a0,1562 # 80006bfc <__extendsfdf2+0x414>
800005ea:	478c                	lw	a1,8(a5)
800005ec:	0bb010ef          	jal	ra,80001ea6 <iprintf>
E:\VMshare\e203\zhengdian_E203\sdk\dhrystone\Release/../application/dhry_1.c:249
  printf ("        should be:   %d\n", 1);
800005f0:	00006317          	auipc	t1,0x6
800005f4:	4a430513          	addi	a0,t1,1188 # 80006a94 <__extendsfdf2+0x2ac>
800005f8:	4585                	li	a1,1
800005fa:	0ad010ef          	jal	ra,80001ea6 <iprintf>
E:\VMshare\e203\zhengdian_E203\sdk\dhrystone\Release/../application/dhry_1.c:250
  printf ("  Int_Comp:          %d\n", Next_Ptr_Glob->variant.var_1.Int_Comp);
800005fe:	00042383          	lw	t2,0(s0)
80000602:	6e4b8513          	addi	a0,s7,1764 # 80006c18 <__extendsfdf2+0x430>
80000606:	00c3a583          	lw	a1,12(t2)
8000060a:	09d010ef          	jal	ra,80001ea6 <iprintf>
E:\VMshare\e203\zhengdian_E203\sdk\dhrystone\Release/../application/dhry_1.c:251
  printf ("        should be:   %d\n", 18);
8000060e:	00006f17          	auipc	t5,0x6
80000612:	486f0513          	addi	a0,t5,1158 # 80006a94 <__extendsfdf2+0x2ac>
80000616:	45c9                	li	a1,18
80000618:	08f010ef          	jal	ra,80001ea6 <iprintf>
E:\VMshare\e203\zhengdian_E203\sdk\dhrystone\Release/../application/dhry_1.c:253
                                Next_Ptr_Glob->variant.var_1.Str_Comp);
8000061c:	00042e83          	lw	t4,0(s0)
E:\VMshare\e203\zhengdian_E203\sdk\dhrystone\Release/../application/dhry_1.c:252
  printf ("  Str_Comp:          %s\n",
80000620:	00006e17          	auipc	t3,0x6
80000624:	614e0513          	addi	a0,t3,1556 # 80006c34 <__extendsfdf2+0x44c>
80000628:	010e8593          	addi	a1,t4,16
8000062c:	07b010ef          	jal	ra,80001ea6 <iprintf>
E:\VMshare\e203\zhengdian_E203\sdk\dhrystone\Release/../application/dhry_1.c:254
  printf ("        should be:   DHRYSTONE PROGRAM, SOME STRING\n");
80000630:	00006897          	auipc	a7,0x6
80000634:	62088513          	addi	a0,a7,1568 # 80006c50 <__extendsfdf2+0x468>
80000638:	06f010ef          	jal	ra,80001ea6 <iprintf>
E:\VMshare\e203\zhengdian_E203\sdk\dhrystone\Release/../application/dhry_1.c:255
  printf ("Int_1_Loc:           %d\n", Int_1_Loc);
8000063c:	45f2                	lw	a1,28(sp)
8000063e:	78ab0513          	addi	a0,s6,1930 # 80006cdc <__extendsfdf2+0x4f4>
E:\VMshare\e203\zhengdian_E203\sdk\dhrystone\Release/../application/dhry_1.c:260
  printf ("        should be:   %d\n", 7);
80000642:	00006417          	auipc	s0,0x6
E:\VMshare\e203\zhengdian_E203\sdk\dhrystone\Release/../application/dhry_1.c:255
  printf ("Int_1_Loc:           %d\n", Int_1_Loc);
80000646:	061010ef          	jal	ra,80001ea6 <iprintf>
E:\VMshare\e203\zhengdian_E203\sdk\dhrystone\Release/../application/dhry_1.c:256
  printf ("        should be:   %d\n", 5);
8000064a:	00006817          	auipc	a6,0x6
8000064e:	44a80513          	addi	a0,a6,1098 # 80006a94 <__extendsfdf2+0x2ac>
80000652:	4595                	li	a1,5
80000654:	053010ef          	jal	ra,80001ea6 <iprintf>
E:\VMshare\e203\zhengdian_E203\sdk\dhrystone\Release/../application/dhry_1.c:195
    Int_2_Loc = 7 * (Int_2_Loc - Int_3_Loc) - Int_1_Loc;
80000658:	41490733          	sub	a4,s2,s4
E:\VMshare\e203\zhengdian_E203\sdk\dhrystone\Release/../application/dhry_1.c:257
  printf ("Int_2_Loc:           %d\n", Int_2_Loc);
8000065c:	00006617          	auipc	a2,0x6
80000660:	413705b3          	sub	a1,a4,s3
80000664:	69c60513          	addi	a0,a2,1692 # 80006cf8 <__extendsfdf2+0x510>
80000668:	03f010ef          	jal	ra,80001ea6 <iprintf>
E:\VMshare\e203\zhengdian_E203\sdk\dhrystone\Release/../application/dhry_1.c:258
  printf ("        should be:   %d\n", 13);
8000066c:	00006997          	auipc	s3,0x6
80000670:	45b5                	li	a1,13
80000672:	42898513          	addi	a0,s3,1064 # 80006a94 <__extendsfdf2+0x2ac>
80000676:	031010ef          	jal	ra,80001ea6 <iprintf>
E:\VMshare\e203\zhengdian_E203\sdk\dhrystone\Release/../application/dhry_1.c:259
  printf ("Int_3_Loc:           %d\n", Int_3_Loc);
8000067a:	45e2                	lw	a1,24(sp)
8000067c:	772d8513          	addi	a0,s11,1906 # 80006d14 <__extendsfdf2+0x52c>
E:\VMshare\e203\zhengdian_E203\sdk\dhrystone\Release/../application/dhry_1.c:271
  printf ("\n");

  User_Time = End_Time - Begin_Time;
  User_Instret = End_Instret - Begin_Instret;
  User_Cycle = End_Cycle - Begin_Cycle;
80000680:	8a018b13          	addi	s6,gp,-1888 # 90000270 <User_Cycle>
E:\VMshare\e203\zhengdian_E203\sdk\dhrystone\Release/../application/dhry_1.c:259
  printf ("Int_3_Loc:           %d\n", Int_3_Loc);
80000684:	023010ef          	jal	ra,80001ea6 <iprintf>
E:\VMshare\e203\zhengdian_E203\sdk\dhrystone\Release/../application/dhry_1.c:260
  printf ("        should be:   %d\n", 7);
80000688:	459d                	li	a1,7
8000068a:	45240513          	addi	a0,s0,1106 # 80006a94 <__extendsfdf2+0x2ac>
8000068e:	019010ef          	jal	ra,80001ea6 <iprintf>
E:\VMshare\e203\zhengdian_E203\sdk\dhrystone\Release/../application/dhry_1.c:261
  printf ("Enum_Loc:            %d\n", Enum_Loc);
80000692:	45d2                	lw	a1,20(sp)
80000694:	782c8513          	addi	a0,s9,1922 # 80006d30 <__extendsfdf2+0x548>
80000698:	00f010ef          	jal	ra,80001ea6 <iprintf>
E:\VMshare\e203\zhengdian_E203\sdk\dhrystone\Release/../application/dhry_1.c:262
  printf ("        should be:   %d\n", 1);
8000069c:	4585                	li	a1,1
8000069e:	4eec0513          	addi	a0,s8,1262 # 80006a94 <__extendsfdf2+0x2ac>
800006a2:	005010ef          	jal	ra,80001ea6 <iprintf>
E:\VMshare\e203\zhengdian_E203\sdk\dhrystone\Release/../application/dhry_1.c:263
  printf ("Str_1_Loc:           %s\n", Str_1_Loc);
800006a6:	00006f97          	auipc	t6,0x6
800006aa:	6a6f8513          	addi	a0,t6,1702 # 80006d4c <__extendsfdf2+0x564>
800006ae:	008c                	addi	a1,sp,64
800006b0:	7f6010ef          	jal	ra,80001ea6 <iprintf>
E:\VMshare\e203\zhengdian_E203\sdk\dhrystone\Release/../application/dhry_1.c:264
  printf ("        should be:   DHRYSTONE PROGRAM, 1'ST STRING\n");
800006b4:	00006597          	auipc	a1,0x6
800006b8:	6b458513          	addi	a0,a1,1716 # 80006d68 <__extendsfdf2+0x580>
800006bc:	7ea010ef          	jal	ra,80001ea6 <iprintf>
E:\VMshare\e203\zhengdian_E203\sdk\dhrystone\Release/../application/dhry_1.c:265
  printf ("Str_2_Loc:           %s\n", Str_2_Loc);
800006c0:	00006697          	auipc	a3,0x6
800006c4:	100c                	addi	a1,sp,32
800006c6:	6e068513          	addi	a0,a3,1760 # 80006da0 <__extendsfdf2+0x5b8>
800006ca:	7dc010ef          	jal	ra,80001ea6 <iprintf>
E:\VMshare\e203\zhengdian_E203\sdk\dhrystone\Release/../application/dhry_1.c:266
  printf ("        should be:   DHRYSTONE PROGRAM, 2'ND STRING\n");
800006ce:	7f4a8513          	addi	a0,s5,2036 # 80006dbc <__extendsfdf2+0x5d4>
800006d2:	7d4010ef          	jal	ra,80001ea6 <iprintf>
E:\VMshare\e203\zhengdian_E203\sdk\dhrystone\Release/../application/dhry_1.c:267
  printf ("\n");
800006d6:	00006297          	auipc	t0,0x6
800006da:	7be28513          	addi	a0,t0,1982 # 80006e94 <__extendsfdf2+0x6ac>
800006de:	7c8010ef          	jal	ra,80001ea6 <iprintf>
E:\VMshare\e203\zhengdian_E203\sdk\dhrystone\Release/../application/dhry_1.c:271
  User_Cycle = End_Cycle - Begin_Cycle;
800006e2:	47b2                	lw	a5,12(sp)
E:\VMshare\e203\zhengdian_E203\sdk\dhrystone\Release/../application/dhry_1.c:269
  User_Time = End_Time - Begin_Time;
800006e4:	0004a303          	lw	t1,0(s1)
800006e8:	44a2                	lw	s1,8(sp)
E:\VMshare\e203\zhengdian_E203\sdk\dhrystone\Release/../application/dhry_1.c:271
  User_Cycle = End_Cycle - Begin_Cycle;
800006ea:	000d2d03          	lw	s10,0(s10)
800006ee:	4388                	lw	a0,0(a5)
E:\VMshare\e203\zhengdian_E203\sdk\dhrystone\Release/../application/dhry_1.c:269
  User_Time = End_Time - Begin_Time;
800006f0:	0004a383          	lw	t2,0(s1)
E:\VMshare\e203\zhengdian_E203\sdk\dhrystone\Release/../application/dhry_1.c:276

#ifdef CFG_SIMULATION
  if (0)
#else
  if (User_Time < Too_Small_Time)
800006f4:	4e85                	li	t4,1
E:\VMshare\e203\zhengdian_E203\sdk\dhrystone\Release/../application/dhry_1.c:271
  User_Cycle = End_Cycle - Begin_Cycle;
800006f6:	40ad0533          	sub	a0,s10,a0
E:\VMshare\e203\zhengdian_E203\sdk\dhrystone\Release/../application/dhry_1.c:269
  User_Time = End_Time - Begin_Time;
800006fa:	40730f33          	sub	t5,t1,t2
E:\VMshare\e203\zhengdian_E203\sdk\dhrystone\Release/../application/dhry_1.c:271
  User_Cycle = End_Cycle - Begin_Cycle;
800006fe:	00ab2023          	sw	a0,0(s6)
E:\VMshare\e203\zhengdian_E203\sdk\dhrystone\Release/../application/dhry_1.c:276
  if (User_Time < Too_Small_Time)
80000702:	0beed963          	bge	t4,t5,800007b4 <main+0x6f4>
E:\VMshare\e203\zhengdian_E203\sdk\dhrystone\Release/../application/dhry_1.c:305
    //printf ("%6.1f \n", Dhrystones_Per_Second);
    //printf ("\n");
    //printf ("\n");

    //DMIPS_MHZ = (Dhrystones_Per_Second/8.388)/1757;
    DMIPS_MHZ = (1000000/((float)User_Cycle/(float)Number_Of_Runs))/1757;
80000706:	88418a13          	addi	s4,gp,-1916 # 90000254 <DMIPS_MHZ>
8000070a:	022060ef          	jal	ra,8000672c <__floatsisf>
8000070e:	10000e17          	auipc	t3,0x10000
80000712:	b22e2583          	lw	a1,-1246(t3) # 90000230 <_impure_ptr+0x58>
E:\VMshare\e203\zhengdian_E203\sdk\dhrystone\Release/../application/dhry_1.c:310

    //printf ("Print Personal Added Addtional Info to Easy Visual Analysis\n");
    //printf ("\n");
    printf (" (*) User_Cycle for total run through Dhrystone with loops %d: \n", Number_Of_Runs);
    printf ("%ld \n", User_Cycle);
80000716:	00006997          	auipc	s3,0x6
E:\VMshare\e203\zhengdian_E203\sdk\dhrystone\Release/../application/dhry_1.c:322
    //printf (" (*) Please ignore the above printed Dhrystones_Per_Second since it is using the User_Time which\n");
    //printf ("       is a long type and derived from a division and generated quite lots of deviations. So here\n");
    //printf ("       we use the original User_Cycle to caculate.\n");
    //printf ("     Assume the core is running at 1MHZ, and each loop need cycles of User_Cycle/Number_Of_Runs \n");
    //printf ("       then the Dhrystones_Per_Second is 1000000/(User_Cycle/Number_Of_Runs)\n");
    printf ("       So the DMIPS/MHz can be caculated by: \n");
8000071a:	00006d97          	auipc	s11,0x6
E:\VMshare\e203\zhengdian_E203\sdk\dhrystone\Release/../application/dhry_1.c:305
    DMIPS_MHZ = (1000000/((float)User_Cycle/(float)Number_Of_Runs))/1757;
8000071e:	5bb050ef          	jal	ra,800064d8 <__divsf3>
80000722:	10000897          	auipc	a7,0x10000
80000726:	85aa                	mv	a1,a0
80000728:	b128a503          	lw	a0,-1262(a7) # 90000234 <_impure_ptr+0x5c>
E:\VMshare\e203\zhengdian_E203\sdk\dhrystone\Release/../application/dhry_1.c:323
    printf ("       1000000/(User_Cycle/Number_Of_Runs)/1757 = %2.6f DMIPS/MHz\n", DMIPS_MHZ);
8000072c:	00006417          	auipc	s0,0x6
E:\VMshare\e203\zhengdian_E203\sdk\dhrystone\Release/../application/dhry_1.c:324
    printf ("\n");
80000730:	00006c97          	auipc	s9,0x6
E:\VMshare\e203\zhengdian_E203\sdk\dhrystone\Release/../application/dhry_1.c:305
    DMIPS_MHZ = (1000000/((float)User_Cycle/(float)Number_Of_Runs))/1757;
80000734:	5a5050ef          	jal	ra,800064d8 <__divsf3>
80000738:	10000817          	auipc	a6,0x10000
8000073c:	b0082583          	lw	a1,-1280(a6) # 90000238 <_impure_ptr+0x60>
80000740:	599050ef          	jal	ra,800064d8 <__divsf3>
E:\VMshare\e203\zhengdian_E203\sdk\dhrystone\Release/../application/dhry_1.c:309
    printf (" (*) User_Cycle for total run through Dhrystone with loops %d: \n", Number_Of_Runs);
80000744:	00006617          	auipc	a2,0x6
80000748:	0007a737          	lui	a4,0x7a
8000074c:	12070593          	addi	a1,a4,288 # 7a120 <dhry_stubs.c.c3a4eb6e+0x76545>
E:\VMshare\e203\zhengdian_E203\sdk\dhrystone\Release/../application/dhry_1.c:305
    DMIPS_MHZ = (1000000/((float)User_Cycle/(float)Number_Of_Runs))/1757;
80000750:	892a                	mv	s2,a0
E:\VMshare\e203\zhengdian_E203\sdk\dhrystone\Release/../application/dhry_1.c:309
    printf (" (*) User_Cycle for total run through Dhrystone with loops %d: \n", Number_Of_Runs);
80000752:	70860513          	addi	a0,a2,1800 # 80006e4c <__extendsfdf2+0x664>
E:\VMshare\e203\zhengdian_E203\sdk\dhrystone\Release/../application/dhry_1.c:305
    DMIPS_MHZ = (1000000/((float)User_Cycle/(float)Number_Of_Runs))/1757;
80000756:	012a2023          	sw	s2,0(s4)
E:\VMshare\e203\zhengdian_E203\sdk\dhrystone\Release/../application/dhry_1.c:309
    printf (" (*) User_Cycle for total run through Dhrystone with loops %d: \n", Number_Of_Runs);
8000075a:	74c010ef          	jal	ra,80001ea6 <iprintf>
E:\VMshare\e203\zhengdian_E203\sdk\dhrystone\Release/../application/dhry_1.c:310
    printf ("%ld \n", User_Cycle);
8000075e:	000b2583          	lw	a1,0(s6)
80000762:	77a98513          	addi	a0,s3,1914 # 80006e90 <__extendsfdf2+0x6a8>
80000766:	740010ef          	jal	ra,80001ea6 <iprintf>
E:\VMshare\e203\zhengdian_E203\sdk\dhrystone\Release/../application/dhry_1.c:322
    printf ("       So the DMIPS/MHz can be caculated by: \n");
8000076a:	77ed8513          	addi	a0,s11,1918 # 80006e98 <__extendsfdf2+0x6b0>
8000076e:	738010ef          	jal	ra,80001ea6 <iprintf>
E:\VMshare\e203\zhengdian_E203\sdk\dhrystone\Release/../application/dhry_1.c:323
    printf ("       1000000/(User_Cycle/Number_Of_Runs)/1757 = %2.6f DMIPS/MHz\n", DMIPS_MHZ);
80000772:	000a2503          	lw	a0,0(s4)
80000776:	072060ef          	jal	ra,800067e8 <__extendsfdf2>
8000077a:	862a                	mv	a2,a0
8000077c:	86ae                	mv	a3,a1
8000077e:	79c40513          	addi	a0,s0,1948 # 80006ec8 <__extendsfdf2+0x6e0>
80000782:	724010ef          	jal	ra,80001ea6 <iprintf>
E:\VMshare\e203\zhengdian_E203\sdk\dhrystone\Release/../application/dhry_1.c:324
    printf ("\n");
80000786:	764c8513          	addi	a0,s9,1892 # 80006e94 <__extendsfdf2+0x6ac>
8000078a:	71c010ef          	jal	ra,80001ea6 <iprintf>
E:\VMshare\e203\zhengdian_E203\sdk\dhrystone\Release/../application/dhry_1.c:327
  }

}
8000078e:	40fa                	lw	ra,156(sp)
80000790:	446a                	lw	s0,152(sp)
80000792:	44da                	lw	s1,148(sp)
80000794:	494a                	lw	s2,144(sp)
80000796:	49ba                	lw	s3,140(sp)
80000798:	4a2a                	lw	s4,136(sp)
8000079a:	4a9a                	lw	s5,132(sp)
8000079c:	4b0a                	lw	s6,128(sp)
8000079e:	5bf6                	lw	s7,124(sp)
800007a0:	5c66                	lw	s8,120(sp)
800007a2:	5cd6                	lw	s9,116(sp)
800007a4:	5d46                	lw	s10,112(sp)
800007a6:	5db6                	lw	s11,108(sp)
800007a8:	4501                	li	a0,0
800007aa:	610d                	addi	sp,sp,160
800007ac:	8082                	ret
800007ae:	0001                	nop
E:\VMshare\e203\zhengdian_E203\sdk\dhrystone\Release/../application/dhry_1.c:163
    Int_2_Loc = 3;
800007b0:	490d                	li	s2,3
800007b2:	bef9                	j	80000390 <main+0x2d0>
E:\VMshare\e203\zhengdian_E203\sdk\dhrystone\Release/../application/dhry_1.c:279
    printf ("Measured time too small to obtain meaningful results\n");
800007b4:	00006c17          	auipc	s8,0x6
800007b8:	640c0513          	addi	a0,s8,1600 # 80006df4 <__extendsfdf2+0x60c>
800007bc:	6ea010ef          	jal	ra,80001ea6 <iprintf>
E:\VMshare\e203\zhengdian_E203\sdk\dhrystone\Release/../application/dhry_1.c:280
    printf ("Please increase number of runs\n");
800007c0:	00006f97          	auipc	t6,0x6
800007c4:	66cf8513          	addi	a0,t6,1644 # 80006e2c <__extendsfdf2+0x644>
800007c8:	6de010ef          	jal	ra,80001ea6 <iprintf>
E:\VMshare\e203\zhengdian_E203\sdk\dhrystone\Release/../application/dhry_1.c:281
    printf ("\n");
800007cc:	00006597          	auipc	a1,0x6
800007d0:	6c858513          	addi	a0,a1,1736 # 80006e94 <__extendsfdf2+0x6ac>
800007d4:	6d2010ef          	jal	ra,80001ea6 <iprintf>
800007d8:	bf5d                	j	8000078e <main+0x6ce>
	...

800007dc <measure_cpu_freq>:
SysTimer_GetLoadValue():
E:\VMshare\e203\zhengdian_E203\sdk\dhrystone\hbird_sdk\NMSIS\Core\Include/core_feature_timer.h:106
 * - Load value is 64bits wide.
 * - \ref SysTimer_SetLoadValue
 */
__STATIC_FORCEINLINE uint64_t SysTimer_GetLoadValue(void)
{
    return SysTimer->MTIME;
800007dc:	0200c7b7          	lui	a5,0x200c
800007e0:	ff87a683          	lw	a3,-8(a5) # 200bff8 <dhry_stubs.c.c3a4eb6e+0x200841d>
800007e4:	ffc7a783          	lw	a5,-4(a5)
measure_cpu_freq():
E:\VMshare\e203\zhengdian_E203\sdk\dhrystone\Release/../hbird_sdk/SoC/hbirdv2/Common/Source/hbirdv2_common.c:9
{
    return SOC_TIMER_FREQ;
}

uint32_t measure_cpu_freq(uint32_t n)
{
800007e8:	1141                	addi	sp,sp,-16
800007ea:	c606                	sw	ra,12(sp)
800007ec:	c422                	sw	s0,8(sp)
800007ee:	c226                	sw	s1,4(sp)
E:\VMshare\e203\zhengdian_E203\sdk\dhrystone\Release/../hbird_sdk/SoC/hbirdv2/Common/Source/hbirdv2_common.c:15
    uint32_t start_mcycle, delta_mcycle;
    uint32_t start_mtime, delta_mtime;
    uint64_t mtime_freq = get_timer_freq();

    // Don't start measuruing until we see an mtime tick
    uint32_t tmp = (uint32_t)SysTimer_GetLoadValue();
800007f0:	80b6                	mv	ra,a3
SysTimer_GetLoadValue():
E:\VMshare\e203\zhengdian_E203\sdk\dhrystone\hbird_sdk\NMSIS\Core\Include/core_feature_timer.h:106
800007f2:	0200c5b7          	lui	a1,0x200c
800007f6:	0001                	nop
E:\VMshare\e203\zhengdian_E203\sdk\dhrystone\hbird_sdk\NMSIS\Core\Include/core_feature_timer.h:106 (discriminator 1)
800007f8:	ff85a703          	lw	a4,-8(a1) # 200bff8 <dhry_stubs.c.c3a4eb6e+0x200841d>
800007fc:	ffc5a783          	lw	a5,-4(a1)
measure_cpu_freq():
E:\VMshare\e203\zhengdian_E203\sdk\dhrystone\Release/../hbird_sdk/SoC/hbirdv2/Common/Source/hbirdv2_common.c:17 (discriminator 1)
    do {
        start_mtime = (uint32_t)SysTimer_GetLoadValue();
80000800:	82ba                	mv	t0,a4
E:\VMshare\e203\zhengdian_E203\sdk\dhrystone\Release/../hbird_sdk/SoC/hbirdv2/Common/Source/hbirdv2_common.c:18 (discriminator 1)
        start_mcycle = __RV_CSR_READ(CSR_MCYCLE);
80000802:	b0002673          	csrr	a2,mcycle
E:\VMshare\e203\zhengdian_E203\sdk\dhrystone\Release/../hbird_sdk/SoC/hbirdv2/Common/Source/hbirdv2_common.c:19 (discriminator 1)
    } while (start_mtime == tmp);
80000806:	fee089e3          	beq	ra,a4,800007f8 <measure_cpu_freq+0x1c>
SysTimer_GetLoadValue():
E:\VMshare\e203\zhengdian_E203\sdk\dhrystone\hbird_sdk\NMSIS\Core\Include/core_feature_timer.h:106
8000080a:	0200c337          	lui	t1,0x200c
8000080e:	0001                	nop
E:\VMshare\e203\zhengdian_E203\sdk\dhrystone\hbird_sdk\NMSIS\Core\Include/core_feature_timer.h:106 (discriminator 1)
80000810:	ff832403          	lw	s0,-8(t1) # 200bff8 <dhry_stubs.c.c3a4eb6e+0x200841d>
80000814:	ffc32483          	lw	s1,-4(t1)
measure_cpu_freq():
E:\VMshare\e203\zhengdian_E203\sdk\dhrystone\Release/../hbird_sdk/SoC/hbirdv2/Common/Source/hbirdv2_common.c:22 (discriminator 1)

    do {
        delta_mtime = (uint32_t)SysTimer_GetLoadValue() - start_mtime;
80000818:	40540433          	sub	s0,s0,t0
E:\VMshare\e203\zhengdian_E203\sdk\dhrystone\Release/../hbird_sdk/SoC/hbirdv2/Common/Source/hbirdv2_common.c:23 (discriminator 1)
        delta_mcycle = __RV_CSR_READ(CSR_MCYCLE) - start_mcycle;
8000081c:	b00023f3          	csrr	t2,mcycle
E:\VMshare\e203\zhengdian_E203\sdk\dhrystone\Release/../hbird_sdk/SoC/hbirdv2/Common/Source/hbirdv2_common.c:24 (discriminator 1)
    } while (delta_mtime < n);
80000820:	fea468e3          	bltu	s0,a0,80000810 <measure_cpu_freq+0x34>
E:\VMshare\e203\zhengdian_E203\sdk\dhrystone\Release/../hbird_sdk/SoC/hbirdv2/Common/Source/hbirdv2_common.c:23
        delta_mcycle = __RV_CSR_READ(CSR_MCYCLE) - start_mcycle;
80000824:	40c384b3          	sub	s1,t2,a2
E:\VMshare\e203\zhengdian_E203\sdk\dhrystone\Release/../hbird_sdk/SoC/hbirdv2/Common/Source/hbirdv2_common.c:27

    return (delta_mcycle / delta_mtime) * mtime_freq
           + ((delta_mcycle % delta_mtime) * mtime_freq) / delta_mtime;
80000828:	0284f833          	remu	a6,s1,s0
8000082c:	8622                	mv	a2,s0
8000082e:	4681                	li	a3,0
80000830:	00f81513          	slli	a0,a6,0xf
80000834:	01185593          	srli	a1,a6,0x11
80000838:	141050ef          	jal	ra,80006178 <__udivdi3>
E:\VMshare\e203\zhengdian_E203\sdk\dhrystone\Release/../hbird_sdk/SoC/hbirdv2/Common/Source/hbirdv2_common.c:26
    return (delta_mcycle / delta_mtime) * mtime_freq
8000083c:	0284d8b3          	divu	a7,s1,s0
E:\VMshare\e203\zhengdian_E203\sdk\dhrystone\Release/../hbird_sdk/SoC/hbirdv2/Common/Source/hbirdv2_common.c:28
}
80000840:	40b2                	lw	ra,12(sp)
80000842:	4422                	lw	s0,8(sp)
80000844:	4492                	lw	s1,4(sp)
80000846:	0141                	addi	sp,sp,16
E:\VMshare\e203\zhengdian_E203\sdk\dhrystone\Release/../hbird_sdk/SoC/hbirdv2/Common/Source/hbirdv2_common.c:27
           + ((delta_mcycle % delta_mtime) * mtime_freq) / delta_mtime;
80000848:	00f89e13          	slli	t3,a7,0xf
E:\VMshare\e203\zhengdian_E203\sdk\dhrystone\Release/../hbird_sdk/SoC/hbirdv2/Common/Source/hbirdv2_common.c:28
}
8000084c:	9572                	add	a0,a0,t3
8000084e:	8082                	ret
80000850:	0000                	unimp
	...

80000854 <get_cpu_freq>:
get_cpu_freq():
E:\VMshare\e203\zhengdian_E203\sdk\dhrystone\Release/../hbird_sdk/SoC/hbirdv2/Common/Source/hbirdv2_common.c:31

uint32_t get_cpu_freq(void)
{
80000854:	1141                	addi	sp,sp,-16
E:\VMshare\e203\zhengdian_E203\sdk\dhrystone\Release/../hbird_sdk/SoC/hbirdv2/Common/Source/hbirdv2_common.c:35
    uint32_t cpu_freq;

    // warm up
    measure_cpu_freq(1);
80000856:	4505                	li	a0,1
E:\VMshare\e203\zhengdian_E203\sdk\dhrystone\Release/../hbird_sdk/SoC/hbirdv2/Common/Source/hbirdv2_common.c:31
{
80000858:	c606                	sw	ra,12(sp)
E:\VMshare\e203\zhengdian_E203\sdk\dhrystone\Release/../hbird_sdk/SoC/hbirdv2/Common/Source/hbirdv2_common.c:35
    measure_cpu_freq(1);
8000085a:	3749                	jal	800007dc <measure_cpu_freq>
E:\VMshare\e203\zhengdian_E203\sdk\dhrystone\Release/../hbird_sdk/SoC/hbirdv2/Common/Source/hbirdv2_common.c:40
    // measure for real
    cpu_freq = measure_cpu_freq(100);

    return cpu_freq;
}
8000085c:	40b2                	lw	ra,12(sp)
E:\VMshare\e203\zhengdian_E203\sdk\dhrystone\Release/../hbird_sdk/SoC/hbirdv2/Common/Source/hbirdv2_common.c:37
    cpu_freq = measure_cpu_freq(100);
8000085e:	06400513          	li	a0,100
E:\VMshare\e203\zhengdian_E203\sdk\dhrystone\Release/../hbird_sdk/SoC/hbirdv2/Common/Source/hbirdv2_common.c:40
}
80000862:	0141                	addi	sp,sp,16
E:\VMshare\e203\zhengdian_E203\sdk\dhrystone\Release/../hbird_sdk/SoC/hbirdv2/Common/Source/hbirdv2_common.c:37
    cpu_freq = measure_cpu_freq(100);
80000864:	bfa5                	j	800007dc <measure_cpu_freq>
	...

80000868 <Exception_Init>:
Exception_Init():
E:\VMshare\e203\zhengdian_E203\sdk\dhrystone\Release/../hbird_sdk/SoC/hbirdv2/Common/Source/system_hbirdv2.c:201
 * Called in \ref _init function, used to initialize default exception handlers for all exception IDs
 */
static void Exception_Init(void)
{
    for (int i = 0; i < MAX_SYSTEM_EXCEPTION_NUM; i++) {
        SystemExceptionHandlers[i] = (unsigned long)system_default_exception_handler;
80000868:	00000717          	auipc	a4,0x0
8000086c:	10002797          	auipc	a5,0x10002
80000870:	40c70293          	addi	t0,a4,1036 # 80000c74 <system_default_exception_handler>
80000874:	21878313          	addi	t1,a5,536 # 90002a84 <SystemExceptionHandlers>
80000878:	00532023          	sw	t0,0(t1)
8000087c:	00532223          	sw	t0,4(t1)
80000880:	00532423          	sw	t0,8(t1)
80000884:	00532623          	sw	t0,12(t1)
80000888:	00532823          	sw	t0,16(t1)
8000088c:	00532a23          	sw	t0,20(t1)
80000890:	00532c23          	sw	t0,24(t1)
80000894:	00532e23          	sw	t0,28(t1)
80000898:	02532023          	sw	t0,32(t1)
8000089c:	02532223          	sw	t0,36(t1)
800008a0:	02532423          	sw	t0,40(t1)
E:\VMshare\e203\zhengdian_E203\sdk\dhrystone\Release/../hbird_sdk/SoC/hbirdv2/Common/Source/system_hbirdv2.c:203
    }
}
800008a4:	8082                	ret
	...

800008a8 <Interrupt_Init>:
Interrupt_Init():
E:\VMshare\e203\zhengdian_E203\sdk\dhrystone\Release/../hbird_sdk/SoC/hbirdv2/Common/Source/system_hbirdv2.c:216
 */
static void Interrupt_Init(void)
{
    int i;
    for (i = 0; i < __PLIC_INTNUM; i++) {
        SystemExtInterruptHandlers[i] = (unsigned long)system_default_interrupt_handler;
800008a8:	00000797          	auipc	a5,0x0
800008ac:	10002717          	auipc	a4,0x10002
E:\VMshare\e203\zhengdian_E203\sdk\dhrystone\Release/../hbird_sdk/SoC/hbirdv2/Common/Source/system_hbirdv2.c:219
    }
    for (i = 0; i < 10; i++) {
        SystemCoreInterruptHandlers[i] = (unsigned long)system_default_interrupt_handler;
800008b0:	10002697          	auipc	a3,0x10002
E:\VMshare\e203\zhengdian_E203\sdk\dhrystone\Release/../hbird_sdk/SoC/hbirdv2/Common/Source/system_hbirdv2.c:216
        SystemExtInterruptHandlers[i] = (unsigned long)system_default_interrupt_handler;
800008b4:	41478293          	addi	t0,a5,1044 # 80000cbc <system_default_interrupt_handler>
800008b8:	20470313          	addi	t1,a4,516 # 90002ab0 <SystemExtInterruptHandlers>
E:\VMshare\e203\zhengdian_E203\sdk\dhrystone\Release/../hbird_sdk/SoC/hbirdv2/Common/Source/system_hbirdv2.c:219
        SystemCoreInterruptHandlers[i] = (unsigned long)system_default_interrupt_handler;
800008bc:	1ac68393          	addi	t2,a3,428 # 90002a5c <SystemCoreInterruptHandlers>
E:\VMshare\e203\zhengdian_E203\sdk\dhrystone\Release/../hbird_sdk/SoC/hbirdv2/Common/Source/system_hbirdv2.c:216
        SystemExtInterruptHandlers[i] = (unsigned long)system_default_interrupt_handler;
800008c0:	00532023          	sw	t0,0(t1)
800008c4:	00532223          	sw	t0,4(t1)
800008c8:	00532423          	sw	t0,8(t1)
800008cc:	00532623          	sw	t0,12(t1)
800008d0:	00532823          	sw	t0,16(t1)
800008d4:	00532a23          	sw	t0,20(t1)
800008d8:	00532c23          	sw	t0,24(t1)
800008dc:	00532e23          	sw	t0,28(t1)
800008e0:	02532023          	sw	t0,32(t1)
800008e4:	02532223          	sw	t0,36(t1)
800008e8:	02532423          	sw	t0,40(t1)
800008ec:	02532623          	sw	t0,44(t1)
800008f0:	02532823          	sw	t0,48(t1)
800008f4:	02532a23          	sw	t0,52(t1)
800008f8:	02532c23          	sw	t0,56(t1)
800008fc:	02532e23          	sw	t0,60(t1)
80000900:	04532023          	sw	t0,64(t1)
E:\VMshare\e203\zhengdian_E203\sdk\dhrystone\Release/../hbird_sdk/SoC/hbirdv2/Common/Source/system_hbirdv2.c:219
        SystemCoreInterruptHandlers[i] = (unsigned long)system_default_interrupt_handler;
80000904:	0053a023          	sw	t0,0(t2)
80000908:	0053a223          	sw	t0,4(t2)
8000090c:	0053a423          	sw	t0,8(t2)
80000910:	0053a623          	sw	t0,12(t2)
80000914:	0053a823          	sw	t0,16(t2)
80000918:	0053aa23          	sw	t0,20(t2)
8000091c:	0053ac23          	sw	t0,24(t2)
80000920:	0053ae23          	sw	t0,28(t2)
80000924:	0253a023          	sw	t0,32(t2)
80000928:	0253a223          	sw	t0,36(t2)
E:\VMshare\e203\zhengdian_E203\sdk\dhrystone\Release/../hbird_sdk/SoC/hbirdv2/Common/Source/system_hbirdv2.c:221
    }
}
8000092c:	8082                	ret
	...

80000930 <core_exception_handler>:
core_exception_handler():
E:\VMshare\e203\zhengdian_E203\sdk\dhrystone\Release/../hbird_sdk/SoC/hbirdv2/Common/Source/system_hbirdv2.c:362
 * - For the core_exception_handler template, we provided exception register function \ref Exception_Register_EXC
 *   which can help developer to register your exception handler for specific exception number.
 */
static uint32_t core_exception_handler(unsigned long mcause, unsigned long sp)
{
    uint32_t EXCn = (uint32_t)(mcause & 0X00000fff);
80000930:	01451793          	slli	a5,a0,0x14
80000934:	0147d293          	srli	t0,a5,0x14
E:\VMshare\e203\zhengdian_E203\sdk\dhrystone\Release/../hbird_sdk/SoC/hbirdv2/Common/Source/system_hbirdv2.c:365
    EXC_HANDLER exc_handler;

    if ((EXCn < MAX_SYSTEM_EXCEPTION_NUM) && (EXCn >= 0)) {
80000938:	4729                	li	a4,10
8000093a:	02576163          	bltu	a4,t0,8000095c <core_exception_handler+0x2c>
E:\VMshare\e203\zhengdian_E203\sdk\dhrystone\Release/../hbird_sdk/SoC/hbirdv2/Common/Source/system_hbirdv2.c:366
        exc_handler = (EXC_HANDLER)SystemExceptionHandlers[EXCn];
8000093e:	10002617          	auipc	a2,0x10002
80000942:	00229693          	slli	a3,t0,0x2
80000946:	14660813          	addi	a6,a2,326 # 90002a84 <SystemExceptionHandlers>
8000094a:	00d808b3          	add	a7,a6,a3
8000094e:	0008a383          	lw	t2,0(a7)
E:\VMshare\e203\zhengdian_E203\sdk\dhrystone\Release/../hbird_sdk/SoC/hbirdv2/Common/Source/system_hbirdv2.c:370
    } else {
        exc_handler = (EXC_HANDLER)system_default_exception_handler;
    }
    if (exc_handler != NULL) {
80000952:	00039963          	bnez	t2,80000964 <core_exception_handler+0x34>
E:\VMshare\e203\zhengdian_E203\sdk\dhrystone\Release/../hbird_sdk/SoC/hbirdv2/Common/Source/system_hbirdv2.c:374
        exc_handler(mcause, sp);
    }
    return 0;
}
80000956:	4501                	li	a0,0
80000958:	8082                	ret
8000095a:	0001                	nop
E:\VMshare\e203\zhengdian_E203\sdk\dhrystone\Release/../hbird_sdk/SoC/hbirdv2/Common/Source/system_hbirdv2.c:368
        exc_handler = (EXC_HANDLER)system_default_exception_handler;
8000095c:	00000317          	auipc	t1,0x0
80000960:	31830393          	addi	t2,t1,792 # 80000c74 <system_default_exception_handler>
E:\VMshare\e203\zhengdian_E203\sdk\dhrystone\Release/../hbird_sdk/SoC/hbirdv2/Common/Source/system_hbirdv2.c:361
{
80000964:	1141                	addi	sp,sp,-16
80000966:	c606                	sw	ra,12(sp)
E:\VMshare\e203\zhengdian_E203\sdk\dhrystone\Release/../hbird_sdk/SoC/hbirdv2/Common/Source/system_hbirdv2.c:371
        exc_handler(mcause, sp);
80000968:	9382                	jalr	t2
E:\VMshare\e203\zhengdian_E203\sdk\dhrystone\Release/../hbird_sdk/SoC/hbirdv2/Common/Source/system_hbirdv2.c:374
}
8000096a:	40b2                	lw	ra,12(sp)
8000096c:	4501                	li	a0,0
8000096e:	0141                	addi	sp,sp,16
80000970:	8082                	ret
	...

80000974 <Func_1>:
Func_1():
E:\VMshare\e203\zhengdian_E203\sdk\dhrystone\Release/../application/dhry_2.c:124
  Capital_Letter        Ch_1_Loc;
  Capital_Letter        Ch_2_Loc;

  Ch_1_Loc = Ch_1_Par_Val;
  Ch_2_Loc = Ch_1_Loc;
  if (Ch_2_Loc != Ch_2_Par_Val)
80000974:	00b50463          	beq	a0,a1,8000097c <Func_1+0x8>
E:\VMshare\e203\zhengdian_E203\sdk\dhrystone\Release/../application/dhry_2.c:126
    /* then, executed */
    return (Ident_1);
80000978:	4501                	li	a0,0
E:\VMshare\e203\zhengdian_E203\sdk\dhrystone\Release/../application/dhry_2.c:132
  else  /* not executed */
  {
    Ch_1_Glob = Ch_1_Loc;
    return (Ident_2);
   }
} /* Func_1 */
8000097a:	8082                	ret
E:\VMshare\e203\zhengdian_E203\sdk\dhrystone\Release/../application/dhry_2.c:129
    Ch_1_Glob = Ch_1_Loc;
8000097c:	88a18023          	sb	a0,-1920(gp) # 90000250 <Ch_1_Glob>
E:\VMshare\e203\zhengdian_E203\sdk\dhrystone\Release/../application/dhry_2.c:130
    return (Ident_2);
80000980:	4505                	li	a0,1
80000982:	8082                	ret

80000984 <Func_3>:
Func_3():
E:\VMshare\e203\zhengdian_E203\sdk\dhrystone\Release/../application/dhry_2.c:186
Enumeration Enum_Par_Val;
{
  Enumeration Enum_Loc;

  Enum_Loc = Enum_Par_Val;
  if (Enum_Loc == Ident_3)
80000984:	1579                	addi	a0,a0,-2
E:\VMshare\e203\zhengdian_E203\sdk\dhrystone\Release/../application/dhry_2.c:191
    /* then, executed */
    return (true);
  else /* not executed */
    return (false);
} /* Func_3 */
80000986:	00153513          	seqz	a0,a0
8000098a:	8082                	ret
8000098c:	0000                	unimp
	...

80000990 <csr_cycle>:
csr_cycle():
E:\VMshare\e203\zhengdian_E203\sdk\dhrystone\Release/../application/dhry_stubs.c:7

/* The functions in this file are only meant to support Dhrystone on an
 * embedded RV32 system and are obviously incorrect in general. */

long csr_cycle(void)
{
80000990:	1141                	addi	sp,sp,-16
__get_rv_cycle():
E:\VMshare\e203\zhengdian_E203\sdk\dhrystone\hbird_sdk\NMSIS\Core\Include/core_feature_base.h:492
{
#if __RISCV_XLEN == 32
    volatile uint32_t high0, low, high;
    uint64_t full;

    high0 = __RV_CSR_READ(CSR_MCYCLEH);
80000992:	b80027f3          	csrr	a5,mcycleh
80000996:	c63e                	sw	a5,12(sp)
E:\VMshare\e203\zhengdian_E203\sdk\dhrystone\hbird_sdk\NMSIS\Core\Include/core_feature_base.h:493
    low = __RV_CSR_READ(CSR_MCYCLE);
80000998:	b00022f3          	csrr	t0,mcycle
8000099c:	c416                	sw	t0,8(sp)
E:\VMshare\e203\zhengdian_E203\sdk\dhrystone\hbird_sdk\NMSIS\Core\Include/core_feature_base.h:494
    high = __RV_CSR_READ(CSR_MCYCLEH);
8000099e:	b8002373          	csrr	t1,mcycleh
800009a2:	c21a                	sw	t1,4(sp)
E:\VMshare\e203\zhengdian_E203\sdk\dhrystone\hbird_sdk\NMSIS\Core\Include/core_feature_base.h:495
    if (high0 != high) {
800009a4:	4732                	lw	a4,12(sp)
800009a6:	4392                	lw	t2,4(sp)
800009a8:	00770563          	beq	a4,t2,800009b2 <csr_cycle+0x22>
E:\VMshare\e203\zhengdian_E203\sdk\dhrystone\hbird_sdk\NMSIS\Core\Include/core_feature_base.h:496
        low = __RV_CSR_READ(CSR_MCYCLE);
800009ac:	b0002573          	csrr	a0,mcycle
800009b0:	c42a                	sw	a0,8(sp)
E:\VMshare\e203\zhengdian_E203\sdk\dhrystone\hbird_sdk\NMSIS\Core\Include/core_feature_base.h:498
    }
    full = (((uint64_t)high) << 32) | low;
800009b2:	4792                	lw	a5,4(sp)
800009b4:	4522                	lw	a0,8(sp)
csr_cycle():
E:\VMshare\e203\zhengdian_E203\sdk\dhrystone\Release/../application/dhry_stubs.c:9
  return __get_rv_cycle();
}
800009b6:	0141                	addi	sp,sp,16
800009b8:	8082                	ret
	...

800009bc <csr_instret>:
csr_instret():
E:\VMshare\e203\zhengdian_E203\sdk\dhrystone\Release/../application/dhry_stubs.c:12

long csr_instret(void)
{
800009bc:	1141                	addi	sp,sp,-16
__get_rv_instret():
E:\VMshare\e203\zhengdian_E203\sdk\dhrystone\hbird_sdk\NMSIS\Core\Include/core_feature_base.h:519
{
#if __RISCV_XLEN == 32
    volatile uint32_t high0, low, high;
    uint64_t full;

    high0 = __RV_CSR_READ(CSR_MINSTRETH);
800009be:	b82027f3          	csrr	a5,minstreth
800009c2:	c63e                	sw	a5,12(sp)
E:\VMshare\e203\zhengdian_E203\sdk\dhrystone\hbird_sdk\NMSIS\Core\Include/core_feature_base.h:520
    low = __RV_CSR_READ(CSR_MINSTRET);
800009c4:	b02022f3          	csrr	t0,minstret
800009c8:	c416                	sw	t0,8(sp)
E:\VMshare\e203\zhengdian_E203\sdk\dhrystone\hbird_sdk\NMSIS\Core\Include/core_feature_base.h:521
    high = __RV_CSR_READ(CSR_MINSTRETH);
800009ca:	b8202373          	csrr	t1,minstreth
800009ce:	c21a                	sw	t1,4(sp)
E:\VMshare\e203\zhengdian_E203\sdk\dhrystone\hbird_sdk\NMSIS\Core\Include/core_feature_base.h:522
    if (high0 != high) {
800009d0:	4732                	lw	a4,12(sp)
800009d2:	4392                	lw	t2,4(sp)
800009d4:	00770563          	beq	a4,t2,800009de <csr_instret+0x22>
E:\VMshare\e203\zhengdian_E203\sdk\dhrystone\hbird_sdk\NMSIS\Core\Include/core_feature_base.h:523
        low = __RV_CSR_READ(CSR_MINSTRET);
800009d8:	b0202573          	csrr	a0,minstret
800009dc:	c42a                	sw	a0,8(sp)
E:\VMshare\e203\zhengdian_E203\sdk\dhrystone\hbird_sdk\NMSIS\Core\Include/core_feature_base.h:525
    }
    full = (((uint64_t)high) << 32) | low;
800009de:	4792                	lw	a5,4(sp)
800009e0:	4522                	lw	a0,8(sp)
csr_instret():
E:\VMshare\e203\zhengdian_E203\sdk\dhrystone\Release/../application/dhry_stubs.c:14
  return __get_rv_instret();
}
800009e2:	0141                	addi	sp,sp,16
800009e4:	8082                	ret
	...

800009e8 <time>:
SysTimer_GetLoadValue():
E:\VMshare\e203\zhengdian_E203\sdk\dhrystone\hbird_sdk\NMSIS\Core\Include/core_feature_timer.h:106
800009e8:	0200c7b7          	lui	a5,0x200c
800009ec:	ff87a703          	lw	a4,-8(a5) # 200bff8 <dhry_stubs.c.c3a4eb6e+0x200841d>
800009f0:	ffc7a283          	lw	t0,-4(a5)
time():
E:\VMshare\e203\zhengdian_E203\sdk\dhrystone\Release/../application/dhry_stubs.c:18

long time(void)
{
  return SysTimer_GetLoadValue() / SOC_TIMER_FREQ;
800009f4:	00f75313          	srli	t1,a4,0xf
800009f8:	01129513          	slli	a0,t0,0x11
E:\VMshare\e203\zhengdian_E203\sdk\dhrystone\Release/../application/dhry_stubs.c:19
}
800009fc:	00656533          	or	a0,a0,t1
80000a00:	8082                	ret
	...

80000a04 <Proc_8.constprop.0.isra.0>:
Proc_8():
E:\VMshare\e203\zhengdian_E203\sdk\dhrystone\Release/../application/dhry_2.c:97
  Int_Loc = Int_1_Par_Val + 5;
80000a04:	00550613          	addi	a2,a0,5
E:\VMshare\e203\zhengdian_E203\sdk\dhrystone\Release/../application/dhry_2.c:102
    Arr_2_Par_Ref [Int_Loc] [Int_Index] = Int_Loc;
80000a08:	0c800693          	li	a3,200
80000a0c:	02d602b3          	mul	t0,a2,a3
80000a10:	050a                	slli	a0,a0,0x2
80000a12:	10000797          	auipc	a5,0x10000
80000a16:	93a78393          	addi	t2,a5,-1734 # 9000034c <Arr_2_Glob>
E:\VMshare\e203\zhengdian_E203\sdk\dhrystone\Release/../application/dhry_2.c:104
  Arr_2_Par_Ref [Int_Loc+20] [Int_Loc] = Arr_1_Par_Ref [Int_Loc];
80000a1a:	10001817          	auipc	a6,0x10001
E:\VMshare\e203\zhengdian_E203\sdk\dhrystone\Release/../application/dhry_2.c:98
  Arr_1_Par_Ref [Int_Loc] = Int_2_Par_Val;
80000a1e:	00261893          	slli	a7,a2,0x2
80000a22:	8b418f13          	addi	t5,gp,-1868 # 90000284 <Arr_1_Glob>
80000a26:	011f0fb3          	add	t6,t5,a7
80000a2a:	00bfa023          	sw	a1,0(t6)
80000a2e:	00a28333          	add	t1,t0,a0
80000a32:	00730e33          	add	t3,t1,t2
E:\VMshare\e203\zhengdian_E203\sdk\dhrystone\Release/../application/dhry_2.c:103
  Arr_2_Par_Ref [Int_Loc] [Int_Loc-1] += 1;
80000a36:	010e2e83          	lw	t4,16(t3)
E:\VMshare\e203\zhengdian_E203\sdk\dhrystone\Release/../application/dhry_2.c:104
  Arr_2_Par_Ref [Int_Loc+20] [Int_Loc] = Arr_1_Par_Ref [Int_Loc];
80000a3a:	8d280293          	addi	t0,a6,-1838 # 900012ec <__global_pointer$+0x91c>
E:\VMshare\e203\zhengdian_E203\sdk\dhrystone\Release/../application/dhry_2.c:102
    Arr_2_Par_Ref [Int_Loc] [Int_Index] = Int_Loc;
80000a3e:	00ce2a23          	sw	a2,20(t3)
E:\VMshare\e203\zhengdian_E203\sdk\dhrystone\Release/../application/dhry_2.c:103
  Arr_2_Par_Ref [Int_Loc] [Int_Loc-1] += 1;
80000a42:	001e8693          	addi	a3,t4,1
E:\VMshare\e203\zhengdian_E203\sdk\dhrystone\Release/../application/dhry_2.c:102
    Arr_2_Par_Ref [Int_Loc] [Int_Index] = Int_Loc;
80000a46:	00ce2c23          	sw	a2,24(t3)
E:\VMshare\e203\zhengdian_E203\sdk\dhrystone\Release/../application/dhry_2.c:103
  Arr_2_Par_Ref [Int_Loc] [Int_Loc-1] += 1;
80000a4a:	00de2823          	sw	a3,16(t3)
E:\VMshare\e203\zhengdian_E203\sdk\dhrystone\Release/../application/dhry_2.c:104
  Arr_2_Par_Ref [Int_Loc+20] [Int_Loc] = Arr_1_Par_Ref [Int_Loc];
80000a4e:	00530533          	add	a0,t1,t0
E:\VMshare\e203\zhengdian_E203\sdk\dhrystone\Release/../application/dhry_2.c:99
  Arr_1_Par_Ref [Int_Loc+1] = Arr_1_Par_Ref [Int_Loc];
80000a52:	00bfa223          	sw	a1,4(t6)
E:\VMshare\e203\zhengdian_E203\sdk\dhrystone\Release/../application/dhry_2.c:100
  Arr_1_Par_Ref [Int_Loc+30] = Int_Loc;
80000a56:	06cfac23          	sw	a2,120(t6)
E:\VMshare\e203\zhengdian_E203\sdk\dhrystone\Release/../application/dhry_2.c:104
  Arr_2_Par_Ref [Int_Loc+20] [Int_Loc] = Arr_1_Par_Ref [Int_Loc];
80000a5a:	c94c                	sw	a1,20(a0)
E:\VMshare\e203\zhengdian_E203\sdk\dhrystone\Release/../application/dhry_2.c:105
  Int_Glob = 5;
80000a5c:	4615                	li	a2,5
80000a5e:	88c1aa23          	sw	a2,-1900(gp) # 90000264 <Int_Glob>
E:\VMshare\e203\zhengdian_E203\sdk\dhrystone\Release/../application/dhry_2.c:106
} /* Proc_8 */
80000a62:	8082                	ret
Proc_8.constprop.0.isra.0():
80000a64:	0000                	unimp
	...

80000a68 <Proc_6.isra.0>:
Proc_6():
E:\VMshare\e203\zhengdian_E203\sdk\dhrystone\Release/../application/dhry_2.c:30
Proc_6 (Enum_Val_Par, Enum_Ref_Par)
80000a68:	1141                	addi	sp,sp,-16
80000a6a:	c422                	sw	s0,8(sp)
80000a6c:	c226                	sw	s1,4(sp)
80000a6e:	842a                	mv	s0,a0
80000a70:	c606                	sw	ra,12(sp)
80000a72:	84ae                	mv	s1,a1
E:\VMshare\e203\zhengdian_E203\sdk\dhrystone\Release/../application/dhry_2.c:39
  if (! Func_3 (Enum_Val_Par))
80000a74:	3f01                	jal	80000984 <Func_3>
80000a76:	87a2                	mv	a5,s0
80000a78:	e111                	bnez	a0,80000a7c <Proc_6.isra.0+0x14>
80000a7a:	478d                	li	a5,3
80000a7c:	c09c                	sw	a5,0(s1)
E:\VMshare\e203\zhengdian_E203\sdk\dhrystone\Release/../application/dhry_2.c:42
  switch (Enum_Val_Par)
80000a7e:	4089                	li	ra,2
80000a80:	04140063          	beq	s0,ra,80000ac0 <Proc_6.isra.0+0x58>
80000a84:	0280c463          	blt	ra,s0,80000aac <Proc_6.isra.0+0x44>
80000a88:	c811                	beqz	s0,80000a9c <Proc_6.isra.0+0x34>
80000a8a:	4305                	li	t1,1
80000a8c:	00641a63          	bne	s0,t1,80000aa0 <Proc_6.isra.0+0x38>
E:\VMshare\e203\zhengdian_E203\sdk\dhrystone\Release/../application/dhry_2.c:48
      if (Int_Glob > 100)
80000a90:	8941a503          	lw	a0,-1900(gp) # 90000264 <Int_Glob>
80000a94:	06400593          	li	a1,100
80000a98:	02a5dc63          	bge	a1,a0,80000ad0 <Proc_6.isra.0+0x68>
E:\VMshare\e203\zhengdian_E203\sdk\dhrystone\Release/../application/dhry_2.c:50
      *Enum_Ref_Par = Ident_1;
80000a9c:	0004a023          	sw	zero,0(s1)
E:\VMshare\e203\zhengdian_E203\sdk\dhrystone\Release/../application/dhry_2.c:61
} /* Proc_6 */
80000aa0:	40b2                	lw	ra,12(sp)
80000aa2:	4422                	lw	s0,8(sp)
80000aa4:	4492                	lw	s1,4(sp)
80000aa6:	0141                	addi	sp,sp,16
80000aa8:	8082                	ret
80000aaa:	0001                	nop
E:\VMshare\e203\zhengdian_E203\sdk\dhrystone\Release/../application/dhry_2.c:42
  switch (Enum_Val_Par)
80000aac:	4711                	li	a4,4
80000aae:	fee419e3          	bne	s0,a4,80000aa0 <Proc_6.isra.0+0x38>
E:\VMshare\e203\zhengdian_E203\sdk\dhrystone\Release/../application/dhry_2.c:58
      *Enum_Ref_Par = Ident_3;
80000ab2:	0014a023          	sw	ra,0(s1)
E:\VMshare\e203\zhengdian_E203\sdk\dhrystone\Release/../application/dhry_2.c:61
} /* Proc_6 */
80000ab6:	4422                	lw	s0,8(sp)
80000ab8:	40b2                	lw	ra,12(sp)
80000aba:	4492                	lw	s1,4(sp)
80000abc:	0141                	addi	sp,sp,16
80000abe:	8082                	ret
80000ac0:	40b2                	lw	ra,12(sp)
80000ac2:	4422                	lw	s0,8(sp)
E:\VMshare\e203\zhengdian_E203\sdk\dhrystone\Release/../application/dhry_2.c:54
      *Enum_Ref_Par = Ident_2;
80000ac4:	4285                	li	t0,1
80000ac6:	0054a023          	sw	t0,0(s1)
E:\VMshare\e203\zhengdian_E203\sdk\dhrystone\Release/../application/dhry_2.c:61
} /* Proc_6 */
80000aca:	4492                	lw	s1,4(sp)
80000acc:	0141                	addi	sp,sp,16
80000ace:	8082                	ret
80000ad0:	40b2                	lw	ra,12(sp)
80000ad2:	4422                	lw	s0,8(sp)
E:\VMshare\e203\zhengdian_E203\sdk\dhrystone\Release/../application/dhry_2.c:51
      else *Enum_Ref_Par = Ident_4;
80000ad4:	460d                	li	a2,3
80000ad6:	c090                	sw	a2,0(s1)
E:\VMshare\e203\zhengdian_E203\sdk\dhrystone\Release/../application/dhry_2.c:61
} /* Proc_6 */
80000ad8:	4492                	lw	s1,4(sp)
80000ada:	0141                	addi	sp,sp,16
80000adc:	8082                	ret
	...

80000ae0 <Proc_7.isra.0>:
Proc_7():
E:\VMshare\e203\zhengdian_E203\sdk\dhrystone\Release/../application/dhry_2.c:79
  Int_Loc = Int_1_Par_Val + 2;
80000ae0:	0509                	addi	a0,a0,2
E:\VMshare\e203\zhengdian_E203\sdk\dhrystone\Release/../application/dhry_2.c:80
  *Int_Par_Ref = Int_2_Par_Val + Int_Loc;
80000ae2:	00b502b3          	add	t0,a0,a1
80000ae6:	00562023          	sw	t0,0(a2)
E:\VMshare\e203\zhengdian_E203\sdk\dhrystone\Release/../application/dhry_2.c:81
} /* Proc_7 */
80000aea:	8082                	ret
Proc_7.isra.0():
80000aec:	0000                	unimp
	...

80000af0 <Proc_5.isra.0>:
Proc_5():
E:\VMshare\e203\zhengdian_E203\sdk\dhrystone\Release/../application/dhry_1.c:418

Proc_5 () /* without parameters */
/*******/
    /* executed once */
{
  Ch_1_Glob = 'A';
80000af0:	04100713          	li	a4,65
80000af4:	88e18023          	sb	a4,-1920(gp) # 90000250 <Ch_1_Glob>
E:\VMshare\e203\zhengdian_E203\sdk\dhrystone\Release/../application/dhry_1.c:419
  Bool_Glob = false;
80000af8:	8601ae23          	sw	zero,-1924(gp) # 9000024c <Bool_Glob>
E:\VMshare\e203\zhengdian_E203\sdk\dhrystone\Release/../application/dhry_1.c:420
} /* Proc_5 */
80000afc:	8082                	ret
	...

80000b00 <Proc_4.isra.0>:
Proc_4():
E:\VMshare\e203\zhengdian_E203\sdk\dhrystone\Release/../application/dhry_1.c:408
  Bool_Loc = Ch_1_Glob == 'A';
80000b00:	8801c283          	lbu	t0,-1920(gp) # 90000250 <Ch_1_Glob>
E:\VMshare\e203\zhengdian_E203\sdk\dhrystone\Release/../application/dhry_1.c:409
  Bool_Glob = Bool_Loc | Bool_Glob;
80000b04:	87c18313          	addi	t1,gp,-1924 # 9000024c <Bool_Glob>
80000b08:	00032683          	lw	a3,0(t1)
E:\VMshare\e203\zhengdian_E203\sdk\dhrystone\Release/../application/dhry_1.c:408
  Bool_Loc = Ch_1_Glob == 'A';
80000b0c:	fbf28393          	addi	t2,t0,-65
80000b10:	0013b513          	seqz	a0,t2
E:\VMshare\e203\zhengdian_E203\sdk\dhrystone\Release/../application/dhry_1.c:409
  Bool_Glob = Bool_Loc | Bool_Glob;
80000b14:	00d565b3          	or	a1,a0,a3
E:\VMshare\e203\zhengdian_E203\sdk\dhrystone\Release/../application/dhry_1.c:410
  Ch_2_Glob = 'B';
80000b18:	04200813          	li	a6,66
E:\VMshare\e203\zhengdian_E203\sdk\dhrystone\Release/../application/dhry_1.c:409
  Bool_Glob = Bool_Loc | Bool_Glob;
80000b1c:	00b32023          	sw	a1,0(t1)
E:\VMshare\e203\zhengdian_E203\sdk\dhrystone\Release/../application/dhry_1.c:410
  Ch_2_Glob = 'B';
80000b20:	890180a3          	sb	a6,-1919(gp) # 90000251 <Ch_2_Glob>
E:\VMshare\e203\zhengdian_E203\sdk\dhrystone\Release/../application/dhry_1.c:411
} /* Proc_4 */
80000b24:	8082                	ret
	...

80000b28 <Proc_3.isra.0>:
Proc_3():
E:\VMshare\e203\zhengdian_E203\sdk\dhrystone\Release/../application/dhry_1.c:395
  if (Ptr_Glob != Null)
80000b28:	89c1a603          	lw	a2,-1892(gp) # 9000026c <Ptr_Glob>
80000b2c:	c609                	beqz	a2,80000b36 <Proc_3.isra.0+0xe>
E:\VMshare\e203\zhengdian_E203\sdk\dhrystone\Release/../application/dhry_1.c:397
    *Ptr_Ref_Par = Ptr_Glob->Ptr_Comp;
80000b2e:	00062283          	lw	t0,0(a2)
80000b32:	00552023          	sw	t0,0(a0)
E:\VMshare\e203\zhengdian_E203\sdk\dhrystone\Release/../application/dhry_1.c:398
  Proc_7 (10, Int_Glob, &Ptr_Glob->variant.var_1.Int_Comp);
80000b36:	8941a583          	lw	a1,-1900(gp) # 90000264 <Int_Glob>
80000b3a:	0631                	addi	a2,a2,12
80000b3c:	4529                	li	a0,10
80000b3e:	b74d                	j	80000ae0 <Proc_7.isra.0>

80000b40 <Proc_1.isra.0>:
Proc_1():
E:\VMshare\e203\zhengdian_E203\sdk\dhrystone\Release/../application/dhry_1.c:330
Proc_1 (Ptr_Val_Par)
80000b40:	1141                	addi	sp,sp,-16
80000b42:	c04a                	sw	s2,0(sp)
E:\VMshare\e203\zhengdian_E203\sdk\dhrystone\Release/../application/dhry_1.c:341
  structassign (*Ptr_Val_Par->Ptr_Comp, *Ptr_Glob);
80000b44:	89c1a903          	lw	s2,-1892(gp) # 9000026c <Ptr_Glob>
E:\VMshare\e203\zhengdian_E203\sdk\dhrystone\Release/../application/dhry_1.c:330
Proc_1 (Ptr_Val_Par)
80000b48:	c422                	sw	s0,8(sp)
E:\VMshare\e203\zhengdian_E203\sdk\dhrystone\Release/../application/dhry_1.c:336
  REG Rec_Pointer Next_Record = Ptr_Val_Par->Ptr_Comp;
80000b4a:	4100                	lw	s0,0(a0)
E:\VMshare\e203\zhengdian_E203\sdk\dhrystone\Release/../application/dhry_1.c:341
  structassign (*Ptr_Val_Par->Ptr_Comp, *Ptr_Glob);
80000b4c:	00092703          	lw	a4,0(s2)
E:\VMshare\e203\zhengdian_E203\sdk\dhrystone\Release/../application/dhry_1.c:330
Proc_1 (Ptr_Val_Par)
80000b50:	c606                	sw	ra,12(sp)
80000b52:	c226                	sw	s1,4(sp)
E:\VMshare\e203\zhengdian_E203\sdk\dhrystone\Release/../application/dhry_1.c:341
  structassign (*Ptr_Val_Par->Ptr_Comp, *Ptr_Glob);
80000b54:	00492e83          	lw	t4,4(s2)
80000b58:	00892e03          	lw	t3,8(s2)
80000b5c:	01092303          	lw	t1,16(s2)
80000b60:	01492883          	lw	a7,20(s2)
80000b64:	01892803          	lw	a6,24(s2)
80000b68:	02092583          	lw	a1,32(s2)
80000b6c:	02492603          	lw	a2,36(s2)
80000b70:	02892683          	lw	a3,40(s2)
80000b74:	02c92083          	lw	ra,44(s2)
E:\VMshare\e203\zhengdian_E203\sdk\dhrystone\Release/../application/dhry_1.c:330
Proc_1 (Ptr_Val_Par)
80000b78:	84aa                	mv	s1,a0
E:\VMshare\e203\zhengdian_E203\sdk\dhrystone\Release/../application/dhry_1.c:341
  structassign (*Ptr_Val_Par->Ptr_Comp, *Ptr_Glob);
80000b7a:	01c92503          	lw	a0,28(s2)
80000b7e:	c018                	sw	a4,0(s0)
E:\VMshare\e203\zhengdian_E203\sdk\dhrystone\Release/../application/dhry_1.c:345
  Next_Record->Ptr_Comp = Ptr_Val_Par->Ptr_Comp;
80000b80:	0004a283          	lw	t0,0(s1)
E:\VMshare\e203\zhengdian_E203\sdk\dhrystone\Release/../application/dhry_1.c:342
  Ptr_Val_Par->variant.var_1.Int_Comp = 5;
80000b84:	4395                	li	t2,5
E:\VMshare\e203\zhengdian_E203\sdk\dhrystone\Release/../application/dhry_1.c:341
  structassign (*Ptr_Val_Par->Ptr_Comp, *Ptr_Glob);
80000b86:	cc48                	sw	a0,28(s0)
80000b88:	01d42223          	sw	t4,4(s0)
80000b8c:	01c42423          	sw	t3,8(s0)
80000b90:	00642823          	sw	t1,16(s0)
80000b94:	01142a23          	sw	a7,20(s0)
80000b98:	01042c23          	sw	a6,24(s0)
80000b9c:	d00c                	sw	a1,32(s0)
80000b9e:	d050                	sw	a2,36(s0)
80000ba0:	d414                	sw	a3,40(s0)
80000ba2:	02142623          	sw	ra,44(s0)
E:\VMshare\e203\zhengdian_E203\sdk\dhrystone\Release/../application/dhry_1.c:342
  Ptr_Val_Par->variant.var_1.Int_Comp = 5;
80000ba6:	0074a623          	sw	t2,12(s1)
E:\VMshare\e203\zhengdian_E203\sdk\dhrystone\Release/../application/dhry_1.c:344
        = Ptr_Val_Par->variant.var_1.Int_Comp;
80000baa:	00742623          	sw	t2,12(s0)
E:\VMshare\e203\zhengdian_E203\sdk\dhrystone\Release/../application/dhry_1.c:345
  Next_Record->Ptr_Comp = Ptr_Val_Par->Ptr_Comp;
80000bae:	00542023          	sw	t0,0(s0)
E:\VMshare\e203\zhengdian_E203\sdk\dhrystone\Release/../application/dhry_1.c:346
  Proc_3 (&Next_Record->Ptr_Comp);
80000bb2:	8522                	mv	a0,s0
80000bb4:	3f95                	jal	80000b28 <Proc_3.isra.0>
E:\VMshare\e203\zhengdian_E203\sdk\dhrystone\Release/../application/dhry_1.c:349
  if (Next_Record->Discr == Ident_1)
80000bb6:	00442f03          	lw	t5,4(s0)
80000bba:	060f0563          	beqz	t5,80000c24 <Proc_1.isra.0+0xe4>
E:\VMshare\e203\zhengdian_E203\sdk\dhrystone\Release/../application/dhry_1.c:360
    structassign (*Ptr_Val_Par, *Ptr_Val_Par->Ptr_Comp);
80000bbe:	0004af83          	lw	t6,0(s1)
E:\VMshare\e203\zhengdian_E203\sdk\dhrystone\Release/../application/dhry_1.c:361
} /* Proc_1 */
80000bc2:	40b2                	lw	ra,12(sp)
E:\VMshare\e203\zhengdian_E203\sdk\dhrystone\Release/../application/dhry_1.c:360
    structassign (*Ptr_Val_Par, *Ptr_Val_Par->Ptr_Comp);
80000bc4:	004fa403          	lw	s0,4(t6)
80000bc8:	000fa903          	lw	s2,0(t6)
80000bcc:	008fae83          	lw	t4,8(t6)
80000bd0:	00cfae03          	lw	t3,12(t6)
80000bd4:	010fa303          	lw	t1,16(t6)
80000bd8:	014fa883          	lw	a7,20(t6)
80000bdc:	018fa803          	lw	a6,24(t6)
80000be0:	01cfa503          	lw	a0,28(t6)
80000be4:	020fa583          	lw	a1,32(t6)
80000be8:	024fa603          	lw	a2,36(t6)
80000bec:	028fa703          	lw	a4,40(t6)
80000bf0:	02cfa783          	lw	a5,44(t6)
80000bf4:	c0c0                	sw	s0,4(s1)
E:\VMshare\e203\zhengdian_E203\sdk\dhrystone\Release/../application/dhry_1.c:361
} /* Proc_1 */
80000bf6:	4422                	lw	s0,8(sp)
E:\VMshare\e203\zhengdian_E203\sdk\dhrystone\Release/../application/dhry_1.c:360
    structassign (*Ptr_Val_Par, *Ptr_Val_Par->Ptr_Comp);
80000bf8:	0124a023          	sw	s2,0(s1)
80000bfc:	01d4a423          	sw	t4,8(s1)
80000c00:	01c4a623          	sw	t3,12(s1)
80000c04:	0064a823          	sw	t1,16(s1)
80000c08:	0114aa23          	sw	a7,20(s1)
80000c0c:	0104ac23          	sw	a6,24(s1)
80000c10:	ccc8                	sw	a0,28(s1)
80000c12:	d08c                	sw	a1,32(s1)
80000c14:	d0d0                	sw	a2,36(s1)
80000c16:	d498                	sw	a4,40(s1)
80000c18:	d4dc                	sw	a5,44(s1)
E:\VMshare\e203\zhengdian_E203\sdk\dhrystone\Release/../application/dhry_1.c:361
} /* Proc_1 */
80000c1a:	4902                	lw	s2,0(sp)
80000c1c:	4492                	lw	s1,4(sp)
80000c1e:	0141                	addi	sp,sp,16
80000c20:	8082                	ret
80000c22:	0001                	nop
E:\VMshare\e203\zhengdian_E203\sdk\dhrystone\Release/../application/dhry_1.c:353
    Proc_6 (Ptr_Val_Par->variant.var_1.Enum_Comp,
80000c24:	4488                	lw	a0,8(s1)
E:\VMshare\e203\zhengdian_E203\sdk\dhrystone\Release/../application/dhry_1.c:352
    Next_Record->variant.var_1.Int_Comp = 6;
80000c26:	4499                	li	s1,6
E:\VMshare\e203\zhengdian_E203\sdk\dhrystone\Release/../application/dhry_1.c:353
    Proc_6 (Ptr_Val_Par->variant.var_1.Enum_Comp,
80000c28:	00840593          	addi	a1,s0,8
E:\VMshare\e203\zhengdian_E203\sdk\dhrystone\Release/../application/dhry_1.c:352
    Next_Record->variant.var_1.Int_Comp = 6;
80000c2c:	c444                	sw	s1,12(s0)
E:\VMshare\e203\zhengdian_E203\sdk\dhrystone\Release/../application/dhry_1.c:353
    Proc_6 (Ptr_Val_Par->variant.var_1.Enum_Comp,
80000c2e:	3d2d                	jal	80000a68 <Proc_6.isra.0>
E:\VMshare\e203\zhengdian_E203\sdk\dhrystone\Release/../application/dhry_1.c:355
    Next_Record->Ptr_Comp = Ptr_Glob->Ptr_Comp;
80000c30:	00092683          	lw	a3,0(s2)
E:\VMshare\e203\zhengdian_E203\sdk\dhrystone\Release/../application/dhry_1.c:356
    Proc_7 (Next_Record->variant.var_1.Int_Comp, 10,
80000c34:	4448                	lw	a0,12(s0)
80000c36:	00c40613          	addi	a2,s0,12
E:\VMshare\e203\zhengdian_E203\sdk\dhrystone\Release/../application/dhry_1.c:355
    Next_Record->Ptr_Comp = Ptr_Glob->Ptr_Comp;
80000c3a:	c014                	sw	a3,0(s0)
E:\VMshare\e203\zhengdian_E203\sdk\dhrystone\Release/../application/dhry_1.c:361
} /* Proc_1 */
80000c3c:	4422                	lw	s0,8(sp)
80000c3e:	40b2                	lw	ra,12(sp)
80000c40:	4492                	lw	s1,4(sp)
80000c42:	4902                	lw	s2,0(sp)
E:\VMshare\e203\zhengdian_E203\sdk\dhrystone\Release/../application/dhry_1.c:356
    Proc_7 (Next_Record->variant.var_1.Int_Comp, 10,
80000c44:	45a9                	li	a1,10
E:\VMshare\e203\zhengdian_E203\sdk\dhrystone\Release/../application/dhry_1.c:361
} /* Proc_1 */
80000c46:	0141                	addi	sp,sp,16
E:\VMshare\e203\zhengdian_E203\sdk\dhrystone\Release/../application/dhry_1.c:356
    Proc_7 (Next_Record->variant.var_1.Int_Comp, 10,
80000c48:	bd61                	j	80000ae0 <Proc_7.isra.0>
	...

80000c4c <Proc_2.isra.0>:
Proc_2():
E:\VMshare\e203\zhengdian_E203\sdk\dhrystone\Release/../application/dhry_1.c:376
    if (Ch_1_Glob == 'A')
80000c4c:	8801c703          	lbu	a4,-1920(gp) # 90000250 <Ch_1_Glob>
80000c50:	04100293          	li	t0,65
80000c54:	00570463          	beq	a4,t0,80000c5c <Proc_2.isra.0+0x10>
E:\VMshare\e203\zhengdian_E203\sdk\dhrystone\Release/../application/dhry_1.c:384
} /* Proc_2 */
80000c58:	8082                	ret
80000c5a:	0001                	nop
E:\VMshare\e203\zhengdian_E203\sdk\dhrystone\Release/../application/dhry_1.c:379
      Int_Loc -= 1;
80000c5c:	00052303          	lw	t1,0(a0)
E:\VMshare\e203\zhengdian_E203\sdk\dhrystone\Release/../application/dhry_1.c:380
      *Int_Par_Ref = Int_Loc - Int_Glob;
80000c60:	8941a583          	lw	a1,-1900(gp) # 90000264 <Int_Glob>
E:\VMshare\e203\zhengdian_E203\sdk\dhrystone\Release/../application/dhry_1.c:379
      Int_Loc -= 1;
80000c64:	00930613          	addi	a2,t1,9
E:\VMshare\e203\zhengdian_E203\sdk\dhrystone\Release/../application/dhry_1.c:380
      *Int_Par_Ref = Int_Loc - Int_Glob;
80000c68:	40b606b3          	sub	a3,a2,a1
80000c6c:	c114                	sw	a3,0(a0)
E:\VMshare\e203\zhengdian_E203\sdk\dhrystone\Release/../application/dhry_1.c:384
} /* Proc_2 */
80000c6e:	8082                	ret
Proc_2.isra.0():
80000c70:	0000                	unimp
	...

80000c74 <system_default_exception_handler>:
system_default_exception_handler():
E:\VMshare\e203\zhengdian_E203\sdk\dhrystone\Release/../hbird_sdk/SoC/hbirdv2/Common/Source/system_hbirdv2.c:168
{
80000c74:	1141                	addi	sp,sp,-16
80000c76:	c422                	sw	s0,8(sp)
80000c78:	842a                	mv	s0,a0
E:\VMshare\e203\zhengdian_E203\sdk\dhrystone\Release/../hbird_sdk/SoC/hbirdv2/Common/Source/system_hbirdv2.c:170
    printf("Trap in Exception\r\n");
80000c7a:	00006517          	auipc	a0,0x6
80000c7e:	c0650513          	addi	a0,a0,-1018 # 80006880 <__extendsfdf2+0x98>
E:\VMshare\e203\zhengdian_E203\sdk\dhrystone\Release/../hbird_sdk/SoC/hbirdv2/Common/Source/system_hbirdv2.c:168
{
80000c82:	c606                	sw	ra,12(sp)
E:\VMshare\e203\zhengdian_E203\sdk\dhrystone\Release/../hbird_sdk/SoC/hbirdv2/Common/Source/system_hbirdv2.c:170
    printf("Trap in Exception\r\n");
80000c84:	222010ef          	jal	ra,80001ea6 <iprintf>
E:\VMshare\e203\zhengdian_E203\sdk\dhrystone\Release/../hbird_sdk/SoC/hbirdv2/Common/Source/system_hbirdv2.c:171
    printf("MCAUSE: 0x%lx\r\n", mcause);
80000c88:	00006297          	auipc	t0,0x6
80000c8c:	85a2                	mv	a1,s0
80000c8e:	c0c28513          	addi	a0,t0,-1012 # 80006894 <__extendsfdf2+0xac>
80000c92:	214010ef          	jal	ra,80001ea6 <iprintf>
E:\VMshare\e203\zhengdian_E203\sdk\dhrystone\Release/../hbird_sdk/SoC/hbirdv2/Common/Source/system_hbirdv2.c:172
    printf("MEPC  : 0x%lx\r\n", __RV_CSR_READ(CSR_MEPC));
80000c96:	341025f3          	csrr	a1,mepc
80000c9a:	00006317          	auipc	t1,0x6
80000c9e:	c0a30513          	addi	a0,t1,-1014 # 800068a4 <__extendsfdf2+0xbc>
80000ca2:	204010ef          	jal	ra,80001ea6 <iprintf>
E:\VMshare\e203\zhengdian_E203\sdk\dhrystone\Release/../hbird_sdk/SoC/hbirdv2/Common/Source/system_hbirdv2.c:173
    printf("MTVAL : 0x%lx\r\n", __RV_CSR_READ(CSR_MBADADDR));
80000ca6:	343025f3          	csrr	a1,mtval
80000caa:	00006397          	auipc	t2,0x6
80000cae:	c0a38513          	addi	a0,t2,-1014 # 800068b4 <__extendsfdf2+0xcc>
80000cb2:	1f4010ef          	jal	ra,80001ea6 <iprintf>
E:\VMshare\e203\zhengdian_E203\sdk\dhrystone\Release/../hbird_sdk/SoC/hbirdv2/Common/Source/system_hbirdv2.c:174 (discriminator 1)
    while(1);
80000cb6:	a001                	j	80000cb6 <system_default_exception_handler+0x42>
80000cb8:	0000                	unimp
	...

80000cbc <system_default_interrupt_handler>:
system_default_interrupt_handler():
E:\VMshare\e203\zhengdian_E203\sdk\dhrystone\Release/../hbird_sdk/SoC/hbirdv2/Common/Source/system_hbirdv2.c:183
{
80000cbc:	1141                	addi	sp,sp,-16
80000cbe:	c422                	sw	s0,8(sp)
80000cc0:	842a                	mv	s0,a0
E:\VMshare\e203\zhengdian_E203\sdk\dhrystone\Release/../hbird_sdk/SoC/hbirdv2/Common/Source/system_hbirdv2.c:185
    printf("Trap in Interrupt\r\n");
80000cc2:	00006517          	auipc	a0,0x6
80000cc6:	c0250513          	addi	a0,a0,-1022 # 800068c4 <__extendsfdf2+0xdc>
E:\VMshare\e203\zhengdian_E203\sdk\dhrystone\Release/../hbird_sdk/SoC/hbirdv2/Common/Source/system_hbirdv2.c:183
{
80000cca:	c606                	sw	ra,12(sp)
E:\VMshare\e203\zhengdian_E203\sdk\dhrystone\Release/../hbird_sdk/SoC/hbirdv2/Common/Source/system_hbirdv2.c:185
    printf("Trap in Interrupt\r\n");
80000ccc:	1da010ef          	jal	ra,80001ea6 <iprintf>
E:\VMshare\e203\zhengdian_E203\sdk\dhrystone\Release/../hbird_sdk/SoC/hbirdv2/Common/Source/system_hbirdv2.c:186
    printf("MCAUSE: 0x%lx\r\n", mcause);
80000cd0:	00006297          	auipc	t0,0x6
80000cd4:	85a2                	mv	a1,s0
80000cd6:	bc428513          	addi	a0,t0,-1084 # 80006894 <__extendsfdf2+0xac>
80000cda:	1cc010ef          	jal	ra,80001ea6 <iprintf>
E:\VMshare\e203\zhengdian_E203\sdk\dhrystone\Release/../hbird_sdk/SoC/hbirdv2/Common/Source/system_hbirdv2.c:187
    printf("MEPC  : 0x%lx\r\n", __RV_CSR_READ(CSR_MEPC));
80000cde:	341025f3          	csrr	a1,mepc
80000ce2:	00006317          	auipc	t1,0x6
80000ce6:	bc230513          	addi	a0,t1,-1086 # 800068a4 <__extendsfdf2+0xbc>
80000cea:	1bc010ef          	jal	ra,80001ea6 <iprintf>
E:\VMshare\e203\zhengdian_E203\sdk\dhrystone\Release/../hbird_sdk/SoC/hbirdv2/Common/Source/system_hbirdv2.c:188
    printf("MTVAL : 0x%lx\r\n", __RV_CSR_READ(CSR_MBADADDR));
80000cee:	343025f3          	csrr	a1,mtval
E:\VMshare\e203\zhengdian_E203\sdk\dhrystone\Release/../hbird_sdk/SoC/hbirdv2/Common/Source/system_hbirdv2.c:189
}
80000cf2:	4422                	lw	s0,8(sp)
80000cf4:	40b2                	lw	ra,12(sp)
E:\VMshare\e203\zhengdian_E203\sdk\dhrystone\Release/../hbird_sdk/SoC/hbirdv2/Common/Source/system_hbirdv2.c:188
    printf("MTVAL : 0x%lx\r\n", __RV_CSR_READ(CSR_MBADADDR));
80000cf6:	00006397          	auipc	t2,0x6
80000cfa:	bbe38513          	addi	a0,t2,-1090 # 800068b4 <__extendsfdf2+0xcc>
E:\VMshare\e203\zhengdian_E203\sdk\dhrystone\Release/../hbird_sdk/SoC/hbirdv2/Common/Source/system_hbirdv2.c:189
}
80000cfe:	0141                	addi	sp,sp,16
E:\VMshare\e203\zhengdian_E203\sdk\dhrystone\Release/../hbird_sdk/SoC/hbirdv2/Common/Source/system_hbirdv2.c:188
    printf("MTVAL : 0x%lx\r\n", __RV_CSR_READ(CSR_MBADADDR));
80000d00:	1a60106f          	j	80001ea6 <iprintf>
80000d04:	0000                	unimp
	...

80000d08 <SystemBannerPrint>:
SystemBannerPrint():
E:\VMshare\e203\zhengdian_E203\sdk\dhrystone\Release/../hbird_sdk/SoC/hbirdv2/Common/Source/system_hbirdv2.c:381

/** Banner Print for HummingBird SDK */
void SystemBannerPrint(void)
{
#if defined(HBIRD_BANNER) && (HBIRD_BANNER == 1)
    printf("HummingBird SDK Build Time: %s, %s\r\n", __DATE__, __TIME__);
80000d08:	00006617          	auipc	a2,0x6
80000d0c:	00006597          	auipc	a1,0x6
80000d10:	00006517          	auipc	a0,0x6
E:\VMshare\e203\zhengdian_E203\sdk\dhrystone\Release/../hbird_sdk/SoC/hbirdv2/Common/Source/system_hbirdv2.c:379
{
80000d14:	1141                	addi	sp,sp,-16
E:\VMshare\e203\zhengdian_E203\sdk\dhrystone\Release/../hbird_sdk/SoC/hbirdv2/Common/Source/system_hbirdv2.c:381
    printf("HummingBird SDK Build Time: %s, %s\r\n", __DATE__, __TIME__);
80000d16:	bd060613          	addi	a2,a2,-1072 # 800068d8 <__extendsfdf2+0xf0>
80000d1a:	bd858593          	addi	a1,a1,-1064 # 800068e4 <__extendsfdf2+0xfc>
80000d1e:	be050513          	addi	a0,a0,-1056 # 800068f0 <__extendsfdf2+0x108>
E:\VMshare\e203\zhengdian_E203\sdk\dhrystone\Release/../hbird_sdk/SoC/hbirdv2/Common/Source/system_hbirdv2.c:379
{
80000d22:	c606                	sw	ra,12(sp)
E:\VMshare\e203\zhengdian_E203\sdk\dhrystone\Release/../hbird_sdk/SoC/hbirdv2/Common/Source/system_hbirdv2.c:381
    printf("HummingBird SDK Build Time: %s, %s\r\n", __DATE__, __TIME__);
80000d24:	182010ef          	jal	ra,80001ea6 <iprintf>
E:\VMshare\e203\zhengdian_E203\sdk\dhrystone\Release/../hbird_sdk/SoC/hbirdv2/Common/Source/system_hbirdv2.c:383
#ifdef DOWNLOAD_MODE_STRING
    printf("Download Mode: %s\r\n", DOWNLOAD_MODE_STRING);
80000d28:	00006297          	auipc	t0,0x6
80000d2c:	00006317          	auipc	t1,0x6
80000d30:	bf028593          	addi	a1,t0,-1040 # 80006918 <__extendsfdf2+0x130>
80000d34:	bf030513          	addi	a0,t1,-1040 # 8000691c <__extendsfdf2+0x134>
80000d38:	16e010ef          	jal	ra,80001ea6 <iprintf>
E:\VMshare\e203\zhengdian_E203\sdk\dhrystone\Release/../hbird_sdk/SoC/hbirdv2/Common/Source/system_hbirdv2.c:385
#endif
    printf("CPU Frequency %lu Hz\r\n", SystemCoreClock);
80000d3c:	0ffff797          	auipc	a5,0xffff
E:\VMshare\e203\zhengdian_E203\sdk\dhrystone\Release/../hbird_sdk/SoC/hbirdv2/Common/Source/system_hbirdv2.c:387
#endif
}
80000d40:	40b2                	lw	ra,12(sp)
E:\VMshare\e203\zhengdian_E203\sdk\dhrystone\Release/../hbird_sdk/SoC/hbirdv2/Common/Source/system_hbirdv2.c:385
    printf("CPU Frequency %lu Hz\r\n", SystemCoreClock);
80000d42:	4947a583          	lw	a1,1172(a5) # 900001d0 <SystemCoreClock>
80000d46:	00006397          	auipc	t2,0x6
80000d4a:	bea38513          	addi	a0,t2,-1046 # 80006930 <__extendsfdf2+0x148>
E:\VMshare\e203\zhengdian_E203\sdk\dhrystone\Release/../hbird_sdk/SoC/hbirdv2/Common/Source/system_hbirdv2.c:387
}
80000d4e:	0141                	addi	sp,sp,16
E:\VMshare\e203\zhengdian_E203\sdk\dhrystone\Release/../hbird_sdk/SoC/hbirdv2/Common/Source/system_hbirdv2.c:385
    printf("CPU Frequency %lu Hz\r\n", SystemCoreClock);
80000d50:	1560106f          	j	80001ea6 <iprintf>
80000d54:	0000                	unimp
	...

80000d58 <Func_2>:
Func_2():
E:\VMshare\e203\zhengdian_E203\sdk\dhrystone\Release/../application/dhry_2.c:143
{
80000d58:	1141                	addi	sp,sp,-16
80000d5a:	c226                	sw	s1,4(sp)
80000d5c:	c04a                	sw	s2,0(sp)
80000d5e:	c606                	sw	ra,12(sp)
80000d60:	c422                	sw	s0,8(sp)
80000d62:	84aa                	mv	s1,a0
80000d64:	892e                	mv	s2,a1
E:\VMshare\e203\zhengdian_E203\sdk\dhrystone\Release/../application/dhry_2.c:148
  while (Int_Loc <= 2) /* loop body executed once */
80000d66:	0001                	nop
E:\VMshare\e203\zhengdian_E203\sdk\dhrystone\Release/../application/dhry_2.c:149
    if (Func_1 (Str_1_Par_Ref[Int_Loc],
80000d68:	00394583          	lbu	a1,3(s2)
80000d6c:	0024c503          	lbu	a0,2(s1)
80000d70:	3111                	jal	80000974 <Func_1>
80000d72:	842a                	mv	s0,a0
80000d74:	f975                	bnez	a0,80000d68 <Func_2+0x10>
E:\VMshare\e203\zhengdian_E203\sdk\dhrystone\Release/../application/dhry_2.c:164
    if (strcmp (Str_1_Par_Ref, Str_2_Par_Ref) > 0)
80000d76:	85ca                	mv	a1,s2
80000d78:	8526                	mv	a0,s1
80000d7a:	116030ef          	jal	ra,80003e90 <strcmp>
80000d7e:	00a05663          	blez	a0,80000d8a <Func_2+0x32>
E:\VMshare\e203\zhengdian_E203\sdk\dhrystone\Release/../application/dhry_2.c:168
      Int_Glob = Int_Loc;
80000d82:	4729                	li	a4,10
80000d84:	88e1aa23          	sw	a4,-1900(gp) # 90000264 <Int_Glob>
E:\VMshare\e203\zhengdian_E203\sdk\dhrystone\Release/../application/dhry_2.c:169
      return (true);
80000d88:	4405                	li	s0,1
E:\VMshare\e203\zhengdian_E203\sdk\dhrystone\Release/../application/dhry_2.c:174
} /* Func_2 */
80000d8a:	40b2                	lw	ra,12(sp)
80000d8c:	8522                	mv	a0,s0
80000d8e:	4422                	lw	s0,8(sp)
80000d90:	4492                	lw	s1,4(sp)
80000d92:	4902                	lw	s2,0(sp)
80000d94:	0141                	addi	sp,sp,16
80000d96:	8082                	ret

80000d98 <uart_read.constprop.0>:
uart_read():
E:\VMshare\e203\zhengdian_E203\sdk\dhrystone\Release/../hbird_sdk/SoC/hbirdv2/Common/Source/Drivers/hbirdv2_uart.c:90
    uint32_t reg;
    if (__RARELY(uart == NULL)) {
        return -1;
    }
    
    while ((uart->LSR & 0x1) == 0);
80000d98:	10013737          	lui	a4,0x10013
80000d9c:	4b5c                	lw	a5,20(a4)
80000d9e:	0017f293          	andi	t0,a5,1
80000da2:	fe028de3          	beqz	t0,80000d9c <uart_read.constprop.0+0x4>
E:\VMshare\e203\zhengdian_E203\sdk\dhrystone\Release/../hbird_sdk/SoC/hbirdv2/Common/Source/Drivers/hbirdv2_uart.c:91
    reg = uart->RBR;
80000da6:	4308                	lw	a0,0(a4)
E:\VMshare\e203\zhengdian_E203\sdk\dhrystone\Release/../hbird_sdk/SoC/hbirdv2/Common/Source/Drivers/hbirdv2_uart.c:94
    
    return (uint8_t)(reg & 0xFF);
}
80000da8:	0ff57513          	andi	a0,a0,255
80000dac:	8082                	ret
	...

80000db0 <uart_write.constprop.0.isra.0>:
uart_write():
E:\VMshare\e203\zhengdian_E203\sdk\dhrystone\Release/../hbird_sdk/SoC/hbirdv2/Common/Source/Drivers/hbirdv2_uart.c:73
    while ((uart->LSR & 0x20) == 0);
80000db0:	10013737          	lui	a4,0x10013
80000db4:	4b5c                	lw	a5,20(a4)
80000db6:	0207f293          	andi	t0,a5,32
80000dba:	fe028de3          	beqz	t0,80000db4 <uart_write.constprop.0.isra.0+0x4>
E:\VMshare\e203\zhengdian_E203\sdk\dhrystone\Release/../hbird_sdk/SoC/hbirdv2/Common/Source/Drivers/hbirdv2_uart.c:75
    uart->THR = val;
80000dbe:	c308                	sw	a0,0(a4)
E:\VMshare\e203\zhengdian_E203\sdk\dhrystone\Release/../hbird_sdk/SoC/hbirdv2/Common/Source/Drivers/hbirdv2_uart.c:81
}
80000dc0:	8082                	ret
	...

80000dc4 <gpio_iof_config.constprop.0.isra.0>:
gpio_iof_config():
E:\VMshare\e203\zhengdian_E203\sdk\dhrystone\Release/../hbird_sdk/SoC/hbirdv2/Common/Source/Drivers/hbirdv2_gpio.c:9
int32_t gpio_iof_config(GPIO_TypeDef *gpio, uint32_t mask)
{
    if (__RARELY(gpio == NULL)) {
        return -1;
    }
    gpio->IOFCFG |= mask;
80000dc4:	10012737          	lui	a4,0x10012
80000dc8:	4f5c                	lw	a5,28(a4)
80000dca:	000306b7          	lui	a3,0x30
80000dce:	00d7e2b3          	or	t0,a5,a3
80000dd2:	00572e23          	sw	t0,28(a4) # 1001201c <dhry_stubs.c.c3a4eb6e+0x1000e441>
E:\VMshare\e203\zhengdian_E203\sdk\dhrystone\Release/../hbird_sdk/SoC/hbirdv2/Common/Source/Drivers/hbirdv2_gpio.c:12

    return 0;
}
80000dd6:	8082                	ret
gpio_iof_config.constprop.0.isra.0():
80000dd8:	0000                	unimp
	...

80000ddc <uart_init.constprop.0.isra.0>:
uart_init():
E:\VMshare\e203\zhengdian_E203\sdk\dhrystone\Release/../hbird_sdk/SoC/hbirdv2/Common/Source/Drivers/hbirdv2_uart.c:10
    unsigned int uart_div = SystemCoreClock / baudrate - 1;
80000ddc:	0ffff797          	auipc	a5,0xffff
80000de0:	3f47a283          	lw	t0,1012(a5) # 900001d0 <SystemCoreClock>
80000de4:	6771                	lui	a4,0x1c
80000de6:	20070313          	addi	t1,a4,512 # 1c200 <dhry_stubs.c.c3a4eb6e+0x18625>
80000dea:	0262d3b3          	divu	t2,t0,t1
E:\VMshare\e203\zhengdian_E203\sdk\dhrystone\Release/../hbird_sdk/SoC/hbirdv2/Common/Source/Drivers/hbirdv2_uart.c:11
    uart->LCR = 0x80;
80000dee:	10013537          	lui	a0,0x10013
80000df2:	08000693          	li	a3,128
80000df6:	c554                	sw	a3,12(a0)
E:\VMshare\e203\zhengdian_E203\sdk\dhrystone\Release/../hbird_sdk/SoC/hbirdv2/Common/Source/Drivers/hbirdv2_uart.c:14
    uart->FCR = 0xC6;
80000df8:	0c600e13          	li	t3,198
E:\VMshare\e203\zhengdian_E203\sdk\dhrystone\Release/../hbird_sdk/SoC/hbirdv2/Common/Source/Drivers/hbirdv2_uart.c:15
    uart->LCR = 0x03;
80000dfc:	4e8d                	li	t4,3
E:\VMshare\e203\zhengdian_E203\sdk\dhrystone\Release/../hbird_sdk/SoC/hbirdv2/Common/Source/Drivers/hbirdv2_uart.c:10
    unsigned int uart_div = SystemCoreClock / baudrate - 1;
80000dfe:	fff38593          	addi	a1,t2,-1
E:\VMshare\e203\zhengdian_E203\sdk\dhrystone\Release/../hbird_sdk/SoC/hbirdv2/Common/Source/Drivers/hbirdv2_uart.c:12
    uart->DLM = (uart_div >> 8) & 0xFF;
80000e02:	0085d613          	srli	a2,a1,0x8
80000e06:	0ff67813          	andi	a6,a2,255
80000e0a:	01052223          	sw	a6,4(a0) # 10013004 <dhry_stubs.c.c3a4eb6e+0x1000f429>
E:\VMshare\e203\zhengdian_E203\sdk\dhrystone\Release/../hbird_sdk/SoC/hbirdv2/Common/Source/Drivers/hbirdv2_uart.c:13
    uart->DLL = uart_div        & 0xFF;
80000e0e:	0ff5f893          	andi	a7,a1,255
80000e12:	01152023          	sw	a7,0(a0)
E:\VMshare\e203\zhengdian_E203\sdk\dhrystone\Release/../hbird_sdk/SoC/hbirdv2/Common/Source/Drivers/hbirdv2_uart.c:14
    uart->FCR = 0xC6;
80000e16:	01c52423          	sw	t3,8(a0)
E:\VMshare\e203\zhengdian_E203\sdk\dhrystone\Release/../hbird_sdk/SoC/hbirdv2/Common/Source/Drivers/hbirdv2_uart.c:15
    uart->LCR = 0x03;
80000e1a:	01d52623          	sw	t4,12(a0)
E:\VMshare\e203\zhengdian_E203\sdk\dhrystone\Release/../hbird_sdk/SoC/hbirdv2/Common/Source/Drivers/hbirdv2_uart.c:18
}
80000e1e:	8082                	ret
uart_init.constprop.0.isra.0():
80000e20:	0000                	unimp
	...

80000e24 <_close>:
_close():
E:\VMshare\e203\zhengdian_E203\sdk\dhrystone\Release/../hbird_sdk/SoC/hbirdv2/Common/Source/Stubs/close.c:10
#undef errno
extern int errno;

__WEAK int _close(int fd)
{
    errno = EBADF;
80000e24:	4725                	li	a4,9
80000e26:	8ae1a223          	sw	a4,-1884(gp) # 90000274 <errno>
E:\VMshare\e203\zhengdian_E203\sdk\dhrystone\Release/../hbird_sdk/SoC/hbirdv2/Common/Source/Stubs/close.c:12
    return -1;
}
80000e2a:	557d                	li	a0,-1
80000e2c:	8082                	ret
	...

80000e30 <_exit>:
__WFI():
E:\VMshare\e203\zhengdian_E203\sdk\dhrystone\hbird_sdk\NMSIS\Core\Include/core_feature_base.h:598 (discriminator 1)
 * the hardware platform that suitable interrupts should
 * preferentially be routed to this hart.
 */
__STATIC_FORCEINLINE void __WFI(void)
{
    __ASM volatile("wfi");
80000e30:	10500073          	wfi
80000e34:	bff5                	j	80000e30 <_exit>
	...

80000e38 <_fstat>:
_fstat():
E:\VMshare\e203\zhengdian_E203\sdk\dhrystone\Release/../hbird_sdk/SoC/hbirdv2/Common/Source/Stubs/fstat.c:12
#undef errno
extern int errno;

__WEAK int _fstat(int file, struct stat *st)
{
    if ((STDOUT_FILENO == file) || (STDERR_FILENO == file)) {
80000e38:	157d                	addi	a0,a0,-1
80000e3a:	4785                	li	a5,1
80000e3c:	00a7e863          	bltu	a5,a0,80000e4c <_fstat+0x14>
E:\VMshare\e203\zhengdian_E203\sdk\dhrystone\Release/../hbird_sdk/SoC/hbirdv2/Common/Source/Stubs/fstat.c:13
        st->st_mode = S_IFCHR;
80000e40:	6309                	lui	t1,0x2
80000e42:	0065a223          	sw	t1,4(a1)
E:\VMshare\e203\zhengdian_E203\sdk\dhrystone\Release/../hbird_sdk/SoC/hbirdv2/Common/Source/Stubs/fstat.c:14
        return 0;
80000e46:	4501                	li	a0,0
80000e48:	8082                	ret
80000e4a:	0001                	nop
E:\VMshare\e203\zhengdian_E203\sdk\dhrystone\Release/../hbird_sdk/SoC/hbirdv2/Common/Source/Stubs/fstat.c:16
    } else {
        errno = EBADF;
80000e4c:	4725                	li	a4,9
80000e4e:	8ae1a223          	sw	a4,-1884(gp) # 90000274 <errno>
E:\VMshare\e203\zhengdian_E203\sdk\dhrystone\Release/../hbird_sdk/SoC/hbirdv2/Common/Source/Stubs/fstat.c:17
        return -1;
80000e52:	557d                	li	a0,-1
E:\VMshare\e203\zhengdian_E203\sdk\dhrystone\Release/../hbird_sdk/SoC/hbirdv2/Common/Source/Stubs/fstat.c:19
    }
}
80000e54:	8082                	ret
	...

80000e58 <_getpid>:
_getpid():
E:\VMshare\e203\zhengdian_E203\sdk\dhrystone\Release/../hbird_sdk/SoC/hbirdv2/Common/Source/Stubs/getpid.c:8
#include <errno.h>

__WEAK int _getpid(void)
{
    return 1;
}
80000e58:	4505                	li	a0,1
80000e5a:	8082                	ret
80000e5c:	0000                	unimp
	...

80000e60 <_isatty>:
_isatty():
E:\VMshare\e203\zhengdian_E203\sdk\dhrystone\Release/../hbird_sdk/SoC/hbirdv2/Common/Source/Stubs/isatty.c:8
#include <unistd.h>

__WEAK int _isatty(int fd)
{
    return 1;
}
80000e60:	4505                	li	a0,1
80000e62:	8082                	ret
80000e64:	0000                	unimp
	...

80000e68 <_kill>:
_kill():
E:\VMshare\e203\zhengdian_E203\sdk\dhrystone\Release/../hbird_sdk/SoC/hbirdv2/Common/Source/Stubs/kill.c:9
#undef errno
extern int errno;

__WEAK int _kill(int pid, int sig)
{
    errno = EINVAL;
80000e68:	4759                	li	a4,22
80000e6a:	8ae1a223          	sw	a4,-1884(gp) # 90000274 <errno>
E:\VMshare\e203\zhengdian_E203\sdk\dhrystone\Release/../hbird_sdk/SoC/hbirdv2/Common/Source/Stubs/kill.c:11
    return -1;
}
80000e6e:	557d                	li	a0,-1
80000e70:	8082                	ret
	...

80000e74 <_lseek>:
_lseek():
E:\VMshare\e203\zhengdian_E203\sdk\dhrystone\Release/../hbird_sdk/SoC/hbirdv2/Common/Source/Stubs/lseek.c:11
extern int errno;

__WEAK int _lseek(int file, int offset, int whence)
{
    return 0;
}
80000e74:	4501                	li	a0,0
80000e76:	8082                	ret
80000e78:	0000                	unimp
	...

80000e7c <_read>:
_read():
E:\VMshare\e203\zhengdian_E203\sdk\dhrystone\Release/../hbird_sdk/SoC/hbirdv2/Common/Source/Stubs/read.c:12

// #define UART_AUTO_ECHO

__WEAK ssize_t _read(int fd, void* ptr, size_t len)
{
    if (fd != STDIN_FILENO) {
80000e7c:	c501                	beqz	a0,80000e84 <_read+0x8>
E:\VMshare\e203\zhengdian_E203\sdk\dhrystone\Release/../hbird_sdk/SoC/hbirdv2/Common/Source/Stubs/read.c:13
        return -1;
80000e7e:	557d                	li	a0,-1
E:\VMshare\e203\zhengdian_E203\sdk\dhrystone\Release/../hbird_sdk/SoC/hbirdv2/Common/Source/Stubs/read.c:22
    readbuf[0] = uart_read(SOC_DEBUG_UART);
#ifdef UART_AUTO_ECHO
    uart_write(SOC_DEBUG_UART, readbuf[0]);
#endif
    return 1;
}
80000e80:	8082                	ret
80000e82:	0001                	nop
E:\VMshare\e203\zhengdian_E203\sdk\dhrystone\Release/../hbird_sdk/SoC/hbirdv2/Common/Source/Stubs/read.c:11
{
80000e84:	1141                	addi	sp,sp,-16
80000e86:	c422                	sw	s0,8(sp)
80000e88:	c606                	sw	ra,12(sp)
80000e8a:	842e                	mv	s0,a1
E:\VMshare\e203\zhengdian_E203\sdk\dhrystone\Release/../hbird_sdk/SoC/hbirdv2/Common/Source/Stubs/read.c:17
    readbuf[0] = uart_read(SOC_DEBUG_UART);
80000e8c:	3731                	jal	80000d98 <uart_read.constprop.0>
80000e8e:	00a40023          	sb	a0,0(s0)
E:\VMshare\e203\zhengdian_E203\sdk\dhrystone\Release/../hbird_sdk/SoC/hbirdv2/Common/Source/Stubs/read.c:22
}
80000e92:	40b2                	lw	ra,12(sp)
80000e94:	4422                	lw	s0,8(sp)
E:\VMshare\e203\zhengdian_E203\sdk\dhrystone\Release/../hbird_sdk/SoC/hbirdv2/Common/Source/Stubs/read.c:21
    return 1;
80000e96:	4505                	li	a0,1
E:\VMshare\e203\zhengdian_E203\sdk\dhrystone\Release/../hbird_sdk/SoC/hbirdv2/Common/Source/Stubs/read.c:22
}
80000e98:	0141                	addi	sp,sp,16
80000e9a:	8082                	ret

80000e9c <_sbrk>:
_sbrk():
E:\VMshare\e203\zhengdian_E203\sdk\dhrystone\Release/../hbird_sdk/SoC/hbirdv2/Common/Source/Stubs/sbrk.c:13
{
    extern char _end[];
    extern char _heap_end[];
    static char *curbrk = _end;

    if ((curbrk + incr < _end) || (curbrk + incr > _heap_end)) {
80000e9c:	0ffff797          	auipc	a5,0xffff
80000ea0:	33878293          	addi	t0,a5,824 # 900001d4 <curbrk.0>
80000ea4:	0002a683          	lw	a3,0(t0)
80000ea8:	10002717          	auipc	a4,0x10002
80000eac:	cd870313          	addi	t1,a4,-808 # 90002b80 <_end>
80000eb0:	9536                	add	a0,a0,a3
80000eb2:	00656d63          	bltu	a0,t1,80000ecc <_sbrk+0x30>
E:\VMshare\e203\zhengdian_E203\sdk\dhrystone\Release/../hbird_sdk/SoC/hbirdv2/Common/Source/Stubs/sbrk.c:13 (discriminator 1)
80000eb6:	1000f397          	auipc	t2,0x1000f
80000eba:	94a38593          	addi	a1,t2,-1718 # 9000f800 <_heap_end>
80000ebe:	00a5e763          	bltu	a1,a0,80000ecc <_sbrk+0x30>
E:\VMshare\e203\zhengdian_E203\sdk\dhrystone\Release/../hbird_sdk/SoC/hbirdv2/Common/Source/Stubs/sbrk.c:17
        return (void *)(-1);
    }

    curbrk += incr;
80000ec2:	00a2a023          	sw	a0,0(t0)
E:\VMshare\e203\zhengdian_E203\sdk\dhrystone\Release/../hbird_sdk/SoC/hbirdv2/Common/Source/Stubs/sbrk.c:19
    return (void *)(curbrk - incr);
}
80000ec6:	8536                	mv	a0,a3
80000ec8:	8082                	ret
80000eca:	0001                	nop
E:\VMshare\e203\zhengdian_E203\sdk\dhrystone\Release/../hbird_sdk/SoC/hbirdv2/Common/Source/Stubs/sbrk.c:14
        return (void *)(-1);
80000ecc:	56fd                	li	a3,-1
E:\VMshare\e203\zhengdian_E203\sdk\dhrystone\Release/../hbird_sdk/SoC/hbirdv2/Common/Source/Stubs/sbrk.c:19
}
80000ece:	8536                	mv	a0,a3
80000ed0:	8082                	ret
	...

80000ed4 <_write>:
_write():
E:\VMshare\e203\zhengdian_E203\sdk\dhrystone\Release/../hbird_sdk/SoC/hbirdv2/Common/Source/Stubs/write.c:9
#include <unistd.h>
#include <sys/types.h>
#include <hbird_sdk_hal.h>

__WEAK ssize_t _write(int fd, const void* ptr, size_t len)
{
80000ed4:	1101                	addi	sp,sp,-32
80000ed6:	c84a                	sw	s2,16(sp)
80000ed8:	c64e                	sw	s3,12(sp)
80000eda:	ce06                	sw	ra,28(sp)
80000edc:	cc22                	sw	s0,24(sp)
80000ede:	ca26                	sw	s1,20(sp)
80000ee0:	c452                	sw	s4,8(sp)
80000ee2:	892e                	mv	s2,a1
80000ee4:	89b2                	mv	s3,a2
E:\VMshare\e203\zhengdian_E203\sdk\dhrystone\Release/../hbird_sdk/SoC/hbirdv2/Common/Source/Stubs/write.c:10
    if (!isatty(fd)) {
80000ee6:	012010ef          	jal	ra,80001ef8 <isatty>
80000eea:	1e050063          	beqz	a0,800010ca <_write+0x1f6>
E:\VMshare\e203\zhengdian_E203\sdk\dhrystone\Release/../hbird_sdk/SoC/hbirdv2/Common/Source/Stubs/write.c:15
        return -1;
    }

    const uint8_t *writebuf = (const uint8_t *)ptr;
    for (size_t i = 0; i < len; i++) {
80000eee:	844a                	mv	s0,s2
80000ef0:	01390a33          	add	s4,s2,s3
80000ef4:	08098863          	beqz	s3,80000f84 <_write+0xb0>
80000ef8:	412a07b3          	sub	a5,s4,s2
80000efc:	0077f093          	andi	ra,a5,7
E:\VMshare\e203\zhengdian_E203\sdk\dhrystone\Release/../hbird_sdk/SoC/hbirdv2/Common/Source/Stubs/write.c:16
        if (writebuf[i] == '\n') {
80000f00:	44a9                	li	s1,10
80000f02:	0e008963          	beqz	ra,80000ff4 <_write+0x120>
80000f06:	4705                	li	a4,1
80000f08:	06e08663          	beq	ra,a4,80000f74 <_write+0xa0>
80000f0c:	4289                	li	t0,2
80000f0e:	04508d63          	beq	ra,t0,80000f68 <_write+0x94>
80000f12:	430d                	li	t1,3
80000f14:	04608463          	beq	ra,t1,80000f5c <_write+0x88>
80000f18:	4391                	li	t2,4
80000f1a:	02708b63          	beq	ra,t2,80000f50 <_write+0x7c>
80000f1e:	4515                	li	a0,5
80000f20:	02a08263          	beq	ra,a0,80000f44 <_write+0x70>
80000f24:	4599                	li	a1,6
80000f26:	00b08963          	beq	ra,a1,80000f38 <_write+0x64>
80000f2a:	00094503          	lbu	a0,0(s2)
80000f2e:	18950963          	beq	a0,s1,800010c0 <_write+0x1ec>
E:\VMshare\e203\zhengdian_E203\sdk\dhrystone\Release/../hbird_sdk/SoC/hbirdv2/Common/Source/Stubs/write.c:19
            uart_write(SOC_DEBUG_UART, '\r');
        }
        uart_write(SOC_DEBUG_UART, writebuf[i]);
80000f32:	3dbd                	jal	80000db0 <uart_write.constprop.0.isra.0>
E:\VMshare\e203\zhengdian_E203\sdk\dhrystone\Release/../hbird_sdk/SoC/hbirdv2/Common/Source/Stubs/write.c:15
    for (size_t i = 0; i < len; i++) {
80000f34:	00190413          	addi	s0,s2,1
E:\VMshare\e203\zhengdian_E203\sdk\dhrystone\Release/../hbird_sdk/SoC/hbirdv2/Common/Source/Stubs/write.c:16
        if (writebuf[i] == '\n') {
80000f38:	00044503          	lbu	a0,0(s0)
80000f3c:	16950d63          	beq	a0,s1,800010b6 <_write+0x1e2>
E:\VMshare\e203\zhengdian_E203\sdk\dhrystone\Release/../hbird_sdk/SoC/hbirdv2/Common/Source/Stubs/write.c:19
        uart_write(SOC_DEBUG_UART, writebuf[i]);
80000f40:	3d85                	jal	80000db0 <uart_write.constprop.0.isra.0>
E:\VMshare\e203\zhengdian_E203\sdk\dhrystone\Release/../hbird_sdk/SoC/hbirdv2/Common/Source/Stubs/write.c:15
    for (size_t i = 0; i < len; i++) {
80000f42:	0405                	addi	s0,s0,1
E:\VMshare\e203\zhengdian_E203\sdk\dhrystone\Release/../hbird_sdk/SoC/hbirdv2/Common/Source/Stubs/write.c:16
        if (writebuf[i] == '\n') {
80000f44:	00044503          	lbu	a0,0(s0)
80000f48:	16950263          	beq	a0,s1,800010ac <_write+0x1d8>
E:\VMshare\e203\zhengdian_E203\sdk\dhrystone\Release/../hbird_sdk/SoC/hbirdv2/Common/Source/Stubs/write.c:19
        uart_write(SOC_DEBUG_UART, writebuf[i]);
80000f4c:	3595                	jal	80000db0 <uart_write.constprop.0.isra.0>
E:\VMshare\e203\zhengdian_E203\sdk\dhrystone\Release/../hbird_sdk/SoC/hbirdv2/Common/Source/Stubs/write.c:15
    for (size_t i = 0; i < len; i++) {
80000f4e:	0405                	addi	s0,s0,1
E:\VMshare\e203\zhengdian_E203\sdk\dhrystone\Release/../hbird_sdk/SoC/hbirdv2/Common/Source/Stubs/write.c:16
        if (writebuf[i] == '\n') {
80000f50:	00044503          	lbu	a0,0(s0)
80000f54:	14950763          	beq	a0,s1,800010a2 <_write+0x1ce>
E:\VMshare\e203\zhengdian_E203\sdk\dhrystone\Release/../hbird_sdk/SoC/hbirdv2/Common/Source/Stubs/write.c:19
        uart_write(SOC_DEBUG_UART, writebuf[i]);
80000f58:	3da1                	jal	80000db0 <uart_write.constprop.0.isra.0>
E:\VMshare\e203\zhengdian_E203\sdk\dhrystone\Release/../hbird_sdk/SoC/hbirdv2/Common/Source/Stubs/write.c:15
    for (size_t i = 0; i < len; i++) {
80000f5a:	0405                	addi	s0,s0,1
E:\VMshare\e203\zhengdian_E203\sdk\dhrystone\Release/../hbird_sdk/SoC/hbirdv2/Common/Source/Stubs/write.c:16
        if (writebuf[i] == '\n') {
80000f5c:	00044503          	lbu	a0,0(s0)
80000f60:	12950063          	beq	a0,s1,80001080 <_write+0x1ac>
E:\VMshare\e203\zhengdian_E203\sdk\dhrystone\Release/../hbird_sdk/SoC/hbirdv2/Common/Source/Stubs/write.c:19
        uart_write(SOC_DEBUG_UART, writebuf[i]);
80000f64:	35b1                	jal	80000db0 <uart_write.constprop.0.isra.0>
E:\VMshare\e203\zhengdian_E203\sdk\dhrystone\Release/../hbird_sdk/SoC/hbirdv2/Common/Source/Stubs/write.c:15
    for (size_t i = 0; i < len; i++) {
80000f66:	0405                	addi	s0,s0,1
E:\VMshare\e203\zhengdian_E203\sdk\dhrystone\Release/../hbird_sdk/SoC/hbirdv2/Common/Source/Stubs/write.c:16
        if (writebuf[i] == '\n') {
80000f68:	00044503          	lbu	a0,0(s0)
80000f6c:	12950663          	beq	a0,s1,80001098 <_write+0x1c4>
E:\VMshare\e203\zhengdian_E203\sdk\dhrystone\Release/../hbird_sdk/SoC/hbirdv2/Common/Source/Stubs/write.c:19
        uart_write(SOC_DEBUG_UART, writebuf[i]);
80000f70:	3581                	jal	80000db0 <uart_write.constprop.0.isra.0>
E:\VMshare\e203\zhengdian_E203\sdk\dhrystone\Release/../hbird_sdk/SoC/hbirdv2/Common/Source/Stubs/write.c:15
    for (size_t i = 0; i < len; i++) {
80000f72:	0405                	addi	s0,s0,1
E:\VMshare\e203\zhengdian_E203\sdk\dhrystone\Release/../hbird_sdk/SoC/hbirdv2/Common/Source/Stubs/write.c:16
        if (writebuf[i] == '\n') {
80000f74:	00044503          	lbu	a0,0(s0)
80000f78:	10950a63          	beq	a0,s1,8000108c <_write+0x1b8>
E:\VMshare\e203\zhengdian_E203\sdk\dhrystone\Release/../hbird_sdk/SoC/hbirdv2/Common/Source/Stubs/write.c:15
    for (size_t i = 0; i < len; i++) {
80000f7c:	0405                	addi	s0,s0,1
E:\VMshare\e203\zhengdian_E203\sdk\dhrystone\Release/../hbird_sdk/SoC/hbirdv2/Common/Source/Stubs/write.c:19
        uart_write(SOC_DEBUG_UART, writebuf[i]);
80000f7e:	3d0d                	jal	80000db0 <uart_write.constprop.0.isra.0>
E:\VMshare\e203\zhengdian_E203\sdk\dhrystone\Release/../hbird_sdk/SoC/hbirdv2/Common/Source/Stubs/write.c:15
    for (size_t i = 0; i < len; i++) {
80000f80:	07441a63          	bne	s0,s4,80000ff4 <_write+0x120>
E:\VMshare\e203\zhengdian_E203\sdk\dhrystone\Release/../hbird_sdk/SoC/hbirdv2/Common/Source/Stubs/write.c:21
    }
    return len;
80000f84:	854e                	mv	a0,s3
E:\VMshare\e203\zhengdian_E203\sdk\dhrystone\Release/../hbird_sdk/SoC/hbirdv2/Common/Source/Stubs/write.c:22
}
80000f86:	40f2                	lw	ra,28(sp)
80000f88:	4462                	lw	s0,24(sp)
80000f8a:	44d2                	lw	s1,20(sp)
80000f8c:	4942                	lw	s2,16(sp)
80000f8e:	49b2                	lw	s3,12(sp)
80000f90:	4a22                	lw	s4,8(sp)
80000f92:	6105                	addi	sp,sp,32
80000f94:	8082                	ret
80000f96:	0001                	nop
E:\VMshare\e203\zhengdian_E203\sdk\dhrystone\Release/../hbird_sdk/SoC/hbirdv2/Common/Source/Stubs/write.c:17
            uart_write(SOC_DEBUG_UART, '\r');
80000f98:	4535                	li	a0,13
80000f9a:	3d19                	jal	80000db0 <uart_write.constprop.0.isra.0>
E:\VMshare\e203\zhengdian_E203\sdk\dhrystone\Release/../hbird_sdk/SoC/hbirdv2/Common/Source/Stubs/write.c:19
        uart_write(SOC_DEBUG_UART, writebuf[i]);
80000f9c:	00044503          	lbu	a0,0(s0)
E:\VMshare\e203\zhengdian_E203\sdk\dhrystone\Release/../hbird_sdk/SoC/hbirdv2/Common/Source/Stubs/write.c:15
    for (size_t i = 0; i < len; i++) {
80000fa0:	00140913          	addi	s2,s0,1
E:\VMshare\e203\zhengdian_E203\sdk\dhrystone\Release/../hbird_sdk/SoC/hbirdv2/Common/Source/Stubs/write.c:19
        uart_write(SOC_DEBUG_UART, writebuf[i]);
80000fa4:	3531                	jal	80000db0 <uart_write.constprop.0.isra.0>
E:\VMshare\e203\zhengdian_E203\sdk\dhrystone\Release/../hbird_sdk/SoC/hbirdv2/Common/Source/Stubs/write.c:16
        if (writebuf[i] == '\n') {
80000fa6:	00144503          	lbu	a0,1(s0)
80000faa:	06950063          	beq	a0,s1,8000100a <_write+0x136>
E:\VMshare\e203\zhengdian_E203\sdk\dhrystone\Release/../hbird_sdk/SoC/hbirdv2/Common/Source/Stubs/write.c:19
        uart_write(SOC_DEBUG_UART, writebuf[i]);
80000fae:	3509                	jal	80000db0 <uart_write.constprop.0.isra.0>
E:\VMshare\e203\zhengdian_E203\sdk\dhrystone\Release/../hbird_sdk/SoC/hbirdv2/Common/Source/Stubs/write.c:16
        if (writebuf[i] == '\n') {
80000fb0:	00194503          	lbu	a0,1(s2)
80000fb4:	06950463          	beq	a0,s1,8000101c <_write+0x148>
E:\VMshare\e203\zhengdian_E203\sdk\dhrystone\Release/../hbird_sdk/SoC/hbirdv2/Common/Source/Stubs/write.c:19
        uart_write(SOC_DEBUG_UART, writebuf[i]);
80000fb8:	3be5                	jal	80000db0 <uart_write.constprop.0.isra.0>
E:\VMshare\e203\zhengdian_E203\sdk\dhrystone\Release/../hbird_sdk/SoC/hbirdv2/Common/Source/Stubs/write.c:16
        if (writebuf[i] == '\n') {
80000fba:	00294503          	lbu	a0,2(s2)
80000fbe:	06950863          	beq	a0,s1,8000102e <_write+0x15a>
E:\VMshare\e203\zhengdian_E203\sdk\dhrystone\Release/../hbird_sdk/SoC/hbirdv2/Common/Source/Stubs/write.c:19
        uart_write(SOC_DEBUG_UART, writebuf[i]);
80000fc2:	33fd                	jal	80000db0 <uart_write.constprop.0.isra.0>
E:\VMshare\e203\zhengdian_E203\sdk\dhrystone\Release/../hbird_sdk/SoC/hbirdv2/Common/Source/Stubs/write.c:16
        if (writebuf[i] == '\n') {
80000fc4:	00394503          	lbu	a0,3(s2)
80000fc8:	06950c63          	beq	a0,s1,80001040 <_write+0x16c>
E:\VMshare\e203\zhengdian_E203\sdk\dhrystone\Release/../hbird_sdk/SoC/hbirdv2/Common/Source/Stubs/write.c:19
        uart_write(SOC_DEBUG_UART, writebuf[i]);
80000fcc:	33d5                	jal	80000db0 <uart_write.constprop.0.isra.0>
E:\VMshare\e203\zhengdian_E203\sdk\dhrystone\Release/../hbird_sdk/SoC/hbirdv2/Common/Source/Stubs/write.c:16
        if (writebuf[i] == '\n') {
80000fce:	00494503          	lbu	a0,4(s2)
80000fd2:	08950063          	beq	a0,s1,80001052 <_write+0x17e>
E:\VMshare\e203\zhengdian_E203\sdk\dhrystone\Release/../hbird_sdk/SoC/hbirdv2/Common/Source/Stubs/write.c:19
        uart_write(SOC_DEBUG_UART, writebuf[i]);
80000fd6:	3be9                	jal	80000db0 <uart_write.constprop.0.isra.0>
E:\VMshare\e203\zhengdian_E203\sdk\dhrystone\Release/../hbird_sdk/SoC/hbirdv2/Common/Source/Stubs/write.c:16
        if (writebuf[i] == '\n') {
80000fd8:	00594503          	lbu	a0,5(s2)
80000fdc:	08950463          	beq	a0,s1,80001064 <_write+0x190>
E:\VMshare\e203\zhengdian_E203\sdk\dhrystone\Release/../hbird_sdk/SoC/hbirdv2/Common/Source/Stubs/write.c:19
        uart_write(SOC_DEBUG_UART, writebuf[i]);
80000fe0:	3bc1                	jal	80000db0 <uart_write.constprop.0.isra.0>
E:\VMshare\e203\zhengdian_E203\sdk\dhrystone\Release/../hbird_sdk/SoC/hbirdv2/Common/Source/Stubs/write.c:16
        if (writebuf[i] == '\n') {
80000fe2:	00694503          	lbu	a0,6(s2)
80000fe6:	08950863          	beq	a0,s1,80001076 <_write+0x1a2>
E:\VMshare\e203\zhengdian_E203\sdk\dhrystone\Release/../hbird_sdk/SoC/hbirdv2/Common/Source/Stubs/write.c:15
    for (size_t i = 0; i < len; i++) {
80000fea:	00790413          	addi	s0,s2,7
E:\VMshare\e203\zhengdian_E203\sdk\dhrystone\Release/../hbird_sdk/SoC/hbirdv2/Common/Source/Stubs/write.c:19
        uart_write(SOC_DEBUG_UART, writebuf[i]);
80000fee:	33c9                	jal	80000db0 <uart_write.constprop.0.isra.0>
E:\VMshare\e203\zhengdian_E203\sdk\dhrystone\Release/../hbird_sdk/SoC/hbirdv2/Common/Source/Stubs/write.c:15
    for (size_t i = 0; i < len; i++) {
80000ff0:	f9440ae3          	beq	s0,s4,80000f84 <_write+0xb0>
E:\VMshare\e203\zhengdian_E203\sdk\dhrystone\Release/../hbird_sdk/SoC/hbirdv2/Common/Source/Stubs/write.c:16
        if (writebuf[i] == '\n') {
80000ff4:	00044503          	lbu	a0,0(s0)
80000ff8:	fa9500e3          	beq	a0,s1,80000f98 <_write+0xc4>
E:\VMshare\e203\zhengdian_E203\sdk\dhrystone\Release/../hbird_sdk/SoC/hbirdv2/Common/Source/Stubs/write.c:19
        uart_write(SOC_DEBUG_UART, writebuf[i]);
80000ffc:	3b55                	jal	80000db0 <uart_write.constprop.0.isra.0>
E:\VMshare\e203\zhengdian_E203\sdk\dhrystone\Release/../hbird_sdk/SoC/hbirdv2/Common/Source/Stubs/write.c:16
        if (writebuf[i] == '\n') {
80000ffe:	00144503          	lbu	a0,1(s0)
E:\VMshare\e203\zhengdian_E203\sdk\dhrystone\Release/../hbird_sdk/SoC/hbirdv2/Common/Source/Stubs/write.c:15
    for (size_t i = 0; i < len; i++) {
80001002:	00140913          	addi	s2,s0,1
E:\VMshare\e203\zhengdian_E203\sdk\dhrystone\Release/../hbird_sdk/SoC/hbirdv2/Common/Source/Stubs/write.c:16
        if (writebuf[i] == '\n') {
80001006:	fa9514e3          	bne	a0,s1,80000fae <_write+0xda>
E:\VMshare\e203\zhengdian_E203\sdk\dhrystone\Release/../hbird_sdk/SoC/hbirdv2/Common/Source/Stubs/write.c:17
            uart_write(SOC_DEBUG_UART, '\r');
8000100a:	4535                	li	a0,13
8000100c:	3355                	jal	80000db0 <uart_write.constprop.0.isra.0>
E:\VMshare\e203\zhengdian_E203\sdk\dhrystone\Release/../hbird_sdk/SoC/hbirdv2/Common/Source/Stubs/write.c:19
        uart_write(SOC_DEBUG_UART, writebuf[i]);
8000100e:	00144503          	lbu	a0,1(s0)
80001012:	3b79                	jal	80000db0 <uart_write.constprop.0.isra.0>
E:\VMshare\e203\zhengdian_E203\sdk\dhrystone\Release/../hbird_sdk/SoC/hbirdv2/Common/Source/Stubs/write.c:16
        if (writebuf[i] == '\n') {
80001014:	00194503          	lbu	a0,1(s2)
80001018:	fa9510e3          	bne	a0,s1,80000fb8 <_write+0xe4>
E:\VMshare\e203\zhengdian_E203\sdk\dhrystone\Release/../hbird_sdk/SoC/hbirdv2/Common/Source/Stubs/write.c:17
            uart_write(SOC_DEBUG_UART, '\r');
8000101c:	4535                	li	a0,13
8000101e:	3b49                	jal	80000db0 <uart_write.constprop.0.isra.0>
E:\VMshare\e203\zhengdian_E203\sdk\dhrystone\Release/../hbird_sdk/SoC/hbirdv2/Common/Source/Stubs/write.c:19
        uart_write(SOC_DEBUG_UART, writebuf[i]);
80001020:	00194503          	lbu	a0,1(s2)
80001024:	3371                	jal	80000db0 <uart_write.constprop.0.isra.0>
E:\VMshare\e203\zhengdian_E203\sdk\dhrystone\Release/../hbird_sdk/SoC/hbirdv2/Common/Source/Stubs/write.c:16
        if (writebuf[i] == '\n') {
80001026:	00294503          	lbu	a0,2(s2)
8000102a:	f8951ce3          	bne	a0,s1,80000fc2 <_write+0xee>
E:\VMshare\e203\zhengdian_E203\sdk\dhrystone\Release/../hbird_sdk/SoC/hbirdv2/Common/Source/Stubs/write.c:17
            uart_write(SOC_DEBUG_UART, '\r');
8000102e:	4535                	li	a0,13
80001030:	3341                	jal	80000db0 <uart_write.constprop.0.isra.0>
E:\VMshare\e203\zhengdian_E203\sdk\dhrystone\Release/../hbird_sdk/SoC/hbirdv2/Common/Source/Stubs/write.c:19
        uart_write(SOC_DEBUG_UART, writebuf[i]);
80001032:	00294503          	lbu	a0,2(s2)
80001036:	3bad                	jal	80000db0 <uart_write.constprop.0.isra.0>
E:\VMshare\e203\zhengdian_E203\sdk\dhrystone\Release/../hbird_sdk/SoC/hbirdv2/Common/Source/Stubs/write.c:16
        if (writebuf[i] == '\n') {
80001038:	00394503          	lbu	a0,3(s2)
8000103c:	f89518e3          	bne	a0,s1,80000fcc <_write+0xf8>
E:\VMshare\e203\zhengdian_E203\sdk\dhrystone\Release/../hbird_sdk/SoC/hbirdv2/Common/Source/Stubs/write.c:17
            uart_write(SOC_DEBUG_UART, '\r');
80001040:	4535                	li	a0,13
80001042:	33bd                	jal	80000db0 <uart_write.constprop.0.isra.0>
E:\VMshare\e203\zhengdian_E203\sdk\dhrystone\Release/../hbird_sdk/SoC/hbirdv2/Common/Source/Stubs/write.c:19
        uart_write(SOC_DEBUG_UART, writebuf[i]);
80001044:	00394503          	lbu	a0,3(s2)
80001048:	33a5                	jal	80000db0 <uart_write.constprop.0.isra.0>
E:\VMshare\e203\zhengdian_E203\sdk\dhrystone\Release/../hbird_sdk/SoC/hbirdv2/Common/Source/Stubs/write.c:16
        if (writebuf[i] == '\n') {
8000104a:	00494503          	lbu	a0,4(s2)
8000104e:	f89514e3          	bne	a0,s1,80000fd6 <_write+0x102>
E:\VMshare\e203\zhengdian_E203\sdk\dhrystone\Release/../hbird_sdk/SoC/hbirdv2/Common/Source/Stubs/write.c:17
            uart_write(SOC_DEBUG_UART, '\r');
80001052:	4535                	li	a0,13
80001054:	3bb1                	jal	80000db0 <uart_write.constprop.0.isra.0>
E:\VMshare\e203\zhengdian_E203\sdk\dhrystone\Release/../hbird_sdk/SoC/hbirdv2/Common/Source/Stubs/write.c:19
        uart_write(SOC_DEBUG_UART, writebuf[i]);
80001056:	00494503          	lbu	a0,4(s2)
8000105a:	3b99                	jal	80000db0 <uart_write.constprop.0.isra.0>
E:\VMshare\e203\zhengdian_E203\sdk\dhrystone\Release/../hbird_sdk/SoC/hbirdv2/Common/Source/Stubs/write.c:16
        if (writebuf[i] == '\n') {
8000105c:	00594503          	lbu	a0,5(s2)
80001060:	f89510e3          	bne	a0,s1,80000fe0 <_write+0x10c>
E:\VMshare\e203\zhengdian_E203\sdk\dhrystone\Release/../hbird_sdk/SoC/hbirdv2/Common/Source/Stubs/write.c:17
            uart_write(SOC_DEBUG_UART, '\r');
80001064:	4535                	li	a0,13
80001066:	33a9                	jal	80000db0 <uart_write.constprop.0.isra.0>
E:\VMshare\e203\zhengdian_E203\sdk\dhrystone\Release/../hbird_sdk/SoC/hbirdv2/Common/Source/Stubs/write.c:19
        uart_write(SOC_DEBUG_UART, writebuf[i]);
80001068:	00594503          	lbu	a0,5(s2)
8000106c:	3391                	jal	80000db0 <uart_write.constprop.0.isra.0>
E:\VMshare\e203\zhengdian_E203\sdk\dhrystone\Release/../hbird_sdk/SoC/hbirdv2/Common/Source/Stubs/write.c:16
        if (writebuf[i] == '\n') {
8000106e:	00694503          	lbu	a0,6(s2)
80001072:	f6951ce3          	bne	a0,s1,80000fea <_write+0x116>
E:\VMshare\e203\zhengdian_E203\sdk\dhrystone\Release/../hbird_sdk/SoC/hbirdv2/Common/Source/Stubs/write.c:17
            uart_write(SOC_DEBUG_UART, '\r');
80001076:	4535                	li	a0,13
80001078:	3b25                	jal	80000db0 <uart_write.constprop.0.isra.0>
E:\VMshare\e203\zhengdian_E203\sdk\dhrystone\Release/../hbird_sdk/SoC/hbirdv2/Common/Source/Stubs/write.c:19
        uart_write(SOC_DEBUG_UART, writebuf[i]);
8000107a:	00694503          	lbu	a0,6(s2)
8000107e:	b7b5                	j	80000fea <_write+0x116>
E:\VMshare\e203\zhengdian_E203\sdk\dhrystone\Release/../hbird_sdk/SoC/hbirdv2/Common/Source/Stubs/write.c:17
            uart_write(SOC_DEBUG_UART, '\r');
80001080:	4535                	li	a0,13
80001082:	333d                	jal	80000db0 <uart_write.constprop.0.isra.0>
E:\VMshare\e203\zhengdian_E203\sdk\dhrystone\Release/../hbird_sdk/SoC/hbirdv2/Common/Source/Stubs/write.c:19
        uart_write(SOC_DEBUG_UART, writebuf[i]);
80001084:	00044503          	lbu	a0,0(s0)
80001088:	bdf1                	j	80000f64 <_write+0x90>
8000108a:	0001                	nop
E:\VMshare\e203\zhengdian_E203\sdk\dhrystone\Release/../hbird_sdk/SoC/hbirdv2/Common/Source/Stubs/write.c:17
            uart_write(SOC_DEBUG_UART, '\r');
8000108c:	4535                	li	a0,13
8000108e:	330d                	jal	80000db0 <uart_write.constprop.0.isra.0>
E:\VMshare\e203\zhengdian_E203\sdk\dhrystone\Release/../hbird_sdk/SoC/hbirdv2/Common/Source/Stubs/write.c:19
        uart_write(SOC_DEBUG_UART, writebuf[i]);
80001090:	00044503          	lbu	a0,0(s0)
80001094:	b5e5                	j	80000f7c <_write+0xa8>
80001096:	0001                	nop
E:\VMshare\e203\zhengdian_E203\sdk\dhrystone\Release/../hbird_sdk/SoC/hbirdv2/Common/Source/Stubs/write.c:17
            uart_write(SOC_DEBUG_UART, '\r');
80001098:	4535                	li	a0,13
8000109a:	3b19                	jal	80000db0 <uart_write.constprop.0.isra.0>
E:\VMshare\e203\zhengdian_E203\sdk\dhrystone\Release/../hbird_sdk/SoC/hbirdv2/Common/Source/Stubs/write.c:19
        uart_write(SOC_DEBUG_UART, writebuf[i]);
8000109c:	00044503          	lbu	a0,0(s0)
800010a0:	bdc1                	j	80000f70 <_write+0x9c>
E:\VMshare\e203\zhengdian_E203\sdk\dhrystone\Release/../hbird_sdk/SoC/hbirdv2/Common/Source/Stubs/write.c:17
            uart_write(SOC_DEBUG_UART, '\r');
800010a2:	4535                	li	a0,13
800010a4:	3331                	jal	80000db0 <uart_write.constprop.0.isra.0>
E:\VMshare\e203\zhengdian_E203\sdk\dhrystone\Release/../hbird_sdk/SoC/hbirdv2/Common/Source/Stubs/write.c:19
        uart_write(SOC_DEBUG_UART, writebuf[i]);
800010a6:	00044503          	lbu	a0,0(s0)
800010aa:	b57d                	j	80000f58 <_write+0x84>
E:\VMshare\e203\zhengdian_E203\sdk\dhrystone\Release/../hbird_sdk/SoC/hbirdv2/Common/Source/Stubs/write.c:17
            uart_write(SOC_DEBUG_UART, '\r');
800010ac:	4535                	li	a0,13
800010ae:	3309                	jal	80000db0 <uart_write.constprop.0.isra.0>
E:\VMshare\e203\zhengdian_E203\sdk\dhrystone\Release/../hbird_sdk/SoC/hbirdv2/Common/Source/Stubs/write.c:19
        uart_write(SOC_DEBUG_UART, writebuf[i]);
800010b0:	00044503          	lbu	a0,0(s0)
800010b4:	bd61                	j	80000f4c <_write+0x78>
E:\VMshare\e203\zhengdian_E203\sdk\dhrystone\Release/../hbird_sdk/SoC/hbirdv2/Common/Source/Stubs/write.c:17
            uart_write(SOC_DEBUG_UART, '\r');
800010b6:	4535                	li	a0,13
800010b8:	39e5                	jal	80000db0 <uart_write.constprop.0.isra.0>
E:\VMshare\e203\zhengdian_E203\sdk\dhrystone\Release/../hbird_sdk/SoC/hbirdv2/Common/Source/Stubs/write.c:19
        uart_write(SOC_DEBUG_UART, writebuf[i]);
800010ba:	00044503          	lbu	a0,0(s0)
800010be:	b549                	j	80000f40 <_write+0x6c>
E:\VMshare\e203\zhengdian_E203\sdk\dhrystone\Release/../hbird_sdk/SoC/hbirdv2/Common/Source/Stubs/write.c:17
            uart_write(SOC_DEBUG_UART, '\r');
800010c0:	4535                	li	a0,13
800010c2:	31fd                	jal	80000db0 <uart_write.constprop.0.isra.0>
E:\VMshare\e203\zhengdian_E203\sdk\dhrystone\Release/../hbird_sdk/SoC/hbirdv2/Common/Source/Stubs/write.c:19
        uart_write(SOC_DEBUG_UART, writebuf[i]);
800010c4:	00094503          	lbu	a0,0(s2)
800010c8:	b5ad                	j	80000f32 <_write+0x5e>
E:\VMshare\e203\zhengdian_E203\sdk\dhrystone\Release/../hbird_sdk/SoC/hbirdv2/Common/Source/Stubs/write.c:11
        return -1;
800010ca:	557d                	li	a0,-1
800010cc:	bd6d                	j	80000f86 <_write+0xb2>
	...

800010d0 <SystemInit>:
SystemInit():
E:\VMshare\e203\zhengdian_E203\sdk\dhrystone\Release/../hbird_sdk/SoC/hbirdv2/Common/Source/system_hbirdv2.c:125
    SystemCoreClock = SYSTEM_CLOCK;
800010d0:	04c4b737          	lui	a4,0x4c4b
800010d4:	0ffff797          	auipc	a5,0xffff
800010d8:	40070293          	addi	t0,a4,1024 # 4c4b400 <dhry_stubs.c.c3a4eb6e+0x4c47825>
800010dc:	0e57ae23          	sw	t0,252(a5) # 900001d0 <SystemCoreClock>
E:\VMshare\e203\zhengdian_E203\sdk\dhrystone\Release/../hbird_sdk/SoC/hbirdv2/Common/Source/system_hbirdv2.c:126
}
800010e0:	8082                	ret
	...

800010e4 <core_trap_handler>:
core_trap_handler():
E:\VMshare\e203\zhengdian_E203\sdk\dhrystone\Release/../hbird_sdk/SoC/hbirdv2/Common/Source/system_hbirdv2.c:323
    if (mcause & MCAUSE_INTERRUPT) {
800010e4:	02055c63          	bgez	a0,8000111c <core_trap_handler+0x38>
E:\VMshare\e203\zhengdian_E203\sdk\dhrystone\Release/../hbird_sdk/SoC/hbirdv2/Common/Source/system_hbirdv2.c:322
{
800010e8:	1141                	addi	sp,sp,-16
800010ea:	c606                	sw	ra,12(sp)
E:\VMshare\e203\zhengdian_E203\sdk\dhrystone\Release/../hbird_sdk/SoC/hbirdv2/Common/Source/system_hbirdv2.c:325
        uint32_t irqn = (uint32_t)(mcause & 0X00000fff);
800010ec:	01451093          	slli	ra,a0,0x14
E:\VMshare\e203\zhengdian_E203\sdk\dhrystone\Release/../hbird_sdk/SoC/hbirdv2/Common/Source/system_hbirdv2.c:322
{
800010f0:	c422                	sw	s0,8(sp)
E:\VMshare\e203\zhengdian_E203\sdk\dhrystone\Release/../hbird_sdk/SoC/hbirdv2/Common/Source/system_hbirdv2.c:325
        uint32_t irqn = (uint32_t)(mcause & 0X00000fff);
800010f2:	0140d293          	srli	t0,ra,0x14
E:\VMshare\e203\zhengdian_E203\sdk\dhrystone\Release/../hbird_sdk/SoC/hbirdv2/Common/Source/system_hbirdv2.c:326
        if (irqn == IRQ_M_EXT) {
800010f6:	472d                	li	a4,11
800010f8:	02e28463          	beq	t0,a4,80001120 <core_trap_handler+0x3c>
E:\VMshare\e203\zhengdian_E203\sdk\dhrystone\Release/../hbird_sdk/SoC/hbirdv2/Common/Source/system_hbirdv2.c:338
            int_handler = (INT_HANDLER)(SystemCoreInterruptHandlers[irqn]);
800010fc:	10002317          	auipc	t1,0x10002
80001100:	00229393          	slli	t2,t0,0x2
80001104:	96030413          	addi	s0,t1,-1696 # 90002a5c <SystemCoreInterruptHandlers>
80001108:	00740633          	add	a2,s0,t2
8000110c:	4214                	lw	a3,0(a2)
E:\VMshare\e203\zhengdian_E203\sdk\dhrystone\Release/../hbird_sdk/SoC/hbirdv2/Common/Source/system_hbirdv2.c:339
            if (int_handler != NULL) {
8000110e:	c291                	beqz	a3,80001112 <core_trap_handler+0x2e>
E:\VMshare\e203\zhengdian_E203\sdk\dhrystone\Release/../hbird_sdk/SoC/hbirdv2/Common/Source/system_hbirdv2.c:340
                int_handler(mcause, sp);
80001110:	9682                	jalr	a3
E:\VMshare\e203\zhengdian_E203\sdk\dhrystone\Release/../hbird_sdk/SoC/hbirdv2/Common/Source/system_hbirdv2.c:347
}
80001112:	40b2                	lw	ra,12(sp)
80001114:	4422                	lw	s0,8(sp)
80001116:	4501                	li	a0,0
80001118:	0141                	addi	sp,sp,16
8000111a:	8082                	ret
E:\VMshare\e203\zhengdian_E203\sdk\dhrystone\Release/../hbird_sdk/SoC/hbirdv2/Common/Source/system_hbirdv2.c:345
        return core_exception_handler(mcause, sp);
8000111c:	815ff06f          	j	80000930 <core_exception_handler>
PLIC_ClaimInterrupt():
E:\VMshare\e203\zhengdian_E203\sdk\dhrystone\hbird_sdk\NMSIS\Core\Include/core_feature_plic.h:273
 * \sa
 * - \ref PLIC_CompleteInterrupt
 */
__STATIC_FORCEINLINE uint32_t PLIC_ClaimInterrupt(void)
{
    uint32_t hartid = __RV_CSR_READ(CSR_MHARTID);
80001120:	f1402873          	csrr	a6,mhartid
E:\VMshare\e203\zhengdian_E203\sdk\dhrystone\hbird_sdk\NMSIS\Core\Include/core_feature_plic.h:274
    volatile uint32_t *claim_reg = (uint32_t *)((PLIC_BASE) + PLIC_CLAIM_OFFSET + \
80001124:	0c200e37          	lui	t3,0xc200
E:\VMshare\e203\zhengdian_E203\sdk\dhrystone\hbird_sdk\NMSIS\Core\Include/core_feature_plic.h:275
                    + (hartid << PLIC_CLAIM_SHIFT_PER_TARGET));
80001128:	00c81893          	slli	a7,a6,0xc
E:\VMshare\e203\zhengdian_E203\sdk\dhrystone\hbird_sdk\NMSIS\Core\Include/core_feature_plic.h:274
    volatile uint32_t *claim_reg = (uint32_t *)((PLIC_BASE) + PLIC_CLAIM_OFFSET + \
8000112c:	004e0e93          	addi	t4,t3,4 # c200004 <dhry_stubs.c.c3a4eb6e+0xc1fc429>
80001130:	01d88f33          	add	t5,a7,t4
E:\VMshare\e203\zhengdian_E203\sdk\dhrystone\hbird_sdk\NMSIS\Core\Include/core_feature_plic.h:277

    return (*claim_reg);
80001134:	000f2403          	lw	s0,0(t5)
core_trap_handler():
E:\VMshare\e203\zhengdian_E203\sdk\dhrystone\Release/../hbird_sdk/SoC/hbirdv2/Common/Source/system_hbirdv2.c:329
            if (irqn < __PLIC_INTNUM) {
80001138:	4fc1                	li	t6,16
8000113a:	fc8fece3          	bltu	t6,s0,80001112 <core_trap_handler+0x2e>
E:\VMshare\e203\zhengdian_E203\sdk\dhrystone\Release/../hbird_sdk/SoC/hbirdv2/Common/Source/system_hbirdv2.c:330
                int_handler = (INT_HANDLER)(SystemExtInterruptHandlers[irqn]);
8000113e:	10002097          	auipc	ra,0x10002
80001142:	00241793          	slli	a5,s0,0x2
80001146:	97208293          	addi	t0,ra,-1678 # 90002ab0 <SystemExtInterruptHandlers>
8000114a:	00f28733          	add	a4,t0,a5
8000114e:	00072303          	lw	t1,0(a4)
E:\VMshare\e203\zhengdian_E203\sdk\dhrystone\Release/../hbird_sdk/SoC/hbirdv2/Common/Source/system_hbirdv2.c:331
                if (int_handler != NULL) {
80001152:	00030363          	beqz	t1,80001158 <core_trap_handler+0x74>
E:\VMshare\e203\zhengdian_E203\sdk\dhrystone\Release/../hbird_sdk/SoC/hbirdv2/Common/Source/system_hbirdv2.c:332
                    int_handler(mcause, sp);
80001156:	9302                	jalr	t1
PLIC_CompleteInterrupt():
E:\VMshare\e203\zhengdian_E203\sdk\dhrystone\hbird_sdk\NMSIS\Core\Include/core_feature_plic.h:298
 * \sa
 * - \ref PLIC_ClaimInterrupt
 */
__STATIC_FORCEINLINE void PLIC_CompleteInterrupt(uint32_t source)
{
    uint32_t hartid = __RV_CSR_READ(CSR_MHARTID);
80001158:	f1402573          	csrr	a0,mhartid
E:\VMshare\e203\zhengdian_E203\sdk\dhrystone\hbird_sdk\NMSIS\Core\Include/core_feature_plic.h:299
    volatile uint32_t *complete_reg = (uint32_t *)((PLIC_BASE) + PLIC_CLAIM_OFFSET + \
8000115c:	0c2003b7          	lui	t2,0xc200
E:\VMshare\e203\zhengdian_E203\sdk\dhrystone\hbird_sdk\NMSIS\Core\Include/core_feature_plic.h:300
                    + (hartid << PLIC_CLAIM_SHIFT_PER_TARGET));
80001160:	00c51593          	slli	a1,a0,0xc
E:\VMshare\e203\zhengdian_E203\sdk\dhrystone\hbird_sdk\NMSIS\Core\Include/core_feature_plic.h:299
    volatile uint32_t *complete_reg = (uint32_t *)((PLIC_BASE) + PLIC_CLAIM_OFFSET + \
80001164:	00438613          	addi	a2,t2,4 # c200004 <dhry_stubs.c.c3a4eb6e+0xc1fc429>
80001168:	00c586b3          	add	a3,a1,a2
E:\VMshare\e203\zhengdian_E203\sdk\dhrystone\hbird_sdk\NMSIS\Core\Include/core_feature_plic.h:302

    *complete_reg = source;
8000116c:	c280                	sw	s0,0(a3)
8000116e:	b755                	j	80001112 <core_trap_handler+0x2e>
core_trap_handler():
80001170:	0000                	unimp
	...

80001174 <_premain_init>:
_premain_init():
E:\VMshare\e203\zhengdian_E203\sdk\dhrystone\Release/../hbird_sdk/SoC/hbirdv2/Common/Source/system_hbirdv2.c:464
 * For RISC-V gnu toolchain, _init function might not be called
 * by __libc_init_array function, so we defined a new function
 * to do initialization
 */
void _premain_init(void)
{
80001174:	1141                	addi	sp,sp,-16
80001176:	c606                	sw	ra,12(sp)
E:\VMshare\e203\zhengdian_E203\sdk\dhrystone\Release/../hbird_sdk/SoC/hbirdv2/Common/Source/system_hbirdv2.c:466
    /* TODO: Add your own initialization code here, called before main */
    SystemCoreClock = get_cpu_freq();
80001178:	edcff0ef          	jal	ra,80000854 <get_cpu_freq>
8000117c:	0ffff797          	auipc	a5,0xffff
80001180:	04a7aa23          	sw	a0,84(a5) # 900001d0 <SystemCoreClock>
E:\VMshare\e203\zhengdian_E203\sdk\dhrystone\Release/../hbird_sdk/SoC/hbirdv2/Common/Source/system_hbirdv2.c:468
#if ! defined(SIMULATION_SPIKE) && ! defined(SIMULATION_XLSPIKE)
    gpio_iof_config(GPIOA, IOF_UART_MASK);
80001184:	3181                	jal	80000dc4 <gpio_iof_config.constprop.0.isra.0>
E:\VMshare\e203\zhengdian_E203\sdk\dhrystone\Release/../hbird_sdk/SoC/hbirdv2/Common/Source/system_hbirdv2.c:469
    uart_init(SOC_DEBUG_UART, 115200);
80001186:	3999                	jal	80000ddc <uart_init.constprop.0.isra.0>
E:\VMshare\e203\zhengdian_E203\sdk\dhrystone\Release/../hbird_sdk/SoC/hbirdv2/Common/Source/system_hbirdv2.c:472
#endif
    /* Display banner after UART initialized */
    SystemBannerPrint();
80001188:	3641                	jal	80000d08 <SystemBannerPrint>
E:\VMshare\e203\zhengdian_E203\sdk\dhrystone\Release/../hbird_sdk/SoC/hbirdv2/Common/Source/system_hbirdv2.c:474
    /* Initialize exception default handlers */
    Exception_Init();
8000118a:	edeff0ef          	jal	ra,80000868 <Exception_Init>
E:\VMshare\e203\zhengdian_E203\sdk\dhrystone\Release/../hbird_sdk/SoC/hbirdv2/Common/Source/system_hbirdv2.c:476
    /* Initialize Interrupt default handlers */
    Interrupt_Init();
8000118e:	f1aff0ef          	jal	ra,800008a8 <Interrupt_Init>
PLIC_DisableInterrupt():
E:\VMshare\e203\zhengdian_E203\sdk\dhrystone\hbird_sdk\NMSIS\Core\Include/core_feature_plic.h:191
    uint32_t hartid = __RV_CSR_READ(CSR_MHARTID);
80001192:	f14026f3          	csrr	a3,mhartid
E:\VMshare\e203\zhengdian_E203\sdk\dhrystone\hbird_sdk\NMSIS\Core\Include/core_feature_plic.h:193
                    (hartid << PLIC_ENABLE_SHIFT_PER_TARGET) + (source >> 5) * 4);
80001196:	0c002737          	lui	a4,0xc002
8000119a:	00769293          	slli	t0,a3,0x7
8000119e:	00e28333          	add	t1,t0,a4
E:\VMshare\e203\zhengdian_E203\sdk\dhrystone\hbird_sdk\NMSIS\Core\Include/core_feature_plic.h:195
    uint32_t current = *enable_reg;
800011a2:	00032603          	lw	a2,0(t1)
PLIC_SetPriority():
E:\VMshare\e203\zhengdian_E203\sdk\dhrystone\hbird_sdk\NMSIS\Core\Include/core_feature_plic.h:237
    *priority_reg = priority;
800011a6:	0c0003b7          	lui	t2,0xc000
PLIC_DisableInterrupt():
E:\VMshare\e203\zhengdian_E203\sdk\dhrystone\hbird_sdk\NMSIS\Core\Include/core_feature_plic.h:196
    current = current & (~(1<<(source&0x1F)));
800011aa:	ffe67513          	andi	a0,a2,-2
E:\VMshare\e203\zhengdian_E203\sdk\dhrystone\hbird_sdk\NMSIS\Core\Include/core_feature_plic.h:197
    *enable_reg = current;
800011ae:	00a32023          	sw	a0,0(t1)
PLIC_SetPriority():
E:\VMshare\e203\zhengdian_E203\sdk\dhrystone\hbird_sdk\NMSIS\Core\Include/core_feature_plic.h:237
    *priority_reg = priority;
800011b2:	0003a023          	sw	zero,0(t2) # c000000 <dhry_stubs.c.c3a4eb6e+0xbffc425>
PLIC_DisableInterrupt():
E:\VMshare\e203\zhengdian_E203\sdk\dhrystone\hbird_sdk\NMSIS\Core\Include/core_feature_plic.h:191
    uint32_t hartid = __RV_CSR_READ(CSR_MHARTID);
800011b6:	f14025f3          	csrr	a1,mhartid
E:\VMshare\e203\zhengdian_E203\sdk\dhrystone\hbird_sdk\NMSIS\Core\Include/core_feature_plic.h:193
                    (hartid << PLIC_ENABLE_SHIFT_PER_TARGET) + (source >> 5) * 4);
800011ba:	00759813          	slli	a6,a1,0x7
800011be:	00e808b3          	add	a7,a6,a4
E:\VMshare\e203\zhengdian_E203\sdk\dhrystone\hbird_sdk\NMSIS\Core\Include/core_feature_plic.h:195
    uint32_t current = *enable_reg;
800011c2:	0008ae03          	lw	t3,0(a7)
E:\VMshare\e203\zhengdian_E203\sdk\dhrystone\hbird_sdk\NMSIS\Core\Include/core_feature_plic.h:196
    current = current & (~(1<<(source&0x1F)));
800011c6:	ffde7e93          	andi	t4,t3,-3
E:\VMshare\e203\zhengdian_E203\sdk\dhrystone\hbird_sdk\NMSIS\Core\Include/core_feature_plic.h:197
    *enable_reg = current;
800011ca:	01d8a023          	sw	t4,0(a7)
PLIC_SetPriority():
E:\VMshare\e203\zhengdian_E203\sdk\dhrystone\hbird_sdk\NMSIS\Core\Include/core_feature_plic.h:237
    *priority_reg = priority;
800011ce:	0003a223          	sw	zero,4(t2)
PLIC_DisableInterrupt():
E:\VMshare\e203\zhengdian_E203\sdk\dhrystone\hbird_sdk\NMSIS\Core\Include/core_feature_plic.h:191
    uint32_t hartid = __RV_CSR_READ(CSR_MHARTID);
800011d2:	f1402f73          	csrr	t5,mhartid
E:\VMshare\e203\zhengdian_E203\sdk\dhrystone\hbird_sdk\NMSIS\Core\Include/core_feature_plic.h:193
                    (hartid << PLIC_ENABLE_SHIFT_PER_TARGET) + (source >> 5) * 4);
800011d6:	007f1f93          	slli	t6,t5,0x7
800011da:	00ef87b3          	add	a5,t6,a4
E:\VMshare\e203\zhengdian_E203\sdk\dhrystone\hbird_sdk\NMSIS\Core\Include/core_feature_plic.h:195
    uint32_t current = *enable_reg;
800011de:	4394                	lw	a3,0(a5)
E:\VMshare\e203\zhengdian_E203\sdk\dhrystone\hbird_sdk\NMSIS\Core\Include/core_feature_plic.h:196
    current = current & (~(1<<(source&0x1F)));
800011e0:	ffb6f293          	andi	t0,a3,-5
E:\VMshare\e203\zhengdian_E203\sdk\dhrystone\hbird_sdk\NMSIS\Core\Include/core_feature_plic.h:197
    *enable_reg = current;
800011e4:	0057a023          	sw	t0,0(a5)
PLIC_SetPriority():
E:\VMshare\e203\zhengdian_E203\sdk\dhrystone\hbird_sdk\NMSIS\Core\Include/core_feature_plic.h:237
    *priority_reg = priority;
800011e8:	0003a423          	sw	zero,8(t2)
PLIC_DisableInterrupt():
E:\VMshare\e203\zhengdian_E203\sdk\dhrystone\hbird_sdk\NMSIS\Core\Include/core_feature_plic.h:191
    uint32_t hartid = __RV_CSR_READ(CSR_MHARTID);
800011ec:	f1402373          	csrr	t1,mhartid
E:\VMshare\e203\zhengdian_E203\sdk\dhrystone\hbird_sdk\NMSIS\Core\Include/core_feature_plic.h:193
                    (hartid << PLIC_ENABLE_SHIFT_PER_TARGET) + (source >> 5) * 4);
800011f0:	00731613          	slli	a2,t1,0x7
800011f4:	00e60533          	add	a0,a2,a4
E:\VMshare\e203\zhengdian_E203\sdk\dhrystone\hbird_sdk\NMSIS\Core\Include/core_feature_plic.h:195
    uint32_t current = *enable_reg;
800011f8:	410c                	lw	a1,0(a0)
E:\VMshare\e203\zhengdian_E203\sdk\dhrystone\hbird_sdk\NMSIS\Core\Include/core_feature_plic.h:196
    current = current & (~(1<<(source&0x1F)));
800011fa:	ff75f813          	andi	a6,a1,-9
E:\VMshare\e203\zhengdian_E203\sdk\dhrystone\hbird_sdk\NMSIS\Core\Include/core_feature_plic.h:197
    *enable_reg = current;
800011fe:	01052023          	sw	a6,0(a0)
PLIC_SetPriority():
E:\VMshare\e203\zhengdian_E203\sdk\dhrystone\hbird_sdk\NMSIS\Core\Include/core_feature_plic.h:237
    *priority_reg = priority;
80001202:	0003a623          	sw	zero,12(t2)
PLIC_DisableInterrupt():
E:\VMshare\e203\zhengdian_E203\sdk\dhrystone\hbird_sdk\NMSIS\Core\Include/core_feature_plic.h:191
    uint32_t hartid = __RV_CSR_READ(CSR_MHARTID);
80001206:	f14028f3          	csrr	a7,mhartid
E:\VMshare\e203\zhengdian_E203\sdk\dhrystone\hbird_sdk\NMSIS\Core\Include/core_feature_plic.h:193
                    (hartid << PLIC_ENABLE_SHIFT_PER_TARGET) + (source >> 5) * 4);
8000120a:	00789e13          	slli	t3,a7,0x7
8000120e:	00ee0eb3          	add	t4,t3,a4
E:\VMshare\e203\zhengdian_E203\sdk\dhrystone\hbird_sdk\NMSIS\Core\Include/core_feature_plic.h:195
    uint32_t current = *enable_reg;
80001212:	000eaf03          	lw	t5,0(t4)
E:\VMshare\e203\zhengdian_E203\sdk\dhrystone\hbird_sdk\NMSIS\Core\Include/core_feature_plic.h:196
    current = current & (~(1<<(source&0x1F)));
80001216:	feff7f93          	andi	t6,t5,-17
E:\VMshare\e203\zhengdian_E203\sdk\dhrystone\hbird_sdk\NMSIS\Core\Include/core_feature_plic.h:197
    *enable_reg = current;
8000121a:	01fea023          	sw	t6,0(t4)
PLIC_SetPriority():
E:\VMshare\e203\zhengdian_E203\sdk\dhrystone\hbird_sdk\NMSIS\Core\Include/core_feature_plic.h:237
    *priority_reg = priority;
8000121e:	0003a823          	sw	zero,16(t2)
PLIC_DisableInterrupt():
E:\VMshare\e203\zhengdian_E203\sdk\dhrystone\hbird_sdk\NMSIS\Core\Include/core_feature_plic.h:191
    uint32_t hartid = __RV_CSR_READ(CSR_MHARTID);
80001222:	f14027f3          	csrr	a5,mhartid
E:\VMshare\e203\zhengdian_E203\sdk\dhrystone\hbird_sdk\NMSIS\Core\Include/core_feature_plic.h:193
                    (hartid << PLIC_ENABLE_SHIFT_PER_TARGET) + (source >> 5) * 4);
80001226:	00779693          	slli	a3,a5,0x7
8000122a:	00e682b3          	add	t0,a3,a4
E:\VMshare\e203\zhengdian_E203\sdk\dhrystone\hbird_sdk\NMSIS\Core\Include/core_feature_plic.h:195
    uint32_t current = *enable_reg;
8000122e:	0002a303          	lw	t1,0(t0)
E:\VMshare\e203\zhengdian_E203\sdk\dhrystone\hbird_sdk\NMSIS\Core\Include/core_feature_plic.h:196
    current = current & (~(1<<(source&0x1F)));
80001232:	fdf37613          	andi	a2,t1,-33
E:\VMshare\e203\zhengdian_E203\sdk\dhrystone\hbird_sdk\NMSIS\Core\Include/core_feature_plic.h:197
    *enable_reg = current;
80001236:	00c2a023          	sw	a2,0(t0)
PLIC_SetPriority():
E:\VMshare\e203\zhengdian_E203\sdk\dhrystone\hbird_sdk\NMSIS\Core\Include/core_feature_plic.h:237
    *priority_reg = priority;
8000123a:	0003aa23          	sw	zero,20(t2)
PLIC_DisableInterrupt():
E:\VMshare\e203\zhengdian_E203\sdk\dhrystone\hbird_sdk\NMSIS\Core\Include/core_feature_plic.h:191
    uint32_t hartid = __RV_CSR_READ(CSR_MHARTID);
8000123e:	f1402573          	csrr	a0,mhartid
E:\VMshare\e203\zhengdian_E203\sdk\dhrystone\hbird_sdk\NMSIS\Core\Include/core_feature_plic.h:193
                    (hartid << PLIC_ENABLE_SHIFT_PER_TARGET) + (source >> 5) * 4);
80001242:	00751593          	slli	a1,a0,0x7
80001246:	00e58833          	add	a6,a1,a4
E:\VMshare\e203\zhengdian_E203\sdk\dhrystone\hbird_sdk\NMSIS\Core\Include/core_feature_plic.h:195
    uint32_t current = *enable_reg;
8000124a:	00082883          	lw	a7,0(a6)
E:\VMshare\e203\zhengdian_E203\sdk\dhrystone\hbird_sdk\NMSIS\Core\Include/core_feature_plic.h:196
    current = current & (~(1<<(source&0x1F)));
8000124e:	fbf8fe13          	andi	t3,a7,-65
E:\VMshare\e203\zhengdian_E203\sdk\dhrystone\hbird_sdk\NMSIS\Core\Include/core_feature_plic.h:197
    *enable_reg = current;
80001252:	01c82023          	sw	t3,0(a6)
PLIC_SetPriority():
E:\VMshare\e203\zhengdian_E203\sdk\dhrystone\hbird_sdk\NMSIS\Core\Include/core_feature_plic.h:237
    *priority_reg = priority;
80001256:	0003ac23          	sw	zero,24(t2)
PLIC_DisableInterrupt():
E:\VMshare\e203\zhengdian_E203\sdk\dhrystone\hbird_sdk\NMSIS\Core\Include/core_feature_plic.h:191
    uint32_t hartid = __RV_CSR_READ(CSR_MHARTID);
8000125a:	f1402ef3          	csrr	t4,mhartid
E:\VMshare\e203\zhengdian_E203\sdk\dhrystone\hbird_sdk\NMSIS\Core\Include/core_feature_plic.h:193
                    (hartid << PLIC_ENABLE_SHIFT_PER_TARGET) + (source >> 5) * 4);
8000125e:	007e9f13          	slli	t5,t4,0x7
80001262:	00ef0fb3          	add	t6,t5,a4
E:\VMshare\e203\zhengdian_E203\sdk\dhrystone\hbird_sdk\NMSIS\Core\Include/core_feature_plic.h:195
    uint32_t current = *enable_reg;
80001266:	000fa783          	lw	a5,0(t6)
E:\VMshare\e203\zhengdian_E203\sdk\dhrystone\hbird_sdk\NMSIS\Core\Include/core_feature_plic.h:196
    current = current & (~(1<<(source&0x1F)));
8000126a:	f7f7f693          	andi	a3,a5,-129
E:\VMshare\e203\zhengdian_E203\sdk\dhrystone\hbird_sdk\NMSIS\Core\Include/core_feature_plic.h:197
    *enable_reg = current;
8000126e:	00dfa023          	sw	a3,0(t6)
PLIC_SetPriority():
E:\VMshare\e203\zhengdian_E203\sdk\dhrystone\hbird_sdk\NMSIS\Core\Include/core_feature_plic.h:237
    *priority_reg = priority;
80001272:	0003ae23          	sw	zero,28(t2)
PLIC_DisableInterrupt():
E:\VMshare\e203\zhengdian_E203\sdk\dhrystone\hbird_sdk\NMSIS\Core\Include/core_feature_plic.h:191
    uint32_t hartid = __RV_CSR_READ(CSR_MHARTID);
80001276:	f14022f3          	csrr	t0,mhartid
E:\VMshare\e203\zhengdian_E203\sdk\dhrystone\hbird_sdk\NMSIS\Core\Include/core_feature_plic.h:193
                    (hartid << PLIC_ENABLE_SHIFT_PER_TARGET) + (source >> 5) * 4);
8000127a:	00729313          	slli	t1,t0,0x7
8000127e:	00e30533          	add	a0,t1,a4
E:\VMshare\e203\zhengdian_E203\sdk\dhrystone\hbird_sdk\NMSIS\Core\Include/core_feature_plic.h:195
    uint32_t current = *enable_reg;
80001282:	4110                	lw	a2,0(a0)
E:\VMshare\e203\zhengdian_E203\sdk\dhrystone\hbird_sdk\NMSIS\Core\Include/core_feature_plic.h:196
    current = current & (~(1<<(source&0x1F)));
80001284:	eff67593          	andi	a1,a2,-257
E:\VMshare\e203\zhengdian_E203\sdk\dhrystone\hbird_sdk\NMSIS\Core\Include/core_feature_plic.h:197
    *enable_reg = current;
80001288:	c10c                	sw	a1,0(a0)
PLIC_SetPriority():
E:\VMshare\e203\zhengdian_E203\sdk\dhrystone\hbird_sdk\NMSIS\Core\Include/core_feature_plic.h:237
    *priority_reg = priority;
8000128a:	0203a023          	sw	zero,32(t2)
PLIC_DisableInterrupt():
E:\VMshare\e203\zhengdian_E203\sdk\dhrystone\hbird_sdk\NMSIS\Core\Include/core_feature_plic.h:191
    uint32_t hartid = __RV_CSR_READ(CSR_MHARTID);
8000128e:	f1402873          	csrr	a6,mhartid
E:\VMshare\e203\zhengdian_E203\sdk\dhrystone\hbird_sdk\NMSIS\Core\Include/core_feature_plic.h:193
                    (hartid << PLIC_ENABLE_SHIFT_PER_TARGET) + (source >> 5) * 4);
80001292:	00781893          	slli	a7,a6,0x7
80001296:	00e88e33          	add	t3,a7,a4
E:\VMshare\e203\zhengdian_E203\sdk\dhrystone\hbird_sdk\NMSIS\Core\Include/core_feature_plic.h:195
    uint32_t current = *enable_reg;
8000129a:	000e2e83          	lw	t4,0(t3)
E:\VMshare\e203\zhengdian_E203\sdk\dhrystone\hbird_sdk\NMSIS\Core\Include/core_feature_plic.h:196
    current = current & (~(1<<(source&0x1F)));
8000129e:	dffeff13          	andi	t5,t4,-513
E:\VMshare\e203\zhengdian_E203\sdk\dhrystone\hbird_sdk\NMSIS\Core\Include/core_feature_plic.h:197
    *enable_reg = current;
800012a2:	01ee2023          	sw	t5,0(t3)
PLIC_SetPriority():
E:\VMshare\e203\zhengdian_E203\sdk\dhrystone\hbird_sdk\NMSIS\Core\Include/core_feature_plic.h:237
    *priority_reg = priority;
800012a6:	0203a223          	sw	zero,36(t2)
PLIC_DisableInterrupt():
E:\VMshare\e203\zhengdian_E203\sdk\dhrystone\hbird_sdk\NMSIS\Core\Include/core_feature_plic.h:191
    uint32_t hartid = __RV_CSR_READ(CSR_MHARTID);
800012aa:	f1402ff3          	csrr	t6,mhartid
E:\VMshare\e203\zhengdian_E203\sdk\dhrystone\hbird_sdk\NMSIS\Core\Include/core_feature_plic.h:193
                    (hartid << PLIC_ENABLE_SHIFT_PER_TARGET) + (source >> 5) * 4);
800012ae:	007f9793          	slli	a5,t6,0x7
800012b2:	00e786b3          	add	a3,a5,a4
E:\VMshare\e203\zhengdian_E203\sdk\dhrystone\hbird_sdk\NMSIS\Core\Include/core_feature_plic.h:195
    uint32_t current = *enable_reg;
800012b6:	0006a283          	lw	t0,0(a3) # 30000 <dhry_stubs.c.c3a4eb6e+0x2c425>
E:\VMshare\e203\zhengdian_E203\sdk\dhrystone\hbird_sdk\NMSIS\Core\Include/core_feature_plic.h:196
    current = current & (~(1<<(source&0x1F)));
800012ba:	bff2f313          	andi	t1,t0,-1025
E:\VMshare\e203\zhengdian_E203\sdk\dhrystone\hbird_sdk\NMSIS\Core\Include/core_feature_plic.h:197
    *enable_reg = current;
800012be:	0066a023          	sw	t1,0(a3)
PLIC_SetPriority():
E:\VMshare\e203\zhengdian_E203\sdk\dhrystone\hbird_sdk\NMSIS\Core\Include/core_feature_plic.h:237
    *priority_reg = priority;
800012c2:	0203a423          	sw	zero,40(t2)
PLIC_DisableInterrupt():
E:\VMshare\e203\zhengdian_E203\sdk\dhrystone\hbird_sdk\NMSIS\Core\Include/core_feature_plic.h:191
    uint32_t hartid = __RV_CSR_READ(CSR_MHARTID);
800012c6:	f1402573          	csrr	a0,mhartid
E:\VMshare\e203\zhengdian_E203\sdk\dhrystone\hbird_sdk\NMSIS\Core\Include/core_feature_plic.h:193
                    (hartid << PLIC_ENABLE_SHIFT_PER_TARGET) + (source >> 5) * 4);
800012ca:	00751613          	slli	a2,a0,0x7
800012ce:	00e60833          	add	a6,a2,a4
E:\VMshare\e203\zhengdian_E203\sdk\dhrystone\hbird_sdk\NMSIS\Core\Include/core_feature_plic.h:195
    uint32_t current = *enable_reg;
800012d2:	00082583          	lw	a1,0(a6)
E:\VMshare\e203\zhengdian_E203\sdk\dhrystone\hbird_sdk\NMSIS\Core\Include/core_feature_plic.h:196
    current = current & (~(1<<(source&0x1F)));
800012d6:	78fd                	lui	a7,0xfffff
800012d8:	7ff88e13          	addi	t3,a7,2047 # fffff7ff <_sp+0x6ffef7ff>
800012dc:	01c5feb3          	and	t4,a1,t3
E:\VMshare\e203\zhengdian_E203\sdk\dhrystone\hbird_sdk\NMSIS\Core\Include/core_feature_plic.h:197
    *enable_reg = current;
800012e0:	01d82023          	sw	t4,0(a6)
PLIC_SetPriority():
E:\VMshare\e203\zhengdian_E203\sdk\dhrystone\hbird_sdk\NMSIS\Core\Include/core_feature_plic.h:237
    *priority_reg = priority;
800012e4:	0203a623          	sw	zero,44(t2)
PLIC_DisableInterrupt():
E:\VMshare\e203\zhengdian_E203\sdk\dhrystone\hbird_sdk\NMSIS\Core\Include/core_feature_plic.h:191
    uint32_t hartid = __RV_CSR_READ(CSR_MHARTID);
800012e8:	f1402f73          	csrr	t5,mhartid
E:\VMshare\e203\zhengdian_E203\sdk\dhrystone\hbird_sdk\NMSIS\Core\Include/core_feature_plic.h:193
                    (hartid << PLIC_ENABLE_SHIFT_PER_TARGET) + (source >> 5) * 4);
800012ec:	007f1f93          	slli	t6,t5,0x7
800012f0:	00ef87b3          	add	a5,t6,a4
E:\VMshare\e203\zhengdian_E203\sdk\dhrystone\hbird_sdk\NMSIS\Core\Include/core_feature_plic.h:195
    uint32_t current = *enable_reg;
800012f4:	4394                	lw	a3,0(a5)
E:\VMshare\e203\zhengdian_E203\sdk\dhrystone\hbird_sdk\NMSIS\Core\Include/core_feature_plic.h:196
    current = current & (~(1<<(source&0x1F)));
800012f6:	fff88293          	addi	t0,a7,-1
800012fa:	0056f333          	and	t1,a3,t0
E:\VMshare\e203\zhengdian_E203\sdk\dhrystone\hbird_sdk\NMSIS\Core\Include/core_feature_plic.h:197
    *enable_reg = current;
800012fe:	0067a023          	sw	t1,0(a5)
PLIC_SetPriority():
E:\VMshare\e203\zhengdian_E203\sdk\dhrystone\hbird_sdk\NMSIS\Core\Include/core_feature_plic.h:237
    *priority_reg = priority;
80001302:	0203a823          	sw	zero,48(t2)
PLIC_DisableInterrupt():
E:\VMshare\e203\zhengdian_E203\sdk\dhrystone\hbird_sdk\NMSIS\Core\Include/core_feature_plic.h:191
    uint32_t hartid = __RV_CSR_READ(CSR_MHARTID);
80001306:	f1402573          	csrr	a0,mhartid
E:\VMshare\e203\zhengdian_E203\sdk\dhrystone\hbird_sdk\NMSIS\Core\Include/core_feature_plic.h:193
                    (hartid << PLIC_ENABLE_SHIFT_PER_TARGET) + (source >> 5) * 4);
8000130a:	00751613          	slli	a2,a0,0x7
8000130e:	00e60833          	add	a6,a2,a4
E:\VMshare\e203\zhengdian_E203\sdk\dhrystone\hbird_sdk\NMSIS\Core\Include/core_feature_plic.h:195
    uint32_t current = *enable_reg;
80001312:	00082883          	lw	a7,0(a6)
E:\VMshare\e203\zhengdian_E203\sdk\dhrystone\hbird_sdk\NMSIS\Core\Include/core_feature_plic.h:196
    current = current & (~(1<<(source&0x1F)));
80001316:	75f9                	lui	a1,0xffffe
80001318:	fff58e13          	addi	t3,a1,-1 # ffffdfff <_sp+0x6ffedfff>
8000131c:	01c8feb3          	and	t4,a7,t3
E:\VMshare\e203\zhengdian_E203\sdk\dhrystone\hbird_sdk\NMSIS\Core\Include/core_feature_plic.h:197
    *enable_reg = current;
80001320:	01d82023          	sw	t4,0(a6)
PLIC_SetPriority():
E:\VMshare\e203\zhengdian_E203\sdk\dhrystone\hbird_sdk\NMSIS\Core\Include/core_feature_plic.h:237
    *priority_reg = priority;
80001324:	0203aa23          	sw	zero,52(t2)
PLIC_DisableInterrupt():
E:\VMshare\e203\zhengdian_E203\sdk\dhrystone\hbird_sdk\NMSIS\Core\Include/core_feature_plic.h:191
    uint32_t hartid = __RV_CSR_READ(CSR_MHARTID);
80001328:	f1402f73          	csrr	t5,mhartid
E:\VMshare\e203\zhengdian_E203\sdk\dhrystone\hbird_sdk\NMSIS\Core\Include/core_feature_plic.h:193
                    (hartid << PLIC_ENABLE_SHIFT_PER_TARGET) + (source >> 5) * 4);
8000132c:	007f1f93          	slli	t6,t5,0x7
80001330:	00ef87b3          	add	a5,t6,a4
E:\VMshare\e203\zhengdian_E203\sdk\dhrystone\hbird_sdk\NMSIS\Core\Include/core_feature_plic.h:195
    uint32_t current = *enable_reg;
80001334:	4394                	lw	a3,0(a5)
E:\VMshare\e203\zhengdian_E203\sdk\dhrystone\hbird_sdk\NMSIS\Core\Include/core_feature_plic.h:196
    current = current & (~(1<<(source&0x1F)));
80001336:	72f1                	lui	t0,0xffffc
80001338:	fff28313          	addi	t1,t0,-1 # ffffbfff <_sp+0x6ffebfff>
8000133c:	0066f533          	and	a0,a3,t1
E:\VMshare\e203\zhengdian_E203\sdk\dhrystone\hbird_sdk\NMSIS\Core\Include/core_feature_plic.h:197
    *enable_reg = current;
80001340:	c388                	sw	a0,0(a5)
PLIC_SetPriority():
E:\VMshare\e203\zhengdian_E203\sdk\dhrystone\hbird_sdk\NMSIS\Core\Include/core_feature_plic.h:237
    *priority_reg = priority;
80001342:	0203ac23          	sw	zero,56(t2)
PLIC_DisableInterrupt():
E:\VMshare\e203\zhengdian_E203\sdk\dhrystone\hbird_sdk\NMSIS\Core\Include/core_feature_plic.h:191
    uint32_t hartid = __RV_CSR_READ(CSR_MHARTID);
80001346:	f1402673          	csrr	a2,mhartid
E:\VMshare\e203\zhengdian_E203\sdk\dhrystone\hbird_sdk\NMSIS\Core\Include/core_feature_plic.h:193
                    (hartid << PLIC_ENABLE_SHIFT_PER_TARGET) + (source >> 5) * 4);
8000134a:	00761813          	slli	a6,a2,0x7
8000134e:	00e808b3          	add	a7,a6,a4
E:\VMshare\e203\zhengdian_E203\sdk\dhrystone\hbird_sdk\NMSIS\Core\Include/core_feature_plic.h:195
    uint32_t current = *enable_reg;
80001352:	0008ae03          	lw	t3,0(a7)
E:\VMshare\e203\zhengdian_E203\sdk\dhrystone\hbird_sdk\NMSIS\Core\Include/core_feature_plic.h:196
    current = current & (~(1<<(source&0x1F)));
80001356:	75e1                	lui	a1,0xffff8
80001358:	fff58e93          	addi	t4,a1,-1 # ffff7fff <_sp+0x6ffe7fff>
8000135c:	01de7f33          	and	t5,t3,t4
E:\VMshare\e203\zhengdian_E203\sdk\dhrystone\hbird_sdk\NMSIS\Core\Include/core_feature_plic.h:197
    *enable_reg = current;
80001360:	01e8a023          	sw	t5,0(a7)
PLIC_SetPriority():
E:\VMshare\e203\zhengdian_E203\sdk\dhrystone\hbird_sdk\NMSIS\Core\Include/core_feature_plic.h:237
    *priority_reg = priority;
80001364:	0203ae23          	sw	zero,60(t2)
PLIC_DisableInterrupt():
E:\VMshare\e203\zhengdian_E203\sdk\dhrystone\hbird_sdk\NMSIS\Core\Include/core_feature_plic.h:191
    uint32_t hartid = __RV_CSR_READ(CSR_MHARTID);
80001368:	f1402ff3          	csrr	t6,mhartid
E:\VMshare\e203\zhengdian_E203\sdk\dhrystone\hbird_sdk\NMSIS\Core\Include/core_feature_plic.h:193
                    (hartid << PLIC_ENABLE_SHIFT_PER_TARGET) + (source >> 5) * 4);
8000136c:	007f9793          	slli	a5,t6,0x7
80001370:	973e                	add	a4,a4,a5
E:\VMshare\e203\zhengdian_E203\sdk\dhrystone\hbird_sdk\NMSIS\Core\Include/core_feature_plic.h:195
    uint32_t current = *enable_reg;
80001372:	4314                	lw	a3,0(a4)
E:\VMshare\e203\zhengdian_E203\sdk\dhrystone\hbird_sdk\NMSIS\Core\Include/core_feature_plic.h:196
    current = current & (~(1<<(source&0x1F)));
80001374:	72c1                	lui	t0,0xffff0
80001376:	fff28313          	addi	t1,t0,-1 # fffeffff <_sp+0x6ffdffff>
8000137a:	0066f533          	and	a0,a3,t1
E:\VMshare\e203\zhengdian_E203\sdk\dhrystone\hbird_sdk\NMSIS\Core\Include/core_feature_plic.h:197
    *enable_reg = current;
8000137e:	c308                	sw	a0,0(a4)
PLIC_SetPriority():
E:\VMshare\e203\zhengdian_E203\sdk\dhrystone\hbird_sdk\NMSIS\Core\Include/core_feature_plic.h:237
    *priority_reg = priority;
80001380:	0403a023          	sw	zero,64(t2)
PLIC_SetThreshold():
E:\VMshare\e203\zhengdian_E203\sdk\dhrystone\hbird_sdk\NMSIS\Core\Include/core_feature_plic.h:135
    uint32_t hartid = __RV_CSR_READ(CSR_MHARTID);
80001384:	f14023f3          	csrr	t2,mhartid
E:\VMshare\e203\zhengdian_E203\sdk\dhrystone\hbird_sdk\NMSIS\Core\Include/core_feature_plic.h:137
                    PLIC_THRESHOLD_OFFSET + (hartid << PLIC_THRESHOLD_SHIFT_PER_TARGET));
80001388:	0c200837          	lui	a6,0xc200
_premain_init():
E:\VMshare\e203\zhengdian_E203\sdk\dhrystone\Release/../hbird_sdk/SoC/hbirdv2/Common/Source/system_hbirdv2.c:481
#if defined(__PLIC_PRESENT) && __PLIC_PRESENT == 1
    /* PLIC initilization */
    PLIC_Init(__PLIC_INTNUM);
#endif
}
8000138c:	40b2                	lw	ra,12(sp)
PLIC_Init():
E:\VMshare\e203\zhengdian_E203\sdk\dhrystone\hbird_sdk\NMSIS\Core\Include/core_feature_plic.h:137
8000138e:	00c39613          	slli	a2,t2,0xc
80001392:	010608b3          	add	a7,a2,a6
E:\VMshare\e203\zhengdian_E203\sdk\dhrystone\hbird_sdk\NMSIS\Core\Include/core_feature_plic.h:139
    *thresh_reg = thresh;
80001396:	0008a023          	sw	zero,0(a7)
_premain_init():
E:\VMshare\e203\zhengdian_E203\sdk\dhrystone\Release/../hbird_sdk/SoC/hbirdv2/Common/Source/system_hbirdv2.c:481
8000139a:	0141                	addi	sp,sp,16
8000139c:	8082                	ret
	...

800013a0 <_postmain_fini>:
_postmain_fini():
E:\VMshare\e203\zhengdian_E203\sdk\dhrystone\Release/../hbird_sdk/SoC/hbirdv2/Common/Source/system_hbirdv2.c:507
#ifdef SIMULATION_RTL
extern void rtlsim_exit(int status);
    rtlsim_exit(status);
#endif

}
800013a0:	8082                	ret
	...

800013a4 <trap_entry>:
trap_entry():
E:\VMshare\e203\zhengdian_E203\sdk\dhrystone\Release/../hbird_sdk/SoC/hbirdv2/Common/Source/GCC/intexc_hbirdv2.S:159
.align 2
.global trap_entry
.weak trap_entry
trap_entry:
    /* Save the caller saving registers (context) */
    SAVE_CONTEXT
800013a4:	715d                	addi	sp,sp,-80
800013a6:	c006                	sw	ra,0(sp)
800013a8:	c212                	sw	tp,4(sp)
800013aa:	c416                	sw	t0,8(sp)
800013ac:	c61a                	sw	t1,12(sp)
800013ae:	c81e                	sw	t2,16(sp)
800013b0:	ca2a                	sw	a0,20(sp)
800013b2:	cc2e                	sw	a1,24(sp)
800013b4:	ce32                	sw	a2,28(sp)
800013b6:	d036                	sw	a3,32(sp)
800013b8:	d23a                	sw	a4,36(sp)
800013ba:	d43e                	sw	a5,40(sp)
800013bc:	dc42                	sw	a6,56(sp)
800013be:	de46                	sw	a7,60(sp)
800013c0:	c0f2                	sw	t3,64(sp)
800013c2:	c2f6                	sw	t4,68(sp)
800013c4:	c4fa                	sw	t5,72(sp)
800013c6:	c6fe                	sw	t6,76(sp)
E:\VMshare\e203\zhengdian_E203\sdk\dhrystone\Release/../hbird_sdk/SoC/hbirdv2/Common/Source/GCC/intexc_hbirdv2.S:161
    /* Save the necessary CSR registers */
    SAVE_CSR_CONTEXT
800013c8:	341022f3          	csrr	t0,mepc
800013cc:	d616                	sw	t0,44(sp)
800013ce:	342022f3          	csrr	t0,mcause
800013d2:	d816                	sw	t0,48(sp)
800013d4:	300022f3          	csrr	t0,mstatus
800013d8:	da16                	sw	t0,52(sp)
E:\VMshare\e203\zhengdian_E203\sdk\dhrystone\Release/../hbird_sdk/SoC/hbirdv2/Common/Source/GCC/intexc_hbirdv2.S:168
    /*
     * Set the exception handler function arguments
     * argument 1: mcause value
     * argument 2: current stack point(SP) value
     */
    csrr a0, mcause
800013da:	34202573          	csrr	a0,mcause
E:\VMshare\e203\zhengdian_E203\sdk\dhrystone\Release/../hbird_sdk/SoC/hbirdv2/Common/Source/GCC/intexc_hbirdv2.S:169
    mv a1, sp
800013de:	858a                	mv	a1,sp
E:\VMshare\e203\zhengdian_E203\sdk\dhrystone\Release/../hbird_sdk/SoC/hbirdv2/Common/Source/GCC/intexc_hbirdv2.S:175
    /*
     * TODO: Call the trap handler function
     * By default, the function template is provided in
     * system_Device.c, you can adjust it as you want
     */
    call core_trap_handler
800013e0:	3311                	jal	800010e4 <core_trap_handler>
E:\VMshare\e203\zhengdian_E203\sdk\dhrystone\Release/../hbird_sdk/SoC/hbirdv2/Common/Source/GCC/intexc_hbirdv2.S:178

    /* Restore the necessary CSR registers */
    RESTORE_CSR_CONTEXT
800013e2:	52b2                	lw	t0,44(sp)
800013e4:	34129073          	csrw	mepc,t0
800013e8:	52c2                	lw	t0,48(sp)
800013ea:	34229073          	csrw	mcause,t0
800013ee:	52d2                	lw	t0,52(sp)
800013f0:	30029073          	csrw	mstatus,t0
E:\VMshare\e203\zhengdian_E203\sdk\dhrystone\Release/../hbird_sdk/SoC/hbirdv2/Common/Source/GCC/intexc_hbirdv2.S:180
    /* Restore the caller saving registers (context) */
    RESTORE_CONTEXT
800013f4:	4082                	lw	ra,0(sp)
800013f6:	4212                	lw	tp,4(sp)
800013f8:	42a2                	lw	t0,8(sp)
800013fa:	4332                	lw	t1,12(sp)
800013fc:	43c2                	lw	t2,16(sp)
800013fe:	4552                	lw	a0,20(sp)
80001400:	45e2                	lw	a1,24(sp)
80001402:	4672                	lw	a2,28(sp)
80001404:	5682                	lw	a3,32(sp)
80001406:	5712                	lw	a4,36(sp)
80001408:	57a2                	lw	a5,40(sp)
8000140a:	5862                	lw	a6,56(sp)
8000140c:	58f2                	lw	a7,60(sp)
8000140e:	4e06                	lw	t3,64(sp)
80001410:	4e96                	lw	t4,68(sp)
80001412:	4f26                	lw	t5,72(sp)
80001414:	4fb6                	lw	t6,76(sp)
80001416:	6161                	addi	sp,sp,80
E:\VMshare\e203\zhengdian_E203\sdk\dhrystone\Release/../hbird_sdk/SoC/hbirdv2/Common/Source/GCC/intexc_hbirdv2.S:183

    /* Return to regular code */
    mret
80001418:	30200073          	mret

8000141c <atexit>:
atexit():
8000141c:	85aa                	mv	a1,a0
8000141e:	4681                	li	a3,0
80001420:	4601                	li	a2,0
80001422:	4501                	li	a0,0
80001424:	2d90006f          	j	80001efc <__register_exitproc>

80001428 <__libc_fini_array>:
__libc_fini_array():
80001428:	1141                	addi	sp,sp,-16
8000142a:	c422                	sw	s0,8(sp)
8000142c:	c226                	sw	s1,4(sp)
8000142e:	00006417          	auipc	s0,0x6
80001432:	12a40413          	addi	s0,s0,298 # 80007558 <__fsymtab_end>
80001436:	00006497          	auipc	s1,0x6
8000143a:	12248493          	addi	s1,s1,290 # 80007558 <__fsymtab_end>
8000143e:	8c05                	sub	s0,s0,s1
80001440:	c606                	sw	ra,12(sp)
80001442:	8409                	srai	s0,s0,0x2
80001444:	e411                	bnez	s0,80001450 <__libc_fini_array+0x28>
80001446:	40b2                	lw	ra,12(sp)
80001448:	4422                	lw	s0,8(sp)
8000144a:	4492                	lw	s1,4(sp)
8000144c:	0141                	addi	sp,sp,16
8000144e:	8082                	ret
80001450:	147d                	addi	s0,s0,-1
80001452:	00241793          	slli	a5,s0,0x2
80001456:	97a6                	add	a5,a5,s1
80001458:	439c                	lw	a5,0(a5)
8000145a:	9782                	jalr	a5
8000145c:	b7e5                	j	80001444 <__libc_fini_array+0x1c>

8000145e <__libc_init_array>:
__libc_init_array():
8000145e:	1141                	addi	sp,sp,-16
80001460:	c422                	sw	s0,8(sp)
80001462:	c226                	sw	s1,4(sp)
80001464:	00006417          	auipc	s0,0x6
80001468:	0f440413          	addi	s0,s0,244 # 80007558 <__fsymtab_end>
8000146c:	00006497          	auipc	s1,0x6
80001470:	0ec48493          	addi	s1,s1,236 # 80007558 <__fsymtab_end>
80001474:	8c81                	sub	s1,s1,s0
80001476:	c04a                	sw	s2,0(sp)
80001478:	c606                	sw	ra,12(sp)
8000147a:	8489                	srai	s1,s1,0x2
8000147c:	4901                	li	s2,0
8000147e:	02991563          	bne	s2,s1,800014a8 <__libc_init_array+0x4a>
80001482:	00006417          	auipc	s0,0x6
80001486:	0d640413          	addi	s0,s0,214 # 80007558 <__fsymtab_end>
8000148a:	00006497          	auipc	s1,0x6
8000148e:	0ce48493          	addi	s1,s1,206 # 80007558 <__fsymtab_end>
80001492:	8c81                	sub	s1,s1,s0
80001494:	8489                	srai	s1,s1,0x2
80001496:	4901                	li	s2,0
80001498:	00991d63          	bne	s2,s1,800014b2 <__libc_init_array+0x54>
8000149c:	40b2                	lw	ra,12(sp)
8000149e:	4422                	lw	s0,8(sp)
800014a0:	4492                	lw	s1,4(sp)
800014a2:	4902                	lw	s2,0(sp)
800014a4:	0141                	addi	sp,sp,16
800014a6:	8082                	ret
800014a8:	401c                	lw	a5,0(s0)
800014aa:	0905                	addi	s2,s2,1
800014ac:	0411                	addi	s0,s0,4
800014ae:	9782                	jalr	a5
800014b0:	b7f9                	j	8000147e <__libc_init_array+0x20>
800014b2:	401c                	lw	a5,0(s0)
800014b4:	0905                	addi	s2,s2,1
800014b6:	0411                	addi	s0,s0,4
800014b8:	9782                	jalr	a5
800014ba:	bff9                	j	80001498 <__libc_init_array+0x3a>

800014bc <__cvt>:
__cvt():
800014bc:	7179                	addi	sp,sp,-48
800014be:	d422                	sw	s0,40(sp)
800014c0:	d04a                	sw	s2,32(sp)
800014c2:	cc52                	sw	s4,24(sp)
800014c4:	ca56                	sw	s5,20(sp)
800014c6:	c85a                	sw	s6,16(sp)
800014c8:	d606                	sw	ra,44(sp)
800014ca:	d226                	sw	s1,36(sp)
800014cc:	ce4e                	sw	s3,28(sp)
800014ce:	8b3a                	mv	s6,a4
800014d0:	8a2e                	mv	s4,a1
800014d2:	8432                	mv	s0,a2
800014d4:	8936                	mv	s2,a3
800014d6:	8ac2                	mv	s5,a6
800014d8:	4701                	li	a4,0
800014da:	00065863          	bgez	a2,800014ea <__cvt+0x2e>
800014de:	80000737          	lui	a4,0x80000
800014e2:	00c74433          	xor	s0,a4,a2
800014e6:	02d00713          	li	a4,45
800014ea:	00e78023          	sb	a4,0(a5)
800014ee:	fdf8f493          	andi	s1,a7,-33
800014f2:	04600793          	li	a5,70
800014f6:	468d                	li	a3,3
800014f8:	00f48863          	beq	s1,a5,80001508 <__cvt+0x4c>
800014fc:	04500793          	li	a5,69
80001500:	4689                	li	a3,2
80001502:	00f49363          	bne	s1,a5,80001508 <__cvt+0x4c>
80001506:	0905                	addi	s2,s2,1
80001508:	87d6                	mv	a5,s5
8000150a:	00c10893          	addi	a7,sp,12
8000150e:	00810813          	addi	a6,sp,8
80001512:	874a                	mv	a4,s2
80001514:	85d2                	mv	a1,s4
80001516:	8622                	mv	a2,s0
80001518:	389000ef          	jal	ra,800020a0 <_dtoa_r>
8000151c:	04700793          	li	a5,71
80001520:	89aa                	mv	s3,a0
80001522:	00f49663          	bne	s1,a5,8000152e <__cvt+0x72>
80001526:	001b7b13          	andi	s6,s6,1
8000152a:	040b0a63          	beqz	s6,8000157e <__cvt+0xc2>
8000152e:	04600793          	li	a5,70
80001532:	01298b33          	add	s6,s3,s2
80001536:	02f49763          	bne	s1,a5,80001564 <__cvt+0xa8>
8000153a:	0009c703          	lbu	a4,0(s3)
8000153e:	03000793          	li	a5,48
80001542:	00f71e63          	bne	a4,a5,8000155e <__cvt+0xa2>
80001546:	4601                	li	a2,0
80001548:	4681                	li	a3,0
8000154a:	8552                	mv	a0,s4
8000154c:	85a2                	mv	a1,s0
8000154e:	451030ef          	jal	ra,8000519e <__eqdf2>
80001552:	c511                	beqz	a0,8000155e <__cvt+0xa2>
80001554:	4685                	li	a3,1
80001556:	41268933          	sub	s2,a3,s2
8000155a:	012aa023          	sw	s2,0(s5)
8000155e:	000aa783          	lw	a5,0(s5)
80001562:	9b3e                	add	s6,s6,a5
80001564:	4601                	li	a2,0
80001566:	4681                	li	a3,0
80001568:	8552                	mv	a0,s4
8000156a:	85a2                	mv	a1,s0
8000156c:	433030ef          	jal	ra,8000519e <__eqdf2>
80001570:	e111                	bnez	a0,80001574 <__cvt+0xb8>
80001572:	c65a                	sw	s6,12(sp)
80001574:	03000713          	li	a4,48
80001578:	47b2                	lw	a5,12(sp)
8000157a:	0367e263          	bltu	a5,s6,8000159e <__cvt+0xe2>
8000157e:	47b2                	lw	a5,12(sp)
80001580:	5742                	lw	a4,48(sp)
80001582:	50b2                	lw	ra,44(sp)
80001584:	5422                	lw	s0,40(sp)
80001586:	413787b3          	sub	a5,a5,s3
8000158a:	c31c                	sw	a5,0(a4)
8000158c:	5492                	lw	s1,36(sp)
8000158e:	5902                	lw	s2,32(sp)
80001590:	4a62                	lw	s4,24(sp)
80001592:	4ad2                	lw	s5,20(sp)
80001594:	4b42                	lw	s6,16(sp)
80001596:	854e                	mv	a0,s3
80001598:	49f2                	lw	s3,28(sp)
8000159a:	6145                	addi	sp,sp,48
8000159c:	8082                	ret
8000159e:	00178693          	addi	a3,a5,1
800015a2:	c636                	sw	a3,12(sp)
800015a4:	00e78023          	sb	a4,0(a5)
800015a8:	bfc1                	j	80001578 <__cvt+0xbc>

800015aa <__exponent>:
__exponent():
800015aa:	00c50023          	sb	a2,0(a0)
800015ae:	00250793          	addi	a5,a0,2
800015b2:	02b00713          	li	a4,43
800015b6:	0005d663          	bgez	a1,800015c2 <__exponent+0x18>
800015ba:	40b005b3          	neg	a1,a1
800015be:	02d00713          	li	a4,45
800015c2:	00e500a3          	sb	a4,1(a0)
800015c6:	4725                	li	a4,9
800015c8:	06b75263          	bge	a4,a1,8000162c <__exponent+0x82>
800015cc:	1141                	addi	sp,sp,-16
800015ce:	00f10713          	addi	a4,sp,15
800015d2:	883a                	mv	a6,a4
800015d4:	48a9                	li	a7,10
800015d6:	06300313          	li	t1,99
800015da:	0315e633          	rem	a2,a1,a7
800015de:	86ba                	mv	a3,a4
800015e0:	177d                	addi	a4,a4,-1
800015e2:	03060613          	addi	a2,a2,48
800015e6:	fec68fa3          	sb	a2,-1(a3)
800015ea:	862e                	mv	a2,a1
800015ec:	0315c5b3          	div	a1,a1,a7
800015f0:	fec345e3          	blt	t1,a2,800015da <__exponent+0x30>
800015f4:	ffe68893          	addi	a7,a3,-2
800015f8:	03058593          	addi	a1,a1,48
800015fc:	feb70fa3          	sb	a1,-1(a4) # 7fffffff <_sp+0xeffeffff>
80001600:	863e                	mv	a2,a5
80001602:	8746                	mv	a4,a7
80001604:	01076d63          	bltu	a4,a6,8000161e <__exponent+0x74>
80001608:	4701                	li	a4,0
8000160a:	01186563          	bltu	a6,a7,80001614 <__exponent+0x6a>
8000160e:	01110713          	addi	a4,sp,17
80001612:	8f15                	sub	a4,a4,a3
80001614:	97ba                	add	a5,a5,a4
80001616:	40a78533          	sub	a0,a5,a0
8000161a:	0141                	addi	sp,sp,16
8000161c:	8082                	ret
8000161e:	00074583          	lbu	a1,0(a4)
80001622:	0705                	addi	a4,a4,1
80001624:	0605                	addi	a2,a2,1
80001626:	feb60fa3          	sb	a1,-1(a2)
8000162a:	bfe9                	j	80001604 <__exponent+0x5a>
8000162c:	03000793          	li	a5,48
80001630:	00f50123          	sb	a5,2(a0)
80001634:	03058593          	addi	a1,a1,48
80001638:	00450793          	addi	a5,a0,4
8000163c:	00b501a3          	sb	a1,3(a0)
80001640:	40a78533          	sub	a0,a5,a0
80001644:	8082                	ret

80001646 <_printf_float>:
_printf_float():
80001646:	7159                	addi	sp,sp,-112
80001648:	d686                	sw	ra,108(sp)
8000164a:	d4a2                	sw	s0,104(sp)
8000164c:	d2a6                	sw	s1,100(sp)
8000164e:	842e                	mv	s0,a1
80001650:	d0ca                	sw	s2,96(sp)
80001652:	cece                	sw	s3,92(sp)
80001654:	ccd2                	sw	s4,88(sp)
80001656:	cad6                	sw	s5,84(sp)
80001658:	8a3a                	mv	s4,a4
8000165a:	c8da                	sw	s6,80(sp)
8000165c:	c6de                	sw	s7,76(sp)
8000165e:	c4e2                	sw	s8,72(sp)
80001660:	8932                	mv	s2,a2
80001662:	89b6                	mv	s3,a3
80001664:	c2e6                	sw	s9,68(sp)
80001666:	c0ea                	sw	s10,64(sp)
80001668:	de6e                	sw	s11,60(sp)
8000166a:	84aa                	mv	s1,a0
8000166c:	085010ef          	jal	ra,80002ef0 <_localeconv_r>
80001670:	00052c03          	lw	s8,0(a0)
80001674:	8562                	mv	a0,s8
80001676:	071000ef          	jal	ra,80001ee6 <strlen>
8000167a:	00042b03          	lw	s6,0(s0)
8000167e:	d402                	sw	zero,40(sp)
80001680:	01844a83          	lbu	s5,24(s0)
80001684:	100b7713          	andi	a4,s6,256
80001688:	000a2783          	lw	a5,0(s4)
8000168c:	8baa                	mv	s7,a0
8000168e:	c375                	beqz	a4,80001772 <_printf_float+0x12c>
80001690:	00478713          	addi	a4,a5,4
80001694:	00ea2023          	sw	a4,0(s4)
80001698:	439c                	lw	a5,0(a5)
8000169a:	0808                	addi	a0,sp,16
8000169c:	4398                	lw	a4,0(a5)
8000169e:	c83a                	sw	a4,16(sp)
800016a0:	43d8                	lw	a4,4(a5)
800016a2:	ca3a                	sw	a4,20(sp)
800016a4:	4798                	lw	a4,8(a5)
800016a6:	cc3a                	sw	a4,24(sp)
800016a8:	47dc                	lw	a5,12(a5)
800016aa:	ce3e                	sw	a5,28(sp)
800016ac:	055040ef          	jal	ra,80005f00 <__trunctfdf2>
800016b0:	c428                	sw	a0,72(s0)
800016b2:	c46c                	sw	a1,76(s0)
800016b4:	04c42c83          	lw	s9,76(s0)
800016b8:	0ffff797          	auipc	a5,0xffff
800016bc:	b2878793          	addi	a5,a5,-1240 # 900001e0 <_impure_ptr+0x8>
800016c0:	04842d83          	lw	s11,72(s0)
800016c4:	0007a803          	lw	a6,0(a5)
800016c8:	0047a883          	lw	a7,4(a5)
800016cc:	001c9a13          	slli	s4,s9,0x1
800016d0:	001a5a13          	srli	s4,s4,0x1
800016d4:	8642                	mv	a2,a6
800016d6:	86c6                	mv	a3,a7
800016d8:	856e                	mv	a0,s11
800016da:	85d2                	mv	a1,s4
800016dc:	6d2040ef          	jal	ra,80005dae <__unorddf2>
800016e0:	e545                	bnez	a0,80001788 <_printf_float+0x142>
800016e2:	0ffff797          	auipc	a5,0xffff
800016e6:	afe78793          	addi	a5,a5,-1282 # 900001e0 <_impure_ptr+0x8>
800016ea:	0007a803          	lw	a6,0(a5)
800016ee:	0047a883          	lw	a7,4(a5)
800016f2:	856e                	mv	a0,s11
800016f4:	8642                	mv	a2,a6
800016f6:	86c6                	mv	a3,a7
800016f8:	85d2                	mv	a1,s4
800016fa:	3b5030ef          	jal	ra,800052ae <__ledf2>
800016fe:	08a05563          	blez	a0,80001788 <_printf_float+0x142>
80001702:	4601                	li	a2,0
80001704:	4681                	li	a3,0
80001706:	856e                	mv	a0,s11
80001708:	85e6                	mv	a1,s9
8000170a:	3a5030ef          	jal	ra,800052ae <__ledf2>
8000170e:	00055663          	bgez	a0,8000171a <_printf_float+0xd4>
80001712:	02d00793          	li	a5,45
80001716:	04f401a3          	sb	a5,67(s0)
8000171a:	04700793          	li	a5,71
8000171e:	00006a17          	auipc	s4,0x6
80001722:	84ea0a13          	addi	s4,s4,-1970 # 80006f6c <__extendsfdf2+0x784>
80001726:	0157f663          	bgeu	a5,s5,80001732 <_printf_float+0xec>
8000172a:	00006a17          	auipc	s4,0x6
8000172e:	846a0a13          	addi	s4,s4,-1978 # 80006f70 <__extendsfdf2+0x788>
80001732:	ffbb7b13          	andi	s6,s6,-5
80001736:	478d                	li	a5,3
80001738:	01642023          	sw	s6,0(s0)
8000173c:	c81c                	sw	a5,16(s0)
8000173e:	4b01                	li	s6,0
80001740:	874e                	mv	a4,s3
80001742:	86ca                	mv	a3,s2
80001744:	1070                	addi	a2,sp,44
80001746:	85a2                	mv	a1,s0
80001748:	8526                	mv	a0,s1
8000174a:	2ef9                	jal	80001b28 <_printf_common>
8000174c:	5cfd                	li	s9,-1
8000174e:	17951363          	bne	a0,s9,800018b4 <_printf_float+0x26e>
80001752:	557d                	li	a0,-1
80001754:	50b6                	lw	ra,108(sp)
80001756:	5426                	lw	s0,104(sp)
80001758:	5496                	lw	s1,100(sp)
8000175a:	5906                	lw	s2,96(sp)
8000175c:	49f6                	lw	s3,92(sp)
8000175e:	4a66                	lw	s4,88(sp)
80001760:	4ad6                	lw	s5,84(sp)
80001762:	4b46                	lw	s6,80(sp)
80001764:	4bb6                	lw	s7,76(sp)
80001766:	4c26                	lw	s8,72(sp)
80001768:	4c96                	lw	s9,68(sp)
8000176a:	4d06                	lw	s10,64(sp)
8000176c:	5df2                	lw	s11,60(sp)
8000176e:	6165                	addi	sp,sp,112
80001770:	8082                	ret
80001772:	079d                	addi	a5,a5,7
80001774:	9be1                	andi	a5,a5,-8
80001776:	00878713          	addi	a4,a5,8
8000177a:	00ea2023          	sw	a4,0(s4)
8000177e:	4398                	lw	a4,0(a5)
80001780:	43dc                	lw	a5,4(a5)
80001782:	c438                	sw	a4,72(s0)
80001784:	c47c                	sw	a5,76(s0)
80001786:	b73d                	j	800016b4 <_printf_float+0x6e>
80001788:	866e                	mv	a2,s11
8000178a:	86e6                	mv	a3,s9
8000178c:	856e                	mv	a0,s11
8000178e:	85e6                	mv	a1,s9
80001790:	61e040ef          	jal	ra,80005dae <__unorddf2>
80001794:	c505                	beqz	a0,800017bc <_printf_float+0x176>
80001796:	000cd663          	bgez	s9,800017a2 <_printf_float+0x15c>
8000179a:	02d00793          	li	a5,45
8000179e:	04f401a3          	sb	a5,67(s0)
800017a2:	04700793          	li	a5,71
800017a6:	00005a17          	auipc	s4,0x5
800017aa:	7cea0a13          	addi	s4,s4,1998 # 80006f74 <__extendsfdf2+0x78c>
800017ae:	f957f2e3          	bgeu	a5,s5,80001732 <_printf_float+0xec>
800017b2:	00005a17          	auipc	s4,0x5
800017b6:	7c6a0a13          	addi	s4,s4,1990 # 80006f78 <__extendsfdf2+0x790>
800017ba:	bfa5                	j	80001732 <_printf_float+0xec>
800017bc:	405c                	lw	a5,4(s0)
800017be:	577d                	li	a4,-1
800017c0:	0dfafd13          	andi	s10,s5,223
800017c4:	08e79363          	bne	a5,a4,8000184a <_printf_float+0x204>
800017c8:	4799                	li	a5,6
800017ca:	c05c                	sw	a5,4(s0)
800017cc:	4054                	lw	a3,4(s0)
800017ce:	400b6713          	ori	a4,s6,1024
800017d2:	103c                	addi	a5,sp,40
800017d4:	c03e                	sw	a5,0(sp)
800017d6:	85ee                	mv	a1,s11
800017d8:	02310793          	addi	a5,sp,35
800017dc:	c018                	sw	a4,0(s0)
800017de:	c202                	sw	zero,4(sp)
800017e0:	88d6                	mv	a7,s5
800017e2:	02410813          	addi	a6,sp,36
800017e6:	8666                	mv	a2,s9
800017e8:	8526                	mv	a0,s1
800017ea:	39c9                	jal	800014bc <__cvt>
800017ec:	04700793          	li	a5,71
800017f0:	5592                	lw	a1,36(sp)
800017f2:	8a2a                	mv	s4,a0
800017f4:	00fd1b63          	bne	s10,a5,8000180a <_printf_float+0x1c4>
800017f8:	57f5                	li	a5,-3
800017fa:	00f5c563          	blt	a1,a5,80001804 <_printf_float+0x1be>
800017fe:	405c                	lw	a5,4(s0)
80001800:	08b7d763          	bge	a5,a1,8000188e <_printf_float+0x248>
80001804:	1af9                	addi	s5,s5,-2
80001806:	0ffafa93          	andi	s5,s5,255
8000180a:	06500793          	li	a5,101
8000180e:	0557e563          	bltu	a5,s5,80001858 <_printf_float+0x212>
80001812:	15fd                	addi	a1,a1,-1
80001814:	8656                	mv	a2,s5
80001816:	05040513          	addi	a0,s0,80
8000181a:	d22e                	sw	a1,36(sp)
8000181c:	3379                	jal	800015aa <__exponent>
8000181e:	5722                	lw	a4,40(sp)
80001820:	4685                	li	a3,1
80001822:	8b2a                	mv	s6,a0
80001824:	00a707b3          	add	a5,a4,a0
80001828:	c81c                	sw	a5,16(s0)
8000182a:	00e6c563          	blt	a3,a4,80001834 <_printf_float+0x1ee>
8000182e:	4018                	lw	a4,0(s0)
80001830:	8b05                	andi	a4,a4,1
80001832:	c319                	beqz	a4,80001838 <_printf_float+0x1f2>
80001834:	0785                	addi	a5,a5,1
80001836:	c81c                	sw	a5,16(s0)
80001838:	02314783          	lbu	a5,35(sp)
8000183c:	f00782e3          	beqz	a5,80001740 <_printf_float+0xfa>
80001840:	02d00793          	li	a5,45
80001844:	04f401a3          	sb	a5,67(s0)
80001848:	bde5                	j	80001740 <_printf_float+0xfa>
8000184a:	04700713          	li	a4,71
8000184e:	f6ed1fe3          	bne	s10,a4,800017cc <_printf_float+0x186>
80001852:	ffad                	bnez	a5,800017cc <_printf_float+0x186>
80001854:	4785                	li	a5,1
80001856:	bf95                	j	800017ca <_printf_float+0x184>
80001858:	06600793          	li	a5,102
8000185c:	02fa9b63          	bne	s5,a5,80001892 <_printf_float+0x24c>
80001860:	405c                	lw	a5,4(s0)
80001862:	00b05b63          	blez	a1,80001878 <_printf_float+0x232>
80001866:	c80c                	sw	a1,16(s0)
80001868:	e781                	bnez	a5,80001870 <_printf_float+0x22a>
8000186a:	4018                	lw	a4,0(s0)
8000186c:	8b05                	andi	a4,a4,1
8000186e:	cf09                	beqz	a4,80001888 <_printf_float+0x242>
80001870:	0785                	addi	a5,a5,1
80001872:	97ae                	add	a5,a5,a1
80001874:	c81c                	sw	a5,16(s0)
80001876:	a809                	j	80001888 <_printf_float+0x242>
80001878:	e789                	bnez	a5,80001882 <_printf_float+0x23c>
8000187a:	4018                	lw	a4,0(s0)
8000187c:	4685                	li	a3,1
8000187e:	8b05                	andi	a4,a4,1
80001880:	c319                	beqz	a4,80001886 <_printf_float+0x240>
80001882:	00278693          	addi	a3,a5,2
80001886:	c814                	sw	a3,16(s0)
80001888:	cc2c                	sw	a1,88(s0)
8000188a:	4b01                	li	s6,0
8000188c:	b775                	j	80001838 <_printf_float+0x1f2>
8000188e:	06700a93          	li	s5,103
80001892:	57a2                	lw	a5,40(sp)
80001894:	00f5c963          	blt	a1,a5,800018a6 <_printf_float+0x260>
80001898:	401c                	lw	a5,0(s0)
8000189a:	c80c                	sw	a1,16(s0)
8000189c:	8b85                	andi	a5,a5,1
8000189e:	d7ed                	beqz	a5,80001888 <_printf_float+0x242>
800018a0:	00158793          	addi	a5,a1,1
800018a4:	bfc1                	j	80001874 <_printf_float+0x22e>
800018a6:	4705                	li	a4,1
800018a8:	00b04463          	bgtz	a1,800018b0 <_printf_float+0x26a>
800018ac:	4709                	li	a4,2
800018ae:	8f0d                	sub	a4,a4,a1
800018b0:	97ba                	add	a5,a5,a4
800018b2:	b7c9                	j	80001874 <_printf_float+0x22e>
800018b4:	401c                	lw	a5,0(s0)
800018b6:	4007f713          	andi	a4,a5,1024
800018ba:	e315                	bnez	a4,800018de <_printf_float+0x298>
800018bc:	4814                	lw	a3,16(s0)
800018be:	8652                	mv	a2,s4
800018c0:	85ca                	mv	a1,s2
800018c2:	8526                	mv	a0,s1
800018c4:	9982                	jalr	s3
800018c6:	e99506e3          	beq	a0,s9,80001752 <_printf_float+0x10c>
800018ca:	401c                	lw	a5,0(s0)
800018cc:	8b89                	andi	a5,a5,2
800018ce:	24079863          	bnez	a5,80001b1e <_printf_float+0x4d8>
800018d2:	57b2                	lw	a5,44(sp)
800018d4:	4448                	lw	a0,12(s0)
800018d6:	e6f55fe3          	bge	a0,a5,80001754 <_printf_float+0x10e>
800018da:	853e                	mv	a0,a5
800018dc:	bda5                	j	80001754 <_printf_float+0x10e>
800018de:	06500713          	li	a4,101
800018e2:	19577d63          	bgeu	a4,s5,80001a7c <_printf_float+0x436>
800018e6:	4428                	lw	a0,72(s0)
800018e8:	446c                	lw	a1,76(s0)
800018ea:	4601                	li	a2,0
800018ec:	4681                	li	a3,0
800018ee:	0b1030ef          	jal	ra,8000519e <__eqdf2>
800018f2:	e939                	bnez	a0,80001948 <_printf_float+0x302>
800018f4:	4685                	li	a3,1
800018f6:	00005617          	auipc	a2,0x5
800018fa:	68660613          	addi	a2,a2,1670 # 80006f7c <__extendsfdf2+0x794>
800018fe:	85ca                	mv	a1,s2
80001900:	8526                	mv	a0,s1
80001902:	9982                	jalr	s3
80001904:	e59507e3          	beq	a0,s9,80001752 <_printf_float+0x10c>
80001908:	5712                	lw	a4,36(sp)
8000190a:	57a2                	lw	a5,40(sp)
8000190c:	00f74563          	blt	a4,a5,80001916 <_printf_float+0x2d0>
80001910:	401c                	lw	a5,0(s0)
80001912:	8b85                	andi	a5,a5,1
80001914:	dbdd                	beqz	a5,800018ca <_printf_float+0x284>
80001916:	86de                	mv	a3,s7
80001918:	8662                	mv	a2,s8
8000191a:	85ca                	mv	a1,s2
8000191c:	8526                	mv	a0,s1
8000191e:	9982                	jalr	s3
80001920:	57fd                	li	a5,-1
80001922:	e2f508e3          	beq	a0,a5,80001752 <_printf_float+0x10c>
80001926:	4a01                	li	s4,0
80001928:	01a40a93          	addi	s5,s0,26
8000192c:	5b7d                	li	s6,-1
8000192e:	57a2                	lw	a5,40(sp)
80001930:	17fd                	addi	a5,a5,-1
80001932:	f8fa5ce3          	bge	s4,a5,800018ca <_printf_float+0x284>
80001936:	4685                	li	a3,1
80001938:	8656                	mv	a2,s5
8000193a:	85ca                	mv	a1,s2
8000193c:	8526                	mv	a0,s1
8000193e:	9982                	jalr	s3
80001940:	e16509e3          	beq	a0,s6,80001752 <_printf_float+0x10c>
80001944:	0a05                	addi	s4,s4,1
80001946:	b7e5                	j	8000192e <_printf_float+0x2e8>
80001948:	5792                	lw	a5,36(sp)
8000194a:	06f04663          	bgtz	a5,800019b6 <_printf_float+0x370>
8000194e:	4685                	li	a3,1
80001950:	00005617          	auipc	a2,0x5
80001954:	62c60613          	addi	a2,a2,1580 # 80006f7c <__extendsfdf2+0x794>
80001958:	85ca                	mv	a1,s2
8000195a:	8526                	mv	a0,s1
8000195c:	9982                	jalr	s3
8000195e:	df950ae3          	beq	a0,s9,80001752 <_printf_float+0x10c>
80001962:	5792                	lw	a5,36(sp)
80001964:	5722                	lw	a4,40(sp)
80001966:	8fd9                	or	a5,a5,a4
80001968:	e781                	bnez	a5,80001970 <_printf_float+0x32a>
8000196a:	401c                	lw	a5,0(s0)
8000196c:	8b85                	andi	a5,a5,1
8000196e:	dfb1                	beqz	a5,800018ca <_printf_float+0x284>
80001970:	86de                	mv	a3,s7
80001972:	8662                	mv	a2,s8
80001974:	85ca                	mv	a1,s2
80001976:	8526                	mv	a0,s1
80001978:	9982                	jalr	s3
8000197a:	57fd                	li	a5,-1
8000197c:	dcf50be3          	beq	a0,a5,80001752 <_printf_float+0x10c>
80001980:	4a81                	li	s5,0
80001982:	01a40b13          	addi	s6,s0,26
80001986:	5bfd                	li	s7,-1
80001988:	5792                	lw	a5,36(sp)
8000198a:	40f007b3          	neg	a5,a5
8000198e:	00facb63          	blt	s5,a5,800019a4 <_printf_float+0x35e>
80001992:	56a2                	lw	a3,40(sp)
80001994:	8652                	mv	a2,s4
80001996:	85ca                	mv	a1,s2
80001998:	8526                	mv	a0,s1
8000199a:	9982                	jalr	s3
8000199c:	57fd                	li	a5,-1
8000199e:	f2f516e3          	bne	a0,a5,800018ca <_printf_float+0x284>
800019a2:	bb45                	j	80001752 <_printf_float+0x10c>
800019a4:	4685                	li	a3,1
800019a6:	865a                	mv	a2,s6
800019a8:	85ca                	mv	a1,s2
800019aa:	8526                	mv	a0,s1
800019ac:	9982                	jalr	s3
800019ae:	db7502e3          	beq	a0,s7,80001752 <_printf_float+0x10c>
800019b2:	0a85                	addi	s5,s5,1
800019b4:	bfd1                	j	80001988 <_printf_float+0x342>
800019b6:	4c3c                	lw	a5,88(s0)
800019b8:	5aa2                	lw	s5,40(sp)
800019ba:	0157d363          	bge	a5,s5,800019c0 <_printf_float+0x37a>
800019be:	8abe                	mv	s5,a5
800019c0:	07504963          	bgtz	s5,80001a32 <_printf_float+0x3ec>
800019c4:	4b01                	li	s6,0
800019c6:	01a40d13          	addi	s10,s0,26
800019ca:	5dfd                	li	s11,-1
800019cc:	05842c83          	lw	s9,88(s0)
800019d0:	87d6                	mv	a5,s5
800019d2:	000ad363          	bgez	s5,800019d8 <_printf_float+0x392>
800019d6:	4781                	li	a5,0
800019d8:	40fc87b3          	sub	a5,s9,a5
800019dc:	06fb4463          	blt	s6,a5,80001a44 <_printf_float+0x3fe>
800019e0:	5712                	lw	a4,36(sp)
800019e2:	57a2                	lw	a5,40(sp)
800019e4:	06f74963          	blt	a4,a5,80001a56 <_printf_float+0x410>
800019e8:	401c                	lw	a5,0(s0)
800019ea:	8b85                	andi	a5,a5,1
800019ec:	e7ad                	bnez	a5,80001a56 <_printf_float+0x410>
800019ee:	5aa2                	lw	s5,40(sp)
800019f0:	5712                	lw	a4,36(sp)
800019f2:	419a87b3          	sub	a5,s5,s9
800019f6:	40ea8ab3          	sub	s5,s5,a4
800019fa:	0157d363          	bge	a5,s5,80001a00 <_printf_float+0x3ba>
800019fe:	8abe                	mv	s5,a5
80001a00:	07504463          	bgtz	s5,80001a68 <_printf_float+0x422>
80001a04:	4a01                	li	s4,0
80001a06:	01a40b13          	addi	s6,s0,26
80001a0a:	5bfd                	li	s7,-1
80001a0c:	5712                	lw	a4,36(sp)
80001a0e:	57a2                	lw	a5,40(sp)
80001a10:	8f99                	sub	a5,a5,a4
80001a12:	8756                	mv	a4,s5
80001a14:	000ad363          	bgez	s5,80001a1a <_printf_float+0x3d4>
80001a18:	4701                	li	a4,0
80001a1a:	8f99                	sub	a5,a5,a4
80001a1c:	eafa57e3          	bge	s4,a5,800018ca <_printf_float+0x284>
80001a20:	4685                	li	a3,1
80001a22:	865a                	mv	a2,s6
80001a24:	85ca                	mv	a1,s2
80001a26:	8526                	mv	a0,s1
80001a28:	9982                	jalr	s3
80001a2a:	d37504e3          	beq	a0,s7,80001752 <_printf_float+0x10c>
80001a2e:	0a05                	addi	s4,s4,1
80001a30:	bff1                	j	80001a0c <_printf_float+0x3c6>
80001a32:	86d6                	mv	a3,s5
80001a34:	8652                	mv	a2,s4
80001a36:	85ca                	mv	a1,s2
80001a38:	8526                	mv	a0,s1
80001a3a:	9982                	jalr	s3
80001a3c:	57fd                	li	a5,-1
80001a3e:	f8f513e3          	bne	a0,a5,800019c4 <_printf_float+0x37e>
80001a42:	bb01                	j	80001752 <_printf_float+0x10c>
80001a44:	4685                	li	a3,1
80001a46:	866a                	mv	a2,s10
80001a48:	85ca                	mv	a1,s2
80001a4a:	8526                	mv	a0,s1
80001a4c:	9982                	jalr	s3
80001a4e:	d1b502e3          	beq	a0,s11,80001752 <_printf_float+0x10c>
80001a52:	0b05                	addi	s6,s6,1
80001a54:	bfa5                	j	800019cc <_printf_float+0x386>
80001a56:	86de                	mv	a3,s7
80001a58:	8662                	mv	a2,s8
80001a5a:	85ca                	mv	a1,s2
80001a5c:	8526                	mv	a0,s1
80001a5e:	9982                	jalr	s3
80001a60:	57fd                	li	a5,-1
80001a62:	f8f516e3          	bne	a0,a5,800019ee <_printf_float+0x3a8>
80001a66:	b1f5                	j	80001752 <_printf_float+0x10c>
80001a68:	86d6                	mv	a3,s5
80001a6a:	019a0633          	add	a2,s4,s9
80001a6e:	85ca                	mv	a1,s2
80001a70:	8526                	mv	a0,s1
80001a72:	9982                	jalr	s3
80001a74:	57fd                	li	a5,-1
80001a76:	f8f517e3          	bne	a0,a5,80001a04 <_printf_float+0x3be>
80001a7a:	b9e1                	j	80001752 <_printf_float+0x10c>
80001a7c:	56a2                	lw	a3,40(sp)
80001a7e:	4705                	li	a4,1
80001a80:	00d74463          	blt	a4,a3,80001a88 <_printf_float+0x442>
80001a84:	8b85                	andi	a5,a5,1
80001a86:	c7b5                	beqz	a5,80001af2 <_printf_float+0x4ac>
80001a88:	4685                	li	a3,1
80001a8a:	8652                	mv	a2,s4
80001a8c:	85ca                	mv	a1,s2
80001a8e:	8526                	mv	a0,s1
80001a90:	9982                	jalr	s3
80001a92:	5afd                	li	s5,-1
80001a94:	cb550fe3          	beq	a0,s5,80001752 <_printf_float+0x10c>
80001a98:	86de                	mv	a3,s7
80001a9a:	8662                	mv	a2,s8
80001a9c:	85ca                	mv	a1,s2
80001a9e:	8526                	mv	a0,s1
80001aa0:	9982                	jalr	s3
80001aa2:	cb5508e3          	beq	a0,s5,80001752 <_printf_float+0x10c>
80001aa6:	4428                	lw	a0,72(s0)
80001aa8:	446c                	lw	a1,76(s0)
80001aaa:	4601                	li	a2,0
80001aac:	4681                	li	a3,0
80001aae:	6f0030ef          	jal	ra,8000519e <__eqdf2>
80001ab2:	c91d                	beqz	a0,80001ae8 <_printf_float+0x4a2>
80001ab4:	56a2                	lw	a3,40(sp)
80001ab6:	001a0613          	addi	a2,s4,1
80001aba:	85ca                	mv	a1,s2
80001abc:	16fd                	addi	a3,a3,-1
80001abe:	8526                	mv	a0,s1
80001ac0:	9982                	jalr	s3
80001ac2:	c95508e3          	beq	a0,s5,80001752 <_printf_float+0x10c>
80001ac6:	86da                	mv	a3,s6
80001ac8:	05040613          	addi	a2,s0,80
80001acc:	b5e9                	j	80001996 <_printf_float+0x350>
80001ace:	4685                	li	a3,1
80001ad0:	8656                	mv	a2,s5
80001ad2:	85ca                	mv	a1,s2
80001ad4:	8526                	mv	a0,s1
80001ad6:	9982                	jalr	s3
80001ad8:	c7750de3          	beq	a0,s7,80001752 <_printf_float+0x10c>
80001adc:	0a05                	addi	s4,s4,1
80001ade:	57a2                	lw	a5,40(sp)
80001ae0:	17fd                	addi	a5,a5,-1
80001ae2:	fefa46e3          	blt	s4,a5,80001ace <_printf_float+0x488>
80001ae6:	b7c5                	j	80001ac6 <_printf_float+0x480>
80001ae8:	4a01                	li	s4,0
80001aea:	01a40a93          	addi	s5,s0,26
80001aee:	5bfd                	li	s7,-1
80001af0:	b7fd                	j	80001ade <_printf_float+0x498>
80001af2:	4685                	li	a3,1
80001af4:	8652                	mv	a2,s4
80001af6:	85ca                	mv	a1,s2
80001af8:	8526                	mv	a0,s1
80001afa:	9982                	jalr	s3
80001afc:	fd9515e3          	bne	a0,s9,80001ac6 <_printf_float+0x480>
80001b00:	b989                	j	80001752 <_printf_float+0x10c>
80001b02:	4685                	li	a3,1
80001b04:	8656                	mv	a2,s5
80001b06:	85ca                	mv	a1,s2
80001b08:	8526                	mv	a0,s1
80001b0a:	9982                	jalr	s3
80001b0c:	c56503e3          	beq	a0,s6,80001752 <_printf_float+0x10c>
80001b10:	0a05                	addi	s4,s4,1
80001b12:	445c                	lw	a5,12(s0)
80001b14:	5732                	lw	a4,44(sp)
80001b16:	8f99                	sub	a5,a5,a4
80001b18:	fefa45e3          	blt	s4,a5,80001b02 <_printf_float+0x4bc>
80001b1c:	bb5d                	j	800018d2 <_printf_float+0x28c>
80001b1e:	4a01                	li	s4,0
80001b20:	01940a93          	addi	s5,s0,25
80001b24:	5b7d                	li	s6,-1
80001b26:	b7f5                	j	80001b12 <_printf_float+0x4cc>

80001b28 <_printf_common>:
_printf_common():
80001b28:	7179                	addi	sp,sp,-48
80001b2a:	cc52                	sw	s4,24(sp)
80001b2c:	499c                	lw	a5,16(a1)
80001b2e:	8a3a                	mv	s4,a4
80001b30:	4598                	lw	a4,8(a1)
80001b32:	d422                	sw	s0,40(sp)
80001b34:	d226                	sw	s1,36(sp)
80001b36:	ce4e                	sw	s3,28(sp)
80001b38:	ca56                	sw	s5,20(sp)
80001b3a:	d606                	sw	ra,44(sp)
80001b3c:	d04a                	sw	s2,32(sp)
80001b3e:	c85a                	sw	s6,16(sp)
80001b40:	c65e                	sw	s7,12(sp)
80001b42:	89aa                	mv	s3,a0
80001b44:	842e                	mv	s0,a1
80001b46:	84b2                	mv	s1,a2
80001b48:	8ab6                	mv	s5,a3
80001b4a:	00e7d363          	bge	a5,a4,80001b50 <_printf_common+0x28>
80001b4e:	87ba                	mv	a5,a4
80001b50:	c09c                	sw	a5,0(s1)
80001b52:	04344703          	lbu	a4,67(s0)
80001b56:	c319                	beqz	a4,80001b5c <_printf_common+0x34>
80001b58:	0785                	addi	a5,a5,1
80001b5a:	c09c                	sw	a5,0(s1)
80001b5c:	401c                	lw	a5,0(s0)
80001b5e:	0207f793          	andi	a5,a5,32
80001b62:	c781                	beqz	a5,80001b6a <_printf_common+0x42>
80001b64:	409c                	lw	a5,0(s1)
80001b66:	0789                	addi	a5,a5,2
80001b68:	c09c                	sw	a5,0(s1)
80001b6a:	00042903          	lw	s2,0(s0)
80001b6e:	00697913          	andi	s2,s2,6
80001b72:	00091a63          	bnez	s2,80001b86 <_printf_common+0x5e>
80001b76:	01940b13          	addi	s6,s0,25
80001b7a:	5bfd                	li	s7,-1
80001b7c:	445c                	lw	a5,12(s0)
80001b7e:	4098                	lw	a4,0(s1)
80001b80:	8f99                	sub	a5,a5,a4
80001b82:	04f94c63          	blt	s2,a5,80001bda <_printf_common+0xb2>
80001b86:	04344783          	lbu	a5,67(s0)
80001b8a:	00f036b3          	snez	a3,a5
80001b8e:	401c                	lw	a5,0(s0)
80001b90:	0207f793          	andi	a5,a5,32
80001b94:	eba5                	bnez	a5,80001c04 <_printf_common+0xdc>
80001b96:	04340613          	addi	a2,s0,67
80001b9a:	85d6                	mv	a1,s5
80001b9c:	854e                	mv	a0,s3
80001b9e:	9a02                	jalr	s4
80001ba0:	57fd                	li	a5,-1
80001ba2:	04f50363          	beq	a0,a5,80001be8 <_printf_common+0xc0>
80001ba6:	401c                	lw	a5,0(s0)
80001ba8:	4611                	li	a2,4
80001baa:	4098                	lw	a4,0(s1)
80001bac:	8b99                	andi	a5,a5,6
80001bae:	4454                	lw	a3,12(s0)
80001bb0:	4481                	li	s1,0
80001bb2:	00c79763          	bne	a5,a2,80001bc0 <_printf_common+0x98>
80001bb6:	40e684b3          	sub	s1,a3,a4
80001bba:	0004d363          	bgez	s1,80001bc0 <_printf_common+0x98>
80001bbe:	4481                	li	s1,0
80001bc0:	441c                	lw	a5,8(s0)
80001bc2:	4818                	lw	a4,16(s0)
80001bc4:	00f75463          	bge	a4,a5,80001bcc <_printf_common+0xa4>
80001bc8:	8f99                	sub	a5,a5,a4
80001bca:	94be                	add	s1,s1,a5
80001bcc:	4901                	li	s2,0
80001bce:	0469                	addi	s0,s0,26
80001bd0:	5b7d                	li	s6,-1
80001bd2:	05249863          	bne	s1,s2,80001c22 <_printf_common+0xfa>
80001bd6:	4501                	li	a0,0
80001bd8:	a809                	j	80001bea <_printf_common+0xc2>
80001bda:	4685                	li	a3,1
80001bdc:	865a                	mv	a2,s6
80001bde:	85d6                	mv	a1,s5
80001be0:	854e                	mv	a0,s3
80001be2:	9a02                	jalr	s4
80001be4:	01751e63          	bne	a0,s7,80001c00 <_printf_common+0xd8>
80001be8:	557d                	li	a0,-1
80001bea:	50b2                	lw	ra,44(sp)
80001bec:	5422                	lw	s0,40(sp)
80001bee:	5492                	lw	s1,36(sp)
80001bf0:	5902                	lw	s2,32(sp)
80001bf2:	49f2                	lw	s3,28(sp)
80001bf4:	4a62                	lw	s4,24(sp)
80001bf6:	4ad2                	lw	s5,20(sp)
80001bf8:	4b42                	lw	s6,16(sp)
80001bfa:	4bb2                	lw	s7,12(sp)
80001bfc:	6145                	addi	sp,sp,48
80001bfe:	8082                	ret
80001c00:	0905                	addi	s2,s2,1
80001c02:	bfad                	j	80001b7c <_printf_common+0x54>
80001c04:	00d40733          	add	a4,s0,a3
80001c08:	03000613          	li	a2,48
80001c0c:	04c701a3          	sb	a2,67(a4)
80001c10:	04544703          	lbu	a4,69(s0)
80001c14:	00168793          	addi	a5,a3,1
80001c18:	97a2                	add	a5,a5,s0
80001c1a:	0689                	addi	a3,a3,2
80001c1c:	04e781a3          	sb	a4,67(a5)
80001c20:	bf9d                	j	80001b96 <_printf_common+0x6e>
80001c22:	4685                	li	a3,1
80001c24:	8622                	mv	a2,s0
80001c26:	85d6                	mv	a1,s5
80001c28:	854e                	mv	a0,s3
80001c2a:	9a02                	jalr	s4
80001c2c:	fb650ee3          	beq	a0,s6,80001be8 <_printf_common+0xc0>
80001c30:	0905                	addi	s2,s2,1
80001c32:	b745                	j	80001bd2 <_printf_common+0xaa>

80001c34 <_printf_i>:
_printf_i():
80001c34:	7179                	addi	sp,sp,-48
80001c36:	d422                	sw	s0,40(sp)
80001c38:	d226                	sw	s1,36(sp)
80001c3a:	d04a                	sw	s2,32(sp)
80001c3c:	ce4e                	sw	s3,28(sp)
80001c3e:	d606                	sw	ra,44(sp)
80001c40:	cc52                	sw	s4,24(sp)
80001c42:	ca56                	sw	s5,20(sp)
80001c44:	c85a                	sw	s6,16(sp)
80001c46:	0185c803          	lbu	a6,24(a1)
80001c4a:	07800793          	li	a5,120
80001c4e:	84aa                	mv	s1,a0
80001c50:	842e                	mv	s0,a1
80001c52:	8932                	mv	s2,a2
80001c54:	89b6                	mv	s3,a3
80001c56:	0107ee63          	bltu	a5,a6,80001c72 <_printf_i+0x3e>
80001c5a:	06200793          	li	a5,98
80001c5e:	04358693          	addi	a3,a1,67
80001c62:	0107ed63          	bltu	a5,a6,80001c7c <_printf_i+0x48>
80001c66:	1c080563          	beqz	a6,80001e30 <_printf_i+0x1fc>
80001c6a:	05800793          	li	a5,88
80001c6e:	12f80a63          	beq	a6,a5,80001da2 <_printf_i+0x16e>
80001c72:	04240a93          	addi	s5,s0,66
80001c76:	05040123          	sb	a6,66(s0)
80001c7a:	a815                	j	80001cae <_printf_i+0x7a>
80001c7c:	f9d80793          	addi	a5,a6,-99 # c1fff9d <dhry_stubs.c.c3a4eb6e+0xc1fc3c2>
80001c80:	0ff7f793          	andi	a5,a5,255
80001c84:	4655                	li	a2,21
80001c86:	fef666e3          	bltu	a2,a5,80001c72 <_printf_i+0x3e>
80001c8a:	00005617          	auipc	a2,0x5
80001c8e:	31e60613          	addi	a2,a2,798 # 80006fa8 <__extendsfdf2+0x7c0>
80001c92:	078a                	slli	a5,a5,0x2
80001c94:	97b2                	add	a5,a5,a2
80001c96:	439c                	lw	a5,0(a5)
80001c98:	97b2                	add	a5,a5,a2
80001c9a:	8782                	jr	a5
80001c9c:	431c                	lw	a5,0(a4)
80001c9e:	04258a93          	addi	s5,a1,66
80001ca2:	00478693          	addi	a3,a5,4
80001ca6:	439c                	lw	a5,0(a5)
80001ca8:	c314                	sw	a3,0(a4)
80001caa:	04f58123          	sb	a5,66(a1)
80001cae:	4785                	li	a5,1
80001cb0:	a265                	j	80001e58 <_printf_i+0x224>
80001cb2:	419c                	lw	a5,0(a1)
80001cb4:	4308                	lw	a0,0(a4)
80001cb6:	0807f613          	andi	a2,a5,128
80001cba:	00450593          	addi	a1,a0,4
80001cbe:	c20d                	beqz	a2,80001ce0 <_printf_i+0xac>
80001cc0:	411c                	lw	a5,0(a0)
80001cc2:	c30c                	sw	a1,0(a4)
80001cc4:	0007d863          	bgez	a5,80001cd4 <_printf_i+0xa0>
80001cc8:	02d00713          	li	a4,45
80001ccc:	40f007b3          	neg	a5,a5
80001cd0:	04e401a3          	sb	a4,67(s0)
80001cd4:	00005617          	auipc	a2,0x5
80001cd8:	2ac60613          	addi	a2,a2,684 # 80006f80 <__extendsfdf2+0x798>
80001cdc:	4829                	li	a6,10
80001cde:	a0a1                	j	80001d26 <_printf_i+0xf2>
80001ce0:	0407f613          	andi	a2,a5,64
80001ce4:	411c                	lw	a5,0(a0)
80001ce6:	c30c                	sw	a1,0(a4)
80001ce8:	de71                	beqz	a2,80001cc4 <_printf_i+0x90>
80001cea:	07c2                	slli	a5,a5,0x10
80001cec:	87c1                	srai	a5,a5,0x10
80001cee:	bfd9                	j	80001cc4 <_printf_i+0x90>
80001cf0:	4190                	lw	a2,0(a1)
80001cf2:	431c                	lw	a5,0(a4)
80001cf4:	08067513          	andi	a0,a2,128
80001cf8:	00478593          	addi	a1,a5,4
80001cfc:	c501                	beqz	a0,80001d04 <_printf_i+0xd0>
80001cfe:	c30c                	sw	a1,0(a4)
80001d00:	439c                	lw	a5,0(a5)
80001d02:	a039                	j	80001d10 <_printf_i+0xdc>
80001d04:	04067613          	andi	a2,a2,64
80001d08:	c30c                	sw	a1,0(a4)
80001d0a:	da7d                	beqz	a2,80001d00 <_printf_i+0xcc>
80001d0c:	0007d783          	lhu	a5,0(a5)
80001d10:	06f00713          	li	a4,111
80001d14:	00005617          	auipc	a2,0x5
80001d18:	26c60613          	addi	a2,a2,620 # 80006f80 <__extendsfdf2+0x798>
80001d1c:	0ee80463          	beq	a6,a4,80001e04 <_printf_i+0x1d0>
80001d20:	4829                	li	a6,10
80001d22:	040401a3          	sb	zero,67(s0)
80001d26:	4058                	lw	a4,4(s0)
80001d28:	c418                	sw	a4,8(s0)
80001d2a:	00074563          	bltz	a4,80001d34 <_printf_i+0x100>
80001d2e:	400c                	lw	a1,0(s0)
80001d30:	99ed                	andi	a1,a1,-5
80001d32:	c00c                	sw	a1,0(s0)
80001d34:	e399                	bnez	a5,80001d3a <_printf_i+0x106>
80001d36:	8ab6                	mv	s5,a3
80001d38:	cf19                	beqz	a4,80001d56 <_printf_i+0x122>
80001d3a:	8ab6                	mv	s5,a3
80001d3c:	0307f733          	remu	a4,a5,a6
80001d40:	1afd                	addi	s5,s5,-1
80001d42:	9732                	add	a4,a4,a2
80001d44:	00074703          	lbu	a4,0(a4)
80001d48:	00ea8023          	sb	a4,0(s5)
80001d4c:	873e                	mv	a4,a5
80001d4e:	0307d7b3          	divu	a5,a5,a6
80001d52:	ff0775e3          	bgeu	a4,a6,80001d3c <_printf_i+0x108>
80001d56:	47a1                	li	a5,8
80001d58:	00f81e63          	bne	a6,a5,80001d74 <_printf_i+0x140>
80001d5c:	401c                	lw	a5,0(s0)
80001d5e:	8b85                	andi	a5,a5,1
80001d60:	cb91                	beqz	a5,80001d74 <_printf_i+0x140>
80001d62:	4058                	lw	a4,4(s0)
80001d64:	481c                	lw	a5,16(s0)
80001d66:	00e7c763          	blt	a5,a4,80001d74 <_printf_i+0x140>
80001d6a:	03000793          	li	a5,48
80001d6e:	fefa8fa3          	sb	a5,-1(s5)
80001d72:	1afd                	addi	s5,s5,-1
80001d74:	415686b3          	sub	a3,a3,s5
80001d78:	c814                	sw	a3,16(s0)
80001d7a:	874e                	mv	a4,s3
80001d7c:	86ca                	mv	a3,s2
80001d7e:	0070                	addi	a2,sp,12
80001d80:	85a2                	mv	a1,s0
80001d82:	8526                	mv	a0,s1
80001d84:	3355                	jal	80001b28 <_printf_common>
80001d86:	5a7d                	li	s4,-1
80001d88:	0d451c63          	bne	a0,s4,80001e60 <_printf_i+0x22c>
80001d8c:	557d                	li	a0,-1
80001d8e:	50b2                	lw	ra,44(sp)
80001d90:	5422                	lw	s0,40(sp)
80001d92:	5492                	lw	s1,36(sp)
80001d94:	5902                	lw	s2,32(sp)
80001d96:	49f2                	lw	s3,28(sp)
80001d98:	4a62                	lw	s4,24(sp)
80001d9a:	4ad2                	lw	s5,20(sp)
80001d9c:	4b42                	lw	s6,16(sp)
80001d9e:	6145                	addi	sp,sp,48
80001da0:	8082                	ret
80001da2:	050582a3          	sb	a6,69(a1)
80001da6:	00005617          	auipc	a2,0x5
80001daa:	1da60613          	addi	a2,a2,474 # 80006f80 <__extendsfdf2+0x798>
80001dae:	400c                	lw	a1,0(s0)
80001db0:	4308                	lw	a0,0(a4)
80001db2:	0805f813          	andi	a6,a1,128
80001db6:	411c                	lw	a5,0(a0)
80001db8:	0511                	addi	a0,a0,4
80001dba:	02080d63          	beqz	a6,80001df4 <_printf_i+0x1c0>
80001dbe:	c308                	sw	a0,0(a4)
80001dc0:	0015f713          	andi	a4,a1,1
80001dc4:	c701                	beqz	a4,80001dcc <_printf_i+0x198>
80001dc6:	0205e593          	ori	a1,a1,32
80001dca:	c00c                	sw	a1,0(s0)
80001dcc:	4841                	li	a6,16
80001dce:	fbb1                	bnez	a5,80001d22 <_printf_i+0xee>
80001dd0:	4018                	lw	a4,0(s0)
80001dd2:	fdf77713          	andi	a4,a4,-33
80001dd6:	c018                	sw	a4,0(s0)
80001dd8:	b7a9                	j	80001d22 <_printf_i+0xee>
80001dda:	419c                	lw	a5,0(a1)
80001ddc:	0207e793          	ori	a5,a5,32
80001de0:	c19c                	sw	a5,0(a1)
80001de2:	07800793          	li	a5,120
80001de6:	04f402a3          	sb	a5,69(s0)
80001dea:	00005617          	auipc	a2,0x5
80001dee:	1aa60613          	addi	a2,a2,426 # 80006f94 <__extendsfdf2+0x7ac>
80001df2:	bf75                	j	80001dae <_printf_i+0x17a>
80001df4:	0405f813          	andi	a6,a1,64
80001df8:	c308                	sw	a0,0(a4)
80001dfa:	fc0803e3          	beqz	a6,80001dc0 <_printf_i+0x18c>
80001dfe:	07c2                	slli	a5,a5,0x10
80001e00:	83c1                	srli	a5,a5,0x10
80001e02:	bf7d                	j	80001dc0 <_printf_i+0x18c>
80001e04:	4821                	li	a6,8
80001e06:	bf31                	j	80001d22 <_printf_i+0xee>
80001e08:	4190                	lw	a2,0(a1)
80001e0a:	431c                	lw	a5,0(a4)
80001e0c:	49cc                	lw	a1,20(a1)
80001e0e:	08067813          	andi	a6,a2,128
80001e12:	00478513          	addi	a0,a5,4
80001e16:	00080663          	beqz	a6,80001e22 <_printf_i+0x1ee>
80001e1a:	c308                	sw	a0,0(a4)
80001e1c:	439c                	lw	a5,0(a5)
80001e1e:	c38c                	sw	a1,0(a5)
80001e20:	a801                	j	80001e30 <_printf_i+0x1fc>
80001e22:	c308                	sw	a0,0(a4)
80001e24:	04067613          	andi	a2,a2,64
80001e28:	439c                	lw	a5,0(a5)
80001e2a:	da75                	beqz	a2,80001e1e <_printf_i+0x1ea>
80001e2c:	00b79023          	sh	a1,0(a5)
80001e30:	00042823          	sw	zero,16(s0)
80001e34:	8ab6                	mv	s5,a3
80001e36:	b791                	j	80001d7a <_printf_i+0x146>
80001e38:	431c                	lw	a5,0(a4)
80001e3a:	41d0                	lw	a2,4(a1)
80001e3c:	4581                	li	a1,0
80001e3e:	00478693          	addi	a3,a5,4
80001e42:	c314                	sw	a3,0(a4)
80001e44:	0007aa83          	lw	s5,0(a5)
80001e48:	8556                	mv	a0,s5
80001e4a:	0f8010ef          	jal	ra,80002f42 <memchr>
80001e4e:	c501                	beqz	a0,80001e56 <_printf_i+0x222>
80001e50:	41550533          	sub	a0,a0,s5
80001e54:	c048                	sw	a0,4(s0)
80001e56:	405c                	lw	a5,4(s0)
80001e58:	c81c                	sw	a5,16(s0)
80001e5a:	040401a3          	sb	zero,67(s0)
80001e5e:	bf31                	j	80001d7a <_printf_i+0x146>
80001e60:	4814                	lw	a3,16(s0)
80001e62:	8656                	mv	a2,s5
80001e64:	85ca                	mv	a1,s2
80001e66:	8526                	mv	a0,s1
80001e68:	9982                	jalr	s3
80001e6a:	f34501e3          	beq	a0,s4,80001d8c <_printf_i+0x158>
80001e6e:	401c                	lw	a5,0(s0)
80001e70:	8b89                	andi	a5,a5,2
80001e72:	e78d                	bnez	a5,80001e9c <_printf_i+0x268>
80001e74:	47b2                	lw	a5,12(sp)
80001e76:	4448                	lw	a0,12(s0)
80001e78:	f0f55be3          	bge	a0,a5,80001d8e <_printf_i+0x15a>
80001e7c:	853e                	mv	a0,a5
80001e7e:	bf01                	j	80001d8e <_printf_i+0x15a>
80001e80:	4685                	li	a3,1
80001e82:	8656                	mv	a2,s5
80001e84:	85ca                	mv	a1,s2
80001e86:	8526                	mv	a0,s1
80001e88:	9982                	jalr	s3
80001e8a:	f16501e3          	beq	a0,s6,80001d8c <_printf_i+0x158>
80001e8e:	0a05                	addi	s4,s4,1
80001e90:	445c                	lw	a5,12(s0)
80001e92:	4732                	lw	a4,12(sp)
80001e94:	8f99                	sub	a5,a5,a4
80001e96:	fefa45e3          	blt	s4,a5,80001e80 <_printf_i+0x24c>
80001e9a:	bfe9                	j	80001e74 <_printf_i+0x240>
80001e9c:	4a01                	li	s4,0
80001e9e:	01940a93          	addi	s5,s0,25
80001ea2:	5b7d                	li	s6,-1
80001ea4:	b7f5                	j	80001e90 <_printf_i+0x25c>

80001ea6 <iprintf>:
printf():
80001ea6:	715d                	addi	sp,sp,-80
80001ea8:	d422                	sw	s0,40(sp)
80001eaa:	d606                	sw	ra,44(sp)
80001eac:	842a                	mv	s0,a0
80001eae:	da2e                	sw	a1,52(sp)
80001eb0:	dc32                	sw	a2,56(sp)
80001eb2:	de36                	sw	a3,60(sp)
80001eb4:	c0ba                	sw	a4,64(sp)
80001eb6:	c2be                	sw	a5,68(sp)
80001eb8:	c4c2                	sw	a6,72(sp)
80001eba:	c6c6                	sw	a7,76(sp)
80001ebc:	0fffe517          	auipc	a0,0xfffe
80001ec0:	31c52503          	lw	a0,796(a0) # 900001d8 <_impure_ptr>
80001ec4:	c519                	beqz	a0,80001ed2 <iprintf+0x2c>
80001ec6:	4d1c                	lw	a5,24(a0)
80001ec8:	e789                	bnez	a5,80001ed2 <iprintf+0x2c>
80001eca:	c62a                	sw	a0,12(sp)
80001ecc:	6bd000ef          	jal	ra,80002d88 <__sinit>
80001ed0:	4532                	lw	a0,12(sp)
80001ed2:	450c                	lw	a1,8(a0)
80001ed4:	1854                	addi	a3,sp,52
80001ed6:	8622                	mv	a2,s0
80001ed8:	ce36                	sw	a3,28(sp)
80001eda:	439010ef          	jal	ra,80003b12 <_vfiprintf_r>
80001ede:	50b2                	lw	ra,44(sp)
80001ee0:	5422                	lw	s0,40(sp)
80001ee2:	6161                	addi	sp,sp,80
80001ee4:	8082                	ret

80001ee6 <strlen>:
strlen():
80001ee6:	87aa                	mv	a5,a0
80001ee8:	0007c703          	lbu	a4,0(a5)
80001eec:	0785                	addi	a5,a5,1
80001eee:	ff6d                	bnez	a4,80001ee8 <strlen+0x2>
80001ef0:	40a78533          	sub	a0,a5,a0
80001ef4:	157d                	addi	a0,a0,-1
80001ef6:	8082                	ret

80001ef8 <isatty>:
isatty():
80001ef8:	f69fe06f          	j	80000e60 <_isatty>

80001efc <__register_exitproc>:
__register_exitproc():
80001efc:	88aa                	mv	a7,a0
80001efe:	8a818513          	addi	a0,gp,-1880 # 90000278 <_global_atexit>
80001f02:	411c                	lw	a5,0(a0)
80001f04:	ef91                	bnez	a5,80001f20 <__register_exitproc+0x24>
80001f06:	10001717          	auipc	a4,0x10001
80001f0a:	bee70713          	addi	a4,a4,-1042 # 90002af4 <_global_atexit0>
80001f0e:	c118                	sw	a4,0(a0)
80001f10:	00000513          	li	a0,0
80001f14:	87ba                	mv	a5,a4
80001f16:	c509                	beqz	a0,80001f20 <__register_exitproc+0x24>
80001f18:	411c                	lw	a5,0(a0)
80001f1a:	08f72423          	sw	a5,136(a4)
80001f1e:	87ba                	mv	a5,a4
80001f20:	43d8                	lw	a4,4(a5)
80001f22:	487d                	li	a6,31
80001f24:	557d                	li	a0,-1
80001f26:	04e84663          	blt	a6,a4,80001f72 <__register_exitproc+0x76>
80001f2a:	02088d63          	beqz	a7,80001f64 <__register_exitproc+0x68>
80001f2e:	0887a803          	lw	a6,136(a5)
80001f32:	04080063          	beqz	a6,80001f72 <__register_exitproc+0x76>
80001f36:	00271513          	slli	a0,a4,0x2
80001f3a:	9542                	add	a0,a0,a6
80001f3c:	c110                	sw	a2,0(a0)
80001f3e:	10082303          	lw	t1,256(a6)
80001f42:	4605                	li	a2,1
80001f44:	00e61633          	sll	a2,a2,a4
80001f48:	00c36333          	or	t1,t1,a2
80001f4c:	10682023          	sw	t1,256(a6)
80001f50:	08d52023          	sw	a3,128(a0)
80001f54:	4689                	li	a3,2
80001f56:	00d89763          	bne	a7,a3,80001f64 <__register_exitproc+0x68>
80001f5a:	10482683          	lw	a3,260(a6)
80001f5e:	8e55                	or	a2,a2,a3
80001f60:	10c82223          	sw	a2,260(a6)
80001f64:	00170693          	addi	a3,a4,1
80001f68:	070a                	slli	a4,a4,0x2
80001f6a:	c3d4                	sw	a3,4(a5)
80001f6c:	97ba                	add	a5,a5,a4
80001f6e:	c78c                	sw	a1,8(a5)
80001f70:	4501                	li	a0,0
80001f72:	8082                	ret

80001f74 <quorem>:
quorem():
80001f74:	1101                	addi	sp,sp,-32
80001f76:	cc22                	sw	s0,24(sp)
80001f78:	491c                	lw	a5,16(a0)
80001f7a:	4980                	lw	s0,16(a1)
80001f7c:	ce06                	sw	ra,28(sp)
80001f7e:	ca26                	sw	s1,20(sp)
80001f80:	c84a                	sw	s2,16(sp)
80001f82:	c64e                	sw	s3,12(sp)
80001f84:	c452                	sw	s4,8(sp)
80001f86:	c256                	sw	s5,4(sp)
80001f88:	1087ca63          	blt	a5,s0,8000209c <quorem+0x128>
80001f8c:	147d                	addi	s0,s0,-1
80001f8e:	00241613          	slli	a2,s0,0x2
80001f92:	01458a13          	addi	s4,a1,20
80001f96:	00ca0ab3          	add	s5,s4,a2
80001f9a:	01450993          	addi	s3,a0,20
80001f9e:	000aa783          	lw	a5,0(s5)
80001fa2:	964e                	add	a2,a2,s3
80001fa4:	4218                	lw	a4,0(a2)
80001fa6:	0785                	addi	a5,a5,1
80001fa8:	892a                	mv	s2,a0
80001faa:	02f754b3          	divu	s1,a4,a5
80001fae:	06f76263          	bltu	a4,a5,80002012 <quorem+0x9e>
80001fb2:	6541                	lui	a0,0x10
80001fb4:	8852                	mv	a6,s4
80001fb6:	88ce                	mv	a7,s3
80001fb8:	4301                	li	t1,0
80001fba:	4e01                	li	t3,0
80001fbc:	157d                	addi	a0,a0,-1
80001fbe:	00082683          	lw	a3,0(a6)
80001fc2:	0891                	addi	a7,a7,4
80001fc4:	0811                	addi	a6,a6,4
80001fc6:	00a6f7b3          	and	a5,a3,a0
80001fca:	82c1                	srli	a3,a3,0x10
80001fcc:	029787b3          	mul	a5,a5,s1
80001fd0:	029686b3          	mul	a3,a3,s1
80001fd4:	979a                	add	a5,a5,t1
80001fd6:	0107d713          	srli	a4,a5,0x10
80001fda:	8fe9                	and	a5,a5,a0
80001fdc:	40fe07b3          	sub	a5,t3,a5
80001fe0:	96ba                	add	a3,a3,a4
80001fe2:	ffc8a703          	lw	a4,-4(a7)
80001fe6:	0106d313          	srli	t1,a3,0x10
80001fea:	8ee9                	and	a3,a3,a0
80001fec:	00a77e33          	and	t3,a4,a0
80001ff0:	97f2                	add	a5,a5,t3
80001ff2:	8341                	srli	a4,a4,0x10
80001ff4:	8f15                	sub	a4,a4,a3
80001ff6:	4107d693          	srai	a3,a5,0x10
80001ffa:	9736                	add	a4,a4,a3
80001ffc:	41075e13          	srai	t3,a4,0x10
80002000:	8fe9                	and	a5,a5,a0
80002002:	0742                	slli	a4,a4,0x10
80002004:	8fd9                	or	a5,a5,a4
80002006:	fef8ae23          	sw	a5,-4(a7)
8000200a:	fb0afae3          	bgeu	s5,a6,80001fbe <quorem+0x4a>
8000200e:	421c                	lw	a5,0(a2)
80002010:	c7bd                	beqz	a5,8000207e <quorem+0x10a>
80002012:	854a                	mv	a0,s2
80002014:	674010ef          	jal	ra,80003688 <__mcmp>
80002018:	04054663          	bltz	a0,80002064 <quorem+0xf0>
8000201c:	66c1                	lui	a3,0x10
8000201e:	0485                	addi	s1,s1,1
80002020:	864e                	mv	a2,s3
80002022:	4581                	li	a1,0
80002024:	16fd                	addi	a3,a3,-1
80002026:	000a2503          	lw	a0,0(s4)
8000202a:	421c                	lw	a5,0(a2)
8000202c:	0611                	addi	a2,a2,4
8000202e:	00d57733          	and	a4,a0,a3
80002032:	8d99                	sub	a1,a1,a4
80002034:	00d7f733          	and	a4,a5,a3
80002038:	972e                	add	a4,a4,a1
8000203a:	83c1                	srli	a5,a5,0x10
8000203c:	8141                	srli	a0,a0,0x10
8000203e:	41075593          	srai	a1,a4,0x10
80002042:	8f89                	sub	a5,a5,a0
80002044:	97ae                	add	a5,a5,a1
80002046:	4107d593          	srai	a1,a5,0x10
8000204a:	8f75                	and	a4,a4,a3
8000204c:	07c2                	slli	a5,a5,0x10
8000204e:	8fd9                	or	a5,a5,a4
80002050:	0a11                	addi	s4,s4,4
80002052:	fef62e23          	sw	a5,-4(a2)
80002056:	fd4af8e3          	bgeu	s5,s4,80002026 <quorem+0xb2>
8000205a:	00241793          	slli	a5,s0,0x2
8000205e:	97ce                	add	a5,a5,s3
80002060:	4398                	lw	a4,0(a5)
80002062:	c71d                	beqz	a4,80002090 <quorem+0x11c>
80002064:	8526                	mv	a0,s1
80002066:	40f2                	lw	ra,28(sp)
80002068:	4462                	lw	s0,24(sp)
8000206a:	44d2                	lw	s1,20(sp)
8000206c:	4942                	lw	s2,16(sp)
8000206e:	49b2                	lw	s3,12(sp)
80002070:	4a22                	lw	s4,8(sp)
80002072:	4a92                	lw	s5,4(sp)
80002074:	6105                	addi	sp,sp,32
80002076:	8082                	ret
80002078:	421c                	lw	a5,0(a2)
8000207a:	e789                	bnez	a5,80002084 <quorem+0x110>
8000207c:	147d                	addi	s0,s0,-1
8000207e:	1671                	addi	a2,a2,-4
80002080:	fec9ece3          	bltu	s3,a2,80002078 <quorem+0x104>
80002084:	00892823          	sw	s0,16(s2)
80002088:	b769                	j	80002012 <quorem+0x9e>
8000208a:	4398                	lw	a4,0(a5)
8000208c:	e709                	bnez	a4,80002096 <quorem+0x122>
8000208e:	147d                	addi	s0,s0,-1
80002090:	17f1                	addi	a5,a5,-4
80002092:	fef9ece3          	bltu	s3,a5,8000208a <quorem+0x116>
80002096:	00892823          	sw	s0,16(s2)
8000209a:	b7e9                	j	80002064 <quorem+0xf0>
8000209c:	4501                	li	a0,0
8000209e:	b7e1                	j	80002066 <quorem+0xf2>

800020a0 <_dtoa_r>:
_dtoa_r():
800020a0:	7135                	addi	sp,sp,-160
800020a2:	dc3e                	sw	a5,56(sp)
800020a4:	515c                	lw	a5,36(a0)
800020a6:	cd22                	sw	s0,152(sp)
800020a8:	cb26                	sw	s1,148(sp)
800020aa:	c94a                	sw	s2,144(sp)
800020ac:	c74e                	sw	s3,140(sp)
800020ae:	c356                	sw	s5,132(sp)
800020b0:	c15a                	sw	s6,128(sp)
800020b2:	cf06                	sw	ra,156(sp)
800020b4:	c552                	sw	s4,136(sp)
800020b6:	dede                	sw	s7,124(sp)
800020b8:	dce2                	sw	s8,120(sp)
800020ba:	dae6                	sw	s9,116(sp)
800020bc:	d8ea                	sw	s10,112(sp)
800020be:	d6ee                	sw	s11,108(sp)
800020c0:	ca36                	sw	a3,20(sp)
800020c2:	d03a                	sw	a4,32(sp)
800020c4:	d246                	sw	a7,36(sp)
800020c6:	84aa                	mv	s1,a0
800020c8:	8aae                	mv	s5,a1
800020ca:	8432                	mv	s0,a2
800020cc:	8942                	mv	s2,a6
800020ce:	89ae                	mv	s3,a1
800020d0:	8b32                	mv	s6,a2
800020d2:	ef89                	bnez	a5,800020ec <_dtoa_r+0x4c>
800020d4:	4541                	li	a0,16
800020d6:	625000ef          	jal	ra,80002efa <malloc>
800020da:	d0c8                	sw	a0,36(s1)
800020dc:	00052223          	sw	zero,4(a0) # 10004 <dhry_stubs.c.c3a4eb6e+0xc429>
800020e0:	00052423          	sw	zero,8(a0)
800020e4:	00052023          	sw	zero,0(a0)
800020e8:	00052623          	sw	zero,12(a0)
800020ec:	50dc                	lw	a5,36(s1)
800020ee:	438c                	lw	a1,0(a5)
800020f0:	cd89                	beqz	a1,8000210a <_dtoa_r+0x6a>
800020f2:	43d8                	lw	a4,4(a5)
800020f4:	4785                	li	a5,1
800020f6:	8526                	mv	a0,s1
800020f8:	00e797b3          	sll	a5,a5,a4
800020fc:	c59c                	sw	a5,8(a1)
800020fe:	c1d8                	sw	a4,4(a1)
80002100:	068010ef          	jal	ra,80003168 <_Bfree>
80002104:	50dc                	lw	a5,36(s1)
80002106:	0007a023          	sw	zero,0(a5)
8000210a:	04045263          	bgez	s0,8000214e <_dtoa_r+0xae>
8000210e:	4785                	li	a5,1
80002110:	0406                	slli	s0,s0,0x1
80002112:	00f92023          	sw	a5,0(s2)
80002116:	00145b13          	srli	s6,s0,0x1
8000211a:	7ff007b7          	lui	a5,0x7ff00
8000211e:	00fb7733          	and	a4,s6,a5
80002122:	06f71463          	bne	a4,a5,8000218a <_dtoa_r+0xea>
80002126:	5762                	lw	a4,56(sp)
80002128:	6789                	lui	a5,0x2
8000212a:	0b32                	slli	s6,s6,0xc
8000212c:	70f78793          	addi	a5,a5,1807 # 270f <hbirdv2_uart.c.016069a0+0x1c9>
80002130:	00cb5b13          	srli	s6,s6,0xc
80002134:	c31c                	sw	a5,0(a4)
80002136:	015b6ab3          	or	s5,s6,s5
8000213a:	320a8fe3          	beqz	s5,80002c78 <_dtoa_r+0xbd8>
8000213e:	5792                	lw	a5,36(sp)
80002140:	eb91                	bnez	a5,80002154 <_dtoa_r+0xb4>
80002142:	00005797          	auipc	a5,0x5
80002146:	eca78793          	addi	a5,a5,-310 # 8000700c <__extendsfdf2+0x824>
8000214a:	c63e                	sw	a5,12(sp)
8000214c:	a839                	j	8000216a <_dtoa_r+0xca>
8000214e:	00092023          	sw	zero,0(s2)
80002152:	b7e1                	j	8000211a <_dtoa_r+0x7a>
80002154:	00005797          	auipc	a5,0x5
80002158:	eb878793          	addi	a5,a5,-328 # 8000700c <__extendsfdf2+0x824>
8000215c:	c63e                	sw	a5,12(sp)
8000215e:	00005797          	auipc	a5,0x5
80002162:	eb178793          	addi	a5,a5,-335 # 8000700f <__extendsfdf2+0x827>
80002166:	5712                	lw	a4,36(sp)
80002168:	c31c                	sw	a5,0(a4)
8000216a:	40fa                	lw	ra,156(sp)
8000216c:	446a                	lw	s0,152(sp)
8000216e:	4532                	lw	a0,12(sp)
80002170:	44da                	lw	s1,148(sp)
80002172:	494a                	lw	s2,144(sp)
80002174:	49ba                	lw	s3,140(sp)
80002176:	4a2a                	lw	s4,136(sp)
80002178:	4a9a                	lw	s5,132(sp)
8000217a:	4b0a                	lw	s6,128(sp)
8000217c:	5bf6                	lw	s7,124(sp)
8000217e:	5c66                	lw	s8,120(sp)
80002180:	5cd6                	lw	s9,116(sp)
80002182:	5d46                	lw	s10,112(sp)
80002184:	5db6                	lw	s11,108(sp)
80002186:	610d                	addi	sp,sp,160
80002188:	8082                	ret
8000218a:	4601                	li	a2,0
8000218c:	4681                	li	a3,0
8000218e:	8556                	mv	a0,s5
80002190:	85da                	mv	a1,s6
80002192:	d656                	sw	s5,44(sp)
80002194:	d85a                	sw	s6,48(sp)
80002196:	008030ef          	jal	ra,8000519e <__eqdf2>
8000219a:	e105                	bnez	a0,800021ba <_dtoa_r+0x11a>
8000219c:	5762                	lw	a4,56(sp)
8000219e:	4785                	li	a5,1
800021a0:	c31c                	sw	a5,0(a4)
800021a2:	00005797          	auipc	a5,0x5
800021a6:	dda78793          	addi	a5,a5,-550 # 80006f7c <__extendsfdf2+0x794>
800021aa:	c63e                	sw	a5,12(sp)
800021ac:	5792                	lw	a5,36(sp)
800021ae:	dfd5                	beqz	a5,8000216a <_dtoa_r+0xca>
800021b0:	00005797          	auipc	a5,0x5
800021b4:	dcd78793          	addi	a5,a5,-563 # 80006f7d <__extendsfdf2+0x795>
800021b8:	b77d                	j	80002166 <_dtoa_r+0xc6>
800021ba:	08b8                	addi	a4,sp,88
800021bc:	08f4                	addi	a3,sp,92
800021be:	865a                	mv	a2,s6
800021c0:	85d6                	mv	a1,s5
800021c2:	8526                	mv	a0,s1
800021c4:	014b5913          	srli	s2,s6,0x14
800021c8:	652010ef          	jal	ra,8000381a <__d2b>
800021cc:	7ff97913          	andi	s2,s2,2047
800021d0:	4a66                	lw	s4,88(sp)
800021d2:	842a                	mv	s0,a0
800021d4:	12090663          	beqz	s2,80002300 <_dtoa_r+0x260>
800021d8:	57c2                	lw	a5,48(sp)
800021da:	5532                	lw	a0,44(sp)
800021dc:	c0190913          	addi	s2,s2,-1023
800021e0:	00c79593          	slli	a1,a5,0xc
800021e4:	81b1                	srli	a1,a1,0xc
800021e6:	3ff007b7          	lui	a5,0x3ff00
800021ea:	8ddd                	or	a1,a1,a5
800021ec:	c082                	sw	zero,64(sp)
800021ee:	0fffe797          	auipc	a5,0xfffe
800021f2:	ffa78793          	addi	a5,a5,-6 # 900001e8 <_impure_ptr+0x10>
800021f6:	4390                	lw	a2,0(a5)
800021f8:	43d4                	lw	a3,4(a5)
800021fa:	59c030ef          	jal	ra,80005796 <__subdf3>
800021fe:	0fffe797          	auipc	a5,0xfffe
80002202:	ff278793          	addi	a5,a5,-14 # 900001f0 <_impure_ptr+0x18>
80002206:	4390                	lw	a2,0(a5)
80002208:	43d4                	lw	a3,4(a5)
8000220a:	14a030ef          	jal	ra,80005354 <__muldf3>
8000220e:	0fffe797          	auipc	a5,0xfffe
80002212:	fea78793          	addi	a5,a5,-22 # 900001f8 <_impure_ptr+0x20>
80002216:	4390                	lw	a2,0(a5)
80002218:	43d4                	lw	a3,4(a5)
8000221a:	43a020ef          	jal	ra,80004654 <__adddf3>
8000221e:	8baa                	mv	s7,a0
80002220:	854a                	mv	a0,s2
80002222:	8aae                	mv	s5,a1
80002224:	429030ef          	jal	ra,80005e4c <__floatsidf>
80002228:	0fffe797          	auipc	a5,0xfffe
8000222c:	fd878793          	addi	a5,a5,-40 # 90000200 <_impure_ptr+0x28>
80002230:	4390                	lw	a2,0(a5)
80002232:	43d4                	lw	a3,4(a5)
80002234:	120030ef          	jal	ra,80005354 <__muldf3>
80002238:	862a                	mv	a2,a0
8000223a:	86ae                	mv	a3,a1
8000223c:	855e                	mv	a0,s7
8000223e:	85d6                	mv	a1,s5
80002240:	414020ef          	jal	ra,80004654 <__adddf3>
80002244:	8baa                	mv	s7,a0
80002246:	8aae                	mv	s5,a1
80002248:	3a1030ef          	jal	ra,80005de8 <__fixdfsi>
8000224c:	8daa                	mv	s11,a0
8000224e:	4601                	li	a2,0
80002250:	4681                	li	a3,0
80002252:	855e                	mv	a0,s7
80002254:	85d6                	mv	a1,s5
80002256:	058030ef          	jal	ra,800052ae <__ledf2>
8000225a:	00055b63          	bgez	a0,80002270 <_dtoa_r+0x1d0>
8000225e:	856e                	mv	a0,s11
80002260:	3ed030ef          	jal	ra,80005e4c <__floatsidf>
80002264:	865e                	mv	a2,s7
80002266:	86d6                	mv	a3,s5
80002268:	737020ef          	jal	ra,8000519e <__eqdf2>
8000226c:	c111                	beqz	a0,80002270 <_dtoa_r+0x1d0>
8000226e:	1dfd                	addi	s11,s11,-1
80002270:	4705                	li	a4,1
80002272:	47d9                	li	a5,22
80002274:	da3a                	sw	a4,52(sp)
80002276:	03b7e363          	bltu	a5,s11,8000229c <_dtoa_r+0x1fc>
8000227a:	003d9713          	slli	a4,s11,0x3
8000227e:	00005797          	auipc	a5,0x5
80002282:	efa78793          	addi	a5,a5,-262 # 80007178 <__mprec_tens>
80002286:	97ba                	add	a5,a5,a4
80002288:	4390                	lw	a2,0(a5)
8000228a:	43d4                	lw	a3,4(a5)
8000228c:	5532                	lw	a0,44(sp)
8000228e:	55c2                	lw	a1,48(sp)
80002290:	01e030ef          	jal	ra,800052ae <__ledf2>
80002294:	00055363          	bgez	a0,8000229a <_dtoa_r+0x1fa>
80002298:	1dfd                	addi	s11,s11,-1
8000229a:	da02                	sw	zero,52(sp)
8000229c:	412a0933          	sub	s2,s4,s2
800022a0:	fff90c13          	addi	s8,s2,-1
800022a4:	4b81                	li	s7,0
800022a6:	000c5663          	bgez	s8,800022b2 <_dtoa_r+0x212>
800022aa:	4b85                	li	s7,1
800022ac:	412b8bb3          	sub	s7,s7,s2
800022b0:	4c01                	li	s8,0
800022b2:	080dc863          	bltz	s11,80002342 <_dtoa_r+0x2a2>
800022b6:	9c6e                	add	s8,s8,s11
800022b8:	d46e                	sw	s11,40(sp)
800022ba:	4c81                	li	s9,0
800022bc:	4752                	lw	a4,20(sp)
800022be:	47a5                	li	a5,9
800022c0:	0ee7ea63          	bltu	a5,a4,800023b4 <_dtoa_r+0x314>
800022c4:	4795                	li	a5,5
800022c6:	4905                	li	s2,1
800022c8:	00e7d663          	bge	a5,a4,800022d4 <_dtoa_r+0x234>
800022cc:	ffc70793          	addi	a5,a4,-4
800022d0:	ca3e                	sw	a5,20(sp)
800022d2:	4901                	li	s2,0
800022d4:	4752                	lw	a4,20(sp)
800022d6:	4791                	li	a5,4
800022d8:	06f70b63          	beq	a4,a5,8000234e <_dtoa_r+0x2ae>
800022dc:	4795                	li	a5,5
800022de:	0af70f63          	beq	a4,a5,8000239c <_dtoa_r+0x2fc>
800022e2:	4789                	li	a5,2
800022e4:	0af70a63          	beq	a4,a5,80002398 <_dtoa_r+0x2f8>
800022e8:	478d                	li	a5,3
800022ea:	ce02                	sw	zero,28(sp)
800022ec:	0af70a63          	beq	a4,a5,800023a0 <_dtoa_r+0x300>
800022f0:	4785                	li	a5,1
800022f2:	ce3e                	sw	a5,28(sp)
800022f4:	57fd                	li	a5,-1
800022f6:	c83e                	sw	a5,16(sp)
800022f8:	5d7d                	li	s10,-1
800022fa:	47c9                	li	a5,18
800022fc:	d002                	sw	zero,32(sp)
800022fe:	a095                	j	80002362 <_dtoa_r+0x2c2>
80002300:	4976                	lw	s2,92(sp)
80002302:	02000793          	li	a5,32
80002306:	9952                	add	s2,s2,s4
80002308:	43290593          	addi	a1,s2,1074
8000230c:	02b7d663          	bge	a5,a1,80002338 <_dtoa_r+0x298>
80002310:	04000513          	li	a0,64
80002314:	8d0d                	sub	a0,a0,a1
80002316:	41290593          	addi	a1,s2,1042
8000231a:	00ab1533          	sll	a0,s6,a0
8000231e:	00badab3          	srl	s5,s5,a1
80002322:	01556533          	or	a0,a0,s5
80002326:	38d030ef          	jal	ra,80005eb2 <__floatunsidf>
8000232a:	fe1007b7          	lui	a5,0xfe100
8000232e:	95be                	add	a1,a1,a5
80002330:	4785                	li	a5,1
80002332:	197d                	addi	s2,s2,-1
80002334:	c0be                	sw	a5,64(sp)
80002336:	bd65                	j	800021ee <_dtoa_r+0x14e>
80002338:	40b78533          	sub	a0,a5,a1
8000233c:	00aa9533          	sll	a0,s5,a0
80002340:	b7dd                	j	80002326 <_dtoa_r+0x286>
80002342:	41bb8bb3          	sub	s7,s7,s11
80002346:	41b00cb3          	neg	s9,s11
8000234a:	d402                	sw	zero,40(sp)
8000234c:	bf85                	j	800022bc <_dtoa_r+0x21c>
8000234e:	4785                	li	a5,1
80002350:	ce3e                	sw	a5,28(sp)
80002352:	5782                	lw	a5,32(sp)
80002354:	06f04363          	bgtz	a5,800023ba <_dtoa_r+0x31a>
80002358:	4785                	li	a5,1
8000235a:	4705                	li	a4,1
8000235c:	c83e                	sw	a5,16(sp)
8000235e:	4d05                	li	s10,1
80002360:	d03a                	sw	a4,32(sp)
80002362:	50d4                	lw	a3,36(s1)
80002364:	4711                	li	a4,4
80002366:	0006a223          	sw	zero,4(a3) # 10004 <dhry_stubs.c.c3a4eb6e+0xc429>
8000236a:	01470613          	addi	a2,a4,20
8000236e:	42cc                	lw	a1,4(a3)
80002370:	04c7f963          	bgeu	a5,a2,800023c2 <_dtoa_r+0x322>
80002374:	8526                	mv	a0,s1
80002376:	563000ef          	jal	ra,800030d8 <_Balloc>
8000237a:	c62a                	sw	a0,12(sp)
8000237c:	e539                	bnez	a0,800023ca <_dtoa_r+0x32a>
8000237e:	00005697          	auipc	a3,0x5
80002382:	c9268693          	addi	a3,a3,-878 # 80007010 <__extendsfdf2+0x828>
80002386:	4601                	li	a2,0
80002388:	1aa00593          	li	a1,426
8000238c:	00005517          	auipc	a0,0x5
80002390:	c9850513          	addi	a0,a0,-872 # 80007024 <__extendsfdf2+0x83c>
80002394:	637010ef          	jal	ra,800041ca <__assert_func>
80002398:	ce02                	sw	zero,28(sp)
8000239a:	bf65                	j	80002352 <_dtoa_r+0x2b2>
8000239c:	4785                	li	a5,1
8000239e:	ce3e                	sw	a5,28(sp)
800023a0:	5782                	lw	a5,32(sp)
800023a2:	97ee                	add	a5,a5,s11
800023a4:	c83e                	sw	a5,16(sp)
800023a6:	00178d13          	addi	s10,a5,1 # fe100001 <_sp+0x6e0f0001>
800023aa:	87ea                	mv	a5,s10
800023ac:	fba04be3          	bgtz	s10,80002362 <_dtoa_r+0x2c2>
800023b0:	4785                	li	a5,1
800023b2:	bf45                	j	80002362 <_dtoa_r+0x2c2>
800023b4:	4905                	li	s2,1
800023b6:	ca02                	sw	zero,20(sp)
800023b8:	bf25                	j	800022f0 <_dtoa_r+0x250>
800023ba:	5782                	lw	a5,32(sp)
800023bc:	c83e                	sw	a5,16(sp)
800023be:	8d3e                	mv	s10,a5
800023c0:	b74d                	j	80002362 <_dtoa_r+0x2c2>
800023c2:	0585                	addi	a1,a1,1
800023c4:	c2cc                	sw	a1,4(a3)
800023c6:	0706                	slli	a4,a4,0x1
800023c8:	b74d                	j	8000236a <_dtoa_r+0x2ca>
800023ca:	50dc                	lw	a5,36(s1)
800023cc:	4732                	lw	a4,12(sp)
800023ce:	c398                	sw	a4,0(a5)
800023d0:	47b9                	li	a5,14
800023d2:	13a7e763          	bltu	a5,s10,80002500 <_dtoa_r+0x460>
800023d6:	12090563          	beqz	s2,80002500 <_dtoa_r+0x460>
800023da:	1bb05963          	blez	s11,8000258c <_dtoa_r+0x4ec>
800023de:	00fdf713          	andi	a4,s11,15
800023e2:	00371793          	slli	a5,a4,0x3
800023e6:	00005717          	auipc	a4,0x5
800023ea:	d9270713          	addi	a4,a4,-622 # 80007178 <__mprec_tens>
800023ee:	973e                	add	a4,a4,a5
800023f0:	404dd913          	srai	s2,s11,0x4
800023f4:	431c                	lw	a5,0(a4)
800023f6:	00472a83          	lw	s5,4(a4)
800023fa:	01097713          	andi	a4,s2,16
800023fe:	4a09                	li	s4,2
80002400:	c315                	beqz	a4,80002424 <_dtoa_r+0x384>
80002402:	00005717          	auipc	a4,0x5
80002406:	d4e70713          	addi	a4,a4,-690 # 80007150 <__mprec_bigtens>
8000240a:	5310                	lw	a2,32(a4)
8000240c:	5354                	lw	a3,36(a4)
8000240e:	5532                	lw	a0,44(sp)
80002410:	55c2                	lw	a1,48(sp)
80002412:	cc3e                	sw	a5,24(sp)
80002414:	00f97913          	andi	s2,s2,15
80002418:	047020ef          	jal	ra,80004c5e <__divdf3>
8000241c:	47e2                	lw	a5,24(sp)
8000241e:	89aa                	mv	s3,a0
80002420:	8b2e                	mv	s6,a1
80002422:	4a0d                	li	s4,3
80002424:	00005717          	auipc	a4,0x5
80002428:	d2c70713          	addi	a4,a4,-724 # 80007150 <__mprec_bigtens>
8000242c:	12091e63          	bnez	s2,80002568 <_dtoa_r+0x4c8>
80002430:	854e                	mv	a0,s3
80002432:	863e                	mv	a2,a5
80002434:	86d6                	mv	a3,s5
80002436:	85da                	mv	a1,s6
80002438:	027020ef          	jal	ra,80004c5e <__divdf3>
8000243c:	89aa                	mv	s3,a0
8000243e:	8b2e                	mv	s6,a1
80002440:	57d2                	lw	a5,52(sp)
80002442:	1a078a63          	beqz	a5,800025f6 <_dtoa_r+0x556>
80002446:	0fffe797          	auipc	a5,0xfffe
8000244a:	dc278793          	addi	a5,a5,-574 # 90000208 <_impure_ptr+0x30>
8000244e:	4390                	lw	a2,0(a5)
80002450:	43d4                	lw	a3,4(a5)
80002452:	854e                	mv	a0,s3
80002454:	85da                	mv	a1,s6
80002456:	659020ef          	jal	ra,800052ae <__ledf2>
8000245a:	18055e63          	bgez	a0,800025f6 <_dtoa_r+0x556>
8000245e:	180d0f63          	beqz	s10,800025fc <_dtoa_r+0x55c>
80002462:	47c2                	lw	a5,16(sp)
80002464:	08f05c63          	blez	a5,800024fc <_dtoa_r+0x45c>
80002468:	fffd8793          	addi	a5,s11,-1
8000246c:	cc3e                	sw	a5,24(sp)
8000246e:	0fffe797          	auipc	a5,0xfffe
80002472:	da278793          	addi	a5,a5,-606 # 90000210 <_impure_ptr+0x38>
80002476:	4390                	lw	a2,0(a5)
80002478:	43d4                	lw	a3,4(a5)
8000247a:	854e                	mv	a0,s3
8000247c:	85da                	mv	a1,s6
8000247e:	6d7020ef          	jal	ra,80005354 <__muldf3>
80002482:	47c2                	lw	a5,16(sp)
80002484:	89aa                	mv	s3,a0
80002486:	8b2e                	mv	s6,a1
80002488:	0a05                	addi	s4,s4,1
8000248a:	8552                	mv	a0,s4
8000248c:	c4be                	sw	a5,72(sp)
8000248e:	c2ce                	sw	s3,68(sp)
80002490:	de5a                	sw	s6,60(sp)
80002492:	1bb030ef          	jal	ra,80005e4c <__floatsidf>
80002496:	864e                	mv	a2,s3
80002498:	86da                	mv	a3,s6
8000249a:	6bb020ef          	jal	ra,80005354 <__muldf3>
8000249e:	0fffe697          	auipc	a3,0xfffe
800024a2:	d7a68693          	addi	a3,a3,-646 # 90000218 <_impure_ptr+0x40>
800024a6:	4290                	lw	a2,0(a3)
800024a8:	42d4                	lw	a3,4(a3)
800024aa:	8ace                	mv	s5,s3
800024ac:	fcc009b7          	lui	s3,0xfcc00
800024b0:	1a4020ef          	jal	ra,80004654 <__adddf3>
800024b4:	47a6                	lw	a5,72(sp)
800024b6:	895a                	mv	s2,s6
800024b8:	8a2a                	mv	s4,a0
800024ba:	99ae                	add	s3,s3,a1
800024bc:	14079363          	bnez	a5,80002602 <_dtoa_r+0x562>
800024c0:	0fffe797          	auipc	a5,0xfffe
800024c4:	d6078793          	addi	a5,a5,-672 # 90000220 <_impure_ptr+0x48>
800024c8:	4390                	lw	a2,0(a5)
800024ca:	43d4                	lw	a3,4(a5)
800024cc:	8556                	mv	a0,s5
800024ce:	85da                	mv	a1,s6
800024d0:	2c6030ef          	jal	ra,80005796 <__subdf3>
800024d4:	8652                	mv	a2,s4
800024d6:	86ce                	mv	a3,s3
800024d8:	8aaa                	mv	s5,a0
800024da:	892e                	mv	s2,a1
800024dc:	52d020ef          	jal	ra,80005208 <__gedf2>
800024e0:	5aa04963          	bgtz	a0,80002a92 <_dtoa_r+0x9f2>
800024e4:	800007b7          	lui	a5,0x80000
800024e8:	0137c7b3          	xor	a5,a5,s3
800024ec:	8652                	mv	a2,s4
800024ee:	86be                	mv	a3,a5
800024f0:	8556                	mv	a0,s5
800024f2:	85ca                	mv	a1,s2
800024f4:	5bb020ef          	jal	ra,800052ae <__ledf2>
800024f8:	58054a63          	bltz	a0,80002a8c <_dtoa_r+0x9ec>
800024fc:	59b2                	lw	s3,44(sp)
800024fe:	5b42                	lw	s6,48(sp)
80002500:	47f6                	lw	a5,92(sp)
80002502:	3607c663          	bltz	a5,8000286e <_dtoa_r+0x7ce>
80002506:	4739                	li	a4,14
80002508:	37b74363          	blt	a4,s11,8000286e <_dtoa_r+0x7ce>
8000250c:	003d9713          	slli	a4,s11,0x3
80002510:	00005797          	auipc	a5,0x5
80002514:	c6878793          	addi	a5,a5,-920 # 80007178 <__mprec_tens>
80002518:	97ba                	add	a5,a5,a4
8000251a:	0007aa03          	lw	s4,0(a5)
8000251e:	0047aa83          	lw	s5,4(a5)
80002522:	5782                	lw	a5,32(sp)
80002524:	2407df63          	bgez	a5,80002782 <_dtoa_r+0x6e2>
80002528:	25a04d63          	bgtz	s10,80002782 <_dtoa_r+0x6e2>
8000252c:	560d1063          	bnez	s10,80002a8c <_dtoa_r+0x9ec>
80002530:	0fffe797          	auipc	a5,0xfffe
80002534:	cf078793          	addi	a5,a5,-784 # 90000220 <_impure_ptr+0x48>
80002538:	4390                	lw	a2,0(a5)
8000253a:	43d4                	lw	a3,4(a5)
8000253c:	8552                	mv	a0,s4
8000253e:	85d6                	mv	a1,s5
80002540:	615020ef          	jal	ra,80005354 <__muldf3>
80002544:	864e                	mv	a2,s3
80002546:	86da                	mv	a3,s6
80002548:	4c1020ef          	jal	ra,80005208 <__gedf2>
8000254c:	4a01                	li	s4,0
8000254e:	4901                	li	s2,0
80002550:	50055663          	bgez	a0,80002a5c <_dtoa_r+0x9bc>
80002554:	47b2                	lw	a5,12(sp)
80002556:	4732                	lw	a4,12(sp)
80002558:	0d85                	addi	s11,s11,1
8000255a:	00178993          	addi	s3,a5,1
8000255e:	03100793          	li	a5,49
80002562:	00f70023          	sb	a5,0(a4)
80002566:	a9fd                	j	80002a64 <_dtoa_r+0x9c4>
80002568:	00197693          	andi	a3,s2,1
8000256c:	ce81                	beqz	a3,80002584 <_dtoa_r+0x4e4>
8000256e:	4310                	lw	a2,0(a4)
80002570:	4354                	lw	a3,4(a4)
80002572:	853e                	mv	a0,a5
80002574:	85d6                	mv	a1,s5
80002576:	cc3a                	sw	a4,24(sp)
80002578:	5dd020ef          	jal	ra,80005354 <__muldf3>
8000257c:	4762                	lw	a4,24(sp)
8000257e:	0a05                	addi	s4,s4,1
80002580:	87aa                	mv	a5,a0
80002582:	8aae                	mv	s5,a1
80002584:	40195913          	srai	s2,s2,0x1
80002588:	0721                	addi	a4,a4,8
8000258a:	b54d                	j	8000242c <_dtoa_r+0x38c>
8000258c:	4a09                	li	s4,2
8000258e:	ea0d89e3          	beqz	s11,80002440 <_dtoa_r+0x3a0>
80002592:	41b00933          	neg	s2,s11
80002596:	00f97793          	andi	a5,s2,15
8000259a:	00379713          	slli	a4,a5,0x3
8000259e:	00005797          	auipc	a5,0x5
800025a2:	bda78793          	addi	a5,a5,-1062 # 80007178 <__mprec_tens>
800025a6:	97ba                	add	a5,a5,a4
800025a8:	4390                	lw	a2,0(a5)
800025aa:	43d4                	lw	a3,4(a5)
800025ac:	5532                	lw	a0,44(sp)
800025ae:	55c2                	lw	a1,48(sp)
800025b0:	40495913          	srai	s2,s2,0x4
800025b4:	00005a97          	auipc	s5,0x5
800025b8:	b9ca8a93          	addi	s5,s5,-1124 # 80007150 <__mprec_bigtens>
800025bc:	599020ef          	jal	ra,80005354 <__muldf3>
800025c0:	87aa                	mv	a5,a0
800025c2:	89aa                	mv	s3,a0
800025c4:	8b2e                	mv	s6,a1
800025c6:	4701                	li	a4,0
800025c8:	00091663          	bnez	s2,800025d4 <_dtoa_r+0x534>
800025cc:	e6070ae3          	beqz	a4,80002440 <_dtoa_r+0x3a0>
800025d0:	89be                	mv	s3,a5
800025d2:	b5b5                	j	8000243e <_dtoa_r+0x39e>
800025d4:	00197693          	andi	a3,s2,1
800025d8:	ca99                	beqz	a3,800025ee <_dtoa_r+0x54e>
800025da:	000aa603          	lw	a2,0(s5)
800025de:	004aa683          	lw	a3,4(s5)
800025e2:	853e                	mv	a0,a5
800025e4:	0a05                	addi	s4,s4,1
800025e6:	56f020ef          	jal	ra,80005354 <__muldf3>
800025ea:	87aa                	mv	a5,a0
800025ec:	4705                	li	a4,1
800025ee:	40195913          	srai	s2,s2,0x1
800025f2:	0aa1                	addi	s5,s5,8
800025f4:	bfd1                	j	800025c8 <_dtoa_r+0x528>
800025f6:	cc6e                	sw	s11,24(sp)
800025f8:	87ea                	mv	a5,s10
800025fa:	bd41                	j	8000248a <_dtoa_r+0x3ea>
800025fc:	cc6e                	sw	s11,24(sp)
800025fe:	4781                	li	a5,0
80002600:	b569                	j	8000248a <_dtoa_r+0x3ea>
80002602:	45b2                	lw	a1,12(sp)
80002604:	fff78693          	addi	a3,a5,-1
80002608:	00369613          	slli	a2,a3,0x3
8000260c:	97ae                	add	a5,a5,a1
8000260e:	de3e                	sw	a5,60(sp)
80002610:	47f2                	lw	a5,28(sp)
80002612:	00005697          	auipc	a3,0x5
80002616:	b6668693          	addi	a3,a3,-1178 # 80007178 <__mprec_tens>
8000261a:	96b2                	add	a3,a3,a2
8000261c:	4290                	lw	a2,0(a3)
8000261e:	42d4                	lw	a3,4(a3)
80002620:	cbc5                	beqz	a5,800026d0 <_dtoa_r+0x630>
80002622:	0fffe797          	auipc	a5,0xfffe
80002626:	c0678793          	addi	a5,a5,-1018 # 90000228 <_impure_ptr+0x50>
8000262a:	4388                	lw	a0,0(a5)
8000262c:	43cc                	lw	a1,4(a5)
8000262e:	c2d2                	sw	s4,68(sp)
80002630:	62e020ef          	jal	ra,80004c5e <__divdf3>
80002634:	8652                	mv	a2,s4
80002636:	86ce                	mv	a3,s3
80002638:	15e030ef          	jal	ra,80005796 <__subdf3>
8000263c:	49b2                	lw	s3,12(sp)
8000263e:	8a2a                	mv	s4,a0
80002640:	8b2e                	mv	s6,a1
80002642:	85ca                	mv	a1,s2
80002644:	8556                	mv	a0,s5
80002646:	7a2030ef          	jal	ra,80005de8 <__fixdfsi>
8000264a:	c2aa                	sw	a0,68(sp)
8000264c:	001030ef          	jal	ra,80005e4c <__floatsidf>
80002650:	862a                	mv	a2,a0
80002652:	86ae                	mv	a3,a1
80002654:	8556                	mv	a0,s5
80002656:	85ca                	mv	a1,s2
80002658:	13e030ef          	jal	ra,80005796 <__subdf3>
8000265c:	4796                	lw	a5,68(sp)
8000265e:	0985                	addi	s3,s3,1
80002660:	8652                	mv	a2,s4
80002662:	03078793          	addi	a5,a5,48
80002666:	fef98fa3          	sb	a5,-1(s3) # fcbfffff <_sp+0x6cbeffff>
8000266a:	86da                	mv	a3,s6
8000266c:	892a                	mv	s2,a0
8000266e:	8aae                	mv	s5,a1
80002670:	43f020ef          	jal	ra,800052ae <__ledf2>
80002674:	0e054a63          	bltz	a0,80002768 <_dtoa_r+0x6c8>
80002678:	0fffe797          	auipc	a5,0xfffe
8000267c:	b9078793          	addi	a5,a5,-1136 # 90000208 <_impure_ptr+0x30>
80002680:	4388                	lw	a0,0(a5)
80002682:	43cc                	lw	a1,4(a5)
80002684:	864a                	mv	a2,s2
80002686:	86d6                	mv	a3,s5
80002688:	10e030ef          	jal	ra,80005796 <__subdf3>
8000268c:	8652                	mv	a2,s4
8000268e:	86da                	mv	a3,s6
80002690:	41f020ef          	jal	ra,800052ae <__ledf2>
80002694:	18054563          	bltz	a0,8000281e <_dtoa_r+0x77e>
80002698:	57f2                	lw	a5,60(sp)
8000269a:	e6f981e3          	beq	s3,a5,800024fc <_dtoa_r+0x45c>
8000269e:	0fffe797          	auipc	a5,0xfffe
800026a2:	b7278793          	addi	a5,a5,-1166 # 90000210 <_impure_ptr+0x38>
800026a6:	4390                	lw	a2,0(a5)
800026a8:	43d4                	lw	a3,4(a5)
800026aa:	8552                	mv	a0,s4
800026ac:	85da                	mv	a1,s6
800026ae:	4a7020ef          	jal	ra,80005354 <__muldf3>
800026b2:	0fffe797          	auipc	a5,0xfffe
800026b6:	b5e78793          	addi	a5,a5,-1186 # 90000210 <_impure_ptr+0x38>
800026ba:	4390                	lw	a2,0(a5)
800026bc:	43d4                	lw	a3,4(a5)
800026be:	8a2a                	mv	s4,a0
800026c0:	8b2e                	mv	s6,a1
800026c2:	854a                	mv	a0,s2
800026c4:	85d6                	mv	a1,s5
800026c6:	48f020ef          	jal	ra,80005354 <__muldf3>
800026ca:	8aaa                	mv	s5,a0
800026cc:	892e                	mv	s2,a1
800026ce:	bf95                	j	80002642 <_dtoa_r+0x5a2>
800026d0:	85ce                	mv	a1,s3
800026d2:	8552                	mv	a0,s4
800026d4:	481020ef          	jal	ra,80005354 <__muldf3>
800026d8:	5b72                	lw	s6,60(sp)
800026da:	49b2                	lw	s3,12(sp)
800026dc:	c2aa                	sw	a0,68(sp)
800026de:	c4ae                	sw	a1,72(sp)
800026e0:	85ca                	mv	a1,s2
800026e2:	8556                	mv	a0,s5
800026e4:	704030ef          	jal	ra,80005de8 <__fixdfsi>
800026e8:	c6aa                	sw	a0,76(sp)
800026ea:	762030ef          	jal	ra,80005e4c <__floatsidf>
800026ee:	862a                	mv	a2,a0
800026f0:	86ae                	mv	a3,a1
800026f2:	8556                	mv	a0,s5
800026f4:	85ca                	mv	a1,s2
800026f6:	0a0030ef          	jal	ra,80005796 <__subdf3>
800026fa:	47b6                	lw	a5,76(sp)
800026fc:	0985                	addi	s3,s3,1
800026fe:	8a2a                	mv	s4,a0
80002700:	03078793          	addi	a5,a5,48
80002704:	fef98fa3          	sb	a5,-1(s3)
80002708:	57f2                	lw	a5,60(sp)
8000270a:	892e                	mv	s2,a1
8000270c:	06f99063          	bne	s3,a5,8000276c <_dtoa_r+0x6cc>
80002710:	0fffea97          	auipc	s5,0xfffe
80002714:	b18a8a93          	addi	s5,s5,-1256 # 90000228 <_impure_ptr+0x50>
80002718:	000aa603          	lw	a2,0(s5)
8000271c:	004aa683          	lw	a3,4(s5)
80002720:	4516                	lw	a0,68(sp)
80002722:	45a6                	lw	a1,72(sp)
80002724:	731010ef          	jal	ra,80004654 <__adddf3>
80002728:	862a                	mv	a2,a0
8000272a:	86ae                	mv	a3,a1
8000272c:	8552                	mv	a0,s4
8000272e:	85ca                	mv	a1,s2
80002730:	2d9020ef          	jal	ra,80005208 <__gedf2>
80002734:	0ea04563          	bgtz	a0,8000281e <_dtoa_r+0x77e>
80002738:	4616                	lw	a2,68(sp)
8000273a:	46a6                	lw	a3,72(sp)
8000273c:	000aa503          	lw	a0,0(s5)
80002740:	004aa583          	lw	a1,4(s5)
80002744:	052030ef          	jal	ra,80005796 <__subdf3>
80002748:	862a                	mv	a2,a0
8000274a:	86ae                	mv	a3,a1
8000274c:	8552                	mv	a0,s4
8000274e:	85ca                	mv	a1,s2
80002750:	35f020ef          	jal	ra,800052ae <__ledf2>
80002754:	da0554e3          	bgez	a0,800024fc <_dtoa_r+0x45c>
80002758:	03000793          	li	a5,48
8000275c:	89da                	mv	s3,s6
8000275e:	fff9c703          	lbu	a4,-1(s3)
80002762:	1b7d                	addi	s6,s6,-1
80002764:	fef70ce3          	beq	a4,a5,8000275c <_dtoa_r+0x6bc>
80002768:	4de2                	lw	s11,24(sp)
8000276a:	a849                	j	800027fc <_dtoa_r+0x75c>
8000276c:	0fffe797          	auipc	a5,0xfffe
80002770:	aa478793          	addi	a5,a5,-1372 # 90000210 <_impure_ptr+0x38>
80002774:	4390                	lw	a2,0(a5)
80002776:	43d4                	lw	a3,4(a5)
80002778:	3dd020ef          	jal	ra,80005354 <__muldf3>
8000277c:	8aaa                	mv	s5,a0
8000277e:	892e                	mv	s2,a1
80002780:	b785                	j	800026e0 <_dtoa_r+0x640>
80002782:	47b2                	lw	a5,12(sp)
80002784:	8c5a                	mv	s8,s6
80002786:	8cce                	mv	s9,s3
80002788:	00178b13          	addi	s6,a5,1
8000278c:	9d3e                	add	s10,s10,a5
8000278e:	0fffeb97          	auipc	s7,0xfffe
80002792:	a82b8b93          	addi	s7,s7,-1406 # 90000210 <_impure_ptr+0x38>
80002796:	8652                	mv	a2,s4
80002798:	86d6                	mv	a3,s5
8000279a:	8566                	mv	a0,s9
8000279c:	85e2                	mv	a1,s8
8000279e:	4c0020ef          	jal	ra,80004c5e <__divdf3>
800027a2:	646030ef          	jal	ra,80005de8 <__fixdfsi>
800027a6:	892a                	mv	s2,a0
800027a8:	6a4030ef          	jal	ra,80005e4c <__floatsidf>
800027ac:	8652                	mv	a2,s4
800027ae:	86d6                	mv	a3,s5
800027b0:	3a5020ef          	jal	ra,80005354 <__muldf3>
800027b4:	86ae                	mv	a3,a1
800027b6:	862a                	mv	a2,a0
800027b8:	85e2                	mv	a1,s8
800027ba:	8566                	mv	a0,s9
800027bc:	7db020ef          	jal	ra,80005796 <__subdf3>
800027c0:	03090693          	addi	a3,s2,48
800027c4:	fedb0fa3          	sb	a3,-1(s6)
800027c8:	89da                	mv	s3,s6
800027ca:	096d1363          	bne	s10,s6,80002850 <_dtoa_r+0x7b0>
800027ce:	862a                	mv	a2,a0
800027d0:	86ae                	mv	a3,a1
800027d2:	683010ef          	jal	ra,80004654 <__adddf3>
800027d6:	8652                	mv	a2,s4
800027d8:	86d6                	mv	a3,s5
800027da:	8baa                	mv	s7,a0
800027dc:	8b2e                	mv	s6,a1
800027de:	22b020ef          	jal	ra,80005208 <__gedf2>
800027e2:	02a04d63          	bgtz	a0,8000281c <_dtoa_r+0x77c>
800027e6:	8652                	mv	a2,s4
800027e8:	86d6                	mv	a3,s5
800027ea:	855e                	mv	a0,s7
800027ec:	85da                	mv	a1,s6
800027ee:	1b1020ef          	jal	ra,8000519e <__eqdf2>
800027f2:	e509                	bnez	a0,800027fc <_dtoa_r+0x75c>
800027f4:	00197913          	andi	s2,s2,1
800027f8:	02091263          	bnez	s2,8000281c <_dtoa_r+0x77c>
800027fc:	8526                	mv	a0,s1
800027fe:	85a2                	mv	a1,s0
80002800:	169000ef          	jal	ra,80003168 <_Bfree>
80002804:	57e2                	lw	a5,56(sp)
80002806:	00098023          	sb	zero,0(s3)
8000280a:	001d8513          	addi	a0,s11,1
8000280e:	c388                	sw	a0,0(a5)
80002810:	5792                	lw	a5,36(sp)
80002812:	94078ce3          	beqz	a5,8000216a <_dtoa_r+0xca>
80002816:	0137a023          	sw	s3,0(a5)
8000281a:	ba81                	j	8000216a <_dtoa_r+0xca>
8000281c:	cc6e                	sw	s11,24(sp)
8000281e:	87ce                	mv	a5,s3
80002820:	03900713          	li	a4,57
80002824:	89be                	mv	s3,a5
80002826:	fff7c683          	lbu	a3,-1(a5)
8000282a:	17fd                	addi	a5,a5,-1
8000282c:	00e69c63          	bne	a3,a4,80002844 <_dtoa_r+0x7a4>
80002830:	46b2                	lw	a3,12(sp)
80002832:	fef699e3          	bne	a3,a5,80002824 <_dtoa_r+0x784>
80002836:	4762                	lw	a4,24(sp)
80002838:	0705                	addi	a4,a4,1
8000283a:	cc3a                	sw	a4,24(sp)
8000283c:	03000713          	li	a4,48
80002840:	00e68023          	sb	a4,0(a3)
80002844:	0007c703          	lbu	a4,0(a5)
80002848:	0705                	addi	a4,a4,1
8000284a:	00e78023          	sb	a4,0(a5)
8000284e:	bf29                	j	80002768 <_dtoa_r+0x6c8>
80002850:	000ba603          	lw	a2,0(s7)
80002854:	004ba683          	lw	a3,4(s7)
80002858:	0b05                	addi	s6,s6,1
8000285a:	2fb020ef          	jal	ra,80005354 <__muldf3>
8000285e:	4601                	li	a2,0
80002860:	4681                	li	a3,0
80002862:	8caa                	mv	s9,a0
80002864:	8c2e                	mv	s8,a1
80002866:	139020ef          	jal	ra,8000519e <__eqdf2>
8000286a:	f515                	bnez	a0,80002796 <_dtoa_r+0x6f6>
8000286c:	bf41                	j	800027fc <_dtoa_r+0x75c>
8000286e:	4772                	lw	a4,28(sp)
80002870:	10070063          	beqz	a4,80002970 <_dtoa_r+0x8d0>
80002874:	46d2                	lw	a3,20(sp)
80002876:	4705                	li	a4,1
80002878:	0cd74563          	blt	a4,a3,80002942 <_dtoa_r+0x8a2>
8000287c:	4706                	lw	a4,64(sp)
8000287e:	43378793          	addi	a5,a5,1075
80002882:	e709                	bnez	a4,8000288c <_dtoa_r+0x7ec>
80002884:	4766                	lw	a4,88(sp)
80002886:	03600793          	li	a5,54
8000288a:	8f99                	sub	a5,a5,a4
8000288c:	8a66                	mv	s4,s9
8000288e:	8ade                	mv	s5,s7
80002890:	4585                	li	a1,1
80002892:	8526                	mv	a0,s1
80002894:	9bbe                	add	s7,s7,a5
80002896:	9c3e                	add	s8,s8,a5
80002898:	281000ef          	jal	ra,80003318 <__i2b>
8000289c:	892a                	mv	s2,a0
8000289e:	01505e63          	blez	s5,800028ba <_dtoa_r+0x81a>
800028a2:	01805c63          	blez	s8,800028ba <_dtoa_r+0x81a>
800028a6:	87d6                	mv	a5,s5
800028a8:	015c5363          	bge	s8,s5,800028ae <_dtoa_r+0x80e>
800028ac:	87e2                	mv	a5,s8
800028ae:	40fb8bb3          	sub	s7,s7,a5
800028b2:	40fa8ab3          	sub	s5,s5,a5
800028b6:	40fc0c33          	sub	s8,s8,a5
800028ba:	040c8163          	beqz	s9,800028fc <_dtoa_r+0x85c>
800028be:	47f2                	lw	a5,28(sp)
800028c0:	cfc5                	beqz	a5,80002978 <_dtoa_r+0x8d8>
800028c2:	03405463          	blez	s4,800028ea <_dtoa_r+0x84a>
800028c6:	85ca                	mv	a1,s2
800028c8:	8652                	mv	a2,s4
800028ca:	8526                	mv	a0,s1
800028cc:	401000ef          	jal	ra,800034cc <__pow5mult>
800028d0:	8622                	mv	a2,s0
800028d2:	85aa                	mv	a1,a0
800028d4:	892a                	mv	s2,a0
800028d6:	8526                	mv	a0,s1
800028d8:	277000ef          	jal	ra,8000334e <__multiply>
800028dc:	cc2a                	sw	a0,24(sp)
800028de:	85a2                	mv	a1,s0
800028e0:	8526                	mv	a0,s1
800028e2:	087000ef          	jal	ra,80003168 <_Bfree>
800028e6:	47e2                	lw	a5,24(sp)
800028e8:	843e                	mv	s0,a5
800028ea:	414c8633          	sub	a2,s9,s4
800028ee:	014c8763          	beq	s9,s4,800028fc <_dtoa_r+0x85c>
800028f2:	85a2                	mv	a1,s0
800028f4:	8526                	mv	a0,s1
800028f6:	3d7000ef          	jal	ra,800034cc <__pow5mult>
800028fa:	842a                	mv	s0,a0
800028fc:	4585                	li	a1,1
800028fe:	8526                	mv	a0,s1
80002900:	219000ef          	jal	ra,80003318 <__i2b>
80002904:	57a2                	lw	a5,40(sp)
80002906:	8a2a                	mv	s4,a0
80002908:	06f05a63          	blez	a5,8000297c <_dtoa_r+0x8dc>
8000290c:	863e                	mv	a2,a5
8000290e:	85aa                	mv	a1,a0
80002910:	8526                	mv	a0,s1
80002912:	3bb000ef          	jal	ra,800034cc <__pow5mult>
80002916:	4752                	lw	a4,20(sp)
80002918:	4785                	li	a5,1
8000291a:	8a2a                	mv	s4,a0
8000291c:	4c81                	li	s9,0
8000291e:	06e7c763          	blt	a5,a4,8000298c <_dtoa_r+0x8ec>
80002922:	4c81                	li	s9,0
80002924:	06099163          	bnez	s3,80002986 <_dtoa_r+0x8e6>
80002928:	00cb1793          	slli	a5,s6,0xc
8000292c:	efa9                	bnez	a5,80002986 <_dtoa_r+0x8e6>
8000292e:	7ff005b7          	lui	a1,0x7ff00
80002932:	00bb7b33          	and	s6,s6,a1
80002936:	040b0863          	beqz	s6,80002986 <_dtoa_r+0x8e6>
8000293a:	0b85                	addi	s7,s7,1
8000293c:	0c05                	addi	s8,s8,1
8000293e:	4c85                	li	s9,1
80002940:	a099                	j	80002986 <_dtoa_r+0x8e6>
80002942:	fffd0a13          	addi	s4,s10,-1
80002946:	014cca63          	blt	s9,s4,8000295a <_dtoa_r+0x8ba>
8000294a:	414c8a33          	sub	s4,s9,s4
8000294e:	000d5e63          	bgez	s10,8000296a <_dtoa_r+0x8ca>
80002952:	41ab8ab3          	sub	s5,s7,s10
80002956:	4781                	li	a5,0
80002958:	bf25                	j	80002890 <_dtoa_r+0x7f0>
8000295a:	57a2                	lw	a5,40(sp)
8000295c:	419a0cb3          	sub	s9,s4,s9
80002960:	97e6                	add	a5,a5,s9
80002962:	d43e                	sw	a5,40(sp)
80002964:	8cd2                	mv	s9,s4
80002966:	4a01                	li	s4,0
80002968:	b7dd                	j	8000294e <_dtoa_r+0x8ae>
8000296a:	8ade                	mv	s5,s7
8000296c:	87ea                	mv	a5,s10
8000296e:	b70d                	j	80002890 <_dtoa_r+0x7f0>
80002970:	8a66                	mv	s4,s9
80002972:	8ade                	mv	s5,s7
80002974:	4901                	li	s2,0
80002976:	b725                	j	8000289e <_dtoa_r+0x7fe>
80002978:	8666                	mv	a2,s9
8000297a:	bfa5                	j	800028f2 <_dtoa_r+0x852>
8000297c:	4752                	lw	a4,20(sp)
8000297e:	4785                	li	a5,1
80002980:	4c81                	li	s9,0
80002982:	fae7d0e3          	bge	a5,a4,80002922 <_dtoa_r+0x882>
80002986:	57a2                	lw	a5,40(sp)
80002988:	4505                	li	a0,1
8000298a:	cf89                	beqz	a5,800029a4 <_dtoa_r+0x904>
8000298c:	010a2783          	lw	a5,16(s4)
80002990:	078d                	addi	a5,a5,3
80002992:	078a                	slli	a5,a5,0x2
80002994:	97d2                	add	a5,a5,s4
80002996:	43c8                	lw	a0,4(a5)
80002998:	0d1000ef          	jal	ra,80003268 <__hi0bits>
8000299c:	02000793          	li	a5,32
800029a0:	40a78533          	sub	a0,a5,a0
800029a4:	9562                	add	a0,a0,s8
800029a6:	897d                	andi	a0,a0,31
800029a8:	c151                	beqz	a0,80002a2c <_dtoa_r+0x98c>
800029aa:	02000793          	li	a5,32
800029ae:	8f89                	sub	a5,a5,a0
800029b0:	4711                	li	a4,4
800029b2:	06f75a63          	bge	a4,a5,80002a26 <_dtoa_r+0x986>
800029b6:	47f1                	li	a5,28
800029b8:	40a78533          	sub	a0,a5,a0
800029bc:	9baa                	add	s7,s7,a0
800029be:	9aaa                	add	s5,s5,a0
800029c0:	9c2a                	add	s8,s8,a0
800029c2:	01705863          	blez	s7,800029d2 <_dtoa_r+0x932>
800029c6:	85a2                	mv	a1,s0
800029c8:	865e                	mv	a2,s7
800029ca:	8526                	mv	a0,s1
800029cc:	3b9000ef          	jal	ra,80003584 <__lshift>
800029d0:	842a                	mv	s0,a0
800029d2:	01805863          	blez	s8,800029e2 <_dtoa_r+0x942>
800029d6:	85d2                	mv	a1,s4
800029d8:	8662                	mv	a2,s8
800029da:	8526                	mv	a0,s1
800029dc:	3a9000ef          	jal	ra,80003584 <__lshift>
800029e0:	8a2a                	mv	s4,a0
800029e2:	57d2                	lw	a5,52(sp)
800029e4:	c7b1                	beqz	a5,80002a30 <_dtoa_r+0x990>
800029e6:	85d2                	mv	a1,s4
800029e8:	8522                	mv	a0,s0
800029ea:	49f000ef          	jal	ra,80003688 <__mcmp>
800029ee:	04055163          	bgez	a0,80002a30 <_dtoa_r+0x990>
800029f2:	85a2                	mv	a1,s0
800029f4:	4681                	li	a3,0
800029f6:	4629                	li	a2,10
800029f8:	8526                	mv	a0,s1
800029fa:	7b2000ef          	jal	ra,800031ac <__multadd>
800029fe:	47f2                	lw	a5,28(sp)
80002a00:	1dfd                	addi	s11,s11,-1
80002a02:	842a                	mv	s0,a0
80002a04:	28078863          	beqz	a5,80002c94 <_dtoa_r+0xbf4>
80002a08:	85ca                	mv	a1,s2
80002a0a:	4681                	li	a3,0
80002a0c:	4629                	li	a2,10
80002a0e:	8526                	mv	a0,s1
80002a10:	79c000ef          	jal	ra,800031ac <__multadd>
80002a14:	47c2                	lw	a5,16(sp)
80002a16:	892a                	mv	s2,a0
80002a18:	08f04563          	bgtz	a5,80002aa2 <_dtoa_r+0xa02>
80002a1c:	4752                	lw	a4,20(sp)
80002a1e:	4789                	li	a5,2
80002a20:	00e7cf63          	blt	a5,a4,80002a3e <_dtoa_r+0x99e>
80002a24:	a8bd                	j	80002aa2 <_dtoa_r+0xa02>
80002a26:	f8e78ee3          	beq	a5,a4,800029c2 <_dtoa_r+0x922>
80002a2a:	853e                	mv	a0,a5
80002a2c:	0571                	addi	a0,a0,28
80002a2e:	b779                	j	800029bc <_dtoa_r+0x91c>
80002a30:	07a04563          	bgtz	s10,80002a9a <_dtoa_r+0x9fa>
80002a34:	4752                	lw	a4,20(sp)
80002a36:	4789                	li	a5,2
80002a38:	06e7d163          	bge	a5,a4,80002a9a <_dtoa_r+0x9fa>
80002a3c:	c86a                	sw	s10,16(sp)
80002a3e:	47c2                	lw	a5,16(sp)
80002a40:	ef91                	bnez	a5,80002a5c <_dtoa_r+0x9bc>
80002a42:	85d2                	mv	a1,s4
80002a44:	4681                	li	a3,0
80002a46:	4615                	li	a2,5
80002a48:	8526                	mv	a0,s1
80002a4a:	762000ef          	jal	ra,800031ac <__multadd>
80002a4e:	8a2a                	mv	s4,a0
80002a50:	85aa                	mv	a1,a0
80002a52:	8522                	mv	a0,s0
80002a54:	435000ef          	jal	ra,80003688 <__mcmp>
80002a58:	aea04ee3          	bgtz	a0,80002554 <_dtoa_r+0x4b4>
80002a5c:	5782                	lw	a5,32(sp)
80002a5e:	49b2                	lw	s3,12(sp)
80002a60:	fff7cd93          	not	s11,a5
80002a64:	4b01                	li	s6,0
80002a66:	85d2                	mv	a1,s4
80002a68:	8526                	mv	a0,s1
80002a6a:	6fe000ef          	jal	ra,80003168 <_Bfree>
80002a6e:	d80907e3          	beqz	s2,800027fc <_dtoa_r+0x75c>
80002a72:	000b0863          	beqz	s6,80002a82 <_dtoa_r+0x9e2>
80002a76:	012b0663          	beq	s6,s2,80002a82 <_dtoa_r+0x9e2>
80002a7a:	85da                	mv	a1,s6
80002a7c:	8526                	mv	a0,s1
80002a7e:	6ea000ef          	jal	ra,80003168 <_Bfree>
80002a82:	85ca                	mv	a1,s2
80002a84:	8526                	mv	a0,s1
80002a86:	6e2000ef          	jal	ra,80003168 <_Bfree>
80002a8a:	bb8d                	j	800027fc <_dtoa_r+0x75c>
80002a8c:	4a01                	li	s4,0
80002a8e:	4901                	li	s2,0
80002a90:	b7f1                	j	80002a5c <_dtoa_r+0x9bc>
80002a92:	4de2                	lw	s11,24(sp)
80002a94:	4a01                	li	s4,0
80002a96:	4901                	li	s2,0
80002a98:	bc75                	j	80002554 <_dtoa_r+0x4b4>
80002a9a:	47f2                	lw	a5,28(sp)
80002a9c:	c86a                	sw	s10,16(sp)
80002a9e:	20078263          	beqz	a5,80002ca2 <_dtoa_r+0xc02>
80002aa2:	01505863          	blez	s5,80002ab2 <_dtoa_r+0xa12>
80002aa6:	85ca                	mv	a1,s2
80002aa8:	8656                	mv	a2,s5
80002aaa:	8526                	mv	a0,s1
80002aac:	2d9000ef          	jal	ra,80003584 <__lshift>
80002ab0:	892a                	mv	s2,a0
80002ab2:	854a                	mv	a0,s2
80002ab4:	020c8f63          	beqz	s9,80002af2 <_dtoa_r+0xa52>
80002ab8:	00492583          	lw	a1,4(s2)
80002abc:	8526                	mv	a0,s1
80002abe:	61a000ef          	jal	ra,800030d8 <_Balloc>
80002ac2:	8aaa                	mv	s5,a0
80002ac4:	e911                	bnez	a0,80002ad8 <_dtoa_r+0xa38>
80002ac6:	00004697          	auipc	a3,0x4
80002aca:	54a68693          	addi	a3,a3,1354 # 80007010 <__extendsfdf2+0x828>
80002ace:	4601                	li	a2,0
80002ad0:	2ea00593          	li	a1,746
80002ad4:	8b9ff06f          	j	8000238c <_dtoa_r+0x2ec>
80002ad8:	01092603          	lw	a2,16(s2)
80002adc:	00c90593          	addi	a1,s2,12
80002ae0:	0531                	addi	a0,a0,12
80002ae2:	0609                	addi	a2,a2,2
80002ae4:	060a                	slli	a2,a2,0x2
80002ae6:	299d                	jal	80002f5c <memcpy>
80002ae8:	4605                	li	a2,1
80002aea:	85d6                	mv	a1,s5
80002aec:	8526                	mv	a0,s1
80002aee:	297000ef          	jal	ra,80003584 <__lshift>
80002af2:	47b2                	lw	a5,12(sp)
80002af4:	4742                	lw	a4,16(sp)
80002af6:	8b4a                	mv	s6,s2
80002af8:	00178c13          	addi	s8,a5,1
80002afc:	97ba                	add	a5,a5,a4
80002afe:	cc3e                	sw	a5,24(sp)
80002b00:	0019f793          	andi	a5,s3,1
80002b04:	892a                	mv	s2,a0
80002b06:	c83e                	sw	a5,16(sp)
80002b08:	85d2                	mv	a1,s4
80002b0a:	8522                	mv	a0,s0
80002b0c:	c68ff0ef          	jal	ra,80001f74 <quorem>
80002b10:	85da                	mv	a1,s6
80002b12:	8caa                	mv	s9,a0
80002b14:	03050a93          	addi	s5,a0,48
80002b18:	8522                	mv	a0,s0
80002b1a:	36f000ef          	jal	ra,80003688 <__mcmp>
80002b1e:	85d2                	mv	a1,s4
80002b20:	8baa                	mv	s7,a0
80002b22:	864a                	mv	a2,s2
80002b24:	8526                	mv	a0,s1
80002b26:	399000ef          	jal	ra,800036be <__mdiff>
80002b2a:	4554                	lw	a3,12(a0)
80002b2c:	fffc0d13          	addi	s10,s8,-1
80002b30:	85aa                	mv	a1,a0
80002b32:	4705                	li	a4,1
80002b34:	e699                	bnez	a3,80002b42 <_dtoa_r+0xaa2>
80002b36:	ce2a                	sw	a0,28(sp)
80002b38:	8522                	mv	a0,s0
80002b3a:	34f000ef          	jal	ra,80003688 <__mcmp>
80002b3e:	45f2                	lw	a1,28(sp)
80002b40:	872a                	mv	a4,a0
80002b42:	8526                	mv	a0,s1
80002b44:	ce3a                	sw	a4,28(sp)
80002b46:	622000ef          	jal	ra,80003168 <_Bfree>
80002b4a:	47d2                	lw	a5,20(sp)
80002b4c:	4772                	lw	a4,28(sp)
80002b4e:	89e2                	mv	s3,s8
80002b50:	00e7e6b3          	or	a3,a5,a4
80002b54:	47c2                	lw	a5,16(sp)
80002b56:	8edd                	or	a3,a3,a5
80002b58:	ee81                	bnez	a3,80002b70 <_dtoa_r+0xad0>
80002b5a:	03900713          	li	a4,57
80002b5e:	04ea8863          	beq	s5,a4,80002bae <_dtoa_r+0xb0e>
80002b62:	01705463          	blez	s7,80002b6a <_dtoa_r+0xaca>
80002b66:	031c8a93          	addi	s5,s9,49
80002b6a:	015d0023          	sb	s5,0(s10)
80002b6e:	bde5                	j	80002a66 <_dtoa_r+0x9c6>
80002b70:	000bca63          	bltz	s7,80002b84 <_dtoa_r+0xae4>
80002b74:	47d2                	lw	a5,20(sp)
80002b76:	0177ebb3          	or	s7,a5,s7
80002b7a:	47c2                	lw	a5,16(sp)
80002b7c:	00fbebb3          	or	s7,s7,a5
80002b80:	040b9863          	bnez	s7,80002bd0 <_dtoa_r+0xb30>
80002b84:	fee053e3          	blez	a4,80002b6a <_dtoa_r+0xaca>
80002b88:	85a2                	mv	a1,s0
80002b8a:	4605                	li	a2,1
80002b8c:	8526                	mv	a0,s1
80002b8e:	1f7000ef          	jal	ra,80003584 <__lshift>
80002b92:	85d2                	mv	a1,s4
80002b94:	842a                	mv	s0,a0
80002b96:	2f3000ef          	jal	ra,80003688 <__mcmp>
80002b9a:	00a04663          	bgtz	a0,80002ba6 <_dtoa_r+0xb06>
80002b9e:	f571                	bnez	a0,80002b6a <_dtoa_r+0xaca>
80002ba0:	001af713          	andi	a4,s5,1
80002ba4:	d379                	beqz	a4,80002b6a <_dtoa_r+0xaca>
80002ba6:	03900713          	li	a4,57
80002baa:	faea9ee3          	bne	s5,a4,80002b66 <_dtoa_r+0xac6>
80002bae:	03900793          	li	a5,57
80002bb2:	00fd0023          	sb	a5,0(s10)
80002bb6:	87ce                	mv	a5,s3
80002bb8:	03900693          	li	a3,57
80002bbc:	89be                	mv	s3,a5
80002bbe:	fff9c703          	lbu	a4,-1(s3)
80002bc2:	17fd                	addi	a5,a5,-1
80002bc4:	0ad70163          	beq	a4,a3,80002c66 <_dtoa_r+0xbc6>
80002bc8:	0705                	addi	a4,a4,1
80002bca:	00e78023          	sb	a4,0(a5)
80002bce:	bd61                	j	80002a66 <_dtoa_r+0x9c6>
80002bd0:	00e05b63          	blez	a4,80002be6 <_dtoa_r+0xb46>
80002bd4:	03900713          	li	a4,57
80002bd8:	fcea8be3          	beq	s5,a4,80002bae <_dtoa_r+0xb0e>
80002bdc:	001a8793          	addi	a5,s5,1
80002be0:	00fd0023          	sb	a5,0(s10)
80002be4:	b549                	j	80002a66 <_dtoa_r+0x9c6>
80002be6:	47e2                	lw	a5,24(sp)
80002be8:	ff5c0fa3          	sb	s5,-1(s8)
80002bec:	05878463          	beq	a5,s8,80002c34 <_dtoa_r+0xb94>
80002bf0:	85a2                	mv	a1,s0
80002bf2:	4681                	li	a3,0
80002bf4:	4629                	li	a2,10
80002bf6:	8526                	mv	a0,s1
80002bf8:	2b55                	jal	800031ac <__multadd>
80002bfa:	842a                	mv	s0,a0
80002bfc:	4681                	li	a3,0
80002bfe:	4629                	li	a2,10
80002c00:	85da                	mv	a1,s6
80002c02:	8526                	mv	a0,s1
80002c04:	012b1763          	bne	s6,s2,80002c12 <_dtoa_r+0xb72>
80002c08:	2355                	jal	800031ac <__multadd>
80002c0a:	8b2a                	mv	s6,a0
80002c0c:	892a                	mv	s2,a0
80002c0e:	0c05                	addi	s8,s8,1
80002c10:	bde5                	j	80002b08 <_dtoa_r+0xa68>
80002c12:	2b69                	jal	800031ac <__multadd>
80002c14:	85ca                	mv	a1,s2
80002c16:	8b2a                	mv	s6,a0
80002c18:	4681                	li	a3,0
80002c1a:	4629                	li	a2,10
80002c1c:	8526                	mv	a0,s1
80002c1e:	2379                	jal	800031ac <__multadd>
80002c20:	892a                	mv	s2,a0
80002c22:	b7f5                	j	80002c0e <_dtoa_r+0xb6e>
80002c24:	47c2                	lw	a5,16(sp)
80002c26:	4985                	li	s3,1
80002c28:	00f05363          	blez	a5,80002c2e <_dtoa_r+0xb8e>
80002c2c:	89be                	mv	s3,a5
80002c2e:	47b2                	lw	a5,12(sp)
80002c30:	4b01                	li	s6,0
80002c32:	99be                	add	s3,s3,a5
80002c34:	85a2                	mv	a1,s0
80002c36:	4605                	li	a2,1
80002c38:	8526                	mv	a0,s1
80002c3a:	14b000ef          	jal	ra,80003584 <__lshift>
80002c3e:	85d2                	mv	a1,s4
80002c40:	842a                	mv	s0,a0
80002c42:	247000ef          	jal	ra,80003688 <__mcmp>
80002c46:	f6a048e3          	bgtz	a0,80002bb6 <_dtoa_r+0xb16>
80002c4a:	e501                	bnez	a0,80002c52 <_dtoa_r+0xbb2>
80002c4c:	001af793          	andi	a5,s5,1
80002c50:	f3bd                	bnez	a5,80002bb6 <_dtoa_r+0xb16>
80002c52:	87ce                	mv	a5,s3
80002c54:	03000713          	li	a4,48
80002c58:	89be                	mv	s3,a5
80002c5a:	fff7c683          	lbu	a3,-1(a5)
80002c5e:	17fd                	addi	a5,a5,-1
80002c60:	fee68ce3          	beq	a3,a4,80002c58 <_dtoa_r+0xbb8>
80002c64:	b509                	j	80002a66 <_dtoa_r+0x9c6>
80002c66:	4732                	lw	a4,12(sp)
80002c68:	f4f71ae3          	bne	a4,a5,80002bbc <_dtoa_r+0xb1c>
80002c6c:	03100793          	li	a5,49
80002c70:	0d85                	addi	s11,s11,1
80002c72:	00f70023          	sb	a5,0(a4)
80002c76:	bbc5                	j	80002a66 <_dtoa_r+0x9c6>
80002c78:	5712                	lw	a4,36(sp)
80002c7a:	00004797          	auipc	a5,0x4
80002c7e:	38678793          	addi	a5,a5,902 # 80007000 <__extendsfdf2+0x818>
80002c82:	c63e                	sw	a5,12(sp)
80002c84:	00004797          	auipc	a5,0x4
80002c88:	38478793          	addi	a5,a5,900 # 80007008 <__extendsfdf2+0x820>
80002c8c:	cc071d63          	bnez	a4,80002166 <_dtoa_r+0xc6>
80002c90:	cdaff06f          	j	8000216a <_dtoa_r+0xca>
80002c94:	47c2                	lw	a5,16(sp)
80002c96:	00f04663          	bgtz	a5,80002ca2 <_dtoa_r+0xc02>
80002c9a:	4752                	lw	a4,20(sp)
80002c9c:	4789                	li	a5,2
80002c9e:	dae7c0e3          	blt	a5,a4,80002a3e <_dtoa_r+0x99e>
80002ca2:	4981                	li	s3,0
80002ca4:	85d2                	mv	a1,s4
80002ca6:	8522                	mv	a0,s0
80002ca8:	accff0ef          	jal	ra,80001f74 <quorem>
80002cac:	47b2                	lw	a5,12(sp)
80002cae:	03050a93          	addi	s5,a0,48
80002cb2:	01378733          	add	a4,a5,s3
80002cb6:	47c2                	lw	a5,16(sp)
80002cb8:	01570023          	sb	s5,0(a4)
80002cbc:	0985                	addi	s3,s3,1
80002cbe:	f6f9d3e3          	bge	s3,a5,80002c24 <_dtoa_r+0xb84>
80002cc2:	85a2                	mv	a1,s0
80002cc4:	4681                	li	a3,0
80002cc6:	4629                	li	a2,10
80002cc8:	8526                	mv	a0,s1
80002cca:	21cd                	jal	800031ac <__multadd>
80002ccc:	842a                	mv	s0,a0
80002cce:	bfd9                	j	80002ca4 <_dtoa_r+0xc04>

80002cd0 <std>:
std():
80002cd0:	1141                	addi	sp,sp,-16
80002cd2:	c422                	sw	s0,8(sp)
80002cd4:	c606                	sw	ra,12(sp)
80002cd6:	842a                	mv	s0,a0
80002cd8:	00b51623          	sh	a1,12(a0)
80002cdc:	00c51723          	sh	a2,14(a0)
80002ce0:	00052023          	sw	zero,0(a0)
80002ce4:	00052223          	sw	zero,4(a0)
80002ce8:	00052423          	sw	zero,8(a0)
80002cec:	06052223          	sw	zero,100(a0)
80002cf0:	00052823          	sw	zero,16(a0)
80002cf4:	00052a23          	sw	zero,20(a0)
80002cf8:	00052c23          	sw	zero,24(a0)
80002cfc:	4621                	li	a2,8
80002cfe:	4581                	li	a1,0
80002d00:	05c50513          	addi	a0,a0,92
80002d04:	2635                	jal	80003030 <memset>
80002d06:	00001797          	auipc	a5,0x1
80002d0a:	0d078793          	addi	a5,a5,208 # 80003dd6 <__sread>
80002d0e:	d05c                	sw	a5,36(s0)
80002d10:	00001797          	auipc	a5,0x1
80002d14:	0f678793          	addi	a5,a5,246 # 80003e06 <__swrite>
80002d18:	d41c                	sw	a5,40(s0)
80002d1a:	00001797          	auipc	a5,0x1
80002d1e:	13a78793          	addi	a5,a5,314 # 80003e54 <__sseek>
80002d22:	d45c                	sw	a5,44(s0)
80002d24:	00001797          	auipc	a5,0x1
80002d28:	16678793          	addi	a5,a5,358 # 80003e8a <__sclose>
80002d2c:	40b2                	lw	ra,12(sp)
80002d2e:	d000                	sw	s0,32(s0)
80002d30:	d81c                	sw	a5,48(s0)
80002d32:	4422                	lw	s0,8(sp)
80002d34:	0141                	addi	sp,sp,16
80002d36:	8082                	ret

80002d38 <_cleanup_r>:
_cleanup_r():
80002d38:	00001597          	auipc	a1,0x1
80002d3c:	63c58593          	addi	a1,a1,1596 # 80004374 <_fflush_r>
80002d40:	a299                	j	80002e86 <_fwalk_reent>

80002d42 <__sfmoreglue>:
__sfmoreglue():
80002d42:	1141                	addi	sp,sp,-16
80002d44:	c226                	sw	s1,4(sp)
80002d46:	06800613          	li	a2,104
80002d4a:	fff58493          	addi	s1,a1,-1
80002d4e:	02c484b3          	mul	s1,s1,a2
80002d52:	c04a                	sw	s2,0(sp)
80002d54:	892e                	mv	s2,a1
80002d56:	c422                	sw	s0,8(sp)
80002d58:	c606                	sw	ra,12(sp)
80002d5a:	07448593          	addi	a1,s1,116
80002d5e:	475000ef          	jal	ra,800039d2 <_malloc_r>
80002d62:	842a                	mv	s0,a0
80002d64:	c919                	beqz	a0,80002d7a <__sfmoreglue+0x38>
80002d66:	00052023          	sw	zero,0(a0)
80002d6a:	01252223          	sw	s2,4(a0)
80002d6e:	0531                	addi	a0,a0,12
80002d70:	c408                	sw	a0,8(s0)
80002d72:	06848613          	addi	a2,s1,104
80002d76:	4581                	li	a1,0
80002d78:	2c65                	jal	80003030 <memset>
80002d7a:	40b2                	lw	ra,12(sp)
80002d7c:	8522                	mv	a0,s0
80002d7e:	4422                	lw	s0,8(sp)
80002d80:	4492                	lw	s1,4(sp)
80002d82:	4902                	lw	s2,0(sp)
80002d84:	0141                	addi	sp,sp,16
80002d86:	8082                	ret

80002d88 <__sinit>:
__sinit():
80002d88:	4d1c                	lw	a5,24(a0)
80002d8a:	e3ad                	bnez	a5,80002dec <__sinit+0x64>
80002d8c:	1141                	addi	sp,sp,-16
80002d8e:	c422                	sw	s0,8(sp)
80002d90:	c606                	sw	ra,12(sp)
80002d92:	00000797          	auipc	a5,0x0
80002d96:	fa678793          	addi	a5,a5,-90 # 80002d38 <_cleanup_r>
80002d9a:	d51c                	sw	a5,40(a0)
80002d9c:	04052423          	sw	zero,72(a0)
80002da0:	04052623          	sw	zero,76(a0)
80002da4:	04052823          	sw	zero,80(a0)
80002da8:	86c1a783          	lw	a5,-1940(gp) # 9000023c <_global_impure_ptr>
80002dac:	842a                	mv	s0,a0
80002dae:	00f51463          	bne	a0,a5,80002db6 <__sinit+0x2e>
80002db2:	4785                	li	a5,1
80002db4:	cd1c                	sw	a5,24(a0)
80002db6:	8522                	mv	a0,s0
80002db8:	281d                	jal	80002dee <__sfp>
80002dba:	c048                	sw	a0,4(s0)
80002dbc:	8522                	mv	a0,s0
80002dbe:	2805                	jal	80002dee <__sfp>
80002dc0:	c408                	sw	a0,8(s0)
80002dc2:	8522                	mv	a0,s0
80002dc4:	202d                	jal	80002dee <__sfp>
80002dc6:	c448                	sw	a0,12(s0)
80002dc8:	4048                	lw	a0,4(s0)
80002dca:	4601                	li	a2,0
80002dcc:	4591                	li	a1,4
80002dce:	3709                	jal	80002cd0 <std>
80002dd0:	4408                	lw	a0,8(s0)
80002dd2:	4605                	li	a2,1
80002dd4:	45a5                	li	a1,9
80002dd6:	3ded                	jal	80002cd0 <std>
80002dd8:	4448                	lw	a0,12(s0)
80002dda:	4609                	li	a2,2
80002ddc:	45c9                	li	a1,18
80002dde:	3dcd                	jal	80002cd0 <std>
80002de0:	4785                	li	a5,1
80002de2:	40b2                	lw	ra,12(sp)
80002de4:	cc1c                	sw	a5,24(s0)
80002de6:	4422                	lw	s0,8(sp)
80002de8:	0141                	addi	sp,sp,16
80002dea:	8082                	ret
80002dec:	8082                	ret

80002dee <__sfp>:
__sfp():
80002dee:	1141                	addi	sp,sp,-16
80002df0:	c226                	sw	s1,4(sp)
80002df2:	86c1a483          	lw	s1,-1940(gp) # 9000023c <_global_impure_ptr>
80002df6:	4c9c                	lw	a5,24(s1)
80002df8:	c04a                	sw	s2,0(sp)
80002dfa:	c606                	sw	ra,12(sp)
80002dfc:	c422                	sw	s0,8(sp)
80002dfe:	892a                	mv	s2,a0
80002e00:	e399                	bnez	a5,80002e06 <__sfp+0x18>
80002e02:	8526                	mv	a0,s1
80002e04:	3751                	jal	80002d88 <__sinit>
80002e06:	04848493          	addi	s1,s1,72
80002e0a:	4480                	lw	s0,8(s1)
80002e0c:	40dc                	lw	a5,4(s1)
80002e0e:	17fd                	addi	a5,a5,-1
80002e10:	0007d663          	bgez	a5,80002e1c <__sfp+0x2e>
80002e14:	409c                	lw	a5,0(s1)
80002e16:	cfb1                	beqz	a5,80002e72 <__sfp+0x84>
80002e18:	4084                	lw	s1,0(s1)
80002e1a:	bfc5                	j	80002e0a <__sfp+0x1c>
80002e1c:	00c41703          	lh	a4,12(s0)
80002e20:	e731                	bnez	a4,80002e6c <__sfp+0x7e>
80002e22:	77c1                	lui	a5,0xffff0
80002e24:	0785                	addi	a5,a5,1
80002e26:	06042223          	sw	zero,100(s0)
80002e2a:	00042023          	sw	zero,0(s0)
80002e2e:	00042223          	sw	zero,4(s0)
80002e32:	00042423          	sw	zero,8(s0)
80002e36:	c45c                	sw	a5,12(s0)
80002e38:	00042823          	sw	zero,16(s0)
80002e3c:	00042a23          	sw	zero,20(s0)
80002e40:	00042c23          	sw	zero,24(s0)
80002e44:	4621                	li	a2,8
80002e46:	4581                	li	a1,0
80002e48:	05c40513          	addi	a0,s0,92
80002e4c:	22d5                	jal	80003030 <memset>
80002e4e:	02042a23          	sw	zero,52(s0)
80002e52:	02042c23          	sw	zero,56(s0)
80002e56:	04042423          	sw	zero,72(s0)
80002e5a:	04042623          	sw	zero,76(s0)
80002e5e:	40b2                	lw	ra,12(sp)
80002e60:	8522                	mv	a0,s0
80002e62:	4422                	lw	s0,8(sp)
80002e64:	4492                	lw	s1,4(sp)
80002e66:	4902                	lw	s2,0(sp)
80002e68:	0141                	addi	sp,sp,16
80002e6a:	8082                	ret
80002e6c:	06840413          	addi	s0,s0,104
80002e70:	bf79                	j	80002e0e <__sfp+0x20>
80002e72:	4591                	li	a1,4
80002e74:	854a                	mv	a0,s2
80002e76:	35f1                	jal	80002d42 <__sfmoreglue>
80002e78:	c088                	sw	a0,0(s1)
80002e7a:	842a                	mv	s0,a0
80002e7c:	fd51                	bnez	a0,80002e18 <__sfp+0x2a>
80002e7e:	47b1                	li	a5,12
80002e80:	00f92023          	sw	a5,0(s2)
80002e84:	bfe9                	j	80002e5e <__sfp+0x70>

80002e86 <_fwalk_reent>:
_fwalk_reent():
80002e86:	7179                	addi	sp,sp,-48
80002e88:	d422                	sw	s0,40(sp)
80002e8a:	d04a                	sw	s2,32(sp)
80002e8c:	ce4e                	sw	s3,28(sp)
80002e8e:	cc52                	sw	s4,24(sp)
80002e90:	c85a                	sw	s6,16(sp)
80002e92:	c65e                	sw	s7,12(sp)
80002e94:	d606                	sw	ra,44(sp)
80002e96:	d226                	sw	s1,36(sp)
80002e98:	ca56                	sw	s5,20(sp)
80002e9a:	892a                	mv	s2,a0
80002e9c:	8a2e                	mv	s4,a1
80002e9e:	04850413          	addi	s0,a0,72
80002ea2:	4981                	li	s3,0
80002ea4:	4b05                	li	s6,1
80002ea6:	5bfd                	li	s7,-1
80002ea8:	4404                	lw	s1,8(s0)
80002eaa:	00442a83          	lw	s5,4(s0)
80002eae:	1afd                	addi	s5,s5,-1
80002eb0:	020ad063          	bgez	s5,80002ed0 <_fwalk_reent+0x4a>
80002eb4:	4000                	lw	s0,0(s0)
80002eb6:	f86d                	bnez	s0,80002ea8 <_fwalk_reent+0x22>
80002eb8:	50b2                	lw	ra,44(sp)
80002eba:	5422                	lw	s0,40(sp)
80002ebc:	5492                	lw	s1,36(sp)
80002ebe:	5902                	lw	s2,32(sp)
80002ec0:	4a62                	lw	s4,24(sp)
80002ec2:	4ad2                	lw	s5,20(sp)
80002ec4:	4b42                	lw	s6,16(sp)
80002ec6:	4bb2                	lw	s7,12(sp)
80002ec8:	854e                	mv	a0,s3
80002eca:	49f2                	lw	s3,28(sp)
80002ecc:	6145                	addi	sp,sp,48
80002ece:	8082                	ret
80002ed0:	00c4d783          	lhu	a5,12(s1)
80002ed4:	00fb7b63          	bgeu	s6,a5,80002eea <_fwalk_reent+0x64>
80002ed8:	00e49783          	lh	a5,14(s1)
80002edc:	01778763          	beq	a5,s7,80002eea <_fwalk_reent+0x64>
80002ee0:	85a6                	mv	a1,s1
80002ee2:	854a                	mv	a0,s2
80002ee4:	9a02                	jalr	s4
80002ee6:	00a9e9b3          	or	s3,s3,a0
80002eea:	06848493          	addi	s1,s1,104
80002eee:	b7c1                	j	80002eae <_fwalk_reent+0x28>

80002ef0 <_localeconv_r>:
_localeconv_r():
80002ef0:	0fffd517          	auipc	a0,0xfffd
80002ef4:	26050513          	addi	a0,a0,608 # 90000150 <__global_locale+0xf0>
80002ef8:	8082                	ret

80002efa <malloc>:
malloc():
80002efa:	85aa                	mv	a1,a0
80002efc:	0fffd517          	auipc	a0,0xfffd
80002f00:	2dc52503          	lw	a0,732(a0) # 900001d8 <_impure_ptr>
80002f04:	2cf0006f          	j	800039d2 <_malloc_r>

80002f08 <__ascii_mbtowc>:
__ascii_mbtowc():
80002f08:	e185                	bnez	a1,80002f28 <__ascii_mbtowc+0x20>
80002f0a:	1141                	addi	sp,sp,-16
80002f0c:	006c                	addi	a1,sp,12
80002f0e:	4501                	li	a0,0
80002f10:	ca11                	beqz	a2,80002f24 <__ascii_mbtowc+0x1c>
80002f12:	5579                	li	a0,-2
80002f14:	ca81                	beqz	a3,80002f24 <__ascii_mbtowc+0x1c>
80002f16:	00064783          	lbu	a5,0(a2)
80002f1a:	c19c                	sw	a5,0(a1)
80002f1c:	00064503          	lbu	a0,0(a2)
80002f20:	00a03533          	snez	a0,a0
80002f24:	0141                	addi	sp,sp,16
80002f26:	8082                	ret
80002f28:	4501                	li	a0,0
80002f2a:	ca19                	beqz	a2,80002f40 <__ascii_mbtowc+0x38>
80002f2c:	5579                	li	a0,-2
80002f2e:	ca89                	beqz	a3,80002f40 <__ascii_mbtowc+0x38>
80002f30:	00064783          	lbu	a5,0(a2)
80002f34:	c19c                	sw	a5,0(a1)
80002f36:	00064503          	lbu	a0,0(a2)
80002f3a:	00a03533          	snez	a0,a0
80002f3e:	8082                	ret
80002f40:	8082                	ret

80002f42 <memchr>:
memchr():
80002f42:	0ff5f593          	andi	a1,a1,255
80002f46:	962a                	add	a2,a2,a0
80002f48:	00c51463          	bne	a0,a2,80002f50 <memchr+0xe>
80002f4c:	4501                	li	a0,0
80002f4e:	8082                	ret
80002f50:	00054783          	lbu	a5,0(a0)
80002f54:	feb78de3          	beq	a5,a1,80002f4e <memchr+0xc>
80002f58:	0505                	addi	a0,a0,1
80002f5a:	b7fd                	j	80002f48 <memchr+0x6>

80002f5c <memcpy>:
memcpy():
80002f5c:	00a5c7b3          	xor	a5,a1,a0
80002f60:	8b8d                	andi	a5,a5,3
80002f62:	00c506b3          	add	a3,a0,a2
80002f66:	e781                	bnez	a5,80002f6e <memcpy+0x12>
80002f68:	478d                	li	a5,3
80002f6a:	00c7ee63          	bltu	a5,a2,80002f86 <memcpy+0x2a>
80002f6e:	87aa                	mv	a5,a0
80002f70:	0ad57863          	bgeu	a0,a3,80003020 <memcpy+0xc4>
80002f74:	0005c703          	lbu	a4,0(a1)
80002f78:	0785                	addi	a5,a5,1
80002f7a:	0585                	addi	a1,a1,1
80002f7c:	fee78fa3          	sb	a4,-1(a5) # fffeffff <_sp+0x6ffdffff>
80002f80:	fed7eae3          	bltu	a5,a3,80002f74 <memcpy+0x18>
80002f84:	8082                	ret
80002f86:	00357713          	andi	a4,a0,3
80002f8a:	87aa                	mv	a5,a0
80002f8c:	cb11                	beqz	a4,80002fa0 <memcpy+0x44>
80002f8e:	0005c703          	lbu	a4,0(a1)
80002f92:	0785                	addi	a5,a5,1
80002f94:	0585                	addi	a1,a1,1
80002f96:	fee78fa3          	sb	a4,-1(a5)
80002f9a:	0037f713          	andi	a4,a5,3
80002f9e:	b7fd                	j	80002f8c <memcpy+0x30>
80002fa0:	ffc6f713          	andi	a4,a3,-4
80002fa4:	fe070613          	addi	a2,a4,-32
80002fa8:	04c7fb63          	bgeu	a5,a2,80002ffe <memcpy+0xa2>
80002fac:	0005a383          	lw	t2,0(a1)
80002fb0:	0045a283          	lw	t0,4(a1)
80002fb4:	0085af83          	lw	t6,8(a1)
80002fb8:	00c5af03          	lw	t5,12(a1)
80002fbc:	0105ae83          	lw	t4,16(a1)
80002fc0:	0145ae03          	lw	t3,20(a1)
80002fc4:	0185a303          	lw	t1,24(a1)
80002fc8:	01c5a883          	lw	a7,28(a1)
80002fcc:	0077a023          	sw	t2,0(a5)
80002fd0:	0057a223          	sw	t0,4(a5)
80002fd4:	0205a803          	lw	a6,32(a1)
80002fd8:	01f7a423          	sw	t6,8(a5)
80002fdc:	01e7a623          	sw	t5,12(a5)
80002fe0:	01d7a823          	sw	t4,16(a5)
80002fe4:	01c7aa23          	sw	t3,20(a5)
80002fe8:	0067ac23          	sw	t1,24(a5)
80002fec:	0117ae23          	sw	a7,28(a5)
80002ff0:	02458593          	addi	a1,a1,36
80002ff4:	02478793          	addi	a5,a5,36
80002ff8:	ff07ae23          	sw	a6,-4(a5)
80002ffc:	b775                	j	80002fa8 <memcpy+0x4c>
80002ffe:	882e                	mv	a6,a1
80003000:	863e                	mv	a2,a5
80003002:	02e66063          	bltu	a2,a4,80003022 <memcpy+0xc6>
80003006:	ffd78813          	addi	a6,a5,-3
8000300a:	4601                	li	a2,0
8000300c:	01076663          	bltu	a4,a6,80003018 <memcpy+0xbc>
80003010:	070d                	addi	a4,a4,3
80003012:	8f1d                	sub	a4,a4,a5
80003014:	ffc77613          	andi	a2,a4,-4
80003018:	97b2                	add	a5,a5,a2
8000301a:	95b2                	add	a1,a1,a2
8000301c:	f4d7ece3          	bltu	a5,a3,80002f74 <memcpy+0x18>
80003020:	8082                	ret
80003022:	00082883          	lw	a7,0(a6)
80003026:	0611                	addi	a2,a2,4
80003028:	0811                	addi	a6,a6,4
8000302a:	ff162e23          	sw	a7,-4(a2)
8000302e:	bfd1                	j	80003002 <memcpy+0xa6>

80003030 <memset>:
memset():
80003030:	433d                	li	t1,15
80003032:	872a                	mv	a4,a0
80003034:	02c37363          	bgeu	t1,a2,8000305a <memset+0x2a>
80003038:	00f77793          	andi	a5,a4,15
8000303c:	efbd                	bnez	a5,800030ba <memset+0x8a>
8000303e:	e5ad                	bnez	a1,800030a8 <memset+0x78>
80003040:	ff067693          	andi	a3,a2,-16
80003044:	8a3d                	andi	a2,a2,15
80003046:	96ba                	add	a3,a3,a4
80003048:	c30c                	sw	a1,0(a4)
8000304a:	c34c                	sw	a1,4(a4)
8000304c:	c70c                	sw	a1,8(a4)
8000304e:	c74c                	sw	a1,12(a4)
80003050:	0741                	addi	a4,a4,16
80003052:	fed76be3          	bltu	a4,a3,80003048 <memset+0x18>
80003056:	e211                	bnez	a2,8000305a <memset+0x2a>
80003058:	8082                	ret
8000305a:	40c306b3          	sub	a3,t1,a2
8000305e:	068a                	slli	a3,a3,0x2
80003060:	00000297          	auipc	t0,0x0
80003064:	9696                	add	a3,a3,t0
80003066:	00a68067          	jr	10(a3)
8000306a:	00b70723          	sb	a1,14(a4)
8000306e:	00b706a3          	sb	a1,13(a4)
80003072:	00b70623          	sb	a1,12(a4)
80003076:	00b705a3          	sb	a1,11(a4)
8000307a:	00b70523          	sb	a1,10(a4)
8000307e:	00b704a3          	sb	a1,9(a4)
80003082:	00b70423          	sb	a1,8(a4)
80003086:	00b703a3          	sb	a1,7(a4)
8000308a:	00b70323          	sb	a1,6(a4)
8000308e:	00b702a3          	sb	a1,5(a4)
80003092:	00b70223          	sb	a1,4(a4)
80003096:	00b701a3          	sb	a1,3(a4)
8000309a:	00b70123          	sb	a1,2(a4)
8000309e:	00b700a3          	sb	a1,1(a4)
800030a2:	00b70023          	sb	a1,0(a4)
800030a6:	8082                	ret
800030a8:	0ff5f593          	andi	a1,a1,255
800030ac:	00859693          	slli	a3,a1,0x8
800030b0:	8dd5                	or	a1,a1,a3
800030b2:	01059693          	slli	a3,a1,0x10
800030b6:	8dd5                	or	a1,a1,a3
800030b8:	b761                	j	80003040 <memset+0x10>
800030ba:	00279693          	slli	a3,a5,0x2
800030be:	00000297          	auipc	t0,0x0
800030c2:	9696                	add	a3,a3,t0
800030c4:	8286                	mv	t0,ra
800030c6:	fa8680e7          	jalr	-88(a3)
800030ca:	8096                	mv	ra,t0
800030cc:	17c1                	addi	a5,a5,-16
800030ce:	8f1d                	sub	a4,a4,a5
800030d0:	963e                	add	a2,a2,a5
800030d2:	f8c374e3          	bgeu	t1,a2,8000305a <memset+0x2a>
800030d6:	b7a5                	j	8000303e <memset+0xe>

800030d8 <_Balloc>:
_Balloc():
800030d8:	515c                	lw	a5,36(a0)
800030da:	1141                	addi	sp,sp,-16
800030dc:	c422                	sw	s0,8(sp)
800030de:	c226                	sw	s1,4(sp)
800030e0:	c606                	sw	ra,12(sp)
800030e2:	c04a                	sw	s2,0(sp)
800030e4:	842a                	mv	s0,a0
800030e6:	84ae                	mv	s1,a1
800030e8:	ef81                	bnez	a5,80003100 <_Balloc+0x28>
800030ea:	4541                	li	a0,16
800030ec:	3539                	jal	80002efa <malloc>
800030ee:	d048                	sw	a0,36(s0)
800030f0:	00052223          	sw	zero,4(a0)
800030f4:	00052423          	sw	zero,8(a0)
800030f8:	00052023          	sw	zero,0(a0)
800030fc:	00052623          	sw	zero,12(a0)
80003100:	02442903          	lw	s2,36(s0)
80003104:	00c92783          	lw	a5,12(s2)
80003108:	c79d                	beqz	a5,80003136 <_Balloc+0x5e>
8000310a:	5058                	lw	a4,36(s0)
8000310c:	00249793          	slli	a5,s1,0x2
80003110:	4758                	lw	a4,12(a4)
80003112:	97ba                	add	a5,a5,a4
80003114:	4388                	lw	a0,0(a5)
80003116:	e131                	bnez	a0,8000315a <_Balloc+0x82>
80003118:	4905                	li	s2,1
8000311a:	00991933          	sll	s2,s2,s1
8000311e:	00590613          	addi	a2,s2,5
80003122:	060a                	slli	a2,a2,0x2
80003124:	4585                	li	a1,1
80003126:	8522                	mv	a0,s0
80003128:	7e2000ef          	jal	ra,8000390a <_calloc_r>
8000312c:	c105                	beqz	a0,8000314c <_Balloc+0x74>
8000312e:	c144                	sw	s1,4(a0)
80003130:	01252423          	sw	s2,8(a0)
80003134:	a02d                	j	8000315e <_Balloc+0x86>
80003136:	02100613          	li	a2,33
8000313a:	4591                	li	a1,4
8000313c:	8522                	mv	a0,s0
8000313e:	7cc000ef          	jal	ra,8000390a <_calloc_r>
80003142:	505c                	lw	a5,36(s0)
80003144:	00a92623          	sw	a0,12(s2)
80003148:	47dc                	lw	a5,12(a5)
8000314a:	f3e1                	bnez	a5,8000310a <_Balloc+0x32>
8000314c:	4501                	li	a0,0
8000314e:	40b2                	lw	ra,12(sp)
80003150:	4422                	lw	s0,8(sp)
80003152:	4492                	lw	s1,4(sp)
80003154:	4902                	lw	s2,0(sp)
80003156:	0141                	addi	sp,sp,16
80003158:	8082                	ret
8000315a:	4118                	lw	a4,0(a0)
8000315c:	c398                	sw	a4,0(a5)
8000315e:	00052823          	sw	zero,16(a0)
80003162:	00052623          	sw	zero,12(a0)
80003166:	b7e5                	j	8000314e <_Balloc+0x76>

80003168 <_Bfree>:
_Bfree():
80003168:	515c                	lw	a5,36(a0)
8000316a:	1141                	addi	sp,sp,-16
8000316c:	c422                	sw	s0,8(sp)
8000316e:	c226                	sw	s1,4(sp)
80003170:	c606                	sw	ra,12(sp)
80003172:	84aa                	mv	s1,a0
80003174:	842e                	mv	s0,a1
80003176:	ef81                	bnez	a5,8000318e <_Bfree+0x26>
80003178:	4541                	li	a0,16
8000317a:	3341                	jal	80002efa <malloc>
8000317c:	d0c8                	sw	a0,36(s1)
8000317e:	00052223          	sw	zero,4(a0)
80003182:	00052423          	sw	zero,8(a0)
80003186:	00052023          	sw	zero,0(a0)
8000318a:	00052623          	sw	zero,12(a0)
8000318e:	c811                	beqz	s0,800031a2 <_Bfree+0x3a>
80003190:	50d4                	lw	a3,36(s1)
80003192:	405c                	lw	a5,4(s0)
80003194:	00279713          	slli	a4,a5,0x2
80003198:	46dc                	lw	a5,12(a3)
8000319a:	97ba                	add	a5,a5,a4
8000319c:	4398                	lw	a4,0(a5)
8000319e:	c018                	sw	a4,0(s0)
800031a0:	c380                	sw	s0,0(a5)
800031a2:	40b2                	lw	ra,12(sp)
800031a4:	4422                	lw	s0,8(sp)
800031a6:	4492                	lw	s1,4(sp)
800031a8:	0141                	addi	sp,sp,16
800031aa:	8082                	ret

800031ac <__multadd>:
__multadd():
800031ac:	1101                	addi	sp,sp,-32
800031ae:	cc22                	sw	s0,24(sp)
800031b0:	c84a                	sw	s2,16(sp)
800031b2:	c64e                	sw	s3,12(sp)
800031b4:	0105a903          	lw	s2,16(a1)
800031b8:	842e                	mv	s0,a1
800031ba:	89b6                	mv	s3,a3
800031bc:	01458693          	addi	a3,a1,20
800031c0:	65c1                	lui	a1,0x10
800031c2:	ca26                	sw	s1,20(sp)
800031c4:	ce06                	sw	ra,28(sp)
800031c6:	84aa                	mv	s1,a0
800031c8:	c452                	sw	s4,8(sp)
800031ca:	4501                	li	a0,0
800031cc:	15fd                	addi	a1,a1,-1
800031ce:	429c                	lw	a5,0(a3)
800031d0:	0691                	addi	a3,a3,4
800031d2:	0505                	addi	a0,a0,1
800031d4:	00b7f733          	and	a4,a5,a1
800031d8:	02c70733          	mul	a4,a4,a2
800031dc:	83c1                	srli	a5,a5,0x10
800031de:	02c787b3          	mul	a5,a5,a2
800031e2:	974e                	add	a4,a4,s3
800031e4:	01075813          	srli	a6,a4,0x10
800031e8:	8f6d                	and	a4,a4,a1
800031ea:	97c2                	add	a5,a5,a6
800031ec:	0107d993          	srli	s3,a5,0x10
800031f0:	07c2                	slli	a5,a5,0x10
800031f2:	97ba                	add	a5,a5,a4
800031f4:	fef6ae23          	sw	a5,-4(a3)
800031f8:	fd254be3          	blt	a0,s2,800031ce <__multadd+0x22>
800031fc:	04098d63          	beqz	s3,80003256 <__multadd+0xaa>
80003200:	441c                	lw	a5,8(s0)
80003202:	04f94163          	blt	s2,a5,80003244 <__multadd+0x98>
80003206:	404c                	lw	a1,4(s0)
80003208:	8526                	mv	a0,s1
8000320a:	0585                	addi	a1,a1,1
8000320c:	35f1                	jal	800030d8 <_Balloc>
8000320e:	8a2a                	mv	s4,a0
80003210:	ed11                	bnez	a0,8000322c <__multadd+0x80>
80003212:	00004697          	auipc	a3,0x4
80003216:	dfe68693          	addi	a3,a3,-514 # 80007010 <__extendsfdf2+0x828>
8000321a:	4601                	li	a2,0
8000321c:	0b500593          	li	a1,181
80003220:	00004517          	auipc	a0,0x4
80003224:	ed050513          	addi	a0,a0,-304 # 800070f0 <__sf_fake_stdout+0x30>
80003228:	7a3000ef          	jal	ra,800041ca <__assert_func>
8000322c:	4810                	lw	a2,16(s0)
8000322e:	00c40593          	addi	a1,s0,12
80003232:	0531                	addi	a0,a0,12
80003234:	0609                	addi	a2,a2,2
80003236:	060a                	slli	a2,a2,0x2
80003238:	d25ff0ef          	jal	ra,80002f5c <memcpy>
8000323c:	85a2                	mv	a1,s0
8000323e:	8526                	mv	a0,s1
80003240:	3725                	jal	80003168 <_Bfree>
80003242:	8452                	mv	s0,s4
80003244:	00490793          	addi	a5,s2,4
80003248:	078a                	slli	a5,a5,0x2
8000324a:	97a2                	add	a5,a5,s0
8000324c:	0137a223          	sw	s3,4(a5)
80003250:	0905                	addi	s2,s2,1
80003252:	01242823          	sw	s2,16(s0)
80003256:	40f2                	lw	ra,28(sp)
80003258:	8522                	mv	a0,s0
8000325a:	4462                	lw	s0,24(sp)
8000325c:	44d2                	lw	s1,20(sp)
8000325e:	4942                	lw	s2,16(sp)
80003260:	49b2                	lw	s3,12(sp)
80003262:	4a22                	lw	s4,8(sp)
80003264:	6105                	addi	sp,sp,32
80003266:	8082                	ret

80003268 <__hi0bits>:
__hi0bits():
80003268:	7741                	lui	a4,0xffff0
8000326a:	8f69                	and	a4,a4,a0
8000326c:	87aa                	mv	a5,a0
8000326e:	4501                	li	a0,0
80003270:	e319                	bnez	a4,80003276 <__hi0bits+0xe>
80003272:	07c2                	slli	a5,a5,0x10
80003274:	4541                	li	a0,16
80003276:	ff000737          	lui	a4,0xff000
8000327a:	8f7d                	and	a4,a4,a5
8000327c:	e319                	bnez	a4,80003282 <__hi0bits+0x1a>
8000327e:	0521                	addi	a0,a0,8
80003280:	07a2                	slli	a5,a5,0x8
80003282:	f0000737          	lui	a4,0xf0000
80003286:	8f7d                	and	a4,a4,a5
80003288:	e319                	bnez	a4,8000328e <__hi0bits+0x26>
8000328a:	0511                	addi	a0,a0,4
8000328c:	0792                	slli	a5,a5,0x4
8000328e:	c0000737          	lui	a4,0xc0000
80003292:	8f7d                	and	a4,a4,a5
80003294:	e319                	bnez	a4,8000329a <__hi0bits+0x32>
80003296:	0509                	addi	a0,a0,2
80003298:	078a                	slli	a5,a5,0x2
8000329a:	0007c963          	bltz	a5,800032ac <__hi0bits+0x44>
8000329e:	40000737          	lui	a4,0x40000
800032a2:	8ff9                	and	a5,a5,a4
800032a4:	0505                	addi	a0,a0,1
800032a6:	e399                	bnez	a5,800032ac <__hi0bits+0x44>
800032a8:	02000513          	li	a0,32
800032ac:	8082                	ret

800032ae <__lo0bits>:
__lo0bits():
800032ae:	411c                	lw	a5,0(a0)
800032b0:	872a                	mv	a4,a0
800032b2:	0077f693          	andi	a3,a5,7
800032b6:	c285                	beqz	a3,800032d6 <__lo0bits+0x28>
800032b8:	0017f693          	andi	a3,a5,1
800032bc:	4501                	li	a0,0
800032be:	eea1                	bnez	a3,80003316 <__lo0bits+0x68>
800032c0:	0027f693          	andi	a3,a5,2
800032c4:	c689                	beqz	a3,800032ce <__lo0bits+0x20>
800032c6:	8385                	srli	a5,a5,0x1
800032c8:	c31c                	sw	a5,0(a4)
800032ca:	4505                	li	a0,1
800032cc:	8082                	ret
800032ce:	8389                	srli	a5,a5,0x2
800032d0:	c31c                	sw	a5,0(a4)
800032d2:	4509                	li	a0,2
800032d4:	8082                	ret
800032d6:	01079693          	slli	a3,a5,0x10
800032da:	82c1                	srli	a3,a3,0x10
800032dc:	4501                	li	a0,0
800032de:	e299                	bnez	a3,800032e4 <__lo0bits+0x36>
800032e0:	83c1                	srli	a5,a5,0x10
800032e2:	4541                	li	a0,16
800032e4:	0ff7f693          	andi	a3,a5,255
800032e8:	e299                	bnez	a3,800032ee <__lo0bits+0x40>
800032ea:	0521                	addi	a0,a0,8
800032ec:	83a1                	srli	a5,a5,0x8
800032ee:	00f7f693          	andi	a3,a5,15
800032f2:	e299                	bnez	a3,800032f8 <__lo0bits+0x4a>
800032f4:	0511                	addi	a0,a0,4
800032f6:	8391                	srli	a5,a5,0x4
800032f8:	0037f693          	andi	a3,a5,3
800032fc:	e299                	bnez	a3,80003302 <__lo0bits+0x54>
800032fe:	0509                	addi	a0,a0,2
80003300:	8389                	srli	a5,a5,0x2
80003302:	0017f693          	andi	a3,a5,1
80003306:	e681                	bnez	a3,8000330e <__lo0bits+0x60>
80003308:	8385                	srli	a5,a5,0x1
8000330a:	0505                	addi	a0,a0,1
8000330c:	c399                	beqz	a5,80003312 <__lo0bits+0x64>
8000330e:	c31c                	sw	a5,0(a4)
80003310:	8082                	ret
80003312:	02000513          	li	a0,32
80003316:	8082                	ret

80003318 <__i2b>:
__i2b():
80003318:	1141                	addi	sp,sp,-16
8000331a:	c422                	sw	s0,8(sp)
8000331c:	842e                	mv	s0,a1
8000331e:	4585                	li	a1,1
80003320:	c606                	sw	ra,12(sp)
80003322:	3b5d                	jal	800030d8 <_Balloc>
80003324:	ed11                	bnez	a0,80003340 <__i2b+0x28>
80003326:	00004697          	auipc	a3,0x4
8000332a:	cea68693          	addi	a3,a3,-790 # 80007010 <__extendsfdf2+0x828>
8000332e:	4601                	li	a2,0
80003330:	14000593          	li	a1,320
80003334:	00004517          	auipc	a0,0x4
80003338:	dbc50513          	addi	a0,a0,-580 # 800070f0 <__sf_fake_stdout+0x30>
8000333c:	68f000ef          	jal	ra,800041ca <__assert_func>
80003340:	40b2                	lw	ra,12(sp)
80003342:	c940                	sw	s0,20(a0)
80003344:	4422                	lw	s0,8(sp)
80003346:	4705                	li	a4,1
80003348:	c918                	sw	a4,16(a0)
8000334a:	0141                	addi	sp,sp,16
8000334c:	8082                	ret

8000334e <__multiply>:
__multiply():
8000334e:	4998                	lw	a4,16(a1)
80003350:	4a1c                	lw	a5,16(a2)
80003352:	1101                	addi	sp,sp,-32
80003354:	cc22                	sw	s0,24(sp)
80003356:	c84a                	sw	s2,16(sp)
80003358:	ce06                	sw	ra,28(sp)
8000335a:	ca26                	sw	s1,20(sp)
8000335c:	c64e                	sw	s3,12(sp)
8000335e:	c452                	sw	s4,8(sp)
80003360:	842e                	mv	s0,a1
80003362:	8932                	mv	s2,a2
80003364:	00f75463          	bge	a4,a5,8000336c <__multiply+0x1e>
80003368:	8432                	mv	s0,a2
8000336a:	892e                	mv	s2,a1
8000336c:	01042a03          	lw	s4,16(s0)
80003370:	01092983          	lw	s3,16(s2)
80003374:	441c                	lw	a5,8(s0)
80003376:	404c                	lw	a1,4(s0)
80003378:	013a04b3          	add	s1,s4,s3
8000337c:	0097d363          	bge	a5,s1,80003382 <__multiply+0x34>
80003380:	0585                	addi	a1,a1,1
80003382:	3b99                	jal	800030d8 <_Balloc>
80003384:	ed11                	bnez	a0,800033a0 <__multiply+0x52>
80003386:	00004697          	auipc	a3,0x4
8000338a:	c8a68693          	addi	a3,a3,-886 # 80007010 <__extendsfdf2+0x828>
8000338e:	4601                	li	a2,0
80003390:	15d00593          	li	a1,349
80003394:	00004517          	auipc	a0,0x4
80003398:	d5c50513          	addi	a0,a0,-676 # 800070f0 <__sf_fake_stdout+0x30>
8000339c:	62f000ef          	jal	ra,800041ca <__assert_func>
800033a0:	01450693          	addi	a3,a0,20
800033a4:	00249813          	slli	a6,s1,0x2
800033a8:	9836                	add	a6,a6,a3
800033aa:	87b6                	mv	a5,a3
800033ac:	0507ea63          	bltu	a5,a6,80003400 <__multiply+0xb2>
800033b0:	01440313          	addi	t1,s0,20
800033b4:	002a1593          	slli	a1,s4,0x2
800033b8:	01490613          	addi	a2,s2,20
800033bc:	00299893          	slli	a7,s3,0x2
800033c0:	959a                	add	a1,a1,t1
800033c2:	01540793          	addi	a5,s0,21
800033c6:	98b2                	add	a7,a7,a2
800033c8:	4e11                	li	t3,4
800033ca:	00f5e863          	bltu	a1,a5,800033da <__multiply+0x8c>
800033ce:	40858433          	sub	s0,a1,s0
800033d2:	142d                	addi	s0,s0,-21
800033d4:	9871                	andi	s0,s0,-4
800033d6:	00440e13          	addi	t3,s0,4
800033da:	6ec1                	lui	t4,0x10
800033dc:	1efd                	addi	t4,t4,-1
800033de:	03166563          	bltu	a2,a7,80003408 <__multiply+0xba>
800033e2:	00905663          	blez	s1,800033ee <__multiply+0xa0>
800033e6:	ffc82783          	lw	a5,-4(a6)
800033ea:	1871                	addi	a6,a6,-4
800033ec:	cff1                	beqz	a5,800034c8 <__multiply+0x17a>
800033ee:	40f2                	lw	ra,28(sp)
800033f0:	4462                	lw	s0,24(sp)
800033f2:	c904                	sw	s1,16(a0)
800033f4:	4942                	lw	s2,16(sp)
800033f6:	44d2                	lw	s1,20(sp)
800033f8:	49b2                	lw	s3,12(sp)
800033fa:	4a22                	lw	s4,8(sp)
800033fc:	6105                	addi	sp,sp,32
800033fe:	8082                	ret
80003400:	0007a023          	sw	zero,0(a5)
80003404:	0791                	addi	a5,a5,4
80003406:	b75d                	j	800033ac <__multiply+0x5e>
80003408:	00062f83          	lw	t6,0(a2)
8000340c:	01dfffb3          	and	t6,t6,t4
80003410:	040f8b63          	beqz	t6,80003466 <__multiply+0x118>
80003414:	83b6                	mv	t2,a3
80003416:	829a                	mv	t0,t1
80003418:	4901                	li	s2,0
8000341a:	0002a703          	lw	a4,0(t0) # 800030be <memset+0x8e>
8000341e:	0003a403          	lw	s0,0(t2)
80003422:	0391                	addi	t2,t2,4
80003424:	01d77f33          	and	t5,a4,t4
80003428:	03ff0f33          	mul	t5,t5,t6
8000342c:	01d477b3          	and	a5,s0,t4
80003430:	8041                	srli	s0,s0,0x10
80003432:	0291                	addi	t0,t0,4
80003434:	9f3e                	add	t5,t5,a5
80003436:	01075793          	srli	a5,a4,0x10
8000343a:	03f787b3          	mul	a5,a5,t6
8000343e:	9f4a                	add	t5,t5,s2
80003440:	010f5713          	srli	a4,t5,0x10
80003444:	01df7f33          	and	t5,t5,t4
80003448:	97a2                	add	a5,a5,s0
8000344a:	97ba                	add	a5,a5,a4
8000344c:	0107d913          	srli	s2,a5,0x10
80003450:	07c2                	slli	a5,a5,0x10
80003452:	01e7e7b3          	or	a5,a5,t5
80003456:	fef3ae23          	sw	a5,-4(t2)
8000345a:	fcb2e0e3          	bltu	t0,a1,8000341a <__multiply+0xcc>
8000345e:	01c687b3          	add	a5,a3,t3
80003462:	0127a023          	sw	s2,0(a5)
80003466:	00265383          	lhu	t2,2(a2)
8000346a:	04038c63          	beqz	t2,800034c2 <__multiply+0x174>
8000346e:	429c                	lw	a5,0(a3)
80003470:	8fb6                	mv	t6,a3
80003472:	8f1a                	mv	t5,t1
80003474:	4281                	li	t0,0
80003476:	000f2703          	lw	a4,0(t5)
8000347a:	002fd403          	lhu	s0,2(t6)
8000347e:	01d7f7b3          	and	a5,a5,t4
80003482:	01d77733          	and	a4,a4,t4
80003486:	02770733          	mul	a4,a4,t2
8000348a:	0f91                	addi	t6,t6,4
8000348c:	0f11                	addi	t5,t5,4
8000348e:	9722                	add	a4,a4,s0
80003490:	9716                	add	a4,a4,t0
80003492:	01071293          	slli	t0,a4,0x10
80003496:	00f2e7b3          	or	a5,t0,a5
8000349a:	feffae23          	sw	a5,-4(t6)
8000349e:	ffef5783          	lhu	a5,-2(t5)
800034a2:	000fa283          	lw	t0,0(t6)
800034a6:	8341                	srli	a4,a4,0x10
800034a8:	027787b3          	mul	a5,a5,t2
800034ac:	01d2f2b3          	and	t0,t0,t4
800034b0:	9796                	add	a5,a5,t0
800034b2:	97ba                	add	a5,a5,a4
800034b4:	0107d293          	srli	t0,a5,0x10
800034b8:	fabf6fe3          	bltu	t5,a1,80003476 <__multiply+0x128>
800034bc:	01c68733          	add	a4,a3,t3
800034c0:	c31c                	sw	a5,0(a4)
800034c2:	0611                	addi	a2,a2,4
800034c4:	0691                	addi	a3,a3,4
800034c6:	bf21                	j	800033de <__multiply+0x90>
800034c8:	14fd                	addi	s1,s1,-1
800034ca:	bf21                	j	800033e2 <__multiply+0x94>

800034cc <__pow5mult>:
__pow5mult():
800034cc:	1101                	addi	sp,sp,-32
800034ce:	ca26                	sw	s1,20(sp)
800034d0:	c84a                	sw	s2,16(sp)
800034d2:	c64e                	sw	s3,12(sp)
800034d4:	ce06                	sw	ra,28(sp)
800034d6:	cc22                	sw	s0,24(sp)
800034d8:	c452                	sw	s4,8(sp)
800034da:	00367793          	andi	a5,a2,3
800034de:	892a                	mv	s2,a0
800034e0:	84b2                	mv	s1,a2
800034e2:	89ae                	mv	s3,a1
800034e4:	cf89                	beqz	a5,800034fe <__pow5mult+0x32>
800034e6:	17fd                	addi	a5,a5,-1
800034e8:	00004717          	auipc	a4,0x4
800034ec:	d5870713          	addi	a4,a4,-680 # 80007240 <p05.0>
800034f0:	078a                	slli	a5,a5,0x2
800034f2:	97ba                	add	a5,a5,a4
800034f4:	4390                	lw	a2,0(a5)
800034f6:	4681                	li	a3,0
800034f8:	cb5ff0ef          	jal	ra,800031ac <__multadd>
800034fc:	89aa                	mv	s3,a0
800034fe:	8489                	srai	s1,s1,0x2
80003500:	c8ad                	beqz	s1,80003572 <__pow5mult+0xa6>
80003502:	02492783          	lw	a5,36(s2)
80003506:	ef91                	bnez	a5,80003522 <__pow5mult+0x56>
80003508:	4541                	li	a0,16
8000350a:	9f1ff0ef          	jal	ra,80002efa <malloc>
8000350e:	02a92223          	sw	a0,36(s2)
80003512:	00052223          	sw	zero,4(a0)
80003516:	00052423          	sw	zero,8(a0)
8000351a:	00052023          	sw	zero,0(a0)
8000351e:	00052623          	sw	zero,12(a0)
80003522:	02492a03          	lw	s4,36(s2)
80003526:	008a2403          	lw	s0,8(s4)
8000352a:	e811                	bnez	s0,8000353e <__pow5mult+0x72>
8000352c:	27100593          	li	a1,625
80003530:	854a                	mv	a0,s2
80003532:	33dd                	jal	80003318 <__i2b>
80003534:	00aa2423          	sw	a0,8(s4)
80003538:	842a                	mv	s0,a0
8000353a:	00052023          	sw	zero,0(a0)
8000353e:	0014f793          	andi	a5,s1,1
80003542:	cb99                	beqz	a5,80003558 <__pow5mult+0x8c>
80003544:	85ce                	mv	a1,s3
80003546:	8622                	mv	a2,s0
80003548:	854a                	mv	a0,s2
8000354a:	3511                	jal	8000334e <__multiply>
8000354c:	8a2a                	mv	s4,a0
8000354e:	85ce                	mv	a1,s3
80003550:	854a                	mv	a0,s2
80003552:	c17ff0ef          	jal	ra,80003168 <_Bfree>
80003556:	89d2                	mv	s3,s4
80003558:	8485                	srai	s1,s1,0x1
8000355a:	cc81                	beqz	s1,80003572 <__pow5mult+0xa6>
8000355c:	4008                	lw	a0,0(s0)
8000355e:	e901                	bnez	a0,8000356e <__pow5mult+0xa2>
80003560:	8622                	mv	a2,s0
80003562:	85a2                	mv	a1,s0
80003564:	854a                	mv	a0,s2
80003566:	33e5                	jal	8000334e <__multiply>
80003568:	c008                	sw	a0,0(s0)
8000356a:	00052023          	sw	zero,0(a0)
8000356e:	842a                	mv	s0,a0
80003570:	b7f9                	j	8000353e <__pow5mult+0x72>
80003572:	40f2                	lw	ra,28(sp)
80003574:	4462                	lw	s0,24(sp)
80003576:	44d2                	lw	s1,20(sp)
80003578:	4942                	lw	s2,16(sp)
8000357a:	4a22                	lw	s4,8(sp)
8000357c:	854e                	mv	a0,s3
8000357e:	49b2                	lw	s3,12(sp)
80003580:	6105                	addi	sp,sp,32
80003582:	8082                	ret

80003584 <__lshift>:
__lshift():
80003584:	1101                	addi	sp,sp,-32
80003586:	cc22                	sw	s0,24(sp)
80003588:	842e                	mv	s0,a1
8000358a:	c05a                	sw	s6,0(sp)
8000358c:	01042b03          	lw	s6,16(s0)
80003590:	ca26                	sw	s1,20(sp)
80003592:	41cc                	lw	a1,4(a1)
80003594:	40565493          	srai	s1,a2,0x5
80003598:	441c                	lw	a5,8(s0)
8000359a:	9b26                	add	s6,s6,s1
8000359c:	c84a                	sw	s2,16(sp)
8000359e:	c452                	sw	s4,8(sp)
800035a0:	c256                	sw	s5,4(sp)
800035a2:	ce06                	sw	ra,28(sp)
800035a4:	c64e                	sw	s3,12(sp)
800035a6:	8aaa                	mv	s5,a0
800035a8:	8932                	mv	s2,a2
800035aa:	001b0a13          	addi	s4,s6,1
800035ae:	0347c463          	blt	a5,s4,800035d6 <__lshift+0x52>
800035b2:	8556                	mv	a0,s5
800035b4:	b25ff0ef          	jal	ra,800030d8 <_Balloc>
800035b8:	89aa                	mv	s3,a0
800035ba:	e10d                	bnez	a0,800035dc <__lshift+0x58>
800035bc:	00004697          	auipc	a3,0x4
800035c0:	a5468693          	addi	a3,a3,-1452 # 80007010 <__extendsfdf2+0x828>
800035c4:	4601                	li	a2,0
800035c6:	1d900593          	li	a1,473
800035ca:	00004517          	auipc	a0,0x4
800035ce:	b2650513          	addi	a0,a0,-1242 # 800070f0 <__sf_fake_stdout+0x30>
800035d2:	3f9000ef          	jal	ra,800041ca <__assert_func>
800035d6:	0585                	addi	a1,a1,1
800035d8:	0786                	slli	a5,a5,0x1
800035da:	bfd1                	j	800035ae <__lshift+0x2a>
800035dc:	01450793          	addi	a5,a0,20
800035e0:	86be                	mv	a3,a5
800035e2:	4701                	li	a4,0
800035e4:	0691                	addi	a3,a3,4
800035e6:	08974563          	blt	a4,s1,80003670 <__lshift+0xec>
800035ea:	0004d363          	bgez	s1,800035f0 <__lshift+0x6c>
800035ee:	4481                	li	s1,0
800035f0:	048a                	slli	s1,s1,0x2
800035f2:	009786b3          	add	a3,a5,s1
800035f6:	481c                	lw	a5,16(s0)
800035f8:	01440713          	addi	a4,s0,20
800035fc:	01f97613          	andi	a2,s2,31
80003600:	078a                	slli	a5,a5,0x2
80003602:	97ba                	add	a5,a5,a4
80003604:	ca35                	beqz	a2,80003678 <__lshift+0xf4>
80003606:	02000813          	li	a6,32
8000360a:	40c80833          	sub	a6,a6,a2
8000360e:	88b6                	mv	a7,a3
80003610:	4581                	li	a1,0
80003612:	4308                	lw	a0,0(a4)
80003614:	0891                	addi	a7,a7,4
80003616:	0711                	addi	a4,a4,4
80003618:	00c51533          	sll	a0,a0,a2
8000361c:	8dc9                	or	a1,a1,a0
8000361e:	feb8ae23          	sw	a1,-4(a7)
80003622:	ffc72583          	lw	a1,-4(a4)
80003626:	0105d5b3          	srl	a1,a1,a6
8000362a:	fef764e3          	bltu	a4,a5,80003612 <__lshift+0x8e>
8000362e:	01540713          	addi	a4,s0,21
80003632:	4611                	li	a2,4
80003634:	00e7e763          	bltu	a5,a4,80003642 <__lshift+0xbe>
80003638:	8f81                	sub	a5,a5,s0
8000363a:	17ad                	addi	a5,a5,-21
8000363c:	9bf1                	andi	a5,a5,-4
8000363e:	00478613          	addi	a2,a5,4
80003642:	96b2                	add	a3,a3,a2
80003644:	c28c                	sw	a1,0(a3)
80003646:	c199                	beqz	a1,8000364c <__lshift+0xc8>
80003648:	002b0a13          	addi	s4,s6,2
8000364c:	1a7d                	addi	s4,s4,-1
8000364e:	0149a823          	sw	s4,16(s3)
80003652:	8556                	mv	a0,s5
80003654:	85a2                	mv	a1,s0
80003656:	b13ff0ef          	jal	ra,80003168 <_Bfree>
8000365a:	40f2                	lw	ra,28(sp)
8000365c:	4462                	lw	s0,24(sp)
8000365e:	44d2                	lw	s1,20(sp)
80003660:	4942                	lw	s2,16(sp)
80003662:	4a22                	lw	s4,8(sp)
80003664:	4a92                	lw	s5,4(sp)
80003666:	4b02                	lw	s6,0(sp)
80003668:	854e                	mv	a0,s3
8000366a:	49b2                	lw	s3,12(sp)
8000366c:	6105                	addi	sp,sp,32
8000366e:	8082                	ret
80003670:	fe06ae23          	sw	zero,-4(a3)
80003674:	0705                	addi	a4,a4,1
80003676:	b7bd                	j	800035e4 <__lshift+0x60>
80003678:	4310                	lw	a2,0(a4)
8000367a:	0711                	addi	a4,a4,4
8000367c:	0691                	addi	a3,a3,4
8000367e:	fec6ae23          	sw	a2,-4(a3)
80003682:	fef76be3          	bltu	a4,a5,80003678 <__lshift+0xf4>
80003686:	b7d9                	j	8000364c <__lshift+0xc8>

80003688 <__mcmp>:
__mcmp():
80003688:	4914                	lw	a3,16(a0)
8000368a:	4998                	lw	a4,16(a1)
8000368c:	87aa                	mv	a5,a0
8000368e:	40e68533          	sub	a0,a3,a4
80003692:	02e69563          	bne	a3,a4,800036bc <__mcmp+0x34>
80003696:	070a                	slli	a4,a4,0x2
80003698:	07d1                	addi	a5,a5,20
8000369a:	05d1                	addi	a1,a1,20
8000369c:	00e786b3          	add	a3,a5,a4
800036a0:	95ba                	add	a1,a1,a4
800036a2:	16f1                	addi	a3,a3,-4
800036a4:	15f1                	addi	a1,a1,-4
800036a6:	4290                	lw	a2,0(a3)
800036a8:	4198                	lw	a4,0(a1)
800036aa:	00e60763          	beq	a2,a4,800036b8 <__mcmp+0x30>
800036ae:	557d                	li	a0,-1
800036b0:	00e66663          	bltu	a2,a4,800036bc <__mcmp+0x34>
800036b4:	4505                	li	a0,1
800036b6:	8082                	ret
800036b8:	fed7e5e3          	bltu	a5,a3,800036a2 <__mcmp+0x1a>
800036bc:	8082                	ret

800036be <__mdiff>:
__mdiff():
800036be:	1101                	addi	sp,sp,-32
800036c0:	cc22                	sw	s0,24(sp)
800036c2:	842e                	mv	s0,a1
800036c4:	c84a                	sw	s2,16(sp)
800036c6:	85b2                	mv	a1,a2
800036c8:	892a                	mv	s2,a0
800036ca:	8522                	mv	a0,s0
800036cc:	ca26                	sw	s1,20(sp)
800036ce:	ce06                	sw	ra,28(sp)
800036d0:	c64e                	sw	s3,12(sp)
800036d2:	84b2                	mv	s1,a2
800036d4:	3f55                	jal	80003688 <__mcmp>
800036d6:	ed15                	bnez	a0,80003712 <__mdiff+0x54>
800036d8:	4581                	li	a1,0
800036da:	854a                	mv	a0,s2
800036dc:	9fdff0ef          	jal	ra,800030d8 <_Balloc>
800036e0:	ed11                	bnez	a0,800036fc <__mdiff+0x3e>
800036e2:	00004697          	auipc	a3,0x4
800036e6:	92e68693          	addi	a3,a3,-1746 # 80007010 <__extendsfdf2+0x828>
800036ea:	4601                	li	a2,0
800036ec:	23200593          	li	a1,562
800036f0:	00004517          	auipc	a0,0x4
800036f4:	a0050513          	addi	a0,a0,-1536 # 800070f0 <__sf_fake_stdout+0x30>
800036f8:	2d3000ef          	jal	ra,800041ca <__assert_func>
800036fc:	4785                	li	a5,1
800036fe:	c91c                	sw	a5,16(a0)
80003700:	00052a23          	sw	zero,20(a0)
80003704:	40f2                	lw	ra,28(sp)
80003706:	4462                	lw	s0,24(sp)
80003708:	44d2                	lw	s1,20(sp)
8000370a:	4942                	lw	s2,16(sp)
8000370c:	49b2                	lw	s3,12(sp)
8000370e:	6105                	addi	sp,sp,32
80003710:	8082                	ret
80003712:	4985                	li	s3,1
80003714:	00054663          	bltz	a0,80003720 <__mdiff+0x62>
80003718:	87a6                	mv	a5,s1
8000371a:	4981                	li	s3,0
8000371c:	84a2                	mv	s1,s0
8000371e:	843e                	mv	s0,a5
80003720:	40cc                	lw	a1,4(s1)
80003722:	854a                	mv	a0,s2
80003724:	9b5ff0ef          	jal	ra,800030d8 <_Balloc>
80003728:	e909                	bnez	a0,8000373a <__mdiff+0x7c>
8000372a:	00004697          	auipc	a3,0x4
8000372e:	8e668693          	addi	a3,a3,-1818 # 80007010 <__extendsfdf2+0x828>
80003732:	4601                	li	a2,0
80003734:	24000593          	li	a1,576
80003738:	bf65                	j	800036f0 <__mdiff+0x32>
8000373a:	0104a803          	lw	a6,16(s1)
8000373e:	4818                	lw	a4,16(s0)
80003740:	01448893          	addi	a7,s1,20
80003744:	00281693          	slli	a3,a6,0x2
80003748:	01440793          	addi	a5,s0,20
8000374c:	070a                	slli	a4,a4,0x2
8000374e:	6ec1                	lui	t4,0x10
80003750:	01352623          	sw	s3,12(a0)
80003754:	96c6                	add	a3,a3,a7
80003756:	97ba                	add	a5,a5,a4
80003758:	01450613          	addi	a2,a0,20
8000375c:	4e51                	li	t3,20
8000375e:	4301                	li	t1,0
80003760:	1efd                	addi	t4,t4,-1
80003762:	01c48733          	add	a4,s1,t3
80003766:	4318                	lw	a4,0(a4)
80003768:	01c405b3          	add	a1,s0,t3
8000376c:	0005af03          	lw	t5,0(a1) # 10000 <dhry_stubs.c.c3a4eb6e+0xc425>
80003770:	01d775b3          	and	a1,a4,t4
80003774:	959a                	add	a1,a1,t1
80003776:	01df7333          	and	t1,t5,t4
8000377a:	406585b3          	sub	a1,a1,t1
8000377e:	010f5f13          	srli	t5,t5,0x10
80003782:	8341                	srli	a4,a4,0x10
80003784:	4105d313          	srai	t1,a1,0x10
80003788:	41e70733          	sub	a4,a4,t5
8000378c:	971a                	add	a4,a4,t1
8000378e:	41075313          	srai	t1,a4,0x10
80003792:	01d5f5b3          	and	a1,a1,t4
80003796:	0742                	slli	a4,a4,0x10
80003798:	01c50f33          	add	t5,a0,t3
8000379c:	8f4d                	or	a4,a4,a1
8000379e:	0e11                	addi	t3,t3,4
800037a0:	00ef2023          	sw	a4,0(t5)
800037a4:	008e0733          	add	a4,t3,s0
800037a8:	faf76de3          	bltu	a4,a5,80003762 <__mdiff+0xa4>
800037ac:	01540593          	addi	a1,s0,21
800037b0:	4711                	li	a4,4
800037b2:	00b7e763          	bltu	a5,a1,800037c0 <__mdiff+0x102>
800037b6:	8f81                	sub	a5,a5,s0
800037b8:	17ad                	addi	a5,a5,-21
800037ba:	9bf1                	andi	a5,a5,-4
800037bc:	00478713          	addi	a4,a5,4
800037c0:	98ba                	add	a7,a7,a4
800037c2:	6e41                	lui	t3,0x10
800037c4:	9732                	add	a4,a4,a2
800037c6:	8eba                	mv	t4,a4
800037c8:	85c6                	mv	a1,a7
800037ca:	1e7d                	addi	t3,t3,-1
800037cc:	02d5e263          	bltu	a1,a3,800037f0 <__mdiff+0x132>
800037d0:	ffd88613          	addi	a2,a7,-3
800037d4:	4781                	li	a5,0
800037d6:	00c6e663          	bltu	a3,a2,800037e2 <__mdiff+0x124>
800037da:	068d                	addi	a3,a3,3
800037dc:	411687b3          	sub	a5,a3,a7
800037e0:	9bf1                	andi	a5,a5,-4
800037e2:	97ba                	add	a5,a5,a4
800037e4:	17f1                	addi	a5,a5,-4
800037e6:	4398                	lw	a4,0(a5)
800037e8:	c71d                	beqz	a4,80003816 <__mdiff+0x158>
800037ea:	01052823          	sw	a6,16(a0)
800037ee:	bf19                	j	80003704 <__mdiff+0x46>
800037f0:	419c                	lw	a5,0(a1)
800037f2:	0e91                	addi	t4,t4,4
800037f4:	0591                	addi	a1,a1,4
800037f6:	01c7f633          	and	a2,a5,t3
800037fa:	961a                	add	a2,a2,t1
800037fc:	41065313          	srai	t1,a2,0x10
80003800:	83c1                	srli	a5,a5,0x10
80003802:	979a                	add	a5,a5,t1
80003804:	4107d313          	srai	t1,a5,0x10
80003808:	01c67633          	and	a2,a2,t3
8000380c:	07c2                	slli	a5,a5,0x10
8000380e:	8fd1                	or	a5,a5,a2
80003810:	fefeae23          	sw	a5,-4(t4) # fffc <dhry_stubs.c.c3a4eb6e+0xc421>
80003814:	bf65                	j	800037cc <__mdiff+0x10e>
80003816:	187d                	addi	a6,a6,-1
80003818:	b7f1                	j	800037e4 <__mdiff+0x126>

8000381a <__d2b>:
__d2b():
8000381a:	7179                	addi	sp,sp,-48
8000381c:	d226                	sw	s1,36(sp)
8000381e:	84ae                	mv	s1,a1
80003820:	4585                	li	a1,1
80003822:	d422                	sw	s0,40(sp)
80003824:	d04a                	sw	s2,32(sp)
80003826:	ce4e                	sw	s3,28(sp)
80003828:	d606                	sw	ra,44(sp)
8000382a:	cc52                	sw	s4,24(sp)
8000382c:	8432                	mv	s0,a2
8000382e:	89b6                	mv	s3,a3
80003830:	893a                	mv	s2,a4
80003832:	8a7ff0ef          	jal	ra,800030d8 <_Balloc>
80003836:	ed11                	bnez	a0,80003852 <__d2b+0x38>
80003838:	00003697          	auipc	a3,0x3
8000383c:	7d868693          	addi	a3,a3,2008 # 80007010 <__extendsfdf2+0x828>
80003840:	4601                	li	a2,0
80003842:	30a00593          	li	a1,778
80003846:	00004517          	auipc	a0,0x4
8000384a:	8aa50513          	addi	a0,a0,-1878 # 800070f0 <__sf_fake_stdout+0x30>
8000384e:	17d000ef          	jal	ra,800041ca <__assert_func>
80003852:	00100737          	lui	a4,0x100
80003856:	fff70793          	addi	a5,a4,-1 # fffff <dhry_stubs.c.c3a4eb6e+0xfc424>
8000385a:	8fe1                	and	a5,a5,s0
8000385c:	8051                	srli	s0,s0,0x14
8000385e:	7ff47413          	andi	s0,s0,2047
80003862:	8a2a                	mv	s4,a0
80003864:	e035                	bnez	s0,800038c8 <__d2b+0xae>
80003866:	c63e                	sw	a5,12(sp)
80003868:	c4ad                	beqz	s1,800038d2 <__d2b+0xb8>
8000386a:	0028                	addi	a0,sp,8
8000386c:	c426                	sw	s1,8(sp)
8000386e:	a41ff0ef          	jal	ra,800032ae <__lo0bits>
80003872:	46a2                	lw	a3,8(sp)
80003874:	cd21                	beqz	a0,800038cc <__d2b+0xb2>
80003876:	4732                	lw	a4,12(sp)
80003878:	02000793          	li	a5,32
8000387c:	8f89                	sub	a5,a5,a0
8000387e:	00f717b3          	sll	a5,a4,a5
80003882:	8fd5                	or	a5,a5,a3
80003884:	00a75733          	srl	a4,a4,a0
80003888:	00fa2a23          	sw	a5,20(s4)
8000388c:	c63a                	sw	a4,12(sp)
8000388e:	44b2                	lw	s1,12(sp)
80003890:	009a2c23          	sw	s1,24(s4)
80003894:	009034b3          	snez	s1,s1
80003898:	0485                	addi	s1,s1,1
8000389a:	009a2823          	sw	s1,16(s4)
8000389e:	c439                	beqz	s0,800038ec <__d2b+0xd2>
800038a0:	bcd40413          	addi	s0,s0,-1075
800038a4:	942a                	add	s0,s0,a0
800038a6:	03500793          	li	a5,53
800038aa:	0089a023          	sw	s0,0(s3)
800038ae:	40a78533          	sub	a0,a5,a0
800038b2:	00a92023          	sw	a0,0(s2)
800038b6:	50b2                	lw	ra,44(sp)
800038b8:	5422                	lw	s0,40(sp)
800038ba:	5492                	lw	s1,36(sp)
800038bc:	5902                	lw	s2,32(sp)
800038be:	49f2                	lw	s3,28(sp)
800038c0:	8552                	mv	a0,s4
800038c2:	4a62                	lw	s4,24(sp)
800038c4:	6145                	addi	sp,sp,48
800038c6:	8082                	ret
800038c8:	8fd9                	or	a5,a5,a4
800038ca:	bf71                	j	80003866 <__d2b+0x4c>
800038cc:	00da2a23          	sw	a3,20(s4)
800038d0:	bf7d                	j	8000388e <__d2b+0x74>
800038d2:	0068                	addi	a0,sp,12
800038d4:	9dbff0ef          	jal	ra,800032ae <__lo0bits>
800038d8:	47b2                	lw	a5,12(sp)
800038da:	02050513          	addi	a0,a0,32
800038de:	4485                	li	s1,1
800038e0:	00fa2a23          	sw	a5,20(s4)
800038e4:	4785                	li	a5,1
800038e6:	00fa2823          	sw	a5,16(s4)
800038ea:	bf55                	j	8000389e <__d2b+0x84>
800038ec:	bce50793          	addi	a5,a0,-1074
800038f0:	00f9a023          	sw	a5,0(s3)
800038f4:	00249793          	slli	a5,s1,0x2
800038f8:	97d2                	add	a5,a5,s4
800038fa:	4b88                	lw	a0,16(a5)
800038fc:	0496                	slli	s1,s1,0x5
800038fe:	96bff0ef          	jal	ra,80003268 <__hi0bits>
80003902:	8c89                	sub	s1,s1,a0
80003904:	00992023          	sw	s1,0(s2)
80003908:	b77d                	j	800038b6 <__d2b+0x9c>

8000390a <_calloc_r>:
_calloc_r():
8000390a:	02c58633          	mul	a2,a1,a2
8000390e:	1101                	addi	sp,sp,-32
80003910:	cc22                	sw	s0,24(sp)
80003912:	ce06                	sw	ra,28(sp)
80003914:	85b2                	mv	a1,a2
80003916:	c632                	sw	a2,12(sp)
80003918:	286d                	jal	800039d2 <_malloc_r>
8000391a:	842a                	mv	s0,a0
8000391c:	c509                	beqz	a0,80003926 <_calloc_r+0x1c>
8000391e:	4632                	lw	a2,12(sp)
80003920:	4581                	li	a1,0
80003922:	f0eff0ef          	jal	ra,80003030 <memset>
80003926:	40f2                	lw	ra,28(sp)
80003928:	8522                	mv	a0,s0
8000392a:	4462                	lw	s0,24(sp)
8000392c:	6105                	addi	sp,sp,32
8000392e:	8082                	ret

80003930 <_free_r>:
_free_r():
80003930:	c1c5                	beqz	a1,800039d0 <_free_r+0xa0>
80003932:	ffc5a783          	lw	a5,-4(a1)
80003936:	1101                	addi	sp,sp,-32
80003938:	cc22                	sw	s0,24(sp)
8000393a:	ce06                	sw	ra,28(sp)
8000393c:	ffc58413          	addi	s0,a1,-4
80003940:	0007d363          	bgez	a5,80003946 <_free_r+0x16>
80003944:	943e                	add	s0,s0,a5
80003946:	c62a                	sw	a0,12(sp)
80003948:	3e1000ef          	jal	ra,80004528 <__malloc_lock>
8000394c:	8ac18713          	addi	a4,gp,-1876 # 9000027c <__malloc_free_list>
80003950:	431c                	lw	a5,0(a4)
80003952:	4532                	lw	a0,12(sp)
80003954:	eb89                	bnez	a5,80003966 <_free_r+0x36>
80003956:	00042223          	sw	zero,4(s0)
8000395a:	c300                	sw	s0,0(a4)
8000395c:	4462                	lw	s0,24(sp)
8000395e:	40f2                	lw	ra,28(sp)
80003960:	6105                	addi	sp,sp,32
80003962:	3c90006f          	j	8000452a <__malloc_unlock>
80003966:	00f47d63          	bgeu	s0,a5,80003980 <_free_r+0x50>
8000396a:	4010                	lw	a2,0(s0)
8000396c:	00c406b3          	add	a3,s0,a2
80003970:	00d79663          	bne	a5,a3,8000397c <_free_r+0x4c>
80003974:	4394                	lw	a3,0(a5)
80003976:	43dc                	lw	a5,4(a5)
80003978:	96b2                	add	a3,a3,a2
8000397a:	c014                	sw	a3,0(s0)
8000397c:	c05c                	sw	a5,4(s0)
8000397e:	bff1                	j	8000395a <_free_r+0x2a>
80003980:	873e                	mv	a4,a5
80003982:	43dc                	lw	a5,4(a5)
80003984:	c399                	beqz	a5,8000398a <_free_r+0x5a>
80003986:	fef47de3          	bgeu	s0,a5,80003980 <_free_r+0x50>
8000398a:	4314                	lw	a3,0(a4)
8000398c:	00d70633          	add	a2,a4,a3
80003990:	00861f63          	bne	a2,s0,800039ae <_free_r+0x7e>
80003994:	4010                	lw	a2,0(s0)
80003996:	96b2                	add	a3,a3,a2
80003998:	c314                	sw	a3,0(a4)
8000399a:	00d70633          	add	a2,a4,a3
8000399e:	fac79fe3          	bne	a5,a2,8000395c <_free_r+0x2c>
800039a2:	4390                	lw	a2,0(a5)
800039a4:	43dc                	lw	a5,4(a5)
800039a6:	96b2                	add	a3,a3,a2
800039a8:	c314                	sw	a3,0(a4)
800039aa:	c35c                	sw	a5,4(a4)
800039ac:	bf45                	j	8000395c <_free_r+0x2c>
800039ae:	00c47563          	bgeu	s0,a2,800039b8 <_free_r+0x88>
800039b2:	47b1                	li	a5,12
800039b4:	c11c                	sw	a5,0(a0)
800039b6:	b75d                	j	8000395c <_free_r+0x2c>
800039b8:	4010                	lw	a2,0(s0)
800039ba:	00c406b3          	add	a3,s0,a2
800039be:	00d79663          	bne	a5,a3,800039ca <_free_r+0x9a>
800039c2:	4394                	lw	a3,0(a5)
800039c4:	43dc                	lw	a5,4(a5)
800039c6:	96b2                	add	a3,a3,a2
800039c8:	c014                	sw	a3,0(s0)
800039ca:	c05c                	sw	a5,4(s0)
800039cc:	c340                	sw	s0,4(a4)
800039ce:	b779                	j	8000395c <_free_r+0x2c>
800039d0:	8082                	ret

800039d2 <_malloc_r>:
_malloc_r():
800039d2:	1101                	addi	sp,sp,-32
800039d4:	ca26                	sw	s1,20(sp)
800039d6:	00358493          	addi	s1,a1,3
800039da:	98f1                	andi	s1,s1,-4
800039dc:	c84a                	sw	s2,16(sp)
800039de:	ce06                	sw	ra,28(sp)
800039e0:	cc22                	sw	s0,24(sp)
800039e2:	c64e                	sw	s3,12(sp)
800039e4:	04a1                	addi	s1,s1,8
800039e6:	47b1                	li	a5,12
800039e8:	892a                	mv	s2,a0
800039ea:	04f4f263          	bgeu	s1,a5,80003a2e <_malloc_r+0x5c>
800039ee:	44b1                	li	s1,12
800039f0:	04b4e163          	bltu	s1,a1,80003a32 <_malloc_r+0x60>
800039f4:	854a                	mv	a0,s2
800039f6:	333000ef          	jal	ra,80004528 <__malloc_lock>
800039fa:	8ac18693          	addi	a3,gp,-1876 # 9000027c <__malloc_free_list>
800039fe:	4298                	lw	a4,0(a3)
80003a00:	843a                	mv	s0,a4
80003a02:	e039                	bnez	s0,80003a48 <_malloc_r+0x76>
80003a04:	8b018413          	addi	s0,gp,-1872 # 90000280 <__malloc_sbrk_start>
80003a08:	401c                	lw	a5,0(s0)
80003a0a:	e789                	bnez	a5,80003a14 <_malloc_r+0x42>
80003a0c:	4581                	li	a1,0
80003a0e:	854a                	mv	a0,s2
80003a10:	2e79                	jal	80003dae <_sbrk_r>
80003a12:	c008                	sw	a0,0(s0)
80003a14:	85a6                	mv	a1,s1
80003a16:	854a                	mv	a0,s2
80003a18:	2e59                	jal	80003dae <_sbrk_r>
80003a1a:	59fd                	li	s3,-1
80003a1c:	07351a63          	bne	a0,s3,80003a90 <_malloc_r+0xbe>
80003a20:	47b1                	li	a5,12
80003a22:	00f92023          	sw	a5,0(s2)
80003a26:	854a                	mv	a0,s2
80003a28:	303000ef          	jal	ra,8000452a <__malloc_unlock>
80003a2c:	a031                	j	80003a38 <_malloc_r+0x66>
80003a2e:	fc04d1e3          	bgez	s1,800039f0 <_malloc_r+0x1e>
80003a32:	47b1                	li	a5,12
80003a34:	00f92023          	sw	a5,0(s2)
80003a38:	4501                	li	a0,0
80003a3a:	40f2                	lw	ra,28(sp)
80003a3c:	4462                	lw	s0,24(sp)
80003a3e:	44d2                	lw	s1,20(sp)
80003a40:	4942                	lw	s2,16(sp)
80003a42:	49b2                	lw	s3,12(sp)
80003a44:	6105                	addi	sp,sp,32
80003a46:	8082                	ret
80003a48:	401c                	lw	a5,0(s0)
80003a4a:	8f85                	sub	a5,a5,s1
80003a4c:	0207cf63          	bltz	a5,80003a8a <_malloc_r+0xb8>
80003a50:	462d                	li	a2,11
80003a52:	00f67663          	bgeu	a2,a5,80003a5e <_malloc_r+0x8c>
80003a56:	c01c                	sw	a5,0(s0)
80003a58:	943e                	add	s0,s0,a5
80003a5a:	c004                	sw	s1,0(s0)
80003a5c:	a029                	j	80003a66 <_malloc_r+0x94>
80003a5e:	405c                	lw	a5,4(s0)
80003a60:	02871363          	bne	a4,s0,80003a86 <_malloc_r+0xb4>
80003a64:	c29c                	sw	a5,0(a3)
80003a66:	854a                	mv	a0,s2
80003a68:	2c3000ef          	jal	ra,8000452a <__malloc_unlock>
80003a6c:	00b40513          	addi	a0,s0,11
80003a70:	00440793          	addi	a5,s0,4
80003a74:	9961                	andi	a0,a0,-8
80003a76:	40f50733          	sub	a4,a0,a5
80003a7a:	fcf500e3          	beq	a0,a5,80003a3a <_malloc_r+0x68>
80003a7e:	943a                	add	s0,s0,a4
80003a80:	8f89                	sub	a5,a5,a0
80003a82:	c01c                	sw	a5,0(s0)
80003a84:	bf5d                	j	80003a3a <_malloc_r+0x68>
80003a86:	c35c                	sw	a5,4(a4)
80003a88:	bff9                	j	80003a66 <_malloc_r+0x94>
80003a8a:	8722                	mv	a4,s0
80003a8c:	4040                	lw	s0,4(s0)
80003a8e:	bf95                	j	80003a02 <_malloc_r+0x30>
80003a90:	00350413          	addi	s0,a0,3
80003a94:	9871                	andi	s0,s0,-4
80003a96:	fc8502e3          	beq	a0,s0,80003a5a <_malloc_r+0x88>
80003a9a:	40a405b3          	sub	a1,s0,a0
80003a9e:	854a                	mv	a0,s2
80003aa0:	2639                	jal	80003dae <_sbrk_r>
80003aa2:	fb351ce3          	bne	a0,s3,80003a5a <_malloc_r+0x88>
80003aa6:	bfad                	j	80003a20 <_malloc_r+0x4e>

80003aa8 <__sfputc_r>:
__sfputc_r():
80003aa8:	461c                	lw	a5,8(a2)
80003aaa:	17fd                	addi	a5,a5,-1
80003aac:	c61c                	sw	a5,8(a2)
80003aae:	0007d963          	bgez	a5,80003ac0 <__sfputc_r+0x18>
80003ab2:	4e18                	lw	a4,24(a2)
80003ab4:	00e7c563          	blt	a5,a4,80003abe <__sfputc_r+0x16>
80003ab8:	47a9                	li	a5,10
80003aba:	00f59363          	bne	a1,a5,80003ac0 <__sfputc_r+0x18>
80003abe:	a9c5                	j	80003fae <__swbuf_r>
80003ac0:	421c                	lw	a5,0(a2)
80003ac2:	852e                	mv	a0,a1
80003ac4:	00178713          	addi	a4,a5,1
80003ac8:	c218                	sw	a4,0(a2)
80003aca:	00b78023          	sb	a1,0(a5)
80003ace:	8082                	ret

80003ad0 <__sfputs_r>:
__sfputs_r():
80003ad0:	1101                	addi	sp,sp,-32
80003ad2:	cc22                	sw	s0,24(sp)
80003ad4:	ca26                	sw	s1,20(sp)
80003ad6:	c84a                	sw	s2,16(sp)
80003ad8:	c64e                	sw	s3,12(sp)
80003ada:	c452                	sw	s4,8(sp)
80003adc:	ce06                	sw	ra,28(sp)
80003ade:	892a                	mv	s2,a0
80003ae0:	89ae                	mv	s3,a1
80003ae2:	8432                	mv	s0,a2
80003ae4:	00d604b3          	add	s1,a2,a3
80003ae8:	5a7d                	li	s4,-1
80003aea:	00941463          	bne	s0,s1,80003af2 <__sfputs_r+0x22>
80003aee:	4501                	li	a0,0
80003af0:	a809                	j	80003b02 <__sfputs_r+0x32>
80003af2:	00044583          	lbu	a1,0(s0)
80003af6:	864e                	mv	a2,s3
80003af8:	854a                	mv	a0,s2
80003afa:	377d                	jal	80003aa8 <__sfputc_r>
80003afc:	0405                	addi	s0,s0,1
80003afe:	ff4516e3          	bne	a0,s4,80003aea <__sfputs_r+0x1a>
80003b02:	40f2                	lw	ra,28(sp)
80003b04:	4462                	lw	s0,24(sp)
80003b06:	44d2                	lw	s1,20(sp)
80003b08:	4942                	lw	s2,16(sp)
80003b0a:	49b2                	lw	s3,12(sp)
80003b0c:	4a22                	lw	s4,8(sp)
80003b0e:	6105                	addi	sp,sp,32
80003b10:	8082                	ret

80003b12 <_vfiprintf_r>:
_vfiprintf_r():
80003b12:	7135                	addi	sp,sp,-160
80003b14:	cd22                	sw	s0,152(sp)
80003b16:	cb26                	sw	s1,148(sp)
80003b18:	c94a                	sw	s2,144(sp)
80003b1a:	c74e                	sw	s3,140(sp)
80003b1c:	cf06                	sw	ra,156(sp)
80003b1e:	c552                	sw	s4,136(sp)
80003b20:	c356                	sw	s5,132(sp)
80003b22:	c15a                	sw	s6,128(sp)
80003b24:	dede                	sw	s7,124(sp)
80003b26:	dce2                	sw	s8,120(sp)
80003b28:	dae6                	sw	s9,116(sp)
80003b2a:	89aa                	mv	s3,a0
80003b2c:	84ae                	mv	s1,a1
80003b2e:	8932                	mv	s2,a2
80003b30:	8436                	mv	s0,a3
80003b32:	c509                	beqz	a0,80003b3c <_vfiprintf_r+0x2a>
80003b34:	4d1c                	lw	a5,24(a0)
80003b36:	e399                	bnez	a5,80003b3c <_vfiprintf_r+0x2a>
80003b38:	a50ff0ef          	jal	ra,80002d88 <__sinit>
80003b3c:	00003797          	auipc	a5,0x3
80003b40:	56478793          	addi	a5,a5,1380 # 800070a0 <__sf_fake_stdin>
80003b44:	0cf49c63          	bne	s1,a5,80003c1c <_vfiprintf_r+0x10a>
80003b48:	0049a483          	lw	s1,4(s3)
80003b4c:	00c4d783          	lhu	a5,12(s1)
80003b50:	8ba1                	andi	a5,a5,8
80003b52:	c7fd                	beqz	a5,80003c40 <_vfiprintf_r+0x12e>
80003b54:	489c                	lw	a5,16(s1)
80003b56:	c7ed                	beqz	a5,80003c40 <_vfiprintf_r+0x12e>
80003b58:	02000793          	li	a5,32
80003b5c:	02f104a3          	sb	a5,41(sp)
80003b60:	03000793          	li	a5,48
80003b64:	d202                	sw	zero,36(sp)
80003b66:	02f10523          	sb	a5,42(sp)
80003b6a:	c622                	sw	s0,12(sp)
80003b6c:	02500b93          	li	s7,37
80003b70:	00003a97          	auipc	s5,0x3
80003b74:	6dca8a93          	addi	s5,s5,1756 # 8000724c <p05.0+0xc>
80003b78:	4c05                	li	s8,1
80003b7a:	4b29                	li	s6,10
80003b7c:	844a                	mv	s0,s2
80003b7e:	00044783          	lbu	a5,0(s0)
80003b82:	c399                	beqz	a5,80003b88 <_vfiprintf_r+0x76>
80003b84:	0f779063          	bne	a5,s7,80003c64 <_vfiprintf_r+0x152>
80003b88:	41240cb3          	sub	s9,s0,s2
80003b8c:	01240d63          	beq	s0,s2,80003ba6 <_vfiprintf_r+0x94>
80003b90:	86e6                	mv	a3,s9
80003b92:	864a                	mv	a2,s2
80003b94:	85a6                	mv	a1,s1
80003b96:	854e                	mv	a0,s3
80003b98:	3f25                	jal	80003ad0 <__sfputs_r>
80003b9a:	57fd                	li	a5,-1
80003b9c:	1ef50663          	beq	a0,a5,80003d88 <_vfiprintf_r+0x276>
80003ba0:	5792                	lw	a5,36(sp)
80003ba2:	97e6                	add	a5,a5,s9
80003ba4:	d23e                	sw	a5,36(sp)
80003ba6:	00044783          	lbu	a5,0(s0)
80003baa:	1c078f63          	beqz	a5,80003d88 <_vfiprintf_r+0x276>
80003bae:	57fd                	li	a5,-1
80003bb0:	00140913          	addi	s2,s0,1
80003bb4:	c802                	sw	zero,16(sp)
80003bb6:	ce02                	sw	zero,28(sp)
80003bb8:	ca3e                	sw	a5,20(sp)
80003bba:	cc02                	sw	zero,24(sp)
80003bbc:	040109a3          	sb	zero,83(sp)
80003bc0:	d482                	sw	zero,104(sp)
80003bc2:	00094583          	lbu	a1,0(s2)
80003bc6:	4615                	li	a2,5
80003bc8:	8556                	mv	a0,s5
80003bca:	b78ff0ef          	jal	ra,80002f42 <memchr>
80003bce:	47c2                	lw	a5,16(sp)
80003bd0:	00190413          	addi	s0,s2,1
80003bd4:	e951                	bnez	a0,80003c68 <_vfiprintf_r+0x156>
80003bd6:	0107f713          	andi	a4,a5,16
80003bda:	c709                	beqz	a4,80003be4 <_vfiprintf_r+0xd2>
80003bdc:	02000713          	li	a4,32
80003be0:	04e109a3          	sb	a4,83(sp)
80003be4:	0087f713          	andi	a4,a5,8
80003be8:	c709                	beqz	a4,80003bf2 <_vfiprintf_r+0xe0>
80003bea:	02b00713          	li	a4,43
80003bee:	04e109a3          	sb	a4,83(sp)
80003bf2:	00094683          	lbu	a3,0(s2)
80003bf6:	02a00713          	li	a4,42
80003bfa:	06e68f63          	beq	a3,a4,80003c78 <_vfiprintf_r+0x166>
80003bfe:	47f2                	lw	a5,28(sp)
80003c00:	844a                	mv	s0,s2
80003c02:	4681                	li	a3,0
80003c04:	4625                	li	a2,9
80003c06:	00044703          	lbu	a4,0(s0)
80003c0a:	00140593          	addi	a1,s0,1
80003c0e:	fd070713          	addi	a4,a4,-48
80003c12:	0ae67863          	bgeu	a2,a4,80003cc2 <_vfiprintf_r+0x1b0>
80003c16:	caad                	beqz	a3,80003c88 <_vfiprintf_r+0x176>
80003c18:	ce3e                	sw	a5,28(sp)
80003c1a:	a0bd                	j	80003c88 <_vfiprintf_r+0x176>
80003c1c:	00003797          	auipc	a5,0x3
80003c20:	4a478793          	addi	a5,a5,1188 # 800070c0 <__sf_fake_stdout>
80003c24:	00f49563          	bne	s1,a5,80003c2e <_vfiprintf_r+0x11c>
80003c28:	0089a483          	lw	s1,8(s3)
80003c2c:	b705                	j	80003b4c <_vfiprintf_r+0x3a>
80003c2e:	00003797          	auipc	a5,0x3
80003c32:	45278793          	addi	a5,a5,1106 # 80007080 <__sf_fake_stderr>
80003c36:	f0f49be3          	bne	s1,a5,80003b4c <_vfiprintf_r+0x3a>
80003c3a:	00c9a483          	lw	s1,12(s3)
80003c3e:	b739                	j	80003b4c <_vfiprintf_r+0x3a>
80003c40:	85a6                	mv	a1,s1
80003c42:	854e                	mv	a0,s3
80003c44:	29a5                	jal	800040bc <__swsetup_r>
80003c46:	d909                	beqz	a0,80003b58 <_vfiprintf_r+0x46>
80003c48:	557d                	li	a0,-1
80003c4a:	40fa                	lw	ra,156(sp)
80003c4c:	446a                	lw	s0,152(sp)
80003c4e:	44da                	lw	s1,148(sp)
80003c50:	494a                	lw	s2,144(sp)
80003c52:	49ba                	lw	s3,140(sp)
80003c54:	4a2a                	lw	s4,136(sp)
80003c56:	4a9a                	lw	s5,132(sp)
80003c58:	4b0a                	lw	s6,128(sp)
80003c5a:	5bf6                	lw	s7,124(sp)
80003c5c:	5c66                	lw	s8,120(sp)
80003c5e:	5cd6                	lw	s9,116(sp)
80003c60:	610d                	addi	sp,sp,160
80003c62:	8082                	ret
80003c64:	0405                	addi	s0,s0,1
80003c66:	bf21                	j	80003b7e <_vfiprintf_r+0x6c>
80003c68:	41550533          	sub	a0,a0,s5
80003c6c:	00ac1533          	sll	a0,s8,a0
80003c70:	8fc9                	or	a5,a5,a0
80003c72:	c83e                	sw	a5,16(sp)
80003c74:	8922                	mv	s2,s0
80003c76:	b7b1                	j	80003bc2 <_vfiprintf_r+0xb0>
80003c78:	4732                	lw	a4,12(sp)
80003c7a:	00470693          	addi	a3,a4,4
80003c7e:	4318                	lw	a4,0(a4)
80003c80:	c636                	sw	a3,12(sp)
80003c82:	02074963          	bltz	a4,80003cb4 <_vfiprintf_r+0x1a2>
80003c86:	ce3a                	sw	a4,28(sp)
80003c88:	00044703          	lbu	a4,0(s0)
80003c8c:	02e00793          	li	a5,46
80003c90:	04f71f63          	bne	a4,a5,80003cee <_vfiprintf_r+0x1dc>
80003c94:	00144703          	lbu	a4,1(s0)
80003c98:	02a00793          	li	a5,42
80003c9c:	02f71b63          	bne	a4,a5,80003cd2 <_vfiprintf_r+0x1c0>
80003ca0:	47b2                	lw	a5,12(sp)
80003ca2:	0409                	addi	s0,s0,2
80003ca4:	00478713          	addi	a4,a5,4
80003ca8:	439c                	lw	a5,0(a5)
80003caa:	c63a                	sw	a4,12(sp)
80003cac:	0207c163          	bltz	a5,80003cce <_vfiprintf_r+0x1bc>
80003cb0:	ca3e                	sw	a5,20(sp)
80003cb2:	a835                	j	80003cee <_vfiprintf_r+0x1dc>
80003cb4:	40e00733          	neg	a4,a4
80003cb8:	0027e793          	ori	a5,a5,2
80003cbc:	ce3a                	sw	a4,28(sp)
80003cbe:	c83e                	sw	a5,16(sp)
80003cc0:	b7e1                	j	80003c88 <_vfiprintf_r+0x176>
80003cc2:	036787b3          	mul	a5,a5,s6
80003cc6:	842e                	mv	s0,a1
80003cc8:	4685                	li	a3,1
80003cca:	97ba                	add	a5,a5,a4
80003ccc:	bf2d                	j	80003c06 <_vfiprintf_r+0xf4>
80003cce:	57fd                	li	a5,-1
80003cd0:	b7c5                	j	80003cb0 <_vfiprintf_r+0x19e>
80003cd2:	0405                	addi	s0,s0,1
80003cd4:	ca02                	sw	zero,20(sp)
80003cd6:	4681                	li	a3,0
80003cd8:	4781                	li	a5,0
80003cda:	4625                	li	a2,9
80003cdc:	00044703          	lbu	a4,0(s0)
80003ce0:	00140593          	addi	a1,s0,1
80003ce4:	fd070713          	addi	a4,a4,-48
80003ce8:	06e67863          	bgeu	a2,a4,80003d58 <_vfiprintf_r+0x246>
80003cec:	f2f1                	bnez	a3,80003cb0 <_vfiprintf_r+0x19e>
80003cee:	00044583          	lbu	a1,0(s0)
80003cf2:	460d                	li	a2,3
80003cf4:	00003517          	auipc	a0,0x3
80003cf8:	56050513          	addi	a0,a0,1376 # 80007254 <p05.0+0x14>
80003cfc:	a46ff0ef          	jal	ra,80002f42 <memchr>
80003d00:	cd11                	beqz	a0,80003d1c <_vfiprintf_r+0x20a>
80003d02:	00003797          	auipc	a5,0x3
80003d06:	55278793          	addi	a5,a5,1362 # 80007254 <p05.0+0x14>
80003d0a:	8d1d                	sub	a0,a0,a5
80003d0c:	04000793          	li	a5,64
80003d10:	00a797b3          	sll	a5,a5,a0
80003d14:	4542                	lw	a0,16(sp)
80003d16:	0405                	addi	s0,s0,1
80003d18:	8d5d                	or	a0,a0,a5
80003d1a:	c82a                	sw	a0,16(sp)
80003d1c:	00044583          	lbu	a1,0(s0)
80003d20:	4619                	li	a2,6
80003d22:	00003517          	auipc	a0,0x3
80003d26:	53650513          	addi	a0,a0,1334 # 80007258 <p05.0+0x18>
80003d2a:	00140913          	addi	s2,s0,1
80003d2e:	02b10423          	sb	a1,40(sp)
80003d32:	a10ff0ef          	jal	ra,80002f42 <memchr>
80003d36:	c12d                	beqz	a0,80003d98 <_vfiprintf_r+0x286>
80003d38:	ffffe797          	auipc	a5,0xffffe
80003d3c:	90e78793          	addi	a5,a5,-1778 # 80001646 <_printf_float>
80003d40:	e795                	bnez	a5,80003d6c <_vfiprintf_r+0x25a>
80003d42:	4742                	lw	a4,16(sp)
80003d44:	47b2                	lw	a5,12(sp)
80003d46:	10077713          	andi	a4,a4,256
80003d4a:	cf09                	beqz	a4,80003d64 <_vfiprintf_r+0x252>
80003d4c:	0791                	addi	a5,a5,4
80003d4e:	c63e                	sw	a5,12(sp)
80003d50:	5792                	lw	a5,36(sp)
80003d52:	97d2                	add	a5,a5,s4
80003d54:	d23e                	sw	a5,36(sp)
80003d56:	b51d                	j	80003b7c <_vfiprintf_r+0x6a>
80003d58:	036787b3          	mul	a5,a5,s6
80003d5c:	842e                	mv	s0,a1
80003d5e:	4685                	li	a3,1
80003d60:	97ba                	add	a5,a5,a4
80003d62:	bfad                	j	80003cdc <_vfiprintf_r+0x1ca>
80003d64:	079d                	addi	a5,a5,7
80003d66:	9be1                	andi	a5,a5,-8
80003d68:	07a1                	addi	a5,a5,8
80003d6a:	b7d5                	j	80003d4e <_vfiprintf_r+0x23c>
80003d6c:	0078                	addi	a4,sp,12
80003d6e:	00000697          	auipc	a3,0x0
80003d72:	d6268693          	addi	a3,a3,-670 # 80003ad0 <__sfputs_r>
80003d76:	8626                	mv	a2,s1
80003d78:	080c                	addi	a1,sp,16
80003d7a:	854e                	mv	a0,s3
80003d7c:	8cbfd0ef          	jal	ra,80001646 <_printf_float>
80003d80:	57fd                	li	a5,-1
80003d82:	8a2a                	mv	s4,a0
80003d84:	fcf516e3          	bne	a0,a5,80003d50 <_vfiprintf_r+0x23e>
80003d88:	00c4d783          	lhu	a5,12(s1)
80003d8c:	0407f793          	andi	a5,a5,64
80003d90:	ea079ce3          	bnez	a5,80003c48 <_vfiprintf_r+0x136>
80003d94:	5512                	lw	a0,36(sp)
80003d96:	bd55                	j	80003c4a <_vfiprintf_r+0x138>
80003d98:	0078                	addi	a4,sp,12
80003d9a:	00000697          	auipc	a3,0x0
80003d9e:	d3668693          	addi	a3,a3,-714 # 80003ad0 <__sfputs_r>
80003da2:	8626                	mv	a2,s1
80003da4:	080c                	addi	a1,sp,16
80003da6:	854e                	mv	a0,s3
80003da8:	e8dfd0ef          	jal	ra,80001c34 <_printf_i>
80003dac:	bfd1                	j	80003d80 <_vfiprintf_r+0x26e>

80003dae <_sbrk_r>:
_sbrk_r():
80003dae:	1141                	addi	sp,sp,-16
80003db0:	c422                	sw	s0,8(sp)
80003db2:	842a                	mv	s0,a0
80003db4:	852e                	mv	a0,a1
80003db6:	8a01a223          	sw	zero,-1884(gp) # 90000274 <errno>
80003dba:	c606                	sw	ra,12(sp)
80003dbc:	8e0fd0ef          	jal	ra,80000e9c <_sbrk>
80003dc0:	57fd                	li	a5,-1
80003dc2:	00f51663          	bne	a0,a5,80003dce <_sbrk_r+0x20>
80003dc6:	8a41a783          	lw	a5,-1884(gp) # 90000274 <errno>
80003dca:	c391                	beqz	a5,80003dce <_sbrk_r+0x20>
80003dcc:	c01c                	sw	a5,0(s0)
80003dce:	40b2                	lw	ra,12(sp)
80003dd0:	4422                	lw	s0,8(sp)
80003dd2:	0141                	addi	sp,sp,16
80003dd4:	8082                	ret

80003dd6 <__sread>:
__sread():
80003dd6:	1141                	addi	sp,sp,-16
80003dd8:	c422                	sw	s0,8(sp)
80003dda:	842e                	mv	s0,a1
80003ddc:	00e59583          	lh	a1,14(a1)
80003de0:	c606                	sw	ra,12(sp)
80003de2:	27a9                	jal	8000452c <_read_r>
80003de4:	00054963          	bltz	a0,80003df6 <__sread+0x20>
80003de8:	487c                	lw	a5,84(s0)
80003dea:	97aa                	add	a5,a5,a0
80003dec:	c87c                	sw	a5,84(s0)
80003dee:	40b2                	lw	ra,12(sp)
80003df0:	4422                	lw	s0,8(sp)
80003df2:	0141                	addi	sp,sp,16
80003df4:	8082                	ret
80003df6:	00c45783          	lhu	a5,12(s0)
80003dfa:	777d                	lui	a4,0xfffff
80003dfc:	177d                	addi	a4,a4,-1
80003dfe:	8ff9                	and	a5,a5,a4
80003e00:	00f41623          	sh	a5,12(s0)
80003e04:	b7ed                	j	80003dee <__sread+0x18>

80003e06 <__swrite>:
__swrite():
80003e06:	00c5d783          	lhu	a5,12(a1)
80003e0a:	1101                	addi	sp,sp,-32
80003e0c:	cc22                	sw	s0,24(sp)
80003e0e:	ca26                	sw	s1,20(sp)
80003e10:	c84a                	sw	s2,16(sp)
80003e12:	c64e                	sw	s3,12(sp)
80003e14:	ce06                	sw	ra,28(sp)
80003e16:	1007f793          	andi	a5,a5,256
80003e1a:	84aa                	mv	s1,a0
80003e1c:	842e                	mv	s0,a1
80003e1e:	8932                	mv	s2,a2
80003e20:	89b6                	mv	s3,a3
80003e22:	c791                	beqz	a5,80003e2e <__swrite+0x28>
80003e24:	00e59583          	lh	a1,14(a1)
80003e28:	4689                	li	a3,2
80003e2a:	4601                	li	a2,0
80003e2c:	2be1                	jal	80004404 <_lseek_r>
80003e2e:	00c45783          	lhu	a5,12(s0)
80003e32:	777d                	lui	a4,0xfffff
80003e34:	177d                	addi	a4,a4,-1
80003e36:	8ff9                	and	a5,a5,a4
80003e38:	00e41583          	lh	a1,14(s0)
80003e3c:	00f41623          	sh	a5,12(s0)
80003e40:	4462                	lw	s0,24(sp)
80003e42:	40f2                	lw	ra,28(sp)
80003e44:	86ce                	mv	a3,s3
80003e46:	864a                	mv	a2,s2
80003e48:	49b2                	lw	s3,12(sp)
80003e4a:	4942                	lw	s2,16(sp)
80003e4c:	8526                	mv	a0,s1
80003e4e:	44d2                	lw	s1,20(sp)
80003e50:	6105                	addi	sp,sp,32
80003e52:	ac3d                	j	80004090 <_write_r>

80003e54 <__sseek>:
__sseek():
80003e54:	1141                	addi	sp,sp,-16
80003e56:	c422                	sw	s0,8(sp)
80003e58:	842e                	mv	s0,a1
80003e5a:	00e59583          	lh	a1,14(a1)
80003e5e:	c606                	sw	ra,12(sp)
80003e60:	2355                	jal	80004404 <_lseek_r>
80003e62:	57fd                	li	a5,-1
80003e64:	00c45703          	lhu	a4,12(s0)
80003e68:	00f51b63          	bne	a0,a5,80003e7e <__sseek+0x2a>
80003e6c:	77fd                	lui	a5,0xfffff
80003e6e:	17fd                	addi	a5,a5,-1
80003e70:	8ff9                	and	a5,a5,a4
80003e72:	00f41623          	sh	a5,12(s0)
80003e76:	40b2                	lw	ra,12(sp)
80003e78:	4422                	lw	s0,8(sp)
80003e7a:	0141                	addi	sp,sp,16
80003e7c:	8082                	ret
80003e7e:	6785                	lui	a5,0x1
80003e80:	8fd9                	or	a5,a5,a4
80003e82:	00f41623          	sh	a5,12(s0)
80003e86:	c868                	sw	a0,84(s0)
80003e88:	b7fd                	j	80003e76 <__sseek+0x22>

80003e8a <__sclose>:
__sclose():
80003e8a:	00e59583          	lh	a1,14(a1)
80003e8e:	ae9d                	j	80004204 <_close_r>

80003e90 <strcmp>:
strcmp():
80003e90:	00b56733          	or	a4,a0,a1
80003e94:	53fd                	li	t2,-1
80003e96:	8b0d                	andi	a4,a4,3
80003e98:	e779                	bnez	a4,80003f66 <strcmp+0xd6>
80003e9a:	7f7f87b7          	lui	a5,0x7f7f8
80003e9e:	f7f78793          	addi	a5,a5,-129 # 7f7f7f7f <dhry_stubs.c.c3a4eb6e+0x7f7f43a4>
80003ea2:	4110                	lw	a2,0(a0)
80003ea4:	4194                	lw	a3,0(a1)
80003ea6:	00f672b3          	and	t0,a2,a5
80003eaa:	00f66333          	or	t1,a2,a5
80003eae:	92be                	add	t0,t0,a5
80003eb0:	0062e2b3          	or	t0,t0,t1
80003eb4:	0c729763          	bne	t0,t2,80003f82 <strcmp+0xf2>
80003eb8:	06d61863          	bne	a2,a3,80003f28 <strcmp+0x98>
80003ebc:	4150                	lw	a2,4(a0)
80003ebe:	41d4                	lw	a3,4(a1)
80003ec0:	00f672b3          	and	t0,a2,a5
80003ec4:	00f66333          	or	t1,a2,a5
80003ec8:	92be                	add	t0,t0,a5
80003eca:	0062e2b3          	or	t0,t0,t1
80003ece:	0a729863          	bne	t0,t2,80003f7e <strcmp+0xee>
80003ed2:	04d61b63          	bne	a2,a3,80003f28 <strcmp+0x98>
80003ed6:	4510                	lw	a2,8(a0)
80003ed8:	4594                	lw	a3,8(a1)
80003eda:	00f672b3          	and	t0,a2,a5
80003ede:	00f66333          	or	t1,a2,a5
80003ee2:	92be                	add	t0,t0,a5
80003ee4:	0062e2b3          	or	t0,t0,t1
80003ee8:	0a729163          	bne	t0,t2,80003f8a <strcmp+0xfa>
80003eec:	02d61e63          	bne	a2,a3,80003f28 <strcmp+0x98>
80003ef0:	4550                	lw	a2,12(a0)
80003ef2:	45d4                	lw	a3,12(a1)
80003ef4:	00f672b3          	and	t0,a2,a5
80003ef8:	00f66333          	or	t1,a2,a5
80003efc:	92be                	add	t0,t0,a5
80003efe:	0062e2b3          	or	t0,t0,t1
80003f02:	08729a63          	bne	t0,t2,80003f96 <strcmp+0x106>
80003f06:	02d61163          	bne	a2,a3,80003f28 <strcmp+0x98>
80003f0a:	4910                	lw	a2,16(a0)
80003f0c:	4994                	lw	a3,16(a1)
80003f0e:	00f672b3          	and	t0,a2,a5
80003f12:	00f66333          	or	t1,a2,a5
80003f16:	92be                	add	t0,t0,a5
80003f18:	0062e2b3          	or	t0,t0,t1
80003f1c:	08729363          	bne	t0,t2,80003fa2 <strcmp+0x112>
80003f20:	0551                	addi	a0,a0,20
80003f22:	05d1                	addi	a1,a1,20
80003f24:	f6d60fe3          	beq	a2,a3,80003ea2 <strcmp+0x12>
80003f28:	01061713          	slli	a4,a2,0x10
80003f2c:	01069793          	slli	a5,a3,0x10
80003f30:	00f71c63          	bne	a4,a5,80003f48 <strcmp+0xb8>
80003f34:	01065713          	srli	a4,a2,0x10
80003f38:	0106d793          	srli	a5,a3,0x10
80003f3c:	40f70533          	sub	a0,a4,a5
80003f40:	0ff57593          	andi	a1,a0,255
80003f44:	e991                	bnez	a1,80003f58 <strcmp+0xc8>
80003f46:	8082                	ret
80003f48:	8341                	srli	a4,a4,0x10
80003f4a:	83c1                	srli	a5,a5,0x10
80003f4c:	40f70533          	sub	a0,a4,a5
80003f50:	0ff57593          	andi	a1,a0,255
80003f54:	e191                	bnez	a1,80003f58 <strcmp+0xc8>
80003f56:	8082                	ret
80003f58:	0ff77713          	andi	a4,a4,255
80003f5c:	0ff7f793          	andi	a5,a5,255
80003f60:	40f70533          	sub	a0,a4,a5
80003f64:	8082                	ret
80003f66:	00054603          	lbu	a2,0(a0)
80003f6a:	0005c683          	lbu	a3,0(a1)
80003f6e:	0505                	addi	a0,a0,1
80003f70:	0585                	addi	a1,a1,1
80003f72:	00d61363          	bne	a2,a3,80003f78 <strcmp+0xe8>
80003f76:	fa65                	bnez	a2,80003f66 <strcmp+0xd6>
80003f78:	40d60533          	sub	a0,a2,a3
80003f7c:	8082                	ret
80003f7e:	0511                	addi	a0,a0,4
80003f80:	0591                	addi	a1,a1,4
80003f82:	fed612e3          	bne	a2,a3,80003f66 <strcmp+0xd6>
80003f86:	4501                	li	a0,0
80003f88:	8082                	ret
80003f8a:	0521                	addi	a0,a0,8
80003f8c:	05a1                	addi	a1,a1,8
80003f8e:	fcd61ce3          	bne	a2,a3,80003f66 <strcmp+0xd6>
80003f92:	4501                	li	a0,0
80003f94:	8082                	ret
80003f96:	0531                	addi	a0,a0,12
80003f98:	05b1                	addi	a1,a1,12
80003f9a:	fcd616e3          	bne	a2,a3,80003f66 <strcmp+0xd6>
80003f9e:	4501                	li	a0,0
80003fa0:	8082                	ret
80003fa2:	0541                	addi	a0,a0,16
80003fa4:	05c1                	addi	a1,a1,16
80003fa6:	fcd610e3          	bne	a2,a3,80003f66 <strcmp+0xd6>
80003faa:	4501                	li	a0,0
80003fac:	8082                	ret

80003fae <__swbuf_r>:
__swbuf_r():
80003fae:	1101                	addi	sp,sp,-32
80003fb0:	cc22                	sw	s0,24(sp)
80003fb2:	ca26                	sw	s1,20(sp)
80003fb4:	c84a                	sw	s2,16(sp)
80003fb6:	ce06                	sw	ra,28(sp)
80003fb8:	c64e                	sw	s3,12(sp)
80003fba:	84aa                	mv	s1,a0
80003fbc:	892e                	mv	s2,a1
80003fbe:	8432                	mv	s0,a2
80003fc0:	c509                	beqz	a0,80003fca <__swbuf_r+0x1c>
80003fc2:	4d1c                	lw	a5,24(a0)
80003fc4:	e399                	bnez	a5,80003fca <__swbuf_r+0x1c>
80003fc6:	dc3fe0ef          	jal	ra,80002d88 <__sinit>
80003fca:	00003797          	auipc	a5,0x3
80003fce:	0d678793          	addi	a5,a5,214 # 800070a0 <__sf_fake_stdin>
80003fd2:	06f41963          	bne	s0,a5,80004044 <__swbuf_r+0x96>
80003fd6:	40c0                	lw	s0,4(s1)
80003fd8:	4c1c                	lw	a5,24(s0)
80003fda:	c41c                	sw	a5,8(s0)
80003fdc:	00c45783          	lhu	a5,12(s0)
80003fe0:	8ba1                	andi	a5,a5,8
80003fe2:	c3c9                	beqz	a5,80004064 <__swbuf_r+0xb6>
80003fe4:	481c                	lw	a5,16(s0)
80003fe6:	cfbd                	beqz	a5,80004064 <__swbuf_r+0xb6>
80003fe8:	481c                	lw	a5,16(s0)
80003fea:	4008                	lw	a0,0(s0)
80003fec:	0ff97993          	andi	s3,s2,255
80003ff0:	0ff97913          	andi	s2,s2,255
80003ff4:	8d1d                	sub	a0,a0,a5
80003ff6:	485c                	lw	a5,20(s0)
80003ff8:	00f54663          	blt	a0,a5,80004004 <__swbuf_r+0x56>
80003ffc:	85a2                	mv	a1,s0
80003ffe:	8526                	mv	a0,s1
80004000:	2e95                	jal	80004374 <_fflush_r>
80004002:	e52d                	bnez	a0,8000406c <__swbuf_r+0xbe>
80004004:	441c                	lw	a5,8(s0)
80004006:	0505                	addi	a0,a0,1
80004008:	17fd                	addi	a5,a5,-1
8000400a:	c41c                	sw	a5,8(s0)
8000400c:	401c                	lw	a5,0(s0)
8000400e:	00178713          	addi	a4,a5,1
80004012:	c018                	sw	a4,0(s0)
80004014:	01378023          	sb	s3,0(a5)
80004018:	485c                	lw	a5,20(s0)
8000401a:	00a78963          	beq	a5,a0,8000402c <__swbuf_r+0x7e>
8000401e:	00c45783          	lhu	a5,12(s0)
80004022:	8b85                	andi	a5,a5,1
80004024:	cb81                	beqz	a5,80004034 <__swbuf_r+0x86>
80004026:	47a9                	li	a5,10
80004028:	00f91663          	bne	s2,a5,80004034 <__swbuf_r+0x86>
8000402c:	85a2                	mv	a1,s0
8000402e:	8526                	mv	a0,s1
80004030:	2691                	jal	80004374 <_fflush_r>
80004032:	ed0d                	bnez	a0,8000406c <__swbuf_r+0xbe>
80004034:	40f2                	lw	ra,28(sp)
80004036:	4462                	lw	s0,24(sp)
80004038:	44d2                	lw	s1,20(sp)
8000403a:	49b2                	lw	s3,12(sp)
8000403c:	854a                	mv	a0,s2
8000403e:	4942                	lw	s2,16(sp)
80004040:	6105                	addi	sp,sp,32
80004042:	8082                	ret
80004044:	00003797          	auipc	a5,0x3
80004048:	07c78793          	addi	a5,a5,124 # 800070c0 <__sf_fake_stdout>
8000404c:	00f41463          	bne	s0,a5,80004054 <__swbuf_r+0xa6>
80004050:	4480                	lw	s0,8(s1)
80004052:	b759                	j	80003fd8 <__swbuf_r+0x2a>
80004054:	00003797          	auipc	a5,0x3
80004058:	02c78793          	addi	a5,a5,44 # 80007080 <__sf_fake_stderr>
8000405c:	f6f41ee3          	bne	s0,a5,80003fd8 <__swbuf_r+0x2a>
80004060:	44c0                	lw	s0,12(s1)
80004062:	bf9d                	j	80003fd8 <__swbuf_r+0x2a>
80004064:	85a2                	mv	a1,s0
80004066:	8526                	mv	a0,s1
80004068:	2891                	jal	800040bc <__swsetup_r>
8000406a:	dd3d                	beqz	a0,80003fe8 <__swbuf_r+0x3a>
8000406c:	597d                	li	s2,-1
8000406e:	b7d9                	j	80004034 <__swbuf_r+0x86>

80004070 <__ascii_wctomb>:
__ascii_wctomb():
80004070:	cd91                	beqz	a1,8000408c <__ascii_wctomb+0x1c>
80004072:	0ff00793          	li	a5,255
80004076:	00c7f763          	bgeu	a5,a2,80004084 <__ascii_wctomb+0x14>
8000407a:	08a00793          	li	a5,138
8000407e:	c11c                	sw	a5,0(a0)
80004080:	557d                	li	a0,-1
80004082:	8082                	ret
80004084:	00c58023          	sb	a2,0(a1)
80004088:	4505                	li	a0,1
8000408a:	8082                	ret
8000408c:	4501                	li	a0,0
8000408e:	8082                	ret

80004090 <_write_r>:
_write_r():
80004090:	1141                	addi	sp,sp,-16
80004092:	c422                	sw	s0,8(sp)
80004094:	842a                	mv	s0,a0
80004096:	852e                	mv	a0,a1
80004098:	85b2                	mv	a1,a2
8000409a:	8636                	mv	a2,a3
8000409c:	8a01a223          	sw	zero,-1884(gp) # 90000274 <errno>
800040a0:	c606                	sw	ra,12(sp)
800040a2:	e33fc0ef          	jal	ra,80000ed4 <_write>
800040a6:	57fd                	li	a5,-1
800040a8:	00f51663          	bne	a0,a5,800040b4 <_write_r+0x24>
800040ac:	8a41a783          	lw	a5,-1884(gp) # 90000274 <errno>
800040b0:	c391                	beqz	a5,800040b4 <_write_r+0x24>
800040b2:	c01c                	sw	a5,0(s0)
800040b4:	40b2                	lw	ra,12(sp)
800040b6:	4422                	lw	s0,8(sp)
800040b8:	0141                	addi	sp,sp,16
800040ba:	8082                	ret

800040bc <__swsetup_r>:
__swsetup_r():
800040bc:	1141                	addi	sp,sp,-16
800040be:	c422                	sw	s0,8(sp)
800040c0:	c226                	sw	s1,4(sp)
800040c2:	c04a                	sw	s2,0(sp)
800040c4:	c606                	sw	ra,12(sp)
800040c6:	0fffc497          	auipc	s1,0xfffc
800040ca:	1124a483          	lw	s1,274(s1) # 900001d8 <_impure_ptr>
800040ce:	892a                	mv	s2,a0
800040d0:	842e                	mv	s0,a1
800040d2:	c491                	beqz	s1,800040de <__swsetup_r+0x22>
800040d4:	4c9c                	lw	a5,24(s1)
800040d6:	e781                	bnez	a5,800040de <__swsetup_r+0x22>
800040d8:	8526                	mv	a0,s1
800040da:	caffe0ef          	jal	ra,80002d88 <__sinit>
800040de:	00003797          	auipc	a5,0x3
800040e2:	fc278793          	addi	a5,a5,-62 # 800070a0 <__sf_fake_stdin>
800040e6:	02f41763          	bne	s0,a5,80004114 <__swsetup_r+0x58>
800040ea:	40c0                	lw	s0,4(s1)
800040ec:	00c41783          	lh	a5,12(s0)
800040f0:	01079713          	slli	a4,a5,0x10
800040f4:	0087f693          	andi	a3,a5,8
800040f8:	8341                	srli	a4,a4,0x10
800040fa:	eab5                	bnez	a3,8000416e <__swsetup_r+0xb2>
800040fc:	01077693          	andi	a3,a4,16
80004100:	ea95                	bnez	a3,80004134 <__swsetup_r+0x78>
80004102:	4725                	li	a4,9
80004104:	00e92023          	sw	a4,0(s2)
80004108:	0407e793          	ori	a5,a5,64
8000410c:	00f41623          	sh	a5,12(s0)
80004110:	557d                	li	a0,-1
80004112:	a879                	j	800041b0 <__swsetup_r+0xf4>
80004114:	00003797          	auipc	a5,0x3
80004118:	fac78793          	addi	a5,a5,-84 # 800070c0 <__sf_fake_stdout>
8000411c:	00f41463          	bne	s0,a5,80004124 <__swsetup_r+0x68>
80004120:	4480                	lw	s0,8(s1)
80004122:	b7e9                	j	800040ec <__swsetup_r+0x30>
80004124:	00003797          	auipc	a5,0x3
80004128:	f5c78793          	addi	a5,a5,-164 # 80007080 <__sf_fake_stderr>
8000412c:	fcf410e3          	bne	s0,a5,800040ec <__swsetup_r+0x30>
80004130:	44c0                	lw	s0,12(s1)
80004132:	bf6d                	j	800040ec <__swsetup_r+0x30>
80004134:	8b11                	andi	a4,a4,4
80004136:	c715                	beqz	a4,80004162 <__swsetup_r+0xa6>
80004138:	584c                	lw	a1,52(s0)
8000413a:	c991                	beqz	a1,8000414e <__swsetup_r+0x92>
8000413c:	04440793          	addi	a5,s0,68
80004140:	00f58563          	beq	a1,a5,8000414a <__swsetup_r+0x8e>
80004144:	854a                	mv	a0,s2
80004146:	feaff0ef          	jal	ra,80003930 <_free_r>
8000414a:	02042a23          	sw	zero,52(s0)
8000414e:	00c45783          	lhu	a5,12(s0)
80004152:	00042223          	sw	zero,4(s0)
80004156:	fdb7f793          	andi	a5,a5,-37
8000415a:	00f41623          	sh	a5,12(s0)
8000415e:	481c                	lw	a5,16(s0)
80004160:	c01c                	sw	a5,0(s0)
80004162:	00c45783          	lhu	a5,12(s0)
80004166:	0087e793          	ori	a5,a5,8
8000416a:	00f41623          	sh	a5,12(s0)
8000416e:	481c                	lw	a5,16(s0)
80004170:	ef81                	bnez	a5,80004188 <__swsetup_r+0xcc>
80004172:	00c45783          	lhu	a5,12(s0)
80004176:	20000713          	li	a4,512
8000417a:	2807f793          	andi	a5,a5,640
8000417e:	00e78563          	beq	a5,a4,80004188 <__swsetup_r+0xcc>
80004182:	85a2                	mv	a1,s0
80004184:	854a                	mv	a0,s2
80004186:	2611                	jal	8000448a <__smakebuf_r>
80004188:	00c41783          	lh	a5,12(s0)
8000418c:	01079713          	slli	a4,a5,0x10
80004190:	0017f693          	andi	a3,a5,1
80004194:	8341                	srli	a4,a4,0x10
80004196:	c29d                	beqz	a3,800041bc <__swsetup_r+0x100>
80004198:	4854                	lw	a3,20(s0)
8000419a:	00042423          	sw	zero,8(s0)
8000419e:	40d006b3          	neg	a3,a3
800041a2:	cc14                	sw	a3,24(s0)
800041a4:	4814                	lw	a3,16(s0)
800041a6:	4501                	li	a0,0
800041a8:	e681                	bnez	a3,800041b0 <__swsetup_r+0xf4>
800041aa:	08077713          	andi	a4,a4,128
800041ae:	ff29                	bnez	a4,80004108 <__swsetup_r+0x4c>
800041b0:	40b2                	lw	ra,12(sp)
800041b2:	4422                	lw	s0,8(sp)
800041b4:	4492                	lw	s1,4(sp)
800041b6:	4902                	lw	s2,0(sp)
800041b8:	0141                	addi	sp,sp,16
800041ba:	8082                	ret
800041bc:	00277693          	andi	a3,a4,2
800041c0:	4601                	li	a2,0
800041c2:	e291                	bnez	a3,800041c6 <__swsetup_r+0x10a>
800041c4:	4850                	lw	a2,20(s0)
800041c6:	c410                	sw	a2,8(s0)
800041c8:	bff1                	j	800041a4 <__swsetup_r+0xe8>

800041ca <__assert_func>:
__assert_func():
800041ca:	1141                	addi	sp,sp,-16
800041cc:	0fffc797          	auipc	a5,0xfffc
800041d0:	00c7a783          	lw	a5,12(a5) # 900001d8 <_impure_ptr>
800041d4:	8832                	mv	a6,a2
800041d6:	c606                	sw	ra,12(sp)
800041d8:	88aa                	mv	a7,a0
800041da:	872e                	mv	a4,a1
800041dc:	47c8                	lw	a0,12(a5)
800041de:	8636                	mv	a2,a3
800041e0:	00003797          	auipc	a5,0x3
800041e4:	08078793          	addi	a5,a5,128 # 80007260 <p05.0+0x20>
800041e8:	00081763          	bnez	a6,800041f6 <__assert_func+0x2c>
800041ec:	00002797          	auipc	a5,0x2
800041f0:	72878793          	addi	a5,a5,1832 # 80006914 <__extendsfdf2+0x12c>
800041f4:	883e                	mv	a6,a5
800041f6:	86c6                	mv	a3,a7
800041f8:	00003597          	auipc	a1,0x3
800041fc:	07858593          	addi	a1,a1,120 # 80007270 <p05.0+0x30>
80004200:	2ae9                	jal	800043da <fiprintf>
80004202:	2e99                	jal	80004558 <abort>

80004204 <_close_r>:
_close_r():
80004204:	1141                	addi	sp,sp,-16
80004206:	c422                	sw	s0,8(sp)
80004208:	842a                	mv	s0,a0
8000420a:	852e                	mv	a0,a1
8000420c:	8a01a223          	sw	zero,-1884(gp) # 90000274 <errno>
80004210:	c606                	sw	ra,12(sp)
80004212:	c13fc0ef          	jal	ra,80000e24 <_close>
80004216:	57fd                	li	a5,-1
80004218:	00f51663          	bne	a0,a5,80004224 <_close_r+0x20>
8000421c:	8a41a783          	lw	a5,-1884(gp) # 90000274 <errno>
80004220:	c391                	beqz	a5,80004224 <_close_r+0x20>
80004222:	c01c                	sw	a5,0(s0)
80004224:	40b2                	lw	ra,12(sp)
80004226:	4422                	lw	s0,8(sp)
80004228:	0141                	addi	sp,sp,16
8000422a:	8082                	ret

8000422c <__sflush_r>:
__sflush_r():
8000422c:	00c5d783          	lhu	a5,12(a1)
80004230:	1101                	addi	sp,sp,-32
80004232:	cc22                	sw	s0,24(sp)
80004234:	ca26                	sw	s1,20(sp)
80004236:	ce06                	sw	ra,28(sp)
80004238:	c84a                	sw	s2,16(sp)
8000423a:	c64e                	sw	s3,12(sp)
8000423c:	0087f713          	andi	a4,a5,8
80004240:	84aa                	mv	s1,a0
80004242:	842e                	mv	s0,a1
80004244:	e37d                	bnez	a4,8000432a <__sflush_r+0xfe>
80004246:	41d8                	lw	a4,4(a1)
80004248:	00e04763          	bgtz	a4,80004256 <__sflush_r+0x2a>
8000424c:	41b8                	lw	a4,64(a1)
8000424e:	00e04463          	bgtz	a4,80004256 <__sflush_r+0x2a>
80004252:	4501                	li	a0,0
80004254:	a87d                	j	80004312 <__sflush_r+0xe6>
80004256:	5458                	lw	a4,44(s0)
80004258:	df6d                	beqz	a4,80004252 <__sflush_r+0x26>
8000425a:	6685                	lui	a3,0x1
8000425c:	0004a903          	lw	s2,0(s1)
80004260:	8ff5                	and	a5,a5,a3
80004262:	0004a023          	sw	zero,0(s1)
80004266:	cfad                	beqz	a5,800042e0 <__sflush_r+0xb4>
80004268:	4868                	lw	a0,84(s0)
8000426a:	00c45783          	lhu	a5,12(s0)
8000426e:	8b91                	andi	a5,a5,4
80004270:	c799                	beqz	a5,8000427e <__sflush_r+0x52>
80004272:	405c                	lw	a5,4(s0)
80004274:	8d1d                	sub	a0,a0,a5
80004276:	585c                	lw	a5,52(s0)
80004278:	c399                	beqz	a5,8000427e <__sflush_r+0x52>
8000427a:	403c                	lw	a5,64(s0)
8000427c:	8d1d                	sub	a0,a0,a5
8000427e:	545c                	lw	a5,44(s0)
80004280:	500c                	lw	a1,32(s0)
80004282:	862a                	mv	a2,a0
80004284:	4681                	li	a3,0
80004286:	8526                	mv	a0,s1
80004288:	9782                	jalr	a5
8000428a:	57fd                	li	a5,-1
8000428c:	00c45703          	lhu	a4,12(s0)
80004290:	00f51d63          	bne	a0,a5,800042aa <__sflush_r+0x7e>
80004294:	4094                	lw	a3,0(s1)
80004296:	47f5                	li	a5,29
80004298:	08d7e463          	bltu	a5,a3,80004320 <__sflush_r+0xf4>
8000429c:	204007b7          	lui	a5,0x20400
800042a0:	0785                	addi	a5,a5,1
800042a2:	00d7d7b3          	srl	a5,a5,a3
800042a6:	8b85                	andi	a5,a5,1
800042a8:	cfa5                	beqz	a5,80004320 <__sflush_r+0xf4>
800042aa:	481c                	lw	a5,16(s0)
800042ac:	00042223          	sw	zero,4(s0)
800042b0:	c01c                	sw	a5,0(s0)
800042b2:	6785                	lui	a5,0x1
800042b4:	8f7d                	and	a4,a4,a5
800042b6:	c719                	beqz	a4,800042c4 <__sflush_r+0x98>
800042b8:	57fd                	li	a5,-1
800042ba:	00f51463          	bne	a0,a5,800042c2 <__sflush_r+0x96>
800042be:	409c                	lw	a5,0(s1)
800042c0:	e391                	bnez	a5,800042c4 <__sflush_r+0x98>
800042c2:	c868                	sw	a0,84(s0)
800042c4:	584c                	lw	a1,52(s0)
800042c6:	0124a023          	sw	s2,0(s1)
800042ca:	d5c1                	beqz	a1,80004252 <__sflush_r+0x26>
800042cc:	04440793          	addi	a5,s0,68
800042d0:	00f58563          	beq	a1,a5,800042da <__sflush_r+0xae>
800042d4:	8526                	mv	a0,s1
800042d6:	e5aff0ef          	jal	ra,80003930 <_free_r>
800042da:	02042a23          	sw	zero,52(s0)
800042de:	bf95                	j	80004252 <__sflush_r+0x26>
800042e0:	500c                	lw	a1,32(s0)
800042e2:	4685                	li	a3,1
800042e4:	4601                	li	a2,0
800042e6:	8526                	mv	a0,s1
800042e8:	9702                	jalr	a4
800042ea:	57fd                	li	a5,-1
800042ec:	f6f51fe3          	bne	a0,a5,8000426a <__sflush_r+0x3e>
800042f0:	409c                	lw	a5,0(s1)
800042f2:	dfa5                	beqz	a5,8000426a <__sflush_r+0x3e>
800042f4:	4775                	li	a4,29
800042f6:	00e78563          	beq	a5,a4,80004300 <__sflush_r+0xd4>
800042fa:	4759                	li	a4,22
800042fc:	00e79563          	bne	a5,a4,80004306 <__sflush_r+0xda>
80004300:	0124a023          	sw	s2,0(s1)
80004304:	b7b9                	j	80004252 <__sflush_r+0x26>
80004306:	00c45783          	lhu	a5,12(s0)
8000430a:	0407e793          	ori	a5,a5,64
8000430e:	00f41623          	sh	a5,12(s0)
80004312:	40f2                	lw	ra,28(sp)
80004314:	4462                	lw	s0,24(sp)
80004316:	44d2                	lw	s1,20(sp)
80004318:	4942                	lw	s2,16(sp)
8000431a:	49b2                	lw	s3,12(sp)
8000431c:	6105                	addi	sp,sp,32
8000431e:	8082                	ret
80004320:	04076713          	ori	a4,a4,64
80004324:	00e41623          	sh	a4,12(s0)
80004328:	b7ed                	j	80004312 <__sflush_r+0xe6>
8000432a:	0105a983          	lw	s3,16(a1)
8000432e:	f20982e3          	beqz	s3,80004252 <__sflush_r+0x26>
80004332:	0005a903          	lw	s2,0(a1)
80004336:	8b8d                	andi	a5,a5,3
80004338:	0135a023          	sw	s3,0(a1)
8000433c:	41390933          	sub	s2,s2,s3
80004340:	4701                	li	a4,0
80004342:	e391                	bnez	a5,80004346 <__sflush_r+0x11a>
80004344:	49d8                	lw	a4,20(a1)
80004346:	c418                	sw	a4,8(s0)
80004348:	f12055e3          	blez	s2,80004252 <__sflush_r+0x26>
8000434c:	541c                	lw	a5,40(s0)
8000434e:	500c                	lw	a1,32(s0)
80004350:	86ca                	mv	a3,s2
80004352:	864e                	mv	a2,s3
80004354:	8526                	mv	a0,s1
80004356:	9782                	jalr	a5
80004358:	00a04a63          	bgtz	a0,8000436c <__sflush_r+0x140>
8000435c:	00c45783          	lhu	a5,12(s0)
80004360:	557d                	li	a0,-1
80004362:	0407e793          	ori	a5,a5,64
80004366:	00f41623          	sh	a5,12(s0)
8000436a:	b765                	j	80004312 <__sflush_r+0xe6>
8000436c:	99aa                	add	s3,s3,a0
8000436e:	40a90933          	sub	s2,s2,a0
80004372:	bfd9                	j	80004348 <__sflush_r+0x11c>

80004374 <_fflush_r>:
_fflush_r():
80004374:	499c                	lw	a5,16(a1)
80004376:	c3a5                	beqz	a5,800043d6 <_fflush_r+0x62>
80004378:	1101                	addi	sp,sp,-32
8000437a:	cc22                	sw	s0,24(sp)
8000437c:	ce06                	sw	ra,28(sp)
8000437e:	842a                	mv	s0,a0
80004380:	c519                	beqz	a0,8000438e <_fflush_r+0x1a>
80004382:	4d1c                	lw	a5,24(a0)
80004384:	e789                	bnez	a5,8000438e <_fflush_r+0x1a>
80004386:	c62e                	sw	a1,12(sp)
80004388:	a01fe0ef          	jal	ra,80002d88 <__sinit>
8000438c:	45b2                	lw	a1,12(sp)
8000438e:	00003797          	auipc	a5,0x3
80004392:	d1278793          	addi	a5,a5,-750 # 800070a0 <__sf_fake_stdin>
80004396:	00f59b63          	bne	a1,a5,800043ac <_fflush_r+0x38>
8000439a:	404c                	lw	a1,4(s0)
8000439c:	00c59783          	lh	a5,12(a1)
800043a0:	c795                	beqz	a5,800043cc <_fflush_r+0x58>
800043a2:	8522                	mv	a0,s0
800043a4:	4462                	lw	s0,24(sp)
800043a6:	40f2                	lw	ra,28(sp)
800043a8:	6105                	addi	sp,sp,32
800043aa:	b549                	j	8000422c <__sflush_r>
800043ac:	00003797          	auipc	a5,0x3
800043b0:	d1478793          	addi	a5,a5,-748 # 800070c0 <__sf_fake_stdout>
800043b4:	00f59463          	bne	a1,a5,800043bc <_fflush_r+0x48>
800043b8:	440c                	lw	a1,8(s0)
800043ba:	b7cd                	j	8000439c <_fflush_r+0x28>
800043bc:	00003797          	auipc	a5,0x3
800043c0:	cc478793          	addi	a5,a5,-828 # 80007080 <__sf_fake_stderr>
800043c4:	fcf59ce3          	bne	a1,a5,8000439c <_fflush_r+0x28>
800043c8:	444c                	lw	a1,12(s0)
800043ca:	bfc9                	j	8000439c <_fflush_r+0x28>
800043cc:	40f2                	lw	ra,28(sp)
800043ce:	4462                	lw	s0,24(sp)
800043d0:	4501                	li	a0,0
800043d2:	6105                	addi	sp,sp,32
800043d4:	8082                	ret
800043d6:	4501                	li	a0,0
800043d8:	8082                	ret

800043da <fiprintf>:
fprintf():
800043da:	7139                	addi	sp,sp,-64
800043dc:	d432                	sw	a2,40(sp)
800043de:	d636                	sw	a3,44(sp)
800043e0:	862e                	mv	a2,a1
800043e2:	1034                	addi	a3,sp,40
800043e4:	85aa                	mv	a1,a0
800043e6:	0fffc517          	auipc	a0,0xfffc
800043ea:	df252503          	lw	a0,-526(a0) # 900001d8 <_impure_ptr>
800043ee:	ce06                	sw	ra,28(sp)
800043f0:	d83a                	sw	a4,48(sp)
800043f2:	da3e                	sw	a5,52(sp)
800043f4:	dc42                	sw	a6,56(sp)
800043f6:	de46                	sw	a7,60(sp)
800043f8:	c636                	sw	a3,12(sp)
800043fa:	f18ff0ef          	jal	ra,80003b12 <_vfiprintf_r>
800043fe:	40f2                	lw	ra,28(sp)
80004400:	6121                	addi	sp,sp,64
80004402:	8082                	ret

80004404 <_lseek_r>:
_lseek_r():
80004404:	1141                	addi	sp,sp,-16
80004406:	c422                	sw	s0,8(sp)
80004408:	842a                	mv	s0,a0
8000440a:	852e                	mv	a0,a1
8000440c:	85b2                	mv	a1,a2
8000440e:	8636                	mv	a2,a3
80004410:	8a01a223          	sw	zero,-1884(gp) # 90000274 <errno>
80004414:	c606                	sw	ra,12(sp)
80004416:	a5ffc0ef          	jal	ra,80000e74 <_lseek>
8000441a:	57fd                	li	a5,-1
8000441c:	00f51663          	bne	a0,a5,80004428 <_lseek_r+0x24>
80004420:	8a41a783          	lw	a5,-1884(gp) # 90000274 <errno>
80004424:	c391                	beqz	a5,80004428 <_lseek_r+0x24>
80004426:	c01c                	sw	a5,0(s0)
80004428:	40b2                	lw	ra,12(sp)
8000442a:	4422                	lw	s0,8(sp)
8000442c:	0141                	addi	sp,sp,16
8000442e:	8082                	ret

80004430 <__swhatbuf_r>:
__swhatbuf_r():
80004430:	7159                	addi	sp,sp,-112
80004432:	d0ca                	sw	s2,96(sp)
80004434:	892e                	mv	s2,a1
80004436:	00e59583          	lh	a1,14(a1)
8000443a:	d4a2                	sw	s0,104(sp)
8000443c:	d2a6                	sw	s1,100(sp)
8000443e:	d686                	sw	ra,108(sp)
80004440:	8432                	mv	s0,a2
80004442:	84b6                	mv	s1,a3
80004444:	0005dc63          	bgez	a1,8000445c <__swhatbuf_r+0x2c>
80004448:	00c91783          	lh	a5,12(s2)
8000444c:	0004a023          	sw	zero,0(s1)
80004450:	0807f793          	andi	a5,a5,128
80004454:	e38d                	bnez	a5,80004476 <__swhatbuf_r+0x46>
80004456:	40000793          	li	a5,1024
8000445a:	a005                	j	8000447a <__swhatbuf_r+0x4a>
8000445c:	0030                	addi	a2,sp,8
8000445e:	2221                	jal	80004566 <_fstat_r>
80004460:	fe0544e3          	bltz	a0,80004448 <__swhatbuf_r+0x18>
80004464:	4732                	lw	a4,12(sp)
80004466:	67bd                	lui	a5,0xf
80004468:	8ff9                	and	a5,a5,a4
8000446a:	7779                	lui	a4,0xffffe
8000446c:	97ba                	add	a5,a5,a4
8000446e:	0017b793          	seqz	a5,a5
80004472:	c09c                	sw	a5,0(s1)
80004474:	b7cd                	j	80004456 <__swhatbuf_r+0x26>
80004476:	04000793          	li	a5,64
8000447a:	50b6                	lw	ra,108(sp)
8000447c:	c01c                	sw	a5,0(s0)
8000447e:	5426                	lw	s0,104(sp)
80004480:	5496                	lw	s1,100(sp)
80004482:	5906                	lw	s2,96(sp)
80004484:	4501                	li	a0,0
80004486:	6165                	addi	sp,sp,112
80004488:	8082                	ret

8000448a <__smakebuf_r>:
__smakebuf_r():
8000448a:	00c5d783          	lhu	a5,12(a1)
8000448e:	1101                	addi	sp,sp,-32
80004490:	cc22                	sw	s0,24(sp)
80004492:	ce06                	sw	ra,28(sp)
80004494:	ca26                	sw	s1,20(sp)
80004496:	c84a                	sw	s2,16(sp)
80004498:	8b89                	andi	a5,a5,2
8000449a:	842e                	mv	s0,a1
8000449c:	cf89                	beqz	a5,800044b6 <__smakebuf_r+0x2c>
8000449e:	04740793          	addi	a5,s0,71
800044a2:	c01c                	sw	a5,0(s0)
800044a4:	c81c                	sw	a5,16(s0)
800044a6:	4785                	li	a5,1
800044a8:	c85c                	sw	a5,20(s0)
800044aa:	40f2                	lw	ra,28(sp)
800044ac:	4462                	lw	s0,24(sp)
800044ae:	44d2                	lw	s1,20(sp)
800044b0:	4942                	lw	s2,16(sp)
800044b2:	6105                	addi	sp,sp,32
800044b4:	8082                	ret
800044b6:	0074                	addi	a3,sp,12
800044b8:	0030                	addi	a2,sp,8
800044ba:	892a                	mv	s2,a0
800044bc:	3f95                	jal	80004430 <__swhatbuf_r>
800044be:	45a2                	lw	a1,8(sp)
800044c0:	84aa                	mv	s1,a0
800044c2:	854a                	mv	a0,s2
800044c4:	d0eff0ef          	jal	ra,800039d2 <_malloc_r>
800044c8:	ed01                	bnez	a0,800044e0 <__smakebuf_r+0x56>
800044ca:	00c41783          	lh	a5,12(s0)
800044ce:	2007f713          	andi	a4,a5,512
800044d2:	ff61                	bnez	a4,800044aa <__smakebuf_r+0x20>
800044d4:	9bf1                	andi	a5,a5,-4
800044d6:	0027e793          	ori	a5,a5,2
800044da:	00f41623          	sh	a5,12(s0)
800044de:	b7c1                	j	8000449e <__smakebuf_r+0x14>
800044e0:	fffff797          	auipc	a5,0xfffff
800044e4:	85878793          	addi	a5,a5,-1960 # 80002d38 <_cleanup_r>
800044e8:	02f92423          	sw	a5,40(s2)
800044ec:	00c45783          	lhu	a5,12(s0)
800044f0:	c008                	sw	a0,0(s0)
800044f2:	c808                	sw	a0,16(s0)
800044f4:	0807e793          	ori	a5,a5,128
800044f8:	00f41623          	sh	a5,12(s0)
800044fc:	47a2                	lw	a5,8(sp)
800044fe:	c85c                	sw	a5,20(s0)
80004500:	47b2                	lw	a5,12(sp)
80004502:	cf89                	beqz	a5,8000451c <__smakebuf_r+0x92>
80004504:	00e41583          	lh	a1,14(s0)
80004508:	854a                	mv	a0,s2
8000450a:	2059                	jal	80004590 <_isatty_r>
8000450c:	c901                	beqz	a0,8000451c <__smakebuf_r+0x92>
8000450e:	00c45783          	lhu	a5,12(s0)
80004512:	9bf1                	andi	a5,a5,-4
80004514:	0017e793          	ori	a5,a5,1
80004518:	00f41623          	sh	a5,12(s0)
8000451c:	00c45503          	lhu	a0,12(s0)
80004520:	8cc9                	or	s1,s1,a0
80004522:	00941623          	sh	s1,12(s0)
80004526:	b751                	j	800044aa <__smakebuf_r+0x20>

80004528 <__malloc_lock>:
__malloc_lock():
80004528:	8082                	ret

8000452a <__malloc_unlock>:
__malloc_unlock():
8000452a:	8082                	ret

8000452c <_read_r>:
_read_r():
8000452c:	1141                	addi	sp,sp,-16
8000452e:	c422                	sw	s0,8(sp)
80004530:	842a                	mv	s0,a0
80004532:	852e                	mv	a0,a1
80004534:	85b2                	mv	a1,a2
80004536:	8636                	mv	a2,a3
80004538:	8a01a223          	sw	zero,-1884(gp) # 90000274 <errno>
8000453c:	c606                	sw	ra,12(sp)
8000453e:	93ffc0ef          	jal	ra,80000e7c <_read>
80004542:	57fd                	li	a5,-1
80004544:	00f51663          	bne	a0,a5,80004550 <_read_r+0x24>
80004548:	8a41a783          	lw	a5,-1884(gp) # 90000274 <errno>
8000454c:	c391                	beqz	a5,80004550 <_read_r+0x24>
8000454e:	c01c                	sw	a5,0(s0)
80004550:	40b2                	lw	ra,12(sp)
80004552:	4422                	lw	s0,8(sp)
80004554:	0141                	addi	sp,sp,16
80004556:	8082                	ret

80004558 <abort>:
abort():
80004558:	1141                	addi	sp,sp,-16
8000455a:	4519                	li	a0,6
8000455c:	c606                	sw	ra,12(sp)
8000455e:	2875                	jal	8000461a <raise>
80004560:	4505                	li	a0,1
80004562:	8cffc0ef          	jal	ra,80000e30 <_exit>

80004566 <_fstat_r>:
_fstat_r():
80004566:	1141                	addi	sp,sp,-16
80004568:	c422                	sw	s0,8(sp)
8000456a:	842a                	mv	s0,a0
8000456c:	852e                	mv	a0,a1
8000456e:	85b2                	mv	a1,a2
80004570:	8a01a223          	sw	zero,-1884(gp) # 90000274 <errno>
80004574:	c606                	sw	ra,12(sp)
80004576:	8c3fc0ef          	jal	ra,80000e38 <_fstat>
8000457a:	57fd                	li	a5,-1
8000457c:	00f51663          	bne	a0,a5,80004588 <_fstat_r+0x22>
80004580:	8a41a783          	lw	a5,-1884(gp) # 90000274 <errno>
80004584:	c391                	beqz	a5,80004588 <_fstat_r+0x22>
80004586:	c01c                	sw	a5,0(s0)
80004588:	40b2                	lw	ra,12(sp)
8000458a:	4422                	lw	s0,8(sp)
8000458c:	0141                	addi	sp,sp,16
8000458e:	8082                	ret

80004590 <_isatty_r>:
_isatty_r():
80004590:	1141                	addi	sp,sp,-16
80004592:	c422                	sw	s0,8(sp)
80004594:	842a                	mv	s0,a0
80004596:	852e                	mv	a0,a1
80004598:	8a01a223          	sw	zero,-1884(gp) # 90000274 <errno>
8000459c:	c606                	sw	ra,12(sp)
8000459e:	8c3fc0ef          	jal	ra,80000e60 <_isatty>
800045a2:	57fd                	li	a5,-1
800045a4:	00f51663          	bne	a0,a5,800045b0 <_isatty_r+0x20>
800045a8:	8a41a783          	lw	a5,-1884(gp) # 90000274 <errno>
800045ac:	c391                	beqz	a5,800045b0 <_isatty_r+0x20>
800045ae:	c01c                	sw	a5,0(s0)
800045b0:	40b2                	lw	ra,12(sp)
800045b2:	4422                	lw	s0,8(sp)
800045b4:	0141                	addi	sp,sp,16
800045b6:	8082                	ret

800045b8 <_raise_r>:
_raise_r():
800045b8:	1101                	addi	sp,sp,-32
800045ba:	cc22                	sw	s0,24(sp)
800045bc:	ce06                	sw	ra,28(sp)
800045be:	47fd                	li	a5,31
800045c0:	842a                	mv	s0,a0
800045c2:	00b7f963          	bgeu	a5,a1,800045d4 <_raise_r+0x1c>
800045c6:	47d9                	li	a5,22
800045c8:	c11c                	sw	a5,0(a0)
800045ca:	557d                	li	a0,-1
800045cc:	40f2                	lw	ra,28(sp)
800045ce:	4462                	lw	s0,24(sp)
800045d0:	6105                	addi	sp,sp,32
800045d2:	8082                	ret
800045d4:	417c                	lw	a5,68(a0)
800045d6:	862e                	mv	a2,a1
800045d8:	c791                	beqz	a5,800045e4 <_raise_r+0x2c>
800045da:	00259713          	slli	a4,a1,0x2
800045de:	97ba                	add	a5,a5,a4
800045e0:	4398                	lw	a4,0(a5)
800045e2:	eb19                	bnez	a4,800045f8 <_raise_r+0x40>
800045e4:	8522                	mv	a0,s0
800045e6:	c632                	sw	a2,12(sp)
800045e8:	20a5                	jal	80004650 <_getpid_r>
800045ea:	85aa                	mv	a1,a0
800045ec:	8522                	mv	a0,s0
800045ee:	4462                	lw	s0,24(sp)
800045f0:	4632                	lw	a2,12(sp)
800045f2:	40f2                	lw	ra,28(sp)
800045f4:	6105                	addi	sp,sp,32
800045f6:	a805                	j	80004626 <_kill_r>
800045f8:	4685                	li	a3,1
800045fa:	4501                	li	a0,0
800045fc:	fcd708e3          	beq	a4,a3,800045cc <_raise_r+0x14>
80004600:	56fd                	li	a3,-1
80004602:	00d71663          	bne	a4,a3,8000460e <_raise_r+0x56>
80004606:	47d9                	li	a5,22
80004608:	c01c                	sw	a5,0(s0)
8000460a:	4505                	li	a0,1
8000460c:	b7c1                	j	800045cc <_raise_r+0x14>
8000460e:	852e                	mv	a0,a1
80004610:	0007a023          	sw	zero,0(a5)
80004614:	9702                	jalr	a4
80004616:	4501                	li	a0,0
80004618:	bf55                	j	800045cc <_raise_r+0x14>

8000461a <raise>:
raise():
8000461a:	85aa                	mv	a1,a0
8000461c:	0fffc517          	auipc	a0,0xfffc
80004620:	bbc52503          	lw	a0,-1092(a0) # 900001d8 <_impure_ptr>
80004624:	bf51                	j	800045b8 <_raise_r>

80004626 <_kill_r>:
_kill_r():
80004626:	1141                	addi	sp,sp,-16
80004628:	c422                	sw	s0,8(sp)
8000462a:	842a                	mv	s0,a0
8000462c:	852e                	mv	a0,a1
8000462e:	85b2                	mv	a1,a2
80004630:	8a01a223          	sw	zero,-1884(gp) # 90000274 <errno>
80004634:	c606                	sw	ra,12(sp)
80004636:	833fc0ef          	jal	ra,80000e68 <_kill>
8000463a:	57fd                	li	a5,-1
8000463c:	00f51663          	bne	a0,a5,80004648 <_kill_r+0x22>
80004640:	8a41a783          	lw	a5,-1884(gp) # 90000274 <errno>
80004644:	c391                	beqz	a5,80004648 <_kill_r+0x22>
80004646:	c01c                	sw	a5,0(s0)
80004648:	40b2                	lw	ra,12(sp)
8000464a:	4422                	lw	s0,8(sp)
8000464c:	0141                	addi	sp,sp,16
8000464e:	8082                	ret

80004650 <_getpid_r>:
_getpid_r():
80004650:	809fc06f          	j	80000e58 <_getpid>

80004654 <__adddf3>:
__adddf3():
/home/hqfang/workspace/software/riscv-gnu-toolchain/riscv-gcc/libgcc/soft-fp/adddf3.c:44
80004654:	00100837          	lui	a6,0x100
80004658:	187d                	addi	a6,a6,-1
/home/hqfang/workspace/software/riscv-gnu-toolchain/riscv-gcc/libgcc/soft-fp/adddf3.c:36
8000465a:	1101                	addi	sp,sp,-32
/home/hqfang/workspace/software/riscv-gnu-toolchain/riscv-gcc/libgcc/soft-fp/adddf3.c:44
8000465c:	00b877b3          	and	a5,a6,a1
80004660:	0145d713          	srli	a4,a1,0x14
/home/hqfang/workspace/software/riscv-gnu-toolchain/riscv-gcc/libgcc/soft-fp/adddf3.c:45
80004664:	00d87833          	and	a6,a6,a3
80004668:	0146d313          	srli	t1,a3,0x14
/home/hqfang/workspace/software/riscv-gnu-toolchain/riscv-gcc/libgcc/soft-fp/adddf3.c:36
8000466c:	cc22                	sw	s0,24(sp)
/home/hqfang/workspace/software/riscv-gnu-toolchain/riscv-gcc/libgcc/soft-fp/adddf3.c:44
8000466e:	078e                	slli	a5,a5,0x3
80004670:	7ff77413          	andi	s0,a4,2047
80004674:	01d55713          	srli	a4,a0,0x1d
/home/hqfang/workspace/software/riscv-gnu-toolchain/riscv-gcc/libgcc/soft-fp/adddf3.c:45
80004678:	080e                	slli	a6,a6,0x3
/home/hqfang/workspace/software/riscv-gnu-toolchain/riscv-gcc/libgcc/soft-fp/adddf3.c:36
8000467a:	ca26                	sw	s1,20(sp)
/home/hqfang/workspace/software/riscv-gnu-toolchain/riscv-gcc/libgcc/soft-fp/adddf3.c:44
8000467c:	8fd9                	or	a5,a5,a4
8000467e:	01f5d493          	srli	s1,a1,0x1f
/home/hqfang/workspace/software/riscv-gnu-toolchain/riscv-gcc/libgcc/soft-fp/adddf3.c:45
80004682:	01d65713          	srli	a4,a2,0x1d
80004686:	7ff37313          	andi	t1,t1,2047
/home/hqfang/workspace/software/riscv-gnu-toolchain/riscv-gcc/libgcc/soft-fp/adddf3.c:36
8000468a:	ce06                	sw	ra,28(sp)
8000468c:	c84a                	sw	s2,16(sp)
8000468e:	c64e                	sw	s3,12(sp)
/home/hqfang/workspace/software/riscv-gnu-toolchain/riscv-gcc/libgcc/soft-fp/adddf3.c:45
80004690:	82fd                	srli	a3,a3,0x1f
80004692:	01076733          	or	a4,a4,a6
/home/hqfang/workspace/software/riscv-gnu-toolchain/riscv-gcc/libgcc/soft-fp/adddf3.c:44
80004696:	00351593          	slli	a1,a0,0x3
/home/hqfang/workspace/software/riscv-gnu-toolchain/riscv-gcc/libgcc/soft-fp/adddf3.c:45
8000469a:	060e                	slli	a2,a2,0x3
/home/hqfang/workspace/software/riscv-gnu-toolchain/riscv-gcc/libgcc/soft-fp/adddf3.c:46
8000469c:	40640833          	sub	a6,s0,t1
800046a0:	22d49863          	bne	s1,a3,800048d0 <__adddf3+0x27c>
/home/hqfang/workspace/software/riscv-gnu-toolchain/riscv-gcc/libgcc/soft-fp/adddf3.c:46 (discriminator 7)
800046a4:	0f005363          	blez	a6,8000478a <__adddf3+0x136>
/home/hqfang/workspace/software/riscv-gnu-toolchain/riscv-gcc/libgcc/soft-fp/adddf3.c:46 (discriminator 9)
800046a8:	02031863          	bnez	t1,800046d8 <__adddf3+0x84>
/home/hqfang/workspace/software/riscv-gnu-toolchain/riscv-gcc/libgcc/soft-fp/adddf3.c:46 (discriminator 11)
800046ac:	00c766b3          	or	a3,a4,a2
800046b0:	58068363          	beqz	a3,80004c36 <__adddf3+0x5e2>
/home/hqfang/workspace/software/riscv-gnu-toolchain/riscv-gcc/libgcc/soft-fp/adddf3.c:46 (discriminator 14)
800046b4:	fff80513          	addi	a0,a6,-1 # fffff <dhry_stubs.c.c3a4eb6e+0xfc424>
800046b8:	e909                	bnez	a0,800046ca <__adddf3+0x76>
/home/hqfang/workspace/software/riscv-gnu-toolchain/riscv-gcc/libgcc/soft-fp/adddf3.c:46 (discriminator 23)
800046ba:	962e                	add	a2,a2,a1
800046bc:	00b63533          	sltu	a0,a2,a1
800046c0:	97ba                	add	a5,a5,a4
800046c2:	97aa                	add	a5,a5,a0
800046c4:	85b2                	mv	a1,a2
/home/hqfang/workspace/software/riscv-gnu-toolchain/riscv-gcc/libgcc/soft-fp/adddf3.c:45 (discriminator 80)
800046c6:	4405                	li	s0,1
/home/hqfang/workspace/software/riscv-gnu-toolchain/riscv-gcc/libgcc/soft-fp/adddf3.c:46 (discriminator 80)
800046c8:	a8b9                	j	80004726 <__adddf3+0xd2>
/home/hqfang/workspace/software/riscv-gnu-toolchain/riscv-gcc/libgcc/soft-fp/adddf3.c:46 (discriminator 24)
800046ca:	7ff00693          	li	a3,2047
800046ce:	00d81d63          	bne	a6,a3,800046e8 <__adddf3+0x94>
/home/hqfang/workspace/software/riscv-gnu-toolchain/riscv-gcc/libgcc/soft-fp/adddf3.c:46
800046d2:	7ff00413          	li	s0,2047
800046d6:	a24d                	j	80004878 <__adddf3+0x224>
/home/hqfang/workspace/software/riscv-gnu-toolchain/riscv-gcc/libgcc/soft-fp/adddf3.c:46 (discriminator 12)
800046d8:	7ff00693          	li	a3,2047
800046dc:	18d40e63          	beq	s0,a3,80004878 <__adddf3+0x224>
/home/hqfang/workspace/software/riscv-gnu-toolchain/riscv-gcc/libgcc/soft-fp/adddf3.c:46 (discriminator 38)
800046e0:	008006b7          	lui	a3,0x800
800046e4:	8f55                	or	a4,a4,a3
800046e6:	8542                	mv	a0,a6
/home/hqfang/workspace/software/riscv-gnu-toolchain/riscv-gcc/libgcc/soft-fp/adddf3.c:46 (discriminator 47)
800046e8:	03800693          	li	a3,56
800046ec:	08a6cb63          	blt	a3,a0,80004782 <__adddf3+0x12e>
/home/hqfang/workspace/software/riscv-gnu-toolchain/riscv-gcc/libgcc/soft-fp/adddf3.c:46 (discriminator 48)
800046f0:	46fd                	li	a3,31
800046f2:	06a6c263          	blt	a3,a0,80004756 <__adddf3+0x102>
/home/hqfang/workspace/software/riscv-gnu-toolchain/riscv-gcc/libgcc/soft-fp/adddf3.c:46 (discriminator 50)
800046f6:	02000813          	li	a6,32
800046fa:	40a80833          	sub	a6,a6,a0
800046fe:	010716b3          	sll	a3,a4,a6
80004702:	00a658b3          	srl	a7,a2,a0
80004706:	01061633          	sll	a2,a2,a6
8000470a:	0116e6b3          	or	a3,a3,a7
8000470e:	00c03633          	snez	a2,a2
80004712:	8e55                	or	a2,a2,a3
80004714:	00a75733          	srl	a4,a4,a0
/home/hqfang/workspace/software/riscv-gnu-toolchain/riscv-gcc/libgcc/soft-fp/adddf3.c:46 (discriminator 64)
80004718:	962e                	add	a2,a2,a1
8000471a:	00b63533          	sltu	a0,a2,a1
8000471e:	973e                	add	a4,a4,a5
80004720:	00a707b3          	add	a5,a4,a0
80004724:	85b2                	mv	a1,a2
/home/hqfang/workspace/software/riscv-gnu-toolchain/riscv-gcc/libgcc/soft-fp/adddf3.c:46 (discriminator 122)
80004726:	00800737          	lui	a4,0x800
8000472a:	8f7d                	and	a4,a4,a5
8000472c:	14070663          	beqz	a4,80004878 <__adddf3+0x224>
/home/hqfang/workspace/software/riscv-gnu-toolchain/riscv-gcc/libgcc/soft-fp/adddf3.c:46 (discriminator 182)
80004730:	0405                	addi	s0,s0,1
80004732:	7ff00713          	li	a4,2047
80004736:	48e40d63          	beq	s0,a4,80004bd0 <__adddf3+0x57c>
/home/hqfang/workspace/software/riscv-gnu-toolchain/riscv-gcc/libgcc/soft-fp/adddf3.c:46
8000473a:	ff800737          	lui	a4,0xff800
8000473e:	177d                	addi	a4,a4,-1
80004740:	8ff9                	and	a5,a5,a4
80004742:	0015f513          	andi	a0,a1,1
80004746:	0015d713          	srli	a4,a1,0x1
8000474a:	8d59                	or	a0,a0,a4
8000474c:	01f79593          	slli	a1,a5,0x1f
80004750:	8dc9                	or	a1,a1,a0
80004752:	8385                	srli	a5,a5,0x1
80004754:	a215                	j	80004878 <__adddf3+0x224>
/home/hqfang/workspace/software/riscv-gnu-toolchain/riscv-gcc/libgcc/soft-fp/adddf3.c:46 (discriminator 51)
80004756:	fe050693          	addi	a3,a0,-32
8000475a:	02000893          	li	a7,32
8000475e:	00d756b3          	srl	a3,a4,a3
80004762:	4801                	li	a6,0
80004764:	01150863          	beq	a0,a7,80004774 <__adddf3+0x120>
/home/hqfang/workspace/software/riscv-gnu-toolchain/riscv-gcc/libgcc/soft-fp/adddf3.c:46 (discriminator 58)
80004768:	04000813          	li	a6,64
8000476c:	40a80533          	sub	a0,a6,a0
80004770:	00a71833          	sll	a6,a4,a0
/home/hqfang/workspace/software/riscv-gnu-toolchain/riscv-gcc/libgcc/soft-fp/adddf3.c:46 (discriminator 61)
80004774:	00c86633          	or	a2,a6,a2
80004778:	00c03633          	snez	a2,a2
8000477c:	8e55                	or	a2,a2,a3
/home/hqfang/workspace/software/riscv-gnu-toolchain/riscv-gcc/libgcc/soft-fp/adddf3.c:46 (discriminator 49)
8000477e:	4701                	li	a4,0
80004780:	bf61                	j	80004718 <__adddf3+0xc4>
80004782:	8e59                	or	a2,a2,a4
80004784:	00c03633          	snez	a2,a2
80004788:	bfdd                	j	8000477e <__adddf3+0x12a>
/home/hqfang/workspace/software/riscv-gnu-toolchain/riscv-gcc/libgcc/soft-fp/adddf3.c:46 (discriminator 10)
8000478a:	0a080b63          	beqz	a6,80004840 <__adddf3+0x1ec>
/home/hqfang/workspace/software/riscv-gnu-toolchain/riscv-gcc/libgcc/soft-fp/adddf3.c:46 (discriminator 66)
8000478e:	40830533          	sub	a0,t1,s0
80004792:	e40d                	bnez	s0,800047bc <__adddf3+0x168>
/home/hqfang/workspace/software/riscv-gnu-toolchain/riscv-gcc/libgcc/soft-fp/adddf3.c:46 (discriminator 68)
80004794:	00b7e6b3          	or	a3,a5,a1
80004798:	42068363          	beqz	a3,80004bbe <__adddf3+0x56a>
/home/hqfang/workspace/software/riscv-gnu-toolchain/riscv-gcc/libgcc/soft-fp/adddf3.c:46 (discriminator 71)
8000479c:	fff50693          	addi	a3,a0,-1
800047a0:	e699                	bnez	a3,800047ae <__adddf3+0x15a>
/home/hqfang/workspace/software/riscv-gnu-toolchain/riscv-gcc/libgcc/soft-fp/adddf3.c:46 (discriminator 80)
800047a2:	95b2                	add	a1,a1,a2
800047a4:	97ba                	add	a5,a5,a4
800047a6:	00c5b633          	sltu	a2,a1,a2
800047aa:	97b2                	add	a5,a5,a2
800047ac:	bf29                	j	800046c6 <__adddf3+0x72>
/home/hqfang/workspace/software/riscv-gnu-toolchain/riscv-gcc/libgcc/soft-fp/adddf3.c:46 (discriminator 81)
800047ae:	7ff00813          	li	a6,2047
800047b2:	01051d63          	bne	a0,a6,800047cc <__adddf3+0x178>
/home/hqfang/workspace/software/riscv-gnu-toolchain/riscv-gcc/libgcc/soft-fp/adddf3.c:45
800047b6:	87ba                	mv	a5,a4
800047b8:	85b2                	mv	a1,a2
800047ba:	bf21                	j	800046d2 <__adddf3+0x7e>
/home/hqfang/workspace/software/riscv-gnu-toolchain/riscv-gcc/libgcc/soft-fp/adddf3.c:46 (discriminator 69)
800047bc:	7ff00693          	li	a3,2047
800047c0:	fed30be3          	beq	t1,a3,800047b6 <__adddf3+0x162>
/home/hqfang/workspace/software/riscv-gnu-toolchain/riscv-gcc/libgcc/soft-fp/adddf3.c:46 (discriminator 95)
800047c4:	008006b7          	lui	a3,0x800
800047c8:	8fd5                	or	a5,a5,a3
800047ca:	86aa                	mv	a3,a0
/home/hqfang/workspace/software/riscv-gnu-toolchain/riscv-gcc/libgcc/soft-fp/adddf3.c:46 (discriminator 104)
800047cc:	03800513          	li	a0,56
800047d0:	06d54363          	blt	a0,a3,80004836 <__adddf3+0x1e2>
/home/hqfang/workspace/software/riscv-gnu-toolchain/riscv-gcc/libgcc/soft-fp/adddf3.c:46 (discriminator 105)
800047d4:	457d                	li	a0,31
800047d6:	02d54b63          	blt	a0,a3,8000480c <__adddf3+0x1b8>
/home/hqfang/workspace/software/riscv-gnu-toolchain/riscv-gcc/libgcc/soft-fp/adddf3.c:46 (discriminator 107)
800047da:	02000813          	li	a6,32
800047de:	40d80833          	sub	a6,a6,a3
800047e2:	01079533          	sll	a0,a5,a6
800047e6:	00d5d8b3          	srl	a7,a1,a3
800047ea:	010595b3          	sll	a1,a1,a6
800047ee:	01156533          	or	a0,a0,a7
800047f2:	00b035b3          	snez	a1,a1
800047f6:	8d4d                	or	a0,a0,a1
800047f8:	00d7d7b3          	srl	a5,a5,a3
/home/hqfang/workspace/software/riscv-gnu-toolchain/riscv-gcc/libgcc/soft-fp/adddf3.c:46 (discriminator 121)
800047fc:	00c505b3          	add	a1,a0,a2
80004800:	97ba                	add	a5,a5,a4
80004802:	00c5b633          	sltu	a2,a1,a2
80004806:	97b2                	add	a5,a5,a2
/home/hqfang/workspace/software/riscv-gnu-toolchain/riscv-gcc/libgcc/soft-fp/adddf3.c:45 (discriminator 121)
80004808:	841a                	mv	s0,t1
8000480a:	bf31                	j	80004726 <__adddf3+0xd2>
/home/hqfang/workspace/software/riscv-gnu-toolchain/riscv-gcc/libgcc/soft-fp/adddf3.c:46 (discriminator 108)
8000480c:	fe068513          	addi	a0,a3,-32 # 7fffe0 <dhry_stubs.c.c3a4eb6e+0x7fc405>
80004810:	02000893          	li	a7,32
80004814:	00a7d833          	srl	a6,a5,a0
80004818:	4501                	li	a0,0
8000481a:	01168763          	beq	a3,a7,80004828 <__adddf3+0x1d4>
/home/hqfang/workspace/software/riscv-gnu-toolchain/riscv-gcc/libgcc/soft-fp/adddf3.c:46 (discriminator 115)
8000481e:	04000513          	li	a0,64
80004822:	8d15                	sub	a0,a0,a3
80004824:	00a79533          	sll	a0,a5,a0
/home/hqfang/workspace/software/riscv-gnu-toolchain/riscv-gcc/libgcc/soft-fp/adddf3.c:46 (discriminator 118)
80004828:	8d4d                	or	a0,a0,a1
8000482a:	00a03533          	snez	a0,a0
8000482e:	00a86533          	or	a0,a6,a0
/home/hqfang/workspace/software/riscv-gnu-toolchain/riscv-gcc/libgcc/soft-fp/adddf3.c:46 (discriminator 106)
80004832:	4781                	li	a5,0
80004834:	b7e1                	j	800047fc <__adddf3+0x1a8>
80004836:	00b7e533          	or	a0,a5,a1
8000483a:	00a03533          	snez	a0,a0
8000483e:	bfd5                	j	80004832 <__adddf3+0x1de>
/home/hqfang/workspace/software/riscv-gnu-toolchain/riscv-gcc/libgcc/soft-fp/adddf3.c:46 (discriminator 67)
80004840:	00140693          	addi	a3,s0,1
80004844:	7fe6f513          	andi	a0,a3,2046
80004848:	e13d                	bnez	a0,800048ae <__adddf3+0x25a>
/home/hqfang/workspace/software/riscv-gnu-toolchain/riscv-gcc/libgcc/soft-fp/adddf3.c:46 (discriminator 123)
8000484a:	00b7e6b3          	or	a3,a5,a1
8000484e:	e429                	bnez	s0,80004898 <__adddf3+0x244>
/home/hqfang/workspace/software/riscv-gnu-toolchain/riscv-gcc/libgcc/soft-fp/adddf3.c:46 (discriminator 125)
80004850:	36068b63          	beqz	a3,80004bc6 <__adddf3+0x572>
/home/hqfang/workspace/software/riscv-gnu-toolchain/riscv-gcc/libgcc/soft-fp/adddf3.c:46 (discriminator 128)
80004854:	00c766b3          	or	a3,a4,a2
80004858:	c285                	beqz	a3,80004878 <__adddf3+0x224>
/home/hqfang/workspace/software/riscv-gnu-toolchain/riscv-gcc/libgcc/soft-fp/adddf3.c:46 (discriminator 134)
8000485a:	962e                	add	a2,a2,a1
8000485c:	97ba                	add	a5,a5,a4
8000485e:	00b63533          	sltu	a0,a2,a1
80004862:	97aa                	add	a5,a5,a0
80004864:	00800737          	lui	a4,0x800
80004868:	8f7d                	and	a4,a4,a5
8000486a:	85b2                	mv	a1,a2
8000486c:	c711                	beqz	a4,80004878 <__adddf3+0x224>
/home/hqfang/workspace/software/riscv-gnu-toolchain/riscv-gcc/libgcc/soft-fp/adddf3.c:46 (discriminator 136)
8000486e:	ff800737          	lui	a4,0xff800
80004872:	177d                	addi	a4,a4,-1
80004874:	8ff9                	and	a5,a5,a4
80004876:	4405                	li	s0,1
/home/hqfang/workspace/software/riscv-gnu-toolchain/riscv-gcc/libgcc/soft-fp/adddf3.c:47 (discriminator 421)
80004878:	0075f713          	andi	a4,a1,7
8000487c:	34070c63          	beqz	a4,80004bd4 <__adddf3+0x580>
/home/hqfang/workspace/software/riscv-gnu-toolchain/riscv-gcc/libgcc/soft-fp/adddf3.c:47 (discriminator 37)
80004880:	00f5f713          	andi	a4,a1,15
80004884:	4691                	li	a3,4
80004886:	34d70763          	beq	a4,a3,80004bd4 <__adddf3+0x580>
/home/hqfang/workspace/software/riscv-gnu-toolchain/riscv-gcc/libgcc/soft-fp/adddf3.c:47 (discriminator 44)
8000488a:	00458713          	addi	a4,a1,4
8000488e:	00b73533          	sltu	a0,a4,a1
80004892:	97aa                	add	a5,a5,a0
80004894:	85ba                	mv	a1,a4
80004896:	ae3d                	j	80004bd4 <__adddf3+0x580>
/home/hqfang/workspace/software/riscv-gnu-toolchain/riscv-gcc/libgcc/soft-fp/adddf3.c:46 (discriminator 153)
80004898:	de99                	beqz	a3,800047b6 <__adddf3+0x162>
/home/hqfang/workspace/software/riscv-gnu-toolchain/riscv-gcc/libgcc/soft-fp/adddf3.c:46 (discriminator 155)
8000489a:	8e59                	or	a2,a2,a4
8000489c:	e2060be3          	beqz	a2,800046d2 <__adddf3+0x7e>
/home/hqfang/workspace/software/riscv-gnu-toolchain/riscv-gcc/libgcc/soft-fp/adddf3.c:46
800048a0:	4481                	li	s1,0
800048a2:	004007b7          	lui	a5,0x400
800048a6:	4581                	li	a1,0
800048a8:	7ff00413          	li	s0,2047
800048ac:	a625                	j	80004bd4 <__adddf3+0x580>
/home/hqfang/workspace/software/riscv-gnu-toolchain/riscv-gcc/libgcc/soft-fp/adddf3.c:46 (discriminator 124)
800048ae:	7ff00513          	li	a0,2047
800048b2:	30a68d63          	beq	a3,a0,80004bcc <__adddf3+0x578>
/home/hqfang/workspace/software/riscv-gnu-toolchain/riscv-gcc/libgcc/soft-fp/adddf3.c:46
800048b6:	962e                	add	a2,a2,a1
800048b8:	00b63533          	sltu	a0,a2,a1
800048bc:	97ba                	add	a5,a5,a4
800048be:	97aa                	add	a5,a5,a0
800048c0:	01f79513          	slli	a0,a5,0x1f
800048c4:	8205                	srli	a2,a2,0x1
800048c6:	00c565b3          	or	a1,a0,a2
800048ca:	8385                	srli	a5,a5,0x1
800048cc:	8436                	mv	s0,a3
800048ce:	b76d                	j	80004878 <__adddf3+0x224>
/home/hqfang/workspace/software/riscv-gnu-toolchain/riscv-gcc/libgcc/soft-fp/adddf3.c:46 (discriminator 8)
800048d0:	0d005663          	blez	a6,8000499c <__adddf3+0x348>
/home/hqfang/workspace/software/riscv-gnu-toolchain/riscv-gcc/libgcc/soft-fp/adddf3.c:46 (discriminator 200)
800048d4:	08031163          	bnez	t1,80004956 <__adddf3+0x302>
/home/hqfang/workspace/software/riscv-gnu-toolchain/riscv-gcc/libgcc/soft-fp/adddf3.c:46 (discriminator 202)
800048d8:	00c766b3          	or	a3,a4,a2
800048dc:	34068d63          	beqz	a3,80004c36 <__adddf3+0x5e2>
/home/hqfang/workspace/software/riscv-gnu-toolchain/riscv-gcc/libgcc/soft-fp/adddf3.c:46 (discriminator 205)
800048e0:	fff80513          	addi	a0,a6,-1
800048e4:	e911                	bnez	a0,800048f8 <__adddf3+0x2a4>
/home/hqfang/workspace/software/riscv-gnu-toolchain/riscv-gcc/libgcc/soft-fp/adddf3.c:46 (discriminator 214)
800048e6:	40c58633          	sub	a2,a1,a2
800048ea:	00c5b533          	sltu	a0,a1,a2
800048ee:	8f99                	sub	a5,a5,a4
800048f0:	8f89                	sub	a5,a5,a0
800048f2:	85b2                	mv	a1,a2
/home/hqfang/workspace/software/riscv-gnu-toolchain/riscv-gcc/libgcc/soft-fp/adddf3.c:45 (discriminator 271)
800048f4:	4405                	li	s0,1
/home/hqfang/workspace/software/riscv-gnu-toolchain/riscv-gcc/libgcc/soft-fp/adddf3.c:46 (discriminator 271)
800048f6:	a0b1                	j	80004942 <__adddf3+0x2ee>
/home/hqfang/workspace/software/riscv-gnu-toolchain/riscv-gcc/libgcc/soft-fp/adddf3.c:46 (discriminator 215)
800048f8:	7ff00693          	li	a3,2047
800048fc:	dcd80be3          	beq	a6,a3,800046d2 <__adddf3+0x7e>
/home/hqfang/workspace/software/riscv-gnu-toolchain/riscv-gcc/libgcc/soft-fp/adddf3.c:46 (discriminator 238)
80004900:	03800693          	li	a3,56
80004904:	08a6c863          	blt	a3,a0,80004994 <__adddf3+0x340>
/home/hqfang/workspace/software/riscv-gnu-toolchain/riscv-gcc/libgcc/soft-fp/adddf3.c:46 (discriminator 239)
80004908:	46fd                	li	a3,31
8000490a:	04a6cf63          	blt	a3,a0,80004968 <__adddf3+0x314>
/home/hqfang/workspace/software/riscv-gnu-toolchain/riscv-gcc/libgcc/soft-fp/adddf3.c:46 (discriminator 241)
8000490e:	02000813          	li	a6,32
80004912:	40a80833          	sub	a6,a6,a0
80004916:	010716b3          	sll	a3,a4,a6
8000491a:	00a658b3          	srl	a7,a2,a0
8000491e:	01061633          	sll	a2,a2,a6
80004922:	0116e6b3          	or	a3,a3,a7
80004926:	00c03633          	snez	a2,a2
8000492a:	8e55                	or	a2,a2,a3
8000492c:	00a75733          	srl	a4,a4,a0
/home/hqfang/workspace/software/riscv-gnu-toolchain/riscv-gcc/libgcc/soft-fp/adddf3.c:46 (discriminator 255)
80004930:	40c58633          	sub	a2,a1,a2
80004934:	00c5b533          	sltu	a0,a1,a2
80004938:	40e78733          	sub	a4,a5,a4
8000493c:	40a707b3          	sub	a5,a4,a0
80004940:	85b2                	mv	a1,a2
/home/hqfang/workspace/software/riscv-gnu-toolchain/riscv-gcc/libgcc/soft-fp/adddf3.c:46 (discriminator 313)
80004942:	00800937          	lui	s2,0x800
80004946:	0127f733          	and	a4,a5,s2
8000494a:	d71d                	beqz	a4,80004878 <__adddf3+0x224>
/home/hqfang/workspace/software/riscv-gnu-toolchain/riscv-gcc/libgcc/soft-fp/adddf3.c:46 (discriminator 373)
8000494c:	197d                	addi	s2,s2,-1
8000494e:	0127f933          	and	s2,a5,s2
80004952:	89ae                	mv	s3,a1
80004954:	aa5d                	j	80004b0a <__adddf3+0x4b6>
/home/hqfang/workspace/software/riscv-gnu-toolchain/riscv-gcc/libgcc/soft-fp/adddf3.c:46 (discriminator 203)
80004956:	7ff00693          	li	a3,2047
8000495a:	f0d40fe3          	beq	s0,a3,80004878 <__adddf3+0x224>
/home/hqfang/workspace/software/riscv-gnu-toolchain/riscv-gcc/libgcc/soft-fp/adddf3.c:46 (discriminator 229)
8000495e:	008006b7          	lui	a3,0x800
80004962:	8f55                	or	a4,a4,a3
80004964:	8542                	mv	a0,a6
80004966:	bf69                	j	80004900 <__adddf3+0x2ac>
/home/hqfang/workspace/software/riscv-gnu-toolchain/riscv-gcc/libgcc/soft-fp/adddf3.c:46 (discriminator 242)
80004968:	fe050693          	addi	a3,a0,-32
8000496c:	02000893          	li	a7,32
80004970:	00d756b3          	srl	a3,a4,a3
80004974:	4801                	li	a6,0
80004976:	01150863          	beq	a0,a7,80004986 <__adddf3+0x332>
/home/hqfang/workspace/software/riscv-gnu-toolchain/riscv-gcc/libgcc/soft-fp/adddf3.c:46 (discriminator 249)
8000497a:	04000813          	li	a6,64
8000497e:	40a80533          	sub	a0,a6,a0
80004982:	00a71833          	sll	a6,a4,a0
/home/hqfang/workspace/software/riscv-gnu-toolchain/riscv-gcc/libgcc/soft-fp/adddf3.c:46 (discriminator 252)
80004986:	00c86633          	or	a2,a6,a2
8000498a:	00c03633          	snez	a2,a2
8000498e:	8e55                	or	a2,a2,a3
/home/hqfang/workspace/software/riscv-gnu-toolchain/riscv-gcc/libgcc/soft-fp/adddf3.c:46 (discriminator 240)
80004990:	4701                	li	a4,0
80004992:	bf79                	j	80004930 <__adddf3+0x2dc>
80004994:	8e59                	or	a2,a2,a4
80004996:	00c03633          	snez	a2,a2
8000499a:	bfdd                	j	80004990 <__adddf3+0x33c>
/home/hqfang/workspace/software/riscv-gnu-toolchain/riscv-gcc/libgcc/soft-fp/adddf3.c:46 (discriminator 201)
8000499c:	0c080563          	beqz	a6,80004a66 <__adddf3+0x412>
/home/hqfang/workspace/software/riscv-gnu-toolchain/riscv-gcc/libgcc/soft-fp/adddf3.c:46 (discriminator 257)
800049a0:	40830533          	sub	a0,t1,s0
800049a4:	e81d                	bnez	s0,800049da <__adddf3+0x386>
/home/hqfang/workspace/software/riscv-gnu-toolchain/riscv-gcc/libgcc/soft-fp/adddf3.c:46 (discriminator 259)
800049a6:	00b7e833          	or	a6,a5,a1
800049aa:	28080863          	beqz	a6,80004c3a <__adddf3+0x5e6>
/home/hqfang/workspace/software/riscv-gnu-toolchain/riscv-gcc/libgcc/soft-fp/adddf3.c:46 (discriminator 262)
800049ae:	fff50813          	addi	a6,a0,-1
800049b2:	00081b63          	bnez	a6,800049c8 <__adddf3+0x374>
/home/hqfang/workspace/software/riscv-gnu-toolchain/riscv-gcc/libgcc/soft-fp/adddf3.c:46 (discriminator 271)
800049b6:	40b605b3          	sub	a1,a2,a1
800049ba:	40f707b3          	sub	a5,a4,a5
800049be:	00b63633          	sltu	a2,a2,a1
800049c2:	8f91                	sub	a5,a5,a2
800049c4:	84b6                	mv	s1,a3
800049c6:	b73d                	j	800048f4 <__adddf3+0x2a0>
/home/hqfang/workspace/software/riscv-gnu-toolchain/riscv-gcc/libgcc/soft-fp/adddf3.c:46 (discriminator 272)
800049c8:	7ff00893          	li	a7,2047
800049cc:	03151063          	bne	a0,a7,800049ec <__adddf3+0x398>
/home/hqfang/workspace/software/riscv-gnu-toolchain/riscv-gcc/libgcc/soft-fp/adddf3.c:45
800049d0:	87ba                	mv	a5,a4
800049d2:	85b2                	mv	a1,a2
/home/hqfang/workspace/software/riscv-gnu-toolchain/riscv-gcc/libgcc/soft-fp/adddf3.c:46
800049d4:	7ff00413          	li	s0,2047
800049d8:	a07d                	j	80004a86 <__adddf3+0x432>
/home/hqfang/workspace/software/riscv-gnu-toolchain/riscv-gcc/libgcc/soft-fp/adddf3.c:46 (discriminator 260)
800049da:	7ff00813          	li	a6,2047
800049de:	ff0309e3          	beq	t1,a6,800049d0 <__adddf3+0x37c>
/home/hqfang/workspace/software/riscv-gnu-toolchain/riscv-gcc/libgcc/soft-fp/adddf3.c:46 (discriminator 286)
800049e2:	00800837          	lui	a6,0x800
800049e6:	0107e7b3          	or	a5,a5,a6
800049ea:	882a                	mv	a6,a0
/home/hqfang/workspace/software/riscv-gnu-toolchain/riscv-gcc/libgcc/soft-fp/adddf3.c:46 (discriminator 295)
800049ec:	03800513          	li	a0,56
800049f0:	07054663          	blt	a0,a6,80004a5c <__adddf3+0x408>
/home/hqfang/workspace/software/riscv-gnu-toolchain/riscv-gcc/libgcc/soft-fp/adddf3.c:46 (discriminator 296)
800049f4:	457d                	li	a0,31
800049f6:	03054d63          	blt	a0,a6,80004a30 <__adddf3+0x3dc>
/home/hqfang/workspace/software/riscv-gnu-toolchain/riscv-gcc/libgcc/soft-fp/adddf3.c:46 (discriminator 298)
800049fa:	02000893          	li	a7,32
800049fe:	410888b3          	sub	a7,a7,a6
80004a02:	01179533          	sll	a0,a5,a7
80004a06:	0105de33          	srl	t3,a1,a6
80004a0a:	011595b3          	sll	a1,a1,a7
80004a0e:	01c56533          	or	a0,a0,t3
80004a12:	00b035b3          	snez	a1,a1
80004a16:	8d4d                	or	a0,a0,a1
80004a18:	0107d7b3          	srl	a5,a5,a6
/home/hqfang/workspace/software/riscv-gnu-toolchain/riscv-gcc/libgcc/soft-fp/adddf3.c:46 (discriminator 312)
80004a1c:	40a605b3          	sub	a1,a2,a0
80004a20:	40f707b3          	sub	a5,a4,a5
80004a24:	00b63633          	sltu	a2,a2,a1
80004a28:	8f91                	sub	a5,a5,a2
/home/hqfang/workspace/software/riscv-gnu-toolchain/riscv-gcc/libgcc/soft-fp/adddf3.c:45 (discriminator 312)
80004a2a:	841a                	mv	s0,t1
80004a2c:	84b6                	mv	s1,a3
80004a2e:	bf11                	j	80004942 <__adddf3+0x2ee>
/home/hqfang/workspace/software/riscv-gnu-toolchain/riscv-gcc/libgcc/soft-fp/adddf3.c:46 (discriminator 299)
80004a30:	fe080513          	addi	a0,a6,-32 # 7fffe0 <dhry_stubs.c.c3a4eb6e+0x7fc405>
80004a34:	02000e13          	li	t3,32
80004a38:	00a7d8b3          	srl	a7,a5,a0
80004a3c:	4501                	li	a0,0
80004a3e:	01c80863          	beq	a6,t3,80004a4e <__adddf3+0x3fa>
/home/hqfang/workspace/software/riscv-gnu-toolchain/riscv-gcc/libgcc/soft-fp/adddf3.c:46 (discriminator 306)
80004a42:	04000513          	li	a0,64
80004a46:	41050533          	sub	a0,a0,a6
80004a4a:	00a79533          	sll	a0,a5,a0
/home/hqfang/workspace/software/riscv-gnu-toolchain/riscv-gcc/libgcc/soft-fp/adddf3.c:46 (discriminator 309)
80004a4e:	8d4d                	or	a0,a0,a1
80004a50:	00a03533          	snez	a0,a0
80004a54:	00a8e533          	or	a0,a7,a0
/home/hqfang/workspace/software/riscv-gnu-toolchain/riscv-gcc/libgcc/soft-fp/adddf3.c:46 (discriminator 297)
80004a58:	4781                	li	a5,0
80004a5a:	b7c9                	j	80004a1c <__adddf3+0x3c8>
80004a5c:	00b7e533          	or	a0,a5,a1
80004a60:	00a03533          	snez	a0,a0
80004a64:	bfd5                	j	80004a58 <__adddf3+0x404>
/home/hqfang/workspace/software/riscv-gnu-toolchain/riscv-gcc/libgcc/soft-fp/adddf3.c:46 (discriminator 258)
80004a66:	00140513          	addi	a0,s0,1
80004a6a:	7fe57513          	andi	a0,a0,2046
80004a6e:	e925                	bnez	a0,80004ade <__adddf3+0x48a>
/home/hqfang/workspace/software/riscv-gnu-toolchain/riscv-gcc/libgcc/soft-fp/adddf3.c:46 (discriminator 314)
80004a70:	00b7e833          	or	a6,a5,a1
80004a74:	00c76533          	or	a0,a4,a2
80004a78:	e821                	bnez	s0,80004ac8 <__adddf3+0x474>
/home/hqfang/workspace/software/riscv-gnu-toolchain/riscv-gcc/libgcc/soft-fp/adddf3.c:46 (discriminator 316)
80004a7a:	00081863          	bnez	a6,80004a8a <__adddf3+0x436>
/home/hqfang/workspace/software/riscv-gnu-toolchain/riscv-gcc/libgcc/soft-fp/adddf3.c:46 (discriminator 318)
80004a7e:	1c050263          	beqz	a0,80004c42 <__adddf3+0x5ee>
/home/hqfang/workspace/software/riscv-gnu-toolchain/riscv-gcc/libgcc/soft-fp/adddf3.c:45
80004a82:	87ba                	mv	a5,a4
80004a84:	85b2                	mv	a1,a2
80004a86:	84b6                	mv	s1,a3
80004a88:	bbc5                	j	80004878 <__adddf3+0x224>
/home/hqfang/workspace/software/riscv-gnu-toolchain/riscv-gcc/libgcc/soft-fp/adddf3.c:46 (discriminator 319)
80004a8a:	de0507e3          	beqz	a0,80004878 <__adddf3+0x224>
/home/hqfang/workspace/software/riscv-gnu-toolchain/riscv-gcc/libgcc/soft-fp/adddf3.c:46 (discriminator 326)
80004a8e:	40c58833          	sub	a6,a1,a2
80004a92:	0105b8b3          	sltu	a7,a1,a6
80004a96:	40e78533          	sub	a0,a5,a4
80004a9a:	41150533          	sub	a0,a0,a7
80004a9e:	008008b7          	lui	a7,0x800
80004aa2:	011578b3          	and	a7,a0,a7
80004aa6:	00088a63          	beqz	a7,80004aba <__adddf3+0x466>
/home/hqfang/workspace/software/riscv-gnu-toolchain/riscv-gcc/libgcc/soft-fp/adddf3.c:46 (discriminator 328)
80004aaa:	40b605b3          	sub	a1,a2,a1
80004aae:	40f707b3          	sub	a5,a4,a5
80004ab2:	00b63633          	sltu	a2,a2,a1
80004ab6:	8f91                	sub	a5,a5,a2
80004ab8:	b7f9                	j	80004a86 <__adddf3+0x432>
/home/hqfang/workspace/software/riscv-gnu-toolchain/riscv-gcc/libgcc/soft-fp/adddf3.c:46 (discriminator 329)
80004aba:	00a865b3          	or	a1,a6,a0
80004abe:	18058663          	beqz	a1,80004c4a <__adddf3+0x5f6>
/home/hqfang/workspace/software/riscv-gnu-toolchain/riscv-gcc/libgcc/soft-fp/adddf3.c:46
80004ac2:	87aa                	mv	a5,a0
80004ac4:	85c2                	mv	a1,a6
80004ac6:	bb4d                	j	80004878 <__adddf3+0x224>
/home/hqfang/workspace/software/riscv-gnu-toolchain/riscv-gcc/libgcc/soft-fp/adddf3.c:46 (discriminator 348)
80004ac8:	00081863          	bnez	a6,80004ad8 <__adddf3+0x484>
/home/hqfang/workspace/software/riscv-gnu-toolchain/riscv-gcc/libgcc/soft-fp/adddf3.c:46 (discriminator 349)
80004acc:	18050163          	beqz	a0,80004c4e <__adddf3+0x5fa>
/home/hqfang/workspace/software/riscv-gnu-toolchain/riscv-gcc/libgcc/soft-fp/adddf3.c:45
80004ad0:	87ba                	mv	a5,a4
80004ad2:	85b2                	mv	a1,a2
/home/hqfang/workspace/software/riscv-gnu-toolchain/riscv-gcc/libgcc/soft-fp/adddf3.c:46
80004ad4:	84b6                	mv	s1,a3
80004ad6:	bef5                	j	800046d2 <__adddf3+0x7e>
/home/hqfang/workspace/software/riscv-gnu-toolchain/riscv-gcc/libgcc/soft-fp/adddf3.c:46 (discriminator 350)
80004ad8:	be050de3          	beqz	a0,800046d2 <__adddf3+0x7e>
80004adc:	b3d1                	j	800048a0 <__adddf3+0x24c>
/home/hqfang/workspace/software/riscv-gnu-toolchain/riscv-gcc/libgcc/soft-fp/adddf3.c:46 (discriminator 315)
80004ade:	40c589b3          	sub	s3,a1,a2
80004ae2:	0135b533          	sltu	a0,a1,s3
80004ae6:	40e78933          	sub	s2,a5,a4
80004aea:	40a90933          	sub	s2,s2,a0
80004aee:	00800537          	lui	a0,0x800
80004af2:	00a97533          	and	a0,s2,a0
80004af6:	c925                	beqz	a0,80004b66 <__adddf3+0x512>
/home/hqfang/workspace/software/riscv-gnu-toolchain/riscv-gcc/libgcc/soft-fp/adddf3.c:46 (discriminator 366)
80004af8:	40b609b3          	sub	s3,a2,a1
80004afc:	40f707b3          	sub	a5,a4,a5
80004b00:	01363633          	sltu	a2,a2,s3
80004b04:	40c78933          	sub	s2,a5,a2
80004b08:	84b6                	mv	s1,a3
/home/hqfang/workspace/software/riscv-gnu-toolchain/riscv-gcc/libgcc/soft-fp/adddf3.c:46 (discriminator 375)
80004b0a:	06090463          	beqz	s2,80004b72 <__adddf3+0x51e>
/home/hqfang/workspace/software/riscv-gnu-toolchain/riscv-gcc/libgcc/soft-fp/adddf3.c:46 (discriminator 378)
80004b0e:	854a                	mv	a0,s2
80004b10:	62c010ef          	jal	ra,8000613c <__clzsi2>
/home/hqfang/workspace/software/riscv-gnu-toolchain/riscv-gcc/libgcc/soft-fp/adddf3.c:46 (discriminator 392)
80004b14:	ff850713          	addi	a4,a0,-8 # 7ffff8 <dhry_stubs.c.c3a4eb6e+0x7fc41d>
80004b18:	47fd                	li	a5,31
80004b1a:	06e7c263          	blt	a5,a4,80004b7e <__adddf3+0x52a>
/home/hqfang/workspace/software/riscv-gnu-toolchain/riscv-gcc/libgcc/soft-fp/adddf3.c:46 (discriminator 398)
80004b1e:	02000793          	li	a5,32
80004b22:	8f99                	sub	a5,a5,a4
80004b24:	00e91933          	sll	s2,s2,a4
80004b28:	00f9d7b3          	srl	a5,s3,a5
80004b2c:	0127e7b3          	or	a5,a5,s2
80004b30:	00e995b3          	sll	a1,s3,a4
/home/hqfang/workspace/software/riscv-gnu-toolchain/riscv-gcc/libgcc/soft-fp/adddf3.c:46 (discriminator 402)
80004b34:	06874f63          	blt	a4,s0,80004bb2 <__adddf3+0x55e>
/home/hqfang/workspace/software/riscv-gnu-toolchain/riscv-gcc/libgcc/soft-fp/adddf3.c:46 (discriminator 403)
80004b38:	8f01                	sub	a4,a4,s0
80004b3a:	00170693          	addi	a3,a4,1 # ff800001 <_sp+0x6f7f0001>
80004b3e:	467d                	li	a2,31
80004b40:	04d64563          	blt	a2,a3,80004b8a <__adddf3+0x536>
/home/hqfang/workspace/software/riscv-gnu-toolchain/riscv-gcc/libgcc/soft-fp/adddf3.c:46 (discriminator 405)
80004b44:	02000713          	li	a4,32
80004b48:	8f15                	sub	a4,a4,a3
80004b4a:	00e79633          	sll	a2,a5,a4
80004b4e:	00d5d533          	srl	a0,a1,a3
80004b52:	00e595b3          	sll	a1,a1,a4
80004b56:	8e49                	or	a2,a2,a0
80004b58:	00b035b3          	snez	a1,a1
80004b5c:	8dd1                	or	a1,a1,a2
80004b5e:	00d7d7b3          	srl	a5,a5,a3
/home/hqfang/workspace/software/riscv-gnu-toolchain/riscv-gcc/libgcc/soft-fp/adddf3.c:46 (discriminator 417)
80004b62:	4401                	li	s0,0
80004b64:	bb11                	j	80004878 <__adddf3+0x224>
/home/hqfang/workspace/software/riscv-gnu-toolchain/riscv-gcc/libgcc/soft-fp/adddf3.c:46 (discriminator 367)
80004b66:	0129e5b3          	or	a1,s3,s2
80004b6a:	f1c5                	bnez	a1,80004b0a <__adddf3+0x4b6>
80004b6c:	4781                	li	a5,0
/home/hqfang/workspace/software/riscv-gnu-toolchain/riscv-gcc/libgcc/soft-fp/adddf3.c:46
80004b6e:	4401                	li	s0,0
80004b70:	a8d9                	j	80004c46 <__adddf3+0x5f2>
/home/hqfang/workspace/software/riscv-gnu-toolchain/riscv-gcc/libgcc/soft-fp/adddf3.c:46 (discriminator 385)
80004b72:	854e                	mv	a0,s3
80004b74:	5c8010ef          	jal	ra,8000613c <__clzsi2>
80004b78:	02050513          	addi	a0,a0,32
80004b7c:	bf61                	j	80004b14 <__adddf3+0x4c0>
/home/hqfang/workspace/software/riscv-gnu-toolchain/riscv-gcc/libgcc/soft-fp/adddf3.c:46 (discriminator 394)
80004b7e:	fd850793          	addi	a5,a0,-40
80004b82:	00f997b3          	sll	a5,s3,a5
80004b86:	4581                	li	a1,0
80004b88:	b775                	j	80004b34 <__adddf3+0x4e0>
/home/hqfang/workspace/software/riscv-gnu-toolchain/riscv-gcc/libgcc/soft-fp/adddf3.c:46 (discriminator 406)
80004b8a:	1705                	addi	a4,a4,-31
80004b8c:	02000613          	li	a2,32
80004b90:	00e7d733          	srl	a4,a5,a4
80004b94:	4501                	li	a0,0
80004b96:	00c68763          	beq	a3,a2,80004ba4 <__adddf3+0x550>
/home/hqfang/workspace/software/riscv-gnu-toolchain/riscv-gcc/libgcc/soft-fp/adddf3.c:46 (discriminator 414)
80004b9a:	04000513          	li	a0,64
80004b9e:	8d15                	sub	a0,a0,a3
80004ba0:	00a79533          	sll	a0,a5,a0
/home/hqfang/workspace/software/riscv-gnu-toolchain/riscv-gcc/libgcc/soft-fp/adddf3.c:46 (discriminator 417)
80004ba4:	8d4d                	or	a0,a0,a1
80004ba6:	00a03533          	snez	a0,a0
80004baa:	00a765b3          	or	a1,a4,a0
80004bae:	4781                	li	a5,0
80004bb0:	bf4d                	j	80004b62 <__adddf3+0x50e>
/home/hqfang/workspace/software/riscv-gnu-toolchain/riscv-gcc/libgcc/soft-fp/adddf3.c:46 (discriminator 404)
80004bb2:	8c19                	sub	s0,s0,a4
80004bb4:	ff800737          	lui	a4,0xff800
80004bb8:	177d                	addi	a4,a4,-1
80004bba:	8ff9                	and	a5,a5,a4
80004bbc:	b975                	j	80004878 <__adddf3+0x224>
/home/hqfang/workspace/software/riscv-gnu-toolchain/riscv-gcc/libgcc/soft-fp/adddf3.c:45
80004bbe:	87ba                	mv	a5,a4
80004bc0:	85b2                	mv	a1,a2
/home/hqfang/workspace/software/riscv-gnu-toolchain/riscv-gcc/libgcc/soft-fp/adddf3.c:46
80004bc2:	842a                	mv	s0,a0
80004bc4:	b955                	j	80004878 <__adddf3+0x224>
/home/hqfang/workspace/software/riscv-gnu-toolchain/riscv-gcc/libgcc/soft-fp/adddf3.c:45
80004bc6:	87ba                	mv	a5,a4
80004bc8:	85b2                	mv	a1,a2
80004bca:	b17d                	j	80004878 <__adddf3+0x224>
80004bcc:	7ff00413          	li	s0,2047
80004bd0:	4781                	li	a5,0
80004bd2:	4581                	li	a1,0
/home/hqfang/workspace/software/riscv-gnu-toolchain/riscv-gcc/libgcc/soft-fp/adddf3.c:47 (discriminator 47)
80004bd4:	00800737          	lui	a4,0x800
80004bd8:	8f7d                	and	a4,a4,a5
80004bda:	cb11                	beqz	a4,80004bee <__adddf3+0x59a>
/home/hqfang/workspace/software/riscv-gnu-toolchain/riscv-gcc/libgcc/soft-fp/adddf3.c:47 (discriminator 63)
80004bdc:	0405                	addi	s0,s0,1
80004bde:	7ff00713          	li	a4,2047
80004be2:	06e40b63          	beq	s0,a4,80004c58 <__adddf3+0x604>
/home/hqfang/workspace/software/riscv-gnu-toolchain/riscv-gcc/libgcc/soft-fp/adddf3.c:47
80004be6:	ff800737          	lui	a4,0xff800
80004bea:	177d                	addi	a4,a4,-1
80004bec:	8ff9                	and	a5,a5,a4
/home/hqfang/workspace/software/riscv-gnu-toolchain/riscv-gcc/libgcc/soft-fp/adddf3.c:47 (discriminator 79)
80004bee:	01d79713          	slli	a4,a5,0x1d
80004bf2:	0035d513          	srli	a0,a1,0x3
80004bf6:	8d59                	or	a0,a0,a4
80004bf8:	7ff00713          	li	a4,2047
80004bfc:	838d                	srli	a5,a5,0x3
80004bfe:	00e41963          	bne	s0,a4,80004c10 <__adddf3+0x5bc>
/home/hqfang/workspace/software/riscv-gnu-toolchain/riscv-gcc/libgcc/soft-fp/adddf3.c:47 (discriminator 80)
80004c02:	8d5d                	or	a0,a0,a5
80004c04:	4781                	li	a5,0
80004c06:	c509                	beqz	a0,80004c10 <__adddf3+0x5bc>
/home/hqfang/workspace/software/riscv-gnu-toolchain/riscv-gcc/libgcc/soft-fp/adddf3.c:47
80004c08:	000807b7          	lui	a5,0x80
80004c0c:	4501                	li	a0,0
80004c0e:	4481                	li	s1,0
/home/hqfang/workspace/software/riscv-gnu-toolchain/riscv-gcc/libgcc/soft-fp/adddf3.c:47 (discriminator 90)
80004c10:	01441713          	slli	a4,s0,0x14
80004c14:	7ff006b7          	lui	a3,0x7ff00
80004c18:	07b2                	slli	a5,a5,0xc
/home/hqfang/workspace/software/riscv-gnu-toolchain/riscv-gcc/libgcc/soft-fp/adddf3.c:51 (discriminator 90)
80004c1a:	40f2                	lw	ra,28(sp)
80004c1c:	4462                	lw	s0,24(sp)
/home/hqfang/workspace/software/riscv-gnu-toolchain/riscv-gcc/libgcc/soft-fp/adddf3.c:47 (discriminator 90)
80004c1e:	8f75                	and	a4,a4,a3
80004c20:	83b1                	srli	a5,a5,0xc
80004c22:	04fe                	slli	s1,s1,0x1f
80004c24:	8fd9                	or	a5,a5,a4
80004c26:	0097e733          	or	a4,a5,s1
/home/hqfang/workspace/software/riscv-gnu-toolchain/riscv-gcc/libgcc/soft-fp/adddf3.c:51 (discriminator 90)
80004c2a:	4942                	lw	s2,16(sp)
80004c2c:	44d2                	lw	s1,20(sp)
80004c2e:	49b2                	lw	s3,12(sp)
80004c30:	85ba                	mv	a1,a4
80004c32:	6105                	addi	sp,sp,32
80004c34:	8082                	ret
80004c36:	8442                	mv	s0,a6
80004c38:	b181                	j	80004878 <__adddf3+0x224>
/home/hqfang/workspace/software/riscv-gnu-toolchain/riscv-gcc/libgcc/soft-fp/adddf3.c:45
80004c3a:	87ba                	mv	a5,a4
80004c3c:	85b2                	mv	a1,a2
/home/hqfang/workspace/software/riscv-gnu-toolchain/riscv-gcc/libgcc/soft-fp/adddf3.c:46
80004c3e:	842a                	mv	s0,a0
80004c40:	b599                	j	80004a86 <__adddf3+0x432>
80004c42:	4781                	li	a5,0
80004c44:	4581                	li	a1,0
80004c46:	4481                	li	s1,0
80004c48:	b771                	j	80004bd4 <__adddf3+0x580>
80004c4a:	4781                	li	a5,0
80004c4c:	bfed                	j	80004c46 <__adddf3+0x5f2>
80004c4e:	4581                	li	a1,0
80004c50:	4481                	li	s1,0
80004c52:	004007b7          	lui	a5,0x400
80004c56:	b989                	j	800048a8 <__adddf3+0x254>
80004c58:	4781                	li	a5,0
80004c5a:	4581                	li	a1,0
80004c5c:	bf49                	j	80004bee <__adddf3+0x59a>

80004c5e <__divdf3>:
__divdf3():
/home/hqfang/workspace/software/riscv-gnu-toolchain/riscv-gcc/libgcc/soft-fp/divdf3.c:36
80004c5e:	7179                	addi	sp,sp,-48
80004c60:	d04a                	sw	s2,32(sp)
/home/hqfang/workspace/software/riscv-gnu-toolchain/riscv-gcc/libgcc/soft-fp/divdf3.c:44
80004c62:	0145d913          	srli	s2,a1,0x14
/home/hqfang/workspace/software/riscv-gnu-toolchain/riscv-gcc/libgcc/soft-fp/divdf3.c:36
80004c66:	d226                	sw	s1,36(sp)
80004c68:	ce4e                	sw	s3,28(sp)
80004c6a:	cc52                	sw	s4,24(sp)
80004c6c:	c85a                	sw	s6,16(sp)
80004c6e:	c462                	sw	s8,8(sp)
/home/hqfang/workspace/software/riscv-gnu-toolchain/riscv-gcc/libgcc/soft-fp/divdf3.c:44
80004c70:	00c59493          	slli	s1,a1,0xc
/home/hqfang/workspace/software/riscv-gnu-toolchain/riscv-gcc/libgcc/soft-fp/divdf3.c:36
80004c74:	d606                	sw	ra,44(sp)
80004c76:	d422                	sw	s0,40(sp)
80004c78:	ca56                	sw	s5,20(sp)
80004c7a:	c65e                	sw	s7,12(sp)
/home/hqfang/workspace/software/riscv-gnu-toolchain/riscv-gcc/libgcc/soft-fp/divdf3.c:44
80004c7c:	7ff97913          	andi	s2,s2,2047
/home/hqfang/workspace/software/riscv-gnu-toolchain/riscv-gcc/libgcc/soft-fp/divdf3.c:36
80004c80:	8a2a                	mv	s4,a0
80004c82:	8b32                	mv	s6,a2
80004c84:	8c36                	mv	s8,a3
/home/hqfang/workspace/software/riscv-gnu-toolchain/riscv-gcc/libgcc/soft-fp/divdf3.c:44
80004c86:	80b1                	srli	s1,s1,0xc
80004c88:	01f5d993          	srli	s3,a1,0x1f
80004c8c:	08090463          	beqz	s2,80004d14 <__divdf3+0xb6>
80004c90:	7ff00793          	li	a5,2047
80004c94:	0cf90a63          	beq	s2,a5,80004d68 <__divdf3+0x10a>
/home/hqfang/workspace/software/riscv-gnu-toolchain/riscv-gcc/libgcc/soft-fp/divdf3.c:44 (discriminator 1)
80004c98:	01d55a93          	srli	s5,a0,0x1d
80004c9c:	048e                	slli	s1,s1,0x3
80004c9e:	009ae4b3          	or	s1,s5,s1
80004ca2:	00800ab7          	lui	s5,0x800
80004ca6:	0154eab3          	or	s5,s1,s5
80004caa:	00351413          	slli	s0,a0,0x3
80004cae:	c0190913          	addi	s2,s2,-1023 # 7ffc01 <dhry_stubs.c.c3a4eb6e+0x7fc026>
/home/hqfang/workspace/software/riscv-gnu-toolchain/riscv-gcc/libgcc/soft-fp/divdf3.c:44 (discriminator 41)
80004cb2:	4b81                	li	s7,0
/home/hqfang/workspace/software/riscv-gnu-toolchain/riscv-gcc/libgcc/soft-fp/divdf3.c:45 (discriminator 8)
80004cb4:	00cc1513          	slli	a0,s8,0xc
80004cb8:	00c55493          	srli	s1,a0,0xc
80004cbc:	014c5513          	srli	a0,s8,0x14
80004cc0:	7ff57593          	andi	a1,a0,2047
80004cc4:	01fc5c13          	srli	s8,s8,0x1f
80004cc8:	c1f9                	beqz	a1,80004d8e <__divdf3+0x130>
/home/hqfang/workspace/software/riscv-gnu-toolchain/riscv-gcc/libgcc/soft-fp/divdf3.c:45
80004cca:	7ff00793          	li	a5,2047
80004cce:	10f58b63          	beq	a1,a5,80004de4 <__divdf3+0x186>
/home/hqfang/workspace/software/riscv-gnu-toolchain/riscv-gcc/libgcc/soft-fp/divdf3.c:45 (discriminator 1)
80004cd2:	00349513          	slli	a0,s1,0x3
80004cd6:	01db5793          	srli	a5,s6,0x1d
80004cda:	8d5d                	or	a0,a0,a5
80004cdc:	008004b7          	lui	s1,0x800
80004ce0:	8cc9                	or	s1,s1,a0
80004ce2:	003b1f93          	slli	t6,s6,0x3
80004ce6:	c0158513          	addi	a0,a1,-1023
/home/hqfang/workspace/software/riscv-gnu-toolchain/riscv-gcc/libgcc/soft-fp/divdf3.c:45 (discriminator 41)
80004cea:	4781                	li	a5,0
/home/hqfang/workspace/software/riscv-gnu-toolchain/riscv-gcc/libgcc/soft-fp/divdf3.c:46 (discriminator 8)
80004cec:	002b9713          	slli	a4,s7,0x2
80004cf0:	8f5d                	or	a4,a4,a5
80004cf2:	177d                	addi	a4,a4,-1
80004cf4:	4639                	li	a2,14
80004cf6:	0189c6b3          	xor	a3,s3,s8
80004cfa:	40a905b3          	sub	a1,s2,a0
80004cfe:	10e66563          	bltu	a2,a4,80004e08 <__divdf3+0x1aa>
80004d02:	00002617          	auipc	a2,0x2
80004d06:	6a260613          	addi	a2,a2,1698 # 800073a4 <_ctype_+0x104>
80004d0a:	070a                	slli	a4,a4,0x2
80004d0c:	9732                	add	a4,a4,a2
80004d0e:	4318                	lw	a4,0(a4)
80004d10:	9732                	add	a4,a4,a2
80004d12:	8702                	jr	a4
/home/hqfang/workspace/software/riscv-gnu-toolchain/riscv-gcc/libgcc/soft-fp/divdf3.c:44 (discriminator 2)
80004d14:	00a4eab3          	or	s5,s1,a0
80004d18:	060a8263          	beqz	s5,80004d7c <__divdf3+0x11e>
/home/hqfang/workspace/software/riscv-gnu-toolchain/riscv-gcc/libgcc/soft-fp/divdf3.c:44 (discriminator 13)
80004d1c:	c89d                	beqz	s1,80004d52 <__divdf3+0xf4>
/home/hqfang/workspace/software/riscv-gnu-toolchain/riscv-gcc/libgcc/soft-fp/divdf3.c:44 (discriminator 17)
80004d1e:	8526                	mv	a0,s1
80004d20:	41c010ef          	jal	ra,8000613c <__clzsi2>
/home/hqfang/workspace/software/riscv-gnu-toolchain/riscv-gcc/libgcc/soft-fp/divdf3.c:44 (discriminator 31)
80004d24:	ff550793          	addi	a5,a0,-11
80004d28:	4771                	li	a4,28
80004d2a:	02f74963          	blt	a4,a5,80004d5c <__divdf3+0xfe>
/home/hqfang/workspace/software/riscv-gnu-toolchain/riscv-gcc/libgcc/soft-fp/divdf3.c:44 (discriminator 32)
80004d2e:	4af5                	li	s5,29
80004d30:	ff850413          	addi	s0,a0,-8
80004d34:	40fa8ab3          	sub	s5,s5,a5
80004d38:	008494b3          	sll	s1,s1,s0
80004d3c:	015a5ab3          	srl	s5,s4,s5
80004d40:	009aeab3          	or	s5,s5,s1
80004d44:	008a1433          	sll	s0,s4,s0
/home/hqfang/workspace/software/riscv-gnu-toolchain/riscv-gcc/libgcc/soft-fp/divdf3.c:44 (discriminator 41)
80004d48:	c0d00593          	li	a1,-1011
80004d4c:	40a58933          	sub	s2,a1,a0
80004d50:	b78d                	j	80004cb2 <__divdf3+0x54>
/home/hqfang/workspace/software/riscv-gnu-toolchain/riscv-gcc/libgcc/soft-fp/divdf3.c:44 (discriminator 24)
80004d52:	3ea010ef          	jal	ra,8000613c <__clzsi2>
80004d56:	02050513          	addi	a0,a0,32
80004d5a:	b7e9                	j	80004d24 <__divdf3+0xc6>
/home/hqfang/workspace/software/riscv-gnu-toolchain/riscv-gcc/libgcc/soft-fp/divdf3.c:44 (discriminator 33)
80004d5c:	fd850493          	addi	s1,a0,-40
80004d60:	009a1ab3          	sll	s5,s4,s1
80004d64:	4401                	li	s0,0
80004d66:	b7cd                	j	80004d48 <__divdf3+0xea>
/home/hqfang/workspace/software/riscv-gnu-toolchain/riscv-gcc/libgcc/soft-fp/divdf3.c:44 (discriminator 3)
80004d68:	00a4eab3          	or	s5,s1,a0
80004d6c:	000a8c63          	beqz	s5,80004d84 <__divdf3+0x126>
80004d70:	842a                	mv	s0,a0
/home/hqfang/workspace/software/riscv-gnu-toolchain/riscv-gcc/libgcc/soft-fp/divdf3.c:44
80004d72:	8aa6                	mv	s5,s1
80004d74:	7ff00913          	li	s2,2047
80004d78:	4b8d                	li	s7,3
80004d7a:	bf2d                	j	80004cb4 <__divdf3+0x56>
80004d7c:	4401                	li	s0,0
80004d7e:	4901                	li	s2,0
80004d80:	4b85                	li	s7,1
80004d82:	bf0d                	j	80004cb4 <__divdf3+0x56>
80004d84:	4401                	li	s0,0
80004d86:	7ff00913          	li	s2,2047
80004d8a:	4b89                	li	s7,2
80004d8c:	b725                	j	80004cb4 <__divdf3+0x56>
/home/hqfang/workspace/software/riscv-gnu-toolchain/riscv-gcc/libgcc/soft-fp/divdf3.c:45 (discriminator 2)
80004d8e:	0164efb3          	or	t6,s1,s6
80004d92:	060f8263          	beqz	t6,80004df6 <__divdf3+0x198>
/home/hqfang/workspace/software/riscv-gnu-toolchain/riscv-gcc/libgcc/soft-fp/divdf3.c:45 (discriminator 13)
80004d96:	c89d                	beqz	s1,80004dcc <__divdf3+0x16e>
/home/hqfang/workspace/software/riscv-gnu-toolchain/riscv-gcc/libgcc/soft-fp/divdf3.c:45 (discriminator 17)
80004d98:	8526                	mv	a0,s1
80004d9a:	3a2010ef          	jal	ra,8000613c <__clzsi2>
80004d9e:	85aa                	mv	a1,a0
/home/hqfang/workspace/software/riscv-gnu-toolchain/riscv-gcc/libgcc/soft-fp/divdf3.c:45 (discriminator 31)
80004da0:	ff558793          	addi	a5,a1,-11
80004da4:	4771                	li	a4,28
80004da6:	02f74963          	blt	a4,a5,80004dd8 <__divdf3+0x17a>
/home/hqfang/workspace/software/riscv-gnu-toolchain/riscv-gcc/libgcc/soft-fp/divdf3.c:45 (discriminator 32)
80004daa:	46f5                	li	a3,29
80004dac:	ff858f93          	addi	t6,a1,-8
80004db0:	8e9d                	sub	a3,a3,a5
80004db2:	01f49533          	sll	a0,s1,t6
80004db6:	00db56b3          	srl	a3,s6,a3
80004dba:	00a6e4b3          	or	s1,a3,a0
80004dbe:	01fb1fb3          	sll	t6,s6,t6
/home/hqfang/workspace/software/riscv-gnu-toolchain/riscv-gcc/libgcc/soft-fp/divdf3.c:45 (discriminator 41)
80004dc2:	c0d00693          	li	a3,-1011
80004dc6:	40b68533          	sub	a0,a3,a1
80004dca:	b705                	j	80004cea <__divdf3+0x8c>
/home/hqfang/workspace/software/riscv-gnu-toolchain/riscv-gcc/libgcc/soft-fp/divdf3.c:45 (discriminator 24)
80004dcc:	855a                	mv	a0,s6
80004dce:	36e010ef          	jal	ra,8000613c <__clzsi2>
80004dd2:	02050593          	addi	a1,a0,32
80004dd6:	b7e9                	j	80004da0 <__divdf3+0x142>
/home/hqfang/workspace/software/riscv-gnu-toolchain/riscv-gcc/libgcc/soft-fp/divdf3.c:45 (discriminator 33)
80004dd8:	fd858513          	addi	a0,a1,-40
80004ddc:	00ab14b3          	sll	s1,s6,a0
80004de0:	4f81                	li	t6,0
80004de2:	b7c5                	j	80004dc2 <__divdf3+0x164>
/home/hqfang/workspace/software/riscv-gnu-toolchain/riscv-gcc/libgcc/soft-fp/divdf3.c:45 (discriminator 3)
80004de4:	0164efb3          	or	t6,s1,s6
80004de8:	000f8b63          	beqz	t6,80004dfe <__divdf3+0x1a0>
/home/hqfang/workspace/software/riscv-gnu-toolchain/riscv-gcc/libgcc/soft-fp/divdf3.c:45
80004dec:	8fda                	mv	t6,s6
80004dee:	7ff00513          	li	a0,2047
80004df2:	478d                	li	a5,3
80004df4:	bde5                	j	80004cec <__divdf3+0x8e>
80004df6:	4481                	li	s1,0
80004df8:	4501                	li	a0,0
80004dfa:	4785                	li	a5,1
80004dfc:	bdc5                	j	80004cec <__divdf3+0x8e>
80004dfe:	4481                	li	s1,0
80004e00:	7ff00513          	li	a0,2047
80004e04:	4789                	li	a5,2
80004e06:	b5dd                	j	80004cec <__divdf3+0x8e>
/home/hqfang/workspace/software/riscv-gnu-toolchain/riscv-gcc/libgcc/soft-fp/divdf3.c:46 (discriminator 2)
80004e08:	0154e663          	bltu	s1,s5,80004e14 <__divdf3+0x1b6>
/home/hqfang/workspace/software/riscv-gnu-toolchain/riscv-gcc/libgcc/soft-fp/divdf3.c:46 (discriminator 11)
80004e0c:	2a9a9663          	bne	s5,s1,800050b8 <__divdf3+0x45a>
/home/hqfang/workspace/software/riscv-gnu-toolchain/riscv-gcc/libgcc/soft-fp/divdf3.c:46 (discriminator 12)
80004e10:	2bf46463          	bltu	s0,t6,800050b8 <__divdf3+0x45a>
/home/hqfang/workspace/software/riscv-gnu-toolchain/riscv-gcc/libgcc/soft-fp/divdf3.c:46 (discriminator 14)
80004e14:	01fa9613          	slli	a2,s5,0x1f
80004e18:	00145713          	srli	a4,s0,0x1
80004e1c:	01f41793          	slli	a5,s0,0x1f
80004e20:	001ada93          	srli	s5,s5,0x1
80004e24:	00e66433          	or	s0,a2,a4
/home/hqfang/workspace/software/riscv-gnu-toolchain/riscv-gcc/libgcc/soft-fp/divdf3.c:46 (discriminator 19)
80004e28:	00849513          	slli	a0,s1,0x8
80004e2c:	018fd893          	srli	a7,t6,0x18
80004e30:	00a8e8b3          	or	a7,a7,a0
80004e34:	8141                	srli	a0,a0,0x10
80004e36:	02aade33          	divu	t3,s5,a0
80004e3a:	01089e93          	slli	t4,a7,0x10
80004e3e:	010ede93          	srli	t4,t4,0x10
80004e42:	01045713          	srli	a4,s0,0x10
80004e46:	008f9313          	slli	t1,t6,0x8
80004e4a:	02aafab3          	remu	s5,s5,a0
80004e4e:	8672                	mv	a2,t3
80004e50:	03ce8833          	mul	a6,t4,t3
80004e54:	0ac2                	slli	s5,s5,0x10
80004e56:	01576733          	or	a4,a4,s5
80004e5a:	01077c63          	bgeu	a4,a6,80004e72 <__divdf3+0x214>
/home/hqfang/workspace/software/riscv-gnu-toolchain/riscv-gcc/libgcc/soft-fp/divdf3.c:46 (discriminator 22)
80004e5e:	9746                	add	a4,a4,a7
80004e60:	fffe0613          	addi	a2,t3,-1 # ffff <dhry_stubs.c.c3a4eb6e+0xc424>
80004e64:	01176763          	bltu	a4,a7,80004e72 <__divdf3+0x214>
/home/hqfang/workspace/software/riscv-gnu-toolchain/riscv-gcc/libgcc/soft-fp/divdf3.c:46 (discriminator 24)
80004e68:	01077563          	bgeu	a4,a6,80004e72 <__divdf3+0x214>
/home/hqfang/workspace/software/riscv-gnu-toolchain/riscv-gcc/libgcc/soft-fp/divdf3.c:46 (discriminator 26)
80004e6c:	ffee0613          	addi	a2,t3,-2
80004e70:	9746                	add	a4,a4,a7
/home/hqfang/workspace/software/riscv-gnu-toolchain/riscv-gcc/libgcc/soft-fp/divdf3.c:46 (discriminator 28)
80004e72:	41070733          	sub	a4,a4,a6
80004e76:	02a75e33          	divu	t3,a4,a0
80004e7a:	0442                	slli	s0,s0,0x10
80004e7c:	8041                	srli	s0,s0,0x10
80004e7e:	02a77733          	remu	a4,a4,a0
80004e82:	82f2                	mv	t0,t3
80004e84:	03ce8833          	mul	a6,t4,t3
80004e88:	0742                	slli	a4,a4,0x10
80004e8a:	8f41                	or	a4,a4,s0
80004e8c:	01077c63          	bgeu	a4,a6,80004ea4 <__divdf3+0x246>
/home/hqfang/workspace/software/riscv-gnu-toolchain/riscv-gcc/libgcc/soft-fp/divdf3.c:46 (discriminator 29)
80004e90:	9746                	add	a4,a4,a7
80004e92:	fffe0293          	addi	t0,t3,-1
80004e96:	01176763          	bltu	a4,a7,80004ea4 <__divdf3+0x246>
/home/hqfang/workspace/software/riscv-gnu-toolchain/riscv-gcc/libgcc/soft-fp/divdf3.c:46 (discriminator 31)
80004e9a:	01077563          	bgeu	a4,a6,80004ea4 <__divdf3+0x246>
/home/hqfang/workspace/software/riscv-gnu-toolchain/riscv-gcc/libgcc/soft-fp/divdf3.c:46 (discriminator 33)
80004e9e:	ffee0293          	addi	t0,t3,-2
80004ea2:	9746                	add	a4,a4,a7
/home/hqfang/workspace/software/riscv-gnu-toolchain/riscv-gcc/libgcc/soft-fp/divdf3.c:46 (discriminator 35)
80004ea4:	41070433          	sub	s0,a4,a6
80004ea8:	0642                	slli	a2,a2,0x10
80004eaa:	6841                	lui	a6,0x10
80004eac:	005662b3          	or	t0,a2,t0
80004eb0:	fff80e13          	addi	t3,a6,-1 # ffff <dhry_stubs.c.c3a4eb6e+0xc424>
80004eb4:	0102d613          	srli	a2,t0,0x10
80004eb8:	01c2f733          	and	a4,t0,t3
80004ebc:	01035f13          	srli	t5,t1,0x10
80004ec0:	01c37e33          	and	t3,t1,t3
80004ec4:	02ee03b3          	mul	t2,t3,a4
80004ec8:	03c604b3          	mul	s1,a2,t3
80004ecc:	02ef0733          	mul	a4,t5,a4
80004ed0:	03e60fb3          	mul	t6,a2,t5
80004ed4:	00970633          	add	a2,a4,s1
80004ed8:	0103d713          	srli	a4,t2,0x10
80004edc:	9732                	add	a4,a4,a2
80004ede:	00977363          	bgeu	a4,s1,80004ee4 <__divdf3+0x286>
/home/hqfang/workspace/software/riscv-gnu-toolchain/riscv-gcc/libgcc/soft-fp/divdf3.c:46 (discriminator 36)
80004ee2:	9fc2                	add	t6,t6,a6
/home/hqfang/workspace/software/riscv-gnu-toolchain/riscv-gcc/libgcc/soft-fp/divdf3.c:46 (discriminator 38)
80004ee4:	01075613          	srli	a2,a4,0x10
80004ee8:	967e                	add	a2,a2,t6
80004eea:	6fc1                	lui	t6,0x10
80004eec:	1ffd                	addi	t6,t6,-1
80004eee:	01f77833          	and	a6,a4,t6
80004ef2:	0842                	slli	a6,a6,0x10
80004ef4:	01f3f3b3          	and	t2,t2,t6
80004ef8:	981e                	add	a6,a6,t2
80004efa:	00c46763          	bltu	s0,a2,80004f08 <__divdf3+0x2aa>
/home/hqfang/workspace/software/riscv-gnu-toolchain/riscv-gcc/libgcc/soft-fp/divdf3.c:46 (discriminator 40)
80004efe:	8496                	mv	s1,t0
80004f00:	02c41e63          	bne	s0,a2,80004f3c <__divdf3+0x2de>
/home/hqfang/workspace/software/riscv-gnu-toolchain/riscv-gcc/libgcc/soft-fp/divdf3.c:46 (discriminator 41)
80004f04:	0307fc63          	bgeu	a5,a6,80004f3c <__divdf3+0x2de>
/home/hqfang/workspace/software/riscv-gnu-toolchain/riscv-gcc/libgcc/soft-fp/divdf3.c:46 (discriminator 43)
80004f08:	979a                	add	a5,a5,t1
80004f0a:	0067b733          	sltu	a4,a5,t1
80004f0e:	9746                	add	a4,a4,a7
80004f10:	943a                	add	s0,s0,a4
80004f12:	fff28493          	addi	s1,t0,-1
80004f16:	0088e663          	bltu	a7,s0,80004f22 <__divdf3+0x2c4>
/home/hqfang/workspace/software/riscv-gnu-toolchain/riscv-gcc/libgcc/soft-fp/divdf3.c:46 (discriminator 46)
80004f1a:	02889163          	bne	a7,s0,80004f3c <__divdf3+0x2de>
/home/hqfang/workspace/software/riscv-gnu-toolchain/riscv-gcc/libgcc/soft-fp/divdf3.c:46 (discriminator 47)
80004f1e:	0067ef63          	bltu	a5,t1,80004f3c <__divdf3+0x2de>
/home/hqfang/workspace/software/riscv-gnu-toolchain/riscv-gcc/libgcc/soft-fp/divdf3.c:46 (discriminator 49)
80004f22:	00c46663          	bltu	s0,a2,80004f2e <__divdf3+0x2d0>
/home/hqfang/workspace/software/riscv-gnu-toolchain/riscv-gcc/libgcc/soft-fp/divdf3.c:46 (discriminator 52)
80004f26:	00861b63          	bne	a2,s0,80004f3c <__divdf3+0x2de>
/home/hqfang/workspace/software/riscv-gnu-toolchain/riscv-gcc/libgcc/soft-fp/divdf3.c:46 (discriminator 53)
80004f2a:	0107f963          	bgeu	a5,a6,80004f3c <__divdf3+0x2de>
/home/hqfang/workspace/software/riscv-gnu-toolchain/riscv-gcc/libgcc/soft-fp/divdf3.c:46 (discriminator 55)
80004f2e:	979a                	add	a5,a5,t1
80004f30:	0067b733          	sltu	a4,a5,t1
80004f34:	9746                	add	a4,a4,a7
80004f36:	ffe28493          	addi	s1,t0,-2
80004f3a:	943a                	add	s0,s0,a4
/home/hqfang/workspace/software/riscv-gnu-toolchain/riscv-gcc/libgcc/soft-fp/divdf3.c:46 (discriminator 57)
80004f3c:	41078833          	sub	a6,a5,a6
80004f40:	8c11                	sub	s0,s0,a2
80004f42:	0107b7b3          	sltu	a5,a5,a6
80004f46:	8c1d                	sub	s0,s0,a5
80004f48:	5ffd                	li	t6,-1
80004f4a:	0e888763          	beq	a7,s0,80005038 <__divdf3+0x3da>
/home/hqfang/workspace/software/riscv-gnu-toolchain/riscv-gcc/libgcc/soft-fp/divdf3.c:46 (discriminator 59)
80004f4e:	02a45fb3          	divu	t6,s0,a0
80004f52:	01085713          	srli	a4,a6,0x10
80004f56:	02a47433          	remu	s0,s0,a0
80004f5a:	867e                	mv	a2,t6
80004f5c:	03fe87b3          	mul	a5,t4,t6
80004f60:	0442                	slli	s0,s0,0x10
80004f62:	8c59                	or	s0,s0,a4
80004f64:	00f47c63          	bgeu	s0,a5,80004f7c <__divdf3+0x31e>
/home/hqfang/workspace/software/riscv-gnu-toolchain/riscv-gcc/libgcc/soft-fp/divdf3.c:46 (discriminator 61)
80004f68:	9446                	add	s0,s0,a7
80004f6a:	ffff8613          	addi	a2,t6,-1 # ffff <dhry_stubs.c.c3a4eb6e+0xc424>
80004f6e:	01146763          	bltu	s0,a7,80004f7c <__divdf3+0x31e>
/home/hqfang/workspace/software/riscv-gnu-toolchain/riscv-gcc/libgcc/soft-fp/divdf3.c:46 (discriminator 63)
80004f72:	00f47563          	bgeu	s0,a5,80004f7c <__divdf3+0x31e>
/home/hqfang/workspace/software/riscv-gnu-toolchain/riscv-gcc/libgcc/soft-fp/divdf3.c:46 (discriminator 65)
80004f76:	ffef8613          	addi	a2,t6,-2
80004f7a:	9446                	add	s0,s0,a7
/home/hqfang/workspace/software/riscv-gnu-toolchain/riscv-gcc/libgcc/soft-fp/divdf3.c:46 (discriminator 67)
80004f7c:	8c1d                	sub	s0,s0,a5
80004f7e:	02a45733          	divu	a4,s0,a0
80004f82:	0842                	slli	a6,a6,0x10
80004f84:	01085813          	srli	a6,a6,0x10
80004f88:	02a47433          	remu	s0,s0,a0
80004f8c:	87ba                	mv	a5,a4
80004f8e:	02ee8eb3          	mul	t4,t4,a4
80004f92:	0442                	slli	s0,s0,0x10
80004f94:	00886433          	or	s0,a6,s0
80004f98:	01d47c63          	bgeu	s0,t4,80004fb0 <__divdf3+0x352>
/home/hqfang/workspace/software/riscv-gnu-toolchain/riscv-gcc/libgcc/soft-fp/divdf3.c:46 (discriminator 68)
80004f9c:	9446                	add	s0,s0,a7
80004f9e:	fff70793          	addi	a5,a4,-1 # ff7fffff <_sp+0x6f7effff>
80004fa2:	01146763          	bltu	s0,a7,80004fb0 <__divdf3+0x352>
/home/hqfang/workspace/software/riscv-gnu-toolchain/riscv-gcc/libgcc/soft-fp/divdf3.c:46 (discriminator 70)
80004fa6:	01d47563          	bgeu	s0,t4,80004fb0 <__divdf3+0x352>
/home/hqfang/workspace/software/riscv-gnu-toolchain/riscv-gcc/libgcc/soft-fp/divdf3.c:46 (discriminator 72)
80004faa:	ffe70793          	addi	a5,a4,-2
80004fae:	9446                	add	s0,s0,a7
/home/hqfang/workspace/software/riscv-gnu-toolchain/riscv-gcc/libgcc/soft-fp/divdf3.c:46 (discriminator 74)
80004fb0:	0642                	slli	a2,a2,0x10
80004fb2:	8e5d                	or	a2,a2,a5
80004fb4:	01061793          	slli	a5,a2,0x10
80004fb8:	83c1                	srli	a5,a5,0x10
80004fba:	01065713          	srli	a4,a2,0x10
80004fbe:	02ef0833          	mul	a6,t5,a4
80004fc2:	41d40433          	sub	s0,s0,t4
80004fc6:	02ff0f33          	mul	t5,t5,a5
80004fca:	03c78eb3          	mul	t4,a5,t3
80004fce:	03c70e33          	mul	t3,a4,t3
80004fd2:	010ed793          	srli	a5,t4,0x10
80004fd6:	9f72                	add	t5,t5,t3
80004fd8:	97fa                	add	a5,a5,t5
80004fda:	01c7f463          	bgeu	a5,t3,80004fe2 <__divdf3+0x384>
/home/hqfang/workspace/software/riscv-gnu-toolchain/riscv-gcc/libgcc/soft-fp/divdf3.c:46 (discriminator 75)
80004fde:	6741                	lui	a4,0x10
80004fe0:	983a                	add	a6,a6,a4
/home/hqfang/workspace/software/riscv-gnu-toolchain/riscv-gcc/libgcc/soft-fp/divdf3.c:46 (discriminator 77)
80004fe2:	0107d713          	srli	a4,a5,0x10
80004fe6:	9742                	add	a4,a4,a6
80004fe8:	6841                	lui	a6,0x10
80004fea:	187d                	addi	a6,a6,-1
80004fec:	0107f533          	and	a0,a5,a6
80004ff0:	0542                	slli	a0,a0,0x10
80004ff2:	010efeb3          	and	t4,t4,a6
80004ff6:	9576                	add	a0,a0,t4
80004ff8:	00e46663          	bltu	s0,a4,80005004 <__divdf3+0x3a6>
/home/hqfang/workspace/software/riscv-gnu-toolchain/riscv-gcc/libgcc/soft-fp/divdf3.c:46 (discriminator 79)
80004ffc:	18e41f63          	bne	s0,a4,8000519a <__divdf3+0x53c>
/home/hqfang/workspace/software/riscv-gnu-toolchain/riscv-gcc/libgcc/soft-fp/divdf3.c:46 (discriminator 80)
80005000:	8fb2                	mv	t6,a2
80005002:	c91d                	beqz	a0,80005038 <__divdf3+0x3da>
/home/hqfang/workspace/software/riscv-gnu-toolchain/riscv-gcc/libgcc/soft-fp/divdf3.c:46 (discriminator 82)
80005004:	9446                	add	s0,s0,a7
80005006:	fff60f93          	addi	t6,a2,-1
8000500a:	03146163          	bltu	s0,a7,8000502c <__divdf3+0x3ce>
/home/hqfang/workspace/software/riscv-gnu-toolchain/riscv-gcc/libgcc/soft-fp/divdf3.c:46 (discriminator 88)
8000500e:	00e46663          	bltu	s0,a4,8000501a <__divdf3+0x3bc>
/home/hqfang/workspace/software/riscv-gnu-toolchain/riscv-gcc/libgcc/soft-fp/divdf3.c:46 (discriminator 91)
80005012:	18e41363          	bne	s0,a4,80005198 <__divdf3+0x53a>
/home/hqfang/workspace/software/riscv-gnu-toolchain/riscv-gcc/libgcc/soft-fp/divdf3.c:46 (discriminator 92)
80005016:	00a37d63          	bgeu	t1,a0,80005030 <__divdf3+0x3d2>
/home/hqfang/workspace/software/riscv-gnu-toolchain/riscv-gcc/libgcc/soft-fp/divdf3.c:46 (discriminator 94)
8000501a:	00131793          	slli	a5,t1,0x1
8000501e:	0067b333          	sltu	t1,a5,t1
80005022:	989a                	add	a7,a7,t1
80005024:	ffe60f93          	addi	t6,a2,-2
80005028:	9446                	add	s0,s0,a7
8000502a:	833e                	mv	t1,a5
/home/hqfang/workspace/software/riscv-gnu-toolchain/riscv-gcc/libgcc/soft-fp/divdf3.c:46 (discriminator 96)
8000502c:	00e41463          	bne	s0,a4,80005034 <__divdf3+0x3d6>
/home/hqfang/workspace/software/riscv-gnu-toolchain/riscv-gcc/libgcc/soft-fp/divdf3.c:46 (discriminator 98)
80005030:	00650463          	beq	a0,t1,80005038 <__divdf3+0x3da>
/home/hqfang/workspace/software/riscv-gnu-toolchain/riscv-gcc/libgcc/soft-fp/divdf3.c:46 (discriminator 99)
80005034:	001fef93          	ori	t6,t6,1
/home/hqfang/workspace/software/riscv-gnu-toolchain/riscv-gcc/libgcc/soft-fp/divdf3.c:47 (discriminator 2)
80005038:	3ff58793          	addi	a5,a1,1023
8000503c:	0af05b63          	blez	a5,800050f2 <__divdf3+0x494>
/home/hqfang/workspace/software/riscv-gnu-toolchain/riscv-gcc/libgcc/soft-fp/divdf3.c:47 (discriminator 6)
80005040:	007ff713          	andi	a4,t6,7
80005044:	cf01                	beqz	a4,8000505c <__divdf3+0x3fe>
/home/hqfang/workspace/software/riscv-gnu-toolchain/riscv-gcc/libgcc/soft-fp/divdf3.c:47 (discriminator 8)
80005046:	00fff713          	andi	a4,t6,15
8000504a:	4611                	li	a2,4
8000504c:	00c70863          	beq	a4,a2,8000505c <__divdf3+0x3fe>
/home/hqfang/workspace/software/riscv-gnu-toolchain/riscv-gcc/libgcc/soft-fp/divdf3.c:47 (discriminator 10)
80005050:	004f8613          	addi	a2,t6,4
80005054:	01f63fb3          	sltu	t6,a2,t6
80005058:	94fe                	add	s1,s1,t6
8000505a:	8fb2                	mv	t6,a2
/home/hqfang/workspace/software/riscv-gnu-toolchain/riscv-gcc/libgcc/soft-fp/divdf3.c:47 (discriminator 9)
8000505c:	01000737          	lui	a4,0x1000
80005060:	8f65                	and	a4,a4,s1
80005062:	c719                	beqz	a4,80005070 <__divdf3+0x412>
/home/hqfang/workspace/software/riscv-gnu-toolchain/riscv-gcc/libgcc/soft-fp/divdf3.c:47 (discriminator 24)
80005064:	ff0007b7          	lui	a5,0xff000
80005068:	17fd                	addi	a5,a5,-1
8000506a:	8cfd                	and	s1,s1,a5
8000506c:	40058793          	addi	a5,a1,1024
/home/hqfang/workspace/software/riscv-gnu-toolchain/riscv-gcc/libgcc/soft-fp/divdf3.c:47 (discriminator 26)
80005070:	7fe00713          	li	a4,2046
80005074:	06f74263          	blt	a4,a5,800050d8 <__divdf3+0x47a>
/home/hqfang/workspace/software/riscv-gnu-toolchain/riscv-gcc/libgcc/soft-fp/divdf3.c:47
80005078:	003fdf93          	srli	t6,t6,0x3
8000507c:	01d49713          	slli	a4,s1,0x1d
80005080:	01f76733          	or	a4,a4,t6
80005084:	0034d513          	srli	a0,s1,0x3
/home/hqfang/workspace/software/riscv-gnu-toolchain/riscv-gcc/libgcc/soft-fp/divdf3.c:47 (discriminator 119)
80005088:	07d2                	slli	a5,a5,0x14
8000508a:	7ff00637          	lui	a2,0x7ff00
8000508e:	0532                	slli	a0,a0,0xc
/home/hqfang/workspace/software/riscv-gnu-toolchain/riscv-gcc/libgcc/soft-fp/divdf3.c:51 (discriminator 119)
80005090:	50b2                	lw	ra,44(sp)
80005092:	5422                	lw	s0,40(sp)
/home/hqfang/workspace/software/riscv-gnu-toolchain/riscv-gcc/libgcc/soft-fp/divdf3.c:47 (discriminator 119)
80005094:	8ff1                	and	a5,a5,a2
80005096:	8131                	srli	a0,a0,0xc
80005098:	8d5d                	or	a0,a0,a5
8000509a:	06fe                	slli	a3,a3,0x1f
8000509c:	00d567b3          	or	a5,a0,a3
/home/hqfang/workspace/software/riscv-gnu-toolchain/riscv-gcc/libgcc/soft-fp/divdf3.c:51 (discriminator 119)
800050a0:	5492                	lw	s1,36(sp)
800050a2:	5902                	lw	s2,32(sp)
800050a4:	49f2                	lw	s3,28(sp)
800050a6:	4a62                	lw	s4,24(sp)
800050a8:	4ad2                	lw	s5,20(sp)
800050aa:	4b42                	lw	s6,16(sp)
800050ac:	4bb2                	lw	s7,12(sp)
800050ae:	4c22                	lw	s8,8(sp)
800050b0:	853a                	mv	a0,a4
800050b2:	85be                	mv	a1,a5
800050b4:	6145                	addi	sp,sp,48
800050b6:	8082                	ret
/home/hqfang/workspace/software/riscv-gnu-toolchain/riscv-gcc/libgcc/soft-fp/divdf3.c:46 (discriminator 15)
800050b8:	15fd                	addi	a1,a1,-1
800050ba:	4781                	li	a5,0
800050bc:	b3b5                	j	80004e28 <__divdf3+0x1ca>
/home/hqfang/workspace/software/riscv-gnu-toolchain/riscv-gcc/libgcc/soft-fp/divdf3.c:44 (discriminator 8)
800050be:	86ce                	mv	a3,s3
/home/hqfang/workspace/software/riscv-gnu-toolchain/riscv-gcc/libgcc/soft-fp/divdf3.c:46 (discriminator 8)
800050c0:	84d6                	mv	s1,s5
800050c2:	8fa2                	mv	t6,s0
800050c4:	87de                	mv	a5,s7
/home/hqfang/workspace/software/riscv-gnu-toolchain/riscv-gcc/libgcc/soft-fp/divdf3.c:47 (discriminator 108)
800050c6:	470d                	li	a4,3
800050c8:	0ae78a63          	beq	a5,a4,8000517c <__divdf3+0x51e>
/home/hqfang/workspace/software/riscv-gnu-toolchain/riscv-gcc/libgcc/soft-fp/divdf3.c:47
800050cc:	4705                	li	a4,1
800050ce:	0ae78e63          	beq	a5,a4,8000518a <__divdf3+0x52c>
800050d2:	4709                	li	a4,2
800050d4:	f6e792e3          	bne	a5,a4,80005038 <__divdf3+0x3da>
800050d8:	4501                	li	a0,0
800050da:	4701                	li	a4,0
800050dc:	7ff00793          	li	a5,2047
800050e0:	b765                	j	80005088 <__divdf3+0x42a>
/home/hqfang/workspace/software/riscv-gnu-toolchain/riscv-gcc/libgcc/soft-fp/divdf3.c:45 (discriminator 5)
800050e2:	86e2                	mv	a3,s8
/home/hqfang/workspace/software/riscv-gnu-toolchain/riscv-gcc/libgcc/soft-fp/divdf3.c:46 (discriminator 5)
800050e4:	b7cd                	j	800050c6 <__divdf3+0x468>
/home/hqfang/workspace/software/riscv-gnu-toolchain/riscv-gcc/libgcc/soft-fp/divdf3.c:46
800050e6:	000804b7          	lui	s1,0x80
800050ea:	4f81                	li	t6,0
800050ec:	4681                	li	a3,0
800050ee:	478d                	li	a5,3
800050f0:	bfd9                	j	800050c6 <__divdf3+0x468>
/home/hqfang/workspace/software/riscv-gnu-toolchain/riscv-gcc/libgcc/soft-fp/divdf3.c:47 (discriminator 59)
800050f2:	4505                	li	a0,1
800050f4:	8d1d                	sub	a0,a0,a5
800050f6:	03800713          	li	a4,56
800050fa:	08a74863          	blt	a4,a0,8000518a <__divdf3+0x52c>
/home/hqfang/workspace/software/riscv-gnu-toolchain/riscv-gcc/libgcc/soft-fp/divdf3.c:47 (discriminator 60)
800050fe:	477d                	li	a4,31
80005100:	04a74963          	blt	a4,a0,80005152 <__divdf3+0x4f4>
/home/hqfang/workspace/software/riscv-gnu-toolchain/riscv-gcc/libgcc/soft-fp/divdf3.c:47 (discriminator 62)
80005104:	41e58593          	addi	a1,a1,1054
80005108:	00b497b3          	sll	a5,s1,a1
8000510c:	00afd733          	srl	a4,t6,a0
80005110:	00bf95b3          	sll	a1,t6,a1
80005114:	8fd9                	or	a5,a5,a4
80005116:	00b035b3          	snez	a1,a1
8000511a:	8fcd                	or	a5,a5,a1
8000511c:	00a4d533          	srl	a0,s1,a0
/home/hqfang/workspace/software/riscv-gnu-toolchain/riscv-gcc/libgcc/soft-fp/divdf3.c:47 (discriminator 75)
80005120:	0077f713          	andi	a4,a5,7
80005124:	cf01                	beqz	a4,8000513c <__divdf3+0x4de>
/home/hqfang/workspace/software/riscv-gnu-toolchain/riscv-gcc/libgcc/soft-fp/divdf3.c:47 (discriminator 76)
80005126:	00f7f713          	andi	a4,a5,15
8000512a:	4611                	li	a2,4
8000512c:	00c70863          	beq	a4,a2,8000513c <__divdf3+0x4de>
/home/hqfang/workspace/software/riscv-gnu-toolchain/riscv-gcc/libgcc/soft-fp/divdf3.c:47 (discriminator 78)
80005130:	00478713          	addi	a4,a5,4 # ff000004 <_sp+0x6eff0004>
80005134:	00f737b3          	sltu	a5,a4,a5
80005138:	953e                	add	a0,a0,a5
8000513a:	87ba                	mv	a5,a4
/home/hqfang/workspace/software/riscv-gnu-toolchain/riscv-gcc/libgcc/soft-fp/divdf3.c:47 (discriminator 77)
8000513c:	00800737          	lui	a4,0x800
80005140:	8f69                	and	a4,a4,a0
80005142:	e739                	bnez	a4,80005190 <__divdf3+0x532>
/home/hqfang/workspace/software/riscv-gnu-toolchain/riscv-gcc/libgcc/soft-fp/divdf3.c:47 (discriminator 93)
80005144:	01d51713          	slli	a4,a0,0x1d
80005148:	838d                	srli	a5,a5,0x3
8000514a:	8f5d                	or	a4,a4,a5
8000514c:	810d                	srli	a0,a0,0x3
/home/hqfang/workspace/software/riscv-gnu-toolchain/riscv-gcc/libgcc/soft-fp/divdf3.c:47
8000514e:	4781                	li	a5,0
80005150:	bf25                	j	80005088 <__divdf3+0x42a>
/home/hqfang/workspace/software/riscv-gnu-toolchain/riscv-gcc/libgcc/soft-fp/divdf3.c:47 (discriminator 63)
80005152:	5705                	li	a4,-31
80005154:	40f707b3          	sub	a5,a4,a5
80005158:	02000613          	li	a2,32
8000515c:	00f4d7b3          	srl	a5,s1,a5
80005160:	4701                	li	a4,0
80005162:	00c50663          	beq	a0,a2,8000516e <__divdf3+0x510>
/home/hqfang/workspace/software/riscv-gnu-toolchain/riscv-gcc/libgcc/soft-fp/divdf3.c:47 (discriminator 71)
80005166:	43e58713          	addi	a4,a1,1086
8000516a:	00e49733          	sll	a4,s1,a4
/home/hqfang/workspace/software/riscv-gnu-toolchain/riscv-gcc/libgcc/soft-fp/divdf3.c:47 (discriminator 74)
8000516e:	01f76733          	or	a4,a4,t6
80005172:	00e03733          	snez	a4,a4
80005176:	8fd9                	or	a5,a5,a4
80005178:	4501                	li	a0,0
8000517a:	b75d                	j	80005120 <__divdf3+0x4c2>
/home/hqfang/workspace/software/riscv-gnu-toolchain/riscv-gcc/libgcc/soft-fp/divdf3.c:47
8000517c:	00080537          	lui	a0,0x80
80005180:	4701                	li	a4,0
80005182:	7ff00793          	li	a5,2047
80005186:	4681                	li	a3,0
80005188:	b701                	j	80005088 <__divdf3+0x42a>
8000518a:	4501                	li	a0,0
8000518c:	4701                	li	a4,0
8000518e:	b7c1                	j	8000514e <__divdf3+0x4f0>
80005190:	4501                	li	a0,0
80005192:	4701                	li	a4,0
80005194:	4785                	li	a5,1
80005196:	bdcd                	j	80005088 <__divdf3+0x42a>
/home/hqfang/workspace/software/riscv-gnu-toolchain/riscv-gcc/libgcc/soft-fp/divdf3.c:46
80005198:	867e                	mv	a2,t6
8000519a:	8fb2                	mv	t6,a2
8000519c:	bd61                	j	80005034 <__divdf3+0x3d6>

8000519e <__eqdf2>:
__eqdf2():
/home/hqfang/workspace/software/riscv-gnu-toolchain/riscv-gcc/libgcc/soft-fp/eqdf2.c:43
8000519e:	0145d713          	srli	a4,a1,0x14
800051a2:	001007b7          	lui	a5,0x100
800051a6:	17fd                	addi	a5,a5,-1
/home/hqfang/workspace/software/riscv-gnu-toolchain/riscv-gcc/libgcc/soft-fp/eqdf2.c:44
800051a8:	0146d813          	srli	a6,a3,0x14
/home/hqfang/workspace/software/riscv-gnu-toolchain/riscv-gcc/libgcc/soft-fp/eqdf2.c:36
800051ac:	832a                	mv	t1,a0
800051ae:	8eaa                	mv	t4,a0
/home/hqfang/workspace/software/riscv-gnu-toolchain/riscv-gcc/libgcc/soft-fp/eqdf2.c:43
800051b0:	7ff77713          	andi	a4,a4,2047
/home/hqfang/workspace/software/riscv-gnu-toolchain/riscv-gcc/libgcc/soft-fp/eqdf2.c:45
800051b4:	7ff00513          	li	a0,2047
/home/hqfang/workspace/software/riscv-gnu-toolchain/riscv-gcc/libgcc/soft-fp/eqdf2.c:43
800051b8:	00b7f8b3          	and	a7,a5,a1
800051bc:	8f32                	mv	t5,a2
/home/hqfang/workspace/software/riscv-gnu-toolchain/riscv-gcc/libgcc/soft-fp/eqdf2.c:44
800051be:	8ff5                	and	a5,a5,a3
/home/hqfang/workspace/software/riscv-gnu-toolchain/riscv-gcc/libgcc/soft-fp/eqdf2.c:43
800051c0:	81fd                	srli	a1,a1,0x1f
/home/hqfang/workspace/software/riscv-gnu-toolchain/riscv-gcc/libgcc/soft-fp/eqdf2.c:44
800051c2:	7ff87813          	andi	a6,a6,2047
800051c6:	82fd                	srli	a3,a3,0x1f
/home/hqfang/workspace/software/riscv-gnu-toolchain/riscv-gcc/libgcc/soft-fp/eqdf2.c:45
800051c8:	00a71a63          	bne	a4,a0,800051dc <__eqdf2+0x3e>
/home/hqfang/workspace/software/riscv-gnu-toolchain/riscv-gcc/libgcc/soft-fp/eqdf2.c:45 (discriminator 20)
800051cc:	0068ee33          	or	t3,a7,t1
800051d0:	4505                	li	a0,1
800051d2:	000e1463          	bnez	t3,800051da <__eqdf2+0x3c>
/home/hqfang/workspace/software/riscv-gnu-toolchain/riscv-gcc/libgcc/soft-fp/eqdf2.c:45
800051d6:	00e80563          	beq	a6,a4,800051e0 <__eqdf2+0x42>
/home/hqfang/workspace/software/riscv-gnu-toolchain/riscv-gcc/libgcc/soft-fp/eqdf2.c:49
800051da:	8082                	ret
/home/hqfang/workspace/software/riscv-gnu-toolchain/riscv-gcc/libgcc/soft-fp/eqdf2.c:45 (discriminator 23)
800051dc:	00a81563          	bne	a6,a0,800051e6 <__eqdf2+0x48>
/home/hqfang/workspace/software/riscv-gnu-toolchain/riscv-gcc/libgcc/soft-fp/eqdf2.c:45 (discriminator 24)
800051e0:	8e5d                	or	a2,a2,a5
800051e2:	4505                	li	a0,1
800051e4:	fa7d                	bnez	a2,800051da <__eqdf2+0x3c>
/home/hqfang/workspace/software/riscv-gnu-toolchain/riscv-gcc/libgcc/soft-fp/eqdf2.c:45 (discriminator 78)
800051e6:	4505                	li	a0,1
800051e8:	ff0719e3          	bne	a4,a6,800051da <__eqdf2+0x3c>
/home/hqfang/workspace/software/riscv-gnu-toolchain/riscv-gcc/libgcc/soft-fp/eqdf2.c:45 (discriminator 80)
800051ec:	fef897e3          	bne	a7,a5,800051da <__eqdf2+0x3c>
/home/hqfang/workspace/software/riscv-gnu-toolchain/riscv-gcc/libgcc/soft-fp/eqdf2.c:45 (discriminator 82)
800051f0:	ffee95e3          	bne	t4,t5,800051da <__eqdf2+0x3c>
/home/hqfang/workspace/software/riscv-gnu-toolchain/riscv-gcc/libgcc/soft-fp/eqdf2.c:45 (discriminator 84)
800051f4:	00d58863          	beq	a1,a3,80005204 <__eqdf2+0x66>
/home/hqfang/workspace/software/riscv-gnu-toolchain/riscv-gcc/libgcc/soft-fp/eqdf2.c:45 (discriminator 85)
800051f8:	f36d                	bnez	a4,800051da <__eqdf2+0x3c>
/home/hqfang/workspace/software/riscv-gnu-toolchain/riscv-gcc/libgcc/soft-fp/eqdf2.c:45 (discriminator 88)
800051fa:	0068e533          	or	a0,a7,t1
800051fe:	00a03533          	snez	a0,a0
80005202:	8082                	ret
/home/hqfang/workspace/software/riscv-gnu-toolchain/riscv-gcc/libgcc/soft-fp/eqdf2.c:45
80005204:	4501                	li	a0,0
80005206:	8082                	ret

80005208 <__gedf2>:
__gedf2():
/home/hqfang/workspace/software/riscv-gnu-toolchain/riscv-gcc/libgcc/soft-fp/gedf2.c:43
80005208:	00100737          	lui	a4,0x100
8000520c:	177d                	addi	a4,a4,-1
8000520e:	0145d813          	srli	a6,a1,0x14
80005212:	00b778b3          	and	a7,a4,a1
/home/hqfang/workspace/software/riscv-gnu-toolchain/riscv-gcc/libgcc/soft-fp/gedf2.c:36
80005216:	87aa                	mv	a5,a0
80005218:	832a                	mv	t1,a0
/home/hqfang/workspace/software/riscv-gnu-toolchain/riscv-gcc/libgcc/soft-fp/gedf2.c:43
8000521a:	7ff87813          	andi	a6,a6,2047
8000521e:	01f5d513          	srli	a0,a1,0x1f
/home/hqfang/workspace/software/riscv-gnu-toolchain/riscv-gcc/libgcc/soft-fp/gedf2.c:45
80005222:	7ff00e93          	li	t4,2047
/home/hqfang/workspace/software/riscv-gnu-toolchain/riscv-gcc/libgcc/soft-fp/gedf2.c:44
80005226:	0146d593          	srli	a1,a3,0x14
8000522a:	8f75                	and	a4,a4,a3
8000522c:	8e32                	mv	t3,a2
8000522e:	7ff5f593          	andi	a1,a1,2047
80005232:	82fd                	srli	a3,a3,0x1f
/home/hqfang/workspace/software/riscv-gnu-toolchain/riscv-gcc/libgcc/soft-fp/gedf2.c:45
80005234:	01d81863          	bne	a6,t4,80005244 <__gedf2+0x3c>
/home/hqfang/workspace/software/riscv-gnu-toolchain/riscv-gcc/libgcc/soft-fp/gedf2.c:45 (discriminator 20)
80005238:	00f8eeb3          	or	t4,a7,a5
8000523c:	060e8463          	beqz	t4,800052a4 <__gedf2+0x9c>
/home/hqfang/workspace/software/riscv-gnu-toolchain/riscv-gcc/libgcc/soft-fp/gedf2.c:45
80005240:	5579                	li	a0,-2
80005242:	8082                	ret
/home/hqfang/workspace/software/riscv-gnu-toolchain/riscv-gcc/libgcc/soft-fp/gedf2.c:45 (discriminator 23)
80005244:	01d59663          	bne	a1,t4,80005250 <__gedf2+0x48>
/home/hqfang/workspace/software/riscv-gnu-toolchain/riscv-gcc/libgcc/soft-fp/gedf2.c:45 (discriminator 24)
80005248:	00c76eb3          	or	t4,a4,a2
8000524c:	fe0e9ae3          	bnez	t4,80005240 <__gedf2+0x38>
/home/hqfang/workspace/software/riscv-gnu-toolchain/riscv-gcc/libgcc/soft-fp/gedf2.c:45 (discriminator 62)
80005250:	04081c63          	bnez	a6,800052a8 <__gedf2+0xa0>
/home/hqfang/workspace/software/riscv-gnu-toolchain/riscv-gcc/libgcc/soft-fp/gedf2.c:45 (discriminator 63)
80005254:	00f8e7b3          	or	a5,a7,a5
80005258:	0017b793          	seqz	a5,a5
8000525c:	e199                	bnez	a1,80005262 <__gedf2+0x5a>
/home/hqfang/workspace/software/riscv-gnu-toolchain/riscv-gcc/libgcc/soft-fp/gedf2.c:45 (discriminator 69)
8000525e:	8e59                	or	a2,a2,a4
80005260:	ce0d                	beqz	a2,8000529a <__gedf2+0x92>
/home/hqfang/workspace/software/riscv-gnu-toolchain/riscv-gcc/libgcc/soft-fp/gedf2.c:45
80005262:	eb81                	bnez	a5,80005272 <__gedf2+0x6a>
80005264:	00d51463          	bne	a0,a3,8000526c <__gedf2+0x64>
/home/hqfang/workspace/software/riscv-gnu-toolchain/riscv-gcc/libgcc/soft-fp/gedf2.c:45 (discriminator 95)
80005268:	0105d963          	bge	a1,a6,8000527a <__gedf2+0x72>
/home/hqfang/workspace/software/riscv-gnu-toolchain/riscv-gcc/libgcc/soft-fp/gedf2.c:45 (discriminator 119)
8000526c:	c50d                	beqz	a0,80005296 <__gedf2+0x8e>
/home/hqfang/workspace/software/riscv-gnu-toolchain/riscv-gcc/libgcc/soft-fp/gedf2.c:45
8000526e:	557d                	li	a0,-1
80005270:	8082                	ret
/home/hqfang/workspace/software/riscv-gnu-toolchain/riscv-gcc/libgcc/soft-fp/gedf2.c:45 (discriminator 80)
80005272:	557d                	li	a0,-1
80005274:	c691                	beqz	a3,80005280 <__gedf2+0x78>
/home/hqfang/workspace/software/riscv-gnu-toolchain/riscv-gcc/libgcc/soft-fp/gedf2.c:45
80005276:	8536                	mv	a0,a3
80005278:	8082                	ret
/home/hqfang/workspace/software/riscv-gnu-toolchain/riscv-gcc/libgcc/soft-fp/gedf2.c:45 (discriminator 102)
8000527a:	00b85463          	bge	a6,a1,80005282 <__gedf2+0x7a>
/home/hqfang/workspace/software/riscv-gnu-toolchain/riscv-gcc/libgcc/soft-fp/gedf2.c:45 (discriminator 130)
8000527e:	d965                	beqz	a0,8000526e <__gedf2+0x66>
/home/hqfang/workspace/software/riscv-gnu-toolchain/riscv-gcc/libgcc/soft-fp/gedf2.c:49
80005280:	8082                	ret
/home/hqfang/workspace/software/riscv-gnu-toolchain/riscv-gcc/libgcc/soft-fp/gedf2.c:45 (discriminator 109)
80005282:	ff1765e3          	bltu	a4,a7,8000526c <__gedf2+0x64>
/home/hqfang/workspace/software/riscv-gnu-toolchain/riscv-gcc/libgcc/soft-fp/gedf2.c:45 (discriminator 116)
80005286:	00e89c63          	bne	a7,a4,8000529e <__gedf2+0x96>
/home/hqfang/workspace/software/riscv-gnu-toolchain/riscv-gcc/libgcc/soft-fp/gedf2.c:45 (discriminator 117)
8000528a:	fe6e61e3          	bltu	t3,t1,8000526c <__gedf2+0x64>
/home/hqfang/workspace/software/riscv-gnu-toolchain/riscv-gcc/libgcc/soft-fp/gedf2.c:45 (discriminator 128)
8000528e:	ffc368e3          	bltu	t1,t3,8000527e <__gedf2+0x76>
/home/hqfang/workspace/software/riscv-gnu-toolchain/riscv-gcc/libgcc/soft-fp/gedf2.c:45
80005292:	4501                	li	a0,0
80005294:	8082                	ret
80005296:	4505                	li	a0,1
80005298:	8082                	ret
8000529a:	ffe5                	bnez	a5,80005292 <__gedf2+0x8a>
8000529c:	bfc1                	j	8000526c <__gedf2+0x64>
8000529e:	fee8e0e3          	bltu	a7,a4,8000527e <__gedf2+0x76>
800052a2:	bfc5                	j	80005292 <__gedf2+0x8a>
800052a4:	fb0582e3          	beq	a1,a6,80005248 <__gedf2+0x40>
800052a8:	fdd5                	bnez	a1,80005264 <__gedf2+0x5c>
800052aa:	4781                	li	a5,0
800052ac:	bf4d                	j	8000525e <__gedf2+0x56>

800052ae <__ledf2>:
__ledf2():
/home/hqfang/workspace/software/riscv-gnu-toolchain/riscv-gcc/libgcc/soft-fp/ledf2.c:43
800052ae:	00100737          	lui	a4,0x100
800052b2:	177d                	addi	a4,a4,-1
800052b4:	0145d813          	srli	a6,a1,0x14
800052b8:	00b778b3          	and	a7,a4,a1
/home/hqfang/workspace/software/riscv-gnu-toolchain/riscv-gcc/libgcc/soft-fp/ledf2.c:36
800052bc:	87aa                	mv	a5,a0
800052be:	832a                	mv	t1,a0
/home/hqfang/workspace/software/riscv-gnu-toolchain/riscv-gcc/libgcc/soft-fp/ledf2.c:43
800052c0:	7ff87813          	andi	a6,a6,2047
800052c4:	01f5d513          	srli	a0,a1,0x1f
/home/hqfang/workspace/software/riscv-gnu-toolchain/riscv-gcc/libgcc/soft-fp/ledf2.c:45
800052c8:	7ff00e93          	li	t4,2047
/home/hqfang/workspace/software/riscv-gnu-toolchain/riscv-gcc/libgcc/soft-fp/ledf2.c:44
800052cc:	0146d593          	srli	a1,a3,0x14
800052d0:	8f75                	and	a4,a4,a3
800052d2:	8e32                	mv	t3,a2
800052d4:	7ff5f593          	andi	a1,a1,2047
800052d8:	82fd                	srli	a3,a3,0x1f
/home/hqfang/workspace/software/riscv-gnu-toolchain/riscv-gcc/libgcc/soft-fp/ledf2.c:45
800052da:	01d81863          	bne	a6,t4,800052ea <__ledf2+0x3c>
/home/hqfang/workspace/software/riscv-gnu-toolchain/riscv-gcc/libgcc/soft-fp/ledf2.c:45 (discriminator 20)
800052de:	00f8eeb3          	or	t4,a7,a5
800052e2:	060e8463          	beqz	t4,8000534a <__ledf2+0x9c>
/home/hqfang/workspace/software/riscv-gnu-toolchain/riscv-gcc/libgcc/soft-fp/ledf2.c:45
800052e6:	4509                	li	a0,2
800052e8:	8082                	ret
/home/hqfang/workspace/software/riscv-gnu-toolchain/riscv-gcc/libgcc/soft-fp/ledf2.c:45 (discriminator 23)
800052ea:	01d59663          	bne	a1,t4,800052f6 <__ledf2+0x48>
/home/hqfang/workspace/software/riscv-gnu-toolchain/riscv-gcc/libgcc/soft-fp/ledf2.c:45 (discriminator 24)
800052ee:	00c76eb3          	or	t4,a4,a2
800052f2:	fe0e9ae3          	bnez	t4,800052e6 <__ledf2+0x38>
/home/hqfang/workspace/software/riscv-gnu-toolchain/riscv-gcc/libgcc/soft-fp/ledf2.c:45 (discriminator 62)
800052f6:	04081c63          	bnez	a6,8000534e <__ledf2+0xa0>
/home/hqfang/workspace/software/riscv-gnu-toolchain/riscv-gcc/libgcc/soft-fp/ledf2.c:45 (discriminator 63)
800052fa:	00f8e7b3          	or	a5,a7,a5
800052fe:	0017b793          	seqz	a5,a5
80005302:	e199                	bnez	a1,80005308 <__ledf2+0x5a>
/home/hqfang/workspace/software/riscv-gnu-toolchain/riscv-gcc/libgcc/soft-fp/ledf2.c:45 (discriminator 69)
80005304:	8e59                	or	a2,a2,a4
80005306:	ce0d                	beqz	a2,80005340 <__ledf2+0x92>
/home/hqfang/workspace/software/riscv-gnu-toolchain/riscv-gcc/libgcc/soft-fp/ledf2.c:45
80005308:	eb81                	bnez	a5,80005318 <__ledf2+0x6a>
8000530a:	00d51463          	bne	a0,a3,80005312 <__ledf2+0x64>
/home/hqfang/workspace/software/riscv-gnu-toolchain/riscv-gcc/libgcc/soft-fp/ledf2.c:45 (discriminator 95)
8000530e:	0105d963          	bge	a1,a6,80005320 <__ledf2+0x72>
/home/hqfang/workspace/software/riscv-gnu-toolchain/riscv-gcc/libgcc/soft-fp/ledf2.c:45 (discriminator 119)
80005312:	c50d                	beqz	a0,8000533c <__ledf2+0x8e>
/home/hqfang/workspace/software/riscv-gnu-toolchain/riscv-gcc/libgcc/soft-fp/ledf2.c:45
80005314:	557d                	li	a0,-1
80005316:	8082                	ret
/home/hqfang/workspace/software/riscv-gnu-toolchain/riscv-gcc/libgcc/soft-fp/ledf2.c:45 (discriminator 80)
80005318:	557d                	li	a0,-1
8000531a:	c691                	beqz	a3,80005326 <__ledf2+0x78>
/home/hqfang/workspace/software/riscv-gnu-toolchain/riscv-gcc/libgcc/soft-fp/ledf2.c:45
8000531c:	8536                	mv	a0,a3
8000531e:	8082                	ret
/home/hqfang/workspace/software/riscv-gnu-toolchain/riscv-gcc/libgcc/soft-fp/ledf2.c:45 (discriminator 102)
80005320:	00b85463          	bge	a6,a1,80005328 <__ledf2+0x7a>
/home/hqfang/workspace/software/riscv-gnu-toolchain/riscv-gcc/libgcc/soft-fp/ledf2.c:45 (discriminator 130)
80005324:	d965                	beqz	a0,80005314 <__ledf2+0x66>
/home/hqfang/workspace/software/riscv-gnu-toolchain/riscv-gcc/libgcc/soft-fp/ledf2.c:49
80005326:	8082                	ret
/home/hqfang/workspace/software/riscv-gnu-toolchain/riscv-gcc/libgcc/soft-fp/ledf2.c:45 (discriminator 109)
80005328:	ff1765e3          	bltu	a4,a7,80005312 <__ledf2+0x64>
/home/hqfang/workspace/software/riscv-gnu-toolchain/riscv-gcc/libgcc/soft-fp/ledf2.c:45 (discriminator 116)
8000532c:	00e89c63          	bne	a7,a4,80005344 <__ledf2+0x96>
/home/hqfang/workspace/software/riscv-gnu-toolchain/riscv-gcc/libgcc/soft-fp/ledf2.c:45 (discriminator 117)
80005330:	fe6e61e3          	bltu	t3,t1,80005312 <__ledf2+0x64>
/home/hqfang/workspace/software/riscv-gnu-toolchain/riscv-gcc/libgcc/soft-fp/ledf2.c:45 (discriminator 128)
80005334:	ffc368e3          	bltu	t1,t3,80005324 <__ledf2+0x76>
/home/hqfang/workspace/software/riscv-gnu-toolchain/riscv-gcc/libgcc/soft-fp/ledf2.c:45
80005338:	4501                	li	a0,0
8000533a:	8082                	ret
8000533c:	4505                	li	a0,1
8000533e:	8082                	ret
80005340:	ffe5                	bnez	a5,80005338 <__ledf2+0x8a>
80005342:	bfc1                	j	80005312 <__ledf2+0x64>
80005344:	fee8e0e3          	bltu	a7,a4,80005324 <__ledf2+0x76>
80005348:	bfc5                	j	80005338 <__ledf2+0x8a>
8000534a:	fb0582e3          	beq	a1,a6,800052ee <__ledf2+0x40>
8000534e:	fdd5                	bnez	a1,8000530a <__ledf2+0x5c>
80005350:	4781                	li	a5,0
80005352:	bf4d                	j	80005304 <__ledf2+0x56>

80005354 <__muldf3>:
__muldf3():
/home/hqfang/workspace/software/riscv-gnu-toolchain/riscv-gcc/libgcc/soft-fp/muldf3.c:36
80005354:	7179                	addi	sp,sp,-48
80005356:	ce4e                	sw	s3,28(sp)
/home/hqfang/workspace/software/riscv-gnu-toolchain/riscv-gcc/libgcc/soft-fp/muldf3.c:44
80005358:	0145d993          	srli	s3,a1,0x14
/home/hqfang/workspace/software/riscv-gnu-toolchain/riscv-gcc/libgcc/soft-fp/muldf3.c:36
8000535c:	d422                	sw	s0,40(sp)
8000535e:	d226                	sw	s1,36(sp)
80005360:	cc52                	sw	s4,24(sp)
80005362:	ca56                	sw	s5,20(sp)
80005364:	c65e                	sw	s7,12(sp)
/home/hqfang/workspace/software/riscv-gnu-toolchain/riscv-gcc/libgcc/soft-fp/muldf3.c:44
80005366:	00c59493          	slli	s1,a1,0xc
/home/hqfang/workspace/software/riscv-gnu-toolchain/riscv-gcc/libgcc/soft-fp/muldf3.c:36
8000536a:	d606                	sw	ra,44(sp)
8000536c:	d04a                	sw	s2,32(sp)
8000536e:	c85a                	sw	s6,16(sp)
/home/hqfang/workspace/software/riscv-gnu-toolchain/riscv-gcc/libgcc/soft-fp/muldf3.c:44
80005370:	7ff9f993          	andi	s3,s3,2047
/home/hqfang/workspace/software/riscv-gnu-toolchain/riscv-gcc/libgcc/soft-fp/muldf3.c:36
80005374:	842a                	mv	s0,a0
80005376:	8bb2                	mv	s7,a2
80005378:	8ab6                	mv	s5,a3
/home/hqfang/workspace/software/riscv-gnu-toolchain/riscv-gcc/libgcc/soft-fp/muldf3.c:44
8000537a:	80b1                	srli	s1,s1,0xc
8000537c:	01f5da13          	srli	s4,a1,0x1f
80005380:	08098163          	beqz	s3,80005402 <__muldf3+0xae>
80005384:	7ff00793          	li	a5,2047
80005388:	0cf98563          	beq	s3,a5,80005452 <__muldf3+0xfe>
/home/hqfang/workspace/software/riscv-gnu-toolchain/riscv-gcc/libgcc/soft-fp/muldf3.c:44 (discriminator 1)
8000538c:	01d55793          	srli	a5,a0,0x1d
80005390:	048e                	slli	s1,s1,0x3
80005392:	8cdd                	or	s1,s1,a5
80005394:	008007b7          	lui	a5,0x800
80005398:	8cdd                	or	s1,s1,a5
8000539a:	00351913          	slli	s2,a0,0x3
8000539e:	c0198993          	addi	s3,s3,-1023
/home/hqfang/workspace/software/riscv-gnu-toolchain/riscv-gcc/libgcc/soft-fp/muldf3.c:44 (discriminator 41)
800053a2:	4b01                	li	s6,0
/home/hqfang/workspace/software/riscv-gnu-toolchain/riscv-gcc/libgcc/soft-fp/muldf3.c:45 (discriminator 8)
800053a4:	014ad513          	srli	a0,s5,0x14
800053a8:	00ca9413          	slli	s0,s5,0xc
800053ac:	7ff57513          	andi	a0,a0,2047
800053b0:	8031                	srli	s0,s0,0xc
800053b2:	01fada93          	srli	s5,s5,0x1f
800053b6:	c161                	beqz	a0,80005476 <__muldf3+0x122>
/home/hqfang/workspace/software/riscv-gnu-toolchain/riscv-gcc/libgcc/soft-fp/muldf3.c:45
800053b8:	7ff00793          	li	a5,2047
800053bc:	10f50563          	beq	a0,a5,800054c6 <__muldf3+0x172>
/home/hqfang/workspace/software/riscv-gnu-toolchain/riscv-gcc/libgcc/soft-fp/muldf3.c:45 (discriminator 1)
800053c0:	01dbd793          	srli	a5,s7,0x1d
800053c4:	040e                	slli	s0,s0,0x3
800053c6:	8c5d                	or	s0,s0,a5
800053c8:	008007b7          	lui	a5,0x800
800053cc:	8c5d                	or	s0,s0,a5
800053ce:	c0150513          	addi	a0,a0,-1023 # 7fc01 <dhry_stubs.c.c3a4eb6e+0x7c026>
800053d2:	003b9793          	slli	a5,s7,0x3
/home/hqfang/workspace/software/riscv-gnu-toolchain/riscv-gcc/libgcc/soft-fp/muldf3.c:45 (discriminator 41)
800053d6:	4701                	li	a4,0
/home/hqfang/workspace/software/riscv-gnu-toolchain/riscv-gcc/libgcc/soft-fp/muldf3.c:46 (discriminator 8)
800053d8:	002b1693          	slli	a3,s6,0x2
800053dc:	8ed9                	or	a3,a3,a4
800053de:	954e                	add	a0,a0,s3
800053e0:	16fd                	addi	a3,a3,-1
800053e2:	4839                	li	a6,14
800053e4:	015a4633          	xor	a2,s4,s5
800053e8:	00150593          	addi	a1,a0,1
800053ec:	0ed86e63          	bltu	a6,a3,800054e8 <__muldf3+0x194>
800053f0:	00002517          	auipc	a0,0x2
800053f4:	ff050513          	addi	a0,a0,-16 # 800073e0 <_ctype_+0x140>
800053f8:	068a                	slli	a3,a3,0x2
800053fa:	96aa                	add	a3,a3,a0
800053fc:	4294                	lw	a3,0(a3)
800053fe:	96aa                	add	a3,a3,a0
80005400:	8682                	jr	a3
/home/hqfang/workspace/software/riscv-gnu-toolchain/riscv-gcc/libgcc/soft-fp/muldf3.c:44 (discriminator 2)
80005402:	00a4e933          	or	s2,s1,a0
80005406:	04090f63          	beqz	s2,80005464 <__muldf3+0x110>
/home/hqfang/workspace/software/riscv-gnu-toolchain/riscv-gcc/libgcc/soft-fp/muldf3.c:44 (discriminator 13)
8000540a:	c88d                	beqz	s1,8000543c <__muldf3+0xe8>
/home/hqfang/workspace/software/riscv-gnu-toolchain/riscv-gcc/libgcc/soft-fp/muldf3.c:44 (discriminator 17)
8000540c:	8526                	mv	a0,s1
8000540e:	52f000ef          	jal	ra,8000613c <__clzsi2>
/home/hqfang/workspace/software/riscv-gnu-toolchain/riscv-gcc/libgcc/soft-fp/muldf3.c:44 (discriminator 31)
80005412:	ff550713          	addi	a4,a0,-11
80005416:	47f1                	li	a5,28
80005418:	02e7c763          	blt	a5,a4,80005446 <__muldf3+0xf2>
/home/hqfang/workspace/software/riscv-gnu-toolchain/riscv-gcc/libgcc/soft-fp/muldf3.c:44 (discriminator 32)
8000541c:	47f5                	li	a5,29
8000541e:	ff850913          	addi	s2,a0,-8
80005422:	8f99                	sub	a5,a5,a4
80005424:	012494b3          	sll	s1,s1,s2
80005428:	00f457b3          	srl	a5,s0,a5
8000542c:	8cdd                	or	s1,s1,a5
8000542e:	01241933          	sll	s2,s0,s2
/home/hqfang/workspace/software/riscv-gnu-toolchain/riscv-gcc/libgcc/soft-fp/muldf3.c:44 (discriminator 41)
80005432:	c0d00993          	li	s3,-1011
80005436:	40a989b3          	sub	s3,s3,a0
8000543a:	b7a5                	j	800053a2 <__muldf3+0x4e>
/home/hqfang/workspace/software/riscv-gnu-toolchain/riscv-gcc/libgcc/soft-fp/muldf3.c:44 (discriminator 24)
8000543c:	501000ef          	jal	ra,8000613c <__clzsi2>
80005440:	02050513          	addi	a0,a0,32
80005444:	b7f9                	j	80005412 <__muldf3+0xbe>
/home/hqfang/workspace/software/riscv-gnu-toolchain/riscv-gcc/libgcc/soft-fp/muldf3.c:44 (discriminator 33)
80005446:	fd850493          	addi	s1,a0,-40
8000544a:	009414b3          	sll	s1,s0,s1
8000544e:	4901                	li	s2,0
80005450:	b7cd                	j	80005432 <__muldf3+0xde>
/home/hqfang/workspace/software/riscv-gnu-toolchain/riscv-gcc/libgcc/soft-fp/muldf3.c:44 (discriminator 3)
80005452:	00a4e933          	or	s2,s1,a0
80005456:	00090b63          	beqz	s2,8000546c <__muldf3+0x118>
/home/hqfang/workspace/software/riscv-gnu-toolchain/riscv-gcc/libgcc/soft-fp/muldf3.c:44
8000545a:	892a                	mv	s2,a0
8000545c:	7ff00993          	li	s3,2047
80005460:	4b0d                	li	s6,3
80005462:	b789                	j	800053a4 <__muldf3+0x50>
80005464:	4481                	li	s1,0
80005466:	4981                	li	s3,0
80005468:	4b05                	li	s6,1
8000546a:	bf2d                	j	800053a4 <__muldf3+0x50>
8000546c:	4481                	li	s1,0
8000546e:	7ff00993          	li	s3,2047
80005472:	4b09                	li	s6,2
80005474:	bf05                	j	800053a4 <__muldf3+0x50>
/home/hqfang/workspace/software/riscv-gnu-toolchain/riscv-gcc/libgcc/soft-fp/muldf3.c:45 (discriminator 2)
80005476:	017467b3          	or	a5,s0,s7
8000547a:	cfb1                	beqz	a5,800054d6 <__muldf3+0x182>
/home/hqfang/workspace/software/riscv-gnu-toolchain/riscv-gcc/libgcc/soft-fp/muldf3.c:45 (discriminator 13)
8000547c:	c80d                	beqz	s0,800054ae <__muldf3+0x15a>
/home/hqfang/workspace/software/riscv-gnu-toolchain/riscv-gcc/libgcc/soft-fp/muldf3.c:45 (discriminator 17)
8000547e:	8522                	mv	a0,s0
80005480:	4bd000ef          	jal	ra,8000613c <__clzsi2>
/home/hqfang/workspace/software/riscv-gnu-toolchain/riscv-gcc/libgcc/soft-fp/muldf3.c:45 (discriminator 31)
80005484:	ff550693          	addi	a3,a0,-11
80005488:	47f1                	li	a5,28
8000548a:	02d7c863          	blt	a5,a3,800054ba <__muldf3+0x166>
/home/hqfang/workspace/software/riscv-gnu-toolchain/riscv-gcc/libgcc/soft-fp/muldf3.c:45 (discriminator 32)
8000548e:	4775                	li	a4,29
80005490:	ff850793          	addi	a5,a0,-8
80005494:	8f15                	sub	a4,a4,a3
80005496:	00f41433          	sll	s0,s0,a5
8000549a:	00ebd733          	srl	a4,s7,a4
8000549e:	8c59                	or	s0,s0,a4
800054a0:	00fb97b3          	sll	a5,s7,a5
/home/hqfang/workspace/software/riscv-gnu-toolchain/riscv-gcc/libgcc/soft-fp/muldf3.c:45 (discriminator 41)
800054a4:	c0d00713          	li	a4,-1011
800054a8:	40a70533          	sub	a0,a4,a0
800054ac:	b72d                	j	800053d6 <__muldf3+0x82>
/home/hqfang/workspace/software/riscv-gnu-toolchain/riscv-gcc/libgcc/soft-fp/muldf3.c:45 (discriminator 24)
800054ae:	855e                	mv	a0,s7
800054b0:	48d000ef          	jal	ra,8000613c <__clzsi2>
800054b4:	02050513          	addi	a0,a0,32
800054b8:	b7f1                	j	80005484 <__muldf3+0x130>
/home/hqfang/workspace/software/riscv-gnu-toolchain/riscv-gcc/libgcc/soft-fp/muldf3.c:45 (discriminator 33)
800054ba:	fd850413          	addi	s0,a0,-40
800054be:	008b9433          	sll	s0,s7,s0
800054c2:	4781                	li	a5,0
800054c4:	b7c5                	j	800054a4 <__muldf3+0x150>
/home/hqfang/workspace/software/riscv-gnu-toolchain/riscv-gcc/libgcc/soft-fp/muldf3.c:45 (discriminator 3)
800054c6:	017467b3          	or	a5,s0,s7
800054ca:	cb91                	beqz	a5,800054de <__muldf3+0x18a>
/home/hqfang/workspace/software/riscv-gnu-toolchain/riscv-gcc/libgcc/soft-fp/muldf3.c:45
800054cc:	87de                	mv	a5,s7
800054ce:	7ff00513          	li	a0,2047
800054d2:	470d                	li	a4,3
800054d4:	b711                	j	800053d8 <__muldf3+0x84>
800054d6:	4401                	li	s0,0
800054d8:	4501                	li	a0,0
800054da:	4705                	li	a4,1
800054dc:	bdf5                	j	800053d8 <__muldf3+0x84>
800054de:	4401                	li	s0,0
800054e0:	7ff00513          	li	a0,2047
800054e4:	4709                	li	a4,2
800054e6:	bdcd                	j	800053d8 <__muldf3+0x84>
/home/hqfang/workspace/software/riscv-gnu-toolchain/riscv-gcc/libgcc/soft-fp/muldf3.c:46 (discriminator 2)
800054e8:	6f41                	lui	t5,0x10
800054ea:	ffff0e93          	addi	t4,t5,-1 # ffff <dhry_stubs.c.c3a4eb6e+0xc424>
800054ee:	01095713          	srli	a4,s2,0x10
800054f2:	0107d893          	srli	a7,a5,0x10
800054f6:	01d97933          	and	s2,s2,t4
800054fa:	01d7f7b3          	and	a5,a5,t4
800054fe:	03288833          	mul	a6,a7,s2
80005502:	02f906b3          	mul	a3,s2,a5
80005506:	02f70fb3          	mul	t6,a4,a5
8000550a:	01f80333          	add	t1,a6,t6
8000550e:	0106d813          	srli	a6,a3,0x10
80005512:	981a                	add	a6,a6,t1
80005514:	03170e33          	mul	t3,a4,a7
80005518:	01f87363          	bgeu	a6,t6,8000551e <__muldf3+0x1ca>
/home/hqfang/workspace/software/riscv-gnu-toolchain/riscv-gcc/libgcc/soft-fp/muldf3.c:46 (discriminator 9)
8000551c:	9e7a                	add	t3,t3,t5
/home/hqfang/workspace/software/riscv-gnu-toolchain/riscv-gcc/libgcc/soft-fp/muldf3.c:46 (discriminator 11)
8000551e:	01085393          	srli	t2,a6,0x10
80005522:	01d87833          	and	a6,a6,t4
80005526:	01d6f6b3          	and	a3,a3,t4
8000552a:	01045f13          	srli	t5,s0,0x10
8000552e:	01d472b3          	and	t0,s0,t4
80005532:	0842                	slli	a6,a6,0x10
80005534:	9836                	add	a6,a6,a3
80005536:	02570eb3          	mul	t4,a4,t0
8000553a:	025906b3          	mul	a3,s2,t0
8000553e:	032f0933          	mul	s2,t5,s2
80005542:	01d90333          	add	t1,s2,t4
80005546:	0106d913          	srli	s2,a3,0x10
8000554a:	991a                	add	s2,s2,t1
8000554c:	03e70733          	mul	a4,a4,t5
80005550:	01d97463          	bgeu	s2,t4,80005558 <__muldf3+0x204>
/home/hqfang/workspace/software/riscv-gnu-toolchain/riscv-gcc/libgcc/soft-fp/muldf3.c:46 (discriminator 12)
80005554:	6341                	lui	t1,0x10
80005556:	971a                	add	a4,a4,t1
/home/hqfang/workspace/software/riscv-gnu-toolchain/riscv-gcc/libgcc/soft-fp/muldf3.c:46 (discriminator 14)
80005558:	01095e93          	srli	t4,s2,0x10
8000555c:	69c1                	lui	s3,0x10
8000555e:	9eba                	add	t4,t4,a4
80005560:	fff98713          	addi	a4,s3,-1 # ffff <dhry_stubs.c.c3a4eb6e+0xc424>
80005564:	00e97933          	and	s2,s2,a4
80005568:	8ef9                	and	a3,a3,a4
8000556a:	0104d413          	srli	s0,s1,0x10
8000556e:	0942                	slli	s2,s2,0x10
80005570:	8cf9                	and	s1,s1,a4
80005572:	02978733          	mul	a4,a5,s1
80005576:	9936                	add	s2,s2,a3
80005578:	93ca                	add	t2,t2,s2
8000557a:	02f40333          	mul	t1,s0,a5
8000557e:	029886b3          	mul	a3,a7,s1
80005582:	028887b3          	mul	a5,a7,s0
80005586:	006688b3          	add	a7,a3,t1
8000558a:	01075693          	srli	a3,a4,0x10
8000558e:	96c6                	add	a3,a3,a7
80005590:	0066f363          	bgeu	a3,t1,80005596 <__muldf3+0x242>
/home/hqfang/workspace/software/riscv-gnu-toolchain/riscv-gcc/libgcc/soft-fp/muldf3.c:46 (discriminator 15)
80005594:	97ce                	add	a5,a5,s3
/home/hqfang/workspace/software/riscv-gnu-toolchain/riscv-gcc/libgcc/soft-fp/muldf3.c:46 (discriminator 17)
80005596:	0106d893          	srli	a7,a3,0x10
8000559a:	69c1                	lui	s3,0x10
8000559c:	00f88fb3          	add	t6,a7,a5
800055a0:	fff98793          	addi	a5,s3,-1 # ffff <dhry_stubs.c.c3a4eb6e+0xc424>
800055a4:	029288b3          	mul	a7,t0,s1
800055a8:	8efd                	and	a3,a3,a5
800055aa:	8f7d                	and	a4,a4,a5
800055ac:	06c2                	slli	a3,a3,0x10
800055ae:	96ba                	add	a3,a3,a4
800055b0:	025407b3          	mul	a5,s0,t0
800055b4:	029f04b3          	mul	s1,t5,s1
800055b8:	028f0333          	mul	t1,t5,s0
800055bc:	94be                	add	s1,s1,a5
800055be:	0108d413          	srli	s0,a7,0x10
800055c2:	94a2                	add	s1,s1,s0
800055c4:	00f4f363          	bgeu	s1,a5,800055ca <__muldf3+0x276>
/home/hqfang/workspace/software/riscv-gnu-toolchain/riscv-gcc/libgcc/soft-fp/muldf3.c:46 (discriminator 18)
800055c8:	934e                	add	t1,t1,s3
/home/hqfang/workspace/software/riscv-gnu-toolchain/riscv-gcc/libgcc/soft-fp/muldf3.c:46 (discriminator 20)
800055ca:	67c1                	lui	a5,0x10
800055cc:	17fd                	addi	a5,a5,-1
800055ce:	00f4f733          	and	a4,s1,a5
800055d2:	00f8f8b3          	and	a7,a7,a5
800055d6:	0742                	slli	a4,a4,0x10
800055d8:	9e1e                	add	t3,t3,t2
800055da:	9746                	add	a4,a4,a7
800055dc:	012e3933          	sltu	s2,t3,s2
800055e0:	9776                	add	a4,a4,t4
800055e2:	01270433          	add	s0,a4,s2
800055e6:	9e36                	add	t3,t3,a3
800055e8:	00de36b3          	sltu	a3,t3,a3
800055ec:	01f408b3          	add	a7,s0,t6
800055f0:	00d88f33          	add	t5,a7,a3
800055f4:	01d73733          	sltu	a4,a4,t4
800055f8:	01243433          	sltu	s0,s0,s2
800055fc:	8c59                	or	s0,s0,a4
800055fe:	80c1                	srli	s1,s1,0x10
80005600:	01f8b8b3          	sltu	a7,a7,t6
80005604:	00df36b3          	sltu	a3,t5,a3
80005608:	9426                	add	s0,s0,s1
8000560a:	00d8e6b3          	or	a3,a7,a3
8000560e:	9436                	add	s0,s0,a3
80005610:	941a                	add	s0,s0,t1
80005612:	017f5793          	srli	a5,t5,0x17
80005616:	0426                	slli	s0,s0,0x9
80005618:	8c5d                	or	s0,s0,a5
8000561a:	009e1793          	slli	a5,t3,0x9
8000561e:	0107e7b3          	or	a5,a5,a6
80005622:	00f037b3          	snez	a5,a5
80005626:	017e5e13          	srli	t3,t3,0x17
8000562a:	009f1713          	slli	a4,t5,0x9
8000562e:	01c7e7b3          	or	a5,a5,t3
80005632:	8fd9                	or	a5,a5,a4
80005634:	01000737          	lui	a4,0x1000
80005638:	8f61                	and	a4,a4,s0
8000563a:	cb4d                	beqz	a4,800056ec <__muldf3+0x398>
/home/hqfang/workspace/software/riscv-gnu-toolchain/riscv-gcc/libgcc/soft-fp/muldf3.c:46 (discriminator 38)
8000563c:	0017d713          	srli	a4,a5,0x1
80005640:	8b85                	andi	a5,a5,1
80005642:	8fd9                	or	a5,a5,a4
80005644:	01f41713          	slli	a4,s0,0x1f
80005648:	8fd9                	or	a5,a5,a4
8000564a:	8005                	srli	s0,s0,0x1
/home/hqfang/workspace/software/riscv-gnu-toolchain/riscv-gcc/libgcc/soft-fp/muldf3.c:47 (discriminator 2)
8000564c:	3ff58693          	addi	a3,a1,1023
80005650:	0ad05063          	blez	a3,800056f0 <__muldf3+0x39c>
/home/hqfang/workspace/software/riscv-gnu-toolchain/riscv-gcc/libgcc/soft-fp/muldf3.c:47 (discriminator 6)
80005654:	0077f713          	andi	a4,a5,7
80005658:	cf01                	beqz	a4,80005670 <__muldf3+0x31c>
/home/hqfang/workspace/software/riscv-gnu-toolchain/riscv-gcc/libgcc/soft-fp/muldf3.c:47 (discriminator 8)
8000565a:	00f7f713          	andi	a4,a5,15
8000565e:	4511                	li	a0,4
80005660:	00a70863          	beq	a4,a0,80005670 <__muldf3+0x31c>
/home/hqfang/workspace/software/riscv-gnu-toolchain/riscv-gcc/libgcc/soft-fp/muldf3.c:47 (discriminator 10)
80005664:	00478713          	addi	a4,a5,4 # 10004 <dhry_stubs.c.c3a4eb6e+0xc429>
80005668:	00f737b3          	sltu	a5,a4,a5
8000566c:	943e                	add	s0,s0,a5
8000566e:	87ba                	mv	a5,a4
/home/hqfang/workspace/software/riscv-gnu-toolchain/riscv-gcc/libgcc/soft-fp/muldf3.c:47 (discriminator 9)
80005670:	01000737          	lui	a4,0x1000
80005674:	8f61                	and	a4,a4,s0
80005676:	c719                	beqz	a4,80005684 <__muldf3+0x330>
/home/hqfang/workspace/software/riscv-gnu-toolchain/riscv-gcc/libgcc/soft-fp/muldf3.c:47 (discriminator 24)
80005678:	ff000737          	lui	a4,0xff000
8000567c:	177d                	addi	a4,a4,-1
8000567e:	8c79                	and	s0,s0,a4
80005680:	40058693          	addi	a3,a1,1024
/home/hqfang/workspace/software/riscv-gnu-toolchain/riscv-gcc/libgcc/soft-fp/muldf3.c:47 (discriminator 26)
80005684:	7fe00713          	li	a4,2046
80005688:	0ed74e63          	blt	a4,a3,80005784 <__muldf3+0x430>
/home/hqfang/workspace/software/riscv-gnu-toolchain/riscv-gcc/libgcc/soft-fp/muldf3.c:47
8000568c:	0037d713          	srli	a4,a5,0x3
80005690:	01d41793          	slli	a5,s0,0x1d
80005694:	8fd9                	or	a5,a5,a4
80005696:	800d                	srli	s0,s0,0x3
/home/hqfang/workspace/software/riscv-gnu-toolchain/riscv-gcc/libgcc/soft-fp/muldf3.c:47 (discriminator 119)
80005698:	01469713          	slli	a4,a3,0x14
8000569c:	0432                	slli	s0,s0,0xc
8000569e:	7ff006b7          	lui	a3,0x7ff00
800056a2:	8f75                	and	a4,a4,a3
800056a4:	8031                	srli	s0,s0,0xc
800056a6:	8c59                	or	s0,s0,a4
800056a8:	067e                	slli	a2,a2,0x1f
/home/hqfang/workspace/software/riscv-gnu-toolchain/riscv-gcc/libgcc/soft-fp/muldf3.c:51 (discriminator 119)
800056aa:	50b2                	lw	ra,44(sp)
/home/hqfang/workspace/software/riscv-gnu-toolchain/riscv-gcc/libgcc/soft-fp/muldf3.c:47 (discriminator 119)
800056ac:	00c46733          	or	a4,s0,a2
/home/hqfang/workspace/software/riscv-gnu-toolchain/riscv-gcc/libgcc/soft-fp/muldf3.c:51 (discriminator 119)
800056b0:	5422                	lw	s0,40(sp)
800056b2:	5492                	lw	s1,36(sp)
800056b4:	5902                	lw	s2,32(sp)
800056b6:	49f2                	lw	s3,28(sp)
800056b8:	4a62                	lw	s4,24(sp)
800056ba:	4ad2                	lw	s5,20(sp)
800056bc:	4b42                	lw	s6,16(sp)
800056be:	4bb2                	lw	s7,12(sp)
800056c0:	853e                	mv	a0,a5
800056c2:	85ba                	mv	a1,a4
800056c4:	6145                	addi	sp,sp,48
800056c6:	8082                	ret
/home/hqfang/workspace/software/riscv-gnu-toolchain/riscv-gcc/libgcc/soft-fp/muldf3.c:44 (discriminator 7)
800056c8:	8652                	mv	a2,s4
/home/hqfang/workspace/software/riscv-gnu-toolchain/riscv-gcc/libgcc/soft-fp/muldf3.c:46 (discriminator 7)
800056ca:	8426                	mv	s0,s1
800056cc:	87ca                	mv	a5,s2
800056ce:	875a                	mv	a4,s6
/home/hqfang/workspace/software/riscv-gnu-toolchain/riscv-gcc/libgcc/soft-fp/muldf3.c:47 (discriminator 47)
800056d0:	4689                	li	a3,2
800056d2:	0ad70963          	beq	a4,a3,80005784 <__muldf3+0x430>
/home/hqfang/workspace/software/riscv-gnu-toolchain/riscv-gcc/libgcc/soft-fp/muldf3.c:47
800056d6:	468d                	li	a3,3
800056d8:	08d70f63          	beq	a4,a3,80005776 <__muldf3+0x422>
800056dc:	4685                	li	a3,1
800056de:	f6d717e3          	bne	a4,a3,8000564c <__muldf3+0x2f8>
800056e2:	4401                	li	s0,0
800056e4:	4781                	li	a5,0
800056e6:	a09d                	j	8000574c <__muldf3+0x3f8>
/home/hqfang/workspace/software/riscv-gnu-toolchain/riscv-gcc/libgcc/soft-fp/muldf3.c:45 (discriminator 4)
800056e8:	8656                	mv	a2,s5
/home/hqfang/workspace/software/riscv-gnu-toolchain/riscv-gcc/libgcc/soft-fp/muldf3.c:46 (discriminator 4)
800056ea:	b7dd                	j	800056d0 <__muldf3+0x37c>
/home/hqfang/workspace/software/riscv-gnu-toolchain/riscv-gcc/libgcc/soft-fp/muldf3.c:46
800056ec:	85aa                	mv	a1,a0
800056ee:	bfb9                	j	8000564c <__muldf3+0x2f8>
/home/hqfang/workspace/software/riscv-gnu-toolchain/riscv-gcc/libgcc/soft-fp/muldf3.c:47 (discriminator 59)
800056f0:	4505                	li	a0,1
800056f2:	8d15                	sub	a0,a0,a3
800056f4:	03800713          	li	a4,56
800056f8:	fea745e3          	blt	a4,a0,800056e2 <__muldf3+0x38e>
/home/hqfang/workspace/software/riscv-gnu-toolchain/riscv-gcc/libgcc/soft-fp/muldf3.c:47 (discriminator 60)
800056fc:	477d                	li	a4,31
800056fe:	04a74963          	blt	a4,a0,80005750 <__muldf3+0x3fc>
/home/hqfang/workspace/software/riscv-gnu-toolchain/riscv-gcc/libgcc/soft-fp/muldf3.c:47 (discriminator 62)
80005702:	41e58593          	addi	a1,a1,1054
80005706:	00b41733          	sll	a4,s0,a1
8000570a:	00a7d6b3          	srl	a3,a5,a0
8000570e:	00b797b3          	sll	a5,a5,a1
80005712:	8f55                	or	a4,a4,a3
80005714:	00f037b3          	snez	a5,a5
80005718:	8fd9                	or	a5,a5,a4
8000571a:	00a45433          	srl	s0,s0,a0
/home/hqfang/workspace/software/riscv-gnu-toolchain/riscv-gcc/libgcc/soft-fp/muldf3.c:47 (discriminator 75)
8000571e:	0077f713          	andi	a4,a5,7
80005722:	cf01                	beqz	a4,8000573a <__muldf3+0x3e6>
/home/hqfang/workspace/software/riscv-gnu-toolchain/riscv-gcc/libgcc/soft-fp/muldf3.c:47 (discriminator 76)
80005724:	00f7f713          	andi	a4,a5,15
80005728:	4691                	li	a3,4
8000572a:	00d70863          	beq	a4,a3,8000573a <__muldf3+0x3e6>
/home/hqfang/workspace/software/riscv-gnu-toolchain/riscv-gcc/libgcc/soft-fp/muldf3.c:47 (discriminator 78)
8000572e:	00478713          	addi	a4,a5,4
80005732:	00f737b3          	sltu	a5,a4,a5
80005736:	943e                	add	s0,s0,a5
80005738:	87ba                	mv	a5,a4
/home/hqfang/workspace/software/riscv-gnu-toolchain/riscv-gcc/libgcc/soft-fp/muldf3.c:47 (discriminator 77)
8000573a:	00800737          	lui	a4,0x800
8000573e:	8f61                	and	a4,a4,s0
80005740:	e739                	bnez	a4,8000578e <__muldf3+0x43a>
/home/hqfang/workspace/software/riscv-gnu-toolchain/riscv-gcc/libgcc/soft-fp/muldf3.c:47 (discriminator 93)
80005742:	01d41713          	slli	a4,s0,0x1d
80005746:	838d                	srli	a5,a5,0x3
80005748:	8fd9                	or	a5,a5,a4
8000574a:	800d                	srli	s0,s0,0x3
/home/hqfang/workspace/software/riscv-gnu-toolchain/riscv-gcc/libgcc/soft-fp/muldf3.c:47
8000574c:	4681                	li	a3,0
8000574e:	b7a9                	j	80005698 <__muldf3+0x344>
/home/hqfang/workspace/software/riscv-gnu-toolchain/riscv-gcc/libgcc/soft-fp/muldf3.c:47 (discriminator 63)
80005750:	5705                	li	a4,-31
80005752:	8f15                	sub	a4,a4,a3
80005754:	02000813          	li	a6,32
80005758:	00e45733          	srl	a4,s0,a4
8000575c:	4681                	li	a3,0
8000575e:	01050663          	beq	a0,a6,8000576a <__muldf3+0x416>
/home/hqfang/workspace/software/riscv-gnu-toolchain/riscv-gcc/libgcc/soft-fp/muldf3.c:47 (discriminator 71)
80005762:	43e58593          	addi	a1,a1,1086
80005766:	00b416b3          	sll	a3,s0,a1
/home/hqfang/workspace/software/riscv-gnu-toolchain/riscv-gcc/libgcc/soft-fp/muldf3.c:47 (discriminator 74)
8000576a:	8fd5                	or	a5,a5,a3
8000576c:	00f037b3          	snez	a5,a5
80005770:	8fd9                	or	a5,a5,a4
80005772:	4401                	li	s0,0
80005774:	b76d                	j	8000571e <__muldf3+0x3ca>
/home/hqfang/workspace/software/riscv-gnu-toolchain/riscv-gcc/libgcc/soft-fp/muldf3.c:47
80005776:	00080437          	lui	s0,0x80
8000577a:	4781                	li	a5,0
8000577c:	7ff00693          	li	a3,2047
80005780:	4601                	li	a2,0
80005782:	bf19                	j	80005698 <__muldf3+0x344>
80005784:	4401                	li	s0,0
80005786:	4781                	li	a5,0
80005788:	7ff00693          	li	a3,2047
8000578c:	b731                	j	80005698 <__muldf3+0x344>
8000578e:	4401                	li	s0,0
80005790:	4781                	li	a5,0
80005792:	4685                	li	a3,1
80005794:	b711                	j	80005698 <__muldf3+0x344>

80005796 <__subdf3>:
__subdf3():
/home/hqfang/workspace/software/riscv-gnu-toolchain/riscv-gcc/libgcc/soft-fp/subdf3.c:44
80005796:	00100837          	lui	a6,0x100
8000579a:	187d                	addi	a6,a6,-1
/home/hqfang/workspace/software/riscv-gnu-toolchain/riscv-gcc/libgcc/soft-fp/subdf3.c:36
8000579c:	1101                	addi	sp,sp,-32
/home/hqfang/workspace/software/riscv-gnu-toolchain/riscv-gcc/libgcc/soft-fp/subdf3.c:44
8000579e:	00b877b3          	and	a5,a6,a1
800057a2:	0145d713          	srli	a4,a1,0x14
/home/hqfang/workspace/software/riscv-gnu-toolchain/riscv-gcc/libgcc/soft-fp/subdf3.c:45
800057a6:	00d87833          	and	a6,a6,a3
800057aa:	0146d313          	srli	t1,a3,0x14
/home/hqfang/workspace/software/riscv-gnu-toolchain/riscv-gcc/libgcc/soft-fp/subdf3.c:36
800057ae:	cc22                	sw	s0,24(sp)
/home/hqfang/workspace/software/riscv-gnu-toolchain/riscv-gcc/libgcc/soft-fp/subdf3.c:44
800057b0:	078e                	slli	a5,a5,0x3
800057b2:	7ff77413          	andi	s0,a4,2047
800057b6:	01d55713          	srli	a4,a0,0x1d
/home/hqfang/workspace/software/riscv-gnu-toolchain/riscv-gcc/libgcc/soft-fp/subdf3.c:36
800057ba:	ca26                	sw	s1,20(sp)
/home/hqfang/workspace/software/riscv-gnu-toolchain/riscv-gcc/libgcc/soft-fp/subdf3.c:44
800057bc:	8fd9                	or	a5,a5,a4
800057be:	01f5d493          	srli	s1,a1,0x1f
/home/hqfang/workspace/software/riscv-gnu-toolchain/riscv-gcc/libgcc/soft-fp/subdf3.c:45
800057c2:	01d65713          	srli	a4,a2,0x1d
/home/hqfang/workspace/software/riscv-gnu-toolchain/riscv-gcc/libgcc/soft-fp/subdf3.c:44
800057c6:	00351593          	slli	a1,a0,0x3
/home/hqfang/workspace/software/riscv-gnu-toolchain/riscv-gcc/libgcc/soft-fp/subdf3.c:45
800057ca:	080e                	slli	a6,a6,0x3
/home/hqfang/workspace/software/riscv-gnu-toolchain/riscv-gcc/libgcc/soft-fp/subdf3.c:36
800057cc:	ce06                	sw	ra,28(sp)
800057ce:	c84a                	sw	s2,16(sp)
800057d0:	c64e                	sw	s3,12(sp)
/home/hqfang/workspace/software/riscv-gnu-toolchain/riscv-gcc/libgcc/soft-fp/subdf3.c:45
800057d2:	7ff37313          	andi	t1,t1,2047
/home/hqfang/workspace/software/riscv-gnu-toolchain/riscv-gcc/libgcc/soft-fp/subdf3.c:46
800057d6:	7ff00513          	li	a0,2047
/home/hqfang/workspace/software/riscv-gnu-toolchain/riscv-gcc/libgcc/soft-fp/subdf3.c:45
800057da:	82fd                	srli	a3,a3,0x1f
800057dc:	01076733          	or	a4,a4,a6
800057e0:	060e                	slli	a2,a2,0x3
/home/hqfang/workspace/software/riscv-gnu-toolchain/riscv-gcc/libgcc/soft-fp/subdf3.c:46
800057e2:	00a31563          	bne	t1,a0,800057ec <__subdf3+0x56>
/home/hqfang/workspace/software/riscv-gnu-toolchain/riscv-gcc/libgcc/soft-fp/subdf3.c:46 (discriminator 2)
800057e6:	00c76533          	or	a0,a4,a2
800057ea:	e119                	bnez	a0,800057f0 <__subdf3+0x5a>
/home/hqfang/workspace/software/riscv-gnu-toolchain/riscv-gcc/libgcc/soft-fp/subdf3.c:46 (discriminator 3)
800057ec:	0016c693          	xori	a3,a3,1
/home/hqfang/workspace/software/riscv-gnu-toolchain/riscv-gcc/libgcc/soft-fp/subdf3.c:46 (discriminator 11)
800057f0:	40640833          	sub	a6,s0,t1
800057f4:	22969863          	bne	a3,s1,80005a24 <__subdf3+0x28e>
/home/hqfang/workspace/software/riscv-gnu-toolchain/riscv-gcc/libgcc/soft-fp/subdf3.c:46 (discriminator 12)
800057f8:	0f005363          	blez	a6,800058de <__subdf3+0x148>
/home/hqfang/workspace/software/riscv-gnu-toolchain/riscv-gcc/libgcc/soft-fp/subdf3.c:46 (discriminator 14)
800057fc:	02031863          	bnez	t1,8000582c <__subdf3+0x96>
/home/hqfang/workspace/software/riscv-gnu-toolchain/riscv-gcc/libgcc/soft-fp/subdf3.c:46 (discriminator 16)
80005800:	00c766b3          	or	a3,a4,a2
80005804:	58068163          	beqz	a3,80005d86 <__subdf3+0x5f0>
/home/hqfang/workspace/software/riscv-gnu-toolchain/riscv-gcc/libgcc/soft-fp/subdf3.c:46 (discriminator 19)
80005808:	fff80513          	addi	a0,a6,-1 # fffff <dhry_stubs.c.c3a4eb6e+0xfc424>
8000580c:	e909                	bnez	a0,8000581e <__subdf3+0x88>
/home/hqfang/workspace/software/riscv-gnu-toolchain/riscv-gcc/libgcc/soft-fp/subdf3.c:46 (discriminator 28)
8000580e:	962e                	add	a2,a2,a1
80005810:	00b63533          	sltu	a0,a2,a1
80005814:	97ba                	add	a5,a5,a4
80005816:	97aa                	add	a5,a5,a0
80005818:	85b2                	mv	a1,a2
/home/hqfang/workspace/software/riscv-gnu-toolchain/riscv-gcc/libgcc/soft-fp/subdf3.c:45 (discriminator 85)
8000581a:	4405                	li	s0,1
/home/hqfang/workspace/software/riscv-gnu-toolchain/riscv-gcc/libgcc/soft-fp/subdf3.c:46 (discriminator 85)
8000581c:	a8b9                	j	8000587a <__subdf3+0xe4>
/home/hqfang/workspace/software/riscv-gnu-toolchain/riscv-gcc/libgcc/soft-fp/subdf3.c:46 (discriminator 29)
8000581e:	7ff00693          	li	a3,2047
80005822:	00d81d63          	bne	a6,a3,8000583c <__subdf3+0xa6>
/home/hqfang/workspace/software/riscv-gnu-toolchain/riscv-gcc/libgcc/soft-fp/subdf3.c:46
80005826:	7ff00413          	li	s0,2047
8000582a:	a24d                	j	800059cc <__subdf3+0x236>
/home/hqfang/workspace/software/riscv-gnu-toolchain/riscv-gcc/libgcc/soft-fp/subdf3.c:46 (discriminator 17)
8000582c:	7ff00693          	li	a3,2047
80005830:	18d40e63          	beq	s0,a3,800059cc <__subdf3+0x236>
/home/hqfang/workspace/software/riscv-gnu-toolchain/riscv-gcc/libgcc/soft-fp/subdf3.c:46 (discriminator 43)
80005834:	008006b7          	lui	a3,0x800
80005838:	8f55                	or	a4,a4,a3
8000583a:	8542                	mv	a0,a6
/home/hqfang/workspace/software/riscv-gnu-toolchain/riscv-gcc/libgcc/soft-fp/subdf3.c:46 (discriminator 52)
8000583c:	03800693          	li	a3,56
80005840:	08a6cb63          	blt	a3,a0,800058d6 <__subdf3+0x140>
/home/hqfang/workspace/software/riscv-gnu-toolchain/riscv-gcc/libgcc/soft-fp/subdf3.c:46 (discriminator 53)
80005844:	46fd                	li	a3,31
80005846:	06a6c263          	blt	a3,a0,800058aa <__subdf3+0x114>
/home/hqfang/workspace/software/riscv-gnu-toolchain/riscv-gcc/libgcc/soft-fp/subdf3.c:46 (discriminator 55)
8000584a:	02000813          	li	a6,32
8000584e:	40a80833          	sub	a6,a6,a0
80005852:	010716b3          	sll	a3,a4,a6
80005856:	00a658b3          	srl	a7,a2,a0
8000585a:	01061633          	sll	a2,a2,a6
8000585e:	0116e6b3          	or	a3,a3,a7
80005862:	00c03633          	snez	a2,a2
80005866:	8e55                	or	a2,a2,a3
80005868:	00a75733          	srl	a4,a4,a0
/home/hqfang/workspace/software/riscv-gnu-toolchain/riscv-gcc/libgcc/soft-fp/subdf3.c:46 (discriminator 69)
8000586c:	962e                	add	a2,a2,a1
8000586e:	00b63533          	sltu	a0,a2,a1
80005872:	973e                	add	a4,a4,a5
80005874:	00a707b3          	add	a5,a4,a0
80005878:	85b2                	mv	a1,a2
/home/hqfang/workspace/software/riscv-gnu-toolchain/riscv-gcc/libgcc/soft-fp/subdf3.c:46 (discriminator 127)
8000587a:	00800737          	lui	a4,0x800
8000587e:	8f7d                	and	a4,a4,a5
80005880:	14070663          	beqz	a4,800059cc <__subdf3+0x236>
/home/hqfang/workspace/software/riscv-gnu-toolchain/riscv-gcc/libgcc/soft-fp/subdf3.c:46 (discriminator 187)
80005884:	0405                	addi	s0,s0,1
80005886:	7ff00713          	li	a4,2047
8000588a:	48e40b63          	beq	s0,a4,80005d20 <__subdf3+0x58a>
/home/hqfang/workspace/software/riscv-gnu-toolchain/riscv-gcc/libgcc/soft-fp/subdf3.c:46
8000588e:	ff800737          	lui	a4,0xff800
80005892:	177d                	addi	a4,a4,-1
80005894:	8ff9                	and	a5,a5,a4
80005896:	0015f513          	andi	a0,a1,1
8000589a:	0015d713          	srli	a4,a1,0x1
8000589e:	8d59                	or	a0,a0,a4
800058a0:	01f79593          	slli	a1,a5,0x1f
800058a4:	8dc9                	or	a1,a1,a0
800058a6:	8385                	srli	a5,a5,0x1
800058a8:	a215                	j	800059cc <__subdf3+0x236>
/home/hqfang/workspace/software/riscv-gnu-toolchain/riscv-gcc/libgcc/soft-fp/subdf3.c:46 (discriminator 56)
800058aa:	fe050693          	addi	a3,a0,-32
800058ae:	02000893          	li	a7,32
800058b2:	00d756b3          	srl	a3,a4,a3
800058b6:	4801                	li	a6,0
800058b8:	01150863          	beq	a0,a7,800058c8 <__subdf3+0x132>
/home/hqfang/workspace/software/riscv-gnu-toolchain/riscv-gcc/libgcc/soft-fp/subdf3.c:46 (discriminator 63)
800058bc:	04000813          	li	a6,64
800058c0:	40a80533          	sub	a0,a6,a0
800058c4:	00a71833          	sll	a6,a4,a0
/home/hqfang/workspace/software/riscv-gnu-toolchain/riscv-gcc/libgcc/soft-fp/subdf3.c:46 (discriminator 66)
800058c8:	00c86633          	or	a2,a6,a2
800058cc:	00c03633          	snez	a2,a2
800058d0:	8e55                	or	a2,a2,a3
/home/hqfang/workspace/software/riscv-gnu-toolchain/riscv-gcc/libgcc/soft-fp/subdf3.c:46 (discriminator 54)
800058d2:	4701                	li	a4,0
800058d4:	bf61                	j	8000586c <__subdf3+0xd6>
800058d6:	8e59                	or	a2,a2,a4
800058d8:	00c03633          	snez	a2,a2
800058dc:	bfdd                	j	800058d2 <__subdf3+0x13c>
/home/hqfang/workspace/software/riscv-gnu-toolchain/riscv-gcc/libgcc/soft-fp/subdf3.c:46 (discriminator 15)
800058de:	0a080b63          	beqz	a6,80005994 <__subdf3+0x1fe>
/home/hqfang/workspace/software/riscv-gnu-toolchain/riscv-gcc/libgcc/soft-fp/subdf3.c:46 (discriminator 71)
800058e2:	40830533          	sub	a0,t1,s0
800058e6:	e40d                	bnez	s0,80005910 <__subdf3+0x17a>
/home/hqfang/workspace/software/riscv-gnu-toolchain/riscv-gcc/libgcc/soft-fp/subdf3.c:46 (discriminator 73)
800058e8:	00b7e6b3          	or	a3,a5,a1
800058ec:	42068163          	beqz	a3,80005d0e <__subdf3+0x578>
/home/hqfang/workspace/software/riscv-gnu-toolchain/riscv-gcc/libgcc/soft-fp/subdf3.c:46 (discriminator 76)
800058f0:	fff50693          	addi	a3,a0,-1
800058f4:	e699                	bnez	a3,80005902 <__subdf3+0x16c>
/home/hqfang/workspace/software/riscv-gnu-toolchain/riscv-gcc/libgcc/soft-fp/subdf3.c:46 (discriminator 85)
800058f6:	95b2                	add	a1,a1,a2
800058f8:	97ba                	add	a5,a5,a4
800058fa:	00c5b633          	sltu	a2,a1,a2
800058fe:	97b2                	add	a5,a5,a2
80005900:	bf29                	j	8000581a <__subdf3+0x84>
/home/hqfang/workspace/software/riscv-gnu-toolchain/riscv-gcc/libgcc/soft-fp/subdf3.c:46 (discriminator 86)
80005902:	7ff00813          	li	a6,2047
80005906:	01051d63          	bne	a0,a6,80005920 <__subdf3+0x18a>
/home/hqfang/workspace/software/riscv-gnu-toolchain/riscv-gcc/libgcc/soft-fp/subdf3.c:45
8000590a:	87ba                	mv	a5,a4
8000590c:	85b2                	mv	a1,a2
8000590e:	bf21                	j	80005826 <__subdf3+0x90>
/home/hqfang/workspace/software/riscv-gnu-toolchain/riscv-gcc/libgcc/soft-fp/subdf3.c:46 (discriminator 74)
80005910:	7ff00693          	li	a3,2047
80005914:	fed30be3          	beq	t1,a3,8000590a <__subdf3+0x174>
/home/hqfang/workspace/software/riscv-gnu-toolchain/riscv-gcc/libgcc/soft-fp/subdf3.c:46 (discriminator 100)
80005918:	008006b7          	lui	a3,0x800
8000591c:	8fd5                	or	a5,a5,a3
8000591e:	86aa                	mv	a3,a0
/home/hqfang/workspace/software/riscv-gnu-toolchain/riscv-gcc/libgcc/soft-fp/subdf3.c:46 (discriminator 109)
80005920:	03800513          	li	a0,56
80005924:	06d54363          	blt	a0,a3,8000598a <__subdf3+0x1f4>
/home/hqfang/workspace/software/riscv-gnu-toolchain/riscv-gcc/libgcc/soft-fp/subdf3.c:46 (discriminator 110)
80005928:	457d                	li	a0,31
8000592a:	02d54b63          	blt	a0,a3,80005960 <__subdf3+0x1ca>
/home/hqfang/workspace/software/riscv-gnu-toolchain/riscv-gcc/libgcc/soft-fp/subdf3.c:46 (discriminator 112)
8000592e:	02000813          	li	a6,32
80005932:	40d80833          	sub	a6,a6,a3
80005936:	01079533          	sll	a0,a5,a6
8000593a:	00d5d8b3          	srl	a7,a1,a3
8000593e:	010595b3          	sll	a1,a1,a6
80005942:	01156533          	or	a0,a0,a7
80005946:	00b035b3          	snez	a1,a1
8000594a:	8d4d                	or	a0,a0,a1
8000594c:	00d7d7b3          	srl	a5,a5,a3
/home/hqfang/workspace/software/riscv-gnu-toolchain/riscv-gcc/libgcc/soft-fp/subdf3.c:46 (discriminator 126)
80005950:	00c505b3          	add	a1,a0,a2
80005954:	97ba                	add	a5,a5,a4
80005956:	00c5b633          	sltu	a2,a1,a2
8000595a:	97b2                	add	a5,a5,a2
/home/hqfang/workspace/software/riscv-gnu-toolchain/riscv-gcc/libgcc/soft-fp/subdf3.c:45 (discriminator 126)
8000595c:	841a                	mv	s0,t1
8000595e:	bf31                	j	8000587a <__subdf3+0xe4>
/home/hqfang/workspace/software/riscv-gnu-toolchain/riscv-gcc/libgcc/soft-fp/subdf3.c:46 (discriminator 113)
80005960:	fe068513          	addi	a0,a3,-32 # 7fffe0 <dhry_stubs.c.c3a4eb6e+0x7fc405>
80005964:	02000893          	li	a7,32
80005968:	00a7d833          	srl	a6,a5,a0
8000596c:	4501                	li	a0,0
8000596e:	01168763          	beq	a3,a7,8000597c <__subdf3+0x1e6>
/home/hqfang/workspace/software/riscv-gnu-toolchain/riscv-gcc/libgcc/soft-fp/subdf3.c:46 (discriminator 120)
80005972:	04000513          	li	a0,64
80005976:	8d15                	sub	a0,a0,a3
80005978:	00a79533          	sll	a0,a5,a0
/home/hqfang/workspace/software/riscv-gnu-toolchain/riscv-gcc/libgcc/soft-fp/subdf3.c:46 (discriminator 123)
8000597c:	8d4d                	or	a0,a0,a1
8000597e:	00a03533          	snez	a0,a0
80005982:	00a86533          	or	a0,a6,a0
/home/hqfang/workspace/software/riscv-gnu-toolchain/riscv-gcc/libgcc/soft-fp/subdf3.c:46 (discriminator 111)
80005986:	4781                	li	a5,0
80005988:	b7e1                	j	80005950 <__subdf3+0x1ba>
8000598a:	00b7e533          	or	a0,a5,a1
8000598e:	00a03533          	snez	a0,a0
80005992:	bfd5                	j	80005986 <__subdf3+0x1f0>
/home/hqfang/workspace/software/riscv-gnu-toolchain/riscv-gcc/libgcc/soft-fp/subdf3.c:46 (discriminator 72)
80005994:	00140693          	addi	a3,s0,1 # 80001 <dhry_stubs.c.c3a4eb6e+0x7c426>
80005998:	7fe6f513          	andi	a0,a3,2046
8000599c:	e13d                	bnez	a0,80005a02 <__subdf3+0x26c>
/home/hqfang/workspace/software/riscv-gnu-toolchain/riscv-gcc/libgcc/soft-fp/subdf3.c:46 (discriminator 128)
8000599e:	00b7e6b3          	or	a3,a5,a1
800059a2:	e429                	bnez	s0,800059ec <__subdf3+0x256>
/home/hqfang/workspace/software/riscv-gnu-toolchain/riscv-gcc/libgcc/soft-fp/subdf3.c:46 (discriminator 130)
800059a4:	36068963          	beqz	a3,80005d16 <__subdf3+0x580>
/home/hqfang/workspace/software/riscv-gnu-toolchain/riscv-gcc/libgcc/soft-fp/subdf3.c:46 (discriminator 133)
800059a8:	00c766b3          	or	a3,a4,a2
800059ac:	c285                	beqz	a3,800059cc <__subdf3+0x236>
/home/hqfang/workspace/software/riscv-gnu-toolchain/riscv-gcc/libgcc/soft-fp/subdf3.c:46 (discriminator 139)
800059ae:	962e                	add	a2,a2,a1
800059b0:	97ba                	add	a5,a5,a4
800059b2:	00b63533          	sltu	a0,a2,a1
800059b6:	97aa                	add	a5,a5,a0
800059b8:	00800737          	lui	a4,0x800
800059bc:	8f7d                	and	a4,a4,a5
800059be:	85b2                	mv	a1,a2
800059c0:	c711                	beqz	a4,800059cc <__subdf3+0x236>
/home/hqfang/workspace/software/riscv-gnu-toolchain/riscv-gcc/libgcc/soft-fp/subdf3.c:46 (discriminator 141)
800059c2:	ff800737          	lui	a4,0xff800
800059c6:	177d                	addi	a4,a4,-1
800059c8:	8ff9                	and	a5,a5,a4
800059ca:	4405                	li	s0,1
/home/hqfang/workspace/software/riscv-gnu-toolchain/riscv-gcc/libgcc/soft-fp/subdf3.c:47 (discriminator 426)
800059cc:	0075f713          	andi	a4,a1,7
800059d0:	34070a63          	beqz	a4,80005d24 <__subdf3+0x58e>
/home/hqfang/workspace/software/riscv-gnu-toolchain/riscv-gcc/libgcc/soft-fp/subdf3.c:47 (discriminator 37)
800059d4:	00f5f713          	andi	a4,a1,15
800059d8:	4691                	li	a3,4
800059da:	34d70563          	beq	a4,a3,80005d24 <__subdf3+0x58e>
/home/hqfang/workspace/software/riscv-gnu-toolchain/riscv-gcc/libgcc/soft-fp/subdf3.c:47 (discriminator 44)
800059de:	00458713          	addi	a4,a1,4
800059e2:	00b73533          	sltu	a0,a4,a1
800059e6:	97aa                	add	a5,a5,a0
800059e8:	85ba                	mv	a1,a4
800059ea:	ae2d                	j	80005d24 <__subdf3+0x58e>
/home/hqfang/workspace/software/riscv-gnu-toolchain/riscv-gcc/libgcc/soft-fp/subdf3.c:46 (discriminator 158)
800059ec:	de99                	beqz	a3,8000590a <__subdf3+0x174>
/home/hqfang/workspace/software/riscv-gnu-toolchain/riscv-gcc/libgcc/soft-fp/subdf3.c:46 (discriminator 160)
800059ee:	8e59                	or	a2,a2,a4
800059f0:	e2060be3          	beqz	a2,80005826 <__subdf3+0x90>
/home/hqfang/workspace/software/riscv-gnu-toolchain/riscv-gcc/libgcc/soft-fp/subdf3.c:46
800059f4:	4481                	li	s1,0
800059f6:	004007b7          	lui	a5,0x400
800059fa:	4581                	li	a1,0
800059fc:	7ff00413          	li	s0,2047
80005a00:	a615                	j	80005d24 <__subdf3+0x58e>
/home/hqfang/workspace/software/riscv-gnu-toolchain/riscv-gcc/libgcc/soft-fp/subdf3.c:46 (discriminator 129)
80005a02:	7ff00513          	li	a0,2047
80005a06:	30a68b63          	beq	a3,a0,80005d1c <__subdf3+0x586>
/home/hqfang/workspace/software/riscv-gnu-toolchain/riscv-gcc/libgcc/soft-fp/subdf3.c:46
80005a0a:	962e                	add	a2,a2,a1
80005a0c:	00b63533          	sltu	a0,a2,a1
80005a10:	97ba                	add	a5,a5,a4
80005a12:	97aa                	add	a5,a5,a0
80005a14:	01f79513          	slli	a0,a5,0x1f
80005a18:	8205                	srli	a2,a2,0x1
80005a1a:	00c565b3          	or	a1,a0,a2
80005a1e:	8385                	srli	a5,a5,0x1
80005a20:	8436                	mv	s0,a3
80005a22:	b76d                	j	800059cc <__subdf3+0x236>
/home/hqfang/workspace/software/riscv-gnu-toolchain/riscv-gcc/libgcc/soft-fp/subdf3.c:46 (discriminator 13)
80005a24:	0d005663          	blez	a6,80005af0 <__subdf3+0x35a>
/home/hqfang/workspace/software/riscv-gnu-toolchain/riscv-gcc/libgcc/soft-fp/subdf3.c:46 (discriminator 205)
80005a28:	08031163          	bnez	t1,80005aaa <__subdf3+0x314>
/home/hqfang/workspace/software/riscv-gnu-toolchain/riscv-gcc/libgcc/soft-fp/subdf3.c:46 (discriminator 207)
80005a2c:	00c766b3          	or	a3,a4,a2
80005a30:	34068b63          	beqz	a3,80005d86 <__subdf3+0x5f0>
/home/hqfang/workspace/software/riscv-gnu-toolchain/riscv-gcc/libgcc/soft-fp/subdf3.c:46 (discriminator 210)
80005a34:	fff80513          	addi	a0,a6,-1
80005a38:	e911                	bnez	a0,80005a4c <__subdf3+0x2b6>
/home/hqfang/workspace/software/riscv-gnu-toolchain/riscv-gcc/libgcc/soft-fp/subdf3.c:46 (discriminator 219)
80005a3a:	40c58633          	sub	a2,a1,a2
80005a3e:	00c5b533          	sltu	a0,a1,a2
80005a42:	8f99                	sub	a5,a5,a4
80005a44:	8f89                	sub	a5,a5,a0
80005a46:	85b2                	mv	a1,a2
/home/hqfang/workspace/software/riscv-gnu-toolchain/riscv-gcc/libgcc/soft-fp/subdf3.c:45 (discriminator 276)
80005a48:	4405                	li	s0,1
/home/hqfang/workspace/software/riscv-gnu-toolchain/riscv-gcc/libgcc/soft-fp/subdf3.c:46 (discriminator 276)
80005a4a:	a0b1                	j	80005a96 <__subdf3+0x300>
/home/hqfang/workspace/software/riscv-gnu-toolchain/riscv-gcc/libgcc/soft-fp/subdf3.c:46 (discriminator 220)
80005a4c:	7ff00693          	li	a3,2047
80005a50:	dcd80be3          	beq	a6,a3,80005826 <__subdf3+0x90>
/home/hqfang/workspace/software/riscv-gnu-toolchain/riscv-gcc/libgcc/soft-fp/subdf3.c:46 (discriminator 243)
80005a54:	03800693          	li	a3,56
80005a58:	08a6c863          	blt	a3,a0,80005ae8 <__subdf3+0x352>
/home/hqfang/workspace/software/riscv-gnu-toolchain/riscv-gcc/libgcc/soft-fp/subdf3.c:46 (discriminator 244)
80005a5c:	46fd                	li	a3,31
80005a5e:	04a6cf63          	blt	a3,a0,80005abc <__subdf3+0x326>
/home/hqfang/workspace/software/riscv-gnu-toolchain/riscv-gcc/libgcc/soft-fp/subdf3.c:46 (discriminator 246)
80005a62:	02000813          	li	a6,32
80005a66:	40a80833          	sub	a6,a6,a0
80005a6a:	010716b3          	sll	a3,a4,a6
80005a6e:	00a658b3          	srl	a7,a2,a0
80005a72:	01061633          	sll	a2,a2,a6
80005a76:	0116e6b3          	or	a3,a3,a7
80005a7a:	00c03633          	snez	a2,a2
80005a7e:	8e55                	or	a2,a2,a3
80005a80:	00a75733          	srl	a4,a4,a0
/home/hqfang/workspace/software/riscv-gnu-toolchain/riscv-gcc/libgcc/soft-fp/subdf3.c:46 (discriminator 260)
80005a84:	40c58633          	sub	a2,a1,a2
80005a88:	00c5b533          	sltu	a0,a1,a2
80005a8c:	40e78733          	sub	a4,a5,a4
80005a90:	40a707b3          	sub	a5,a4,a0
80005a94:	85b2                	mv	a1,a2
/home/hqfang/workspace/software/riscv-gnu-toolchain/riscv-gcc/libgcc/soft-fp/subdf3.c:46 (discriminator 318)
80005a96:	00800937          	lui	s2,0x800
80005a9a:	0127f733          	and	a4,a5,s2
80005a9e:	d71d                	beqz	a4,800059cc <__subdf3+0x236>
/home/hqfang/workspace/software/riscv-gnu-toolchain/riscv-gcc/libgcc/soft-fp/subdf3.c:46 (discriminator 378)
80005aa0:	197d                	addi	s2,s2,-1
80005aa2:	0127f933          	and	s2,a5,s2
80005aa6:	89ae                	mv	s3,a1
80005aa8:	aa5d                	j	80005c5e <__subdf3+0x4c8>
/home/hqfang/workspace/software/riscv-gnu-toolchain/riscv-gcc/libgcc/soft-fp/subdf3.c:46 (discriminator 208)
80005aaa:	7ff00693          	li	a3,2047
80005aae:	f0d40fe3          	beq	s0,a3,800059cc <__subdf3+0x236>
/home/hqfang/workspace/software/riscv-gnu-toolchain/riscv-gcc/libgcc/soft-fp/subdf3.c:46 (discriminator 234)
80005ab2:	008006b7          	lui	a3,0x800
80005ab6:	8f55                	or	a4,a4,a3
80005ab8:	8542                	mv	a0,a6
80005aba:	bf69                	j	80005a54 <__subdf3+0x2be>
/home/hqfang/workspace/software/riscv-gnu-toolchain/riscv-gcc/libgcc/soft-fp/subdf3.c:46 (discriminator 247)
80005abc:	fe050693          	addi	a3,a0,-32
80005ac0:	02000893          	li	a7,32
80005ac4:	00d756b3          	srl	a3,a4,a3
80005ac8:	4801                	li	a6,0
80005aca:	01150863          	beq	a0,a7,80005ada <__subdf3+0x344>
/home/hqfang/workspace/software/riscv-gnu-toolchain/riscv-gcc/libgcc/soft-fp/subdf3.c:46 (discriminator 254)
80005ace:	04000813          	li	a6,64
80005ad2:	40a80533          	sub	a0,a6,a0
80005ad6:	00a71833          	sll	a6,a4,a0
/home/hqfang/workspace/software/riscv-gnu-toolchain/riscv-gcc/libgcc/soft-fp/subdf3.c:46 (discriminator 257)
80005ada:	00c86633          	or	a2,a6,a2
80005ade:	00c03633          	snez	a2,a2
80005ae2:	8e55                	or	a2,a2,a3
/home/hqfang/workspace/software/riscv-gnu-toolchain/riscv-gcc/libgcc/soft-fp/subdf3.c:46 (discriminator 245)
80005ae4:	4701                	li	a4,0
80005ae6:	bf79                	j	80005a84 <__subdf3+0x2ee>
80005ae8:	8e59                	or	a2,a2,a4
80005aea:	00c03633          	snez	a2,a2
80005aee:	bfdd                	j	80005ae4 <__subdf3+0x34e>
/home/hqfang/workspace/software/riscv-gnu-toolchain/riscv-gcc/libgcc/soft-fp/subdf3.c:46 (discriminator 206)
80005af0:	0c080563          	beqz	a6,80005bba <__subdf3+0x424>
/home/hqfang/workspace/software/riscv-gnu-toolchain/riscv-gcc/libgcc/soft-fp/subdf3.c:46 (discriminator 262)
80005af4:	40830533          	sub	a0,t1,s0
80005af8:	e81d                	bnez	s0,80005b2e <__subdf3+0x398>
/home/hqfang/workspace/software/riscv-gnu-toolchain/riscv-gcc/libgcc/soft-fp/subdf3.c:46 (discriminator 264)
80005afa:	00b7e833          	or	a6,a5,a1
80005afe:	28080663          	beqz	a6,80005d8a <__subdf3+0x5f4>
/home/hqfang/workspace/software/riscv-gnu-toolchain/riscv-gcc/libgcc/soft-fp/subdf3.c:46 (discriminator 267)
80005b02:	fff50813          	addi	a6,a0,-1
80005b06:	00081b63          	bnez	a6,80005b1c <__subdf3+0x386>
/home/hqfang/workspace/software/riscv-gnu-toolchain/riscv-gcc/libgcc/soft-fp/subdf3.c:46 (discriminator 276)
80005b0a:	40b605b3          	sub	a1,a2,a1
80005b0e:	40f707b3          	sub	a5,a4,a5
80005b12:	00b63633          	sltu	a2,a2,a1
80005b16:	8f91                	sub	a5,a5,a2
80005b18:	84b6                	mv	s1,a3
80005b1a:	b73d                	j	80005a48 <__subdf3+0x2b2>
/home/hqfang/workspace/software/riscv-gnu-toolchain/riscv-gcc/libgcc/soft-fp/subdf3.c:46 (discriminator 277)
80005b1c:	7ff00893          	li	a7,2047
80005b20:	03151063          	bne	a0,a7,80005b40 <__subdf3+0x3aa>
/home/hqfang/workspace/software/riscv-gnu-toolchain/riscv-gcc/libgcc/soft-fp/subdf3.c:45
80005b24:	87ba                	mv	a5,a4
80005b26:	85b2                	mv	a1,a2
/home/hqfang/workspace/software/riscv-gnu-toolchain/riscv-gcc/libgcc/soft-fp/subdf3.c:46
80005b28:	7ff00413          	li	s0,2047
80005b2c:	a07d                	j	80005bda <__subdf3+0x444>
/home/hqfang/workspace/software/riscv-gnu-toolchain/riscv-gcc/libgcc/soft-fp/subdf3.c:46 (discriminator 265)
80005b2e:	7ff00813          	li	a6,2047
80005b32:	ff0309e3          	beq	t1,a6,80005b24 <__subdf3+0x38e>
/home/hqfang/workspace/software/riscv-gnu-toolchain/riscv-gcc/libgcc/soft-fp/subdf3.c:46 (discriminator 291)
80005b36:	00800837          	lui	a6,0x800
80005b3a:	0107e7b3          	or	a5,a5,a6
80005b3e:	882a                	mv	a6,a0
/home/hqfang/workspace/software/riscv-gnu-toolchain/riscv-gcc/libgcc/soft-fp/subdf3.c:46 (discriminator 300)
80005b40:	03800513          	li	a0,56
80005b44:	07054663          	blt	a0,a6,80005bb0 <__subdf3+0x41a>
/home/hqfang/workspace/software/riscv-gnu-toolchain/riscv-gcc/libgcc/soft-fp/subdf3.c:46 (discriminator 301)
80005b48:	457d                	li	a0,31
80005b4a:	03054d63          	blt	a0,a6,80005b84 <__subdf3+0x3ee>
/home/hqfang/workspace/software/riscv-gnu-toolchain/riscv-gcc/libgcc/soft-fp/subdf3.c:46 (discriminator 303)
80005b4e:	02000893          	li	a7,32
80005b52:	410888b3          	sub	a7,a7,a6
80005b56:	01179533          	sll	a0,a5,a7
80005b5a:	0105de33          	srl	t3,a1,a6
80005b5e:	011595b3          	sll	a1,a1,a7
80005b62:	01c56533          	or	a0,a0,t3
80005b66:	00b035b3          	snez	a1,a1
80005b6a:	8d4d                	or	a0,a0,a1
80005b6c:	0107d7b3          	srl	a5,a5,a6
/home/hqfang/workspace/software/riscv-gnu-toolchain/riscv-gcc/libgcc/soft-fp/subdf3.c:46 (discriminator 317)
80005b70:	40a605b3          	sub	a1,a2,a0
80005b74:	40f707b3          	sub	a5,a4,a5
80005b78:	00b63633          	sltu	a2,a2,a1
80005b7c:	8f91                	sub	a5,a5,a2
/home/hqfang/workspace/software/riscv-gnu-toolchain/riscv-gcc/libgcc/soft-fp/subdf3.c:45 (discriminator 317)
80005b7e:	841a                	mv	s0,t1
80005b80:	84b6                	mv	s1,a3
80005b82:	bf11                	j	80005a96 <__subdf3+0x300>
/home/hqfang/workspace/software/riscv-gnu-toolchain/riscv-gcc/libgcc/soft-fp/subdf3.c:46 (discriminator 304)
80005b84:	fe080513          	addi	a0,a6,-32 # 7fffe0 <dhry_stubs.c.c3a4eb6e+0x7fc405>
80005b88:	02000e13          	li	t3,32
80005b8c:	00a7d8b3          	srl	a7,a5,a0
80005b90:	4501                	li	a0,0
80005b92:	01c80863          	beq	a6,t3,80005ba2 <__subdf3+0x40c>
/home/hqfang/workspace/software/riscv-gnu-toolchain/riscv-gcc/libgcc/soft-fp/subdf3.c:46 (discriminator 311)
80005b96:	04000513          	li	a0,64
80005b9a:	41050533          	sub	a0,a0,a6
80005b9e:	00a79533          	sll	a0,a5,a0
/home/hqfang/workspace/software/riscv-gnu-toolchain/riscv-gcc/libgcc/soft-fp/subdf3.c:46 (discriminator 314)
80005ba2:	8d4d                	or	a0,a0,a1
80005ba4:	00a03533          	snez	a0,a0
80005ba8:	00a8e533          	or	a0,a7,a0
/home/hqfang/workspace/software/riscv-gnu-toolchain/riscv-gcc/libgcc/soft-fp/subdf3.c:46 (discriminator 302)
80005bac:	4781                	li	a5,0
80005bae:	b7c9                	j	80005b70 <__subdf3+0x3da>
80005bb0:	00b7e533          	or	a0,a5,a1
80005bb4:	00a03533          	snez	a0,a0
80005bb8:	bfd5                	j	80005bac <__subdf3+0x416>
/home/hqfang/workspace/software/riscv-gnu-toolchain/riscv-gcc/libgcc/soft-fp/subdf3.c:46 (discriminator 263)
80005bba:	00140513          	addi	a0,s0,1
80005bbe:	7fe57513          	andi	a0,a0,2046
80005bc2:	e925                	bnez	a0,80005c32 <__subdf3+0x49c>
/home/hqfang/workspace/software/riscv-gnu-toolchain/riscv-gcc/libgcc/soft-fp/subdf3.c:46 (discriminator 319)
80005bc4:	00b7e833          	or	a6,a5,a1
80005bc8:	00c76533          	or	a0,a4,a2
80005bcc:	e821                	bnez	s0,80005c1c <__subdf3+0x486>
/home/hqfang/workspace/software/riscv-gnu-toolchain/riscv-gcc/libgcc/soft-fp/subdf3.c:46 (discriminator 321)
80005bce:	00081863          	bnez	a6,80005bde <__subdf3+0x448>
/home/hqfang/workspace/software/riscv-gnu-toolchain/riscv-gcc/libgcc/soft-fp/subdf3.c:46 (discriminator 323)
80005bd2:	1c050063          	beqz	a0,80005d92 <__subdf3+0x5fc>
/home/hqfang/workspace/software/riscv-gnu-toolchain/riscv-gcc/libgcc/soft-fp/subdf3.c:45
80005bd6:	87ba                	mv	a5,a4
80005bd8:	85b2                	mv	a1,a2
80005bda:	84b6                	mv	s1,a3
80005bdc:	bbc5                	j	800059cc <__subdf3+0x236>
/home/hqfang/workspace/software/riscv-gnu-toolchain/riscv-gcc/libgcc/soft-fp/subdf3.c:46 (discriminator 324)
80005bde:	de0507e3          	beqz	a0,800059cc <__subdf3+0x236>
/home/hqfang/workspace/software/riscv-gnu-toolchain/riscv-gcc/libgcc/soft-fp/subdf3.c:46 (discriminator 331)
80005be2:	40c58833          	sub	a6,a1,a2
80005be6:	0105b8b3          	sltu	a7,a1,a6
80005bea:	40e78533          	sub	a0,a5,a4
80005bee:	41150533          	sub	a0,a0,a7
80005bf2:	008008b7          	lui	a7,0x800
80005bf6:	011578b3          	and	a7,a0,a7
80005bfa:	00088a63          	beqz	a7,80005c0e <__subdf3+0x478>
/home/hqfang/workspace/software/riscv-gnu-toolchain/riscv-gcc/libgcc/soft-fp/subdf3.c:46 (discriminator 333)
80005bfe:	40b605b3          	sub	a1,a2,a1
80005c02:	40f707b3          	sub	a5,a4,a5
80005c06:	00b63633          	sltu	a2,a2,a1
80005c0a:	8f91                	sub	a5,a5,a2
80005c0c:	b7f9                	j	80005bda <__subdf3+0x444>
/home/hqfang/workspace/software/riscv-gnu-toolchain/riscv-gcc/libgcc/soft-fp/subdf3.c:46 (discriminator 334)
80005c0e:	00a865b3          	or	a1,a6,a0
80005c12:	18058463          	beqz	a1,80005d9a <__subdf3+0x604>
/home/hqfang/workspace/software/riscv-gnu-toolchain/riscv-gcc/libgcc/soft-fp/subdf3.c:46
80005c16:	87aa                	mv	a5,a0
80005c18:	85c2                	mv	a1,a6
80005c1a:	bb4d                	j	800059cc <__subdf3+0x236>
/home/hqfang/workspace/software/riscv-gnu-toolchain/riscv-gcc/libgcc/soft-fp/subdf3.c:46 (discriminator 353)
80005c1c:	00081863          	bnez	a6,80005c2c <__subdf3+0x496>
/home/hqfang/workspace/software/riscv-gnu-toolchain/riscv-gcc/libgcc/soft-fp/subdf3.c:46 (discriminator 354)
80005c20:	16050f63          	beqz	a0,80005d9e <__subdf3+0x608>
/home/hqfang/workspace/software/riscv-gnu-toolchain/riscv-gcc/libgcc/soft-fp/subdf3.c:45
80005c24:	87ba                	mv	a5,a4
80005c26:	85b2                	mv	a1,a2
/home/hqfang/workspace/software/riscv-gnu-toolchain/riscv-gcc/libgcc/soft-fp/subdf3.c:46
80005c28:	84b6                	mv	s1,a3
80005c2a:	bef5                	j	80005826 <__subdf3+0x90>
/home/hqfang/workspace/software/riscv-gnu-toolchain/riscv-gcc/libgcc/soft-fp/subdf3.c:46 (discriminator 355)
80005c2c:	be050de3          	beqz	a0,80005826 <__subdf3+0x90>
80005c30:	b3d1                	j	800059f4 <__subdf3+0x25e>
/home/hqfang/workspace/software/riscv-gnu-toolchain/riscv-gcc/libgcc/soft-fp/subdf3.c:46 (discriminator 320)
80005c32:	40c589b3          	sub	s3,a1,a2
80005c36:	0135b533          	sltu	a0,a1,s3
80005c3a:	40e78933          	sub	s2,a5,a4
80005c3e:	40a90933          	sub	s2,s2,a0
80005c42:	00800537          	lui	a0,0x800
80005c46:	00a97533          	and	a0,s2,a0
80005c4a:	c53d                	beqz	a0,80005cb8 <__subdf3+0x522>
/home/hqfang/workspace/software/riscv-gnu-toolchain/riscv-gcc/libgcc/soft-fp/subdf3.c:46 (discriminator 371)
80005c4c:	40b609b3          	sub	s3,a2,a1
80005c50:	40f707b3          	sub	a5,a4,a5
80005c54:	01363633          	sltu	a2,a2,s3
80005c58:	40c78933          	sub	s2,a5,a2
80005c5c:	84b6                	mv	s1,a3
/home/hqfang/workspace/software/riscv-gnu-toolchain/riscv-gcc/libgcc/soft-fp/subdf3.c:46 (discriminator 380)
80005c5e:	06090363          	beqz	s2,80005cc4 <__subdf3+0x52e>
/home/hqfang/workspace/software/riscv-gnu-toolchain/riscv-gcc/libgcc/soft-fp/subdf3.c:46 (discriminator 383)
80005c62:	854a                	mv	a0,s2
80005c64:	29e1                	jal	8000613c <__clzsi2>
/home/hqfang/workspace/software/riscv-gnu-toolchain/riscv-gcc/libgcc/soft-fp/subdf3.c:46 (discriminator 397)
80005c66:	ff850713          	addi	a4,a0,-8 # 7ffff8 <dhry_stubs.c.c3a4eb6e+0x7fc41d>
80005c6a:	47fd                	li	a5,31
80005c6c:	06e7c163          	blt	a5,a4,80005cce <__subdf3+0x538>
/home/hqfang/workspace/software/riscv-gnu-toolchain/riscv-gcc/libgcc/soft-fp/subdf3.c:46 (discriminator 403)
80005c70:	02000793          	li	a5,32
80005c74:	8f99                	sub	a5,a5,a4
80005c76:	00e91933          	sll	s2,s2,a4
80005c7a:	00f9d7b3          	srl	a5,s3,a5
80005c7e:	0127e7b3          	or	a5,a5,s2
80005c82:	00e995b3          	sll	a1,s3,a4
/home/hqfang/workspace/software/riscv-gnu-toolchain/riscv-gcc/libgcc/soft-fp/subdf3.c:46 (discriminator 407)
80005c86:	06874e63          	blt	a4,s0,80005d02 <__subdf3+0x56c>
/home/hqfang/workspace/software/riscv-gnu-toolchain/riscv-gcc/libgcc/soft-fp/subdf3.c:46 (discriminator 408)
80005c8a:	8f01                	sub	a4,a4,s0
80005c8c:	00170693          	addi	a3,a4,1 # ff800001 <_sp+0x6f7f0001>
80005c90:	467d                	li	a2,31
80005c92:	04d64463          	blt	a2,a3,80005cda <__subdf3+0x544>
/home/hqfang/workspace/software/riscv-gnu-toolchain/riscv-gcc/libgcc/soft-fp/subdf3.c:46 (discriminator 410)
80005c96:	02000713          	li	a4,32
80005c9a:	8f15                	sub	a4,a4,a3
80005c9c:	00e79633          	sll	a2,a5,a4
80005ca0:	00d5d533          	srl	a0,a1,a3
80005ca4:	00e595b3          	sll	a1,a1,a4
80005ca8:	8e49                	or	a2,a2,a0
80005caa:	00b035b3          	snez	a1,a1
80005cae:	8dd1                	or	a1,a1,a2
80005cb0:	00d7d7b3          	srl	a5,a5,a3
/home/hqfang/workspace/software/riscv-gnu-toolchain/riscv-gcc/libgcc/soft-fp/subdf3.c:46 (discriminator 422)
80005cb4:	4401                	li	s0,0
80005cb6:	bb19                	j	800059cc <__subdf3+0x236>
/home/hqfang/workspace/software/riscv-gnu-toolchain/riscv-gcc/libgcc/soft-fp/subdf3.c:46 (discriminator 372)
80005cb8:	0129e5b3          	or	a1,s3,s2
80005cbc:	f1cd                	bnez	a1,80005c5e <__subdf3+0x4c8>
80005cbe:	4781                	li	a5,0
/home/hqfang/workspace/software/riscv-gnu-toolchain/riscv-gcc/libgcc/soft-fp/subdf3.c:46
80005cc0:	4401                	li	s0,0
80005cc2:	a8d1                	j	80005d96 <__subdf3+0x600>
/home/hqfang/workspace/software/riscv-gnu-toolchain/riscv-gcc/libgcc/soft-fp/subdf3.c:46 (discriminator 390)
80005cc4:	854e                	mv	a0,s3
80005cc6:	299d                	jal	8000613c <__clzsi2>
80005cc8:	02050513          	addi	a0,a0,32
80005ccc:	bf69                	j	80005c66 <__subdf3+0x4d0>
/home/hqfang/workspace/software/riscv-gnu-toolchain/riscv-gcc/libgcc/soft-fp/subdf3.c:46 (discriminator 399)
80005cce:	fd850793          	addi	a5,a0,-40
80005cd2:	00f997b3          	sll	a5,s3,a5
80005cd6:	4581                	li	a1,0
80005cd8:	b77d                	j	80005c86 <__subdf3+0x4f0>
/home/hqfang/workspace/software/riscv-gnu-toolchain/riscv-gcc/libgcc/soft-fp/subdf3.c:46 (discriminator 411)
80005cda:	1705                	addi	a4,a4,-31
80005cdc:	02000613          	li	a2,32
80005ce0:	00e7d733          	srl	a4,a5,a4
80005ce4:	4501                	li	a0,0
80005ce6:	00c68763          	beq	a3,a2,80005cf4 <__subdf3+0x55e>
/home/hqfang/workspace/software/riscv-gnu-toolchain/riscv-gcc/libgcc/soft-fp/subdf3.c:46 (discriminator 419)
80005cea:	04000513          	li	a0,64
80005cee:	8d15                	sub	a0,a0,a3
80005cf0:	00a79533          	sll	a0,a5,a0
/home/hqfang/workspace/software/riscv-gnu-toolchain/riscv-gcc/libgcc/soft-fp/subdf3.c:46 (discriminator 422)
80005cf4:	8d4d                	or	a0,a0,a1
80005cf6:	00a03533          	snez	a0,a0
80005cfa:	00a765b3          	or	a1,a4,a0
80005cfe:	4781                	li	a5,0
80005d00:	bf55                	j	80005cb4 <__subdf3+0x51e>
/home/hqfang/workspace/software/riscv-gnu-toolchain/riscv-gcc/libgcc/soft-fp/subdf3.c:46 (discriminator 409)
80005d02:	8c19                	sub	s0,s0,a4
80005d04:	ff800737          	lui	a4,0xff800
80005d08:	177d                	addi	a4,a4,-1
80005d0a:	8ff9                	and	a5,a5,a4
80005d0c:	b1c1                	j	800059cc <__subdf3+0x236>
/home/hqfang/workspace/software/riscv-gnu-toolchain/riscv-gcc/libgcc/soft-fp/subdf3.c:45
80005d0e:	87ba                	mv	a5,a4
80005d10:	85b2                	mv	a1,a2
/home/hqfang/workspace/software/riscv-gnu-toolchain/riscv-gcc/libgcc/soft-fp/subdf3.c:46
80005d12:	842a                	mv	s0,a0
80005d14:	b965                	j	800059cc <__subdf3+0x236>
/home/hqfang/workspace/software/riscv-gnu-toolchain/riscv-gcc/libgcc/soft-fp/subdf3.c:45
80005d16:	87ba                	mv	a5,a4
80005d18:	85b2                	mv	a1,a2
80005d1a:	b94d                	j	800059cc <__subdf3+0x236>
80005d1c:	7ff00413          	li	s0,2047
80005d20:	4781                	li	a5,0
80005d22:	4581                	li	a1,0
/home/hqfang/workspace/software/riscv-gnu-toolchain/riscv-gcc/libgcc/soft-fp/subdf3.c:47 (discriminator 47)
80005d24:	00800737          	lui	a4,0x800
80005d28:	8f7d                	and	a4,a4,a5
80005d2a:	cb11                	beqz	a4,80005d3e <__subdf3+0x5a8>
/home/hqfang/workspace/software/riscv-gnu-toolchain/riscv-gcc/libgcc/soft-fp/subdf3.c:47 (discriminator 63)
80005d2c:	0405                	addi	s0,s0,1
80005d2e:	7ff00713          	li	a4,2047
80005d32:	06e40b63          	beq	s0,a4,80005da8 <__subdf3+0x612>
/home/hqfang/workspace/software/riscv-gnu-toolchain/riscv-gcc/libgcc/soft-fp/subdf3.c:47
80005d36:	ff800737          	lui	a4,0xff800
80005d3a:	177d                	addi	a4,a4,-1
80005d3c:	8ff9                	and	a5,a5,a4
/home/hqfang/workspace/software/riscv-gnu-toolchain/riscv-gcc/libgcc/soft-fp/subdf3.c:47 (discriminator 79)
80005d3e:	01d79713          	slli	a4,a5,0x1d
80005d42:	0035d513          	srli	a0,a1,0x3
80005d46:	8d59                	or	a0,a0,a4
80005d48:	7ff00713          	li	a4,2047
80005d4c:	838d                	srli	a5,a5,0x3
80005d4e:	00e41963          	bne	s0,a4,80005d60 <__subdf3+0x5ca>
/home/hqfang/workspace/software/riscv-gnu-toolchain/riscv-gcc/libgcc/soft-fp/subdf3.c:47 (discriminator 80)
80005d52:	8d5d                	or	a0,a0,a5
80005d54:	4781                	li	a5,0
80005d56:	c509                	beqz	a0,80005d60 <__subdf3+0x5ca>
/home/hqfang/workspace/software/riscv-gnu-toolchain/riscv-gcc/libgcc/soft-fp/subdf3.c:47
80005d58:	000807b7          	lui	a5,0x80
80005d5c:	4501                	li	a0,0
80005d5e:	4481                	li	s1,0
/home/hqfang/workspace/software/riscv-gnu-toolchain/riscv-gcc/libgcc/soft-fp/subdf3.c:47 (discriminator 90)
80005d60:	01441713          	slli	a4,s0,0x14
80005d64:	7ff006b7          	lui	a3,0x7ff00
80005d68:	07b2                	slli	a5,a5,0xc
/home/hqfang/workspace/software/riscv-gnu-toolchain/riscv-gcc/libgcc/soft-fp/subdf3.c:51 (discriminator 90)
80005d6a:	40f2                	lw	ra,28(sp)
80005d6c:	4462                	lw	s0,24(sp)
/home/hqfang/workspace/software/riscv-gnu-toolchain/riscv-gcc/libgcc/soft-fp/subdf3.c:47 (discriminator 90)
80005d6e:	8f75                	and	a4,a4,a3
80005d70:	83b1                	srli	a5,a5,0xc
80005d72:	04fe                	slli	s1,s1,0x1f
80005d74:	8fd9                	or	a5,a5,a4
80005d76:	0097e733          	or	a4,a5,s1
/home/hqfang/workspace/software/riscv-gnu-toolchain/riscv-gcc/libgcc/soft-fp/subdf3.c:51 (discriminator 90)
80005d7a:	4942                	lw	s2,16(sp)
80005d7c:	44d2                	lw	s1,20(sp)
80005d7e:	49b2                	lw	s3,12(sp)
80005d80:	85ba                	mv	a1,a4
80005d82:	6105                	addi	sp,sp,32
80005d84:	8082                	ret
80005d86:	8442                	mv	s0,a6
80005d88:	b191                	j	800059cc <__subdf3+0x236>
/home/hqfang/workspace/software/riscv-gnu-toolchain/riscv-gcc/libgcc/soft-fp/subdf3.c:45
80005d8a:	87ba                	mv	a5,a4
80005d8c:	85b2                	mv	a1,a2
/home/hqfang/workspace/software/riscv-gnu-toolchain/riscv-gcc/libgcc/soft-fp/subdf3.c:46
80005d8e:	842a                	mv	s0,a0
80005d90:	b5a9                	j	80005bda <__subdf3+0x444>
80005d92:	4781                	li	a5,0
80005d94:	4581                	li	a1,0
80005d96:	4481                	li	s1,0
80005d98:	b771                	j	80005d24 <__subdf3+0x58e>
80005d9a:	4781                	li	a5,0
80005d9c:	bfed                	j	80005d96 <__subdf3+0x600>
80005d9e:	4581                	li	a1,0
80005da0:	4481                	li	s1,0
80005da2:	004007b7          	lui	a5,0x400
80005da6:	b999                	j	800059fc <__subdf3+0x266>
80005da8:	4781                	li	a5,0
80005daa:	4581                	li	a1,0
80005dac:	bf49                	j	80005d3e <__subdf3+0x5a8>

80005dae <__unorddf2>:
__unorddf2():
/home/hqfang/workspace/software/riscv-gnu-toolchain/riscv-gcc/libgcc/soft-fp/unorddf2.c:42
80005dae:	00100737          	lui	a4,0x100
80005db2:	fff70793          	addi	a5,a4,-1 # fffff <dhry_stubs.c.c3a4eb6e+0xfc424>
80005db6:	00b7f733          	and	a4,a5,a1
80005dba:	81d1                	srli	a1,a1,0x14
/home/hqfang/workspace/software/riscv-gnu-toolchain/riscv-gcc/libgcc/soft-fp/unorddf2.c:43
80005dbc:	8ff5                	and	a5,a5,a3
/home/hqfang/workspace/software/riscv-gnu-toolchain/riscv-gcc/libgcc/soft-fp/unorddf2.c:42
80005dbe:	7ff5f593          	andi	a1,a1,2047
/home/hqfang/workspace/software/riscv-gnu-toolchain/riscv-gcc/libgcc/soft-fp/unorddf2.c:43
80005dc2:	82d1                	srli	a3,a3,0x14
/home/hqfang/workspace/software/riscv-gnu-toolchain/riscv-gcc/libgcc/soft-fp/unorddf2.c:44
80005dc4:	7ff00813          	li	a6,2047
/home/hqfang/workspace/software/riscv-gnu-toolchain/riscv-gcc/libgcc/soft-fp/unorddf2.c:43
80005dc8:	7ff6f693          	andi	a3,a3,2047
/home/hqfang/workspace/software/riscv-gnu-toolchain/riscv-gcc/libgcc/soft-fp/unorddf2.c:44
80005dcc:	01059563          	bne	a1,a6,80005dd6 <__unorddf2+0x28>
/home/hqfang/workspace/software/riscv-gnu-toolchain/riscv-gcc/libgcc/soft-fp/unorddf2.c:44 (discriminator 20)
80005dd0:	8f49                	or	a4,a4,a0
80005dd2:	4505                	li	a0,1
80005dd4:	eb09                	bnez	a4,80005de6 <__unorddf2+0x38>
/home/hqfang/workspace/software/riscv-gnu-toolchain/riscv-gcc/libgcc/soft-fp/unorddf2.c:44 (discriminator 23)
80005dd6:	7ff00713          	li	a4,2047
80005dda:	4501                	li	a0,0
80005ddc:	00e69563          	bne	a3,a4,80005de6 <__unorddf2+0x38>
/home/hqfang/workspace/software/riscv-gnu-toolchain/riscv-gcc/libgcc/soft-fp/unorddf2.c:44 (discriminator 24)
80005de0:	8fd1                	or	a5,a5,a2
80005de2:	00f03533          	snez	a0,a5
/home/hqfang/workspace/software/riscv-gnu-toolchain/riscv-gcc/libgcc/soft-fp/unorddf2.c:48
80005de6:	8082                	ret

80005de8 <__fixdfsi>:
__fixdfsi():
/home/hqfang/workspace/software/riscv-gnu-toolchain/riscv-gcc/libgcc/soft-fp/fixdfsi.c:42
80005de8:	0145d713          	srli	a4,a1,0x14
80005dec:	001006b7          	lui	a3,0x100
80005df0:	fff68793          	addi	a5,a3,-1 # fffff <dhry_stubs.c.c3a4eb6e+0xfc424>
80005df4:	7ff77713          	andi	a4,a4,2047
/home/hqfang/workspace/software/riscv-gnu-toolchain/riscv-gcc/libgcc/soft-fp/fixdfsi.c:43
80005df8:	3fe00613          	li	a2,1022
/home/hqfang/workspace/software/riscv-gnu-toolchain/riscv-gcc/libgcc/soft-fp/fixdfsi.c:42
80005dfc:	8fed                	and	a5,a5,a1
80005dfe:	81fd                	srli	a1,a1,0x1f
/home/hqfang/workspace/software/riscv-gnu-toolchain/riscv-gcc/libgcc/soft-fp/fixdfsi.c:43
80005e00:	04e65463          	bge	a2,a4,80005e48 <__fixdfsi+0x60>
/home/hqfang/workspace/software/riscv-gnu-toolchain/riscv-gcc/libgcc/soft-fp/fixdfsi.c:43 (discriminator 10)
80005e04:	41d00613          	li	a2,1053
80005e08:	00e65863          	bge	a2,a4,80005e18 <__fixdfsi+0x30>
/home/hqfang/workspace/software/riscv-gnu-toolchain/riscv-gcc/libgcc/soft-fp/fixdfsi.c:43 (discriminator 14)
80005e0c:	80000537          	lui	a0,0x80000
80005e10:	fff54513          	not	a0,a0
80005e14:	952e                	add	a0,a0,a1
80005e16:	8082                	ret
/home/hqfang/workspace/software/riscv-gnu-toolchain/riscv-gcc/libgcc/soft-fp/fixdfsi.c:43 (discriminator 13)
80005e18:	8fd5                	or	a5,a5,a3
80005e1a:	43300693          	li	a3,1075
80005e1e:	8e99                	sub	a3,a3,a4
80005e20:	467d                	li	a2,31
80005e22:	00d64d63          	blt	a2,a3,80005e3c <__fixdfsi+0x54>
/home/hqfang/workspace/software/riscv-gnu-toolchain/riscv-gcc/libgcc/soft-fp/fixdfsi.c:43 (discriminator 30)
80005e26:	bed70713          	addi	a4,a4,-1043
80005e2a:	00e797b3          	sll	a5,a5,a4
80005e2e:	00d55533          	srl	a0,a0,a3
80005e32:	8d5d                	or	a0,a0,a5
/home/hqfang/workspace/software/riscv-gnu-toolchain/riscv-gcc/libgcc/soft-fp/fixdfsi.c:43 (discriminator 43)
80005e34:	c999                	beqz	a1,80005e4a <__fixdfsi+0x62>
/home/hqfang/workspace/software/riscv-gnu-toolchain/riscv-gcc/libgcc/soft-fp/fixdfsi.c:43 (discriminator 45)
80005e36:	40a00533          	neg	a0,a0
80005e3a:	8082                	ret
/home/hqfang/workspace/software/riscv-gnu-toolchain/riscv-gcc/libgcc/soft-fp/fixdfsi.c:43 (discriminator 42)
80005e3c:	41300513          	li	a0,1043
80005e40:	8d19                	sub	a0,a0,a4
80005e42:	00a7d533          	srl	a0,a5,a0
80005e46:	b7fd                	j	80005e34 <__fixdfsi+0x4c>
/home/hqfang/workspace/software/riscv-gnu-toolchain/riscv-gcc/libgcc/soft-fp/fixdfsi.c:43
80005e48:	4501                	li	a0,0
/home/hqfang/workspace/software/riscv-gnu-toolchain/riscv-gcc/libgcc/soft-fp/fixdfsi.c:47 (discriminator 59)
80005e4a:	8082                	ret

80005e4c <__floatsidf>:
__floatsidf():
/home/hqfang/workspace/software/riscv-gnu-toolchain/riscv-gcc/libgcc/soft-fp/floatsidf.c:37
80005e4c:	1141                	addi	sp,sp,-16
80005e4e:	c606                	sw	ra,12(sp)
80005e50:	c422                	sw	s0,8(sp)
80005e52:	c226                	sw	s1,4(sp)
/home/hqfang/workspace/software/riscv-gnu-toolchain/riscv-gcc/libgcc/soft-fp/floatsidf.c:41
80005e54:	cd21                	beqz	a0,80005eac <__floatsidf+0x60>
/home/hqfang/workspace/software/riscv-gnu-toolchain/riscv-gcc/libgcc/soft-fp/floatsidf.c:41 (discriminator 1)
80005e56:	41f55793          	srai	a5,a0,0x1f
80005e5a:	00a7c433          	xor	s0,a5,a0
80005e5e:	8c1d                	sub	s0,s0,a5
80005e60:	01f55493          	srli	s1,a0,0x1f
80005e64:	8522                	mv	a0,s0
80005e66:	2cd9                	jal	8000613c <__clzsi2>
80005e68:	41e00713          	li	a4,1054
80005e6c:	47a9                	li	a5,10
80005e6e:	8f09                	sub	a4,a4,a0
80005e70:	02a7c863          	blt	a5,a0,80005ea0 <__floatsidf+0x54>
/home/hqfang/workspace/software/riscv-gnu-toolchain/riscv-gcc/libgcc/soft-fp/floatsidf.c:41 (discriminator 23)
80005e74:	47ad                	li	a5,11
80005e76:	8f89                	sub	a5,a5,a0
80005e78:	0555                	addi	a0,a0,21
80005e7a:	00f457b3          	srl	a5,s0,a5
80005e7e:	00a41433          	sll	s0,s0,a0
80005e82:	8526                	mv	a0,s1
/home/hqfang/workspace/software/riscv-gnu-toolchain/riscv-gcc/libgcc/soft-fp/floatsidf.c:42 (discriminator 126)
80005e84:	07b2                	slli	a5,a5,0xc
80005e86:	0752                	slli	a4,a4,0x14
80005e88:	83b1                	srli	a5,a5,0xc
80005e8a:	057e                	slli	a0,a0,0x1f
80005e8c:	8fd9                	or	a5,a5,a4
/home/hqfang/workspace/software/riscv-gnu-toolchain/riscv-gcc/libgcc/soft-fp/floatsidf.c:45 (discriminator 126)
80005e8e:	40b2                	lw	ra,12(sp)
/home/hqfang/workspace/software/riscv-gnu-toolchain/riscv-gcc/libgcc/soft-fp/floatsidf.c:42 (discriminator 126)
80005e90:	00a7e733          	or	a4,a5,a0
/home/hqfang/workspace/software/riscv-gnu-toolchain/riscv-gcc/libgcc/soft-fp/floatsidf.c:45 (discriminator 126)
80005e94:	8522                	mv	a0,s0
80005e96:	4422                	lw	s0,8(sp)
80005e98:	4492                	lw	s1,4(sp)
80005e9a:	85ba                	mv	a1,a4
80005e9c:	0141                	addi	sp,sp,16
80005e9e:	8082                	ret
/home/hqfang/workspace/software/riscv-gnu-toolchain/riscv-gcc/libgcc/soft-fp/floatsidf.c:41 (discriminator 24)
80005ea0:	1555                	addi	a0,a0,-11
80005ea2:	00a417b3          	sll	a5,s0,a0
80005ea6:	8526                	mv	a0,s1
/home/hqfang/workspace/software/riscv-gnu-toolchain/riscv-gcc/libgcc/soft-fp/floatsidf.c:41
80005ea8:	4401                	li	s0,0
80005eaa:	bfe9                	j	80005e84 <__floatsidf+0x38>
80005eac:	4701                	li	a4,0
80005eae:	4781                	li	a5,0
80005eb0:	bfe5                	j	80005ea8 <__floatsidf+0x5c>

80005eb2 <__floatunsidf>:
__floatunsidf():
/home/hqfang/workspace/software/riscv-gnu-toolchain/riscv-gcc/libgcc/soft-fp/floatunsidf.c:37
80005eb2:	1141                	addi	sp,sp,-16
80005eb4:	c422                	sw	s0,8(sp)
80005eb6:	c606                	sw	ra,12(sp)
80005eb8:	842a                	mv	s0,a0
/home/hqfang/workspace/software/riscv-gnu-toolchain/riscv-gcc/libgcc/soft-fp/floatunsidf.c:41
80005eba:	c121                	beqz	a0,80005efa <__floatunsidf+0x48>
/home/hqfang/workspace/software/riscv-gnu-toolchain/riscv-gcc/libgcc/soft-fp/floatunsidf.c:41 (discriminator 6)
80005ebc:	2441                	jal	8000613c <__clzsi2>
80005ebe:	41e00713          	li	a4,1054
80005ec2:	47a9                	li	a5,10
80005ec4:	8f09                	sub	a4,a4,a0
80005ec6:	02a7c463          	blt	a5,a0,80005eee <__floatunsidf+0x3c>
/home/hqfang/workspace/software/riscv-gnu-toolchain/riscv-gcc/libgcc/soft-fp/floatunsidf.c:41 (discriminator 23)
80005eca:	47ad                	li	a5,11
80005ecc:	8f89                	sub	a5,a5,a0
80005ece:	0555                	addi	a0,a0,21
80005ed0:	00f457b3          	srl	a5,s0,a5
80005ed4:	00a41433          	sll	s0,s0,a0
/home/hqfang/workspace/software/riscv-gnu-toolchain/riscv-gcc/libgcc/soft-fp/floatunsidf.c:45 (discriminator 126)
80005ed8:	40b2                	lw	ra,12(sp)
80005eda:	8522                	mv	a0,s0
/home/hqfang/workspace/software/riscv-gnu-toolchain/riscv-gcc/libgcc/soft-fp/floatunsidf.c:42 (discriminator 126)
80005edc:	07b2                	slli	a5,a5,0xc
/home/hqfang/workspace/software/riscv-gnu-toolchain/riscv-gcc/libgcc/soft-fp/floatunsidf.c:45 (discriminator 126)
80005ede:	4422                	lw	s0,8(sp)
/home/hqfang/workspace/software/riscv-gnu-toolchain/riscv-gcc/libgcc/soft-fp/floatunsidf.c:42 (discriminator 126)
80005ee0:	0752                	slli	a4,a4,0x14
80005ee2:	83b1                	srli	a5,a5,0xc
80005ee4:	00f766b3          	or	a3,a4,a5
/home/hqfang/workspace/software/riscv-gnu-toolchain/riscv-gcc/libgcc/soft-fp/floatunsidf.c:45 (discriminator 126)
80005ee8:	85b6                	mv	a1,a3
80005eea:	0141                	addi	sp,sp,16
80005eec:	8082                	ret
/home/hqfang/workspace/software/riscv-gnu-toolchain/riscv-gcc/libgcc/soft-fp/floatunsidf.c:41 (discriminator 24)
80005eee:	ff550793          	addi	a5,a0,-11 # 7ffffff5 <_sp+0xeffefff5>
80005ef2:	00f417b3          	sll	a5,s0,a5
80005ef6:	4401                	li	s0,0
80005ef8:	b7c5                	j	80005ed8 <__floatunsidf+0x26>
/home/hqfang/workspace/software/riscv-gnu-toolchain/riscv-gcc/libgcc/soft-fp/floatunsidf.c:41
80005efa:	4781                	li	a5,0
80005efc:	4701                	li	a4,0
80005efe:	bfe9                	j	80005ed8 <__floatunsidf+0x26>

80005f00 <__trunctfdf2>:
__trunctfdf2():
/home/hqfang/workspace/software/riscv-gnu-toolchain/riscv-gcc/libgcc/soft-fp/trunctfdf2.c:37
80005f00:	7179                	addi	sp,sp,-48
80005f02:	451c                	lw	a5,8(a0)
80005f04:	d422                	sw	s0,40(sp)
80005f06:	4540                	lw	s0,12(a0)
80005f08:	4158                	lw	a4,4(a0)
80005f0a:	4114                	lw	a3,0(a0)
/home/hqfang/workspace/software/riscv-gnu-toolchain/riscv-gcc/libgcc/soft-fp/trunctfdf2.c:44
80005f0c:	c43e                	sw	a5,8(sp)
80005f0e:	cc3e                	sw	a5,24(sp)
80005f10:	01041793          	slli	a5,s0,0x10
80005f14:	c23a                	sw	a4,4(sp)
80005f16:	ca3a                	sw	a4,20(sp)
80005f18:	83c1                	srli	a5,a5,0x10
80005f1a:	00141713          	slli	a4,s0,0x1
80005f1e:	c622                	sw	s0,12(sp)
/home/hqfang/workspace/software/riscv-gnu-toolchain/riscv-gcc/libgcc/soft-fp/trunctfdf2.c:37
80005f20:	d606                	sw	ra,44(sp)
80005f22:	d226                	sw	s1,36(sp)
/home/hqfang/workspace/software/riscv-gnu-toolchain/riscv-gcc/libgcc/soft-fp/trunctfdf2.c:44
80005f24:	c036                	sw	a3,0(sp)
80005f26:	c836                	sw	a3,16(sp)
80005f28:	ce3e                	sw	a5,28(sp)
80005f2a:	8345                	srli	a4,a4,0x11
80005f2c:	807d                	srli	s0,s0,0x1f
80005f2e:	0808                	addi	a0,sp,16
80005f30:	0870                	addi	a2,sp,28
/home/hqfang/workspace/software/riscv-gnu-toolchain/riscv-gcc/libgcc/soft-fp/trunctfdf2.c:44 (discriminator 8)
80005f32:	421c                	lw	a5,0(a2)
80005f34:	ffc62683          	lw	a3,-4(a2) # 7feffffc <dhry_stubs.c.c3a4eb6e+0x7fefc421>
80005f38:	1671                	addi	a2,a2,-4
80005f3a:	078e                	slli	a5,a5,0x3
80005f3c:	82f5                	srli	a3,a3,0x1d
80005f3e:	8fd5                	or	a5,a5,a3
80005f40:	c25c                	sw	a5,4(a2)
80005f42:	fec518e3          	bne	a0,a2,80005f32 <__trunctfdf2+0x32>
/home/hqfang/workspace/software/riscv-gnu-toolchain/riscv-gcc/libgcc/soft-fp/trunctfdf2.c:44 (discriminator 9)
80005f46:	46c2                	lw	a3,16(sp)
/home/hqfang/workspace/software/riscv-gnu-toolchain/riscv-gcc/libgcc/soft-fp/trunctfdf2.c:46 (discriminator 9)
80005f48:	00170793          	addi	a5,a4,1
/home/hqfang/workspace/software/riscv-gnu-toolchain/riscv-gcc/libgcc/soft-fp/trunctfdf2.c:44 (discriminator 9)
80005f4c:	00369593          	slli	a1,a3,0x3
/home/hqfang/workspace/software/riscv-gnu-toolchain/riscv-gcc/libgcc/soft-fp/trunctfdf2.c:46 (discriminator 9)
80005f50:	66a1                	lui	a3,0x8
80005f52:	16f9                	addi	a3,a3,-2
/home/hqfang/workspace/software/riscv-gnu-toolchain/riscv-gcc/libgcc/soft-fp/trunctfdf2.c:44 (discriminator 9)
80005f54:	c82e                	sw	a1,16(sp)
/home/hqfang/workspace/software/riscv-gnu-toolchain/riscv-gcc/libgcc/soft-fp/trunctfdf2.c:46 (discriminator 9)
80005f56:	8ff5                	and	a5,a5,a3
80005f58:	12078f63          	beqz	a5,80006096 <__trunctfdf2+0x196>
/home/hqfang/workspace/software/riscv-gnu-toolchain/riscv-gcc/libgcc/soft-fp/trunctfdf2.c:46 (discriminator 1)
80005f5c:	77f1                	lui	a5,0xffffc
80005f5e:	40078793          	addi	a5,a5,1024 # ffffc400 <_sp+0x6ffec400>
80005f62:	973e                	add	a4,a4,a5
80005f64:	7fe00793          	li	a5,2046
80005f68:	16e7c363          	blt	a5,a4,800060ce <__trunctfdf2+0x1ce>
/home/hqfang/workspace/software/riscv-gnu-toolchain/riscv-gcc/libgcc/soft-fp/trunctfdf2.c:46 (discriminator 4)
80005f6c:	04e05663          	blez	a4,80005fb8 <__trunctfdf2+0xb8>
/home/hqfang/workspace/software/riscv-gnu-toolchain/riscv-gcc/libgcc/soft-fp/trunctfdf2.c:46
80005f70:	4562                	lw	a0,24(sp)
80005f72:	4672                	lw	a2,28(sp)
80005f74:	47d2                	lw	a5,20(sp)
80005f76:	01c55693          	srli	a3,a0,0x1c
80005f7a:	0612                	slli	a2,a2,0x4
80005f7c:	8e55                	or	a2,a2,a3
80005f7e:	00479693          	slli	a3,a5,0x4
80005f82:	8ecd                	or	a3,a3,a1
80005f84:	83f1                	srli	a5,a5,0x1c
80005f86:	0512                	slli	a0,a0,0x4
80005f88:	00d036b3          	snez	a3,a3
80005f8c:	8fc9                	or	a5,a5,a0
80005f8e:	8edd                	or	a3,a3,a5
80005f90:	ca32                	sw	a2,20(sp)
80005f92:	c836                	sw	a3,16(sp)
/home/hqfang/workspace/software/riscv-gnu-toolchain/riscv-gcc/libgcc/soft-fp/trunctfdf2.c:46 (discriminator 59)
80005f94:	46c2                	lw	a3,16(sp)
80005f96:	47d2                	lw	a5,20(sp)
/home/hqfang/workspace/software/riscv-gnu-toolchain/riscv-gcc/libgcc/soft-fp/trunctfdf2.c:50 (discriminator 117)
80005f98:	0076f613          	andi	a2,a3,7
80005f9c:	12060d63          	beqz	a2,800060d6 <__trunctfdf2+0x1d6>
/home/hqfang/workspace/software/riscv-gnu-toolchain/riscv-gcc/libgcc/soft-fp/trunctfdf2.c:50 (discriminator 37)
80005fa0:	00f6f613          	andi	a2,a3,15
80005fa4:	4591                	li	a1,4
80005fa6:	12b60863          	beq	a2,a1,800060d6 <__trunctfdf2+0x1d6>
/home/hqfang/workspace/software/riscv-gnu-toolchain/riscv-gcc/libgcc/soft-fp/trunctfdf2.c:50 (discriminator 44)
80005faa:	00468613          	addi	a2,a3,4 # 8004 <dhry_stubs.c.c3a4eb6e+0x4429>
80005fae:	00d636b3          	sltu	a3,a2,a3
80005fb2:	97b6                	add	a5,a5,a3
80005fb4:	86b2                	mv	a3,a2
80005fb6:	a205                	j	800060d6 <__trunctfdf2+0x1d6>
/home/hqfang/workspace/software/riscv-gnu-toolchain/riscv-gcc/libgcc/soft-fp/trunctfdf2.c:46 (discriminator 18)
80005fb8:	fcc00793          	li	a5,-52
80005fbc:	00f75763          	bge	a4,a5,80005fca <__trunctfdf2+0xca>
/home/hqfang/workspace/software/riscv-gnu-toolchain/riscv-gcc/libgcc/soft-fp/trunctfdf2.c:46 (discriminator 20)
80005fc0:	ca02                	sw	zero,20(sp)
80005fc2:	4785                	li	a5,1
/home/hqfang/workspace/software/riscv-gnu-toolchain/riscv-gcc/libgcc/soft-fp/trunctfdf2.c:46 (discriminator 37)
80005fc4:	c83e                	sw	a5,16(sp)
80005fc6:	4701                	li	a4,0
80005fc8:	b7f1                	j	80005f94 <__trunctfdf2+0x94>
/home/hqfang/workspace/software/riscv-gnu-toolchain/riscv-gcc/libgcc/soft-fp/trunctfdf2.c:46 (discriminator 21)
80005fca:	47f2                	lw	a5,28(sp)
80005fcc:	000808b7          	lui	a7,0x80
/home/hqfang/workspace/software/riscv-gnu-toolchain/riscv-gcc/libgcc/soft-fp/trunctfdf2.c:44 (discriminator 21)
80005fd0:	85aa                	mv	a1,a0
/home/hqfang/workspace/software/riscv-gnu-toolchain/riscv-gcc/libgcc/soft-fp/trunctfdf2.c:46 (discriminator 21)
80005fd2:	00f8e8b3          	or	a7,a7,a5
80005fd6:	03d00793          	li	a5,61
80005fda:	40e78733          	sub	a4,a5,a4
80005fde:	ce46                	sw	a7,28(sp)
80005fe0:	40575793          	srai	a5,a4,0x5
80005fe4:	4681                	li	a3,0
80005fe6:	4481                	li	s1,0
/home/hqfang/workspace/software/riscv-gnu-toolchain/riscv-gcc/libgcc/soft-fp/trunctfdf2.c:46 (discriminator 25)
80005fe8:	0005a803          	lw	a6,0(a1)
80005fec:	0685                	addi	a3,a3,1
80005fee:	0591                	addi	a1,a1,4
80005ff0:	0104e4b3          	or	s1,s1,a6
80005ff4:	fed79ae3          	bne	a5,a3,80005fe8 <__trunctfdf2+0xe8>
/home/hqfang/workspace/software/riscv-gnu-toolchain/riscv-gcc/libgcc/soft-fp/trunctfdf2.c:46 (discriminator 26)
80005ff8:	8b7d                	andi	a4,a4,31
80005ffa:	00279693          	slli	a3,a5,0x2
80005ffe:	e30d                	bnez	a4,80006020 <__trunctfdf2+0x120>
/home/hqfang/workspace/software/riscv-gnu-toolchain/riscv-gcc/libgcc/soft-fp/trunctfdf2.c:46
80006000:	458d                	li	a1,3
80006002:	8d9d                	sub	a1,a1,a5
/home/hqfang/workspace/software/riscv-gnu-toolchain/riscv-gcc/libgcc/soft-fp/trunctfdf2.c:46 (discriminator 31)
80006004:	00d60833          	add	a6,a2,a3
80006008:	00082803          	lw	a6,0(a6)
8000600c:	0705                	addi	a4,a4,1
8000600e:	01062023          	sw	a6,0(a2)
80006012:	0611                	addi	a2,a2,4
80006014:	fee5d8e3          	bge	a1,a4,80006004 <__trunctfdf2+0x104>
80006018:	4711                	li	a4,4
8000601a:	40f707b3          	sub	a5,a4,a5
8000601e:	a83d                	j	8000605c <__trunctfdf2+0x15c>
80006020:	5e71                	li	t3,-4
80006022:	03c78e33          	mul	t3,a5,t3
/home/hqfang/workspace/software/riscv-gnu-toolchain/riscv-gcc/libgcc/soft-fp/trunctfdf2.c:46 (discriminator 28)
80006026:	1010                	addi	a2,sp,32
80006028:	9636                	add	a2,a2,a3
8000602a:	ff062603          	lw	a2,-16(a2)
8000602e:	02000813          	li	a6,32
80006032:	40e80833          	sub	a6,a6,a4
80006036:	01061633          	sll	a2,a2,a6
8000603a:	8cd1                	or	s1,s1,a2
8000603c:	460d                	li	a2,3
8000603e:	96aa                	add	a3,a3,a0
80006040:	4301                	li	t1,0
80006042:	8e1d                	sub	a2,a2,a5
/home/hqfang/workspace/software/riscv-gnu-toolchain/riscv-gcc/libgcc/soft-fp/trunctfdf2.c:46 (discriminator 32)
80006044:	02c34963          	blt	t1,a2,80006076 <__trunctfdf2+0x176>
/home/hqfang/workspace/software/riscv-gnu-toolchain/riscv-gcc/libgcc/soft-fp/trunctfdf2.c:46 (discriminator 35)
80006048:	4691                	li	a3,4
8000604a:	40f687b3          	sub	a5,a3,a5
8000604e:	060a                	slli	a2,a2,0x2
80006050:	1014                	addi	a3,sp,32
80006052:	9636                	add	a2,a2,a3
80006054:	00e8d733          	srl	a4,a7,a4
80006058:	fee62823          	sw	a4,-16(a2)
/home/hqfang/workspace/software/riscv-gnu-toolchain/riscv-gcc/libgcc/soft-fp/trunctfdf2.c:46 (discriminator 37)
8000605c:	4611                	li	a2,4
8000605e:	8e1d                	sub	a2,a2,a5
80006060:	078a                	slli	a5,a5,0x2
80006062:	953e                	add	a0,a0,a5
80006064:	060a                	slli	a2,a2,0x2
80006066:	4581                	li	a1,0
80006068:	fc9fc0ef          	jal	ra,80003030 <memset>
8000606c:	4742                	lw	a4,16(sp)
8000606e:	009037b3          	snez	a5,s1
80006072:	8fd9                	or	a5,a5,a4
80006074:	bf81                	j	80005fc4 <__trunctfdf2+0xc4>
/home/hqfang/workspace/software/riscv-gnu-toolchain/riscv-gcc/libgcc/soft-fp/trunctfdf2.c:46 (discriminator 34)
80006076:	428c                	lw	a1,0(a3)
80006078:	0046ae83          	lw	t4,4(a3)
8000607c:	01c68f33          	add	t5,a3,t3
80006080:	00e5d5b3          	srl	a1,a1,a4
80006084:	010e9eb3          	sll	t4,t4,a6
80006088:	01d5e5b3          	or	a1,a1,t4
8000608c:	00bf2023          	sw	a1,0(t5)
80006090:	0305                	addi	t1,t1,1
80006092:	0691                	addi	a3,a3,4
80006094:	bf45                	j	80006044 <__trunctfdf2+0x144>
/home/hqfang/workspace/software/riscv-gnu-toolchain/riscv-gcc/libgcc/soft-fp/trunctfdf2.c:46 (discriminator 2)
80006096:	4652                	lw	a2,20(sp)
80006098:	47e2                	lw	a5,24(sp)
8000609a:	4572                	lw	a0,28(sp)
8000609c:	00f666b3          	or	a3,a2,a5
800060a0:	8ec9                	or	a3,a3,a0
800060a2:	8ecd                	or	a3,a3,a1
800060a4:	e709                	bnez	a4,800060ae <__trunctfdf2+0x1ae>
/home/hqfang/workspace/software/riscv-gnu-toolchain/riscv-gcc/libgcc/soft-fp/trunctfdf2.c:46 (discriminator 65)
800060a6:	00d036b3          	snez	a3,a3
800060aa:	4781                	li	a5,0
800060ac:	b5f5                	j	80005f98 <__trunctfdf2+0x98>
/home/hqfang/workspace/software/riscv-gnu-toolchain/riscv-gcc/libgcc/soft-fp/trunctfdf2.c:46 (discriminator 62)
800060ae:	c2d1                	beqz	a3,80006132 <__trunctfdf2+0x232>
/home/hqfang/workspace/software/riscv-gnu-toolchain/riscv-gcc/libgcc/soft-fp/trunctfdf2.c:46
800060b0:	01c65693          	srli	a3,a2,0x1c
800060b4:	0512                	slli	a0,a0,0x4
800060b6:	00479613          	slli	a2,a5,0x4
800060ba:	83f1                	srli	a5,a5,0x1c
800060bc:	00400737          	lui	a4,0x400
800060c0:	8ed1                	or	a3,a3,a2
800060c2:	8fc9                	or	a5,a5,a0
800060c4:	8fd9                	or	a5,a5,a4
800060c6:	9ae1                	andi	a3,a3,-8
800060c8:	7ff00713          	li	a4,2047
800060cc:	b5f1                	j	80005f98 <__trunctfdf2+0x98>
800060ce:	4781                	li	a5,0
800060d0:	4681                	li	a3,0
800060d2:	7ff00713          	li	a4,2047
/home/hqfang/workspace/software/riscv-gnu-toolchain/riscv-gcc/libgcc/soft-fp/trunctfdf2.c:50 (discriminator 47)
800060d6:	00800637          	lui	a2,0x800
800060da:	8e7d                	and	a2,a2,a5
800060dc:	ca11                	beqz	a2,800060f0 <__trunctfdf2+0x1f0>
/home/hqfang/workspace/software/riscv-gnu-toolchain/riscv-gcc/libgcc/soft-fp/trunctfdf2.c:50 (discriminator 63)
800060de:	0705                	addi	a4,a4,1
800060e0:	7ff00613          	li	a2,2047
800060e4:	04c70963          	beq	a4,a2,80006136 <__trunctfdf2+0x236>
/home/hqfang/workspace/software/riscv-gnu-toolchain/riscv-gcc/libgcc/soft-fp/trunctfdf2.c:50
800060e8:	ff800637          	lui	a2,0xff800
800060ec:	167d                	addi	a2,a2,-1
800060ee:	8ff1                	and	a5,a5,a2
/home/hqfang/workspace/software/riscv-gnu-toolchain/riscv-gcc/libgcc/soft-fp/trunctfdf2.c:50 (discriminator 79)
800060f0:	01d79613          	slli	a2,a5,0x1d
800060f4:	828d                	srli	a3,a3,0x3
800060f6:	8ed1                	or	a3,a3,a2
800060f8:	7ff00613          	li	a2,2047
800060fc:	838d                	srli	a5,a5,0x3
800060fe:	00c71963          	bne	a4,a2,80006110 <__trunctfdf2+0x210>
/home/hqfang/workspace/software/riscv-gnu-toolchain/riscv-gcc/libgcc/soft-fp/trunctfdf2.c:50 (discriminator 80)
80006102:	8edd                	or	a3,a3,a5
80006104:	4781                	li	a5,0
80006106:	c689                	beqz	a3,80006110 <__trunctfdf2+0x210>
/home/hqfang/workspace/software/riscv-gnu-toolchain/riscv-gcc/libgcc/soft-fp/trunctfdf2.c:50
80006108:	000807b7          	lui	a5,0x80
8000610c:	4681                	li	a3,0
8000610e:	4401                	li	s0,0
/home/hqfang/workspace/software/riscv-gnu-toolchain/riscv-gcc/libgcc/soft-fp/trunctfdf2.c:50 (discriminator 90)
80006110:	0752                	slli	a4,a4,0x14
80006112:	7ff00637          	lui	a2,0x7ff00
80006116:	07b2                	slli	a5,a5,0xc
80006118:	8f71                	and	a4,a4,a2
8000611a:	83b1                	srli	a5,a5,0xc
8000611c:	047e                	slli	s0,s0,0x1f
8000611e:	8fd9                	or	a5,a5,a4
/home/hqfang/workspace/software/riscv-gnu-toolchain/riscv-gcc/libgcc/soft-fp/trunctfdf2.c:54 (discriminator 90)
80006120:	50b2                	lw	ra,44(sp)
/home/hqfang/workspace/software/riscv-gnu-toolchain/riscv-gcc/libgcc/soft-fp/trunctfdf2.c:50 (discriminator 90)
80006122:	0087e733          	or	a4,a5,s0
/home/hqfang/workspace/software/riscv-gnu-toolchain/riscv-gcc/libgcc/soft-fp/trunctfdf2.c:54 (discriminator 90)
80006126:	5422                	lw	s0,40(sp)
80006128:	5492                	lw	s1,36(sp)
8000612a:	8536                	mv	a0,a3
8000612c:	85ba                	mv	a1,a4
8000612e:	6145                	addi	sp,sp,48
80006130:	8082                	ret
80006132:	4781                	li	a5,0
80006134:	bf79                	j	800060d2 <__trunctfdf2+0x1d2>
80006136:	4781                	li	a5,0
80006138:	4681                	li	a3,0
8000613a:	bf5d                	j	800060f0 <__trunctfdf2+0x1f0>

8000613c <__clzsi2>:
__clzsi2():
/home/hqfang/workspace/software/riscv-gnu-toolchain/riscv-gcc/libgcc/libgcc2.c:710
8000613c:	67c1                	lui	a5,0x10
8000613e:	02f57663          	bgeu	a0,a5,8000616a <__clzsi2+0x2e>
/home/hqfang/workspace/software/riscv-gnu-toolchain/riscv-gcc/libgcc/libgcc2.c:710 (discriminator 3)
80006142:	0ff00793          	li	a5,255
80006146:	00a7b7b3          	sltu	a5,a5,a0
8000614a:	078e                	slli	a5,a5,0x3
/home/hqfang/workspace/software/riscv-gnu-toolchain/riscv-gcc/libgcc/libgcc2.c:710 (discriminator 14)
8000614c:	02000713          	li	a4,32
80006150:	8f1d                	sub	a4,a4,a5
80006152:	00f55533          	srl	a0,a0,a5
80006156:	00001797          	auipc	a5,0x1
8000615a:	2c678793          	addi	a5,a5,710 # 8000741c <__clz_tab>
8000615e:	953e                	add	a0,a0,a5
80006160:	00054503          	lbu	a0,0(a0)
/home/hqfang/workspace/software/riscv-gnu-toolchain/riscv-gcc/libgcc/libgcc2.c:713 (discriminator 14)
80006164:	40a70533          	sub	a0,a4,a0
80006168:	8082                	ret
/home/hqfang/workspace/software/riscv-gnu-toolchain/riscv-gcc/libgcc/libgcc2.c:710 (discriminator 4)
8000616a:	01000737          	lui	a4,0x1000
8000616e:	47c1                	li	a5,16
80006170:	fce56ee3          	bltu	a0,a4,8000614c <__clzsi2+0x10>
/home/hqfang/workspace/software/riscv-gnu-toolchain/riscv-gcc/libgcc/libgcc2.c:710
80006174:	47e1                	li	a5,24
80006176:	bfd9                	j	8000614c <__clzsi2+0x10>

80006178 <__udivdi3>:
__udivdi3():
/home/hqfang/workspace/software/riscv-gnu-toolchain/riscv-gcc/libgcc/libgcc2.c:1319
80006178:	88aa                	mv	a7,a0
8000617a:	87ae                	mv	a5,a1
__udivmoddi4():
/home/hqfang/workspace/software/riscv-gnu-toolchain/riscv-gcc/libgcc/libgcc2.c:1024
8000617c:	8832                	mv	a6,a2
/home/hqfang/workspace/software/riscv-gnu-toolchain/riscv-gcc/libgcc/libgcc2.c:1025
8000617e:	8536                	mv	a0,a3
/home/hqfang/workspace/software/riscv-gnu-toolchain/riscv-gcc/libgcc/libgcc2.c:1026
80006180:	8346                	mv	t1,a7
/home/hqfang/workspace/software/riscv-gnu-toolchain/riscv-gcc/libgcc/libgcc2.c:1064
80006182:	20069663          	bnez	a3,8000638e <__udivdi3+0x216>
/home/hqfang/workspace/software/riscv-gnu-toolchain/riscv-gcc/libgcc/libgcc2.c:1066
80006186:	00001697          	auipc	a3,0x1
8000618a:	29668693          	addi	a3,a3,662 # 8000741c <__clz_tab>
8000618e:	0ac5ff63          	bgeu	a1,a2,8000624c <__udivdi3+0xd4>
/home/hqfang/workspace/software/riscv-gnu-toolchain/riscv-gcc/libgcc/libgcc2.c:1070
80006192:	6741                	lui	a4,0x10
80006194:	0ae67563          	bgeu	a2,a4,8000623e <__udivdi3+0xc6>
80006198:	0ff00713          	li	a4,255
8000619c:	00c73733          	sltu	a4,a4,a2
800061a0:	070e                	slli	a4,a4,0x3
800061a2:	00e65533          	srl	a0,a2,a4
800061a6:	96aa                	add	a3,a3,a0
800061a8:	0006c683          	lbu	a3,0(a3)
800061ac:	02000513          	li	a0,32
800061b0:	9736                	add	a4,a4,a3
800061b2:	40e506b3          	sub	a3,a0,a4
/home/hqfang/workspace/software/riscv-gnu-toolchain/riscv-gcc/libgcc/libgcc2.c:1072
800061b6:	00e50b63          	beq	a0,a4,800061cc <__udivdi3+0x54>
/home/hqfang/workspace/software/riscv-gnu-toolchain/riscv-gcc/libgcc/libgcc2.c:1078
800061ba:	00d795b3          	sll	a1,a5,a3
800061be:	00e8d733          	srl	a4,a7,a4
/home/hqfang/workspace/software/riscv-gnu-toolchain/riscv-gcc/libgcc/libgcc2.c:1077
800061c2:	00d61833          	sll	a6,a2,a3
/home/hqfang/workspace/software/riscv-gnu-toolchain/riscv-gcc/libgcc/libgcc2.c:1078
800061c6:	8dd9                	or	a1,a1,a4
/home/hqfang/workspace/software/riscv-gnu-toolchain/riscv-gcc/libgcc/libgcc2.c:1079
800061c8:	00d89333          	sll	t1,a7,a3
/home/hqfang/workspace/software/riscv-gnu-toolchain/riscv-gcc/libgcc/libgcc2.c:1082
800061cc:	01085893          	srli	a7,a6,0x10
800061d0:	0315d6b3          	divu	a3,a1,a7
800061d4:	01081613          	slli	a2,a6,0x10
800061d8:	8241                	srli	a2,a2,0x10
800061da:	01035793          	srli	a5,t1,0x10
800061de:	0315f733          	remu	a4,a1,a7
800061e2:	8536                	mv	a0,a3
800061e4:	02d605b3          	mul	a1,a2,a3
800061e8:	0742                	slli	a4,a4,0x10
800061ea:	8fd9                	or	a5,a5,a4
800061ec:	00b7fc63          	bgeu	a5,a1,80006204 <__udivdi3+0x8c>
800061f0:	97c2                	add	a5,a5,a6
800061f2:	fff68513          	addi	a0,a3,-1
800061f6:	0107e763          	bltu	a5,a6,80006204 <__udivdi3+0x8c>
800061fa:	00b7f563          	bgeu	a5,a1,80006204 <__udivdi3+0x8c>
800061fe:	ffe68513          	addi	a0,a3,-2
80006202:	97c2                	add	a5,a5,a6
80006204:	8f8d                	sub	a5,a5,a1
80006206:	0317f733          	remu	a4,a5,a7
8000620a:	0342                	slli	t1,t1,0x10
8000620c:	01035313          	srli	t1,t1,0x10
80006210:	0317d7b3          	divu	a5,a5,a7
80006214:	0742                	slli	a4,a4,0x10
80006216:	00676333          	or	t1,a4,t1
8000621a:	02f606b3          	mul	a3,a2,a5
8000621e:	863e                	mv	a2,a5
80006220:	00d37b63          	bgeu	t1,a3,80006236 <__udivdi3+0xbe>
80006224:	9342                	add	t1,t1,a6
80006226:	fff78613          	addi	a2,a5,-1
8000622a:	01036663          	bltu	t1,a6,80006236 <__udivdi3+0xbe>
8000622e:	00d37463          	bgeu	t1,a3,80006236 <__udivdi3+0xbe>
80006232:	ffe78613          	addi	a2,a5,-2
80006236:	0542                	slli	a0,a0,0x10
80006238:	8d51                	or	a0,a0,a2
/home/hqfang/workspace/software/riscv-gnu-toolchain/riscv-gcc/libgcc/libgcc2.c:1209
8000623a:	4581                	li	a1,0
8000623c:	a85d                	j	800062f2 <__udivdi3+0x17a>
/home/hqfang/workspace/software/riscv-gnu-toolchain/riscv-gcc/libgcc/libgcc2.c:1070
8000623e:	01000537          	lui	a0,0x1000
80006242:	4741                	li	a4,16
80006244:	f4a66fe3          	bltu	a2,a0,800061a2 <__udivdi3+0x2a>
80006248:	4761                	li	a4,24
8000624a:	bfa1                	j	800061a2 <__udivdi3+0x2a>
/home/hqfang/workspace/software/riscv-gnu-toolchain/riscv-gcc/libgcc/libgcc2.c:1091
8000624c:	e601                	bnez	a2,80006254 <__udivdi3+0xdc>
/home/hqfang/workspace/software/riscv-gnu-toolchain/riscv-gcc/libgcc/libgcc2.c:1092
8000624e:	4705                	li	a4,1
80006250:	02c75833          	divu	a6,a4,a2
/home/hqfang/workspace/software/riscv-gnu-toolchain/riscv-gcc/libgcc/libgcc2.c:1094
80006254:	6741                	lui	a4,0x10
80006256:	08e87f63          	bgeu	a6,a4,800062f4 <__udivdi3+0x17c>
8000625a:	0ff00713          	li	a4,255
8000625e:	01077363          	bgeu	a4,a6,80006264 <__udivdi3+0xec>
80006262:	4521                	li	a0,8
80006264:	00a85733          	srl	a4,a6,a0
80006268:	96ba                	add	a3,a3,a4
8000626a:	0006c703          	lbu	a4,0(a3)
8000626e:	02000613          	li	a2,32
80006272:	972a                	add	a4,a4,a0
80006274:	40e606b3          	sub	a3,a2,a4
/home/hqfang/workspace/software/riscv-gnu-toolchain/riscv-gcc/libgcc/libgcc2.c:1096
80006278:	08e61563          	bne	a2,a4,80006302 <__udivdi3+0x18a>
/home/hqfang/workspace/software/riscv-gnu-toolchain/riscv-gcc/libgcc/libgcc2.c:1105
8000627c:	410787b3          	sub	a5,a5,a6
/home/hqfang/workspace/software/riscv-gnu-toolchain/riscv-gcc/libgcc/libgcc2.c:1106
80006280:	4585                	li	a1,1
/home/hqfang/workspace/software/riscv-gnu-toolchain/riscv-gcc/libgcc/libgcc2.c:1124
80006282:	01085893          	srli	a7,a6,0x10
80006286:	01081613          	slli	a2,a6,0x10
8000628a:	8241                	srli	a2,a2,0x10
8000628c:	01035713          	srli	a4,t1,0x10
80006290:	0317f6b3          	remu	a3,a5,a7
80006294:	0317d7b3          	divu	a5,a5,a7
80006298:	06c2                	slli	a3,a3,0x10
8000629a:	8f55                	or	a4,a4,a3
8000629c:	02f60e33          	mul	t3,a2,a5
800062a0:	853e                	mv	a0,a5
800062a2:	01c77c63          	bgeu	a4,t3,800062ba <__udivdi3+0x142>
800062a6:	9742                	add	a4,a4,a6
800062a8:	fff78513          	addi	a0,a5,-1
800062ac:	01076763          	bltu	a4,a6,800062ba <__udivdi3+0x142>
800062b0:	01c77563          	bgeu	a4,t3,800062ba <__udivdi3+0x142>
800062b4:	ffe78513          	addi	a0,a5,-2
800062b8:	9742                	add	a4,a4,a6
800062ba:	41c70733          	sub	a4,a4,t3
800062be:	031777b3          	remu	a5,a4,a7
800062c2:	0342                	slli	t1,t1,0x10
800062c4:	01035313          	srli	t1,t1,0x10
800062c8:	03175733          	divu	a4,a4,a7
800062cc:	07c2                	slli	a5,a5,0x10
800062ce:	0067e333          	or	t1,a5,t1
800062d2:	02e606b3          	mul	a3,a2,a4
800062d6:	863a                	mv	a2,a4
800062d8:	00d37b63          	bgeu	t1,a3,800062ee <__udivdi3+0x176>
800062dc:	9342                	add	t1,t1,a6
800062de:	fff70613          	addi	a2,a4,-1 # ffff <dhry_stubs.c.c3a4eb6e+0xc424>
800062e2:	01036663          	bltu	t1,a6,800062ee <__udivdi3+0x176>
800062e6:	00d37463          	bgeu	t1,a3,800062ee <__udivdi3+0x176>
800062ea:	ffe70613          	addi	a2,a4,-2
800062ee:	0542                	slli	a0,a0,0x10
800062f0:	8d51                	or	a0,a0,a2
__udivdi3():
/home/hqfang/workspace/software/riscv-gnu-toolchain/riscv-gcc/libgcc/libgcc2.c:1321
800062f2:	8082                	ret
__udivmoddi4():
/home/hqfang/workspace/software/riscv-gnu-toolchain/riscv-gcc/libgcc/libgcc2.c:1094
800062f4:	01000737          	lui	a4,0x1000
800062f8:	4541                	li	a0,16
800062fa:	f6e865e3          	bltu	a6,a4,80006264 <__udivdi3+0xec>
800062fe:	4561                	li	a0,24
80006300:	b795                	j	80006264 <__udivdi3+0xec>
/home/hqfang/workspace/software/riscv-gnu-toolchain/riscv-gcc/libgcc/libgcc2.c:1114
80006302:	00d81833          	sll	a6,a6,a3
/home/hqfang/workspace/software/riscv-gnu-toolchain/riscv-gcc/libgcc/libgcc2.c:1115
80006306:	00e7d533          	srl	a0,a5,a4
/home/hqfang/workspace/software/riscv-gnu-toolchain/riscv-gcc/libgcc/libgcc2.c:1117
8000630a:	00d89333          	sll	t1,a7,a3
/home/hqfang/workspace/software/riscv-gnu-toolchain/riscv-gcc/libgcc/libgcc2.c:1116
8000630e:	00d797b3          	sll	a5,a5,a3
80006312:	00e8d733          	srl	a4,a7,a4
/home/hqfang/workspace/software/riscv-gnu-toolchain/riscv-gcc/libgcc/libgcc2.c:1119
80006316:	01085893          	srli	a7,a6,0x10
/home/hqfang/workspace/software/riscv-gnu-toolchain/riscv-gcc/libgcc/libgcc2.c:1116
8000631a:	00f76633          	or	a2,a4,a5
/home/hqfang/workspace/software/riscv-gnu-toolchain/riscv-gcc/libgcc/libgcc2.c:1119
8000631e:	03157733          	remu	a4,a0,a7
80006322:	01081793          	slli	a5,a6,0x10
80006326:	83c1                	srli	a5,a5,0x10
80006328:	01065593          	srli	a1,a2,0x10
8000632c:	03155533          	divu	a0,a0,a7
80006330:	0742                	slli	a4,a4,0x10
80006332:	8f4d                	or	a4,a4,a1
80006334:	02a786b3          	mul	a3,a5,a0
80006338:	85aa                	mv	a1,a0
8000633a:	00d77c63          	bgeu	a4,a3,80006352 <__udivdi3+0x1da>
8000633e:	9742                	add	a4,a4,a6
80006340:	fff50593          	addi	a1,a0,-1 # ffffff <dhry_stubs.c.c3a4eb6e+0xffc424>
80006344:	01076763          	bltu	a4,a6,80006352 <__udivdi3+0x1da>
80006348:	00d77563          	bgeu	a4,a3,80006352 <__udivdi3+0x1da>
8000634c:	ffe50593          	addi	a1,a0,-2
80006350:	9742                	add	a4,a4,a6
80006352:	40d706b3          	sub	a3,a4,a3
80006356:	0316f733          	remu	a4,a3,a7
8000635a:	0642                	slli	a2,a2,0x10
8000635c:	8241                	srli	a2,a2,0x10
8000635e:	0316d6b3          	divu	a3,a3,a7
80006362:	0742                	slli	a4,a4,0x10
80006364:	02d78533          	mul	a0,a5,a3
80006368:	00c767b3          	or	a5,a4,a2
8000636c:	8736                	mv	a4,a3
8000636e:	00a7fc63          	bgeu	a5,a0,80006386 <__udivdi3+0x20e>
80006372:	97c2                	add	a5,a5,a6
80006374:	fff68713          	addi	a4,a3,-1
80006378:	0107e763          	bltu	a5,a6,80006386 <__udivdi3+0x20e>
8000637c:	00a7f563          	bgeu	a5,a0,80006386 <__udivdi3+0x20e>
80006380:	ffe68713          	addi	a4,a3,-2
80006384:	97c2                	add	a5,a5,a6
80006386:	05c2                	slli	a1,a1,0x10
80006388:	8f89                	sub	a5,a5,a0
8000638a:	8dd9                	or	a1,a1,a4
8000638c:	bddd                	j	80006282 <__udivdi3+0x10a>
/home/hqfang/workspace/software/riscv-gnu-toolchain/riscv-gcc/libgcc/libgcc2.c:1140
8000638e:	14d5e263          	bltu	a1,a3,800064d2 <__udivdi3+0x35a>
/home/hqfang/workspace/software/riscv-gnu-toolchain/riscv-gcc/libgcc/libgcc2.c:1159
80006392:	6741                	lui	a4,0x10
80006394:	02e6ff63          	bgeu	a3,a4,800063d2 <__udivdi3+0x25a>
80006398:	0ff00713          	li	a4,255
8000639c:	00d735b3          	sltu	a1,a4,a3
800063a0:	058e                	slli	a1,a1,0x3
800063a2:	00b6d533          	srl	a0,a3,a1
800063a6:	00001717          	auipc	a4,0x1
800063aa:	07670713          	addi	a4,a4,118 # 8000741c <__clz_tab>
800063ae:	972a                	add	a4,a4,a0
800063b0:	00074703          	lbu	a4,0(a4)
800063b4:	02000513          	li	a0,32
800063b8:	972e                	add	a4,a4,a1
800063ba:	40e505b3          	sub	a1,a0,a4
/home/hqfang/workspace/software/riscv-gnu-toolchain/riscv-gcc/libgcc/libgcc2.c:1160
800063be:	02e51163          	bne	a0,a4,800063e0 <__udivdi3+0x268>
/home/hqfang/workspace/software/riscv-gnu-toolchain/riscv-gcc/libgcc/libgcc2.c:1172
800063c2:	4505                	li	a0,1
/home/hqfang/workspace/software/riscv-gnu-toolchain/riscv-gcc/libgcc/libgcc2.c:1170
800063c4:	f2f6e7e3          	bltu	a3,a5,800062f2 <__udivdi3+0x17a>
800063c8:	00c8b533          	sltu	a0,a7,a2
800063cc:	00154513          	xori	a0,a0,1
800063d0:	b70d                	j	800062f2 <__udivdi3+0x17a>
/home/hqfang/workspace/software/riscv-gnu-toolchain/riscv-gcc/libgcc/libgcc2.c:1159
800063d2:	01000737          	lui	a4,0x1000
800063d6:	45c1                	li	a1,16
800063d8:	fce6e5e3          	bltu	a3,a4,800063a2 <__udivdi3+0x22a>
800063dc:	45e1                	li	a1,24
800063de:	b7d1                	j	800063a2 <__udivdi3+0x22a>
/home/hqfang/workspace/software/riscv-gnu-toolchain/riscv-gcc/libgcc/libgcc2.c:1194
800063e0:	00e65833          	srl	a6,a2,a4
800063e4:	00b696b3          	sll	a3,a3,a1
800063e8:	00d86833          	or	a6,a6,a3
/home/hqfang/workspace/software/riscv-gnu-toolchain/riscv-gcc/libgcc/libgcc2.c:1196
800063ec:	00e7d333          	srl	t1,a5,a4
/home/hqfang/workspace/software/riscv-gnu-toolchain/riscv-gcc/libgcc/libgcc2.c:1200
800063f0:	01085e93          	srli	t4,a6,0x10
800063f4:	03d376b3          	remu	a3,t1,t4
/home/hqfang/workspace/software/riscv-gnu-toolchain/riscv-gcc/libgcc/libgcc2.c:1197
800063f8:	00b797b3          	sll	a5,a5,a1
800063fc:	00e8d733          	srl	a4,a7,a4
/home/hqfang/workspace/software/riscv-gnu-toolchain/riscv-gcc/libgcc/libgcc2.c:1195
80006400:	00b61e33          	sll	t3,a2,a1
/home/hqfang/workspace/software/riscv-gnu-toolchain/riscv-gcc/libgcc/libgcc2.c:1197
80006404:	00f76633          	or	a2,a4,a5
/home/hqfang/workspace/software/riscv-gnu-toolchain/riscv-gcc/libgcc/libgcc2.c:1200
80006408:	01081793          	slli	a5,a6,0x10
8000640c:	83c1                	srli	a5,a5,0x10
8000640e:	01065713          	srli	a4,a2,0x10
80006412:	03d35333          	divu	t1,t1,t4
80006416:	06c2                	slli	a3,a3,0x10
80006418:	8f55                	or	a4,a4,a3
8000641a:	02678f33          	mul	t5,a5,t1
8000641e:	851a                	mv	a0,t1
80006420:	01e77c63          	bgeu	a4,t5,80006438 <__udivdi3+0x2c0>
80006424:	9742                	add	a4,a4,a6
80006426:	fff30513          	addi	a0,t1,-1 # ffff <dhry_stubs.c.c3a4eb6e+0xc424>
8000642a:	01076763          	bltu	a4,a6,80006438 <__udivdi3+0x2c0>
8000642e:	01e77563          	bgeu	a4,t5,80006438 <__udivdi3+0x2c0>
80006432:	ffe30513          	addi	a0,t1,-2
80006436:	9742                	add	a4,a4,a6
80006438:	41e70733          	sub	a4,a4,t5
8000643c:	03d776b3          	remu	a3,a4,t4
80006440:	03d75733          	divu	a4,a4,t4
80006444:	06c2                	slli	a3,a3,0x10
80006446:	02e78333          	mul	t1,a5,a4
8000644a:	01061793          	slli	a5,a2,0x10
8000644e:	83c1                	srli	a5,a5,0x10
80006450:	8fd5                	or	a5,a5,a3
80006452:	863a                	mv	a2,a4
80006454:	0067fc63          	bgeu	a5,t1,8000646c <__udivdi3+0x2f4>
80006458:	97c2                	add	a5,a5,a6
8000645a:	fff70613          	addi	a2,a4,-1 # ffffff <dhry_stubs.c.c3a4eb6e+0xffc424>
8000645e:	0107e763          	bltu	a5,a6,8000646c <__udivdi3+0x2f4>
80006462:	0067f563          	bgeu	a5,t1,8000646c <__udivdi3+0x2f4>
80006466:	ffe70613          	addi	a2,a4,-2
8000646a:	97c2                	add	a5,a5,a6
8000646c:	0542                	slli	a0,a0,0x10
/home/hqfang/workspace/software/riscv-gnu-toolchain/riscv-gcc/libgcc/libgcc2.c:1201
8000646e:	6ec1                	lui	t4,0x10
/home/hqfang/workspace/software/riscv-gnu-toolchain/riscv-gcc/libgcc/libgcc2.c:1200
80006470:	8d51                	or	a0,a0,a2
/home/hqfang/workspace/software/riscv-gnu-toolchain/riscv-gcc/libgcc/libgcc2.c:1201
80006472:	fffe8693          	addi	a3,t4,-1 # ffff <dhry_stubs.c.c3a4eb6e+0xc424>
80006476:	010e5613          	srli	a2,t3,0x10
8000647a:	01055813          	srli	a6,a0,0x10
/home/hqfang/workspace/software/riscv-gnu-toolchain/riscv-gcc/libgcc/libgcc2.c:1200
8000647e:	406787b3          	sub	a5,a5,t1
/home/hqfang/workspace/software/riscv-gnu-toolchain/riscv-gcc/libgcc/libgcc2.c:1201
80006482:	00d57333          	and	t1,a0,a3
80006486:	00de76b3          	and	a3,t3,a3
8000648a:	02d30e33          	mul	t3,t1,a3
8000648e:	02d806b3          	mul	a3,a6,a3
80006492:	010e5713          	srli	a4,t3,0x10
80006496:	02c30333          	mul	t1,t1,a2
8000649a:	9336                	add	t1,t1,a3
8000649c:	971a                	add	a4,a4,t1
8000649e:	02c80833          	mul	a6,a6,a2
800064a2:	00d77363          	bgeu	a4,a3,800064a8 <__udivdi3+0x330>
800064a6:	9876                	add	a6,a6,t4
800064a8:	01075693          	srli	a3,a4,0x10
800064ac:	9836                	add	a6,a6,a3
/home/hqfang/workspace/software/riscv-gnu-toolchain/riscv-gcc/libgcc/libgcc2.c:1203
800064ae:	0307e063          	bltu	a5,a6,800064ce <__udivdi3+0x356>
800064b2:	d90794e3          	bne	a5,a6,8000623a <__udivdi3+0xc2>
/home/hqfang/workspace/software/riscv-gnu-toolchain/riscv-gcc/libgcc/libgcc2.c:1201
800064b6:	67c1                	lui	a5,0x10
800064b8:	17fd                	addi	a5,a5,-1
800064ba:	8f7d                	and	a4,a4,a5
800064bc:	0742                	slli	a4,a4,0x10
800064be:	00fe7e33          	and	t3,t3,a5
/home/hqfang/workspace/software/riscv-gnu-toolchain/riscv-gcc/libgcc/libgcc2.c:1198
800064c2:	00b898b3          	sll	a7,a7,a1
/home/hqfang/workspace/software/riscv-gnu-toolchain/riscv-gcc/libgcc/libgcc2.c:1201
800064c6:	9772                	add	a4,a4,t3
/home/hqfang/workspace/software/riscv-gnu-toolchain/riscv-gcc/libgcc/libgcc2.c:1209
800064c8:	4581                	li	a1,0
/home/hqfang/workspace/software/riscv-gnu-toolchain/riscv-gcc/libgcc/libgcc2.c:1203
800064ca:	e2e8f4e3          	bgeu	a7,a4,800062f2 <__udivdi3+0x17a>
/home/hqfang/workspace/software/riscv-gnu-toolchain/riscv-gcc/libgcc/libgcc2.c:1205
800064ce:	157d                	addi	a0,a0,-1
__udivdi3():
/home/hqfang/workspace/software/riscv-gnu-toolchain/riscv-gcc/libgcc/libgcc2.c:1206
800064d0:	b3ad                	j	8000623a <__udivdi3+0xc2>
__udivmoddi4():
/home/hqfang/workspace/software/riscv-gnu-toolchain/riscv-gcc/libgcc/libgcc2.c:1145
800064d2:	4581                	li	a1,0
/home/hqfang/workspace/software/riscv-gnu-toolchain/riscv-gcc/libgcc/libgcc2.c:1144
800064d4:	4501                	li	a0,0
800064d6:	bd31                	j	800062f2 <__udivdi3+0x17a>

800064d8 <__divsf3>:
__divsf3():
/home/hqfang/workspace/software/riscv-gnu-toolchain/riscv-gcc/libgcc/soft-fp/divsf3.c:36
800064d8:	1101                	addi	sp,sp,-32
800064da:	ca26                	sw	s1,20(sp)
800064dc:	01755493          	srli	s1,a0,0x17
800064e0:	c84a                	sw	s2,16(sp)
800064e2:	c64e                	sw	s3,12(sp)
800064e4:	c452                	sw	s4,8(sp)
/home/hqfang/workspace/software/riscv-gnu-toolchain/riscv-gcc/libgcc/soft-fp/divsf3.c:44
800064e6:	00951993          	slli	s3,a0,0x9
/home/hqfang/workspace/software/riscv-gnu-toolchain/riscv-gcc/libgcc/soft-fp/divsf3.c:36
800064ea:	ce06                	sw	ra,28(sp)
800064ec:	cc22                	sw	s0,24(sp)
800064ee:	c256                	sw	s5,4(sp)
800064f0:	0ff4f493          	andi	s1,s1,255
800064f4:	8a2e                	mv	s4,a1
/home/hqfang/workspace/software/riscv-gnu-toolchain/riscv-gcc/libgcc/soft-fp/divsf3.c:44
800064f6:	0099d993          	srli	s3,s3,0x9
800064fa:	01f55913          	srli	s2,a0,0x1f
800064fe:	c4b5                	beqz	s1,8000656a <__divsf3+0x92>
80006500:	0ff00793          	li	a5,255
80006504:	08f48063          	beq	s1,a5,80006584 <__divsf3+0xac>
/home/hqfang/workspace/software/riscv-gnu-toolchain/riscv-gcc/libgcc/soft-fp/divsf3.c:44 (discriminator 1)
80006508:	098e                	slli	s3,s3,0x3
8000650a:	040007b7          	lui	a5,0x4000
8000650e:	00f9e9b3          	or	s3,s3,a5
80006512:	f8148493          	addi	s1,s1,-127 # 7ff81 <dhry_stubs.c.c3a4eb6e+0x7c3a6>
/home/hqfang/workspace/software/riscv-gnu-toolchain/riscv-gcc/libgcc/soft-fp/divsf3.c:44 (discriminator 15)
80006516:	4a81                	li	s5,0
/home/hqfang/workspace/software/riscv-gnu-toolchain/riscv-gcc/libgcc/soft-fp/divsf3.c:45 (discriminator 8)
80006518:	017a5513          	srli	a0,s4,0x17
8000651c:	009a1413          	slli	s0,s4,0x9
80006520:	0ff57513          	andi	a0,a0,255
80006524:	8025                	srli	s0,s0,0x9
80006526:	01fa5a13          	srli	s4,s4,0x1f
8000652a:	c53d                	beqz	a0,80006598 <__divsf3+0xc0>
/home/hqfang/workspace/software/riscv-gnu-toolchain/riscv-gcc/libgcc/soft-fp/divsf3.c:45
8000652c:	0ff00793          	li	a5,255
80006530:	08f50163          	beq	a0,a5,800065b2 <__divsf3+0xda>
/home/hqfang/workspace/software/riscv-gnu-toolchain/riscv-gcc/libgcc/soft-fp/divsf3.c:45 (discriminator 1)
80006534:	040e                	slli	s0,s0,0x3
80006536:	040007b7          	lui	a5,0x4000
8000653a:	8c5d                	or	s0,s0,a5
8000653c:	f8150513          	addi	a0,a0,-127
/home/hqfang/workspace/software/riscv-gnu-toolchain/riscv-gcc/libgcc/soft-fp/divsf3.c:45 (discriminator 15)
80006540:	4781                	li	a5,0
/home/hqfang/workspace/software/riscv-gnu-toolchain/riscv-gcc/libgcc/soft-fp/divsf3.c:46 (discriminator 8)
80006542:	002a9693          	slli	a3,s5,0x2
80006546:	8edd                	or	a3,a3,a5
80006548:	16fd                	addi	a3,a3,-1
8000654a:	4739                	li	a4,14
8000654c:	01494633          	xor	a2,s2,s4
80006550:	40a48533          	sub	a0,s1,a0
80006554:	06d76863          	bltu	a4,a3,800065c4 <__divsf3+0xec>
80006558:	00001597          	auipc	a1,0x1
8000655c:	fc458593          	addi	a1,a1,-60 # 8000751c <__clz_tab+0x100>
80006560:	068a                	slli	a3,a3,0x2
80006562:	96ae                	add	a3,a3,a1
80006564:	4298                	lw	a4,0(a3)
80006566:	972e                	add	a4,a4,a1
80006568:	8702                	jr	a4
/home/hqfang/workspace/software/riscv-gnu-toolchain/riscv-gcc/libgcc/soft-fp/divsf3.c:44 (discriminator 2)
8000656a:	02098463          	beqz	s3,80006592 <__divsf3+0xba>
/home/hqfang/workspace/software/riscv-gnu-toolchain/riscv-gcc/libgcc/soft-fp/divsf3.c:44 (discriminator 15)
8000656e:	854e                	mv	a0,s3
80006570:	bcdff0ef          	jal	ra,8000613c <__clzsi2>
80006574:	ffb50793          	addi	a5,a0,-5
80006578:	f8a00493          	li	s1,-118
8000657c:	00f999b3          	sll	s3,s3,a5
80006580:	8c89                	sub	s1,s1,a0
80006582:	bf51                	j	80006516 <__divsf3+0x3e>
/home/hqfang/workspace/software/riscv-gnu-toolchain/riscv-gcc/libgcc/soft-fp/divsf3.c:44 (discriminator 3)
80006584:	0ff00493          	li	s1,255
80006588:	4a89                	li	s5,2
8000658a:	f80987e3          	beqz	s3,80006518 <__divsf3+0x40>
/home/hqfang/workspace/software/riscv-gnu-toolchain/riscv-gcc/libgcc/soft-fp/divsf3.c:44
8000658e:	4a8d                	li	s5,3
80006590:	b761                	j	80006518 <__divsf3+0x40>
80006592:	4481                	li	s1,0
80006594:	4a85                	li	s5,1
80006596:	b749                	j	80006518 <__divsf3+0x40>
/home/hqfang/workspace/software/riscv-gnu-toolchain/riscv-gcc/libgcc/soft-fp/divsf3.c:45 (discriminator 2)
80006598:	c01d                	beqz	s0,800065be <__divsf3+0xe6>
/home/hqfang/workspace/software/riscv-gnu-toolchain/riscv-gcc/libgcc/soft-fp/divsf3.c:45 (discriminator 15)
8000659a:	8522                	mv	a0,s0
8000659c:	ba1ff0ef          	jal	ra,8000613c <__clzsi2>
800065a0:	ffb50793          	addi	a5,a0,-5
800065a4:	00f41433          	sll	s0,s0,a5
800065a8:	f8a00793          	li	a5,-118
800065ac:	40a78533          	sub	a0,a5,a0
800065b0:	bf41                	j	80006540 <__divsf3+0x68>
/home/hqfang/workspace/software/riscv-gnu-toolchain/riscv-gcc/libgcc/soft-fp/divsf3.c:45 (discriminator 3)
800065b2:	0ff00513          	li	a0,255
800065b6:	4789                	li	a5,2
800065b8:	d449                	beqz	s0,80006542 <__divsf3+0x6a>
/home/hqfang/workspace/software/riscv-gnu-toolchain/riscv-gcc/libgcc/soft-fp/divsf3.c:45
800065ba:	478d                	li	a5,3
800065bc:	b759                	j	80006542 <__divsf3+0x6a>
800065be:	4501                	li	a0,0
800065c0:	4785                	li	a5,1
800065c2:	b741                	j	80006542 <__divsf3+0x6a>
/home/hqfang/workspace/software/riscv-gnu-toolchain/riscv-gcc/libgcc/soft-fp/divsf3.c:46 (discriminator 2)
800065c4:	00541813          	slli	a6,s0,0x5
800065c8:	0c89fe63          	bgeu	s3,s0,800066a4 <__divsf3+0x1cc>
/home/hqfang/workspace/software/riscv-gnu-toolchain/riscv-gcc/libgcc/soft-fp/divsf3.c:46 (discriminator 10)
800065cc:	157d                	addi	a0,a0,-1
800065ce:	4681                	li	a3,0
/home/hqfang/workspace/software/riscv-gnu-toolchain/riscv-gcc/libgcc/soft-fp/divsf3.c:46 (discriminator 13)
800065d0:	01085413          	srli	s0,a6,0x10
800065d4:	0289d333          	divu	t1,s3,s0
800065d8:	67c1                	lui	a5,0x10
800065da:	17fd                	addi	a5,a5,-1
800065dc:	00f877b3          	and	a5,a6,a5
800065e0:	82c1                	srli	a3,a3,0x10
800065e2:	0289f733          	remu	a4,s3,s0
800065e6:	859a                	mv	a1,t1
800065e8:	026788b3          	mul	a7,a5,t1
800065ec:	0742                	slli	a4,a4,0x10
800065ee:	8f55                	or	a4,a4,a3
800065f0:	01177c63          	bgeu	a4,a7,80006608 <__divsf3+0x130>
/home/hqfang/workspace/software/riscv-gnu-toolchain/riscv-gcc/libgcc/soft-fp/divsf3.c:46 (discriminator 14)
800065f4:	9742                	add	a4,a4,a6
800065f6:	fff30593          	addi	a1,t1,-1
800065fa:	01076763          	bltu	a4,a6,80006608 <__divsf3+0x130>
/home/hqfang/workspace/software/riscv-gnu-toolchain/riscv-gcc/libgcc/soft-fp/divsf3.c:46 (discriminator 16)
800065fe:	01177563          	bgeu	a4,a7,80006608 <__divsf3+0x130>
/home/hqfang/workspace/software/riscv-gnu-toolchain/riscv-gcc/libgcc/soft-fp/divsf3.c:46 (discriminator 18)
80006602:	ffe30593          	addi	a1,t1,-2
80006606:	9742                	add	a4,a4,a6
/home/hqfang/workspace/software/riscv-gnu-toolchain/riscv-gcc/libgcc/soft-fp/divsf3.c:46 (discriminator 20)
80006608:	41170733          	sub	a4,a4,a7
8000660c:	028758b3          	divu	a7,a4,s0
80006610:	02877733          	remu	a4,a4,s0
80006614:	031786b3          	mul	a3,a5,a7
80006618:	01071793          	slli	a5,a4,0x10
8000661c:	8746                	mv	a4,a7
8000661e:	00d7fc63          	bgeu	a5,a3,80006636 <__divsf3+0x15e>
/home/hqfang/workspace/software/riscv-gnu-toolchain/riscv-gcc/libgcc/soft-fp/divsf3.c:46 (discriminator 21)
80006622:	97c2                	add	a5,a5,a6
80006624:	fff88713          	addi	a4,a7,-1 # 7ffff <dhry_stubs.c.c3a4eb6e+0x7c424>
80006628:	0107e763          	bltu	a5,a6,80006636 <__divsf3+0x15e>
/home/hqfang/workspace/software/riscv-gnu-toolchain/riscv-gcc/libgcc/soft-fp/divsf3.c:46 (discriminator 23)
8000662c:	00d7f563          	bgeu	a5,a3,80006636 <__divsf3+0x15e>
/home/hqfang/workspace/software/riscv-gnu-toolchain/riscv-gcc/libgcc/soft-fp/divsf3.c:46 (discriminator 25)
80006630:	ffe88713          	addi	a4,a7,-2
80006634:	97c2                	add	a5,a5,a6
/home/hqfang/workspace/software/riscv-gnu-toolchain/riscv-gcc/libgcc/soft-fp/divsf3.c:46 (discriminator 27)
80006636:	01059413          	slli	s0,a1,0x10
8000663a:	8f95                	sub	a5,a5,a3
8000663c:	8c59                	or	s0,s0,a4
8000663e:	00f037b3          	snez	a5,a5
80006642:	8c5d                	or	s0,s0,a5
/home/hqfang/workspace/software/riscv-gnu-toolchain/riscv-gcc/libgcc/soft-fp/divsf3.c:47 (discriminator 2)
80006644:	07f50713          	addi	a4,a0,127
80006648:	08e05a63          	blez	a4,800066dc <__divsf3+0x204>
/home/hqfang/workspace/software/riscv-gnu-toolchain/riscv-gcc/libgcc/soft-fp/divsf3.c:47 (discriminator 6)
8000664c:	00747793          	andi	a5,s0,7
80006650:	c799                	beqz	a5,8000665e <__divsf3+0x186>
/home/hqfang/workspace/software/riscv-gnu-toolchain/riscv-gcc/libgcc/soft-fp/divsf3.c:47 (discriminator 8)
80006652:	00f47793          	andi	a5,s0,15
80006656:	4691                	li	a3,4
80006658:	00d78363          	beq	a5,a3,8000665e <__divsf3+0x186>
/home/hqfang/workspace/software/riscv-gnu-toolchain/riscv-gcc/libgcc/soft-fp/divsf3.c:47 (discriminator 10)
8000665c:	0411                	addi	s0,s0,4
/home/hqfang/workspace/software/riscv-gnu-toolchain/riscv-gcc/libgcc/soft-fp/divsf3.c:47 (discriminator 9)
8000665e:	080007b7          	lui	a5,0x8000
80006662:	8fe1                	and	a5,a5,s0
80006664:	c799                	beqz	a5,80006672 <__divsf3+0x19a>
/home/hqfang/workspace/software/riscv-gnu-toolchain/riscv-gcc/libgcc/soft-fp/divsf3.c:47 (discriminator 24)
80006666:	f80007b7          	lui	a5,0xf8000
8000666a:	17fd                	addi	a5,a5,-1
8000666c:	8c7d                	and	s0,s0,a5
8000666e:	08050713          	addi	a4,a0,128
/home/hqfang/workspace/software/riscv-gnu-toolchain/riscv-gcc/libgcc/soft-fp/divsf3.c:47 (discriminator 26)
80006672:	0fe00793          	li	a5,254
80006676:	800d                	srli	s0,s0,0x3
80006678:	04e7c763          	blt	a5,a4,800066c6 <__divsf3+0x1ee>
/home/hqfang/workspace/software/riscv-gnu-toolchain/riscv-gcc/libgcc/soft-fp/divsf3.c:47 (discriminator 111)
8000667c:	01771793          	slli	a5,a4,0x17
80006680:	0426                	slli	s0,s0,0x9
80006682:	7f800737          	lui	a4,0x7f800
80006686:	8ff9                	and	a5,a5,a4
80006688:	8025                	srli	s0,s0,0x9
8000668a:	8c5d                	or	s0,s0,a5
8000668c:	01f61513          	slli	a0,a2,0x1f
/home/hqfang/workspace/software/riscv-gnu-toolchain/riscv-gcc/libgcc/soft-fp/divsf3.c:51 (discriminator 111)
80006690:	40f2                	lw	ra,28(sp)
80006692:	8d41                	or	a0,a0,s0
80006694:	4462                	lw	s0,24(sp)
80006696:	44d2                	lw	s1,20(sp)
80006698:	4942                	lw	s2,16(sp)
8000669a:	49b2                	lw	s3,12(sp)
8000669c:	4a22                	lw	s4,8(sp)
8000669e:	4a92                	lw	s5,4(sp)
800066a0:	6105                	addi	sp,sp,32
800066a2:	8082                	ret
/home/hqfang/workspace/software/riscv-gnu-toolchain/riscv-gcc/libgcc/soft-fp/divsf3.c:46 (discriminator 11)
800066a4:	01f99693          	slli	a3,s3,0x1f
800066a8:	0019d993          	srli	s3,s3,0x1
800066ac:	b715                	j	800065d0 <__divsf3+0xf8>
/home/hqfang/workspace/software/riscv-gnu-toolchain/riscv-gcc/libgcc/soft-fp/divsf3.c:44 (discriminator 8)
800066ae:	864a                	mv	a2,s2
/home/hqfang/workspace/software/riscv-gnu-toolchain/riscv-gcc/libgcc/soft-fp/divsf3.c:46 (discriminator 8)
800066b0:	844e                	mv	s0,s3
800066b2:	87d6                	mv	a5,s5
/home/hqfang/workspace/software/riscv-gnu-toolchain/riscv-gcc/libgcc/soft-fp/divsf3.c:47 (discriminator 35)
800066b4:	470d                	li	a4,3
800066b6:	06e78263          	beq	a5,a4,8000671a <__divsf3+0x242>
/home/hqfang/workspace/software/riscv-gnu-toolchain/riscv-gcc/libgcc/soft-fp/divsf3.c:47
800066ba:	4705                	li	a4,1
800066bc:	06e78563          	beq	a5,a4,80006726 <__divsf3+0x24e>
800066c0:	4709                	li	a4,2
800066c2:	f8e791e3          	bne	a5,a4,80006644 <__divsf3+0x16c>
800066c6:	4401                	li	s0,0
800066c8:	0ff00713          	li	a4,255
800066cc:	bf45                	j	8000667c <__divsf3+0x1a4>
/home/hqfang/workspace/software/riscv-gnu-toolchain/riscv-gcc/libgcc/soft-fp/divsf3.c:45 (discriminator 5)
800066ce:	8652                	mv	a2,s4
/home/hqfang/workspace/software/riscv-gnu-toolchain/riscv-gcc/libgcc/soft-fp/divsf3.c:46 (discriminator 5)
800066d0:	b7d5                	j	800066b4 <__divsf3+0x1dc>
/home/hqfang/workspace/software/riscv-gnu-toolchain/riscv-gcc/libgcc/soft-fp/divsf3.c:46
800066d2:	00400437          	lui	s0,0x400
800066d6:	4601                	li	a2,0
800066d8:	478d                	li	a5,3
800066da:	bfe9                	j	800066b4 <__divsf3+0x1dc>
/home/hqfang/workspace/software/riscv-gnu-toolchain/riscv-gcc/libgcc/soft-fp/divsf3.c:47 (discriminator 59)
800066dc:	4785                	li	a5,1
800066de:	8f99                	sub	a5,a5,a4
800066e0:	476d                	li	a4,27
800066e2:	04f74263          	blt	a4,a5,80006726 <__divsf3+0x24e>
/home/hqfang/workspace/software/riscv-gnu-toolchain/riscv-gcc/libgcc/soft-fp/divsf3.c:47 (discriminator 60)
800066e6:	09e50513          	addi	a0,a0,158
800066ea:	00f457b3          	srl	a5,s0,a5
800066ee:	00a41433          	sll	s0,s0,a0
800066f2:	00803433          	snez	s0,s0
800066f6:	8c5d                	or	s0,s0,a5
800066f8:	00747793          	andi	a5,s0,7
800066fc:	c799                	beqz	a5,8000670a <__divsf3+0x232>
/home/hqfang/workspace/software/riscv-gnu-toolchain/riscv-gcc/libgcc/soft-fp/divsf3.c:47 (discriminator 68)
800066fe:	00f47793          	andi	a5,s0,15
80006702:	4711                	li	a4,4
80006704:	00e78363          	beq	a5,a4,8000670a <__divsf3+0x232>
/home/hqfang/workspace/software/riscv-gnu-toolchain/riscv-gcc/libgcc/soft-fp/divsf3.c:47 (discriminator 70)
80006708:	0411                	addi	s0,s0,4
/home/hqfang/workspace/software/riscv-gnu-toolchain/riscv-gcc/libgcc/soft-fp/divsf3.c:47 (discriminator 69)
8000670a:	040007b7          	lui	a5,0x4000
8000670e:	8fe1                	and	a5,a5,s0
80006710:	800d                	srli	s0,s0,0x3
80006712:	cb99                	beqz	a5,80006728 <__divsf3+0x250>
/home/hqfang/workspace/software/riscv-gnu-toolchain/riscv-gcc/libgcc/soft-fp/divsf3.c:47
80006714:	4401                	li	s0,0
80006716:	4705                	li	a4,1
80006718:	b795                	j	8000667c <__divsf3+0x1a4>
8000671a:	00400437          	lui	s0,0x400
8000671e:	0ff00713          	li	a4,255
80006722:	4601                	li	a2,0
80006724:	bfa1                	j	8000667c <__divsf3+0x1a4>
80006726:	4401                	li	s0,0
80006728:	4701                	li	a4,0
8000672a:	bf89                	j	8000667c <__divsf3+0x1a4>

8000672c <__floatsisf>:
__floatsisf():
/home/hqfang/workspace/software/riscv-gnu-toolchain/riscv-gcc/libgcc/soft-fp/floatsisf.c:36
8000672c:	1141                	addi	sp,sp,-16
8000672e:	c606                	sw	ra,12(sp)
80006730:	c422                	sw	s0,8(sp)
80006732:	c226                	sw	s1,4(sp)
/home/hqfang/workspace/software/riscv-gnu-toolchain/riscv-gcc/libgcc/soft-fp/floatsisf.c:42
80006734:	c55d                	beqz	a0,800067e2 <__floatsisf+0xb6>
/home/hqfang/workspace/software/riscv-gnu-toolchain/riscv-gcc/libgcc/soft-fp/floatsisf.c:42 (discriminator 1)
80006736:	41f55793          	srai	a5,a0,0x1f
8000673a:	00a7c433          	xor	s0,a5,a0
8000673e:	8c1d                	sub	s0,s0,a5
80006740:	01f55493          	srli	s1,a0,0x1f
80006744:	8522                	mv	a0,s0
80006746:	9f7ff0ef          	jal	ra,8000613c <__clzsi2>
8000674a:	09e00793          	li	a5,158
8000674e:	872a                	mv	a4,a0
80006750:	40a78533          	sub	a0,a5,a0
80006754:	09600793          	li	a5,150
80006758:	02a7c463          	blt	a5,a0,80006780 <__floatsisf+0x54>
/home/hqfang/workspace/software/riscv-gnu-toolchain/riscv-gcc/libgcc/soft-fp/floatsisf.c:42 (discriminator 28)
8000675c:	47a1                	li	a5,8
8000675e:	00e7d563          	bge	a5,a4,80006768 <__floatsisf+0x3c>
/home/hqfang/workspace/software/riscv-gnu-toolchain/riscv-gcc/libgcc/soft-fp/floatsisf.c:42 (discriminator 35)
80006762:	1761                	addi	a4,a4,-8
80006764:	00e41433          	sll	s0,s0,a4
/home/hqfang/workspace/software/riscv-gnu-toolchain/riscv-gcc/libgcc/soft-fp/floatsisf.c:43 (discriminator 140)
80006768:	0426                	slli	s0,s0,0x9
8000676a:	055e                	slli	a0,a0,0x17
8000676c:	8025                	srli	s0,s0,0x9
8000676e:	8c49                	or	s0,s0,a0
80006770:	01f49513          	slli	a0,s1,0x1f
/home/hqfang/workspace/software/riscv-gnu-toolchain/riscv-gcc/libgcc/soft-fp/floatsisf.c:47 (discriminator 140)
80006774:	40b2                	lw	ra,12(sp)
80006776:	8d41                	or	a0,a0,s0
80006778:	4422                	lw	s0,8(sp)
8000677a:	4492                	lw	s1,4(sp)
8000677c:	0141                	addi	sp,sp,16
8000677e:	8082                	ret
/home/hqfang/workspace/software/riscv-gnu-toolchain/riscv-gcc/libgcc/soft-fp/floatsisf.c:42 (discriminator 29)
80006780:	09900793          	li	a5,153
80006784:	00a7dd63          	bge	a5,a0,8000679e <__floatsisf+0x72>
/home/hqfang/workspace/software/riscv-gnu-toolchain/riscv-gcc/libgcc/soft-fp/floatsisf.c:42 (discriminator 38)
80006788:	4795                	li	a5,5
8000678a:	8f99                	sub	a5,a5,a4
8000678c:	01b70693          	addi	a3,a4,27 # 7f80001b <dhry_stubs.c.c3a4eb6e+0x7f7fc440>
80006790:	00f457b3          	srl	a5,s0,a5
80006794:	00d41433          	sll	s0,s0,a3
80006798:	00803433          	snez	s0,s0
8000679c:	8c5d                	or	s0,s0,a5
/home/hqfang/workspace/software/riscv-gnu-toolchain/riscv-gcc/libgcc/soft-fp/floatsisf.c:42 (discriminator 40)
8000679e:	4795                	li	a5,5
800067a0:	00e7d663          	bge	a5,a4,800067ac <__floatsisf+0x80>
/home/hqfang/workspace/software/riscv-gnu-toolchain/riscv-gcc/libgcc/soft-fp/floatsisf.c:42 (discriminator 46)
800067a4:	ffb70793          	addi	a5,a4,-5
800067a8:	00f41433          	sll	s0,s0,a5
/home/hqfang/workspace/software/riscv-gnu-toolchain/riscv-gcc/libgcc/soft-fp/floatsisf.c:42 (discriminator 48)
800067ac:	fc0006b7          	lui	a3,0xfc000
800067b0:	16fd                	addi	a3,a3,-1
800067b2:	00747793          	andi	a5,s0,7
800067b6:	8ee1                	and	a3,a3,s0
800067b8:	c791                	beqz	a5,800067c4 <__floatsisf+0x98>
/home/hqfang/workspace/software/riscv-gnu-toolchain/riscv-gcc/libgcc/soft-fp/floatsisf.c:42 (discriminator 89)
800067ba:	883d                	andi	s0,s0,15
800067bc:	4791                	li	a5,4
800067be:	00f40363          	beq	s0,a5,800067c4 <__floatsisf+0x98>
/home/hqfang/workspace/software/riscv-gnu-toolchain/riscv-gcc/libgcc/soft-fp/floatsisf.c:42 (discriminator 93)
800067c2:	0691                	addi	a3,a3,4
/home/hqfang/workspace/software/riscv-gnu-toolchain/riscv-gcc/libgcc/soft-fp/floatsisf.c:42 (discriminator 96)
800067c4:	040007b7          	lui	a5,0x4000
800067c8:	8ff5                	and	a5,a5,a3
800067ca:	cb89                	beqz	a5,800067dc <__floatsisf+0xb0>
/home/hqfang/workspace/software/riscv-gnu-toolchain/riscv-gcc/libgcc/soft-fp/floatsisf.c:42 (discriminator 112)
800067cc:	fc0007b7          	lui	a5,0xfc000
800067d0:	17fd                	addi	a5,a5,-1
800067d2:	8efd                	and	a3,a3,a5
800067d4:	09f00793          	li	a5,159
800067d8:	40e78533          	sub	a0,a5,a4
/home/hqfang/workspace/software/riscv-gnu-toolchain/riscv-gcc/libgcc/soft-fp/floatsisf.c:42 (discriminator 128)
800067dc:	0036d413          	srli	s0,a3,0x3
800067e0:	b761                	j	80006768 <__floatsisf+0x3c>
/home/hqfang/workspace/software/riscv-gnu-toolchain/riscv-gcc/libgcc/soft-fp/floatsisf.c:42
800067e2:	4481                	li	s1,0
800067e4:	4401                	li	s0,0
800067e6:	b749                	j	80006768 <__floatsisf+0x3c>

800067e8 <__extendsfdf2>:
__extendsfdf2():
/home/hqfang/workspace/software/riscv-gnu-toolchain/riscv-gcc/libgcc/soft-fp/extendsfdf2.c:45
800067e8:	01755713          	srli	a4,a0,0x17
800067ec:	0ff77713          	andi	a4,a4,255
/home/hqfang/workspace/software/riscv-gnu-toolchain/riscv-gcc/libgcc/soft-fp/extendsfdf2.c:38
800067f0:	1141                	addi	sp,sp,-16
/home/hqfang/workspace/software/riscv-gnu-toolchain/riscv-gcc/libgcc/soft-fp/extendsfdf2.c:47
800067f2:	00170793          	addi	a5,a4,1
/home/hqfang/workspace/software/riscv-gnu-toolchain/riscv-gcc/libgcc/soft-fp/extendsfdf2.c:38
800067f6:	c422                	sw	s0,8(sp)
800067f8:	c226                	sw	s1,4(sp)
/home/hqfang/workspace/software/riscv-gnu-toolchain/riscv-gcc/libgcc/soft-fp/extendsfdf2.c:45
800067fa:	00951413          	slli	s0,a0,0x9
/home/hqfang/workspace/software/riscv-gnu-toolchain/riscv-gcc/libgcc/soft-fp/extendsfdf2.c:38
800067fe:	c606                	sw	ra,12(sp)
/home/hqfang/workspace/software/riscv-gnu-toolchain/riscv-gcc/libgcc/soft-fp/extendsfdf2.c:47
80006800:	0fe7f793          	andi	a5,a5,254
/home/hqfang/workspace/software/riscv-gnu-toolchain/riscv-gcc/libgcc/soft-fp/extendsfdf2.c:45
80006804:	8025                	srli	s0,s0,0x9
80006806:	01f55493          	srli	s1,a0,0x1f
/home/hqfang/workspace/software/riscv-gnu-toolchain/riscv-gcc/libgcc/soft-fp/extendsfdf2.c:47
8000680a:	c78d                	beqz	a5,80006834 <__extendsfdf2+0x4c>
/home/hqfang/workspace/software/riscv-gnu-toolchain/riscv-gcc/libgcc/soft-fp/extendsfdf2.c:47 (discriminator 1)
8000680c:	00345793          	srli	a5,s0,0x3
80006810:	38070713          	addi	a4,a4,896
80006814:	0476                	slli	s0,s0,0x1d
/home/hqfang/workspace/software/riscv-gnu-toolchain/riscv-gcc/libgcc/soft-fp/extendsfdf2.c:51 (discriminator 53)
80006816:	07b2                	slli	a5,a5,0xc
80006818:	0752                	slli	a4,a4,0x14
8000681a:	83b1                	srli	a5,a5,0xc
8000681c:	01f49513          	slli	a0,s1,0x1f
80006820:	8fd9                	or	a5,a5,a4
/home/hqfang/workspace/software/riscv-gnu-toolchain/riscv-gcc/libgcc/soft-fp/extendsfdf2.c:55 (discriminator 53)
80006822:	40b2                	lw	ra,12(sp)
/home/hqfang/workspace/software/riscv-gnu-toolchain/riscv-gcc/libgcc/soft-fp/extendsfdf2.c:51 (discriminator 53)
80006824:	00a7e733          	or	a4,a5,a0
/home/hqfang/workspace/software/riscv-gnu-toolchain/riscv-gcc/libgcc/soft-fp/extendsfdf2.c:55 (discriminator 53)
80006828:	8522                	mv	a0,s0
8000682a:	4422                	lw	s0,8(sp)
8000682c:	4492                	lw	s1,4(sp)
8000682e:	85ba                	mv	a1,a4
80006830:	0141                	addi	sp,sp,16
80006832:	8082                	ret
/home/hqfang/workspace/software/riscv-gnu-toolchain/riscv-gcc/libgcc/soft-fp/extendsfdf2.c:47 (discriminator 2)
80006834:	eb1d                	bnez	a4,8000686a <__extendsfdf2+0x82>
/home/hqfang/workspace/software/riscv-gnu-toolchain/riscv-gcc/libgcc/soft-fp/extendsfdf2.c:47 (discriminator 12)
80006836:	4781                	li	a5,0
80006838:	dc79                	beqz	s0,80006816 <__extendsfdf2+0x2e>
/home/hqfang/workspace/software/riscv-gnu-toolchain/riscv-gcc/libgcc/soft-fp/extendsfdf2.c:47 (discriminator 16)
8000683a:	8522                	mv	a0,s0
8000683c:	901ff0ef          	jal	ra,8000613c <__clzsi2>
80006840:	47a9                	li	a5,10
80006842:	00a7ce63          	blt	a5,a0,8000685e <__extendsfdf2+0x76>
/home/hqfang/workspace/software/riscv-gnu-toolchain/riscv-gcc/libgcc/soft-fp/extendsfdf2.c:47 (discriminator 29)
80006846:	47ad                	li	a5,11
80006848:	8f89                	sub	a5,a5,a0
8000684a:	01550713          	addi	a4,a0,21
8000684e:	00f457b3          	srl	a5,s0,a5
80006852:	00e41433          	sll	s0,s0,a4
/home/hqfang/workspace/software/riscv-gnu-toolchain/riscv-gcc/libgcc/soft-fp/extendsfdf2.c:47 (discriminator 38)
80006856:	38900713          	li	a4,905
8000685a:	8f09                	sub	a4,a4,a0
8000685c:	bf6d                	j	80006816 <__extendsfdf2+0x2e>
/home/hqfang/workspace/software/riscv-gnu-toolchain/riscv-gcc/libgcc/soft-fp/extendsfdf2.c:47 (discriminator 30)
8000685e:	ff550793          	addi	a5,a0,-11
80006862:	00f417b3          	sll	a5,s0,a5
80006866:	4401                	li	s0,0
80006868:	b7fd                	j	80006856 <__extendsfdf2+0x6e>
/home/hqfang/workspace/software/riscv-gnu-toolchain/riscv-gcc/libgcc/soft-fp/extendsfdf2.c:47 (discriminator 9)
8000686a:	4781                	li	a5,0
8000686c:	c419                	beqz	s0,8000687a <__extendsfdf2+0x92>
/home/hqfang/workspace/software/riscv-gnu-toolchain/riscv-gcc/libgcc/soft-fp/extendsfdf2.c:47 (discriminator 39)
8000686e:	00345793          	srli	a5,s0,0x3
80006872:	00080737          	lui	a4,0x80
80006876:	0476                	slli	s0,s0,0x1d
80006878:	8fd9                	or	a5,a5,a4
/home/hqfang/workspace/software/riscv-gnu-toolchain/riscv-gcc/libgcc/soft-fp/extendsfdf2.c:47
8000687a:	7ff00713          	li	a4,2047
8000687e:	bf61                	j	80006816 <__extendsfdf2+0x2e>
