
whetstone.elf:     file format elf32-littleriscv
whetstone.elf
architecture: riscv:rv32, flags 0x00000112:
EXEC_P, HAS_SYMS, D_PAGED
start address 0x80000000

Program Header:
    LOAD off    0x00001000 vaddr 0x80000000 paddr 0x80000000 align 2**12
         filesz 0x0000a714 memsz 0x0000a714 flags r-x
    LOAD off    0x0000c000 vaddr 0x90000000 paddr 0x8000a714 align 2**12
         filesz 0x000003ac memsz 0x000003ac flags rw-
    LOAD off    0x000003ac vaddr 0x900003ac paddr 0x900003ac align 2**12
         filesz 0x00000000 memsz 0x00000238 flags rw-
    LOAD off    0x00000800 vaddr 0x9000f800 paddr 0x900005e4 align 2**12
         filesz 0x00000000 memsz 0x00000800 flags rw-

Sections:
Idx Name              Size      VMA       LMA       File off  Algn  Flags
  0 .init             000000b8  80000000  80000000  00001000  2**0  CONTENTS, ALLOC, LOAD, READONLY, CODE
  1 .ilalign          00000000  800000b8  800000b8  0000c3ac  2**0  CONTENTS
  2 .text             0000990c  800000b8  800000b8  000010b8  2**2  CONTENTS, ALLOC, LOAD, READONLY, CODE
  3 .rodata           00000d4c  800099c8  800099c8  0000a9c8  2**3  CONTENTS, ALLOC, LOAD, READONLY, DATA
  4 .lalign           00000000  8000a714  8000a714  0000c3ac  2**0  CONTENTS
  5 .dalign           00000000  90000000  90000000  0000c3ac  2**0  CONTENTS
  6 .data             000003ac  90000000  8000a714  0000c000  2**3  CONTENTS, ALLOC, LOAD, DATA
  7 .bss              00000238  900003ac  900003ac  0000c3ac  2**2  ALLOC
  8 .stack            00000800  9000f800  900005e4  0000c800  2**0  ALLOC
  9 .debug_info       0000c144  00000000  00000000  0000c3ac  2**0  CONTENTS, READONLY, DEBUGGING, OCTETS
 10 .debug_abbrev     00003ab6  00000000  00000000  000184f0  2**0  CONTENTS, READONLY, DEBUGGING, OCTETS
 11 .debug_loc        0000ef6c  00000000  00000000  0001bfa6  2**0  CONTENTS, READONLY, DEBUGGING, OCTETS
 12 .debug_aranges    00000780  00000000  00000000  0002af18  2**3  CONTENTS, READONLY, DEBUGGING, OCTETS
 13 .debug_ranges     00002128  00000000  00000000  0002b698  2**0  CONTENTS, READONLY, DEBUGGING, OCTETS
 14 .debug_line       00015253  00000000  00000000  0002d7c0  2**0  CONTENTS, READONLY, DEBUGGING, OCTETS
 15 .debug_str        000024ae  00000000  00000000  00042a13  2**0  CONTENTS, READONLY, DEBUGGING, OCTETS
 16 .comment          00000012  00000000  00000000  00044ec1  2**0  CONTENTS, READONLY
 17 .riscv.attributes 0000002f  00000000  00000000  00044ed3  2**0  CONTENTS, READONLY
 18 .debug_frame      00000d3c  00000000  00000000  00044f04  2**2  CONTENTS, READONLY, DEBUGGING, OCTETS
SYMBOL TABLE:
80000000 l    d  .init	00000000 .init
800000b8 l    d  .ilalign	00000000 .ilalign
800000b8 l    d  .text	00000000 .text
800099c8 l    d  .rodata	00000000 .rodata
8000a714 l    d  .lalign	00000000 .lalign
90000000 l    d  .dalign	00000000 .dalign
90000000 l    d  .data	00000000 .data
900003ac l    d  .bss	00000000 .bss
9000f800 l    d  .stack	00000000 .stack
00000000 l    d  .debug_info	00000000 .debug_info
00000000 l    d  .debug_abbrev	00000000 .debug_abbrev
00000000 l    d  .debug_loc	00000000 .debug_loc
00000000 l    d  .debug_aranges	00000000 .debug_aranges
00000000 l    d  .debug_ranges	00000000 .debug_ranges
00000000 l    d  .debug_line	00000000 .debug_line
00000000 l    d  .debug_str	00000000 .debug_str
00000000 l    d  .comment	00000000 .comment
00000000 l    d  .riscv.attributes	00000000 .riscv.attributes
00000000 l    d  .debug_frame	00000000 .debug_frame
00000000 l    df *ABS*	00000000 whets.c
80000b2e l     F .text	000015a4 whetstones.constprop.0
9000046c l     O .bss	000000a2 headings
90000510 l     O .bss	00000024 loop_time
90000534 l     O .bss	00000024 results
900003b8 l     O .bss	00000004 Check
900003bc l     O .bss	00000004 TimeUsed
900003c0 l     O .bss	00000004 mwips
00000000 l    df *ABS*	00000000 close.c
00000000 l    df *ABS*	00000000 exit.c
00000000 l    df *ABS*	00000000 fstat.c
00000000 l    df *ABS*	00000000 getpid.c
00000000 l    df *ABS*	00000000 isatty.c
00000000 l    df *ABS*	00000000 kill.c
00000000 l    df *ABS*	00000000 lseek.c
00000000 l    df *ABS*	00000000 read.c
00000000 l    df *ABS*	00000000 sbrk.c
900001d0 l     O .data	00000004 curbrk.0
00000000 l    df *ABS*	00000000 write.c
00000000 l    df *ABS*	00000000 hbirdv2_gpio.c
00000000 l    df *ABS*	00000000 hbirdv2_uart.c
00000000 l    df *ABS*	00000000 hbirdv2_common.c
00000000 l    df *ABS*	00000000 system_hbirdv2.c
80000648 l     F .text	00000044 system_default_exception_handler
8000068c l     F .text	00000048 system_default_interrupt_handler
900003d4 l     O .bss	00000028 SystemCoreInterruptHandlers
900003fc l     O .bss	0000002c SystemExceptionHandlers
90000428 l     O .bss	00000044 SystemExtInterruptHandlers
00000000 l    df *ABS*	00000000 cpuidc.c
00000000 l    df *ABS*	00000000 sf_atan.c
80009cfc l     O .rodata	00000010 atanhi
80009d0c l     O .rodata	00000010 atanlo
00000000 l    df *ABS*	00000000 sf_cos.c
00000000 l    df *ABS*	00000000 sf_fabs.c
00000000 l    df *ABS*	00000000 sf_sin.c
00000000 l    df *ABS*	00000000 wf_exp.c
00000000 l    df *ABS*	00000000 wf_log.c
00000000 l    df *ABS*	00000000 wf_sqrt.c
00000000 l    df *ABS*	00000000 ef_exp.c
90000390 l     O .data	00000008 halF
90000398 l     O .data	00000008 ln2HI
900003a0 l     O .data	00000008 ln2LO
00000000 l    df *ABS*	00000000 ef_log.c
00000000 l    df *ABS*	00000000 ef_rem_pio2.c
80009d1c l     O .rodata	00000080 npio2_hw
80009d9c l     O .rodata	00000318 two_over_pi
00000000 l    df *ABS*	00000000 ef_sqrt.c
00000000 l    df *ABS*	00000000 kf_cos.c
00000000 l    df *ABS*	00000000 kf_rem_pio2.c
8000a0b4 l     O .rodata	0000002c PIo2
8000a0e0 l     O .rodata	0000000c init_jk
00000000 l    df *ABS*	00000000 kf_sin.c
00000000 l    df *ABS*	00000000 sf_finite.c
00000000 l    df *ABS*	00000000 sf_floor.c
00000000 l    df *ABS*	00000000 sf_nan.c
00000000 l    df *ABS*	00000000 sf_scalbn.c
00000000 l    df *ABS*	00000000 libgcc2.c
00000000 l    df *ABS*	00000000 addsf3.c
00000000 l    df *ABS*	00000000 divsf3.c
00000000 l    df *ABS*	00000000 eqsf2.c
00000000 l    df *ABS*	00000000 gesf2.c
00000000 l    df *ABS*	00000000 lesf2.c
00000000 l    df *ABS*	00000000 mulsf3.c
00000000 l    df *ABS*	00000000 subsf3.c
00000000 l    df *ABS*	00000000 unordsf2.c
00000000 l    df *ABS*	00000000 fixsfsi.c
00000000 l    df *ABS*	00000000 floatsisf.c
00000000 l    df *ABS*	00000000 floatunsisf.c
00000000 l    df *ABS*	00000000 floatundisf.c
00000000 l    df *ABS*	00000000 extendsfdf2.c
00000000 l    df *ABS*	00000000 libgcc2.c
00000000 l    df *ABS*	00000000 libgcc2.c
00000000 l    df *ABS*	00000000 libgcc2.c
00000000 l    df *ABS*	00000000 atexit.c
00000000 l    df *ABS*	00000000 errno.c
00000000 l    df *ABS*	00000000 fini.c
00000000 l    df *ABS*	00000000 init.c
00000000 l    df *ABS*	00000000 nano-vfprintf_float.c
00000000 l    df *ABS*	00000000 nano-vfprintf_i.c
00000000 l    df *ABS*	00000000 printf.c
00000000 l    df *ABS*	00000000 putchar.c
00000000 l    df *ABS*	00000000 putc.c
00000000 l    df *ABS*	00000000 puts.c
00000000 l    df *ABS*	00000000 strlen.c
00000000 l    df *ABS*	00000000 sysisatty.c
00000000 l    df *ABS*	00000000 wbuf.c
00000000 l    df *ABS*	00000000 wsetup.c
00000000 l    df *ABS*	00000000 __atexit.c
90000558 l     O .bss	0000008c _global_atexit0
00000000 l    df *ABS*	00000000 dtoa.c
80005ac4 l     F .text	0000012c quorem
00000000 l    df *ABS*	00000000 fflush.c
00000000 l    df *ABS*	00000000 findfp.c
800069da l     F .text	00000068 std
00000000 l    df *ABS*	00000000 fwalk.c
00000000 l    df *ABS*	00000000 localeconv.c
00000000 l    df *ABS*	00000000 makebuf.c
00000000 l    df *ABS*	00000000 malloc.c
00000000 l    df *ABS*	00000000 mbtowc_r.c
00000000 l    df *ABS*	00000000 memchr.c
00000000 l    df *ABS*	00000000 memcpy.c
00000000 l    df *ABS*	00000000 mprec.c
8000a538 l     O .rodata	0000000c p05.0
00000000 l    df *ABS*	00000000 nano-mallocr.c
00000000 l    df *ABS*	00000000 nano-mallocr.c
00000000 l    df *ABS*	00000000 nano-mallocr.c
00000000 l    df *ABS*	00000000 nano-vfprintf.c
800078be l     F .text	0000002a __sfputc_r
00000000 l    df *ABS*	00000000 sbrkr.c
00000000 l    df *ABS*	00000000 stdio.c
00000000 l    df *ABS*	00000000 wctomb_r.c
00000000 l    df *ABS*	00000000 writer.c
00000000 l    df *ABS*	00000000 assert.c
00000000 l    df *ABS*	00000000 closer.c
00000000 l    df *ABS*	00000000 fprintf.c
00000000 l    df *ABS*	00000000 fstatr.c
00000000 l    df *ABS*	00000000 isattyr.c
00000000 l    df *ABS*	00000000 lseekr.c
00000000 l    df *ABS*	00000000 mlock.c
00000000 l    df *ABS*	00000000 readr.c
00000000 l    df *ABS*	00000000 abort.c
00000000 l    df *ABS*	00000000 signal.c
00000000 l    df *ABS*	00000000 signalr.c
00000000 l    df *ABS*	00000000 adddf3.c
00000000 l    df *ABS*	00000000 divdf3.c
00000000 l    df *ABS*	00000000 eqdf2.c
00000000 l    df *ABS*	00000000 gedf2.c
00000000 l    df *ABS*	00000000 ledf2.c
00000000 l    df *ABS*	00000000 muldf3.c
00000000 l    df *ABS*	00000000 subdf3.c
00000000 l    df *ABS*	00000000 unorddf2.c
00000000 l    df *ABS*	00000000 fixdfsi.c
00000000 l    df *ABS*	00000000 floatsidf.c
00000000 l    df *ABS*	00000000 floatunsidf.c
00000000 l    df *ABS*	00000000 trunctfdf2.c
00000000 l    df *ABS*	00000000 libgcc2.c
00000000 l    df *ABS*	00000000 locale.c
00000000 l    df *ABS*	00000000 ctype_.c
00000000 l    df *ABS*	00000000 impure.c
90000000 l     O .data	00000060 impure_data
00000000 l    df *ABS*	00000000 s_lib_ver.c
00000000 l    df *ABS*	00000000 
8000a714 l       .rodata	00000000 __fini_array_end
8000a714 l       .rodata	00000000 __fini_array_start
8000a714 l       .rodata	00000000 __init_array_end
8000a714 l       .rodata	00000000 __preinit_array_end
8000a714 l       .rodata	00000000 __init_array_start
8000a714 l       .rodata	00000000 __preinit_array_start
80004ca8 g     F .text	000000ee __cvt
800056d4 g     F .text	00000028 putchar
80007da8 g     F .text	00000028 _isatty_r
80004b9c g     F .text	0000002a .hidden __ashldi3
800003e0  w    F .text	00000004 _getpid
80005780 g     F .text	000000de _puts_r
80007dd0 g     F .text	0000002c _lseek_r
80008a1e g     F .text	0000006a .hidden __eqdf2
80007ea6 g     F .text	0000002a _kill_r
80005698 g     F .text	0000003c printf
900009d0 g       .data	00000000 __global_pointer$
80007c72 g     F .text	00000036 __sseek
80006a92 g     F .text	0000006c __sinit
900003ac g     O .bss	00000004 secs
8000587e g     F .text	000000c6 __swbuf_r
80006a4c g     F .text	00000046 __sfmoreglue
80007dfe g     F .text	00000002 __malloc_unlock
80003f30 g     F .text	00000254 .hidden __divsf3
80006ee6 g     F .text	00000092 _Balloc
80004852 g     F .text	00000060 .hidden __fixsfsi
80008a88 g     F .text	000000a6 .hidden __gtdf2
80004c0e g     F .text	00000006 __errno
80002a9a g     F .text	0000034e __ieee754_rem_pio2f
800024b6 g     F .text	0000007c logf
80007d7e g     F .text	0000002a _fstat_r
900003c4 g     O .bss	00000004 errno
00000800 g       *ABS*	00000000 __stack_size
800044ec g     F .text	00000332 .hidden __subsf3
80000570 g     F .text	00000016 uart_write
8000a714 g       .rodata	00000000 __rt_init_start
80002532 g     F .text	00000058 sqrtf
8000a714 g       .rodata	00000000 __fsymtab_end
800000b8 g       .ilalign	00000000 _ilm_lma
80006d6a g     F .text	000000d4 memcpy
80006a42 g     F .text	0000000a _cleanup_r
800096d0 g     F .text	00000068 .hidden __floatsidf
80008b2e g     F .text	000000a6 .hidden __ltdf2
8000585e g     F .text	0000000a puts
8000a714 g       .rodata	00000000 __rt_init_end
800027c8 g     F .text	000002d2 __ieee754_logf
900001d4 g     O .data	00000004 SystemCoreClock
80006d0c g     F .text	0000000a malloc
8000587a g     F .text	00000004 isatty
80007e3a g     F .text	00000062 _raise_r
800003c4  w    F .text	0000001c _fstat
80007cfa g     F .text	00000036 __assert_func
800005a0 g     F .text	000000a8 get_cpu_freq
8000a470 g     O .rodata	000000c8 __mprec_tens
80004250 g     F .text	00000078 .hidden __lesf2
80007ed0 g     F .text	00000004 _getpid_r
80006c04 g     F .text	0000000a _localeconv_r
8000712e g     F .text	00000038 __i2b
80003708 g     F .text	0000000e finitef
80007bcc g     F .text	00000028 _sbrk_r
800023be g     F .text	00000006 fabsf
80007e00 g     F .text	0000002c _read_r
8000a714 g       .rodata	00000000 _eilm
80004adc g     F .text	00000096 .hidden __extendsfdf2
80007ed4 g     F .text	0000060a .hidden __adddf3
80004184 g     F .text	00000054 .hidden __nesf2
9000f800 g       .stack	00000000 _heap_end
800003e4  w    F .text	00000004 _isatty
900001d8 g     O .data	00000004 __fdlib_version
900003a8 g     O .data	00000004 _global_impure_ptr
80004c4a g     F .text	0000005e __libc_init_array
800035f6 g     F .text	00000112 __kernel_sinf
800038aa g     F .text	00000360 .hidden __udivdi3
8000a448 g     O .rodata	00000028 __mprec_bigtens
80007e2c g     F .text	0000000e abort
80009738 g     F .text	00000050 .hidden __floatunsidf
80000418  w    F .text	0000002c _sbrk
800074a8 g     F .text	00000036 __mcmp
80000abe g     F .text	00000002 _init
8000258a g     F .text	0000023e __ieee754_expf
80002344 g     F .text	0000007a cosf
80004c14 g     F .text	00000036 __libc_fini_array
8000707e g     F .text	00000046 __hi0bits
800000b8 g       .ilalign	00000000 _ilm
8000966c g     F .text	00000064 .hidden __fixdfsi
80002ea0 g     F .text	0000013a __kernel_cosf
800056fc g     F .text	00000084 _putc_r
800041d8 g     F .text	00000078 .hidden __gtsf2
800007a0 g     F .text	0000031c _premain_init
80007d58 g     F .text	00000026 fprintf
80004b72 g     F .text	0000002a .hidden __lshrdi3
80008b2e g     F .text	000000a6 .hidden __ledf2
800072e6 g     F .text	000000be __pow5mult
8000a378 g     O .rodata	00000020 __sf_fake_stderr
80000af4 g     F .text	0000003a end_time
800006e6 g     F .text	000000ba core_trap_handler
900003b0 g     O .bss	00000004 startSecs
80000ac2 g     F .text	00000032 start_time
80004bc6 g     F .text	0000003c .hidden __clzsi2
800078e8 g     F .text	00000044 __sfputs_r
8000052e g     F .text	00000042 uart_init
80006d50 g     F .text	0000001a memchr
80004e32  w    F .text	000004e6 _printf_float
80007750 g     F .text	0000009e _free_r
900003c8 g     O .bss	00000004 _global_atexit
90010000 g       .stack	00000000 _sp
80000000 g     F .init	00000000 _start
800003f2  w    F .text	00000004 _lseek
800073a4 g     F .text	00000104 __lshift
800048b2 g     F .text	000000ba .hidden __floatsisf
80005a50 g     F .text	00000074 __register_exitproc
80007166 g     F .text	00000180 __multiply
80004184 g     F .text	00000054 .hidden __eqsf2
8000763c g     F .text	000000ee __d2b
80007d30 g     F .text	00000028 _close_r
80004a06 g     F .text	000000d6 .hidden __floatundisf
80005944 g     F .text	0000010c __swsetup_r
800084de g     F .text	00000540 .hidden __divdf3
80006afe g     F .text	0000009c __sfp
80008bd4 g     F .text	00000442 .hidden __muldf3
80007bf4 g     F .text	00000030 __sread
80007dfc g     F .text	00000002 __malloc_lock
800037ca g     F .text	000000e0 scalbnf
80006974 g     F .text	00000066 _fflush_r
8000772a g     F .text	00000026 _calloc_r
8000a398 g     O .rodata	00000020 __sf_fake_stdin
900003ac g       .bss	00000000 __bss_start
80006e3e g     F .text	000000a8 memset
80002de8 g     F .text	000000b8 __ieee754_sqrtf
800000b8 g     F .text	000002fc main
800004a4  w      .text	00000000 trap_entry
80004250 g     F .text	00000078 .hidden __ltsf2
80007ca8 g     F .text	00000006 __sclose
80005bf0 g     F .text	00000c3c _dtoa_r
800077ee g     F .text	000000d0 _malloc_r
80007cae g     F .text	00000020 __ascii_wctomb
8000a714 g       .rodata	00000000 __vsymtab_start
800042c8 g     F .text	00000224 .hidden __mulsf3
800006d4 g     F .text	00000012 SystemInit
80008a1e g     F .text	0000006a .hidden __nedf2
80000ac0 g     F .text	00000002 _fini
80005698 g     F .text	0000003c iprintf
8000a164 g     O .rodata	00000100 .hidden __clz_tab
80004d96 g     F .text	0000009c __exponent
80004c02 g     F .text	0000000c atexit
800041d8 g     F .text	00000078 .hidden __gesf2
80007cce g     F .text	0000002c _write_r
800037c0 g     F .text	0000000a nanf
80005318 g     F .text	0000010c _printf_common
900001dc g     O .data	00000004 _impure_ptr
8000682c g     F .text	00000148 __sflush_r
80006d16 g     F .text	0000003a __ascii_mbtowc
90000000 g       .dalign	00000000 _data
8000a714 g       .rodata	00000000 __vsymtab_end
800023c4 g     F .text	0000007c sinf
80006c0e g     F .text	0000005c __swhatbuf_r
80000444  w    F .text	0000005e _write
900003ac g       .bss	00000000 _edata
80000abc g     F .text	00000002 _postmain_fini
900005e8 g       .bss	00000000 _end
8000481e g     F .text	00000034 .hidden __unordsf2
8000a714 g       .lalign	00000000 _data_lma
80000586 g     F .text	0000001a uart_read
80007c24 g     F .text	0000004e __swrite
80007d58 g     F .text	00000026 fiprintf
8000792c g     F .text	000002a0 _vfiprintf_r
80006b9a g     F .text	0000006a _fwalk_reent
8000496c g     F .text	0000009a .hidden __floatunsisf
800074de g     F .text	0000015e __mdiff
800003e8  w    F .text	0000000a _kill
800020d2 g     F .text	00000272 atanf
8000a3b8 g     O .rodata	00000020 __sf_fake_stdout
8000a598 g     O .rodata	00000101 _ctype_
800003f6  w    F .text	00000022 _read
80009632 g     F .text	0000003a .hidden __unorddf2
800003be  w    F .text	00000006 _exit
80002fda g     F .text	0000061c __kernel_rem_pio2f
80002440 g     F .text	00000076 expf
80006c6a g     F .text	000000a2 __smakebuf_r
80005868 g     F .text	00000012 strlen
80005424 g     F .text	00000274 _printf_i
80008a88 g     F .text	000000a6 .hidden __gedf2
900003d0 g     O .bss	00000004 __malloc_sbrk_start
80003716 g     F .text	000000aa floorf
900003cc g     O .bss	00000004 __malloc_free_list
8000a714 g       .rodata	00000000 __fsymtab_start
80009016 g     F .text	0000061c .hidden __subdf3
8000792c g     F .text	000002a0 _vfprintf_r
800070c4 g     F .text	0000006a __lo0bits
900003b4 g     O .bss	00000004 theseSecs
80003c0a g     F .text	00000326 .hidden __addsf3
90000060 g     O .data	0000016c __global_locale
8000051c g     F .text	00000012 gpio_iof_config
80009788 g     F .text	0000023c .hidden __trunctfdf2
80007e9c g     F .text	0000000a raise
800003b4  w    F .text	0000000a _close
80006fbe g     F .text	000000c0 __multadd
80006f78 g     F .text	00000046 _Bfree



Disassembly of section .init:

80000000 <_start>:
_start():
E:\VMshare\e203\zhengdian_E203\sdk\whetstone\Release/../hbird_sdk/SoC/hbirdv2/Common/Source/GCC/startup_hbirdv2.S:40
 * Reset Handler called on controller reset
 */
_start:
    /* ===== Startup Stage 1 ===== */
    /* Disable Global Interrupt */
    csrc CSR_MSTATUS, MSTATUS_MIE
80000000:	30047073          	csrci	mstatus,8
E:\VMshare\e203\zhengdian_E203\sdk\whetstone\Release/../hbird_sdk/SoC/hbirdv2/Common/Source/GCC/startup_hbirdv2.S:42
    /* Disable all interrupts controlled by CSR MIE */
    csrw CSR_MIE, 0x0
80000004:	30405073          	csrwi	mie,0
E:\VMshare\e203\zhengdian_E203\sdk\whetstone\Release/../hbird_sdk/SoC/hbirdv2/Common/Source/GCC/startup_hbirdv2.S:47

    /* Initialize GP and Stack Pointer SP */
    .option push
    .option norelax
    la gp, __global_pointer$
80000008:	10001197          	auipc	gp,0x10001
8000000c:	9c818193          	addi	gp,gp,-1592 # 900009d0 <__global_pointer$>
E:\VMshare\e203\zhengdian_E203\sdk\whetstone\Release/../hbird_sdk/SoC/hbirdv2/Common/Source/GCC/startup_hbirdv2.S:49
    .option pop
    la sp, _sp
80000010:	10010117          	auipc	sp,0x10010
80000014:	ff010113          	addi	sp,sp,-16 # 90010000 <_sp>
E:\VMshare\e203\zhengdian_E203\sdk\whetstone\Release/../hbird_sdk/SoC/hbirdv2/Common/Source/GCC/startup_hbirdv2.S:54

    /*
     * Set Trap Entry MTVEC to trap_entry
     */
    la t0, trap_entry
80000018:	00000297          	auipc	t0,0x0
8000001c:	48c28293          	addi	t0,t0,1164 # 800004a4 <trap_entry>
E:\VMshare\e203\zhengdian_E203\sdk\whetstone\Release/../hbird_sdk/SoC/hbirdv2/Common/Source/GCC/startup_hbirdv2.S:55
    csrw CSR_MTVEC, t0
80000020:	30529073          	csrw	mtvec,t0
E:\VMshare\e203\zhengdian_E203\sdk\whetstone\Release/../hbird_sdk/SoC/hbirdv2/Common/Source/GCC/startup_hbirdv2.S:58

    /* Direct Mode: All exceptions set pc to BASE. */
    csrc CSR_MTVEC, 0x3
80000024:	3051f073          	csrci	mtvec,3
E:\VMshare\e203\zhengdian_E203\sdk\whetstone\Release/../hbird_sdk/SoC/hbirdv2/Common/Source/GCC/startup_hbirdv2.S:74
    /* ===== Startup Stage 3 ===== */
    /*
     * Load code section frm FLASH to ILM
     * when code LMA is different with VMA
     */
    la a0, _ilm_lma
80000028:	00000517          	auipc	a0,0x0
8000002c:	09050513          	addi	a0,a0,144 # 800000b8 <main>
E:\VMshare\e203\zhengdian_E203\sdk\whetstone\Release/../hbird_sdk/SoC/hbirdv2/Common/Source/GCC/startup_hbirdv2.S:75
    la a1, _ilm
80000030:	00000597          	auipc	a1,0x0
80000034:	08858593          	addi	a1,a1,136 # 800000b8 <main>
E:\VMshare\e203\zhengdian_E203\sdk\whetstone\Release/../hbird_sdk/SoC/hbirdv2/Common/Source/GCC/startup_hbirdv2.S:77
    /* If the ILM phy-address same as the logic-address, then quit */
    beq a0, a1, 2f
80000038:	02b50063          	beq	a0,a1,80000058 <_start+0x58>
E:\VMshare\e203\zhengdian_E203\sdk\whetstone\Release/../hbird_sdk/SoC/hbirdv2/Common/Source/GCC/startup_hbirdv2.S:78
    la a2, _eilm
8000003c:	0000a617          	auipc	a2,0xa
80000040:	6d860613          	addi	a2,a2,1752 # 8000a714 <__fsymtab_end>
E:\VMshare\e203\zhengdian_E203\sdk\whetstone\Release/../hbird_sdk/SoC/hbirdv2/Common/Source/GCC/startup_hbirdv2.S:79
    bgeu a1, a2, 2f
80000044:	00c5fa63          	bgeu	a1,a2,80000058 <_start+0x58>
E:\VMshare\e203\zhengdian_E203\sdk\whetstone\Release/../hbird_sdk/SoC/hbirdv2/Common/Source/GCC/startup_hbirdv2.S:83

1:
    /* Load code section if necessary */
    lw t0, (a0)
80000048:	00052283          	lw	t0,0(a0)
E:\VMshare\e203\zhengdian_E203\sdk\whetstone\Release/../hbird_sdk/SoC/hbirdv2/Common/Source/GCC/startup_hbirdv2.S:84
    sw t0, (a1)
8000004c:	0055a023          	sw	t0,0(a1)
E:\VMshare\e203\zhengdian_E203\sdk\whetstone\Release/../hbird_sdk/SoC/hbirdv2/Common/Source/GCC/startup_hbirdv2.S:85
    addi a0, a0, 4
80000050:	0511                	addi	a0,a0,4
E:\VMshare\e203\zhengdian_E203\sdk\whetstone\Release/../hbird_sdk/SoC/hbirdv2/Common/Source/GCC/startup_hbirdv2.S:86
    addi a1, a1, 4
80000052:	0591                	addi	a1,a1,4
E:\VMshare\e203\zhengdian_E203\sdk\whetstone\Release/../hbird_sdk/SoC/hbirdv2/Common/Source/GCC/startup_hbirdv2.S:87
    bltu a1, a2, 1b
80000054:	fec5eae3          	bltu	a1,a2,80000048 <_start+0x48>
E:\VMshare\e203\zhengdian_E203\sdk\whetstone\Release/../hbird_sdk/SoC/hbirdv2/Common/Source/GCC/startup_hbirdv2.S:90
2:
    /* Load data section */
    la a0, _data_lma
80000058:	0000a517          	auipc	a0,0xa
8000005c:	6bc50513          	addi	a0,a0,1724 # 8000a714 <__fsymtab_end>
E:\VMshare\e203\zhengdian_E203\sdk\whetstone\Release/../hbird_sdk/SoC/hbirdv2/Common/Source/GCC/startup_hbirdv2.S:91
    la a1, _data
80000060:	10000597          	auipc	a1,0x10000
80000064:	fa058593          	addi	a1,a1,-96 # 90000000 <impure_data>
E:\VMshare\e203\zhengdian_E203\sdk\whetstone\Release/../hbird_sdk/SoC/hbirdv2/Common/Source/GCC/startup_hbirdv2.S:92
    la a2, _edata
80000068:	9dc18613          	addi	a2,gp,-1572 # 900003ac <secs>
E:\VMshare\e203\zhengdian_E203\sdk\whetstone\Release/../hbird_sdk/SoC/hbirdv2/Common/Source/GCC/startup_hbirdv2.S:93
    bgeu a1, a2, 2f
8000006c:	00c5fa63          	bgeu	a1,a2,80000080 <_start+0x80>
E:\VMshare\e203\zhengdian_E203\sdk\whetstone\Release/../hbird_sdk/SoC/hbirdv2/Common/Source/GCC/startup_hbirdv2.S:95
1:
    lw t0, (a0)
80000070:	00052283          	lw	t0,0(a0)
E:\VMshare\e203\zhengdian_E203\sdk\whetstone\Release/../hbird_sdk/SoC/hbirdv2/Common/Source/GCC/startup_hbirdv2.S:96
    sw t0, (a1)
80000074:	0055a023          	sw	t0,0(a1)
E:\VMshare\e203\zhengdian_E203\sdk\whetstone\Release/../hbird_sdk/SoC/hbirdv2/Common/Source/GCC/startup_hbirdv2.S:97
    addi a0, a0, 4
80000078:	0511                	addi	a0,a0,4
E:\VMshare\e203\zhengdian_E203\sdk\whetstone\Release/../hbird_sdk/SoC/hbirdv2/Common/Source/GCC/startup_hbirdv2.S:98
    addi a1, a1, 4
8000007a:	0591                	addi	a1,a1,4
E:\VMshare\e203\zhengdian_E203\sdk\whetstone\Release/../hbird_sdk/SoC/hbirdv2/Common/Source/GCC/startup_hbirdv2.S:99
    bltu a1, a2, 1b
8000007c:	fec5eae3          	bltu	a1,a2,80000070 <_start+0x70>
E:\VMshare\e203\zhengdian_E203\sdk\whetstone\Release/../hbird_sdk/SoC/hbirdv2/Common/Source/GCC/startup_hbirdv2.S:102
2:
    /* Clear bss section */
    la a0, __bss_start
80000080:	9dc18513          	addi	a0,gp,-1572 # 900003ac <secs>
E:\VMshare\e203\zhengdian_E203\sdk\whetstone\Release/../hbird_sdk/SoC/hbirdv2/Common/Source/GCC/startup_hbirdv2.S:103
    la a1, _end
80000084:	c1818593          	addi	a1,gp,-1000 # 900005e8 <_end>
E:\VMshare\e203\zhengdian_E203\sdk\whetstone\Release/../hbird_sdk/SoC/hbirdv2/Common/Source/GCC/startup_hbirdv2.S:104
    bgeu a0, a1, 2f
80000088:	00b57763          	bgeu	a0,a1,80000096 <_start+0x96>
E:\VMshare\e203\zhengdian_E203\sdk\whetstone\Release/../hbird_sdk/SoC/hbirdv2/Common/Source/GCC/startup_hbirdv2.S:106
1:
    sw zero, (a0)
8000008c:	00052023          	sw	zero,0(a0)
E:\VMshare\e203\zhengdian_E203\sdk\whetstone\Release/../hbird_sdk/SoC/hbirdv2/Common/Source/GCC/startup_hbirdv2.S:107
    addi a0, a0, 4
80000090:	0511                	addi	a0,a0,4
E:\VMshare\e203\zhengdian_E203\sdk\whetstone\Release/../hbird_sdk/SoC/hbirdv2/Common/Source/GCC/startup_hbirdv2.S:108
    bltu a0, a1, 1b
80000092:	feb56de3          	bltu	a0,a1,8000008c <_start+0x8c>
E:\VMshare\e203\zhengdian_E203\sdk\whetstone\Release/../hbird_sdk/SoC/hbirdv2/Common/Source/GCC/startup_hbirdv2.S:115

    /*
     * Call vendor defined SystemInit to
     * initialize the micro-controller system
     */
    call SystemInit
80000096:	2d3d                	jal	800006d4 <SystemInit>
E:\VMshare\e203\zhengdian_E203\sdk\whetstone\Release/../hbird_sdk/SoC/hbirdv2/Common/Source/GCC/startup_hbirdv2.S:118

    /* Call global constructors */
    la a0, __libc_fini_array
80000098:	00005517          	auipc	a0,0x5
8000009c:	b7c50513          	addi	a0,a0,-1156 # 80004c14 <__libc_fini_array>
E:\VMshare\e203\zhengdian_E203\sdk\whetstone\Release/../hbird_sdk/SoC/hbirdv2/Common/Source/GCC/startup_hbirdv2.S:119
    call atexit
800000a0:	363040ef          	jal	ra,80004c02 <atexit>
E:\VMshare\e203\zhengdian_E203\sdk\whetstone\Release/../hbird_sdk/SoC/hbirdv2/Common/Source/GCC/startup_hbirdv2.S:121
    /* Call C/C++ constructor start up code */
    call __libc_init_array
800000a4:	3a7040ef          	jal	ra,80004c4a <__libc_init_array>
E:\VMshare\e203\zhengdian_E203\sdk\whetstone\Release/../hbird_sdk/SoC/hbirdv2/Common/Source/GCC/startup_hbirdv2.S:124

    /* do pre-init steps before main */
    call _premain_init
800000a8:	6f8000ef          	jal	ra,800007a0 <_premain_init>
E:\VMshare\e203\zhengdian_E203\sdk\whetstone\Release/../hbird_sdk/SoC/hbirdv2/Common/Source/GCC/startup_hbirdv2.S:127
    /* ===== Call Main Function  ===== */
    /* argc = argv = 0 */
    li a0, 0
800000ac:	4501                	li	a0,0
E:\VMshare\e203\zhengdian_E203\sdk\whetstone\Release/../hbird_sdk/SoC/hbirdv2/Common/Source/GCC/startup_hbirdv2.S:128
    li a1, 0
800000ae:	4581                	li	a1,0
E:\VMshare\e203\zhengdian_E203\sdk\whetstone\Release/../hbird_sdk/SoC/hbirdv2/Common/Source/GCC/startup_hbirdv2.S:134

#ifdef RTOS_RTTHREAD
    // Call entry function when using RT-Thread
    call entry
#else
    call main
800000b0:	2021                	jal	800000b8 <main>
E:\VMshare\e203\zhengdian_E203\sdk\whetstone\Release/../hbird_sdk/SoC/hbirdv2/Common/Source/GCC/startup_hbirdv2.S:137
#endif
    /* do post-main steps after main */
    call _postmain_fini
800000b2:	20b000ef          	jal	ra,80000abc <_postmain_fini>
E:\VMshare\e203\zhengdian_E203\sdk\whetstone\Release/../hbird_sdk/SoC/hbirdv2/Common/Source/GCC/startup_hbirdv2.S:140

1:
    j 1b
800000b6:	a001                	j	800000b6 <_start+0xb6>

Disassembly of section .text:

800000b8 <main>:
main():
E:\VMshare\e203\zhengdian_E203\sdk\whetstone\Release/../application/whets.c:207
static SPDP mwips;
static char headings[9][18];
static SPDP Check;
static SPDP results[9];
int main()
{
800000b8:	7179                	addi	sp,sp,-48
E:\VMshare\e203\zhengdian_E203\sdk\whetstone\Release/../application/whets.c:218
    int duration = 1;
#else
    int duration = 10;
#endif

    printf("\n");
800000ba:	4529                	li	a0,10
E:\VMshare\e203\zhengdian_E203\sdk\whetstone\Release/../application/whets.c:207
{
800000bc:	d606                	sw	ra,44(sp)
800000be:	d422                	sw	s0,40(sp)
800000c0:	d226                	sw	s1,36(sp)
800000c2:	d04a                	sw	s2,32(sp)
800000c4:	ca56                	sw	s5,20(sp)
800000c6:	c85a                	sw	s6,16(sp)
800000c8:	ce4e                	sw	s3,28(sp)
800000ca:	cc52                	sw	s4,24(sp)
800000cc:	c65e                	sw	s7,12(sp)
800000ce:	c462                	sw	s8,8(sp)
E:\VMshare\e203\zhengdian_E203\sdk\whetstone\Release/../application/whets.c:218
    printf("\n");
800000d0:	604050ef          	jal	ra,800056d4 <putchar>
E:\VMshare\e203\zhengdian_E203\sdk\whetstone\Release/../application/whets.c:219
    printf("##########################################\n");
800000d4:	0000a517          	auipc	a0,0xa
800000d8:	9fc50513          	addi	a0,a0,-1540 # 80009ad0 <__trunctfdf2+0x348>
800000dc:	782050ef          	jal	ra,8000585e <puts>
E:\VMshare\e203\zhengdian_E203\sdk\whetstone\Release/../application/whets.c:220
    printf("%s Precision C Whetstone Benchmark %s \n", Precision, opt);
800000e0:	0000a617          	auipc	a2,0xa
800000e4:	a1c60613          	addi	a2,a2,-1508 # 80009afc <__trunctfdf2+0x374>
800000e8:	0000a597          	auipc	a1,0xa
800000ec:	a2458593          	addi	a1,a1,-1500 # 80009b0c <__trunctfdf2+0x384>
800000f0:	0000a517          	auipc	a0,0xa
800000f4:	a2450513          	addi	a0,a0,-1500 # 80009b14 <__trunctfdf2+0x38c>
800000f8:	5a0050ef          	jal	ra,80005698 <iprintf>
E:\VMshare\e203\zhengdian_E203\sdk\whetstone\Release/../application/whets.c:222

    printf("Calibrate\n");
800000fc:	0000a517          	auipc	a0,0xa
80000100:	a4050513          	addi	a0,a0,-1472 # 80009b3c <__trunctfdf2+0x3b4>
80000104:	75a050ef          	jal	ra,8000585e <puts>
E:\VMshare\e203\zhengdian_E203\sdk\whetstone\Release/../application/whets.c:224
    do {
        TimeUsed = 0;
80000108:	00000793          	li	a5,0
8000010c:	9ec18493          	addi	s1,gp,-1556 # 900003bc <TimeUsed>
E:\VMshare\e203\zhengdian_E203\sdk\whetstone\Release/../application/whets.c:226

        whetstones(xtra, x100, calibrate);
80000110:	4585                	li	a1,1
80000112:	4505                	li	a0,1
E:\VMshare\e203\zhengdian_E203\sdk\whetstone\Release/../application/whets.c:224
        TimeUsed = 0;
80000114:	c09c                	sw	a5,0(s1)
80000116:	10000a97          	auipc	s5,0x10000
8000011a:	132aaa83          	lw	s5,306(s5) # 90000248 <_impure_ptr+0x6c>
E:\VMshare\e203\zhengdian_E203\sdk\whetstone\Release/../application/whets.c:226
        whetstones(xtra, x100, calibrate);
8000011e:	211000ef          	jal	ra,80000b2e <whetstones.constprop.0>
E:\VMshare\e203\zhengdian_E203\sdk\whetstone\Release/../application/whets.c:228
        printf("%11.2f Seconds %10.0lf   Passes (x 100)\n", TimeUsed,
               (SPDP)(xtra));
80000122:	4505                	li	a0,1
80000124:	78e040ef          	jal	ra,800048b2 <__floatsisf>
E:\VMshare\e203\zhengdian_E203\sdk\whetstone\Release/../application/whets.c:227
        printf("%11.2f Seconds %10.0lf   Passes (x 100)\n", TimeUsed,
80000128:	1b5040ef          	jal	ra,80004adc <__extendsfdf2>
8000012c:	892a                	mv	s2,a0
8000012e:	4088                	lw	a0,0(s1)
80000130:	842e                	mv	s0,a1
80000132:	0000ab17          	auipc	s6,0xa
80000136:	a16b0b13          	addi	s6,s6,-1514 # 80009b48 <__trunctfdf2+0x3c0>
8000013a:	1a3040ef          	jal	ra,80004adc <__extendsfdf2>
8000013e:	862a                	mv	a2,a0
80000140:	86ae                	mv	a3,a1
80000142:	874a                	mv	a4,s2
80000144:	87a2                	mv	a5,s0
80000146:	855a                	mv	a0,s6
80000148:	550050ef          	jal	ra,80005698 <iprintf>
E:\VMshare\e203\zhengdian_E203\sdk\whetstone\Release/../application/whets.c:235
        count--;

#if CFG_SIMU
        if (TimeUsed > 0.02)
#else
        if (TimeUsed > 2.0)
8000014c:	0004a903          	lw	s2,0(s1)
80000150:	85d6                	mv	a1,s5
80000152:	4405                	li	s0,1
80000154:	854a                	mv	a0,s2
80000156:	082040ef          	jal	ra,800041d8 <__gesf2>
8000015a:	0ea04663          	bgtz	a0,80000246 <main+0x18e>
8000015e:	4bad                	li	s7,11
80000160:	4989                	li	s3,2
E:\VMshare\e203\zhengdian_E203\sdk\whetstone\Release/../application/whets.c:240
#endif
        {
            count = 0;
        } else {
            xtra = xtra * 5;
80000162:	4415                	li	s0,5
E:\VMshare\e203\zhengdian_E203\sdk\whetstone\Release/../application/whets.c:226
        whetstones(xtra, x100, calibrate);
80000164:	85ce                	mv	a1,s3
80000166:	8522                	mv	a0,s0
E:\VMshare\e203\zhengdian_E203\sdk\whetstone\Release/../application/whets.c:224
        TimeUsed = 0;
80000168:	00000c13          	li	s8,0
8000016c:	0184a023          	sw	s8,0(s1)
E:\VMshare\e203\zhengdian_E203\sdk\whetstone\Release/../application/whets.c:226
        whetstones(xtra, x100, calibrate);
80000170:	1bf000ef          	jal	ra,80000b2e <whetstones.constprop.0>
E:\VMshare\e203\zhengdian_E203\sdk\whetstone\Release/../application/whets.c:228
               (SPDP)(xtra));
80000174:	8522                	mv	a0,s0
80000176:	73c040ef          	jal	ra,800048b2 <__floatsisf>
E:\VMshare\e203\zhengdian_E203\sdk\whetstone\Release/../application/whets.c:227
        printf("%11.2f Seconds %10.0lf   Passes (x 100)\n", TimeUsed,
8000017a:	163040ef          	jal	ra,80004adc <__extendsfdf2>
8000017e:	8a2a                	mv	s4,a0
80000180:	4088                	lw	a0,0(s1)
80000182:	892e                	mv	s2,a1
80000184:	159040ef          	jal	ra,80004adc <__extendsfdf2>
80000188:	862a                	mv	a2,a0
8000018a:	86ae                	mv	a3,a1
8000018c:	8752                	mv	a4,s4
8000018e:	87ca                	mv	a5,s2
80000190:	855a                	mv	a0,s6
80000192:	506050ef          	jal	ra,80005698 <iprintf>
E:\VMshare\e203\zhengdian_E203\sdk\whetstone\Release/../application/whets.c:235
        if (TimeUsed > 2.0)
80000196:	0004a903          	lw	s2,0(s1)
8000019a:	85d6                	mv	a1,s5
E:\VMshare\e203\zhengdian_E203\sdk\whetstone\Release/../application/whets.c:229
        calibrate++;
8000019c:	00198a13          	addi	s4,s3,1
E:\VMshare\e203\zhengdian_E203\sdk\whetstone\Release/../application/whets.c:235
        if (TimeUsed > 2.0)
800001a0:	854a                	mv	a0,s2
800001a2:	036040ef          	jal	ra,800041d8 <__gesf2>
E:\VMshare\e203\zhengdian_E203\sdk\whetstone\Release/../application/whets.c:240
            xtra = xtra * 5;
800001a6:	00241293          	slli	t0,s0,0x2
E:\VMshare\e203\zhengdian_E203\sdk\whetstone\Release/../application/whets.c:226
        whetstones(xtra, x100, calibrate);
800001aa:	85d2                	mv	a1,s4
E:\VMshare\e203\zhengdian_E203\sdk\whetstone\Release/../application/whets.c:235
        if (TimeUsed > 2.0)
800001ac:	08a04d63          	bgtz	a0,80000246 <main+0x18e>
E:\VMshare\e203\zhengdian_E203\sdk\whetstone\Release/../application/whets.c:240
            xtra = xtra * 5;
800001b0:	9416                	add	s0,s0,t0
E:\VMshare\e203\zhengdian_E203\sdk\whetstone\Release/../application/whets.c:226
        whetstones(xtra, x100, calibrate);
800001b2:	8522                	mv	a0,s0
E:\VMshare\e203\zhengdian_E203\sdk\whetstone\Release/../application/whets.c:224
        TimeUsed = 0;
800001b4:	0184a023          	sw	s8,0(s1)
E:\VMshare\e203\zhengdian_E203\sdk\whetstone\Release/../application/whets.c:226
        whetstones(xtra, x100, calibrate);
800001b8:	177000ef          	jal	ra,80000b2e <whetstones.constprop.0>
E:\VMshare\e203\zhengdian_E203\sdk\whetstone\Release/../application/whets.c:228
               (SPDP)(xtra));
800001bc:	8522                	mv	a0,s0
800001be:	6f4040ef          	jal	ra,800048b2 <__floatsisf>
E:\VMshare\e203\zhengdian_E203\sdk\whetstone\Release/../application/whets.c:227
        printf("%11.2f Seconds %10.0lf   Passes (x 100)\n", TimeUsed,
800001c2:	11b040ef          	jal	ra,80004adc <__extendsfdf2>
800001c6:	8c2a                	mv	s8,a0
800001c8:	4088                	lw	a0,0(s1)
800001ca:	892e                	mv	s2,a1
E:\VMshare\e203\zhengdian_E203\sdk\whetstone\Release/../application/whets.c:229
        calibrate++;
800001cc:	00298a13          	addi	s4,s3,2
E:\VMshare\e203\zhengdian_E203\sdk\whetstone\Release/../application/whets.c:227
        printf("%11.2f Seconds %10.0lf   Passes (x 100)\n", TimeUsed,
800001d0:	10d040ef          	jal	ra,80004adc <__extendsfdf2>
800001d4:	862a                	mv	a2,a0
800001d6:	86ae                	mv	a3,a1
800001d8:	87ca                	mv	a5,s2
800001da:	8762                	mv	a4,s8
800001dc:	855a                	mv	a0,s6
800001de:	4ba050ef          	jal	ra,80005698 <iprintf>
E:\VMshare\e203\zhengdian_E203\sdk\whetstone\Release/../application/whets.c:235
        if (TimeUsed > 2.0)
800001e2:	0004a903          	lw	s2,0(s1)
800001e6:	85d6                	mv	a1,s5
800001e8:	854a                	mv	a0,s2
800001ea:	7ef030ef          	jal	ra,800041d8 <__gesf2>
E:\VMshare\e203\zhengdian_E203\sdk\whetstone\Release/../application/whets.c:240
            xtra = xtra * 5;
800001ee:	00241313          	slli	t1,s0,0x2
E:\VMshare\e203\zhengdian_E203\sdk\whetstone\Release/../application/whets.c:226
        whetstones(xtra, x100, calibrate);
800001f2:	85d2                	mv	a1,s4
E:\VMshare\e203\zhengdian_E203\sdk\whetstone\Release/../application/whets.c:235
        if (TimeUsed > 2.0)
800001f4:	04a04963          	bgtz	a0,80000246 <main+0x18e>
E:\VMshare\e203\zhengdian_E203\sdk\whetstone\Release/../application/whets.c:240
            xtra = xtra * 5;
800001f8:	941a                	add	s0,s0,t1
E:\VMshare\e203\zhengdian_E203\sdk\whetstone\Release/../application/whets.c:224
        TimeUsed = 0;
800001fa:	00000093          	li	ra,0
E:\VMshare\e203\zhengdian_E203\sdk\whetstone\Release/../application/whets.c:226
        whetstones(xtra, x100, calibrate);
800001fe:	8522                	mv	a0,s0
E:\VMshare\e203\zhengdian_E203\sdk\whetstone\Release/../application/whets.c:224
        TimeUsed = 0;
80000200:	0014a023          	sw	ra,0(s1)
E:\VMshare\e203\zhengdian_E203\sdk\whetstone\Release/../application/whets.c:226
        whetstones(xtra, x100, calibrate);
80000204:	12b000ef          	jal	ra,80000b2e <whetstones.constprop.0>
E:\VMshare\e203\zhengdian_E203\sdk\whetstone\Release/../application/whets.c:228
               (SPDP)(xtra));
80000208:	8522                	mv	a0,s0
8000020a:	6a8040ef          	jal	ra,800048b2 <__floatsisf>
E:\VMshare\e203\zhengdian_E203\sdk\whetstone\Release/../application/whets.c:227
        printf("%11.2f Seconds %10.0lf   Passes (x 100)\n", TimeUsed,
8000020e:	0cf040ef          	jal	ra,80004adc <__extendsfdf2>
80000212:	8c2a                	mv	s8,a0
80000214:	4088                	lw	a0,0(s1)
80000216:	892e                	mv	s2,a1
E:\VMshare\e203\zhengdian_E203\sdk\whetstone\Release/../application/whets.c:229
        calibrate++;
80000218:	098d                	addi	s3,s3,3
E:\VMshare\e203\zhengdian_E203\sdk\whetstone\Release/../application/whets.c:227
        printf("%11.2f Seconds %10.0lf   Passes (x 100)\n", TimeUsed,
8000021a:	0c3040ef          	jal	ra,80004adc <__extendsfdf2>
8000021e:	862a                	mv	a2,a0
80000220:	86ae                	mv	a3,a1
80000222:	87ca                	mv	a5,s2
80000224:	8762                	mv	a4,s8
80000226:	855a                	mv	a0,s6
80000228:	470050ef          	jal	ra,80005698 <iprintf>
E:\VMshare\e203\zhengdian_E203\sdk\whetstone\Release/../application/whets.c:235
        if (TimeUsed > 2.0)
8000022c:	0004a903          	lw	s2,0(s1)
80000230:	85d6                	mv	a1,s5
80000232:	854a                	mv	a0,s2
80000234:	7a5030ef          	jal	ra,800041d8 <__gesf2>
E:\VMshare\e203\zhengdian_E203\sdk\whetstone\Release/../application/whets.c:240
            xtra = xtra * 5;
80000238:	00241393          	slli	t2,s0,0x2
E:\VMshare\e203\zhengdian_E203\sdk\whetstone\Release/../application/whets.c:235
        if (TimeUsed > 2.0)
8000023c:	00a04563          	bgtz	a0,80000246 <main+0x18e>
E:\VMshare\e203\zhengdian_E203\sdk\whetstone\Release/../application/whets.c:240
            xtra = xtra * 5;
80000240:	941e                	add	s0,s0,t2
E:\VMshare\e203\zhengdian_E203\sdk\whetstone\Release/../application/whets.c:242
        }
    } while (count > 0);
80000242:	f37991e3          	bne	s3,s7,80000164 <main+0xac>
E:\VMshare\e203\zhengdian_E203\sdk\whetstone\Release/../application/whets.c:244

    if (TimeUsed > 0)
80000246:	00000593          	li	a1,0
8000024a:	854a                	mv	a0,s2
8000024c:	78d030ef          	jal	ra,800041d8 <__gesf2>
80000250:	00a05d63          	blez	a0,8000026a <main+0x1b2>
E:\VMshare\e203\zhengdian_E203\sdk\whetstone\Release/../application/whets.c:245
        xtra = (long)((SPDP)(duration * xtra) / TimeUsed);
80000254:	4529                	li	a0,10
80000256:	02a40533          	mul	a0,s0,a0
8000025a:	658040ef          	jal	ra,800048b2 <__floatsisf>
8000025e:	85ca                	mv	a1,s2
80000260:	4d1030ef          	jal	ra,80003f30 <__divsf3>
80000264:	5ee040ef          	jal	ra,80004852 <__fixsfsi>
80000268:	842a                	mv	s0,a0
E:\VMshare\e203\zhengdian_E203\sdk\whetstone\Release/../application/whets.c:246
    if (xtra < 1)
8000026a:	00804363          	bgtz	s0,80000270 <main+0x1b8>
8000026e:	4405                	li	s0,1
E:\VMshare\e203\zhengdian_E203\sdk\whetstone\Release/../application/whets.c:251
        xtra = 1;

    calibrate = 0;

    printf("\nUse %d  passes (x 100)\n", xtra);
80000270:	85a2                	mv	a1,s0
80000272:	0000a517          	auipc	a0,0xa
80000276:	90250513          	addi	a0,a0,-1790 # 80009b74 <__trunctfdf2+0x3ec>
8000027a:	41e050ef          	jal	ra,80005698 <iprintf>
E:\VMshare\e203\zhengdian_E203\sdk\whetstone\Release/../application/whets.c:252
    printf("\n          %s Precision C/C++ Whetstone Benchmark", Precision);
8000027e:	0000a597          	auipc	a1,0xa
80000282:	88e58593          	addi	a1,a1,-1906 # 80009b0c <__trunctfdf2+0x384>
80000286:	0000a517          	auipc	a0,0xa
8000028a:	90a50513          	addi	a0,a0,-1782 # 80009b90 <__trunctfdf2+0x408>
8000028e:	40a050ef          	jal	ra,80005698 <iprintf>
E:\VMshare\e203\zhengdian_E203\sdk\whetstone\Release/../application/whets.c:258

#ifdef PRECOMP
    printf("\n          Compiler  %s", precompiler);
    printf("\n          Options   %s\n", preoptions);
#else
    printf("\n");
80000292:	4529                	li	a0,10
80000294:	440050ef          	jal	ra,800056d4 <putchar>
E:\VMshare\e203\zhengdian_E203\sdk\whetstone\Release/../application/whets.c:261
#endif

    printf("\nLoop content                  Result              MFLOPS "
80000298:	0000a517          	auipc	a0,0xa
8000029c:	92c50513          	addi	a0,a0,-1748 # 80009bc4 <__trunctfdf2+0x43c>
800002a0:	5be050ef          	jal	ra,8000585e <puts>
E:\VMshare\e203\zhengdian_E203\sdk\whetstone\Release/../application/whets.c:265
           "     MOPS   Seconds\n\n");

    TimeUsed = 0;
    whetstones(xtra, x100, calibrate);
800002a4:	4581                	li	a1,0
E:\VMshare\e203\zhengdian_E203\sdk\whetstone\Release/../application/whets.c:264
    TimeUsed = 0;
800002a6:	00000613          	li	a2,0
E:\VMshare\e203\zhengdian_E203\sdk\whetstone\Release/../application/whets.c:265
    whetstones(xtra, x100, calibrate);
800002aa:	8522                	mv	a0,s0
E:\VMshare\e203\zhengdian_E203\sdk\whetstone\Release/../application/whets.c:264
    TimeUsed = 0;
800002ac:	c090                	sw	a2,0(s1)
E:\VMshare\e203\zhengdian_E203\sdk\whetstone\Release/../application/whets.c:265
    whetstones(xtra, x100, calibrate);
800002ae:	081000ef          	jal	ra,80000b2e <whetstones.constprop.0>
E:\VMshare\e203\zhengdian_E203\sdk\whetstone\Release/../application/whets.c:267

    printf("\nMWIPS            ");
800002b2:	0000a517          	auipc	a0,0xa
800002b6:	96250513          	addi	a0,a0,-1694 # 80009c14 <__trunctfdf2+0x48c>
800002ba:	3de050ef          	jal	ra,80005698 <iprintf>
E:\VMshare\e203\zhengdian_E203\sdk\whetstone\Release/../application/whets.c:268
    if (TimeUsed > 0) {
800002be:	0004aa83          	lw	s5,0(s1)
800002c2:	00000593          	li	a1,0
800002c6:	8556                	mv	a0,s5
800002c8:	711030ef          	jal	ra,800041d8 <__gesf2>
800002cc:	0ca05a63          	blez	a0,800003a0 <main+0x2e8>
E:\VMshare\e203\zhengdian_E203\sdk\whetstone\Release/../application/whets.c:269
        mwips = (float)(xtra) * (float)(x100) / (10 * TimeUsed);
800002d0:	8522                	mv	a0,s0
800002d2:	5e0040ef          	jal	ra,800048b2 <__floatsisf>
800002d6:	10000597          	auipc	a1,0x10000
800002da:	fb25a583          	lw	a1,-78(a1) # 90000288 <_impure_ptr+0xac>
800002de:	7eb030ef          	jal	ra,800042c8 <__mulsf3>
800002e2:	8baa                	mv	s7,a0
800002e4:	10000597          	auipc	a1,0x10000
800002e8:	f6c5a583          	lw	a1,-148(a1) # 90000250 <_impure_ptr+0x74>
800002ec:	8556                	mv	a0,s5
800002ee:	7db030ef          	jal	ra,800042c8 <__mulsf3>
800002f2:	85aa                	mv	a1,a0
800002f4:	855e                	mv	a0,s7
800002f6:	43b030ef          	jal	ra,80003f30 <__divsf3>
800002fa:	8b2a                	mv	s6,a0
800002fc:	9f018a13          	addi	s4,gp,-1552 # 900003c0 <mwips>
E:\VMshare\e203\zhengdian_E203\sdk\whetstone\Release/../application/whets.c:274
    } else {
        mwips = 0;
    }

    printf("%39.3f%19.3f\n\n", mwips, TimeUsed);
80000300:	8556                	mv	a0,s5
80000302:	016a2023          	sw	s6,0(s4)
80000306:	7d6040ef          	jal	ra,80004adc <__extendsfdf2>
8000030a:	8c2a                	mv	s8,a0
8000030c:	855a                	mv	a0,s6
8000030e:	892e                	mv	s2,a1
80000310:	7cc040ef          	jal	ra,80004adc <__extendsfdf2>
80000314:	862a                	mv	a2,a0
80000316:	86ae                	mv	a3,a1
80000318:	8762                	mv	a4,s8
8000031a:	87ca                	mv	a5,s2
8000031c:	0000a517          	auipc	a0,0xa
80000320:	90c50513          	addi	a0,a0,-1780 # 80009c28 <__trunctfdf2+0x4a0>
80000324:	374050ef          	jal	ra,80005698 <iprintf>
E:\VMshare\e203\zhengdian_E203\sdk\whetstone\Release/../application/whets.c:276

    printf("\nMWIPS/MHz        ");
80000328:	0000a517          	auipc	a0,0xa
8000032c:	91050513          	addi	a0,a0,-1776 # 80009c38 <__trunctfdf2+0x4b0>
80000330:	368050ef          	jal	ra,80005698 <iprintf>
E:\VMshare\e203\zhengdian_E203\sdk\whetstone\Release/../application/whets.c:278

    printf("%39.3f%19.3f\n\n", mwips / SystemCoreClock * 1000000, TimeUsed);
80000334:	4088                	lw	a0,0(s1)
80000336:	7a6040ef          	jal	ra,80004adc <__extendsfdf2>
8000033a:	84aa                	mv	s1,a0
8000033c:	10000517          	auipc	a0,0x10000
80000340:	e9852503          	lw	a0,-360(a0) # 900001d4 <SystemCoreClock>
80000344:	89ae                	mv	s3,a1
80000346:	626040ef          	jal	ra,8000496c <__floatunsisf>
8000034a:	85aa                	mv	a1,a0
8000034c:	000a2503          	lw	a0,0(s4)
80000350:	3e1030ef          	jal	ra,80003f30 <__divsf3>
80000354:	10000597          	auipc	a1,0x10000
80000358:	f045a583          	lw	a1,-252(a1) # 90000258 <_impure_ptr+0x7c>
8000035c:	76d030ef          	jal	ra,800042c8 <__mulsf3>
80000360:	77c040ef          	jal	ra,80004adc <__extendsfdf2>
80000364:	862a                	mv	a2,a0
80000366:	86ae                	mv	a3,a1
80000368:	8726                	mv	a4,s1
8000036a:	87ce                	mv	a5,s3
8000036c:	0000a517          	auipc	a0,0xa
80000370:	8bc50513          	addi	a0,a0,-1860 # 80009c28 <__trunctfdf2+0x4a0>
80000374:	324050ef          	jal	ra,80005698 <iprintf>
E:\VMshare\e203\zhengdian_E203\sdk\whetstone\Release/../application/whets.c:279
    if (Check == 0)
80000378:	00000593          	li	a1,0
8000037c:	9e81a503          	lw	a0,-1560(gp) # 900003b8 <Check>
80000380:	605030ef          	jal	ra,80004184 <__eqsf2>
80000384:	c10d                	beqz	a0,800003a6 <main+0x2ee>
E:\VMshare\e203\zhengdian_E203\sdk\whetstone\Release/../application/whets.c:283
        printf("Wrong answer  ");

    return 0;
}
80000386:	50b2                	lw	ra,44(sp)
80000388:	5422                	lw	s0,40(sp)
8000038a:	5492                	lw	s1,36(sp)
8000038c:	5902                	lw	s2,32(sp)
8000038e:	49f2                	lw	s3,28(sp)
80000390:	4a62                	lw	s4,24(sp)
80000392:	4ad2                	lw	s5,20(sp)
80000394:	4b42                	lw	s6,16(sp)
80000396:	4bb2                	lw	s7,12(sp)
80000398:	4c22                	lw	s8,8(sp)
8000039a:	4501                	li	a0,0
8000039c:	6145                	addi	sp,sp,48
8000039e:	8082                	ret
E:\VMshare\e203\zhengdian_E203\sdk\whetstone\Release/../application/whets.c:271
        mwips = 0;
800003a0:	00000b13          	li	s6,0
800003a4:	bfa1                	j	800002fc <main+0x244>
E:\VMshare\e203\zhengdian_E203\sdk\whetstone\Release/../application/whets.c:280
        printf("Wrong answer  ");
800003a6:	0000a517          	auipc	a0,0xa
800003aa:	8a650513          	addi	a0,a0,-1882 # 80009c4c <__trunctfdf2+0x4c4>
800003ae:	2ea050ef          	jal	ra,80005698 <iprintf>
800003b2:	bfd1                	j	80000386 <main+0x2ce>

800003b4 <_close>:
_close():
E:\VMshare\e203\zhengdian_E203\sdk\whetstone\Release/../hbird_sdk/SoC/hbirdv2/Common/Source/Stubs/close.c:10
#undef errno
extern int errno;

__WEAK int _close(int fd)
{
    errno = EBADF;
800003b4:	47a5                	li	a5,9
800003b6:	9ef1aa23          	sw	a5,-1548(gp) # 900003c4 <errno>
E:\VMshare\e203\zhengdian_E203\sdk\whetstone\Release/../hbird_sdk/SoC/hbirdv2/Common/Source/Stubs/close.c:12
    return -1;
}
800003ba:	557d                	li	a0,-1
800003bc:	8082                	ret

800003be <_exit>:
__WFI():
E:\VMshare\e203\zhengdian_E203\sdk\whetstone\hbird_sdk\NMSIS\Core\Include/core_feature_base.h:598 (discriminator 1)
 * the hardware platform that suitable interrupts should
 * preferentially be routed to this hart.
 */
__STATIC_FORCEINLINE void __WFI(void)
{
    __ASM volatile("wfi");
800003be:	10500073          	wfi
800003c2:	bff5                	j	800003be <_exit>

800003c4 <_fstat>:
_fstat():
E:\VMshare\e203\zhengdian_E203\sdk\whetstone\Release/../hbird_sdk/SoC/hbirdv2/Common/Source/Stubs/fstat.c:12
#undef errno
extern int errno;

__WEAK int _fstat(int file, struct stat *st)
{
    if ((STDOUT_FILENO == file) || (STDERR_FILENO == file)) {
800003c4:	157d                	addi	a0,a0,-1
800003c6:	4785                	li	a5,1
800003c8:	00a7e763          	bltu	a5,a0,800003d6 <_fstat+0x12>
E:\VMshare\e203\zhengdian_E203\sdk\whetstone\Release/../hbird_sdk/SoC/hbirdv2/Common/Source/Stubs/fstat.c:13
        st->st_mode = S_IFCHR;
800003cc:	6309                	lui	t1,0x2
800003ce:	0065a223          	sw	t1,4(a1)
E:\VMshare\e203\zhengdian_E203\sdk\whetstone\Release/../hbird_sdk/SoC/hbirdv2/Common/Source/Stubs/fstat.c:14
        return 0;
800003d2:	4501                	li	a0,0
800003d4:	8082                	ret
E:\VMshare\e203\zhengdian_E203\sdk\whetstone\Release/../hbird_sdk/SoC/hbirdv2/Common/Source/Stubs/fstat.c:16
    } else {
        errno = EBADF;
800003d6:	42a5                	li	t0,9
800003d8:	9e51aa23          	sw	t0,-1548(gp) # 900003c4 <errno>
E:\VMshare\e203\zhengdian_E203\sdk\whetstone\Release/../hbird_sdk/SoC/hbirdv2/Common/Source/Stubs/fstat.c:17
        return -1;
800003dc:	557d                	li	a0,-1
E:\VMshare\e203\zhengdian_E203\sdk\whetstone\Release/../hbird_sdk/SoC/hbirdv2/Common/Source/Stubs/fstat.c:19
    }
}
800003de:	8082                	ret

800003e0 <_getpid>:
_getpid():
E:\VMshare\e203\zhengdian_E203\sdk\whetstone\Release/../hbird_sdk/SoC/hbirdv2/Common/Source/Stubs/getpid.c:8
#include <errno.h>

__WEAK int _getpid(void)
{
    return 1;
}
800003e0:	4505                	li	a0,1
800003e2:	8082                	ret

800003e4 <_isatty>:
_isatty():
E:\VMshare\e203\zhengdian_E203\sdk\whetstone\Release/../hbird_sdk/SoC/hbirdv2/Common/Source/Stubs/isatty.c:8
#include <unistd.h>

__WEAK int _isatty(int fd)
{
    return 1;
}
800003e4:	4505                	li	a0,1
800003e6:	8082                	ret

800003e8 <_kill>:
_kill():
E:\VMshare\e203\zhengdian_E203\sdk\whetstone\Release/../hbird_sdk/SoC/hbirdv2/Common/Source/Stubs/kill.c:9
#undef errno
extern int errno;

__WEAK int _kill(int pid, int sig)
{
    errno = EINVAL;
800003e8:	47d9                	li	a5,22
800003ea:	9ef1aa23          	sw	a5,-1548(gp) # 900003c4 <errno>
E:\VMshare\e203\zhengdian_E203\sdk\whetstone\Release/../hbird_sdk/SoC/hbirdv2/Common/Source/Stubs/kill.c:11
    return -1;
}
800003ee:	557d                	li	a0,-1
800003f0:	8082                	ret

800003f2 <_lseek>:
_lseek():
E:\VMshare\e203\zhengdian_E203\sdk\whetstone\Release/../hbird_sdk/SoC/hbirdv2/Common/Source/Stubs/lseek.c:11
extern int errno;

__WEAK int _lseek(int file, int offset, int whence)
{
    return 0;
}
800003f2:	4501                	li	a0,0
800003f4:	8082                	ret

800003f6 <_read>:
_read():
E:\VMshare\e203\zhengdian_E203\sdk\whetstone\Release/../hbird_sdk/SoC/hbirdv2/Common/Source/Stubs/read.c:12

// #define UART_AUTO_ECHO

__WEAK ssize_t _read(int fd, void* ptr, size_t len)
{
    if (fd != STDIN_FILENO) {
800003f6:	c119                	beqz	a0,800003fc <_read+0x6>
E:\VMshare\e203\zhengdian_E203\sdk\whetstone\Release/../hbird_sdk/SoC/hbirdv2/Common/Source/Stubs/read.c:13
        return -1;
800003f8:	557d                	li	a0,-1
E:\VMshare\e203\zhengdian_E203\sdk\whetstone\Release/../hbird_sdk/SoC/hbirdv2/Common/Source/Stubs/read.c:22
    readbuf[0] = uart_read(SOC_DEBUG_UART);
#ifdef UART_AUTO_ECHO
    uart_write(SOC_DEBUG_UART, readbuf[0]);
#endif
    return 1;
}
800003fa:	8082                	ret
E:\VMshare\e203\zhengdian_E203\sdk\whetstone\Release/../hbird_sdk/SoC/hbirdv2/Common/Source/Stubs/read.c:11
{
800003fc:	1141                	addi	sp,sp,-16
E:\VMshare\e203\zhengdian_E203\sdk\whetstone\Release/../hbird_sdk/SoC/hbirdv2/Common/Source/Stubs/read.c:17
    readbuf[0] = uart_read(SOC_DEBUG_UART);
800003fe:	10013537          	lui	a0,0x10013
E:\VMshare\e203\zhengdian_E203\sdk\whetstone\Release/../hbird_sdk/SoC/hbirdv2/Common/Source/Stubs/read.c:11
{
80000402:	c422                	sw	s0,8(sp)
80000404:	c606                	sw	ra,12(sp)
80000406:	842e                	mv	s0,a1
E:\VMshare\e203\zhengdian_E203\sdk\whetstone\Release/../hbird_sdk/SoC/hbirdv2/Common/Source/Stubs/read.c:17
    readbuf[0] = uart_read(SOC_DEBUG_UART);
80000408:	2abd                	jal	80000586 <uart_read>
8000040a:	00a40023          	sb	a0,0(s0)
E:\VMshare\e203\zhengdian_E203\sdk\whetstone\Release/../hbird_sdk/SoC/hbirdv2/Common/Source/Stubs/read.c:22
}
8000040e:	40b2                	lw	ra,12(sp)
80000410:	4422                	lw	s0,8(sp)
E:\VMshare\e203\zhengdian_E203\sdk\whetstone\Release/../hbird_sdk/SoC/hbirdv2/Common/Source/Stubs/read.c:21
    return 1;
80000412:	4505                	li	a0,1
E:\VMshare\e203\zhengdian_E203\sdk\whetstone\Release/../hbird_sdk/SoC/hbirdv2/Common/Source/Stubs/read.c:22
}
80000414:	0141                	addi	sp,sp,16
80000416:	8082                	ret

80000418 <_sbrk>:
_sbrk():
E:\VMshare\e203\zhengdian_E203\sdk\whetstone\Release/../hbird_sdk/SoC/hbirdv2/Common/Source/Stubs/sbrk.c:13
{
    extern char _end[];
    extern char _heap_end[];
    static char *curbrk = _end;

    if ((curbrk + incr < _end) || (curbrk + incr > _heap_end)) {
80000418:	10000717          	auipc	a4,0x10000
8000041c:	db870713          	addi	a4,a4,-584 # 900001d0 <curbrk.0>
80000420:	431c                	lw	a5,0(a4)
80000422:	c1818693          	addi	a3,gp,-1000 # 900005e8 <_end>
80000426:	953e                	add	a0,a0,a5
80000428:	00d56b63          	bltu	a0,a3,8000043e <_sbrk+0x26>
E:\VMshare\e203\zhengdian_E203\sdk\whetstone\Release/../hbird_sdk/SoC/hbirdv2/Common/Source/Stubs/sbrk.c:13 (discriminator 1)
8000042c:	1000f297          	auipc	t0,0x1000f
80000430:	3d428293          	addi	t0,t0,980 # 9000f800 <_heap_end>
80000434:	00a2e563          	bltu	t0,a0,8000043e <_sbrk+0x26>
E:\VMshare\e203\zhengdian_E203\sdk\whetstone\Release/../hbird_sdk/SoC/hbirdv2/Common/Source/Stubs/sbrk.c:17
        return (void *)(-1);
    }

    curbrk += incr;
80000438:	c308                	sw	a0,0(a4)
E:\VMshare\e203\zhengdian_E203\sdk\whetstone\Release/../hbird_sdk/SoC/hbirdv2/Common/Source/Stubs/sbrk.c:19
    return (void *)(curbrk - incr);
}
8000043a:	853e                	mv	a0,a5
8000043c:	8082                	ret
E:\VMshare\e203\zhengdian_E203\sdk\whetstone\Release/../hbird_sdk/SoC/hbirdv2/Common/Source/Stubs/sbrk.c:14
        return (void *)(-1);
8000043e:	57fd                	li	a5,-1
E:\VMshare\e203\zhengdian_E203\sdk\whetstone\Release/../hbird_sdk/SoC/hbirdv2/Common/Source/Stubs/sbrk.c:19
}
80000440:	853e                	mv	a0,a5
80000442:	8082                	ret

80000444 <_write>:
_write():
E:\VMshare\e203\zhengdian_E203\sdk\whetstone\Release/../hbird_sdk/SoC/hbirdv2/Common/Source/Stubs/write.c:9
#include <unistd.h>
#include <sys/types.h>
#include <hbird_sdk_hal.h>

__WEAK ssize_t _write(int fd, const void* ptr, size_t len)
{
80000444:	1101                	addi	sp,sp,-32
80000446:	cc22                	sw	s0,24(sp)
80000448:	c64e                	sw	s3,12(sp)
8000044a:	ce06                	sw	ra,28(sp)
8000044c:	ca26                	sw	s1,20(sp)
8000044e:	c84a                	sw	s2,16(sp)
80000450:	842e                	mv	s0,a1
80000452:	89b2                	mv	s3,a2
E:\VMshare\e203\zhengdian_E203\sdk\whetstone\Release/../hbird_sdk/SoC/hbirdv2/Common/Source/Stubs/write.c:10
    if (!isatty(fd)) {
80000454:	426050ef          	jal	ra,8000587a <isatty>
80000458:	c139                	beqz	a0,8000049e <_write+0x5a>
E:\VMshare\e203\zhengdian_E203\sdk\whetstone\Release/../hbird_sdk/SoC/hbirdv2/Common/Source/Stubs/write.c:15
        return -1;
    }

    const uint8_t *writebuf = (const uint8_t *)ptr;
    for (size_t i = 0; i < len; i++) {
8000045a:	01340933          	add	s2,s0,s3
E:\VMshare\e203\zhengdian_E203\sdk\whetstone\Release/../hbird_sdk/SoC/hbirdv2/Common/Source/Stubs/write.c:16
        if (writebuf[i] == '\n') {
8000045e:	44a9                	li	s1,10
E:\VMshare\e203\zhengdian_E203\sdk\whetstone\Release/../hbird_sdk/SoC/hbirdv2/Common/Source/Stubs/write.c:15
    for (size_t i = 0; i < len; i++) {
80000460:	00098c63          	beqz	s3,80000478 <_write+0x34>
E:\VMshare\e203\zhengdian_E203\sdk\whetstone\Release/../hbird_sdk/SoC/hbirdv2/Common/Source/Stubs/write.c:16
        if (writebuf[i] == '\n') {
80000464:	00044583          	lbu	a1,0(s0)
E:\VMshare\e203\zhengdian_E203\sdk\whetstone\Release/../hbird_sdk/SoC/hbirdv2/Common/Source/Stubs/write.c:19
            uart_write(SOC_DEBUG_UART, '\r');
        }
        uart_write(SOC_DEBUG_UART, writebuf[i]);
80000468:	10013537          	lui	a0,0x10013
E:\VMshare\e203\zhengdian_E203\sdk\whetstone\Release/../hbird_sdk/SoC/hbirdv2/Common/Source/Stubs/write.c:16
        if (writebuf[i] == '\n') {
8000046c:	00958e63          	beq	a1,s1,80000488 <_write+0x44>
E:\VMshare\e203\zhengdian_E203\sdk\whetstone\Release/../hbird_sdk/SoC/hbirdv2/Common/Source/Stubs/write.c:15 (discriminator 2)
    for (size_t i = 0; i < len; i++) {
80000470:	0405                	addi	s0,s0,1
E:\VMshare\e203\zhengdian_E203\sdk\whetstone\Release/../hbird_sdk/SoC/hbirdv2/Common/Source/Stubs/write.c:19 (discriminator 2)
        uart_write(SOC_DEBUG_UART, writebuf[i]);
80000472:	28fd                	jal	80000570 <uart_write>
E:\VMshare\e203\zhengdian_E203\sdk\whetstone\Release/../hbird_sdk/SoC/hbirdv2/Common/Source/Stubs/write.c:15 (discriminator 2)
    for (size_t i = 0; i < len; i++) {
80000474:	ff2418e3          	bne	s0,s2,80000464 <_write+0x20>
E:\VMshare\e203\zhengdian_E203\sdk\whetstone\Release/../hbird_sdk/SoC/hbirdv2/Common/Source/Stubs/write.c:21
    }
    return len;
80000478:	854e                	mv	a0,s3
E:\VMshare\e203\zhengdian_E203\sdk\whetstone\Release/../hbird_sdk/SoC/hbirdv2/Common/Source/Stubs/write.c:22
}
8000047a:	40f2                	lw	ra,28(sp)
8000047c:	4462                	lw	s0,24(sp)
8000047e:	44d2                	lw	s1,20(sp)
80000480:	4942                	lw	s2,16(sp)
80000482:	49b2                	lw	s3,12(sp)
80000484:	6105                	addi	sp,sp,32
80000486:	8082                	ret
E:\VMshare\e203\zhengdian_E203\sdk\whetstone\Release/../hbird_sdk/SoC/hbirdv2/Common/Source/Stubs/write.c:17
            uart_write(SOC_DEBUG_UART, '\r');
80000488:	45b5                	li	a1,13
8000048a:	20dd                	jal	80000570 <uart_write>
E:\VMshare\e203\zhengdian_E203\sdk\whetstone\Release/../hbird_sdk/SoC/hbirdv2/Common/Source/Stubs/write.c:19
        uart_write(SOC_DEBUG_UART, writebuf[i]);
8000048c:	00044583          	lbu	a1,0(s0)
80000490:	10013537          	lui	a0,0x10013
E:\VMshare\e203\zhengdian_E203\sdk\whetstone\Release/../hbird_sdk/SoC/hbirdv2/Common/Source/Stubs/write.c:15
    for (size_t i = 0; i < len; i++) {
80000494:	0405                	addi	s0,s0,1
E:\VMshare\e203\zhengdian_E203\sdk\whetstone\Release/../hbird_sdk/SoC/hbirdv2/Common/Source/Stubs/write.c:19
        uart_write(SOC_DEBUG_UART, writebuf[i]);
80000496:	28e9                	jal	80000570 <uart_write>
E:\VMshare\e203\zhengdian_E203\sdk\whetstone\Release/../hbird_sdk/SoC/hbirdv2/Common/Source/Stubs/write.c:15
    for (size_t i = 0; i < len; i++) {
80000498:	fc8916e3          	bne	s2,s0,80000464 <_write+0x20>
8000049c:	bff1                	j	80000478 <_write+0x34>
E:\VMshare\e203\zhengdian_E203\sdk\whetstone\Release/../hbird_sdk/SoC/hbirdv2/Common/Source/Stubs/write.c:11
        return -1;
8000049e:	557d                	li	a0,-1
800004a0:	bfe9                	j	8000047a <_write+0x36>
	...

800004a4 <trap_entry>:
trap_entry():
E:\VMshare\e203\zhengdian_E203\sdk\whetstone\Release/../hbird_sdk/SoC/hbirdv2/Common/Source/GCC/intexc_hbirdv2.S:159
.align 2
.global trap_entry
.weak trap_entry
trap_entry:
    /* Save the caller saving registers (context) */
    SAVE_CONTEXT
800004a4:	715d                	addi	sp,sp,-80
800004a6:	c006                	sw	ra,0(sp)
800004a8:	c212                	sw	tp,4(sp)
800004aa:	c416                	sw	t0,8(sp)
800004ac:	c61a                	sw	t1,12(sp)
800004ae:	c81e                	sw	t2,16(sp)
800004b0:	ca2a                	sw	a0,20(sp)
800004b2:	cc2e                	sw	a1,24(sp)
800004b4:	ce32                	sw	a2,28(sp)
800004b6:	d036                	sw	a3,32(sp)
800004b8:	d23a                	sw	a4,36(sp)
800004ba:	d43e                	sw	a5,40(sp)
800004bc:	dc42                	sw	a6,56(sp)
800004be:	de46                	sw	a7,60(sp)
800004c0:	c0f2                	sw	t3,64(sp)
800004c2:	c2f6                	sw	t4,68(sp)
800004c4:	c4fa                	sw	t5,72(sp)
800004c6:	c6fe                	sw	t6,76(sp)
E:\VMshare\e203\zhengdian_E203\sdk\whetstone\Release/../hbird_sdk/SoC/hbirdv2/Common/Source/GCC/intexc_hbirdv2.S:161
    /* Save the necessary CSR registers */
    SAVE_CSR_CONTEXT
800004c8:	341022f3          	csrr	t0,mepc
800004cc:	d616                	sw	t0,44(sp)
800004ce:	342022f3          	csrr	t0,mcause
800004d2:	d816                	sw	t0,48(sp)
800004d4:	300022f3          	csrr	t0,mstatus
800004d8:	da16                	sw	t0,52(sp)
E:\VMshare\e203\zhengdian_E203\sdk\whetstone\Release/../hbird_sdk/SoC/hbirdv2/Common/Source/GCC/intexc_hbirdv2.S:168
    /*
     * Set the exception handler function arguments
     * argument 1: mcause value
     * argument 2: current stack point(SP) value
     */
    csrr a0, mcause
800004da:	34202573          	csrr	a0,mcause
E:\VMshare\e203\zhengdian_E203\sdk\whetstone\Release/../hbird_sdk/SoC/hbirdv2/Common/Source/GCC/intexc_hbirdv2.S:169
    mv a1, sp
800004de:	858a                	mv	a1,sp
E:\VMshare\e203\zhengdian_E203\sdk\whetstone\Release/../hbird_sdk/SoC/hbirdv2/Common/Source/GCC/intexc_hbirdv2.S:175
    /*
     * TODO: Call the trap handler function
     * By default, the function template is provided in
     * system_Device.c, you can adjust it as you want
     */
    call core_trap_handler
800004e0:	2419                	jal	800006e6 <core_trap_handler>
E:\VMshare\e203\zhengdian_E203\sdk\whetstone\Release/../hbird_sdk/SoC/hbirdv2/Common/Source/GCC/intexc_hbirdv2.S:178

    /* Restore the necessary CSR registers */
    RESTORE_CSR_CONTEXT
800004e2:	52b2                	lw	t0,44(sp)
800004e4:	34129073          	csrw	mepc,t0
800004e8:	52c2                	lw	t0,48(sp)
800004ea:	34229073          	csrw	mcause,t0
800004ee:	52d2                	lw	t0,52(sp)
800004f0:	30029073          	csrw	mstatus,t0
E:\VMshare\e203\zhengdian_E203\sdk\whetstone\Release/../hbird_sdk/SoC/hbirdv2/Common/Source/GCC/intexc_hbirdv2.S:180
    /* Restore the caller saving registers (context) */
    RESTORE_CONTEXT
800004f4:	4082                	lw	ra,0(sp)
800004f6:	4212                	lw	tp,4(sp)
800004f8:	42a2                	lw	t0,8(sp)
800004fa:	4332                	lw	t1,12(sp)
800004fc:	43c2                	lw	t2,16(sp)
800004fe:	4552                	lw	a0,20(sp)
80000500:	45e2                	lw	a1,24(sp)
80000502:	4672                	lw	a2,28(sp)
80000504:	5682                	lw	a3,32(sp)
80000506:	5712                	lw	a4,36(sp)
80000508:	57a2                	lw	a5,40(sp)
8000050a:	5862                	lw	a6,56(sp)
8000050c:	58f2                	lw	a7,60(sp)
8000050e:	4e06                	lw	t3,64(sp)
80000510:	4e96                	lw	t4,68(sp)
80000512:	4f26                	lw	t5,72(sp)
80000514:	4fb6                	lw	t6,76(sp)
80000516:	6161                	addi	sp,sp,80
E:\VMshare\e203\zhengdian_E203\sdk\whetstone\Release/../hbird_sdk/SoC/hbirdv2/Common/Source/GCC/intexc_hbirdv2.S:183

    /* Return to regular code */
    mret
80000518:	30200073          	mret

8000051c <gpio_iof_config>:
gpio_iof_config():
E:\VMshare\e203\zhengdian_E203\sdk\whetstone\Release/../hbird_sdk/SoC/hbirdv2/Common/Source/Drivers/hbirdv2_gpio.c:5
#include "hbirdv2.h"
#include "hbirdv2_gpio.h"

int32_t gpio_iof_config(GPIO_TypeDef *gpio, uint32_t mask)
{
8000051c:	87aa                	mv	a5,a0
E:\VMshare\e203\zhengdian_E203\sdk\whetstone\Release/../hbird_sdk/SoC/hbirdv2/Common/Source/Drivers/hbirdv2_gpio.c:6
    if (__RARELY(gpio == NULL)) {
8000051e:	c511                	beqz	a0,8000052a <gpio_iof_config+0xe>
E:\VMshare\e203\zhengdian_E203\sdk\whetstone\Release/../hbird_sdk/SoC/hbirdv2/Common/Source/Drivers/hbirdv2_gpio.c:9
        return -1;
    }
    gpio->IOFCFG |= mask;
80000520:	4d58                	lw	a4,28(a0)
E:\VMshare\e203\zhengdian_E203\sdk\whetstone\Release/../hbird_sdk/SoC/hbirdv2/Common/Source/Drivers/hbirdv2_gpio.c:11

    return 0;
80000522:	4501                	li	a0,0
E:\VMshare\e203\zhengdian_E203\sdk\whetstone\Release/../hbird_sdk/SoC/hbirdv2/Common/Source/Drivers/hbirdv2_gpio.c:9
    gpio->IOFCFG |= mask;
80000524:	8dd9                	or	a1,a1,a4
80000526:	cfcc                	sw	a1,28(a5)
E:\VMshare\e203\zhengdian_E203\sdk\whetstone\Release/../hbird_sdk/SoC/hbirdv2/Common/Source/Drivers/hbirdv2_gpio.c:11
    return 0;
80000528:	8082                	ret
E:\VMshare\e203\zhengdian_E203\sdk\whetstone\Release/../hbird_sdk/SoC/hbirdv2/Common/Source/Drivers/hbirdv2_gpio.c:7
        return -1;
8000052a:	557d                	li	a0,-1
E:\VMshare\e203\zhengdian_E203\sdk\whetstone\Release/../hbird_sdk/SoC/hbirdv2/Common/Source/Drivers/hbirdv2_gpio.c:12
}
8000052c:	8082                	ret

8000052e <uart_init>:
uart_init():
E:\VMshare\e203\zhengdian_E203\sdk\whetstone\Release/../hbird_sdk/SoC/hbirdv2/Common/Source/Drivers/hbirdv2_uart.c:5
#include "hbirdv2.h"
#include "hbirdv2_uart.h"

int32_t uart_init(UART_TypeDef *uart, uint32_t baudrate)
{
8000052e:	87aa                	mv	a5,a0
E:\VMshare\e203\zhengdian_E203\sdk\whetstone\Release/../hbird_sdk/SoC/hbirdv2/Common/Source/Drivers/hbirdv2_uart.c:6
    if (__RARELY(uart == NULL)) {
80000530:	cd15                	beqz	a0,8000056c <uart_init+0x3e>
E:\VMshare\e203\zhengdian_E203\sdk\whetstone\Release/../hbird_sdk/SoC/hbirdv2/Common/Source/Drivers/hbirdv2_uart.c:10
        return -1;
    }

    unsigned int uart_div = SystemCoreClock / baudrate - 1;
80000532:	10000717          	auipc	a4,0x10000
80000536:	ca272703          	lw	a4,-862(a4) # 900001d4 <SystemCoreClock>
8000053a:	02b755b3          	divu	a1,a4,a1
E:\VMshare\e203\zhengdian_E203\sdk\whetstone\Release/../hbird_sdk/SoC/hbirdv2/Common/Source/Drivers/hbirdv2_uart.c:11
    uart->LCR = 0x80;
8000053e:	08000293          	li	t0,128
80000542:	00552623          	sw	t0,12(a0) # 1001300c <__stack_size+0x1001280c>
E:\VMshare\e203\zhengdian_E203\sdk\whetstone\Release/../hbird_sdk/SoC/hbirdv2/Common/Source/Drivers/hbirdv2_uart.c:14
    uart->DLM = (uart_div >> 8) & 0xFF;
    uart->DLL = uart_div        & 0xFF;
    uart->FCR = 0xC6;
80000546:	0c600813          	li	a6,198
E:\VMshare\e203\zhengdian_E203\sdk\whetstone\Release/../hbird_sdk/SoC/hbirdv2/Common/Source/Drivers/hbirdv2_uart.c:15
    uart->LCR = 0x03;
8000054a:	488d                	li	a7,3
E:\VMshare\e203\zhengdian_E203\sdk\whetstone\Release/../hbird_sdk/SoC/hbirdv2/Common/Source/Drivers/hbirdv2_uart.c:17

    return 0;
8000054c:	4501                	li	a0,0
E:\VMshare\e203\zhengdian_E203\sdk\whetstone\Release/../hbird_sdk/SoC/hbirdv2/Common/Source/Drivers/hbirdv2_uart.c:10
    unsigned int uart_div = SystemCoreClock / baudrate - 1;
8000054e:	fff58313          	addi	t1,a1,-1
E:\VMshare\e203\zhengdian_E203\sdk\whetstone\Release/../hbird_sdk/SoC/hbirdv2/Common/Source/Drivers/hbirdv2_uart.c:12
    uart->DLM = (uart_div >> 8) & 0xFF;
80000552:	00835393          	srli	t2,t1,0x8
80000556:	0ff3f613          	andi	a2,t2,255
8000055a:	c3d0                	sw	a2,4(a5)
E:\VMshare\e203\zhengdian_E203\sdk\whetstone\Release/../hbird_sdk/SoC/hbirdv2/Common/Source/Drivers/hbirdv2_uart.c:13
    uart->DLL = uart_div        & 0xFF;
8000055c:	0ff37693          	andi	a3,t1,255
80000560:	c394                	sw	a3,0(a5)
E:\VMshare\e203\zhengdian_E203\sdk\whetstone\Release/../hbird_sdk/SoC/hbirdv2/Common/Source/Drivers/hbirdv2_uart.c:14
    uart->FCR = 0xC6;
80000562:	0107a423          	sw	a6,8(a5)
E:\VMshare\e203\zhengdian_E203\sdk\whetstone\Release/../hbird_sdk/SoC/hbirdv2/Common/Source/Drivers/hbirdv2_uart.c:15
    uart->LCR = 0x03;
80000566:	0117a623          	sw	a7,12(a5)
E:\VMshare\e203\zhengdian_E203\sdk\whetstone\Release/../hbird_sdk/SoC/hbirdv2/Common/Source/Drivers/hbirdv2_uart.c:17
    return 0;
8000056a:	8082                	ret
E:\VMshare\e203\zhengdian_E203\sdk\whetstone\Release/../hbird_sdk/SoC/hbirdv2/Common/Source/Drivers/hbirdv2_uart.c:7
        return -1;
8000056c:	557d                	li	a0,-1
E:\VMshare\e203\zhengdian_E203\sdk\whetstone\Release/../hbird_sdk/SoC/hbirdv2/Common/Source/Drivers/hbirdv2_uart.c:18
}
8000056e:	8082                	ret

80000570 <uart_write>:
uart_write():
E:\VMshare\e203\zhengdian_E203\sdk\whetstone\Release/../hbird_sdk/SoC/hbirdv2/Common/Source/Drivers/hbirdv2_uart.c:68
    return 0;
}

int32_t uart_write(UART_TypeDef *uart, uint8_t val)
{
    if (__RARELY(uart == NULL)) {
80000570:	c909                	beqz	a0,80000582 <uart_write+0x12>
E:\VMshare\e203\zhengdian_E203\sdk\whetstone\Release/../hbird_sdk/SoC/hbirdv2/Common/Source/Drivers/hbirdv2_uart.c:73 (discriminator 1)
        return -1;
    }
#ifndef SIMULATION_SPIKE
#ifndef SIMULATION_XLSPIKE
    while ((uart->LSR & 0x20) == 0);
80000572:	495c                	lw	a5,20(a0)
80000574:	0207f293          	andi	t0,a5,32
80000578:	fe028de3          	beqz	t0,80000572 <uart_write+0x2>
E:\VMshare\e203\zhengdian_E203\sdk\whetstone\Release/../hbird_sdk/SoC/hbirdv2/Common/Source/Drivers/hbirdv2_uart.c:75
#endif
    uart->THR = val;
8000057c:	c10c                	sw	a1,0(a0)
E:\VMshare\e203\zhengdian_E203\sdk\whetstone\Release/../hbird_sdk/SoC/hbirdv2/Common/Source/Drivers/hbirdv2_uart.c:80
#else
    extern void htif_putc(char ch);
    htif_putc(val);
#endif
    return 0;
8000057e:	4501                	li	a0,0
80000580:	8082                	ret
E:\VMshare\e203\zhengdian_E203\sdk\whetstone\Release/../hbird_sdk/SoC/hbirdv2/Common/Source/Drivers/hbirdv2_uart.c:69
        return -1;
80000582:	557d                	li	a0,-1
E:\VMshare\e203\zhengdian_E203\sdk\whetstone\Release/../hbird_sdk/SoC/hbirdv2/Common/Source/Drivers/hbirdv2_uart.c:81
}
80000584:	8082                	ret

80000586 <uart_read>:
uart_read():
E:\VMshare\e203\zhengdian_E203\sdk\whetstone\Release/../hbird_sdk/SoC/hbirdv2/Common/Source/Drivers/hbirdv2_uart.c:86

uint8_t uart_read(UART_TypeDef *uart)
{
    uint32_t reg;
    if (__RARELY(uart == NULL)) {
80000586:	c911                	beqz	a0,8000059a <uart_read+0x14>
E:\VMshare\e203\zhengdian_E203\sdk\whetstone\Release/../hbird_sdk/SoC/hbirdv2/Common/Source/Drivers/hbirdv2_uart.c:90 (discriminator 1)
        return -1;
    }
    
    while ((uart->LSR & 0x1) == 0);
80000588:	495c                	lw	a5,20(a0)
8000058a:	0017f293          	andi	t0,a5,1
8000058e:	fe028de3          	beqz	t0,80000588 <uart_read+0x2>
E:\VMshare\e203\zhengdian_E203\sdk\whetstone\Release/../hbird_sdk/SoC/hbirdv2/Common/Source/Drivers/hbirdv2_uart.c:91
    reg = uart->RBR;
80000592:	4108                	lw	a0,0(a0)
E:\VMshare\e203\zhengdian_E203\sdk\whetstone\Release/../hbird_sdk/SoC/hbirdv2/Common/Source/Drivers/hbirdv2_uart.c:93
    
    return (uint8_t)(reg & 0xFF);
80000594:	0ff57513          	andi	a0,a0,255
80000598:	8082                	ret
E:\VMshare\e203\zhengdian_E203\sdk\whetstone\Release/../hbird_sdk/SoC/hbirdv2/Common/Source/Drivers/hbirdv2_uart.c:87
        return -1;
8000059a:	0ff00513          	li	a0,255
E:\VMshare\e203\zhengdian_E203\sdk\whetstone\Release/../hbird_sdk/SoC/hbirdv2/Common/Source/Drivers/hbirdv2_uart.c:94
}
8000059e:	8082                	ret

800005a0 <get_cpu_freq>:
SysTimer_GetLoadValue():
E:\VMshare\e203\zhengdian_E203\sdk\whetstone\hbird_sdk\NMSIS\Core\Include/core_feature_timer.h:106
 * - Load value is 64bits wide.
 * - \ref SysTimer_SetLoadValue
 */
__STATIC_FORCEINLINE uint64_t SysTimer_GetLoadValue(void)
{
    return SysTimer->MTIME;
800005a0:	0200c7b7          	lui	a5,0x200c
800005a4:	ff87a683          	lw	a3,-8(a5) # 200bff8 <__stack_size+0x200b7f8>
800005a8:	ffc7a783          	lw	a5,-4(a5)
get_cpu_freq():
E:\VMshare\e203\zhengdian_E203\sdk\whetstone\Release/../hbird_sdk/SoC/hbirdv2/Common/Source/hbirdv2_common.c:31
    return (delta_mcycle / delta_mtime) * mtime_freq
           + ((delta_mcycle % delta_mtime) * mtime_freq) / delta_mtime;
}

uint32_t get_cpu_freq(void)
{
800005ac:	1141                	addi	sp,sp,-16
800005ae:	c606                	sw	ra,12(sp)
800005b0:	c422                	sw	s0,8(sp)
800005b2:	c226                	sw	s1,4(sp)
SysTimer_GetLoadValue():
E:\VMshare\e203\zhengdian_E203\sdk\whetstone\hbird_sdk\NMSIS\Core\Include/core_feature_timer.h:106
800005b4:	0200c637          	lui	a2,0x200c
measure_cpu_freq():
E:\VMshare\e203\zhengdian_E203\sdk\whetstone\Release/../hbird_sdk/SoC/hbirdv2/Common/Source/hbirdv2_common.c:15
    uint32_t tmp = (uint32_t)SysTimer_GetLoadValue();
800005b8:	80b6                	mv	ra,a3
SysTimer_GetLoadValue():
E:\VMshare\e203\zhengdian_E203\sdk\whetstone\hbird_sdk\NMSIS\Core\Include/core_feature_timer.h:106
800005ba:	ff862703          	lw	a4,-8(a2) # 200bff8 <__stack_size+0x200b7f8>
800005be:	ffc62783          	lw	a5,-4(a2)
measure_cpu_freq():
E:\VMshare\e203\zhengdian_E203\sdk\whetstone\Release/../hbird_sdk/SoC/hbirdv2/Common/Source/hbirdv2_common.c:17
        start_mtime = (uint32_t)SysTimer_GetLoadValue();
800005c2:	82ba                	mv	t0,a4
E:\VMshare\e203\zhengdian_E203\sdk\whetstone\Release/../hbird_sdk/SoC/hbirdv2/Common/Source/hbirdv2_common.c:18
        start_mcycle = __RV_CSR_READ(CSR_MCYCLE);
800005c4:	b0002773          	csrr	a4,mcycle
E:\VMshare\e203\zhengdian_E203\sdk\whetstone\Release/../hbird_sdk/SoC/hbirdv2/Common/Source/hbirdv2_common.c:19
    } while (start_mtime == tmp);
800005c8:	fe5089e3          	beq	ra,t0,800005ba <get_cpu_freq+0x1a>
SysTimer_GetLoadValue():
E:\VMshare\e203\zhengdian_E203\sdk\whetstone\hbird_sdk\NMSIS\Core\Include/core_feature_timer.h:106
800005cc:	0200c337          	lui	t1,0x200c
800005d0:	ff832383          	lw	t2,-8(t1) # 200bff8 <__stack_size+0x200b7f8>
800005d4:	ffc32683          	lw	a3,-4(t1)
measure_cpu_freq():
E:\VMshare\e203\zhengdian_E203\sdk\whetstone\Release/../hbird_sdk/SoC/hbirdv2/Common/Source/hbirdv2_common.c:23
        delta_mcycle = __RV_CSR_READ(CSR_MCYCLE) - start_mcycle;
800005d8:	b00025f3          	csrr	a1,mcycle
E:\VMshare\e203\zhengdian_E203\sdk\whetstone\Release/../hbird_sdk/SoC/hbirdv2/Common/Source/hbirdv2_common.c:24
    } while (delta_mtime < n);
800005dc:	fe728ae3          	beq	t0,t2,800005d0 <get_cpu_freq+0x30>
SysTimer_GetLoadValue():
E:\VMshare\e203\zhengdian_E203\sdk\whetstone\hbird_sdk\NMSIS\Core\Include/core_feature_timer.h:106
800005e0:	ffc32783          	lw	a5,-4(t1)
800005e4:	ff832683          	lw	a3,-8(t1)
800005e8:	0200c437          	lui	s0,0x200c
measure_cpu_freq():
E:\VMshare\e203\zhengdian_E203\sdk\whetstone\Release/../hbird_sdk/SoC/hbirdv2/Common/Source/hbirdv2_common.c:15
    uint32_t tmp = (uint32_t)SysTimer_GetLoadValue();
800005ec:	84b6                	mv	s1,a3
SysTimer_GetLoadValue():
E:\VMshare\e203\zhengdian_E203\sdk\whetstone\hbird_sdk\NMSIS\Core\Include/core_feature_timer.h:106
800005ee:	ff842503          	lw	a0,-8(s0) # 200bff8 <__stack_size+0x200b7f8>
800005f2:	ffc42783          	lw	a5,-4(s0)
measure_cpu_freq():
E:\VMshare\e203\zhengdian_E203\sdk\whetstone\Release/../hbird_sdk/SoC/hbirdv2/Common/Source/hbirdv2_common.c:17
        start_mtime = (uint32_t)SysTimer_GetLoadValue();
800005f6:	85aa                	mv	a1,a0
E:\VMshare\e203\zhengdian_E203\sdk\whetstone\Release/../hbird_sdk/SoC/hbirdv2/Common/Source/hbirdv2_common.c:18
        start_mcycle = __RV_CSR_READ(CSR_MCYCLE);
800005f8:	b0002873          	csrr	a6,mcycle
E:\VMshare\e203\zhengdian_E203\sdk\whetstone\Release/../hbird_sdk/SoC/hbirdv2/Common/Source/hbirdv2_common.c:19
    } while (start_mtime == tmp);
800005fc:	fea489e3          	beq	s1,a0,800005ee <get_cpu_freq+0x4e>
SysTimer_GetLoadValue():
E:\VMshare\e203\zhengdian_E203\sdk\whetstone\hbird_sdk\NMSIS\Core\Include/core_feature_timer.h:106
80000600:	0200c8b7          	lui	a7,0x200c
measure_cpu_freq():
E:\VMshare\e203\zhengdian_E203\sdk\whetstone\Release/../hbird_sdk/SoC/hbirdv2/Common/Source/hbirdv2_common.c:24
    } while (delta_mtime < n);
80000604:	06300e13          	li	t3,99
SysTimer_GetLoadValue():
E:\VMshare\e203\zhengdian_E203\sdk\whetstone\hbird_sdk\NMSIS\Core\Include/core_feature_timer.h:106
80000608:	ff88ae83          	lw	t4,-8(a7) # 200bff8 <__stack_size+0x200b7f8>
8000060c:	ffc8a483          	lw	s1,-4(a7)
measure_cpu_freq():
E:\VMshare\e203\zhengdian_E203\sdk\whetstone\Release/../hbird_sdk/SoC/hbirdv2/Common/Source/hbirdv2_common.c:22
        delta_mtime = (uint32_t)SysTimer_GetLoadValue() - start_mtime;
80000610:	40be8433          	sub	s0,t4,a1
E:\VMshare\e203\zhengdian_E203\sdk\whetstone\Release/../hbird_sdk/SoC/hbirdv2/Common/Source/hbirdv2_common.c:23
        delta_mcycle = __RV_CSR_READ(CSR_MCYCLE) - start_mcycle;
80000614:	b0002f73          	csrr	t5,mcycle
E:\VMshare\e203\zhengdian_E203\sdk\whetstone\Release/../hbird_sdk/SoC/hbirdv2/Common/Source/hbirdv2_common.c:24
    } while (delta_mtime < n);
80000618:	fe8e78e3          	bgeu	t3,s0,80000608 <get_cpu_freq+0x68>
E:\VMshare\e203\zhengdian_E203\sdk\whetstone\Release/../hbird_sdk/SoC/hbirdv2/Common/Source/hbirdv2_common.c:23
        delta_mcycle = __RV_CSR_READ(CSR_MCYCLE) - start_mcycle;
8000061c:	410f04b3          	sub	s1,t5,a6
E:\VMshare\e203\zhengdian_E203\sdk\whetstone\Release/../hbird_sdk/SoC/hbirdv2/Common/Source/hbirdv2_common.c:27
           + ((delta_mcycle % delta_mtime) * mtime_freq) / delta_mtime;
80000620:	0284ffb3          	remu	t6,s1,s0
80000624:	8622                	mv	a2,s0
80000626:	4681                	li	a3,0
80000628:	00ff9513          	slli	a0,t6,0xf
8000062c:	011fd593          	srli	a1,t6,0x11
80000630:	27a030ef          	jal	ra,800038aa <__udivdi3>
E:\VMshare\e203\zhengdian_E203\sdk\whetstone\Release/../hbird_sdk/SoC/hbirdv2/Common/Source/hbirdv2_common.c:26
    return (delta_mcycle / delta_mtime) * mtime_freq
80000634:	0284d7b3          	divu	a5,s1,s0
get_cpu_freq():
E:\VMshare\e203\zhengdian_E203\sdk\whetstone\Release/../hbird_sdk/SoC/hbirdv2/Common/Source/hbirdv2_common.c:40
    measure_cpu_freq(1);
    // measure for real
    cpu_freq = measure_cpu_freq(100);

    return cpu_freq;
}
80000638:	40b2                	lw	ra,12(sp)
8000063a:	4422                	lw	s0,8(sp)
8000063c:	4492                	lw	s1,4(sp)
8000063e:	0141                	addi	sp,sp,16
measure_cpu_freq():
E:\VMshare\e203\zhengdian_E203\sdk\whetstone\Release/../hbird_sdk/SoC/hbirdv2/Common/Source/hbirdv2_common.c:27
           + ((delta_mcycle % delta_mtime) * mtime_freq) / delta_mtime;
80000640:	00f79613          	slli	a2,a5,0xf
get_cpu_freq():
E:\VMshare\e203\zhengdian_E203\sdk\whetstone\Release/../hbird_sdk/SoC/hbirdv2/Common/Source/hbirdv2_common.c:40
}
80000644:	9532                	add	a0,a0,a2
80000646:	8082                	ret

80000648 <system_default_exception_handler>:
system_default_exception_handler():
E:\VMshare\e203\zhengdian_E203\sdk\whetstone\Release/../hbird_sdk/SoC/hbirdv2/Common/Source/system_hbirdv2.c:168
 * \details
 * This function provided a default exception handling code for all exception ids.
 * By default, It will just print some information for debug, Vendor can customize it according to its requirements.
 */
static void system_default_exception_handler(unsigned long mcause, unsigned long sp)
{
80000648:	1141                	addi	sp,sp,-16
8000064a:	c422                	sw	s0,8(sp)
8000064c:	842a                	mv	s0,a0
E:\VMshare\e203\zhengdian_E203\sdk\whetstone\Release/../hbird_sdk/SoC/hbirdv2/Common/Source/system_hbirdv2.c:170
    /* TODO: Uncomment this if you have implement printf function */
    printf("Trap in Exception\r\n");
8000064e:	00009517          	auipc	a0,0x9
80000652:	37a50513          	addi	a0,a0,890 # 800099c8 <__trunctfdf2+0x240>
E:\VMshare\e203\zhengdian_E203\sdk\whetstone\Release/../hbird_sdk/SoC/hbirdv2/Common/Source/system_hbirdv2.c:168
{
80000656:	c606                	sw	ra,12(sp)
E:\VMshare\e203\zhengdian_E203\sdk\whetstone\Release/../hbird_sdk/SoC/hbirdv2/Common/Source/system_hbirdv2.c:170
    printf("Trap in Exception\r\n");
80000658:	206050ef          	jal	ra,8000585e <puts>
E:\VMshare\e203\zhengdian_E203\sdk\whetstone\Release/../hbird_sdk/SoC/hbirdv2/Common/Source/system_hbirdv2.c:171
    printf("MCAUSE: 0x%lx\r\n", mcause);
8000065c:	85a2                	mv	a1,s0
8000065e:	00009517          	auipc	a0,0x9
80000662:	37e50513          	addi	a0,a0,894 # 800099dc <__trunctfdf2+0x254>
80000666:	032050ef          	jal	ra,80005698 <iprintf>
E:\VMshare\e203\zhengdian_E203\sdk\whetstone\Release/../hbird_sdk/SoC/hbirdv2/Common/Source/system_hbirdv2.c:172
    printf("MEPC  : 0x%lx\r\n", __RV_CSR_READ(CSR_MEPC));
8000066a:	341025f3          	csrr	a1,mepc
8000066e:	00009517          	auipc	a0,0x9
80000672:	37e50513          	addi	a0,a0,894 # 800099ec <__trunctfdf2+0x264>
80000676:	022050ef          	jal	ra,80005698 <iprintf>
E:\VMshare\e203\zhengdian_E203\sdk\whetstone\Release/../hbird_sdk/SoC/hbirdv2/Common/Source/system_hbirdv2.c:173
    printf("MTVAL : 0x%lx\r\n", __RV_CSR_READ(CSR_MBADADDR));
8000067a:	343025f3          	csrr	a1,mtval
8000067e:	00009517          	auipc	a0,0x9
80000682:	37e50513          	addi	a0,a0,894 # 800099fc <__trunctfdf2+0x274>
80000686:	012050ef          	jal	ra,80005698 <iprintf>
E:\VMshare\e203\zhengdian_E203\sdk\whetstone\Release/../hbird_sdk/SoC/hbirdv2/Common/Source/system_hbirdv2.c:174 (discriminator 1)
    while(1);
8000068a:	a001                	j	8000068a <system_default_exception_handler+0x42>

8000068c <system_default_interrupt_handler>:
system_default_interrupt_handler():
E:\VMshare\e203\zhengdian_E203\sdk\whetstone\Release/../hbird_sdk/SoC/hbirdv2/Common/Source/system_hbirdv2.c:183
 * \brief      System Default Interrupt Handler
 * \details
 * This function provided a default interrupt handling code for all interrupt ids.
 */
static void system_default_interrupt_handler(unsigned long mcause, unsigned long sp)
{
8000068c:	1141                	addi	sp,sp,-16
8000068e:	c422                	sw	s0,8(sp)
80000690:	842a                	mv	s0,a0
E:\VMshare\e203\zhengdian_E203\sdk\whetstone\Release/../hbird_sdk/SoC/hbirdv2/Common/Source/system_hbirdv2.c:185
    /* TODO: Uncomment this if you have implement printf function */
    printf("Trap in Interrupt\r\n");
80000692:	00009517          	auipc	a0,0x9
80000696:	37a50513          	addi	a0,a0,890 # 80009a0c <__trunctfdf2+0x284>
E:\VMshare\e203\zhengdian_E203\sdk\whetstone\Release/../hbird_sdk/SoC/hbirdv2/Common/Source/system_hbirdv2.c:183
{
8000069a:	c606                	sw	ra,12(sp)
E:\VMshare\e203\zhengdian_E203\sdk\whetstone\Release/../hbird_sdk/SoC/hbirdv2/Common/Source/system_hbirdv2.c:185
    printf("Trap in Interrupt\r\n");
8000069c:	1c2050ef          	jal	ra,8000585e <puts>
E:\VMshare\e203\zhengdian_E203\sdk\whetstone\Release/../hbird_sdk/SoC/hbirdv2/Common/Source/system_hbirdv2.c:186
    printf("MCAUSE: 0x%lx\r\n", mcause);
800006a0:	85a2                	mv	a1,s0
800006a2:	00009517          	auipc	a0,0x9
800006a6:	33a50513          	addi	a0,a0,826 # 800099dc <__trunctfdf2+0x254>
800006aa:	7ef040ef          	jal	ra,80005698 <iprintf>
E:\VMshare\e203\zhengdian_E203\sdk\whetstone\Release/../hbird_sdk/SoC/hbirdv2/Common/Source/system_hbirdv2.c:187
    printf("MEPC  : 0x%lx\r\n", __RV_CSR_READ(CSR_MEPC));
800006ae:	341025f3          	csrr	a1,mepc
800006b2:	00009517          	auipc	a0,0x9
800006b6:	33a50513          	addi	a0,a0,826 # 800099ec <__trunctfdf2+0x264>
800006ba:	7df040ef          	jal	ra,80005698 <iprintf>
E:\VMshare\e203\zhengdian_E203\sdk\whetstone\Release/../hbird_sdk/SoC/hbirdv2/Common/Source/system_hbirdv2.c:188
    printf("MTVAL : 0x%lx\r\n", __RV_CSR_READ(CSR_MBADADDR));
800006be:	343025f3          	csrr	a1,mtval
E:\VMshare\e203\zhengdian_E203\sdk\whetstone\Release/../hbird_sdk/SoC/hbirdv2/Common/Source/system_hbirdv2.c:189
}
800006c2:	4422                	lw	s0,8(sp)
800006c4:	40b2                	lw	ra,12(sp)
E:\VMshare\e203\zhengdian_E203\sdk\whetstone\Release/../hbird_sdk/SoC/hbirdv2/Common/Source/system_hbirdv2.c:188
    printf("MTVAL : 0x%lx\r\n", __RV_CSR_READ(CSR_MBADADDR));
800006c6:	00009517          	auipc	a0,0x9
800006ca:	33650513          	addi	a0,a0,822 # 800099fc <__trunctfdf2+0x274>
E:\VMshare\e203\zhengdian_E203\sdk\whetstone\Release/../hbird_sdk/SoC/hbirdv2/Common/Source/system_hbirdv2.c:189
}
800006ce:	0141                	addi	sp,sp,16
E:\VMshare\e203\zhengdian_E203\sdk\whetstone\Release/../hbird_sdk/SoC/hbirdv2/Common/Source/system_hbirdv2.c:188
    printf("MTVAL : 0x%lx\r\n", __RV_CSR_READ(CSR_MBADADDR));
800006d0:	7c90406f          	j	80005698 <iprintf>

800006d4 <SystemInit>:
SystemInit():
E:\VMshare\e203\zhengdian_E203\sdk\whetstone\Release/../hbird_sdk/SoC/hbirdv2/Common/Source/system_hbirdv2.c:125
    SystemCoreClock = SYSTEM_CLOCK;
800006d4:	04c4b7b7          	lui	a5,0x4c4b
800006d8:	40078293          	addi	t0,a5,1024 # 4c4b400 <__stack_size+0x4c4ac00>
800006dc:	10000717          	auipc	a4,0x10000
800006e0:	ae572c23          	sw	t0,-1288(a4) # 900001d4 <SystemCoreClock>
E:\VMshare\e203\zhengdian_E203\sdk\whetstone\Release/../hbird_sdk/SoC/hbirdv2/Common/Source/system_hbirdv2.c:126
}
800006e4:	8082                	ret

800006e6 <core_trap_handler>:
core_trap_handler():
E:\VMshare\e203\zhengdian_E203\sdk\whetstone\Release/../hbird_sdk/SoC/hbirdv2/Common/Source/system_hbirdv2.c:322
 * - If you want to register core exception handler, please use \ref Exception_Register_EXC
 * - If you want to register core interrupt handler, please use \ref Interrupt_Register_CoreIRQ
 * - If you want to register external interrupt handler, please use \ref Interrupt_Register_ExtIRQ
 */
uint32_t core_trap_handler(unsigned long mcause, unsigned long sp)
{
800006e6:	1141                	addi	sp,sp,-16
800006e8:	c606                	sw	ra,12(sp)
E:\VMshare\e203\zhengdian_E203\sdk\whetstone\Release/../hbird_sdk/SoC/hbirdv2/Common/Source/system_hbirdv2.c:325
    if (mcause & MCAUSE_INTERRUPT) {
        INT_HANDLER int_handler = NULL;
        uint32_t irqn = (uint32_t)(mcause & 0X00000fff);
800006ea:	01451793          	slli	a5,a0,0x14
E:\VMshare\e203\zhengdian_E203\sdk\whetstone\Release/../hbird_sdk/SoC/hbirdv2/Common/Source/system_hbirdv2.c:322
{
800006ee:	c422                	sw	s0,8(sp)
E:\VMshare\e203\zhengdian_E203\sdk\whetstone\Release/../hbird_sdk/SoC/hbirdv2/Common/Source/system_hbirdv2.c:325
        uint32_t irqn = (uint32_t)(mcause & 0X00000fff);
800006f0:	0147d093          	srli	ra,a5,0x14
E:\VMshare\e203\zhengdian_E203\sdk\whetstone\Release/../hbird_sdk/SoC/hbirdv2/Common/Source/system_hbirdv2.c:323
    if (mcause & MCAUSE_INTERRUPT) {
800006f4:	04054263          	bltz	a0,80000738 <core_trap_handler+0x52>
core_exception_handler():
E:\VMshare\e203\zhengdian_E203\sdk\whetstone\Release/../hbird_sdk/SoC/hbirdv2/Common/Source/system_hbirdv2.c:365
static uint32_t core_exception_handler(unsigned long mcause, unsigned long sp)
{
    uint32_t EXCn = (uint32_t)(mcause & 0X00000fff);
    EXC_HANDLER exc_handler;

    if ((EXCn < MAX_SYSTEM_EXCEPTION_NUM) && (EXCn >= 0)) {
800006f8:	4629                	li	a2,10
800006fa:	872a                	mv	a4,a0
800006fc:	86ae                	mv	a3,a1
800006fe:	00167e63          	bgeu	a2,ra,8000071a <core_trap_handler+0x34>
E:\VMshare\e203\zhengdian_E203\sdk\whetstone\Release/../hbird_sdk/SoC/hbirdv2/Common/Source/system_hbirdv2.c:368
        exc_handler = (EXC_HANDLER)SystemExceptionHandlers[EXCn];
    } else {
        exc_handler = (EXC_HANDLER)system_default_exception_handler;
80000702:	00000317          	auipc	t1,0x0
80000706:	f4630313          	addi	t1,t1,-186 # 80000648 <system_default_exception_handler>
E:\VMshare\e203\zhengdian_E203\sdk\whetstone\Release/../hbird_sdk/SoC/hbirdv2/Common/Source/system_hbirdv2.c:371
    }
    if (exc_handler != NULL) {
        exc_handler(mcause, sp);
8000070a:	85b6                	mv	a1,a3
8000070c:	853a                	mv	a0,a4
8000070e:	9302                	jalr	t1
core_trap_handler():
E:\VMshare\e203\zhengdian_E203\sdk\whetstone\Release/../hbird_sdk/SoC/hbirdv2/Common/Source/system_hbirdv2.c:347
}
80000710:	40b2                	lw	ra,12(sp)
80000712:	4422                	lw	s0,8(sp)
80000714:	4501                	li	a0,0
80000716:	0141                	addi	sp,sp,16
80000718:	8082                	ret
core_exception_handler():
E:\VMshare\e203\zhengdian_E203\sdk\whetstone\Release/../hbird_sdk/SoC/hbirdv2/Common/Source/system_hbirdv2.c:366
        exc_handler = (EXC_HANDLER)SystemExceptionHandlers[EXCn];
8000071a:	00209293          	slli	t0,ra,0x2
8000071e:	a2c18393          	addi	t2,gp,-1492 # 900003fc <SystemExceptionHandlers>
80000722:	00538433          	add	s0,t2,t0
80000726:	00042303          	lw	t1,0(s0)
E:\VMshare\e203\zhengdian_E203\sdk\whetstone\Release/../hbird_sdk/SoC/hbirdv2/Common/Source/system_hbirdv2.c:370
    if (exc_handler != NULL) {
8000072a:	fe0310e3          	bnez	t1,8000070a <core_trap_handler+0x24>
core_trap_handler():
E:\VMshare\e203\zhengdian_E203\sdk\whetstone\Release/../hbird_sdk/SoC/hbirdv2/Common/Source/system_hbirdv2.c:347
}
8000072e:	40b2                	lw	ra,12(sp)
80000730:	4422                	lw	s0,8(sp)
80000732:	4501                	li	a0,0
80000734:	0141                	addi	sp,sp,16
80000736:	8082                	ret
E:\VMshare\e203\zhengdian_E203\sdk\whetstone\Release/../hbird_sdk/SoC/hbirdv2/Common/Source/system_hbirdv2.c:326
        if (irqn == IRQ_M_EXT) {
80000738:	482d                	li	a6,11
8000073a:	01008d63          	beq	ra,a6,80000754 <core_trap_handler+0x6e>
E:\VMshare\e203\zhengdian_E203\sdk\whetstone\Release/../hbird_sdk/SoC/hbirdv2/Common/Source/system_hbirdv2.c:338
            int_handler = (INT_HANDLER)(SystemCoreInterruptHandlers[irqn]);
8000073e:	00209893          	slli	a7,ra,0x2
80000742:	a0418e13          	addi	t3,gp,-1532 # 900003d4 <SystemCoreInterruptHandlers>
80000746:	011e0eb3          	add	t4,t3,a7
8000074a:	000ea303          	lw	t1,0(t4)
E:\VMshare\e203\zhengdian_E203\sdk\whetstone\Release/../hbird_sdk/SoC/hbirdv2/Common/Source/system_hbirdv2.c:339
            if (int_handler != NULL) {
8000074e:	fc0310e3          	bnez	t1,8000070e <core_trap_handler+0x28>
80000752:	bf7d                	j	80000710 <core_trap_handler+0x2a>
PLIC_ClaimInterrupt():
E:\VMshare\e203\zhengdian_E203\sdk\whetstone\hbird_sdk\NMSIS\Core\Include/core_feature_plic.h:273
 * \sa
 * - \ref PLIC_CompleteInterrupt
 */
__STATIC_FORCEINLINE uint32_t PLIC_ClaimInterrupt(void)
{
    uint32_t hartid = __RV_CSR_READ(CSR_MHARTID);
80000754:	f1402f73          	csrr	t5,mhartid
E:\VMshare\e203\zhengdian_E203\sdk\whetstone\hbird_sdk\NMSIS\Core\Include/core_feature_plic.h:274
    volatile uint32_t *claim_reg = (uint32_t *)((PLIC_BASE) + PLIC_CLAIM_OFFSET + \
80000758:	0c2007b7          	lui	a5,0xc200
E:\VMshare\e203\zhengdian_E203\sdk\whetstone\hbird_sdk\NMSIS\Core\Include/core_feature_plic.h:275
                    + (hartid << PLIC_CLAIM_SHIFT_PER_TARGET));
8000075c:	00cf1f93          	slli	t6,t5,0xc
E:\VMshare\e203\zhengdian_E203\sdk\whetstone\hbird_sdk\NMSIS\Core\Include/core_feature_plic.h:274
    volatile uint32_t *claim_reg = (uint32_t *)((PLIC_BASE) + PLIC_CLAIM_OFFSET + \
80000760:	00478093          	addi	ra,a5,4 # c200004 <__stack_size+0xc1ff804>
80000764:	001f8733          	add	a4,t6,ra
E:\VMshare\e203\zhengdian_E203\sdk\whetstone\hbird_sdk\NMSIS\Core\Include/core_feature_plic.h:277

    return (*claim_reg);
80000768:	4300                	lw	s0,0(a4)
core_trap_handler():
E:\VMshare\e203\zhengdian_E203\sdk\whetstone\Release/../hbird_sdk/SoC/hbirdv2/Common/Source/system_hbirdv2.c:329
            if (irqn < __PLIC_INTNUM) {
8000076a:	46c1                	li	a3,16
8000076c:	fa86e2e3          	bltu	a3,s0,80000710 <core_trap_handler+0x2a>
E:\VMshare\e203\zhengdian_E203\sdk\whetstone\Release/../hbird_sdk/SoC/hbirdv2/Common/Source/system_hbirdv2.c:330
                int_handler = (INT_HANDLER)(SystemExtInterruptHandlers[irqn]);
80000770:	00241613          	slli	a2,s0,0x2
80000774:	a5818313          	addi	t1,gp,-1448 # 90000428 <SystemExtInterruptHandlers>
80000778:	00c302b3          	add	t0,t1,a2
8000077c:	0002a383          	lw	t2,0(t0)
E:\VMshare\e203\zhengdian_E203\sdk\whetstone\Release/../hbird_sdk/SoC/hbirdv2/Common/Source/system_hbirdv2.c:331
                if (int_handler != NULL) {
80000780:	00038363          	beqz	t2,80000786 <core_trap_handler+0xa0>
E:\VMshare\e203\zhengdian_E203\sdk\whetstone\Release/../hbird_sdk/SoC/hbirdv2/Common/Source/system_hbirdv2.c:332
                    int_handler(mcause, sp);
80000784:	9382                	jalr	t2
PLIC_CompleteInterrupt():
E:\VMshare\e203\zhengdian_E203\sdk\whetstone\hbird_sdk\NMSIS\Core\Include/core_feature_plic.h:298
 * \sa
 * - \ref PLIC_ClaimInterrupt
 */
__STATIC_FORCEINLINE void PLIC_CompleteInterrupt(uint32_t source)
{
    uint32_t hartid = __RV_CSR_READ(CSR_MHARTID);
80000786:	f1402573          	csrr	a0,mhartid
E:\VMshare\e203\zhengdian_E203\sdk\whetstone\hbird_sdk\NMSIS\Core\Include/core_feature_plic.h:299
    volatile uint32_t *complete_reg = (uint32_t *)((PLIC_BASE) + PLIC_CLAIM_OFFSET + \
8000078a:	0c200837          	lui	a6,0xc200
E:\VMshare\e203\zhengdian_E203\sdk\whetstone\hbird_sdk\NMSIS\Core\Include/core_feature_plic.h:300
                    + (hartid << PLIC_CLAIM_SHIFT_PER_TARGET));
8000078e:	00c51593          	slli	a1,a0,0xc
E:\VMshare\e203\zhengdian_E203\sdk\whetstone\hbird_sdk\NMSIS\Core\Include/core_feature_plic.h:299
    volatile uint32_t *complete_reg = (uint32_t *)((PLIC_BASE) + PLIC_CLAIM_OFFSET + \
80000792:	00480893          	addi	a7,a6,4 # c200004 <__stack_size+0xc1ff804>
80000796:	01158e33          	add	t3,a1,a7
E:\VMshare\e203\zhengdian_E203\sdk\whetstone\hbird_sdk\NMSIS\Core\Include/core_feature_plic.h:302

    *complete_reg = source;
8000079a:	008e2023          	sw	s0,0(t3)
E:\VMshare\e203\zhengdian_E203\sdk\whetstone\hbird_sdk\NMSIS\Core\Include/core_feature_plic.h:303
}
8000079e:	bf8d                	j	80000710 <core_trap_handler+0x2a>

800007a0 <_premain_init>:
_premain_init():
E:\VMshare\e203\zhengdian_E203\sdk\whetstone\Release/../hbird_sdk/SoC/hbirdv2/Common/Source/system_hbirdv2.c:464
 * For RISC-V gnu toolchain, _init function might not be called
 * by __libc_init_array function, so we defined a new function
 * to do initialization
 */
void _premain_init(void)
{
800007a0:	1141                	addi	sp,sp,-16
800007a2:	c606                	sw	ra,12(sp)
800007a4:	c422                	sw	s0,8(sp)
E:\VMshare\e203\zhengdian_E203\sdk\whetstone\Release/../hbird_sdk/SoC/hbirdv2/Common/Source/system_hbirdv2.c:466
    /* TODO: Add your own initialization code here, called before main */
    SystemCoreClock = get_cpu_freq();
800007a6:	3bed                	jal	800005a0 <get_cpu_freq>
800007a8:	87aa                	mv	a5,a0
800007aa:	10000417          	auipc	s0,0x10000
800007ae:	a2a40413          	addi	s0,s0,-1494 # 900001d4 <SystemCoreClock>
E:\VMshare\e203\zhengdian_E203\sdk\whetstone\Release/../hbird_sdk/SoC/hbirdv2/Common/Source/system_hbirdv2.c:468
#if ! defined(SIMULATION_SPIKE) && ! defined(SIMULATION_XLSPIKE)
    gpio_iof_config(GPIOA, IOF_UART_MASK);
800007b2:	000305b7          	lui	a1,0x30
800007b6:	10012537          	lui	a0,0x10012
E:\VMshare\e203\zhengdian_E203\sdk\whetstone\Release/../hbird_sdk/SoC/hbirdv2/Common/Source/system_hbirdv2.c:466
    SystemCoreClock = get_cpu_freq();
800007ba:	c01c                	sw	a5,0(s0)
E:\VMshare\e203\zhengdian_E203\sdk\whetstone\Release/../hbird_sdk/SoC/hbirdv2/Common/Source/system_hbirdv2.c:468
    gpio_iof_config(GPIOA, IOF_UART_MASK);
800007bc:	3385                	jal	8000051c <gpio_iof_config>
E:\VMshare\e203\zhengdian_E203\sdk\whetstone\Release/../hbird_sdk/SoC/hbirdv2/Common/Source/system_hbirdv2.c:469
    uart_init(SOC_DEBUG_UART, 115200);
800007be:	65f1                	lui	a1,0x1c
800007c0:	20058593          	addi	a1,a1,512 # 1c200 <__stack_size+0x1ba00>
800007c4:	10013537          	lui	a0,0x10013
800007c8:	339d                	jal	8000052e <uart_init>
SystemBannerPrint():
E:\VMshare\e203\zhengdian_E203\sdk\whetstone\Release/../hbird_sdk/SoC/hbirdv2/Common/Source/system_hbirdv2.c:381
    printf("HummingBird SDK Build Time: %s, %s\r\n", __DATE__, __TIME__);
800007ca:	00009617          	auipc	a2,0x9
800007ce:	25660613          	addi	a2,a2,598 # 80009a20 <__trunctfdf2+0x298>
800007d2:	00009597          	auipc	a1,0x9
800007d6:	25a58593          	addi	a1,a1,602 # 80009a2c <__trunctfdf2+0x2a4>
800007da:	00009517          	auipc	a0,0x9
800007de:	25e50513          	addi	a0,a0,606 # 80009a38 <__trunctfdf2+0x2b0>
800007e2:	6b7040ef          	jal	ra,80005698 <iprintf>
E:\VMshare\e203\zhengdian_E203\sdk\whetstone\Release/../hbird_sdk/SoC/hbirdv2/Common/Source/system_hbirdv2.c:383
    printf("Download Mode: %s\r\n", DOWNLOAD_MODE_STRING);
800007e6:	00009597          	auipc	a1,0x9
800007ea:	27a58593          	addi	a1,a1,634 # 80009a60 <__trunctfdf2+0x2d8>
800007ee:	00009517          	auipc	a0,0x9
800007f2:	27650513          	addi	a0,a0,630 # 80009a64 <__trunctfdf2+0x2dc>
800007f6:	6a3040ef          	jal	ra,80005698 <iprintf>
E:\VMshare\e203\zhengdian_E203\sdk\whetstone\Release/../hbird_sdk/SoC/hbirdv2/Common/Source/system_hbirdv2.c:385
    printf("CPU Frequency %lu Hz\r\n", SystemCoreClock);
800007fa:	400c                	lw	a1,0(s0)
800007fc:	00009517          	auipc	a0,0x9
80000800:	27c50513          	addi	a0,a0,636 # 80009a78 <__trunctfdf2+0x2f0>
80000804:	695040ef          	jal	ra,80005698 <iprintf>
Interrupt_Init():
E:\VMshare\e203\zhengdian_E203\sdk\whetstone\Release/../hbird_sdk/SoC/hbirdv2/Common/Source/system_hbirdv2.c:216
        SystemExtInterruptHandlers[i] = (unsigned long)system_default_interrupt_handler;
80000808:	00000297          	auipc	t0,0x0
8000080c:	e8428293          	addi	t0,t0,-380 # 8000068c <system_default_interrupt_handler>
80000810:	a5818713          	addi	a4,gp,-1448 # 90000428 <SystemExtInterruptHandlers>
Exception_Init():
E:\VMshare\e203\zhengdian_E203\sdk\whetstone\Release/../hbird_sdk/SoC/hbirdv2/Common/Source/system_hbirdv2.c:201
        SystemExceptionHandlers[i] = (unsigned long)system_default_exception_handler;
80000814:	00000617          	auipc	a2,0x0
80000818:	e3460613          	addi	a2,a2,-460 # 80000648 <system_default_exception_handler>
8000081c:	a2c18693          	addi	a3,gp,-1492 # 900003fc <SystemExceptionHandlers>
Interrupt_Init():
E:\VMshare\e203\zhengdian_E203\sdk\whetstone\Release/../hbird_sdk/SoC/hbirdv2/Common/Source/system_hbirdv2.c:219
        SystemCoreInterruptHandlers[i] = (unsigned long)system_default_interrupt_handler;
80000820:	a0418313          	addi	t1,gp,-1532 # 900003d4 <SystemCoreInterruptHandlers>
Exception_Init():
E:\VMshare\e203\zhengdian_E203\sdk\whetstone\Release/../hbird_sdk/SoC/hbirdv2/Common/Source/system_hbirdv2.c:201
        SystemExceptionHandlers[i] = (unsigned long)system_default_exception_handler;
80000824:	c290                	sw	a2,0(a3)
80000826:	c2d0                	sw	a2,4(a3)
80000828:	c690                	sw	a2,8(a3)
8000082a:	c6d0                	sw	a2,12(a3)
8000082c:	ca90                	sw	a2,16(a3)
8000082e:	cad0                	sw	a2,20(a3)
80000830:	ce90                	sw	a2,24(a3)
80000832:	ced0                	sw	a2,28(a3)
80000834:	d290                	sw	a2,32(a3)
80000836:	d2d0                	sw	a2,36(a3)
80000838:	d690                	sw	a2,40(a3)
Interrupt_Init():
E:\VMshare\e203\zhengdian_E203\sdk\whetstone\Release/../hbird_sdk/SoC/hbirdv2/Common/Source/system_hbirdv2.c:216
        SystemExtInterruptHandlers[i] = (unsigned long)system_default_interrupt_handler;
8000083a:	00572023          	sw	t0,0(a4)
8000083e:	00572223          	sw	t0,4(a4)
80000842:	00572423          	sw	t0,8(a4)
80000846:	00572623          	sw	t0,12(a4)
8000084a:	00572823          	sw	t0,16(a4)
8000084e:	00572a23          	sw	t0,20(a4)
80000852:	00572c23          	sw	t0,24(a4)
80000856:	00572e23          	sw	t0,28(a4)
8000085a:	02572023          	sw	t0,32(a4)
8000085e:	02572223          	sw	t0,36(a4)
80000862:	02572423          	sw	t0,40(a4)
80000866:	02572623          	sw	t0,44(a4)
8000086a:	02572823          	sw	t0,48(a4)
8000086e:	02572a23          	sw	t0,52(a4)
80000872:	02572c23          	sw	t0,56(a4)
80000876:	02572e23          	sw	t0,60(a4)
8000087a:	04572023          	sw	t0,64(a4)
E:\VMshare\e203\zhengdian_E203\sdk\whetstone\Release/../hbird_sdk/SoC/hbirdv2/Common/Source/system_hbirdv2.c:219
        SystemCoreInterruptHandlers[i] = (unsigned long)system_default_interrupt_handler;
8000087e:	00532023          	sw	t0,0(t1)
80000882:	00532223          	sw	t0,4(t1)
80000886:	00532423          	sw	t0,8(t1)
8000088a:	00532623          	sw	t0,12(t1)
8000088e:	00532823          	sw	t0,16(t1)
80000892:	00532a23          	sw	t0,20(t1)
80000896:	00532c23          	sw	t0,24(t1)
8000089a:	00532e23          	sw	t0,28(t1)
8000089e:	02532023          	sw	t0,32(t1)
800008a2:	02532223          	sw	t0,36(t1)
PLIC_DisableInterrupt():
E:\VMshare\e203\zhengdian_E203\sdk\whetstone\hbird_sdk\NMSIS\Core\Include/core_feature_plic.h:191
    uint32_t hartid = __RV_CSR_READ(CSR_MHARTID);
800008a6:	f14023f3          	csrr	t2,mhartid
E:\VMshare\e203\zhengdian_E203\sdk\whetstone\hbird_sdk\NMSIS\Core\Include/core_feature_plic.h:193
                    (hartid << PLIC_ENABLE_SHIFT_PER_TARGET) + (source >> 5) * 4);
800008aa:	0c002837          	lui	a6,0xc002
800008ae:	00739513          	slli	a0,t2,0x7
800008b2:	010508b3          	add	a7,a0,a6
E:\VMshare\e203\zhengdian_E203\sdk\whetstone\hbird_sdk\NMSIS\Core\Include/core_feature_plic.h:195
    uint32_t current = *enable_reg;
800008b6:	0008ae03          	lw	t3,0(a7)
PLIC_SetPriority():
E:\VMshare\e203\zhengdian_E203\sdk\whetstone\hbird_sdk\NMSIS\Core\Include/core_feature_plic.h:237
    *priority_reg = priority;
800008ba:	0c000eb7          	lui	t4,0xc000
PLIC_DisableInterrupt():
E:\VMshare\e203\zhengdian_E203\sdk\whetstone\hbird_sdk\NMSIS\Core\Include/core_feature_plic.h:196
    current = current & (~(1<<(source&0x1F)));
800008be:	ffee7f13          	andi	t5,t3,-2
E:\VMshare\e203\zhengdian_E203\sdk\whetstone\hbird_sdk\NMSIS\Core\Include/core_feature_plic.h:197
    *enable_reg = current;
800008c2:	01e8a023          	sw	t5,0(a7)
PLIC_SetPriority():
E:\VMshare\e203\zhengdian_E203\sdk\whetstone\hbird_sdk\NMSIS\Core\Include/core_feature_plic.h:237
    *priority_reg = priority;
800008c6:	000ea023          	sw	zero,0(t4) # c000000 <__stack_size+0xbfff800>
PLIC_DisableInterrupt():
E:\VMshare\e203\zhengdian_E203\sdk\whetstone\hbird_sdk\NMSIS\Core\Include/core_feature_plic.h:191
    uint32_t hartid = __RV_CSR_READ(CSR_MHARTID);
800008ca:	f1402ff3          	csrr	t6,mhartid
E:\VMshare\e203\zhengdian_E203\sdk\whetstone\hbird_sdk\NMSIS\Core\Include/core_feature_plic.h:193
                    (hartid << PLIC_ENABLE_SHIFT_PER_TARGET) + (source >> 5) * 4);
800008ce:	007f9793          	slli	a5,t6,0x7
800008d2:	01078433          	add	s0,a5,a6
E:\VMshare\e203\zhengdian_E203\sdk\whetstone\hbird_sdk\NMSIS\Core\Include/core_feature_plic.h:195
    uint32_t current = *enable_reg;
800008d6:	400c                	lw	a1,0(s0)
E:\VMshare\e203\zhengdian_E203\sdk\whetstone\hbird_sdk\NMSIS\Core\Include/core_feature_plic.h:196
    current = current & (~(1<<(source&0x1F)));
800008d8:	ffd5f293          	andi	t0,a1,-3
E:\VMshare\e203\zhengdian_E203\sdk\whetstone\hbird_sdk\NMSIS\Core\Include/core_feature_plic.h:197
    *enable_reg = current;
800008dc:	00542023          	sw	t0,0(s0)
PLIC_SetPriority():
E:\VMshare\e203\zhengdian_E203\sdk\whetstone\hbird_sdk\NMSIS\Core\Include/core_feature_plic.h:237
    *priority_reg = priority;
800008e0:	000ea223          	sw	zero,4(t4)
PLIC_DisableInterrupt():
E:\VMshare\e203\zhengdian_E203\sdk\whetstone\hbird_sdk\NMSIS\Core\Include/core_feature_plic.h:191
    uint32_t hartid = __RV_CSR_READ(CSR_MHARTID);
800008e4:	f1402773          	csrr	a4,mhartid
E:\VMshare\e203\zhengdian_E203\sdk\whetstone\hbird_sdk\NMSIS\Core\Include/core_feature_plic.h:193
                    (hartid << PLIC_ENABLE_SHIFT_PER_TARGET) + (source >> 5) * 4);
800008e8:	00771613          	slli	a2,a4,0x7
800008ec:	010606b3          	add	a3,a2,a6
E:\VMshare\e203\zhengdian_E203\sdk\whetstone\hbird_sdk\NMSIS\Core\Include/core_feature_plic.h:195
    uint32_t current = *enable_reg;
800008f0:	0006a303          	lw	t1,0(a3)
E:\VMshare\e203\zhengdian_E203\sdk\whetstone\hbird_sdk\NMSIS\Core\Include/core_feature_plic.h:196
    current = current & (~(1<<(source&0x1F)));
800008f4:	ffb37393          	andi	t2,t1,-5
E:\VMshare\e203\zhengdian_E203\sdk\whetstone\hbird_sdk\NMSIS\Core\Include/core_feature_plic.h:197
    *enable_reg = current;
800008f8:	0076a023          	sw	t2,0(a3)
PLIC_SetPriority():
E:\VMshare\e203\zhengdian_E203\sdk\whetstone\hbird_sdk\NMSIS\Core\Include/core_feature_plic.h:237
    *priority_reg = priority;
800008fc:	000ea423          	sw	zero,8(t4)
PLIC_DisableInterrupt():
E:\VMshare\e203\zhengdian_E203\sdk\whetstone\hbird_sdk\NMSIS\Core\Include/core_feature_plic.h:191
    uint32_t hartid = __RV_CSR_READ(CSR_MHARTID);
80000900:	f1402573          	csrr	a0,mhartid
E:\VMshare\e203\zhengdian_E203\sdk\whetstone\hbird_sdk\NMSIS\Core\Include/core_feature_plic.h:193
                    (hartid << PLIC_ENABLE_SHIFT_PER_TARGET) + (source >> 5) * 4);
80000904:	00751893          	slli	a7,a0,0x7
80000908:	01088e33          	add	t3,a7,a6
E:\VMshare\e203\zhengdian_E203\sdk\whetstone\hbird_sdk\NMSIS\Core\Include/core_feature_plic.h:195
    uint32_t current = *enable_reg;
8000090c:	000e2f03          	lw	t5,0(t3)
E:\VMshare\e203\zhengdian_E203\sdk\whetstone\hbird_sdk\NMSIS\Core\Include/core_feature_plic.h:196
    current = current & (~(1<<(source&0x1F)));
80000910:	ff7f7f93          	andi	t6,t5,-9
E:\VMshare\e203\zhengdian_E203\sdk\whetstone\hbird_sdk\NMSIS\Core\Include/core_feature_plic.h:197
    *enable_reg = current;
80000914:	01fe2023          	sw	t6,0(t3)
PLIC_SetPriority():
E:\VMshare\e203\zhengdian_E203\sdk\whetstone\hbird_sdk\NMSIS\Core\Include/core_feature_plic.h:237
    *priority_reg = priority;
80000918:	000ea623          	sw	zero,12(t4)
PLIC_DisableInterrupt():
E:\VMshare\e203\zhengdian_E203\sdk\whetstone\hbird_sdk\NMSIS\Core\Include/core_feature_plic.h:191
    uint32_t hartid = __RV_CSR_READ(CSR_MHARTID);
8000091c:	f14027f3          	csrr	a5,mhartid
E:\VMshare\e203\zhengdian_E203\sdk\whetstone\hbird_sdk\NMSIS\Core\Include/core_feature_plic.h:193
                    (hartid << PLIC_ENABLE_SHIFT_PER_TARGET) + (source >> 5) * 4);
80000920:	00779413          	slli	s0,a5,0x7
80000924:	010405b3          	add	a1,s0,a6
E:\VMshare\e203\zhengdian_E203\sdk\whetstone\hbird_sdk\NMSIS\Core\Include/core_feature_plic.h:195
    uint32_t current = *enable_reg;
80000928:	0005a283          	lw	t0,0(a1)
E:\VMshare\e203\zhengdian_E203\sdk\whetstone\hbird_sdk\NMSIS\Core\Include/core_feature_plic.h:196
    current = current & (~(1<<(source&0x1F)));
8000092c:	fef2f713          	andi	a4,t0,-17
E:\VMshare\e203\zhengdian_E203\sdk\whetstone\hbird_sdk\NMSIS\Core\Include/core_feature_plic.h:197
    *enable_reg = current;
80000930:	c198                	sw	a4,0(a1)
PLIC_SetPriority():
E:\VMshare\e203\zhengdian_E203\sdk\whetstone\hbird_sdk\NMSIS\Core\Include/core_feature_plic.h:237
    *priority_reg = priority;
80000932:	000ea823          	sw	zero,16(t4)
PLIC_DisableInterrupt():
E:\VMshare\e203\zhengdian_E203\sdk\whetstone\hbird_sdk\NMSIS\Core\Include/core_feature_plic.h:191
    uint32_t hartid = __RV_CSR_READ(CSR_MHARTID);
80000936:	f1402673          	csrr	a2,mhartid
E:\VMshare\e203\zhengdian_E203\sdk\whetstone\hbird_sdk\NMSIS\Core\Include/core_feature_plic.h:193
                    (hartid << PLIC_ENABLE_SHIFT_PER_TARGET) + (source >> 5) * 4);
8000093a:	00761693          	slli	a3,a2,0x7
8000093e:	01068333          	add	t1,a3,a6
E:\VMshare\e203\zhengdian_E203\sdk\whetstone\hbird_sdk\NMSIS\Core\Include/core_feature_plic.h:195
    uint32_t current = *enable_reg;
80000942:	00032383          	lw	t2,0(t1)
E:\VMshare\e203\zhengdian_E203\sdk\whetstone\hbird_sdk\NMSIS\Core\Include/core_feature_plic.h:196
    current = current & (~(1<<(source&0x1F)));
80000946:	fdf3f513          	andi	a0,t2,-33
E:\VMshare\e203\zhengdian_E203\sdk\whetstone\hbird_sdk\NMSIS\Core\Include/core_feature_plic.h:197
    *enable_reg = current;
8000094a:	00a32023          	sw	a0,0(t1)
PLIC_SetPriority():
E:\VMshare\e203\zhengdian_E203\sdk\whetstone\hbird_sdk\NMSIS\Core\Include/core_feature_plic.h:237
    *priority_reg = priority;
8000094e:	000eaa23          	sw	zero,20(t4)
PLIC_DisableInterrupt():
E:\VMshare\e203\zhengdian_E203\sdk\whetstone\hbird_sdk\NMSIS\Core\Include/core_feature_plic.h:191
    uint32_t hartid = __RV_CSR_READ(CSR_MHARTID);
80000952:	f14028f3          	csrr	a7,mhartid
E:\VMshare\e203\zhengdian_E203\sdk\whetstone\hbird_sdk\NMSIS\Core\Include/core_feature_plic.h:193
                    (hartid << PLIC_ENABLE_SHIFT_PER_TARGET) + (source >> 5) * 4);
80000956:	00789e13          	slli	t3,a7,0x7
8000095a:	010e0f33          	add	t5,t3,a6
E:\VMshare\e203\zhengdian_E203\sdk\whetstone\hbird_sdk\NMSIS\Core\Include/core_feature_plic.h:195
    uint32_t current = *enable_reg;
8000095e:	000f2f83          	lw	t6,0(t5)
E:\VMshare\e203\zhengdian_E203\sdk\whetstone\hbird_sdk\NMSIS\Core\Include/core_feature_plic.h:196
    current = current & (~(1<<(source&0x1F)));
80000962:	fbfff793          	andi	a5,t6,-65
E:\VMshare\e203\zhengdian_E203\sdk\whetstone\hbird_sdk\NMSIS\Core\Include/core_feature_plic.h:197
    *enable_reg = current;
80000966:	00ff2023          	sw	a5,0(t5)
PLIC_SetPriority():
E:\VMshare\e203\zhengdian_E203\sdk\whetstone\hbird_sdk\NMSIS\Core\Include/core_feature_plic.h:237
    *priority_reg = priority;
8000096a:	000eac23          	sw	zero,24(t4)
PLIC_DisableInterrupt():
E:\VMshare\e203\zhengdian_E203\sdk\whetstone\hbird_sdk\NMSIS\Core\Include/core_feature_plic.h:191
    uint32_t hartid = __RV_CSR_READ(CSR_MHARTID);
8000096e:	f1402473          	csrr	s0,mhartid
E:\VMshare\e203\zhengdian_E203\sdk\whetstone\hbird_sdk\NMSIS\Core\Include/core_feature_plic.h:193
                    (hartid << PLIC_ENABLE_SHIFT_PER_TARGET) + (source >> 5) * 4);
80000972:	00741593          	slli	a1,s0,0x7
80000976:	010582b3          	add	t0,a1,a6
E:\VMshare\e203\zhengdian_E203\sdk\whetstone\hbird_sdk\NMSIS\Core\Include/core_feature_plic.h:195
    uint32_t current = *enable_reg;
8000097a:	0002a703          	lw	a4,0(t0)
E:\VMshare\e203\zhengdian_E203\sdk\whetstone\hbird_sdk\NMSIS\Core\Include/core_feature_plic.h:196
    current = current & (~(1<<(source&0x1F)));
8000097e:	f7f77613          	andi	a2,a4,-129
E:\VMshare\e203\zhengdian_E203\sdk\whetstone\hbird_sdk\NMSIS\Core\Include/core_feature_plic.h:197
    *enable_reg = current;
80000982:	00c2a023          	sw	a2,0(t0)
PLIC_SetPriority():
E:\VMshare\e203\zhengdian_E203\sdk\whetstone\hbird_sdk\NMSIS\Core\Include/core_feature_plic.h:237
    *priority_reg = priority;
80000986:	000eae23          	sw	zero,28(t4)
PLIC_DisableInterrupt():
E:\VMshare\e203\zhengdian_E203\sdk\whetstone\hbird_sdk\NMSIS\Core\Include/core_feature_plic.h:191
    uint32_t hartid = __RV_CSR_READ(CSR_MHARTID);
8000098a:	f14026f3          	csrr	a3,mhartid
E:\VMshare\e203\zhengdian_E203\sdk\whetstone\hbird_sdk\NMSIS\Core\Include/core_feature_plic.h:193
                    (hartid << PLIC_ENABLE_SHIFT_PER_TARGET) + (source >> 5) * 4);
8000098e:	00769313          	slli	t1,a3,0x7
80000992:	010303b3          	add	t2,t1,a6
E:\VMshare\e203\zhengdian_E203\sdk\whetstone\hbird_sdk\NMSIS\Core\Include/core_feature_plic.h:195
    uint32_t current = *enable_reg;
80000996:	0003a503          	lw	a0,0(t2)
E:\VMshare\e203\zhengdian_E203\sdk\whetstone\hbird_sdk\NMSIS\Core\Include/core_feature_plic.h:196
    current = current & (~(1<<(source&0x1F)));
8000099a:	eff57893          	andi	a7,a0,-257
E:\VMshare\e203\zhengdian_E203\sdk\whetstone\hbird_sdk\NMSIS\Core\Include/core_feature_plic.h:197
    *enable_reg = current;
8000099e:	0113a023          	sw	a7,0(t2)
PLIC_SetPriority():
E:\VMshare\e203\zhengdian_E203\sdk\whetstone\hbird_sdk\NMSIS\Core\Include/core_feature_plic.h:237
    *priority_reg = priority;
800009a2:	020ea023          	sw	zero,32(t4)
PLIC_DisableInterrupt():
E:\VMshare\e203\zhengdian_E203\sdk\whetstone\hbird_sdk\NMSIS\Core\Include/core_feature_plic.h:191
    uint32_t hartid = __RV_CSR_READ(CSR_MHARTID);
800009a6:	f1402e73          	csrr	t3,mhartid
E:\VMshare\e203\zhengdian_E203\sdk\whetstone\hbird_sdk\NMSIS\Core\Include/core_feature_plic.h:193
                    (hartid << PLIC_ENABLE_SHIFT_PER_TARGET) + (source >> 5) * 4);
800009aa:	007e1f13          	slli	t5,t3,0x7
800009ae:	010f0fb3          	add	t6,t5,a6
E:\VMshare\e203\zhengdian_E203\sdk\whetstone\hbird_sdk\NMSIS\Core\Include/core_feature_plic.h:195
    uint32_t current = *enable_reg;
800009b2:	000fa783          	lw	a5,0(t6)
E:\VMshare\e203\zhengdian_E203\sdk\whetstone\hbird_sdk\NMSIS\Core\Include/core_feature_plic.h:196
    current = current & (~(1<<(source&0x1F)));
800009b6:	dff7f413          	andi	s0,a5,-513
E:\VMshare\e203\zhengdian_E203\sdk\whetstone\hbird_sdk\NMSIS\Core\Include/core_feature_plic.h:197
    *enable_reg = current;
800009ba:	008fa023          	sw	s0,0(t6)
PLIC_SetPriority():
E:\VMshare\e203\zhengdian_E203\sdk\whetstone\hbird_sdk\NMSIS\Core\Include/core_feature_plic.h:237
    *priority_reg = priority;
800009be:	020ea223          	sw	zero,36(t4)
PLIC_DisableInterrupt():
E:\VMshare\e203\zhengdian_E203\sdk\whetstone\hbird_sdk\NMSIS\Core\Include/core_feature_plic.h:191
    uint32_t hartid = __RV_CSR_READ(CSR_MHARTID);
800009c2:	f14025f3          	csrr	a1,mhartid
E:\VMshare\e203\zhengdian_E203\sdk\whetstone\hbird_sdk\NMSIS\Core\Include/core_feature_plic.h:193
                    (hartid << PLIC_ENABLE_SHIFT_PER_TARGET) + (source >> 5) * 4);
800009c6:	00759293          	slli	t0,a1,0x7
800009ca:	01028733          	add	a4,t0,a6
E:\VMshare\e203\zhengdian_E203\sdk\whetstone\hbird_sdk\NMSIS\Core\Include/core_feature_plic.h:195
    uint32_t current = *enable_reg;
800009ce:	4310                	lw	a2,0(a4)
E:\VMshare\e203\zhengdian_E203\sdk\whetstone\hbird_sdk\NMSIS\Core\Include/core_feature_plic.h:196
    current = current & (~(1<<(source&0x1F)));
800009d0:	bff67693          	andi	a3,a2,-1025
E:\VMshare\e203\zhengdian_E203\sdk\whetstone\hbird_sdk\NMSIS\Core\Include/core_feature_plic.h:197
    *enable_reg = current;
800009d4:	c314                	sw	a3,0(a4)
PLIC_SetPriority():
E:\VMshare\e203\zhengdian_E203\sdk\whetstone\hbird_sdk\NMSIS\Core\Include/core_feature_plic.h:237
    *priority_reg = priority;
800009d6:	020ea423          	sw	zero,40(t4)
PLIC_DisableInterrupt():
E:\VMshare\e203\zhengdian_E203\sdk\whetstone\hbird_sdk\NMSIS\Core\Include/core_feature_plic.h:191
    uint32_t hartid = __RV_CSR_READ(CSR_MHARTID);
800009da:	f1402373          	csrr	t1,mhartid
E:\VMshare\e203\zhengdian_E203\sdk\whetstone\hbird_sdk\NMSIS\Core\Include/core_feature_plic.h:193
                    (hartid << PLIC_ENABLE_SHIFT_PER_TARGET) + (source >> 5) * 4);
800009de:	00731393          	slli	t2,t1,0x7
800009e2:	010388b3          	add	a7,t2,a6
E:\VMshare\e203\zhengdian_E203\sdk\whetstone\hbird_sdk\NMSIS\Core\Include/core_feature_plic.h:195
    uint32_t current = *enable_reg;
800009e6:	0008ae03          	lw	t3,0(a7)
E:\VMshare\e203\zhengdian_E203\sdk\whetstone\hbird_sdk\NMSIS\Core\Include/core_feature_plic.h:196
    current = current & (~(1<<(source&0x1F)));
800009ea:	7f7d                	lui	t5,0xfffff
800009ec:	7fff0513          	addi	a0,t5,2047 # fffff7ff <_sp+0x6ffef7ff>
800009f0:	00ae7fb3          	and	t6,t3,a0
E:\VMshare\e203\zhengdian_E203\sdk\whetstone\hbird_sdk\NMSIS\Core\Include/core_feature_plic.h:197
    *enable_reg = current;
800009f4:	01f8a023          	sw	t6,0(a7)
PLIC_SetPriority():
E:\VMshare\e203\zhengdian_E203\sdk\whetstone\hbird_sdk\NMSIS\Core\Include/core_feature_plic.h:237
    *priority_reg = priority;
800009f8:	020ea623          	sw	zero,44(t4)
PLIC_DisableInterrupt():
E:\VMshare\e203\zhengdian_E203\sdk\whetstone\hbird_sdk\NMSIS\Core\Include/core_feature_plic.h:191
    uint32_t hartid = __RV_CSR_READ(CSR_MHARTID);
800009fc:	f14027f3          	csrr	a5,mhartid
E:\VMshare\e203\zhengdian_E203\sdk\whetstone\hbird_sdk\NMSIS\Core\Include/core_feature_plic.h:193
                    (hartid << PLIC_ENABLE_SHIFT_PER_TARGET) + (source >> 5) * 4);
80000a00:	00779413          	slli	s0,a5,0x7
80000a04:	010402b3          	add	t0,s0,a6
E:\VMshare\e203\zhengdian_E203\sdk\whetstone\hbird_sdk\NMSIS\Core\Include/core_feature_plic.h:195
    uint32_t current = *enable_reg;
80000a08:	0002a583          	lw	a1,0(t0)
E:\VMshare\e203\zhengdian_E203\sdk\whetstone\hbird_sdk\NMSIS\Core\Include/core_feature_plic.h:196
    current = current & (~(1<<(source&0x1F)));
80000a0c:	ffff0713          	addi	a4,t5,-1
80000a10:	00e5f633          	and	a2,a1,a4
E:\VMshare\e203\zhengdian_E203\sdk\whetstone\hbird_sdk\NMSIS\Core\Include/core_feature_plic.h:197
    *enable_reg = current;
80000a14:	00c2a023          	sw	a2,0(t0)
PLIC_SetPriority():
E:\VMshare\e203\zhengdian_E203\sdk\whetstone\hbird_sdk\NMSIS\Core\Include/core_feature_plic.h:237
    *priority_reg = priority;
80000a18:	020ea823          	sw	zero,48(t4)
PLIC_DisableInterrupt():
E:\VMshare\e203\zhengdian_E203\sdk\whetstone\hbird_sdk\NMSIS\Core\Include/core_feature_plic.h:191
    uint32_t hartid = __RV_CSR_READ(CSR_MHARTID);
80000a1c:	f14026f3          	csrr	a3,mhartid
E:\VMshare\e203\zhengdian_E203\sdk\whetstone\hbird_sdk\NMSIS\Core\Include/core_feature_plic.h:193
                    (hartid << PLIC_ENABLE_SHIFT_PER_TARGET) + (source >> 5) * 4);
80000a20:	00769313          	slli	t1,a3,0x7
80000a24:	010303b3          	add	t2,t1,a6
E:\VMshare\e203\zhengdian_E203\sdk\whetstone\hbird_sdk\NMSIS\Core\Include/core_feature_plic.h:195
    uint32_t current = *enable_reg;
80000a28:	0003a883          	lw	a7,0(t2)
E:\VMshare\e203\zhengdian_E203\sdk\whetstone\hbird_sdk\NMSIS\Core\Include/core_feature_plic.h:196
    current = current & (~(1<<(source&0x1F)));
80000a2c:	7e79                	lui	t3,0xffffe
80000a2e:	fffe0f13          	addi	t5,t3,-1 # ffffdfff <_sp+0x6ffedfff>
80000a32:	01e8f533          	and	a0,a7,t5
E:\VMshare\e203\zhengdian_E203\sdk\whetstone\hbird_sdk\NMSIS\Core\Include/core_feature_plic.h:197
    *enable_reg = current;
80000a36:	00a3a023          	sw	a0,0(t2)
PLIC_SetPriority():
E:\VMshare\e203\zhengdian_E203\sdk\whetstone\hbird_sdk\NMSIS\Core\Include/core_feature_plic.h:237
    *priority_reg = priority;
80000a3a:	020eaa23          	sw	zero,52(t4)
PLIC_DisableInterrupt():
E:\VMshare\e203\zhengdian_E203\sdk\whetstone\hbird_sdk\NMSIS\Core\Include/core_feature_plic.h:191
    uint32_t hartid = __RV_CSR_READ(CSR_MHARTID);
80000a3e:	f1402ff3          	csrr	t6,mhartid
E:\VMshare\e203\zhengdian_E203\sdk\whetstone\hbird_sdk\NMSIS\Core\Include/core_feature_plic.h:193
                    (hartid << PLIC_ENABLE_SHIFT_PER_TARGET) + (source >> 5) * 4);
80000a42:	007f9793          	slli	a5,t6,0x7
80000a46:	01078433          	add	s0,a5,a6
E:\VMshare\e203\zhengdian_E203\sdk\whetstone\hbird_sdk\NMSIS\Core\Include/core_feature_plic.h:195
    uint32_t current = *enable_reg;
80000a4a:	00042283          	lw	t0,0(s0)
E:\VMshare\e203\zhengdian_E203\sdk\whetstone\hbird_sdk\NMSIS\Core\Include/core_feature_plic.h:196
    current = current & (~(1<<(source&0x1F)));
80000a4e:	75f1                	lui	a1,0xffffc
80000a50:	fff58713          	addi	a4,a1,-1 # ffffbfff <_sp+0x6ffebfff>
80000a54:	00e2f633          	and	a2,t0,a4
E:\VMshare\e203\zhengdian_E203\sdk\whetstone\hbird_sdk\NMSIS\Core\Include/core_feature_plic.h:197
    *enable_reg = current;
80000a58:	c010                	sw	a2,0(s0)
PLIC_SetPriority():
E:\VMshare\e203\zhengdian_E203\sdk\whetstone\hbird_sdk\NMSIS\Core\Include/core_feature_plic.h:237
    *priority_reg = priority;
80000a5a:	020eac23          	sw	zero,56(t4)
PLIC_DisableInterrupt():
E:\VMshare\e203\zhengdian_E203\sdk\whetstone\hbird_sdk\NMSIS\Core\Include/core_feature_plic.h:191
    uint32_t hartid = __RV_CSR_READ(CSR_MHARTID);
80000a5e:	f14026f3          	csrr	a3,mhartid
E:\VMshare\e203\zhengdian_E203\sdk\whetstone\hbird_sdk\NMSIS\Core\Include/core_feature_plic.h:193
                    (hartid << PLIC_ENABLE_SHIFT_PER_TARGET) + (source >> 5) * 4);
80000a62:	00769313          	slli	t1,a3,0x7
80000a66:	010303b3          	add	t2,t1,a6
E:\VMshare\e203\zhengdian_E203\sdk\whetstone\hbird_sdk\NMSIS\Core\Include/core_feature_plic.h:195
    uint32_t current = *enable_reg;
80000a6a:	0003a883          	lw	a7,0(t2)
E:\VMshare\e203\zhengdian_E203\sdk\whetstone\hbird_sdk\NMSIS\Core\Include/core_feature_plic.h:196
    current = current & (~(1<<(source&0x1F)));
80000a6e:	7e61                	lui	t3,0xffff8
80000a70:	fffe0f13          	addi	t5,t3,-1 # ffff7fff <_sp+0x6ffe7fff>
80000a74:	01e8f533          	and	a0,a7,t5
E:\VMshare\e203\zhengdian_E203\sdk\whetstone\hbird_sdk\NMSIS\Core\Include/core_feature_plic.h:197
    *enable_reg = current;
80000a78:	00a3a023          	sw	a0,0(t2)
PLIC_SetPriority():
E:\VMshare\e203\zhengdian_E203\sdk\whetstone\hbird_sdk\NMSIS\Core\Include/core_feature_plic.h:237
    *priority_reg = priority;
80000a7c:	020eae23          	sw	zero,60(t4)
PLIC_DisableInterrupt():
E:\VMshare\e203\zhengdian_E203\sdk\whetstone\hbird_sdk\NMSIS\Core\Include/core_feature_plic.h:191
    uint32_t hartid = __RV_CSR_READ(CSR_MHARTID);
80000a80:	f1402ff3          	csrr	t6,mhartid
E:\VMshare\e203\zhengdian_E203\sdk\whetstone\hbird_sdk\NMSIS\Core\Include/core_feature_plic.h:193
                    (hartid << PLIC_ENABLE_SHIFT_PER_TARGET) + (source >> 5) * 4);
80000a84:	007f9793          	slli	a5,t6,0x7
80000a88:	983e                	add	a6,a6,a5
E:\VMshare\e203\zhengdian_E203\sdk\whetstone\hbird_sdk\NMSIS\Core\Include/core_feature_plic.h:195
    uint32_t current = *enable_reg;
80000a8a:	00082403          	lw	s0,0(a6) # c002000 <__stack_size+0xc001800>
E:\VMshare\e203\zhengdian_E203\sdk\whetstone\hbird_sdk\NMSIS\Core\Include/core_feature_plic.h:196
    current = current & (~(1<<(source&0x1F)));
80000a8e:	72c1                	lui	t0,0xffff0
80000a90:	fff28593          	addi	a1,t0,-1 # fffeffff <_sp+0x6ffdffff>
80000a94:	00b47733          	and	a4,s0,a1
E:\VMshare\e203\zhengdian_E203\sdk\whetstone\hbird_sdk\NMSIS\Core\Include/core_feature_plic.h:197
    *enable_reg = current;
80000a98:	00e82023          	sw	a4,0(a6)
PLIC_SetPriority():
E:\VMshare\e203\zhengdian_E203\sdk\whetstone\hbird_sdk\NMSIS\Core\Include/core_feature_plic.h:237
    *priority_reg = priority;
80000a9c:	040ea023          	sw	zero,64(t4)
PLIC_SetThreshold():
E:\VMshare\e203\zhengdian_E203\sdk\whetstone\hbird_sdk\NMSIS\Core\Include/core_feature_plic.h:135
    uint32_t hartid = __RV_CSR_READ(CSR_MHARTID);
80000aa0:	f1402ef3          	csrr	t4,mhartid
E:\VMshare\e203\zhengdian_E203\sdk\whetstone\hbird_sdk\NMSIS\Core\Include/core_feature_plic.h:137
                    PLIC_THRESHOLD_OFFSET + (hartid << PLIC_THRESHOLD_SHIFT_PER_TARGET));
80000aa4:	0c2006b7          	lui	a3,0xc200
_premain_init():
E:\VMshare\e203\zhengdian_E203\sdk\whetstone\Release/../hbird_sdk/SoC/hbirdv2/Common/Source/system_hbirdv2.c:481
    Interrupt_Init();
#if defined(__PLIC_PRESENT) && __PLIC_PRESENT == 1
    /* PLIC initilization */
    PLIC_Init(__PLIC_INTNUM);
#endif
}
80000aa8:	40b2                	lw	ra,12(sp)
80000aaa:	4422                	lw	s0,8(sp)
PLIC_SetThreshold():
E:\VMshare\e203\zhengdian_E203\sdk\whetstone\hbird_sdk\NMSIS\Core\Include/core_feature_plic.h:137
80000aac:	00ce9613          	slli	a2,t4,0xc
80000ab0:	00d60333          	add	t1,a2,a3
E:\VMshare\e203\zhengdian_E203\sdk\whetstone\hbird_sdk\NMSIS\Core\Include/core_feature_plic.h:139
    *thresh_reg = thresh;
80000ab4:	00032023          	sw	zero,0(t1)
_premain_init():
E:\VMshare\e203\zhengdian_E203\sdk\whetstone\Release/../hbird_sdk/SoC/hbirdv2/Common/Source/system_hbirdv2.c:481
80000ab8:	0141                	addi	sp,sp,16
80000aba:	8082                	ret

80000abc <_postmain_fini>:
_postmain_fini():
E:\VMshare\e203\zhengdian_E203\sdk\whetstone\Release/../hbird_sdk/SoC/hbirdv2/Common/Source/system_hbirdv2.c:507
#ifdef SIMULATION_RTL
extern void rtlsim_exit(int status);
    rtlsim_exit(status);
#endif

}
80000abc:	8082                	ret

80000abe <_init>:
_init():
E:\VMshare\e203\zhengdian_E203\sdk\whetstone\Release/../hbird_sdk/SoC/hbirdv2/Common/Source/system_hbirdv2.c:521
 * Please use \ref _premain_init function now
 */
void _init(void)
{
    /* Don't put any code here, please use _premain_init now */
}
80000abe:	8082                	ret

80000ac0 <_fini>:
_fini():
80000ac0:	8082                	ret

80000ac2 <start_time>:
SysTimer_GetLoadValue():
E:\VMshare\e203\zhengdian_E203\sdk\whetstone\hbird_sdk\NMSIS\Core\Include/core_feature_timer.h:106
80000ac2:	0200c7b7          	lui	a5,0x200c
80000ac6:	ff87a503          	lw	a0,-8(a5) # 200bff8 <__stack_size+0x200b7f8>
80000aca:	ffc7a583          	lw	a1,-4(a5)
start_time():
E:\VMshare\e203\zhengdian_E203\sdk\whetstone\Release/../application/cpuidc.c:22
	theseSecs = time() ;
	return;
}

void start_time()
{
80000ace:	1141                	addi	sp,sp,-16
80000ad0:	c606                	sw	ra,12(sp)
time():
E:\VMshare\e203\zhengdian_E203\sdk\whetstone\Release/../application/cpuidc.c:12
    return (SPDP) SysTimer_GetLoadValue() / SOC_TIMER_FREQ;
80000ad2:	735030ef          	jal	ra,80004a06 <__floatundisf>
80000ad6:	0ffff597          	auipc	a1,0xffff
80000ada:	75a5a583          	lw	a1,1882(a1) # 90000230 <_impure_ptr+0x54>
80000ade:	7ea030ef          	jal	ra,800042c8 <__mulsf3>
getSecs():
E:\VMshare\e203\zhengdian_E203\sdk\whetstone\Release/../application/cpuidc.c:17
	theseSecs = time() ;
80000ae2:	9ea1a223          	sw	a0,-1564(gp) # 900003b4 <theseSecs>
start_time():
E:\VMshare\e203\zhengdian_E203\sdk\whetstone\Release/../application/cpuidc.c:26
	getSecs();
	startSecs = theseSecs;
	return;
}
80000ae6:	40b2                	lw	ra,12(sp)
E:\VMshare\e203\zhengdian_E203\sdk\whetstone\Release/../application/cpuidc.c:24
	startSecs = theseSecs;
80000ae8:	9e41a283          	lw	t0,-1564(gp) # 900003b4 <theseSecs>
80000aec:	9e51a023          	sw	t0,-1568(gp) # 900003b0 <startSecs>
E:\VMshare\e203\zhengdian_E203\sdk\whetstone\Release/../application/cpuidc.c:26
}
80000af0:	0141                	addi	sp,sp,16
80000af2:	8082                	ret

80000af4 <end_time>:
SysTimer_GetLoadValue():
E:\VMshare\e203\zhengdian_E203\sdk\whetstone\hbird_sdk\NMSIS\Core\Include/core_feature_timer.h:106
80000af4:	0200c7b7          	lui	a5,0x200c
80000af8:	ff87a503          	lw	a0,-8(a5) # 200bff8 <__stack_size+0x200b7f8>
80000afc:	ffc7a583          	lw	a1,-4(a5)
end_time():
E:\VMshare\e203\zhengdian_E203\sdk\whetstone\Release/../application/cpuidc.c:29

void end_time()
{
80000b00:	1141                	addi	sp,sp,-16
80000b02:	c606                	sw	ra,12(sp)
time():
E:\VMshare\e203\zhengdian_E203\sdk\whetstone\Release/../application/cpuidc.c:12
    return (SPDP) SysTimer_GetLoadValue() / SOC_TIMER_FREQ;
80000b04:	703030ef          	jal	ra,80004a06 <__floatundisf>
80000b08:	0ffff597          	auipc	a1,0xffff
80000b0c:	7285a583          	lw	a1,1832(a1) # 90000230 <_impure_ptr+0x54>
80000b10:	7b8030ef          	jal	ra,800042c8 <__mulsf3>
getSecs():
E:\VMshare\e203\zhengdian_E203\sdk\whetstone\Release/../application/cpuidc.c:17
	theseSecs = time() ;
80000b14:	9ea1a223          	sw	a0,-1564(gp) # 900003b4 <theseSecs>
end_time():
E:\VMshare\e203\zhengdian_E203\sdk\whetstone\Release/../application/cpuidc.c:31
	getSecs();
	secs = theseSecs - startSecs;
80000b18:	9e41a503          	lw	a0,-1564(gp) # 900003b4 <theseSecs>
80000b1c:	9e01a583          	lw	a1,-1568(gp) # 900003b0 <startSecs>
80000b20:	1cd030ef          	jal	ra,800044ec <__subsf3>
E:\VMshare\e203\zhengdian_E203\sdk\whetstone\Release/../application/cpuidc.c:33
	return;
}
80000b24:	40b2                	lw	ra,12(sp)
E:\VMshare\e203\zhengdian_E203\sdk\whetstone\Release/../application/cpuidc.c:31
	secs = theseSecs - startSecs;
80000b26:	9ca1ae23          	sw	a0,-1572(gp) # 900003ac <secs>
E:\VMshare\e203\zhengdian_E203\sdk\whetstone\Release/../application/cpuidc.c:33
}
80000b2a:	0141                	addi	sp,sp,16
80000b2c:	8082                	ret

80000b2e <whetstones.constprop.0>:
whetstones():
E:\VMshare\e203\zhengdian_E203\sdk\whetstone\Release/../application/whets.c:285

void whetstones(long xtra, long x100, int calibrate)
80000b2e:	711d                	addi	sp,sp,-96
80000b30:	caa6                	sw	s1,84(sp)
80000b32:	c4d2                	sw	s4,72(sp)
80000b34:	ce86                	sw	ra,92(sp)
80000b36:	cca2                	sw	s0,88(sp)
80000b38:	c8ca                	sw	s2,80(sp)
80000b3a:	c6ce                	sw	s3,76(sp)
80000b3c:	c2d6                	sw	s5,68(sp)
80000b3e:	c0da                	sw	s6,64(sp)
80000b40:	de5e                	sw	s7,60(sp)
80000b42:	dc62                	sw	s8,56(sp)
80000b44:	da66                	sw	s9,52(sp)
80000b46:	d86a                	sw	s10,48(sp)
80000b48:	d66e                	sw	s11,44(sp)
E:\VMshare\e203\zhengdian_E203\sdk\whetstone\Release/../application/whets.c:298
    SPDP t = 0.49999975;
    SPDP t0 = t;
    SPDP t1 = 0.50000025;
    SPDP t2 = 2.0;

    Check = 0.0;
80000b4a:	9e818793          	addi	a5,gp,-1560 # 900003b8 <Check>
80000b4e:	00000713          	li	a4,0
E:\VMshare\e203\zhengdian_E203\sdk\whetstone\Release/../application/whets.c:285
void whetstones(long xtra, long x100, int calibrate)
80000b52:	8a2a                	mv	s4,a0
80000b54:	ca2e                	sw	a1,20(sp)
E:\VMshare\e203\zhengdian_E203\sdk\whetstone\Release/../application/whets.c:298
    Check = 0.0;
80000b56:	c398                	sw	a4,0(a5)
E:\VMshare\e203\zhengdian_E203\sdk\whetstone\Release/../application/whets.c:316

    e1[0] = 1.0;
    e1[1] = -1.0;
    e1[2] = -1.0;
    e1[3] = -1.0;
    start_time();
80000b58:	37ad                	jal	80000ac2 <start_time>
E:\VMshare\e203\zhengdian_E203\sdk\whetstone\Release/../application/whets.c:312
    e1[0] = 1.0;
80000b5a:	0ffff297          	auipc	t0,0xffff
80000b5e:	6de2a283          	lw	t0,1758(t0) # 90000238 <_impure_ptr+0x5c>
E:\VMshare\e203\zhengdian_E203\sdk\whetstone\Release/../application/whets.c:315
    e1[3] = -1.0;
80000b62:	0ffff497          	auipc	s1,0xffff
80000b66:	6d24a483          	lw	s1,1746(s1) # 90000234 <_impure_ptr+0x58>
E:\VMshare\e203\zhengdian_E203\sdk\whetstone\Release/../application/whets.c:318
    {
        for (ix = 0; ix < xtra; ix++) {
80000b6a:	01404463          	bgtz	s4,80000b72 <whetstones.constprop.0+0x44>
80000b6e:	3e80106f          	j	80001f56 <whetstones.constprop.0+0x1428>
E:\VMshare\e203\zhengdian_E203\sdk\whetstone\Release/../application/whets.c:312
    e1[0] = 1.0;
80000b72:	8a96                	mv	s5,t0
80000b74:	ce16                	sw	t0,28(sp)
E:\VMshare\e203\zhengdian_E203\sdk\whetstone\Release/../application/whets.c:314
    e1[2] = -1.0;
80000b76:	8926                	mv	s2,s1
E:\VMshare\e203\zhengdian_E203\sdk\whetstone\Release/../application/whets.c:313
    e1[1] = -1.0;
80000b78:	8da6                	mv	s11,s1
E:\VMshare\e203\zhengdian_E203\sdk\whetstone\Release/../application/whets.c:312
    e1[0] = 1.0;
80000b7a:	8d16                	mv	s10,t0
E:\VMshare\e203\zhengdian_E203\sdk\whetstone\Release/../application/whets.c:318
        for (ix = 0; ix < xtra; ix++) {
80000b7c:	4981                	li	s3,0
E:\VMshare\e203\zhengdian_E203\sdk\whetstone\Release/../application/whets.c:293
    SPDP t = 0.49999975;
80000b7e:	0ffff417          	auipc	s0,0xffff
80000b82:	6be42403          	lw	s0,1726(s0) # 9000023c <_impure_ptr+0x60>
80000b86:	6b0d                	lui	s6,0x3
80000b88:	ee0b0b93          	addi	s7,s6,-288 # 2ee0 <__stack_size+0x26e0>
E:\VMshare\e203\zhengdian_E203\sdk\whetstone\Release/../application/whets.c:320
            for (i = 0; i < n1 * n1mult; i++) {
                e1[0] = (e1[0] + e1[1] + e1[2] - e1[3]) * t;
80000b8c:	85ea                	mv	a1,s10
80000b8e:	856e                	mv	a0,s11
80000b90:	07a030ef          	jal	ra,80003c0a <__addsf3>
80000b94:	85ca                	mv	a1,s2
80000b96:	074030ef          	jal	ra,80003c0a <__addsf3>
80000b9a:	85a6                	mv	a1,s1
80000b9c:	151030ef          	jal	ra,800044ec <__subsf3>
80000ba0:	85a2                	mv	a1,s0
80000ba2:	726030ef          	jal	ra,800042c8 <__mulsf3>
E:\VMshare\e203\zhengdian_E203\sdk\whetstone\Release/../application/whets.c:321
                e1[1] = (e1[0] + e1[1] - e1[2] + e1[3]) * t;
80000ba6:	85ee                	mv	a1,s11
E:\VMshare\e203\zhengdian_E203\sdk\whetstone\Release/../application/whets.c:320
                e1[0] = (e1[0] + e1[1] + e1[2] - e1[3]) * t;
80000ba8:	8d2a                	mv	s10,a0
E:\VMshare\e203\zhengdian_E203\sdk\whetstone\Release/../application/whets.c:321
                e1[1] = (e1[0] + e1[1] - e1[2] + e1[3]) * t;
80000baa:	060030ef          	jal	ra,80003c0a <__addsf3>
80000bae:	85ca                	mv	a1,s2
80000bb0:	13d030ef          	jal	ra,800044ec <__subsf3>
80000bb4:	85a6                	mv	a1,s1
80000bb6:	054030ef          	jal	ra,80003c0a <__addsf3>
80000bba:	85a2                	mv	a1,s0
80000bbc:	70c030ef          	jal	ra,800042c8 <__mulsf3>
E:\VMshare\e203\zhengdian_E203\sdk\whetstone\Release/../application/whets.c:322
                e1[2] = (e1[0] - e1[1] + e1[2] + e1[3]) * t;
80000bc0:	85aa                	mv	a1,a0
E:\VMshare\e203\zhengdian_E203\sdk\whetstone\Release/../application/whets.c:321
                e1[1] = (e1[0] + e1[1] - e1[2] + e1[3]) * t;
80000bc2:	8daa                	mv	s11,a0
E:\VMshare\e203\zhengdian_E203\sdk\whetstone\Release/../application/whets.c:322
                e1[2] = (e1[0] - e1[1] + e1[2] + e1[3]) * t;
80000bc4:	856a                	mv	a0,s10
80000bc6:	127030ef          	jal	ra,800044ec <__subsf3>
80000bca:	85ca                	mv	a1,s2
80000bcc:	03e030ef          	jal	ra,80003c0a <__addsf3>
80000bd0:	85a6                	mv	a1,s1
80000bd2:	038030ef          	jal	ra,80003c0a <__addsf3>
80000bd6:	85a2                	mv	a1,s0
80000bd8:	6f0030ef          	jal	ra,800042c8 <__mulsf3>
80000bdc:	892a                	mv	s2,a0
E:\VMshare\e203\zhengdian_E203\sdk\whetstone\Release/../application/whets.c:323
                e1[3] = (-e1[0] + e1[1] + e1[2] + e1[3]) * t;
80000bde:	85ea                	mv	a1,s10
80000be0:	856e                	mv	a0,s11
80000be2:	10b030ef          	jal	ra,800044ec <__subsf3>
80000be6:	85ca                	mv	a1,s2
80000be8:	022030ef          	jal	ra,80003c0a <__addsf3>
80000bec:	85a6                	mv	a1,s1
80000bee:	01c030ef          	jal	ra,80003c0a <__addsf3>
80000bf2:	85a2                	mv	a1,s0
80000bf4:	6d4030ef          	jal	ra,800042c8 <__mulsf3>
E:\VMshare\e203\zhengdian_E203\sdk\whetstone\Release/../application/whets.c:319
            for (i = 0; i < n1 * n1mult; i++) {
80000bf8:	1bfd                	addi	s7,s7,-1
E:\VMshare\e203\zhengdian_E203\sdk\whetstone\Release/../application/whets.c:323
                e1[3] = (-e1[0] + e1[1] + e1[2] + e1[3]) * t;
80000bfa:	84aa                	mv	s1,a0
E:\VMshare\e203\zhengdian_E203\sdk\whetstone\Release/../application/whets.c:319
            for (i = 0; i < n1 * n1mult; i++) {
80000bfc:	f80b98e3          	bnez	s7,80000b8c <whetstones.constprop.0+0x5e>
E:\VMshare\e203\zhengdian_E203\sdk\whetstone\Release/../application/whets.c:325
            }
            t = 1.0 - t;
80000c00:	85a2                	mv	a1,s0
80000c02:	8556                	mv	a0,s5
80000c04:	0e9030ef          	jal	ra,800044ec <__subsf3>
E:\VMshare\e203\zhengdian_E203\sdk\whetstone\Release/../application/whets.c:318
        for (ix = 0; ix < xtra; ix++) {
80000c08:	0985                	addi	s3,s3,1
E:\VMshare\e203\zhengdian_E203\sdk\whetstone\Release/../application/whets.c:325
            t = 1.0 - t;
80000c0a:	842a                	mv	s0,a0
E:\VMshare\e203\zhengdian_E203\sdk\whetstone\Release/../application/whets.c:318
        for (ix = 0; ix < xtra; ix++) {
80000c0c:	f7499ee3          	bne	s3,s4,80000b88 <whetstones.constprop.0+0x5a>
E:\VMshare\e203\zhengdian_E203\sdk\whetstone\Release/../application/whets.c:329
        }
        t = t0;
    }
    end_time();
80000c10:	35d5                	jal	80000af4 <end_time>
E:\VMshare\e203\zhengdian_E203\sdk\whetstone\Release/../application/whets.c:330
    secs = secs / (SPDP)(n1mult);
80000c12:	0ffff597          	auipc	a1,0xffff
80000c16:	63e5a583          	lw	a1,1598(a1) # 90000250 <_impure_ptr+0x74>
80000c1a:	9dc1a503          	lw	a0,-1572(gp) # 900003ac <secs>
80000c1e:	312030ef          	jal	ra,80003f30 <__divsf3>
80000c22:	832a                	mv	t1,a0
E:\VMshare\e203\zhengdian_E203\sdk\whetstone\Release/../application/whets.c:331
    pout("N1 floating point\0", (float)(n1 * 16) * (float)(xtra), 1, e1[3],
80000c24:	8552                	mv	a0,s4
E:\VMshare\e203\zhengdian_E203\sdk\whetstone\Release/../application/whets.c:330
    secs = secs / (SPDP)(n1mult);
80000c26:	9c61ae23          	sw	t1,-1572(gp) # 900003ac <secs>
pout():
E:\VMshare\e203\zhengdian_E203\sdk\whetstone\Release/../application/whets.c:508
void pout(char title[18], float ops, int type, SPDP checknum, SPDP time,
          int calibrate, int section)
{
    SPDP mops, mflops;

    Check = Check + checknum;
80000c2a:	9e818c13          	addi	s8,gp,-1560 # 900003b8 <Check>
whetstones():
E:\VMshare\e203\zhengdian_E203\sdk\whetstone\Release/../application/whets.c:331
    pout("N1 floating point\0", (float)(n1 * 16) * (float)(xtra), 1, e1[3],
80000c2e:	485030ef          	jal	ra,800048b2 <__floatsisf>
80000c32:	83aa                	mv	t2,a0
pout():
E:\VMshare\e203\zhengdian_E203\sdk\whetstone\Release/../application/whets.c:508
    Check = Check + checknum;
80000c34:	000c2503          	lw	a0,0(s8)
whetstones():
E:\VMshare\e203\zhengdian_E203\sdk\whetstone\Release/../application/whets.c:331
    pout("N1 floating point\0", (float)(n1 * 16) * (float)(xtra), 1, e1[3],
80000c38:	9dc18613          	addi	a2,gp,-1572 # 900003ac <secs>
pout():
E:\VMshare\e203\zhengdian_E203\sdk\whetstone\Release/../application/whets.c:508
    Check = Check + checknum;
80000c3c:	85a6                	mv	a1,s1
E:\VMshare\e203\zhengdian_E203\sdk\whetstone\Release/../application/whets.c:510
    loop_time[section] = time;
    strcpy(headings[section], title);
80000c3e:	00009b17          	auipc	s6,0x9
80000c42:	01eb0b13          	addi	s6,s6,30 # 80009c5c <__trunctfdf2+0x4d4>
whetstones():
E:\VMshare\e203\zhengdian_E203\sdk\whetstone\Release/../application/whets.c:331
    pout("N1 floating point\0", (float)(n1 * 16) * (float)(xtra), 1, e1[3],
80000c46:	00062c83          	lw	s9,0(a2)
80000c4a:	cc1e                	sw	t2,24(sp)
pout():
E:\VMshare\e203\zhengdian_E203\sdk\whetstone\Release/../application/whets.c:508
    Check = Check + checknum;
80000c4c:	7bf020ef          	jal	ra,80003c0a <__addsf3>
E:\VMshare\e203\zhengdian_E203\sdk\whetstone\Release/../application/whets.c:510
    strcpy(headings[section], title);
80000c50:	000b5f03          	lhu	t5,0(s6)
80000c54:	002b5e83          	lhu	t4,2(s6)
80000c58:	004b5e03          	lhu	t3,4(s6)
80000c5c:	006b5283          	lhu	t0,6(s6)
80000c60:	008b5883          	lhu	a7,8(s6)
80000c64:	00cb5683          	lhu	a3,12(s6)
80000c68:	00eb5703          	lhu	a4,14(s6)
80000c6c:	010b5783          	lhu	a5,16(s6)
E:\VMshare\e203\zhengdian_E203\sdk\whetstone\Release/../application/whets.c:511
    TimeUsed = TimeUsed + time;
80000c70:	9ec18a93          	addi	s5,gp,-1556 # 900003bc <TimeUsed>
E:\VMshare\e203\zhengdian_E203\sdk\whetstone\Release/../application/whets.c:510
    strcpy(headings[section], title);
80000c74:	00ab5b83          	lhu	s7,10(s6)
E:\VMshare\e203\zhengdian_E203\sdk\whetstone\Release/../application/whets.c:508
    Check = Check + checknum;
80000c78:	8faa                	mv	t6,a0
E:\VMshare\e203\zhengdian_E203\sdk\whetstone\Release/../application/whets.c:511
    TimeUsed = TimeUsed + time;
80000c7a:	000aa503          	lw	a0,0(s5)
E:\VMshare\e203\zhengdian_E203\sdk\whetstone\Release/../application/whets.c:510
    strcpy(headings[section], title);
80000c7e:	a9c18993          	addi	s3,gp,-1380 # 9000046c <headings>
E:\VMshare\e203\zhengdian_E203\sdk\whetstone\Release/../application/whets.c:509
    loop_time[section] = time;
80000c82:	b4018813          	addi	a6,gp,-1216 # 90000510 <loop_time>
E:\VMshare\e203\zhengdian_E203\sdk\whetstone\Release/../application/whets.c:511
    TimeUsed = TimeUsed + time;
80000c86:	85e6                	mv	a1,s9
E:\VMshare\e203\zhengdian_E203\sdk\whetstone\Release/../application/whets.c:508
    Check = Check + checknum;
80000c88:	01fc2023          	sw	t6,0(s8)
E:\VMshare\e203\zhengdian_E203\sdk\whetstone\Release/../application/whets.c:509
    loop_time[section] = time;
80000c8c:	01982223          	sw	s9,4(a6)
E:\VMshare\e203\zhengdian_E203\sdk\whetstone\Release/../application/whets.c:510
    strcpy(headings[section], title);
80000c90:	01e99923          	sh	t5,18(s3)
80000c94:	01d99a23          	sh	t4,20(s3)
80000c98:	01c99b23          	sh	t3,22(s3)
80000c9c:	00599c23          	sh	t0,24(s3)
80000ca0:	01199d23          	sh	a7,26(s3)
80000ca4:	01799e23          	sh	s7,28(s3)
80000ca8:	00d99f23          	sh	a3,30(s3)
80000cac:	02e99023          	sh	a4,32(s3)
80000cb0:	02f99123          	sh	a5,34(s3)
E:\VMshare\e203\zhengdian_E203\sdk\whetstone\Release/../application/whets.c:511
    TimeUsed = TimeUsed + time;
80000cb4:	757020ef          	jal	ra,80003c0a <__addsf3>
E:\VMshare\e203\zhengdian_E203\sdk\whetstone\Release/../application/whets.c:512
    if (calibrate == 1)
80000cb8:	45d2                	lw	a1,20(sp)
E:\VMshare\e203\zhengdian_E203\sdk\whetstone\Release/../application/whets.c:511
    TimeUsed = TimeUsed + time;
80000cba:	00aaa023          	sw	a0,0(s5)
E:\VMshare\e203\zhengdian_E203\sdk\whetstone\Release/../application/whets.c:512
    if (calibrate == 1)
80000cbe:	4505                	li	a0,1
80000cc0:	00a59463          	bne	a1,a0,80000cc8 <whetstones.constprop.0+0x19a>
80000cc4:	6f10006f          	j	80001bb4 <whetstones.constprop.0+0x1086>
E:\VMshare\e203\zhengdian_E203\sdk\whetstone\Release/../application/whets.c:517

    {
        results[section] = checknum;
    }
    if (calibrate == 0) {
80000cc8:	edbd                	bnez	a1,80000d46 <whetstones.constprop.0+0x218>
E:\VMshare\e203\zhengdian_E203\sdk\whetstone\Release/../application/whets.c:518
        printf("%s %20.17f    ", headings[section], results[section]);
80000cca:	b681a503          	lw	a0,-1176(gp) # 90000538 <results+0x4>
80000cce:	60f030ef          	jal	ra,80004adc <__extendsfdf2>
80000cd2:	862a                	mv	a2,a0
80000cd4:	86ae                	mv	a3,a1
80000cd6:	00009517          	auipc	a0,0x9
80000cda:	dba50513          	addi	a0,a0,-582 # 80009a90 <__trunctfdf2+0x308>
80000cde:	aae18593          	addi	a1,gp,-1362 # 9000047e <headings+0x12>
80000ce2:	1b7040ef          	jal	ra,80005698 <iprintf>
E:\VMshare\e203\zhengdian_E203\sdk\whetstone\Release/../application/whets.c:521

        if (type == 1) {
            if (time > 0) {
80000ce6:	00000593          	li	a1,0
80000cea:	8566                	mv	a0,s9
80000cec:	4ec030ef          	jal	ra,800041d8 <__gesf2>
80000cf0:	00a04463          	bgtz	a0,80000cf8 <whetstones.constprop.0+0x1ca>
80000cf4:	2280106f          	j	80001f1c <whetstones.constprop.0+0x13ee>
whetstones():
E:\VMshare\e203\zhengdian_E203\sdk\whetstone\Release/../application/whets.c:331
    pout("N1 floating point\0", (float)(n1 * 16) * (float)(xtra), 1, e1[3],
80000cf8:	4562                	lw	a0,24(sp)
80000cfa:	0ffff597          	auipc	a1,0xffff
80000cfe:	55a5a583          	lw	a1,1370(a1) # 90000254 <_impure_ptr+0x78>
80000d02:	5c6030ef          	jal	ra,800042c8 <__mulsf3>
80000d06:	8aaa                	mv	s5,a0
pout():
E:\VMshare\e203\zhengdian_E203\sdk\whetstone\Release/../application/whets.c:522
                mflops = ops / (1000000L * time);
80000d08:	0ffff597          	auipc	a1,0xffff
80000d0c:	5505a583          	lw	a1,1360(a1) # 90000258 <_impure_ptr+0x7c>
80000d10:	8566                	mv	a0,s9
80000d12:	5b6030ef          	jal	ra,800042c8 <__mulsf3>
80000d16:	85aa                	mv	a1,a0
80000d18:	8556                	mv	a0,s5
80000d1a:	216030ef          	jal	ra,80003f30 <__divsf3>
E:\VMshare\e203\zhengdian_E203\sdk\whetstone\Release/../application/whets.c:528
            } else {
                mflops = 0;
            }
            loop_mops[section] = 99999;
            loop_mflops[section] = mflops;
            printf(" %9.3f          %9.3f\n", loop_mflops[section],
80000d1e:	5bf030ef          	jal	ra,80004adc <__extendsfdf2>
80000d22:	8c2a                	mv	s8,a0
80000d24:	842e                	mv	s0,a1
80000d26:	b4018093          	addi	ra,gp,-1216 # 90000510 <loop_time>
80000d2a:	0040a503          	lw	a0,4(ra)
80000d2e:	5af030ef          	jal	ra,80004adc <__extendsfdf2>
80000d32:	872a                	mv	a4,a0
80000d34:	87ae                	mv	a5,a1
80000d36:	8662                	mv	a2,s8
80000d38:	86a2                	mv	a3,s0
80000d3a:	00009517          	auipc	a0,0x9
80000d3e:	d6650513          	addi	a0,a0,-666 # 80009aa0 <__trunctfdf2+0x318>
80000d42:	157040ef          	jal	ra,80005698 <iprintf>
whetstones():
E:\VMshare\e203\zhengdian_E203\sdk\whetstone\Release/../application/whets.c:336
    start_time();
80000d46:	3bb5                	jal	80000ac2 <start_time>
E:\VMshare\e203\zhengdian_E203\sdk\whetstone\Release/../application/whets.c:338
        for (ix = 0; ix < xtra; ix++) {
80000d48:	2d405a63          	blez	s4,8000101c <whetstones.constprop.0+0x4ee>
80000d4c:	4b81                	li	s7,0
E:\VMshare\e203\zhengdian_E203\sdk\whetstone\Release/../application/whets.c:327
        t = t0;
80000d4e:	0ffff417          	auipc	s0,0xffff
80000d52:	4ee42403          	lw	s0,1262(s0) # 9000023c <_impure_ptr+0x60>
pa():
E:\VMshare\e203\zhengdian_E203\sdk\whetstone\Release/../application/whets.c:479
        e[3] = (-e[0] + e[1] + e[2] + e[3]) / t2;
80000d56:	0ffff997          	auipc	s3,0xffff
80000d5a:	5069a983          	lw	s3,1286(s3) # 9000025c <_impure_ptr+0x80>
whetstones():
E:\VMshare\e203\zhengdian_E203\sdk\whetstone\Release/../application/whets.c:342
            t = 1.0 - t;
80000d5e:	0ffffc97          	auipc	s9,0xffff
80000d62:	4dacac83          	lw	s9,1242(s9) # 90000238 <_impure_ptr+0x5c>
E:\VMshare\e203\zhengdian_E203\sdk\whetstone\Release/../application/whets.c:327
        t = t0;
80000d66:	57800a93          	li	s5,1400
pa():
E:\VMshare\e203\zhengdian_E203\sdk\whetstone\Release/../application/whets.c:476
        e[0] = (e[0] + e[1] + e[2] - e[3]) * t;
80000d6a:	85ea                	mv	a1,s10
80000d6c:	856e                	mv	a0,s11
80000d6e:	69d020ef          	jal	ra,80003c0a <__addsf3>
80000d72:	85ca                	mv	a1,s2
80000d74:	697020ef          	jal	ra,80003c0a <__addsf3>
80000d78:	85a6                	mv	a1,s1
80000d7a:	772030ef          	jal	ra,800044ec <__subsf3>
80000d7e:	85a2                	mv	a1,s0
80000d80:	548030ef          	jal	ra,800042c8 <__mulsf3>
80000d84:	8d2a                	mv	s10,a0
E:\VMshare\e203\zhengdian_E203\sdk\whetstone\Release/../application/whets.c:477
        e[1] = (e[0] + e[1] - e[2] + e[3]) * t;
80000d86:	85ea                	mv	a1,s10
80000d88:	856e                	mv	a0,s11
80000d8a:	681020ef          	jal	ra,80003c0a <__addsf3>
80000d8e:	85ca                	mv	a1,s2
80000d90:	75c030ef          	jal	ra,800044ec <__subsf3>
80000d94:	85a6                	mv	a1,s1
80000d96:	675020ef          	jal	ra,80003c0a <__addsf3>
80000d9a:	85a2                	mv	a1,s0
80000d9c:	52c030ef          	jal	ra,800042c8 <__mulsf3>
80000da0:	8daa                	mv	s11,a0
E:\VMshare\e203\zhengdian_E203\sdk\whetstone\Release/../application/whets.c:478
        e[2] = (e[0] - e[1] + e[2] + e[3]) * t;
80000da2:	85aa                	mv	a1,a0
80000da4:	856a                	mv	a0,s10
80000da6:	746030ef          	jal	ra,800044ec <__subsf3>
80000daa:	85ca                	mv	a1,s2
80000dac:	65f020ef          	jal	ra,80003c0a <__addsf3>
80000db0:	85a6                	mv	a1,s1
80000db2:	659020ef          	jal	ra,80003c0a <__addsf3>
80000db6:	85a2                	mv	a1,s0
80000db8:	510030ef          	jal	ra,800042c8 <__mulsf3>
80000dbc:	892a                	mv	s2,a0
E:\VMshare\e203\zhengdian_E203\sdk\whetstone\Release/../application/whets.c:479
        e[3] = (-e[0] + e[1] + e[2] + e[3]) / t2;
80000dbe:	85ea                	mv	a1,s10
80000dc0:	856e                	mv	a0,s11
80000dc2:	72a030ef          	jal	ra,800044ec <__subsf3>
80000dc6:	85ca                	mv	a1,s2
80000dc8:	643020ef          	jal	ra,80003c0a <__addsf3>
80000dcc:	85a6                	mv	a1,s1
80000dce:	63d020ef          	jal	ra,80003c0a <__addsf3>
80000dd2:	85ce                	mv	a1,s3
80000dd4:	4f4030ef          	jal	ra,800042c8 <__mulsf3>
80000dd8:	84aa                	mv	s1,a0
E:\VMshare\e203\zhengdian_E203\sdk\whetstone\Release/../application/whets.c:476
        e[0] = (e[0] + e[1] + e[2] - e[3]) * t;
80000dda:	85ea                	mv	a1,s10
80000ddc:	856e                	mv	a0,s11
80000dde:	62d020ef          	jal	ra,80003c0a <__addsf3>
80000de2:	85ca                	mv	a1,s2
80000de4:	627020ef          	jal	ra,80003c0a <__addsf3>
80000de8:	85a6                	mv	a1,s1
80000dea:	702030ef          	jal	ra,800044ec <__subsf3>
80000dee:	85a2                	mv	a1,s0
80000df0:	4d8030ef          	jal	ra,800042c8 <__mulsf3>
80000df4:	8c2a                	mv	s8,a0
E:\VMshare\e203\zhengdian_E203\sdk\whetstone\Release/../application/whets.c:477
        e[1] = (e[0] + e[1] - e[2] + e[3]) * t;
80000df6:	85aa                	mv	a1,a0
80000df8:	856e                	mv	a0,s11
80000dfa:	611020ef          	jal	ra,80003c0a <__addsf3>
80000dfe:	85ca                	mv	a1,s2
80000e00:	6ec030ef          	jal	ra,800044ec <__subsf3>
80000e04:	85a6                	mv	a1,s1
80000e06:	605020ef          	jal	ra,80003c0a <__addsf3>
80000e0a:	85a2                	mv	a1,s0
80000e0c:	4bc030ef          	jal	ra,800042c8 <__mulsf3>
80000e10:	8d2a                	mv	s10,a0
E:\VMshare\e203\zhengdian_E203\sdk\whetstone\Release/../application/whets.c:478
        e[2] = (e[0] - e[1] + e[2] + e[3]) * t;
80000e12:	85aa                	mv	a1,a0
80000e14:	8562                	mv	a0,s8
80000e16:	6d6030ef          	jal	ra,800044ec <__subsf3>
80000e1a:	85ca                	mv	a1,s2
80000e1c:	5ef020ef          	jal	ra,80003c0a <__addsf3>
80000e20:	85a6                	mv	a1,s1
80000e22:	5e9020ef          	jal	ra,80003c0a <__addsf3>
80000e26:	85a2                	mv	a1,s0
80000e28:	4a0030ef          	jal	ra,800042c8 <__mulsf3>
80000e2c:	892a                	mv	s2,a0
E:\VMshare\e203\zhengdian_E203\sdk\whetstone\Release/../application/whets.c:479
        e[3] = (-e[0] + e[1] + e[2] + e[3]) / t2;
80000e2e:	85e2                	mv	a1,s8
80000e30:	856a                	mv	a0,s10
80000e32:	6ba030ef          	jal	ra,800044ec <__subsf3>
80000e36:	85ca                	mv	a1,s2
80000e38:	5d3020ef          	jal	ra,80003c0a <__addsf3>
80000e3c:	85a6                	mv	a1,s1
80000e3e:	5cd020ef          	jal	ra,80003c0a <__addsf3>
80000e42:	85ce                	mv	a1,s3
80000e44:	484030ef          	jal	ra,800042c8 <__mulsf3>
80000e48:	84aa                	mv	s1,a0
E:\VMshare\e203\zhengdian_E203\sdk\whetstone\Release/../application/whets.c:476
        e[0] = (e[0] + e[1] + e[2] - e[3]) * t;
80000e4a:	85ea                	mv	a1,s10
80000e4c:	8562                	mv	a0,s8
80000e4e:	5bd020ef          	jal	ra,80003c0a <__addsf3>
80000e52:	85ca                	mv	a1,s2
80000e54:	5b7020ef          	jal	ra,80003c0a <__addsf3>
80000e58:	85a6                	mv	a1,s1
80000e5a:	692030ef          	jal	ra,800044ec <__subsf3>
80000e5e:	85a2                	mv	a1,s0
80000e60:	468030ef          	jal	ra,800042c8 <__mulsf3>
E:\VMshare\e203\zhengdian_E203\sdk\whetstone\Release/../application/whets.c:477
        e[1] = (e[0] + e[1] - e[2] + e[3]) * t;
80000e64:	85ea                	mv	a1,s10
E:\VMshare\e203\zhengdian_E203\sdk\whetstone\Release/../application/whets.c:476
        e[0] = (e[0] + e[1] + e[2] - e[3]) * t;
80000e66:	8daa                	mv	s11,a0
E:\VMshare\e203\zhengdian_E203\sdk\whetstone\Release/../application/whets.c:477
        e[1] = (e[0] + e[1] - e[2] + e[3]) * t;
80000e68:	5a3020ef          	jal	ra,80003c0a <__addsf3>
80000e6c:	85ca                	mv	a1,s2
80000e6e:	67e030ef          	jal	ra,800044ec <__subsf3>
80000e72:	85a6                	mv	a1,s1
80000e74:	597020ef          	jal	ra,80003c0a <__addsf3>
80000e78:	85a2                	mv	a1,s0
80000e7a:	44e030ef          	jal	ra,800042c8 <__mulsf3>
80000e7e:	8c2a                	mv	s8,a0
E:\VMshare\e203\zhengdian_E203\sdk\whetstone\Release/../application/whets.c:478
        e[2] = (e[0] - e[1] + e[2] + e[3]) * t;
80000e80:	85aa                	mv	a1,a0
80000e82:	856e                	mv	a0,s11
80000e84:	668030ef          	jal	ra,800044ec <__subsf3>
80000e88:	85ca                	mv	a1,s2
80000e8a:	581020ef          	jal	ra,80003c0a <__addsf3>
80000e8e:	85a6                	mv	a1,s1
80000e90:	57b020ef          	jal	ra,80003c0a <__addsf3>
80000e94:	85a2                	mv	a1,s0
80000e96:	432030ef          	jal	ra,800042c8 <__mulsf3>
80000e9a:	892a                	mv	s2,a0
E:\VMshare\e203\zhengdian_E203\sdk\whetstone\Release/../application/whets.c:479
        e[3] = (-e[0] + e[1] + e[2] + e[3]) / t2;
80000e9c:	85ee                	mv	a1,s11
80000e9e:	8562                	mv	a0,s8
80000ea0:	64c030ef          	jal	ra,800044ec <__subsf3>
80000ea4:	85ca                	mv	a1,s2
80000ea6:	565020ef          	jal	ra,80003c0a <__addsf3>
80000eaa:	85a6                	mv	a1,s1
80000eac:	55f020ef          	jal	ra,80003c0a <__addsf3>
80000eb0:	85ce                	mv	a1,s3
80000eb2:	416030ef          	jal	ra,800042c8 <__mulsf3>
80000eb6:	84aa                	mv	s1,a0
E:\VMshare\e203\zhengdian_E203\sdk\whetstone\Release/../application/whets.c:476
        e[0] = (e[0] + e[1] + e[2] - e[3]) * t;
80000eb8:	85ee                	mv	a1,s11
80000eba:	8562                	mv	a0,s8
80000ebc:	54f020ef          	jal	ra,80003c0a <__addsf3>
80000ec0:	85ca                	mv	a1,s2
80000ec2:	549020ef          	jal	ra,80003c0a <__addsf3>
80000ec6:	85a6                	mv	a1,s1
80000ec8:	624030ef          	jal	ra,800044ec <__subsf3>
80000ecc:	85a2                	mv	a1,s0
80000ece:	3fa030ef          	jal	ra,800042c8 <__mulsf3>
E:\VMshare\e203\zhengdian_E203\sdk\whetstone\Release/../application/whets.c:477
        e[1] = (e[0] + e[1] - e[2] + e[3]) * t;
80000ed2:	85e2                	mv	a1,s8
E:\VMshare\e203\zhengdian_E203\sdk\whetstone\Release/../application/whets.c:476
        e[0] = (e[0] + e[1] + e[2] - e[3]) * t;
80000ed4:	8daa                	mv	s11,a0
E:\VMshare\e203\zhengdian_E203\sdk\whetstone\Release/../application/whets.c:477
        e[1] = (e[0] + e[1] - e[2] + e[3]) * t;
80000ed6:	535020ef          	jal	ra,80003c0a <__addsf3>
80000eda:	85ca                	mv	a1,s2
80000edc:	610030ef          	jal	ra,800044ec <__subsf3>
80000ee0:	85a6                	mv	a1,s1
80000ee2:	529020ef          	jal	ra,80003c0a <__addsf3>
80000ee6:	85a2                	mv	a1,s0
80000ee8:	3e0030ef          	jal	ra,800042c8 <__mulsf3>
80000eec:	8d2a                	mv	s10,a0
E:\VMshare\e203\zhengdian_E203\sdk\whetstone\Release/../application/whets.c:478
        e[2] = (e[0] - e[1] + e[2] + e[3]) * t;
80000eee:	85aa                	mv	a1,a0
80000ef0:	856e                	mv	a0,s11
80000ef2:	5fa030ef          	jal	ra,800044ec <__subsf3>
80000ef6:	85ca                	mv	a1,s2
80000ef8:	513020ef          	jal	ra,80003c0a <__addsf3>
80000efc:	85a6                	mv	a1,s1
80000efe:	50d020ef          	jal	ra,80003c0a <__addsf3>
80000f02:	85a2                	mv	a1,s0
80000f04:	3c4030ef          	jal	ra,800042c8 <__mulsf3>
80000f08:	892a                	mv	s2,a0
E:\VMshare\e203\zhengdian_E203\sdk\whetstone\Release/../application/whets.c:479
        e[3] = (-e[0] + e[1] + e[2] + e[3]) / t2;
80000f0a:	85ee                	mv	a1,s11
80000f0c:	856a                	mv	a0,s10
80000f0e:	5de030ef          	jal	ra,800044ec <__subsf3>
80000f12:	85ca                	mv	a1,s2
80000f14:	4f7020ef          	jal	ra,80003c0a <__addsf3>
80000f18:	85a6                	mv	a1,s1
80000f1a:	4f1020ef          	jal	ra,80003c0a <__addsf3>
80000f1e:	85ce                	mv	a1,s3
80000f20:	3a8030ef          	jal	ra,800042c8 <__mulsf3>
80000f24:	84aa                	mv	s1,a0
E:\VMshare\e203\zhengdian_E203\sdk\whetstone\Release/../application/whets.c:476
        e[0] = (e[0] + e[1] + e[2] - e[3]) * t;
80000f26:	85ea                	mv	a1,s10
80000f28:	856e                	mv	a0,s11
80000f2a:	4e1020ef          	jal	ra,80003c0a <__addsf3>
80000f2e:	85ca                	mv	a1,s2
80000f30:	4db020ef          	jal	ra,80003c0a <__addsf3>
80000f34:	85a6                	mv	a1,s1
80000f36:	5b6030ef          	jal	ra,800044ec <__subsf3>
80000f3a:	85a2                	mv	a1,s0
80000f3c:	38c030ef          	jal	ra,800042c8 <__mulsf3>
80000f40:	8c2a                	mv	s8,a0
E:\VMshare\e203\zhengdian_E203\sdk\whetstone\Release/../application/whets.c:477
        e[1] = (e[0] + e[1] - e[2] + e[3]) * t;
80000f42:	85aa                	mv	a1,a0
80000f44:	856a                	mv	a0,s10
80000f46:	4c5020ef          	jal	ra,80003c0a <__addsf3>
80000f4a:	85ca                	mv	a1,s2
80000f4c:	5a0030ef          	jal	ra,800044ec <__subsf3>
80000f50:	85a6                	mv	a1,s1
80000f52:	4b9020ef          	jal	ra,80003c0a <__addsf3>
80000f56:	85a2                	mv	a1,s0
80000f58:	370030ef          	jal	ra,800042c8 <__mulsf3>
80000f5c:	8daa                	mv	s11,a0
E:\VMshare\e203\zhengdian_E203\sdk\whetstone\Release/../application/whets.c:478
        e[2] = (e[0] - e[1] + e[2] + e[3]) * t;
80000f5e:	85aa                	mv	a1,a0
80000f60:	8562                	mv	a0,s8
80000f62:	58a030ef          	jal	ra,800044ec <__subsf3>
80000f66:	85ca                	mv	a1,s2
80000f68:	4a3020ef          	jal	ra,80003c0a <__addsf3>
80000f6c:	85a6                	mv	a1,s1
80000f6e:	49d020ef          	jal	ra,80003c0a <__addsf3>
80000f72:	85a2                	mv	a1,s0
80000f74:	354030ef          	jal	ra,800042c8 <__mulsf3>
80000f78:	892a                	mv	s2,a0
E:\VMshare\e203\zhengdian_E203\sdk\whetstone\Release/../application/whets.c:479
        e[3] = (-e[0] + e[1] + e[2] + e[3]) / t2;
80000f7a:	85e2                	mv	a1,s8
80000f7c:	856e                	mv	a0,s11
80000f7e:	56e030ef          	jal	ra,800044ec <__subsf3>
80000f82:	85ca                	mv	a1,s2
80000f84:	487020ef          	jal	ra,80003c0a <__addsf3>
80000f88:	85a6                	mv	a1,s1
80000f8a:	481020ef          	jal	ra,80003c0a <__addsf3>
80000f8e:	85ce                	mv	a1,s3
80000f90:	338030ef          	jal	ra,800042c8 <__mulsf3>
80000f94:	84aa                	mv	s1,a0
E:\VMshare\e203\zhengdian_E203\sdk\whetstone\Release/../application/whets.c:476
        e[0] = (e[0] + e[1] + e[2] - e[3]) * t;
80000f96:	85ee                	mv	a1,s11
80000f98:	8562                	mv	a0,s8
80000f9a:	471020ef          	jal	ra,80003c0a <__addsf3>
80000f9e:	85ca                	mv	a1,s2
80000fa0:	46b020ef          	jal	ra,80003c0a <__addsf3>
80000fa4:	85a6                	mv	a1,s1
80000fa6:	546030ef          	jal	ra,800044ec <__subsf3>
80000faa:	85a2                	mv	a1,s0
80000fac:	31c030ef          	jal	ra,800042c8 <__mulsf3>
80000fb0:	8d2a                	mv	s10,a0
E:\VMshare\e203\zhengdian_E203\sdk\whetstone\Release/../application/whets.c:477
        e[1] = (e[0] + e[1] - e[2] + e[3]) * t;
80000fb2:	85aa                	mv	a1,a0
80000fb4:	856e                	mv	a0,s11
80000fb6:	455020ef          	jal	ra,80003c0a <__addsf3>
80000fba:	85ca                	mv	a1,s2
80000fbc:	530030ef          	jal	ra,800044ec <__subsf3>
80000fc0:	85a6                	mv	a1,s1
80000fc2:	449020ef          	jal	ra,80003c0a <__addsf3>
80000fc6:	85a2                	mv	a1,s0
80000fc8:	300030ef          	jal	ra,800042c8 <__mulsf3>
E:\VMshare\e203\zhengdian_E203\sdk\whetstone\Release/../application/whets.c:478
        e[2] = (e[0] - e[1] + e[2] + e[3]) * t;
80000fcc:	85aa                	mv	a1,a0
E:\VMshare\e203\zhengdian_E203\sdk\whetstone\Release/../application/whets.c:477
        e[1] = (e[0] + e[1] - e[2] + e[3]) * t;
80000fce:	8daa                	mv	s11,a0
E:\VMshare\e203\zhengdian_E203\sdk\whetstone\Release/../application/whets.c:478
        e[2] = (e[0] - e[1] + e[2] + e[3]) * t;
80000fd0:	856a                	mv	a0,s10
80000fd2:	51a030ef          	jal	ra,800044ec <__subsf3>
80000fd6:	85ca                	mv	a1,s2
80000fd8:	433020ef          	jal	ra,80003c0a <__addsf3>
80000fdc:	85a6                	mv	a1,s1
80000fde:	42d020ef          	jal	ra,80003c0a <__addsf3>
80000fe2:	85a2                	mv	a1,s0
80000fe4:	2e4030ef          	jal	ra,800042c8 <__mulsf3>
80000fe8:	892a                	mv	s2,a0
E:\VMshare\e203\zhengdian_E203\sdk\whetstone\Release/../application/whets.c:479
        e[3] = (-e[0] + e[1] + e[2] + e[3]) / t2;
80000fea:	85ea                	mv	a1,s10
80000fec:	856e                	mv	a0,s11
80000fee:	4fe030ef          	jal	ra,800044ec <__subsf3>
80000ff2:	85ca                	mv	a1,s2
80000ff4:	417020ef          	jal	ra,80003c0a <__addsf3>
80000ff8:	85a6                	mv	a1,s1
80000ffa:	411020ef          	jal	ra,80003c0a <__addsf3>
80000ffe:	85ce                	mv	a1,s3
80001000:	2c8030ef          	jal	ra,800042c8 <__mulsf3>
whetstones():
E:\VMshare\e203\zhengdian_E203\sdk\whetstone\Release/../application/whets.c:339
            for (i = 0; i < n2; i++) {
80001004:	1afd                	addi	s5,s5,-1
pa():
E:\VMshare\e203\zhengdian_E203\sdk\whetstone\Release/../application/whets.c:479
        e[3] = (-e[0] + e[1] + e[2] + e[3]) / t2;
80001006:	84aa                	mv	s1,a0
whetstones():
E:\VMshare\e203\zhengdian_E203\sdk\whetstone\Release/../application/whets.c:339
            for (i = 0; i < n2; i++) {
80001008:	d60a91e3          	bnez	s5,80000d6a <whetstones.constprop.0+0x23c>
E:\VMshare\e203\zhengdian_E203\sdk\whetstone\Release/../application/whets.c:342
            t = 1.0 - t;
8000100c:	85a2                	mv	a1,s0
8000100e:	8566                	mv	a0,s9
80001010:	4dc030ef          	jal	ra,800044ec <__subsf3>
E:\VMshare\e203\zhengdian_E203\sdk\whetstone\Release/../application/whets.c:338
        for (ix = 0; ix < xtra; ix++) {
80001014:	0b85                	addi	s7,s7,1
E:\VMshare\e203\zhengdian_E203\sdk\whetstone\Release/../application/whets.c:342
            t = 1.0 - t;
80001016:	842a                	mv	s0,a0
E:\VMshare\e203\zhengdian_E203\sdk\whetstone\Release/../application/whets.c:338
        for (ix = 0; ix < xtra; ix++) {
80001018:	d57a17e3          	bne	s4,s7,80000d66 <whetstones.constprop.0+0x238>
E:\VMshare\e203\zhengdian_E203\sdk\whetstone\Release/../application/whets.c:346
    end_time();
8000101c:	3ce1                	jal	80000af4 <end_time>
pout():
E:\VMshare\e203\zhengdian_E203\sdk\whetstone\Release/../application/whets.c:508
    Check = Check + checknum;
8000101e:	9e818c93          	addi	s9,gp,-1560 # 900003b8 <Check>
80001022:	000ca503          	lw	a0,0(s9)
whetstones():
E:\VMshare\e203\zhengdian_E203\sdk\whetstone\Release/../application/whets.c:347
    pout("N2 floating point\0", (float)(n2 * 96) * (float)(xtra), 1, e1[3],
80001026:	9dc18313          	addi	t1,gp,-1572 # 900003ac <secs>
pout():
E:\VMshare\e203\zhengdian_E203\sdk\whetstone\Release/../application/whets.c:508
    Check = Check + checknum;
8000102a:	85a6                	mv	a1,s1
whetstones():
E:\VMshare\e203\zhengdian_E203\sdk\whetstone\Release/../application/whets.c:347
    pout("N2 floating point\0", (float)(n2 * 96) * (float)(xtra), 1, e1[3],
8000102c:	00032c03          	lw	s8,0(t1)
pout():
E:\VMshare\e203\zhengdian_E203\sdk\whetstone\Release/../application/whets.c:508
    Check = Check + checknum;
80001030:	3db020ef          	jal	ra,80003c0a <__addsf3>
E:\VMshare\e203\zhengdian_E203\sdk\whetstone\Release/../application/whets.c:510
    strcpy(headings[section], title);
80001034:	014b2f83          	lw	t6,20(s6)
80001038:	018b2603          	lw	a2,24(s6)
8000103c:	01cb2f03          	lw	t5,28(s6)
80001040:	020b2e83          	lw	t4,32(s6)
80001044:	024b5e03          	lhu	t3,36(s6)
E:\VMshare\e203\zhengdian_E203\sdk\whetstone\Release/../application/whets.c:511
    TimeUsed = TimeUsed + time;
80001048:	9ec18993          	addi	s3,gp,-1556 # 900003bc <TimeUsed>
E:\VMshare\e203\zhengdian_E203\sdk\whetstone\Release/../application/whets.c:508
    Check = Check + checknum;
8000104c:	83aa                	mv	t2,a0
E:\VMshare\e203\zhengdian_E203\sdk\whetstone\Release/../application/whets.c:511
    TimeUsed = TimeUsed + time;
8000104e:	0009a503          	lw	a0,0(s3)
E:\VMshare\e203\zhengdian_E203\sdk\whetstone\Release/../application/whets.c:510
    strcpy(headings[section], title);
80001052:	a9c18893          	addi	a7,gp,-1380 # 9000046c <headings>
E:\VMshare\e203\zhengdian_E203\sdk\whetstone\Release/../application/whets.c:509
    loop_time[section] = time;
80001056:	b4018293          	addi	t0,gp,-1216 # 90000510 <loop_time>
E:\VMshare\e203\zhengdian_E203\sdk\whetstone\Release/../application/whets.c:511
    TimeUsed = TimeUsed + time;
8000105a:	85e2                	mv	a1,s8
E:\VMshare\e203\zhengdian_E203\sdk\whetstone\Release/../application/whets.c:508
    Check = Check + checknum;
8000105c:	007ca023          	sw	t2,0(s9)
E:\VMshare\e203\zhengdian_E203\sdk\whetstone\Release/../application/whets.c:509
    loop_time[section] = time;
80001060:	0182a423          	sw	s8,8(t0)
E:\VMshare\e203\zhengdian_E203\sdk\whetstone\Release/../application/whets.c:510
    strcpy(headings[section], title);
80001064:	03f8a223          	sw	t6,36(a7)
80001068:	02c8a423          	sw	a2,40(a7)
8000106c:	03e8a623          	sw	t5,44(a7)
80001070:	03d8a823          	sw	t4,48(a7)
80001074:	03c89a23          	sh	t3,52(a7)
E:\VMshare\e203\zhengdian_E203\sdk\whetstone\Release/../application/whets.c:511
    TimeUsed = TimeUsed + time;
80001078:	393020ef          	jal	ra,80003c0a <__addsf3>
E:\VMshare\e203\zhengdian_E203\sdk\whetstone\Release/../application/whets.c:512
    if (calibrate == 1)
8000107c:	47d2                	lw	a5,20(sp)
E:\VMshare\e203\zhengdian_E203\sdk\whetstone\Release/../application/whets.c:511
    TimeUsed = TimeUsed + time;
8000107e:	00a9a023          	sw	a0,0(s3)
E:\VMshare\e203\zhengdian_E203\sdk\whetstone\Release/../application/whets.c:512
    if (calibrate == 1)
80001082:	4685                	li	a3,1
80001084:	32d784e3          	beq	a5,a3,80001bac <whetstones.constprop.0+0x107e>
E:\VMshare\e203\zhengdian_E203\sdk\whetstone\Release/../application/whets.c:517
    if (calibrate == 0) {
80001088:	efbd                	bnez	a5,80001106 <whetstones.constprop.0+0x5d8>
E:\VMshare\e203\zhengdian_E203\sdk\whetstone\Release/../application/whets.c:518
        printf("%s %20.17f    ", headings[section], results[section]);
8000108a:	b6c1a503          	lw	a0,-1172(gp) # 9000053c <results+0x8>
8000108e:	24f030ef          	jal	ra,80004adc <__extendsfdf2>
80001092:	862a                	mv	a2,a0
80001094:	86ae                	mv	a3,a1
80001096:	00009517          	auipc	a0,0x9
8000109a:	9fa50513          	addi	a0,a0,-1542 # 80009a90 <__trunctfdf2+0x308>
8000109e:	ac018593          	addi	a1,gp,-1344 # 90000490 <headings+0x24>
800010a2:	5f6040ef          	jal	ra,80005698 <iprintf>
E:\VMshare\e203\zhengdian_E203\sdk\whetstone\Release/../application/whets.c:521
            if (time > 0) {
800010a6:	00000593          	li	a1,0
800010aa:	8562                	mv	a0,s8
800010ac:	12c030ef          	jal	ra,800041d8 <__gesf2>
800010b0:	00a04463          	bgtz	a0,800010b8 <whetstones.constprop.0+0x58a>
800010b4:	6710006f          	j	80001f24 <whetstones.constprop.0+0x13f6>
whetstones():
E:\VMshare\e203\zhengdian_E203\sdk\whetstone\Release/../application/whets.c:347
    pout("N2 floating point\0", (float)(n2 * 96) * (float)(xtra), 1, e1[3],
800010b8:	4562                	lw	a0,24(sp)
800010ba:	0ffff597          	auipc	a1,0xffff
800010be:	1a65a583          	lw	a1,422(a1) # 90000260 <_impure_ptr+0x84>
800010c2:	206030ef          	jal	ra,800042c8 <__mulsf3>
800010c6:	892a                	mv	s2,a0
pout():
E:\VMshare\e203\zhengdian_E203\sdk\whetstone\Release/../application/whets.c:522
                mflops = ops / (1000000L * time);
800010c8:	0ffff597          	auipc	a1,0xffff
800010cc:	1905a583          	lw	a1,400(a1) # 90000258 <_impure_ptr+0x7c>
800010d0:	8562                	mv	a0,s8
800010d2:	1f6030ef          	jal	ra,800042c8 <__mulsf3>
800010d6:	85aa                	mv	a1,a0
800010d8:	854a                	mv	a0,s2
800010da:	657020ef          	jal	ra,80003f30 <__divsf3>
E:\VMshare\e203\zhengdian_E203\sdk\whetstone\Release/../application/whets.c:528
            printf(" %9.3f          %9.3f\n", loop_mflops[section],
800010de:	1ff030ef          	jal	ra,80004adc <__extendsfdf2>
800010e2:	8d2a                	mv	s10,a0
800010e4:	8dae                	mv	s11,a1
800010e6:	b4018813          	addi	a6,gp,-1216 # 90000510 <loop_time>
800010ea:	00882503          	lw	a0,8(a6)
800010ee:	1ef030ef          	jal	ra,80004adc <__extendsfdf2>
800010f2:	872a                	mv	a4,a0
800010f4:	87ae                	mv	a5,a1
800010f6:	866a                	mv	a2,s10
800010f8:	86ee                	mv	a3,s11
800010fa:	00009517          	auipc	a0,0x9
800010fe:	9a650513          	addi	a0,a0,-1626 # 80009aa0 <__trunctfdf2+0x318>
80001102:	596040ef          	jal	ra,80005698 <iprintf>
whetstones():
E:\VMshare\e203\zhengdian_E203\sdk\whetstone\Release/../application/whets.c:352
    start_time();
80001106:	9bdff0ef          	jal	ra,80000ac2 <start_time>
pout():
E:\VMshare\e203\zhengdian_E203\sdk\whetstone\Release/../application/whets.c:508
    Check = Check + checknum;
8000110a:	9e818a93          	addi	s5,gp,-1560 # 900003b8 <Check>
whetstones():
E:\VMshare\e203\zhengdian_E203\sdk\whetstone\Release/../application/whets.c:371
    end_time();
8000110e:	32dd                	jal	80000af4 <end_time>
pout():
E:\VMshare\e203\zhengdian_E203\sdk\whetstone\Release/../application/whets.c:508
    Check = Check + checknum;
80001110:	000aa503          	lw	a0,0(s5)
80001114:	0ffff597          	auipc	a1,0xffff
80001118:	1245a583          	lw	a1,292(a1) # 90000238 <_impure_ptr+0x5c>
whetstones():
E:\VMshare\e203\zhengdian_E203\sdk\whetstone\Release/../application/whets.c:372
    pout("N3 if then else  \0", (float)(n3 * 3) * (float)(xtra), 2, (SPDP)(j),
8000111c:	9dc18493          	addi	s1,gp,-1572 # 900003ac <secs>
pout():
E:\VMshare\e203\zhengdian_E203\sdk\whetstone\Release/../application/whets.c:508
    Check = Check + checknum;
80001120:	2eb020ef          	jal	ra,80003c0a <__addsf3>
whetstones():
E:\VMshare\e203\zhengdian_E203\sdk\whetstone\Release/../application/whets.c:372
    pout("N3 if then else  \0", (float)(n3 * 3) * (float)(xtra), 2, (SPDP)(j),
80001124:	0004ab83          	lw	s7,0(s1)
pout():
E:\VMshare\e203\zhengdian_E203\sdk\whetstone\Release/../application/whets.c:510
    strcpy(headings[section], title);
80001128:	02ab5383          	lhu	t2,42(s6)
8000112c:	02cb5303          	lhu	t1,44(s6)
80001130:	02eb5f83          	lhu	t6,46(s6)
80001134:	032b5603          	lhu	a2,50(s6)
80001138:	034b5f03          	lhu	t5,52(s6)
8000113c:	036b5e83          	lhu	t4,54(s6)
80001140:	038b5e03          	lhu	t3,56(s6)
E:\VMshare\e203\zhengdian_E203\sdk\whetstone\Release/../application/whets.c:511
    TimeUsed = TimeUsed + time;
80001144:	9ec18c13          	addi	s8,gp,-1556 # 900003bc <TimeUsed>
E:\VMshare\e203\zhengdian_E203\sdk\whetstone\Release/../application/whets.c:510
    strcpy(headings[section], title);
80001148:	028b5c83          	lhu	s9,40(s6)
8000114c:	030b5983          	lhu	s3,48(s6)
E:\VMshare\e203\zhengdian_E203\sdk\whetstone\Release/../application/whets.c:508
    Check = Check + checknum;
80001150:	842a                	mv	s0,a0
E:\VMshare\e203\zhengdian_E203\sdk\whetstone\Release/../application/whets.c:511
    TimeUsed = TimeUsed + time;
80001152:	000c2503          	lw	a0,0(s8)
E:\VMshare\e203\zhengdian_E203\sdk\whetstone\Release/../application/whets.c:510
    strcpy(headings[section], title);
80001156:	a9c18893          	addi	a7,gp,-1380 # 9000046c <headings>
E:\VMshare\e203\zhengdian_E203\sdk\whetstone\Release/../application/whets.c:509
    loop_time[section] = time;
8000115a:	b4018293          	addi	t0,gp,-1216 # 90000510 <loop_time>
E:\VMshare\e203\zhengdian_E203\sdk\whetstone\Release/../application/whets.c:511
    TimeUsed = TimeUsed + time;
8000115e:	85de                	mv	a1,s7
E:\VMshare\e203\zhengdian_E203\sdk\whetstone\Release/../application/whets.c:508
    Check = Check + checknum;
80001160:	008aa023          	sw	s0,0(s5)
E:\VMshare\e203\zhengdian_E203\sdk\whetstone\Release/../application/whets.c:509
    loop_time[section] = time;
80001164:	0172a623          	sw	s7,12(t0)
E:\VMshare\e203\zhengdian_E203\sdk\whetstone\Release/../application/whets.c:510
    strcpy(headings[section], title);
80001168:	03989b23          	sh	s9,54(a7)
8000116c:	02789c23          	sh	t2,56(a7)
80001170:	02689d23          	sh	t1,58(a7)
80001174:	03f89e23          	sh	t6,60(a7)
80001178:	03389f23          	sh	s3,62(a7)
8000117c:	04c89023          	sh	a2,64(a7)
80001180:	05e89123          	sh	t5,66(a7)
80001184:	05d89223          	sh	t4,68(a7)
80001188:	05c89323          	sh	t3,70(a7)
E:\VMshare\e203\zhengdian_E203\sdk\whetstone\Release/../application/whets.c:511
    TimeUsed = TimeUsed + time;
8000118c:	27f020ef          	jal	ra,80003c0a <__addsf3>
E:\VMshare\e203\zhengdian_E203\sdk\whetstone\Release/../application/whets.c:512
    if (calibrate == 1)
80001190:	45d2                	lw	a1,20(sp)
E:\VMshare\e203\zhengdian_E203\sdk\whetstone\Release/../application/whets.c:511
    TimeUsed = TimeUsed + time;
80001192:	00ac2023          	sw	a0,0(s8)
E:\VMshare\e203\zhengdian_E203\sdk\whetstone\Release/../application/whets.c:512
    if (calibrate == 1)
80001196:	4505                	li	a0,1
80001198:	20a585e3          	beq	a1,a0,80001ba2 <whetstones.constprop.0+0x1074>
E:\VMshare\e203\zhengdian_E203\sdk\whetstone\Release/../application/whets.c:517
    if (calibrate == 0) {
8000119c:	edbd                	bnez	a1,8000121a <whetstones.constprop.0+0x6ec>
E:\VMshare\e203\zhengdian_E203\sdk\whetstone\Release/../application/whets.c:518
        printf("%s %20.17f    ", headings[section], results[section]);
8000119e:	b701a503          	lw	a0,-1168(gp) # 90000540 <results+0xc>
800011a2:	13b030ef          	jal	ra,80004adc <__extendsfdf2>
800011a6:	862a                	mv	a2,a0
800011a8:	86ae                	mv	a3,a1
800011aa:	00009517          	auipc	a0,0x9
800011ae:	8e650513          	addi	a0,a0,-1818 # 80009a90 <__trunctfdf2+0x308>
800011b2:	ad218593          	addi	a1,gp,-1326 # 900004a2 <headings+0x36>
800011b6:	4e2040ef          	jal	ra,80005698 <iprintf>
E:\VMshare\e203\zhengdian_E203\sdk\whetstone\Release/../application/whets.c:531
                   loop_time[section]);
        } else {
            if (time > 0) {
800011ba:	00000593          	li	a1,0
800011be:	855e                	mv	a0,s7
800011c0:	018030ef          	jal	ra,800041d8 <__gesf2>
800011c4:	00a04463          	bgtz	a0,800011cc <whetstones.constprop.0+0x69e>
800011c8:	5790006f          	j	80001f40 <whetstones.constprop.0+0x1412>
whetstones():
E:\VMshare\e203\zhengdian_E203\sdk\whetstone\Release/../application/whets.c:372
    pout("N3 if then else  \0", (float)(n3 * 3) * (float)(xtra), 2, (SPDP)(j),
800011cc:	4562                	lw	a0,24(sp)
800011ce:	0ffff597          	auipc	a1,0xffff
800011d2:	0965a583          	lw	a1,150(a1) # 90000264 <_impure_ptr+0x88>
800011d6:	0f2030ef          	jal	ra,800042c8 <__mulsf3>
800011da:	892a                	mv	s2,a0
pout():
E:\VMshare\e203\zhengdian_E203\sdk\whetstone\Release/../application/whets.c:532
                mops = ops / (1000000L * time);
800011dc:	0ffff597          	auipc	a1,0xffff
800011e0:	07c5a583          	lw	a1,124(a1) # 90000258 <_impure_ptr+0x7c>
800011e4:	855e                	mv	a0,s7
800011e6:	0e2030ef          	jal	ra,800042c8 <__mulsf3>
800011ea:	85aa                	mv	a1,a0
800011ec:	854a                	mv	a0,s2
800011ee:	543020ef          	jal	ra,80003f30 <__divsf3>
E:\VMshare\e203\zhengdian_E203\sdk\whetstone\Release/../application/whets.c:538
            } else {
                mops = 0;
            }
            loop_mops[section] = mops;
            loop_mflops[section] = 0;
            printf("           %9.3f%9.3f\n", loop_mops[section],
800011f2:	0eb030ef          	jal	ra,80004adc <__extendsfdf2>
800011f6:	8d2a                	mv	s10,a0
800011f8:	8dae                	mv	s11,a1
800011fa:	b4018093          	addi	ra,gp,-1216 # 90000510 <loop_time>
800011fe:	00c0a503          	lw	a0,12(ra)
80001202:	0db030ef          	jal	ra,80004adc <__extendsfdf2>
80001206:	872a                	mv	a4,a0
80001208:	87ae                	mv	a5,a1
8000120a:	866a                	mv	a2,s10
8000120c:	86ee                	mv	a3,s11
8000120e:	00009517          	auipc	a0,0x9
80001212:	8aa50513          	addi	a0,a0,-1878 # 80009ab8 <__trunctfdf2+0x330>
80001216:	482040ef          	jal	ra,80005698 <iprintf>
whetstones():
E:\VMshare\e203\zhengdian_E203\sdk\whetstone\Release/../application/whets.c:380
    e1[1] = 0.0;
8000121a:	00000d13          	li	s10,0
E:\VMshare\e203\zhengdian_E203\sdk\whetstone\Release/../application/whets.c:381
    start_time();
8000121e:	8a5ff0ef          	jal	ra,80000ac2 <start_time>
E:\VMshare\e203\zhengdian_E203\sdk\whetstone\Release/../application/whets.c:379
    e1[0] = 0.0;
80001222:	8aea                	mv	s5,s10
E:\VMshare\e203\zhengdian_E203\sdk\whetstone\Release/../application/whets.c:383
        for (ix = 0; ix < xtra; ix++) {
80001224:	0d405c63          	blez	s4,800012fc <whetstones.constprop.0+0x7ce>
80001228:	4d81                	li	s11,0
E:\VMshare\e203\zhengdian_E203\sdk\whetstone\Release/../application/whets.c:388
                e1[l - 2] = e1[l - 2] + j + k + l;
8000122a:	0ffff997          	auipc	s3,0xffff
8000122e:	00e9a983          	lw	s3,14(s3) # 90000238 <_impure_ptr+0x5c>
80001232:	0ffff917          	auipc	s2,0xffff
80001236:	01692903          	lw	s2,22(s2) # 90000248 <_impure_ptr+0x6c>
8000123a:	0ffff497          	auipc	s1,0xffff
8000123e:	00a4a483          	lw	s1,10(s1) # 90000244 <_impure_ptr+0x68>
E:\VMshare\e203\zhengdian_E203\sdk\whetstone\Release/../application/whets.c:389
                e1[k - 2] = e1[k - 2] + j * k * l;
80001242:	0ffff417          	auipc	s0,0xffff
80001246:	02642403          	lw	s0,38(s0) # 90000268 <_impure_ptr+0x8c>
E:\VMshare\e203\zhengdian_E203\sdk\whetstone\Release/../application/whets.c:383
        for (ix = 0; ix < xtra; ix++) {
8000124a:	6795                	lui	a5,0x5
8000124c:	20878b93          	addi	s7,a5,520 # 5208 <__stack_size+0x4a08>
E:\VMshare\e203\zhengdian_E203\sdk\whetstone\Release/../application/whets.c:388
                e1[l - 2] = e1[l - 2] + j + k + l;
80001250:	856a                	mv	a0,s10
80001252:	85ce                	mv	a1,s3
80001254:	1b7020ef          	jal	ra,80003c0a <__addsf3>
80001258:	85ca                	mv	a1,s2
8000125a:	1b1020ef          	jal	ra,80003c0a <__addsf3>
8000125e:	85a6                	mv	a1,s1
80001260:	1ab020ef          	jal	ra,80003c0a <__addsf3>
80001264:	8c2a                	mv	s8,a0
E:\VMshare\e203\zhengdian_E203\sdk\whetstone\Release/../application/whets.c:389
                e1[k - 2] = e1[k - 2] + j * k * l;
80001266:	85a2                	mv	a1,s0
80001268:	8556                	mv	a0,s5
8000126a:	1a1020ef          	jal	ra,80003c0a <__addsf3>
8000126e:	8aaa                	mv	s5,a0
E:\VMshare\e203\zhengdian_E203\sdk\whetstone\Release/../application/whets.c:388
                e1[l - 2] = e1[l - 2] + j + k + l;
80001270:	85ce                	mv	a1,s3
80001272:	8562                	mv	a0,s8
80001274:	197020ef          	jal	ra,80003c0a <__addsf3>
80001278:	85ca                	mv	a1,s2
8000127a:	191020ef          	jal	ra,80003c0a <__addsf3>
8000127e:	85a6                	mv	a1,s1
80001280:	18b020ef          	jal	ra,80003c0a <__addsf3>
80001284:	8caa                	mv	s9,a0
E:\VMshare\e203\zhengdian_E203\sdk\whetstone\Release/../application/whets.c:389
                e1[k - 2] = e1[k - 2] + j * k * l;
80001286:	85a2                	mv	a1,s0
80001288:	8556                	mv	a0,s5
8000128a:	181020ef          	jal	ra,80003c0a <__addsf3>
8000128e:	8d2a                	mv	s10,a0
E:\VMshare\e203\zhengdian_E203\sdk\whetstone\Release/../application/whets.c:388
                e1[l - 2] = e1[l - 2] + j + k + l;
80001290:	85ce                	mv	a1,s3
80001292:	8566                	mv	a0,s9
80001294:	177020ef          	jal	ra,80003c0a <__addsf3>
80001298:	85ca                	mv	a1,s2
8000129a:	171020ef          	jal	ra,80003c0a <__addsf3>
8000129e:	85a6                	mv	a1,s1
800012a0:	16b020ef          	jal	ra,80003c0a <__addsf3>
800012a4:	8c2a                	mv	s8,a0
E:\VMshare\e203\zhengdian_E203\sdk\whetstone\Release/../application/whets.c:389
                e1[k - 2] = e1[k - 2] + j * k * l;
800012a6:	85a2                	mv	a1,s0
800012a8:	856a                	mv	a0,s10
800012aa:	161020ef          	jal	ra,80003c0a <__addsf3>
800012ae:	8aaa                	mv	s5,a0
E:\VMshare\e203\zhengdian_E203\sdk\whetstone\Release/../application/whets.c:388
                e1[l - 2] = e1[l - 2] + j + k + l;
800012b0:	85ce                	mv	a1,s3
800012b2:	8562                	mv	a0,s8
800012b4:	157020ef          	jal	ra,80003c0a <__addsf3>
800012b8:	85ca                	mv	a1,s2
800012ba:	151020ef          	jal	ra,80003c0a <__addsf3>
800012be:	85a6                	mv	a1,s1
800012c0:	14b020ef          	jal	ra,80003c0a <__addsf3>
800012c4:	8caa                	mv	s9,a0
E:\VMshare\e203\zhengdian_E203\sdk\whetstone\Release/../application/whets.c:389
                e1[k - 2] = e1[k - 2] + j * k * l;
800012c6:	85a2                	mv	a1,s0
800012c8:	8556                	mv	a0,s5
800012ca:	141020ef          	jal	ra,80003c0a <__addsf3>
800012ce:	8c2a                	mv	s8,a0
E:\VMshare\e203\zhengdian_E203\sdk\whetstone\Release/../application/whets.c:388
                e1[l - 2] = e1[l - 2] + j + k + l;
800012d0:	85ce                	mv	a1,s3
800012d2:	8566                	mv	a0,s9
800012d4:	137020ef          	jal	ra,80003c0a <__addsf3>
800012d8:	85ca                	mv	a1,s2
800012da:	131020ef          	jal	ra,80003c0a <__addsf3>
800012de:	85a6                	mv	a1,s1
800012e0:	12b020ef          	jal	ra,80003c0a <__addsf3>
800012e4:	8d2a                	mv	s10,a0
E:\VMshare\e203\zhengdian_E203\sdk\whetstone\Release/../application/whets.c:389
                e1[k - 2] = e1[k - 2] + j * k * l;
800012e6:	85a2                	mv	a1,s0
800012e8:	8562                	mv	a0,s8
800012ea:	121020ef          	jal	ra,80003c0a <__addsf3>
E:\VMshare\e203\zhengdian_E203\sdk\whetstone\Release/../application/whets.c:384
            for (i = 0; i < n4; i++) {
800012ee:	1bed                	addi	s7,s7,-5
E:\VMshare\e203\zhengdian_E203\sdk\whetstone\Release/../application/whets.c:389
                e1[k - 2] = e1[k - 2] + j * k * l;
800012f0:	8aaa                	mv	s5,a0
E:\VMshare\e203\zhengdian_E203\sdk\whetstone\Release/../application/whets.c:384
            for (i = 0; i < n4; i++) {
800012f2:	f40b9fe3          	bnez	s7,80001250 <whetstones.constprop.0+0x722>
E:\VMshare\e203\zhengdian_E203\sdk\whetstone\Release/../application/whets.c:383
        for (ix = 0; ix < xtra; ix++) {
800012f6:	0d85                	addi	s11,s11,1
800012f8:	f5ba19e3          	bne	s4,s11,8000124a <whetstones.constprop.0+0x71c>
E:\VMshare\e203\zhengdian_E203\sdk\whetstone\Release/../application/whets.c:394
    end_time();
800012fc:	ff8ff0ef          	jal	ra,80000af4 <end_time>
E:\VMshare\e203\zhengdian_E203\sdk\whetstone\Release/../application/whets.c:395
    x = (e1[0] + e1[1]) / (SPDP)n4 / (SPDP)xtra; // was x = e1[0]+e1[1];
80001300:	85d6                	mv	a1,s5
80001302:	856a                	mv	a0,s10
80001304:	107020ef          	jal	ra,80003c0a <__addsf3>
80001308:	0ffff597          	auipc	a1,0xffff
8000130c:	f645a583          	lw	a1,-156(a1) # 9000026c <_impure_ptr+0x90>
80001310:	421020ef          	jal	ra,80003f30 <__divsf3>
80001314:	45e2                	lw	a1,24(sp)
pout():
E:\VMshare\e203\zhengdian_E203\sdk\whetstone\Release/../application/whets.c:508
    Check = Check + checknum;
80001316:	9e818913          	addi	s2,gp,-1560 # 900003b8 <Check>
E:\VMshare\e203\zhengdian_E203\sdk\whetstone\Release/../application/whets.c:511
    TimeUsed = TimeUsed + time;
8000131a:	9ec18993          	addi	s3,gp,-1556 # 900003bc <TimeUsed>
whetstones():
E:\VMshare\e203\zhengdian_E203\sdk\whetstone\Release/../application/whets.c:395
    x = (e1[0] + e1[1]) / (SPDP)n4 / (SPDP)xtra; // was x = e1[0]+e1[1];
8000131e:	413020ef          	jal	ra,80003f30 <__divsf3>
80001322:	842a                	mv	s0,a0
pout():
E:\VMshare\e203\zhengdian_E203\sdk\whetstone\Release/../application/whets.c:508
    Check = Check + checknum;
80001324:	00092503          	lw	a0,0(s2)
80001328:	85a2                	mv	a1,s0
8000132a:	0e1020ef          	jal	ra,80003c0a <__addsf3>
whetstones():
E:\VMshare\e203\zhengdian_E203\sdk\whetstone\Release/../application/whets.c:396
    pout("N4 fixed point   \0", (float)(n4 * 15) * (float)(xtra), 2, x, secs,
8000132e:	9dc18813          	addi	a6,gp,-1572 # 900003ac <secs>
80001332:	00082483          	lw	s1,0(a6)
pout():
E:\VMshare\e203\zhengdian_E203\sdk\whetstone\Release/../application/whets.c:510
    strcpy(headings[section], title);
80001336:	03cb2303          	lw	t1,60(s6)
8000133a:	040b2f83          	lw	t6,64(s6)
8000133e:	044b2603          	lw	a2,68(s6)
80001342:	048b2f03          	lw	t5,72(s6)
80001346:	04cb5e83          	lhu	t4,76(s6)
E:\VMshare\e203\zhengdian_E203\sdk\whetstone\Release/../application/whets.c:508
    Check = Check + checknum;
8000134a:	83aa                	mv	t2,a0
E:\VMshare\e203\zhengdian_E203\sdk\whetstone\Release/../application/whets.c:511
    TimeUsed = TimeUsed + time;
8000134c:	0009a503          	lw	a0,0(s3)
E:\VMshare\e203\zhengdian_E203\sdk\whetstone\Release/../application/whets.c:510
    strcpy(headings[section], title);
80001350:	a9c18293          	addi	t0,gp,-1380 # 9000046c <headings>
E:\VMshare\e203\zhengdian_E203\sdk\whetstone\Release/../application/whets.c:509
    loop_time[section] = time;
80001354:	b4018e13          	addi	t3,gp,-1216 # 90000510 <loop_time>
E:\VMshare\e203\zhengdian_E203\sdk\whetstone\Release/../application/whets.c:511
    TimeUsed = TimeUsed + time;
80001358:	85a6                	mv	a1,s1
E:\VMshare\e203\zhengdian_E203\sdk\whetstone\Release/../application/whets.c:508
    Check = Check + checknum;
8000135a:	00792023          	sw	t2,0(s2)
E:\VMshare\e203\zhengdian_E203\sdk\whetstone\Release/../application/whets.c:509
    loop_time[section] = time;
8000135e:	009e2823          	sw	s1,16(t3)
E:\VMshare\e203\zhengdian_E203\sdk\whetstone\Release/../application/whets.c:510
    strcpy(headings[section], title);
80001362:	0462a423          	sw	t1,72(t0)
80001366:	05f2a623          	sw	t6,76(t0)
8000136a:	04c2a823          	sw	a2,80(t0)
8000136e:	05e2aa23          	sw	t5,84(t0)
80001372:	05d29c23          	sh	t4,88(t0)
E:\VMshare\e203\zhengdian_E203\sdk\whetstone\Release/../application/whets.c:511
    TimeUsed = TimeUsed + time;
80001376:	095020ef          	jal	ra,80003c0a <__addsf3>
8000137a:	00a9a023          	sw	a0,0(s3)
E:\VMshare\e203\zhengdian_E203\sdk\whetstone\Release/../application/whets.c:512
    if (calibrate == 1)
8000137e:	4552                	lw	a0,20(sp)
80001380:	4885                	li	a7,1
80001382:	051502e3          	beq	a0,a7,80001bc6 <whetstones.constprop.0+0x1098>
E:\VMshare\e203\zhengdian_E203\sdk\whetstone\Release/../application/whets.c:517
    if (calibrate == 0) {
80001386:	ed25                	bnez	a0,800013fe <whetstones.constprop.0+0x8d0>
E:\VMshare\e203\zhengdian_E203\sdk\whetstone\Release/../application/whets.c:518
        printf("%s %20.17f    ", headings[section], results[section]);
80001388:	b741a503          	lw	a0,-1164(gp) # 90000544 <results+0x10>
8000138c:	750030ef          	jal	ra,80004adc <__extendsfdf2>
80001390:	862a                	mv	a2,a0
80001392:	86ae                	mv	a3,a1
80001394:	00008517          	auipc	a0,0x8
80001398:	6fc50513          	addi	a0,a0,1788 # 80009a90 <__trunctfdf2+0x308>
8000139c:	ae418593          	addi	a1,gp,-1308 # 900004b4 <headings+0x48>
800013a0:	2f8040ef          	jal	ra,80005698 <iprintf>
E:\VMshare\e203\zhengdian_E203\sdk\whetstone\Release/../application/whets.c:531
            if (time > 0) {
800013a4:	00000593          	li	a1,0
800013a8:	8526                	mv	a0,s1
800013aa:	62f020ef          	jal	ra,800041d8 <__gesf2>
800013ae:	38a052e3          	blez	a0,80001f32 <whetstones.constprop.0+0x1404>
whetstones():
E:\VMshare\e203\zhengdian_E203\sdk\whetstone\Release/../application/whets.c:396
    pout("N4 fixed point   \0", (float)(n4 * 15) * (float)(xtra), 2, x, secs,
800013b2:	4562                	lw	a0,24(sp)
800013b4:	0ffff597          	auipc	a1,0xffff
800013b8:	ebc5a583          	lw	a1,-324(a1) # 90000270 <_impure_ptr+0x94>
800013bc:	70d020ef          	jal	ra,800042c8 <__mulsf3>
800013c0:	8d2a                	mv	s10,a0
pout():
E:\VMshare\e203\zhengdian_E203\sdk\whetstone\Release/../application/whets.c:532
                mops = ops / (1000000L * time);
800013c2:	0ffff597          	auipc	a1,0xffff
800013c6:	e965a583          	lw	a1,-362(a1) # 90000258 <_impure_ptr+0x7c>
800013ca:	8526                	mv	a0,s1
800013cc:	6fd020ef          	jal	ra,800042c8 <__mulsf3>
800013d0:	85aa                	mv	a1,a0
800013d2:	856a                	mv	a0,s10
800013d4:	35d020ef          	jal	ra,80003f30 <__divsf3>
E:\VMshare\e203\zhengdian_E203\sdk\whetstone\Release/../application/whets.c:538
            printf("           %9.3f%9.3f\n", loop_mops[section],
800013d8:	704030ef          	jal	ra,80004adc <__extendsfdf2>
800013dc:	8caa                	mv	s9,a0
800013de:	8c2e                	mv	s8,a1
800013e0:	b4018593          	addi	a1,gp,-1216 # 90000510 <loop_time>
800013e4:	4988                	lw	a0,16(a1)
800013e6:	6f6030ef          	jal	ra,80004adc <__extendsfdf2>
800013ea:	872a                	mv	a4,a0
800013ec:	87ae                	mv	a5,a1
800013ee:	8666                	mv	a2,s9
800013f0:	86e2                	mv	a3,s8
800013f2:	00008517          	auipc	a0,0x8
800013f6:	6c650513          	addi	a0,a0,1734 # 80009ab8 <__trunctfdf2+0x330>
800013fa:	29e040ef          	jal	ra,80005698 <iprintf>
whetstones():
E:\VMshare\e203\zhengdian_E203\sdk\whetstone\Release/../application/whets.c:402
    start_time();
800013fe:	ec4ff0ef          	jal	ra,80000ac2 <start_time>
E:\VMshare\e203\zhengdian_E203\sdk\whetstone\Release/../application/whets.c:404
        for (ix = 0; ix < xtra; ix++) {
80001402:	7d405863          	blez	s4,80001bd2 <whetstones.constprop.0+0x10a4>
80001406:	49f2                	lw	s3,28(sp)
80001408:	0ffffa97          	auipc	s5,0xffff
8000140c:	e38aaa83          	lw	s5,-456(s5) # 90000240 <_impure_ptr+0x64>
80001410:	c402                	sw	zero,8(sp)
80001412:	8c4e                	mv	s8,s3
E:\VMshare\e203\zhengdian_E203\sdk\whetstone\Release/../application/whets.c:344
        t = t0;
80001414:	0ffff917          	auipc	s2,0xffff
80001418:	e2892903          	lw	s2,-472(s2) # 9000023c <_impure_ptr+0x60>
E:\VMshare\e203\zhengdian_E203\sdk\whetstone\Release/../application/whets.c:407
                             (cos(x + y) + cos(x - y) - 1.0));
8000141c:	8bce                	mv	s7,s3
E:\VMshare\e203\zhengdian_E203\sdk\whetstone\Release/../application/whets.c:406
                x = t * atan(t2 * sin(x) * cos(x) /
8000141e:	85e2                	mv	a1,s8
80001420:	854a                	mv	a0,s2
80001422:	6a7020ef          	jal	ra,800042c8 <__mulsf3>
80001426:	84aa                	mv	s1,a0
E:\VMshare\e203\zhengdian_E203\sdk\whetstone\Release/../application/whets.c:408
                y = t * atan(t2 * sin(y) * cos(y) /
80001428:	85d6                	mv	a1,s5
8000142a:	854a                	mv	a0,s2
8000142c:	69d020ef          	jal	ra,800042c8 <__mulsf3>
80001430:	842a                	mv	s0,a0
E:\VMshare\e203\zhengdian_E203\sdk\whetstone\Release/../application/whets.c:405
            for (i = 1; i < n5; i++) {
80001432:	6505                	lui	a0,0x1
80001434:	c7e50c93          	addi	s9,a0,-898 # c7e <__stack_size+0x47e>
E:\VMshare\e203\zhengdian_E203\sdk\whetstone\Release/../application/whets.c:406
                x = t * atan(t2 * sin(x) * cos(x) /
80001438:	8526                	mv	a0,s1
8000143a:	78b000ef          	jal	ra,800023c4 <sinf>
8000143e:	8daa                	mv	s11,a0
80001440:	8526                	mv	a0,s1
80001442:	703000ef          	jal	ra,80002344 <cosf>
E:\VMshare\e203\zhengdian_E203\sdk\whetstone\Release/../application/whets.c:407
                             (cos(x + y) + cos(x - y) - 1.0));
80001446:	85a6                	mv	a1,s1
E:\VMshare\e203\zhengdian_E203\sdk\whetstone\Release/../application/whets.c:406
                x = t * atan(t2 * sin(x) * cos(x) /
80001448:	8d2a                	mv	s10,a0
E:\VMshare\e203\zhengdian_E203\sdk\whetstone\Release/../application/whets.c:407
                             (cos(x + y) + cos(x - y) - 1.0));
8000144a:	8522                	mv	a0,s0
8000144c:	7be020ef          	jal	ra,80003c0a <__addsf3>
80001450:	6f5000ef          	jal	ra,80002344 <cosf>
80001454:	85a2                	mv	a1,s0
80001456:	8aaa                	mv	s5,a0
80001458:	8526                	mv	a0,s1
8000145a:	092030ef          	jal	ra,800044ec <__subsf3>
8000145e:	6e7000ef          	jal	ra,80002344 <cosf>
80001462:	8c2a                	mv	s8,a0
E:\VMshare\e203\zhengdian_E203\sdk\whetstone\Release/../application/whets.c:406
                x = t * atan(t2 * sin(x) * cos(x) /
80001464:	85ee                	mv	a1,s11
80001466:	856e                	mv	a0,s11
80001468:	7a2020ef          	jal	ra,80003c0a <__addsf3>
8000146c:	85ea                	mv	a1,s10
8000146e:	65b020ef          	jal	ra,800042c8 <__mulsf3>
80001472:	84aa                	mv	s1,a0
E:\VMshare\e203\zhengdian_E203\sdk\whetstone\Release/../application/whets.c:407
                             (cos(x + y) + cos(x - y) - 1.0));
80001474:	85e2                	mv	a1,s8
80001476:	8556                	mv	a0,s5
80001478:	792020ef          	jal	ra,80003c0a <__addsf3>
8000147c:	85de                	mv	a1,s7
8000147e:	06e030ef          	jal	ra,800044ec <__subsf3>
80001482:	85aa                	mv	a1,a0
E:\VMshare\e203\zhengdian_E203\sdk\whetstone\Release/../application/whets.c:406
                x = t * atan(t2 * sin(x) * cos(x) /
80001484:	8526                	mv	a0,s1
80001486:	2ab020ef          	jal	ra,80003f30 <__divsf3>
8000148a:	449000ef          	jal	ra,800020d2 <atanf>
8000148e:	8d2a                	mv	s10,a0
E:\VMshare\e203\zhengdian_E203\sdk\whetstone\Release/../application/whets.c:408
                y = t * atan(t2 * sin(y) * cos(y) /
80001490:	8522                	mv	a0,s0
80001492:	733000ef          	jal	ra,800023c4 <sinf>
80001496:	8aaa                	mv	s5,a0
80001498:	8522                	mv	a0,s0
8000149a:	6ab000ef          	jal	ra,80002344 <cosf>
E:\VMshare\e203\zhengdian_E203\sdk\whetstone\Release/../application/whets.c:406
                x = t * atan(t2 * sin(x) * cos(x) /
8000149e:	85ea                	mv	a1,s10
E:\VMshare\e203\zhengdian_E203\sdk\whetstone\Release/../application/whets.c:408
                y = t * atan(t2 * sin(y) * cos(y) /
800014a0:	8daa                	mv	s11,a0
E:\VMshare\e203\zhengdian_E203\sdk\whetstone\Release/../application/whets.c:406
                x = t * atan(t2 * sin(x) * cos(x) /
800014a2:	854a                	mv	a0,s2
800014a4:	625020ef          	jal	ra,800042c8 <__mulsf3>
E:\VMshare\e203\zhengdian_E203\sdk\whetstone\Release/../application/whets.c:409
                             (cos(x + y) + cos(x - y) - 1.0));
800014a8:	85a2                	mv	a1,s0
E:\VMshare\e203\zhengdian_E203\sdk\whetstone\Release/../application/whets.c:406
                x = t * atan(t2 * sin(x) * cos(x) /
800014aa:	84aa                	mv	s1,a0
E:\VMshare\e203\zhengdian_E203\sdk\whetstone\Release/../application/whets.c:409
                             (cos(x + y) + cos(x - y) - 1.0));
800014ac:	75e020ef          	jal	ra,80003c0a <__addsf3>
800014b0:	695000ef          	jal	ra,80002344 <cosf>
800014b4:	85a2                	mv	a1,s0
800014b6:	8d2a                	mv	s10,a0
800014b8:	8526                	mv	a0,s1
800014ba:	032030ef          	jal	ra,800044ec <__subsf3>
800014be:	687000ef          	jal	ra,80002344 <cosf>
800014c2:	8c2a                	mv	s8,a0
E:\VMshare\e203\zhengdian_E203\sdk\whetstone\Release/../application/whets.c:408
                y = t * atan(t2 * sin(y) * cos(y) /
800014c4:	85d6                	mv	a1,s5
800014c6:	8556                	mv	a0,s5
800014c8:	742020ef          	jal	ra,80003c0a <__addsf3>
800014cc:	85ee                	mv	a1,s11
800014ce:	5fb020ef          	jal	ra,800042c8 <__mulsf3>
800014d2:	842a                	mv	s0,a0
E:\VMshare\e203\zhengdian_E203\sdk\whetstone\Release/../application/whets.c:409
                             (cos(x + y) + cos(x - y) - 1.0));
800014d4:	85e2                	mv	a1,s8
800014d6:	856a                	mv	a0,s10
800014d8:	732020ef          	jal	ra,80003c0a <__addsf3>
800014dc:	85ce                	mv	a1,s3
800014de:	00e030ef          	jal	ra,800044ec <__subsf3>
800014e2:	85aa                	mv	a1,a0
E:\VMshare\e203\zhengdian_E203\sdk\whetstone\Release/../application/whets.c:408
                y = t * atan(t2 * sin(y) * cos(y) /
800014e4:	8522                	mv	a0,s0
800014e6:	24b020ef          	jal	ra,80003f30 <__divsf3>
800014ea:	3e9000ef          	jal	ra,800020d2 <atanf>
800014ee:	85aa                	mv	a1,a0
800014f0:	854a                	mv	a0,s2
800014f2:	5d7020ef          	jal	ra,800042c8 <__mulsf3>
E:\VMshare\e203\zhengdian_E203\sdk\whetstone\Release/../application/whets.c:405
            for (i = 1; i < n5; i++) {
800014f6:	1cfd                	addi	s9,s9,-1
E:\VMshare\e203\zhengdian_E203\sdk\whetstone\Release/../application/whets.c:408
                y = t * atan(t2 * sin(y) * cos(y) /
800014f8:	842a                	mv	s0,a0
E:\VMshare\e203\zhengdian_E203\sdk\whetstone\Release/../application/whets.c:405
            for (i = 1; i < n5; i++) {
800014fa:	f20c9fe3          	bnez	s9,80001438 <whetstones.constprop.0+0x90a>
E:\VMshare\e203\zhengdian_E203\sdk\whetstone\Release/../application/whets.c:411
            t = 1.0 - t;
800014fe:	0ffffa97          	auipc	s5,0xffff
80001502:	d3aa8a93          	addi	s5,s5,-710 # 90000238 <_impure_ptr+0x5c>
80001506:	000aa503          	lw	a0,0(s5)
8000150a:	85ca                	mv	a1,s2
8000150c:	7e1020ef          	jal	ra,800044ec <__subsf3>
E:\VMshare\e203\zhengdian_E203\sdk\whetstone\Release/../application/whets.c:404
        for (ix = 0; ix < xtra; ix++) {
80001510:	45a2                	lw	a1,8(sp)
E:\VMshare\e203\zhengdian_E203\sdk\whetstone\Release/../application/whets.c:411
            t = 1.0 - t;
80001512:	892a                	mv	s2,a0
E:\VMshare\e203\zhengdian_E203\sdk\whetstone\Release/../application/whets.c:404
        for (ix = 0; ix < xtra; ix++) {
80001514:	00158313          	addi	t1,a1,1
80001518:	c41a                	sw	t1,8(sp)
8000151a:	0c6a0663          	beq	s4,t1,800015e6 <whetstones.constprop.0+0xab8>
E:\VMshare\e203\zhengdian_E203\sdk\whetstone\Release/../application/whets.c:406
                x = t * atan(t2 * sin(x) * cos(x) /
8000151e:	8526                	mv	a0,s1
80001520:	6a5000ef          	jal	ra,800023c4 <sinf>
80001524:	862a                	mv	a2,a0
80001526:	8526                	mv	a0,s1
80001528:	c832                	sw	a2,16(sp)
8000152a:	61b000ef          	jal	ra,80002344 <cosf>
E:\VMshare\e203\zhengdian_E203\sdk\whetstone\Release/../application/whets.c:407
                             (cos(x + y) + cos(x - y) - 1.0));
8000152e:	85a6                	mv	a1,s1
E:\VMshare\e203\zhengdian_E203\sdk\whetstone\Release/../application/whets.c:406
                x = t * atan(t2 * sin(x) * cos(x) /
80001530:	8d2a                	mv	s10,a0
E:\VMshare\e203\zhengdian_E203\sdk\whetstone\Release/../application/whets.c:407
                             (cos(x + y) + cos(x - y) - 1.0));
80001532:	8522                	mv	a0,s0
E:\VMshare\e203\zhengdian_E203\sdk\whetstone\Release/../application/whets.c:406
                x = t * atan(t2 * sin(x) * cos(x) /
80001534:	c66a                	sw	s10,12(sp)
E:\VMshare\e203\zhengdian_E203\sdk\whetstone\Release/../application/whets.c:407
                             (cos(x + y) + cos(x - y) - 1.0));
80001536:	6d4020ef          	jal	ra,80003c0a <__addsf3>
8000153a:	60b000ef          	jal	ra,80002344 <cosf>
8000153e:	85a2                	mv	a1,s0
80001540:	8c2a                	mv	s8,a0
80001542:	8526                	mv	a0,s1
80001544:	7a9020ef          	jal	ra,800044ec <__subsf3>
80001548:	5fd000ef          	jal	ra,80002344 <cosf>
E:\VMshare\e203\zhengdian_E203\sdk\whetstone\Release/../application/whets.c:406
                x = t * atan(t2 * sin(x) * cos(x) /
8000154c:	45c2                	lw	a1,16(sp)
E:\VMshare\e203\zhengdian_E203\sdk\whetstone\Release/../application/whets.c:407
                             (cos(x + y) + cos(x - y) - 1.0));
8000154e:	8daa                	mv	s11,a0
E:\VMshare\e203\zhengdian_E203\sdk\whetstone\Release/../application/whets.c:406
                x = t * atan(t2 * sin(x) * cos(x) /
80001550:	852e                	mv	a0,a1
80001552:	6b8020ef          	jal	ra,80003c0a <__addsf3>
80001556:	45b2                	lw	a1,12(sp)
80001558:	571020ef          	jal	ra,800042c8 <__mulsf3>
E:\VMshare\e203\zhengdian_E203\sdk\whetstone\Release/../application/whets.c:407
                             (cos(x + y) + cos(x - y) - 1.0));
8000155c:	85ee                	mv	a1,s11
E:\VMshare\e203\zhengdian_E203\sdk\whetstone\Release/../application/whets.c:406
                x = t * atan(t2 * sin(x) * cos(x) /
8000155e:	84aa                	mv	s1,a0
E:\VMshare\e203\zhengdian_E203\sdk\whetstone\Release/../application/whets.c:407
                             (cos(x + y) + cos(x - y) - 1.0));
80001560:	8562                	mv	a0,s8
80001562:	6a8020ef          	jal	ra,80003c0a <__addsf3>
80001566:	000aa583          	lw	a1,0(s5)
8000156a:	783020ef          	jal	ra,800044ec <__subsf3>
8000156e:	85aa                	mv	a1,a0
E:\VMshare\e203\zhengdian_E203\sdk\whetstone\Release/../application/whets.c:406
                x = t * atan(t2 * sin(x) * cos(x) /
80001570:	8526                	mv	a0,s1
80001572:	1bf020ef          	jal	ra,80003f30 <__divsf3>
80001576:	35d000ef          	jal	ra,800020d2 <atanf>
8000157a:	85aa                	mv	a1,a0
8000157c:	8c2a                	mv	s8,a0
8000157e:	854a                	mv	a0,s2
80001580:	549020ef          	jal	ra,800042c8 <__mulsf3>
80001584:	8d2a                	mv	s10,a0
E:\VMshare\e203\zhengdian_E203\sdk\whetstone\Release/../application/whets.c:408
                y = t * atan(t2 * sin(y) * cos(y) /
80001586:	8522                	mv	a0,s0
80001588:	63d000ef          	jal	ra,800023c4 <sinf>
8000158c:	88aa                	mv	a7,a0
8000158e:	8522                	mv	a0,s0
80001590:	c846                	sw	a7,16(sp)
80001592:	5b3000ef          	jal	ra,80002344 <cosf>
80001596:	832a                	mv	t1,a0
E:\VMshare\e203\zhengdian_E203\sdk\whetstone\Release/../application/whets.c:409
                             (cos(x + y) + cos(x - y) - 1.0));
80001598:	85ea                	mv	a1,s10
8000159a:	8522                	mv	a0,s0
E:\VMshare\e203\zhengdian_E203\sdk\whetstone\Release/../application/whets.c:408
                y = t * atan(t2 * sin(y) * cos(y) /
8000159c:	c61a                	sw	t1,12(sp)
E:\VMshare\e203\zhengdian_E203\sdk\whetstone\Release/../application/whets.c:409
                             (cos(x + y) + cos(x - y) - 1.0));
8000159e:	66c020ef          	jal	ra,80003c0a <__addsf3>
800015a2:	5a3000ef          	jal	ra,80002344 <cosf>
800015a6:	85a2                	mv	a1,s0
800015a8:	8caa                	mv	s9,a0
800015aa:	856a                	mv	a0,s10
800015ac:	741020ef          	jal	ra,800044ec <__subsf3>
800015b0:	595000ef          	jal	ra,80002344 <cosf>
E:\VMshare\e203\zhengdian_E203\sdk\whetstone\Release/../application/whets.c:408
                y = t * atan(t2 * sin(y) * cos(y) /
800015b4:	45c2                	lw	a1,16(sp)
E:\VMshare\e203\zhengdian_E203\sdk\whetstone\Release/../application/whets.c:409
                             (cos(x + y) + cos(x - y) - 1.0));
800015b6:	8daa                	mv	s11,a0
E:\VMshare\e203\zhengdian_E203\sdk\whetstone\Release/../application/whets.c:408
                y = t * atan(t2 * sin(y) * cos(y) /
800015b8:	852e                	mv	a0,a1
800015ba:	650020ef          	jal	ra,80003c0a <__addsf3>
800015be:	45b2                	lw	a1,12(sp)
800015c0:	509020ef          	jal	ra,800042c8 <__mulsf3>
800015c4:	842a                	mv	s0,a0
E:\VMshare\e203\zhengdian_E203\sdk\whetstone\Release/../application/whets.c:409
                             (cos(x + y) + cos(x - y) - 1.0));
800015c6:	85ee                	mv	a1,s11
800015c8:	8566                	mv	a0,s9
800015ca:	640020ef          	jal	ra,80003c0a <__addsf3>
800015ce:	000aa583          	lw	a1,0(s5)
800015d2:	71b020ef          	jal	ra,800044ec <__subsf3>
800015d6:	85aa                	mv	a1,a0
E:\VMshare\e203\zhengdian_E203\sdk\whetstone\Release/../application/whets.c:408
                y = t * atan(t2 * sin(y) * cos(y) /
800015d8:	8522                	mv	a0,s0
800015da:	157020ef          	jal	ra,80003f30 <__divsf3>
800015de:	2f5000ef          	jal	ra,800020d2 <atanf>
800015e2:	8aaa                	mv	s5,a0
800015e4:	bd2d                	j	8000141e <whetstones.constprop.0+0x8f0>
E:\VMshare\e203\zhengdian_E203\sdk\whetstone\Release/../application/whets.c:415
    end_time();
800015e6:	d0eff0ef          	jal	ra,80000af4 <end_time>
pout():
E:\VMshare\e203\zhengdian_E203\sdk\whetstone\Release/../application/whets.c:508
    Check = Check + checknum;
800015ea:	9e818b93          	addi	s7,gp,-1560 # 900003b8 <Check>
800015ee:	000ba503          	lw	a0,0(s7)
whetstones():
E:\VMshare\e203\zhengdian_E203\sdk\whetstone\Release/../application/whets.c:416
    pout("N5 sin,cos etc.  \0", (float)(n5 * 26) * (float)(xtra), 2, y, secs,
800015f2:	9dc18813          	addi	a6,gp,-1572 # 900003ac <secs>
pout():
E:\VMshare\e203\zhengdian_E203\sdk\whetstone\Release/../application/whets.c:508
    Check = Check + checknum;
800015f6:	85a2                	mv	a1,s0
whetstones():
E:\VMshare\e203\zhengdian_E203\sdk\whetstone\Release/../application/whets.c:416
    pout("N5 sin,cos etc.  \0", (float)(n5 * 26) * (float)(xtra), 2, y, secs,
800015f8:	00082483          	lw	s1,0(a6)
pout():
E:\VMshare\e203\zhengdian_E203\sdk\whetstone\Release/../application/whets.c:508
    Check = Check + checknum;
800015fc:	60e020ef          	jal	ra,80003c0a <__addsf3>
E:\VMshare\e203\zhengdian_E203\sdk\whetstone\Release/../application/whets.c:510
    strcpy(headings[section], title);
80001600:	08cb5e83          	lhu	t4,140(s6)
80001604:	08eb5e03          	lhu	t3,142(s6)
80001608:	090b5283          	lhu	t0,144(s6)
8000160c:	092b5883          	lhu	a7,146(s6)
80001610:	094b5383          	lhu	t2,148(s6)
80001614:	096b5603          	lhu	a2,150(s6)
80001618:	098b5683          	lhu	a3,152(s6)
8000161c:	09ab5703          	lhu	a4,154(s6)
80001620:	09cb5783          	lhu	a5,156(s6)
E:\VMshare\e203\zhengdian_E203\sdk\whetstone\Release/../application/whets.c:511
    TimeUsed = TimeUsed + time;
80001624:	9ec18993          	addi	s3,gp,-1556 # 900003bc <TimeUsed>
E:\VMshare\e203\zhengdian_E203\sdk\whetstone\Release/../application/whets.c:508
    Check = Check + checknum;
80001628:	8faa                	mv	t6,a0
E:\VMshare\e203\zhengdian_E203\sdk\whetstone\Release/../application/whets.c:511
    TimeUsed = TimeUsed + time;
8000162a:	0009a503          	lw	a0,0(s3)
E:\VMshare\e203\zhengdian_E203\sdk\whetstone\Release/../application/whets.c:510
    strcpy(headings[section], title);
8000162e:	a9c18d93          	addi	s11,gp,-1380 # 9000046c <headings>
E:\VMshare\e203\zhengdian_E203\sdk\whetstone\Release/../application/whets.c:509
    loop_time[section] = time;
80001632:	b4018f13          	addi	t5,gp,-1216 # 90000510 <loop_time>
E:\VMshare\e203\zhengdian_E203\sdk\whetstone\Release/../application/whets.c:511
    TimeUsed = TimeUsed + time;
80001636:	85a6                	mv	a1,s1
E:\VMshare\e203\zhengdian_E203\sdk\whetstone\Release/../application/whets.c:508
    Check = Check + checknum;
80001638:	01fba023          	sw	t6,0(s7)
E:\VMshare\e203\zhengdian_E203\sdk\whetstone\Release/../application/whets.c:509
    loop_time[section] = time;
8000163c:	009f2a23          	sw	s1,20(t5)
E:\VMshare\e203\zhengdian_E203\sdk\whetstone\Release/../application/whets.c:510
    strcpy(headings[section], title);
80001640:	05dd9d23          	sh	t4,90(s11)
80001644:	05cd9e23          	sh	t3,92(s11)
80001648:	045d9f23          	sh	t0,94(s11)
8000164c:	071d9023          	sh	a7,96(s11)
80001650:	067d9123          	sh	t2,98(s11)
80001654:	06cd9223          	sh	a2,100(s11)
80001658:	06dd9323          	sh	a3,102(s11)
8000165c:	06ed9423          	sh	a4,104(s11)
80001660:	06fd9523          	sh	a5,106(s11)
E:\VMshare\e203\zhengdian_E203\sdk\whetstone\Release/../application/whets.c:511
    TimeUsed = TimeUsed + time;
80001664:	5a6020ef          	jal	ra,80003c0a <__addsf3>
E:\VMshare\e203\zhengdian_E203\sdk\whetstone\Release/../application/whets.c:512
    if (calibrate == 1)
80001668:	4d52                	lw	s10,20(sp)
E:\VMshare\e203\zhengdian_E203\sdk\whetstone\Release/../application/whets.c:511
    TimeUsed = TimeUsed + time;
8000166a:	00a9a023          	sw	a0,0(s3)
E:\VMshare\e203\zhengdian_E203\sdk\whetstone\Release/../application/whets.c:512
    if (calibrate == 1)
8000166e:	4505                	li	a0,1
80001670:	54ad0663          	beq	s10,a0,80001bbc <whetstones.constprop.0+0x108e>
E:\VMshare\e203\zhengdian_E203\sdk\whetstone\Release/../application/whets.c:517
    if (calibrate == 0) {
80001674:	40d2                	lw	ra,20(sp)
80001676:	0e009a63          	bnez	ra,8000176a <whetstones.constprop.0+0xc3c>
E:\VMshare\e203\zhengdian_E203\sdk\whetstone\Release/../application/whets.c:518
        printf("%s %20.17f    ", headings[section], results[section]);
8000167a:	b6418d93          	addi	s11,gp,-1180 # 90000534 <results>
8000167e:	014da503          	lw	a0,20(s11)
80001682:	45a030ef          	jal	ra,80004adc <__extendsfdf2>
80001686:	862a                	mv	a2,a0
80001688:	86ae                	mv	a3,a1
8000168a:	00008517          	auipc	a0,0x8
8000168e:	40650513          	addi	a0,a0,1030 # 80009a90 <__trunctfdf2+0x308>
80001692:	af618593          	addi	a1,gp,-1290 # 900004c6 <headings+0x5a>
80001696:	002040ef          	jal	ra,80005698 <iprintf>
E:\VMshare\e203\zhengdian_E203\sdk\whetstone\Release/../application/whets.c:531
            if (time > 0) {
8000169a:	00000593          	li	a1,0
8000169e:	8526                	mv	a0,s1
800016a0:	339020ef          	jal	ra,800041d8 <__gesf2>
800016a4:	0aa052e3          	blez	a0,80001f48 <whetstones.constprop.0+0x141a>
whetstones():
E:\VMshare\e203\zhengdian_E203\sdk\whetstone\Release/../application/whets.c:416
    pout("N5 sin,cos etc.  \0", (float)(n5 * 26) * (float)(xtra), 2, y, secs,
800016a8:	4562                	lw	a0,24(sp)
800016aa:	0ffff597          	auipc	a1,0xffff
800016ae:	bca5a583          	lw	a1,-1078(a1) # 90000274 <_impure_ptr+0x98>
800016b2:	417020ef          	jal	ra,800042c8 <__mulsf3>
800016b6:	8caa                	mv	s9,a0
pout():
E:\VMshare\e203\zhengdian_E203\sdk\whetstone\Release/../application/whets.c:532
                mops = ops / (1000000L * time);
800016b8:	0ffff597          	auipc	a1,0xffff
800016bc:	ba05a583          	lw	a1,-1120(a1) # 90000258 <_impure_ptr+0x7c>
800016c0:	8526                	mv	a0,s1
800016c2:	407020ef          	jal	ra,800042c8 <__mulsf3>
800016c6:	85aa                	mv	a1,a0
800016c8:	8566                	mv	a0,s9
800016ca:	067020ef          	jal	ra,80003f30 <__divsf3>
E:\VMshare\e203\zhengdian_E203\sdk\whetstone\Release/../application/whets.c:538
            printf("           %9.3f%9.3f\n", loop_mops[section],
800016ce:	40e030ef          	jal	ra,80004adc <__extendsfdf2>
800016d2:	8d2a                	mv	s10,a0
800016d4:	8c2e                	mv	s8,a1
800016d6:	b4018593          	addi	a1,gp,-1216 # 90000510 <loop_time>
800016da:	49c8                	lw	a0,20(a1)
800016dc:	400030ef          	jal	ra,80004adc <__extendsfdf2>
800016e0:	872a                	mv	a4,a0
800016e2:	87ae                	mv	a5,a1
800016e4:	866a                	mv	a2,s10
800016e6:	86e2                	mv	a3,s8
800016e8:	00008517          	auipc	a0,0x8
800016ec:	3d050513          	addi	a0,a0,976 # 80009ab8 <__trunctfdf2+0x330>
800016f0:	7a9030ef          	jal	ra,80005698 <iprintf>
whetstones():
E:\VMshare\e203\zhengdian_E203\sdk\whetstone\Release/../application/whets.c:424
    start_time();
800016f4:	bceff0ef          	jal	ra,80000ac2 <start_time>
E:\VMshare\e203\zhengdian_E203\sdk\whetstone\Release/../application/whets.c:426
        for (ix = 0; ix < xtra; ix++) {
800016f8:	07404d63          	bgtz	s4,80001772 <whetstones.constprop.0+0xc44>
E:\VMshare\e203\zhengdian_E203\sdk\whetstone\Release/../application/whets.c:432
    end_time();
800016fc:	bf8ff0ef          	jal	ra,80000af4 <end_time>
pout():
E:\VMshare\e203\zhengdian_E203\sdk\whetstone\Release/../application/whets.c:508
    Check = Check + checknum;
80001700:	9e818413          	addi	s0,gp,-1560 # 900003b8 <Check>
80001704:	4008                	lw	a0,0(s0)
whetstones():
E:\VMshare\e203\zhengdian_E203\sdk\whetstone\Release/../application/whets.c:433
    pout("N6 floating point\0", (float)(n6 * 6) * (float)(xtra), 1, z, secs,
80001706:	9dc18e13          	addi	t3,gp,-1572 # 900003ac <secs>
pout():
E:\VMshare\e203\zhengdian_E203\sdk\whetstone\Release/../application/whets.c:508
    Check = Check + checknum;
8000170a:	0ffff597          	auipc	a1,0xffff
8000170e:	b2e5a583          	lw	a1,-1234(a1) # 90000238 <_impure_ptr+0x5c>
whetstones():
E:\VMshare\e203\zhengdian_E203\sdk\whetstone\Release/../application/whets.c:433
    pout("N6 floating point\0", (float)(n6 * 6) * (float)(xtra), 1, z, secs,
80001712:	000e2a83          	lw	s5,0(t3)
pout():
E:\VMshare\e203\zhengdian_E203\sdk\whetstone\Release/../application/whets.c:508
    Check = Check + checknum;
80001716:	4f4020ef          	jal	ra,80003c0a <__addsf3>
E:\VMshare\e203\zhengdian_E203\sdk\whetstone\Release/../application/whets.c:510
    strcpy(headings[section], title);
8000171a:	050b2383          	lw	t2,80(s6)
8000171e:	054b2603          	lw	a2,84(s6)
80001722:	058b2683          	lw	a3,88(s6)
80001726:	05cb2703          	lw	a4,92(s6)
8000172a:	060b5783          	lhu	a5,96(s6)
E:\VMshare\e203\zhengdian_E203\sdk\whetstone\Release/../application/whets.c:511
    TimeUsed = TimeUsed + time;
8000172e:	9ec18913          	addi	s2,gp,-1556 # 900003bc <TimeUsed>
E:\VMshare\e203\zhengdian_E203\sdk\whetstone\Release/../application/whets.c:508
    Check = Check + checknum;
80001732:	82aa                	mv	t0,a0
E:\VMshare\e203\zhengdian_E203\sdk\whetstone\Release/../application/whets.c:511
    TimeUsed = TimeUsed + time;
80001734:	00092503          	lw	a0,0(s2)
E:\VMshare\e203\zhengdian_E203\sdk\whetstone\Release/../application/whets.c:510
    strcpy(headings[section], title);
80001738:	a9c18f13          	addi	t5,gp,-1380 # 9000046c <headings>
E:\VMshare\e203\zhengdian_E203\sdk\whetstone\Release/../application/whets.c:509
    loop_time[section] = time;
8000173c:	b4018893          	addi	a7,gp,-1216 # 90000510 <loop_time>
E:\VMshare\e203\zhengdian_E203\sdk\whetstone\Release/../application/whets.c:511
    TimeUsed = TimeUsed + time;
80001740:	85d6                	mv	a1,s5
E:\VMshare\e203\zhengdian_E203\sdk\whetstone\Release/../application/whets.c:508
    Check = Check + checknum;
80001742:	00542023          	sw	t0,0(s0)
E:\VMshare\e203\zhengdian_E203\sdk\whetstone\Release/../application/whets.c:509
    loop_time[section] = time;
80001746:	0158ac23          	sw	s5,24(a7)
E:\VMshare\e203\zhengdian_E203\sdk\whetstone\Release/../application/whets.c:510
    strcpy(headings[section], title);
8000174a:	067f2623          	sw	t2,108(t5)
8000174e:	06cf2823          	sw	a2,112(t5)
80001752:	06df2a23          	sw	a3,116(t5)
80001756:	06ef2c23          	sw	a4,120(t5)
8000175a:	06ff1e23          	sh	a5,124(t5)
E:\VMshare\e203\zhengdian_E203\sdk\whetstone\Release/../application/whets.c:511
    TimeUsed = TimeUsed + time;
8000175e:	4ac020ef          	jal	ra,80003c0a <__addsf3>
80001762:	00a92023          	sw	a0,0(s2)
E:\VMshare\e203\zhengdian_E203\sdk\whetstone\Release/../application/whets.c:517
    if (calibrate == 0) {
80001766:	73c0006f          	j	80001ea2 <whetstones.constprop.0+0x1374>
whetstones():
E:\VMshare\e203\zhengdian_E203\sdk\whetstone\Release/../application/whets.c:424
    start_time();
8000176a:	b58ff0ef          	jal	ra,80000ac2 <start_time>
E:\VMshare\e203\zhengdian_E203\sdk\whetstone\Release/../application/whets.c:426
        for (ix = 0; ix < xtra; ix++) {
8000176e:	0f405ae3          	blez	s4,80002062 <whetstones.constprop.0+0x1534>
E:\VMshare\e203\zhengdian_E203\sdk\whetstone\Release/../application/whets.c:423
    z = 1.0;
80001772:	4c72                	lw	s8,28(sp)
E:\VMshare\e203\zhengdian_E203\sdk\whetstone\Release/../application/whets.c:426
        for (ix = 0; ix < xtra; ix++) {
80001774:	4981                	li	s3,0
80001776:	6ad9                	lui	s5,0x16
E:\VMshare\e203\zhengdian_E203\sdk\whetstone\Release/../application/whets.c:422
    y = 1.0;
80001778:	8962                	mv	s2,s8
p3():
E:\VMshare\e203\zhengdian_E203\sdk\whetstone\Release/../application/whets.c:497
    *x = t * (*x + *y);
8000177a:	0ffffd17          	auipc	s10,0xffff
8000177e:	ac2d2d03          	lw	s10,-1342(s10) # 9000023c <_impure_ptr+0x60>
E:\VMshare\e203\zhengdian_E203\sdk\whetstone\Release/../application/whets.c:498
    *y = t1 * (*x + *y);
80001782:	0ffff497          	auipc	s1,0xffff
80001786:	af64a483          	lw	s1,-1290(s1) # 90000278 <_impure_ptr+0x9c>
E:\VMshare\e203\zhengdian_E203\sdk\whetstone\Release/../application/whets.c:499
    *z = (*x + *y) / t2;
8000178a:	0ffff417          	auipc	s0,0xffff
8000178e:	ad242403          	lw	s0,-1326(s0) # 9000025c <_impure_ptr+0x80>
whetstones():
E:\VMshare\e203\zhengdian_E203\sdk\whetstone\Release/../application/whets.c:426
        for (ix = 0; ix < xtra; ix++) {
80001792:	f2ca8c93          	addi	s9,s5,-212 # 15f2c <__stack_size+0x1572c>
p3():
E:\VMshare\e203\zhengdian_E203\sdk\whetstone\Release/../application/whets.c:497
    *x = t * (*x + *y);
80001796:	85e2                	mv	a1,s8
80001798:	854a                	mv	a0,s2
8000179a:	470020ef          	jal	ra,80003c0a <__addsf3>
8000179e:	85ea                	mv	a1,s10
800017a0:	329020ef          	jal	ra,800042c8 <__mulsf3>
E:\VMshare\e203\zhengdian_E203\sdk\whetstone\Release/../application/whets.c:498
    *y = t1 * (*x + *y);
800017a4:	85e2                	mv	a1,s8
E:\VMshare\e203\zhengdian_E203\sdk\whetstone\Release/../application/whets.c:497
    *x = t * (*x + *y);
800017a6:	8daa                	mv	s11,a0
E:\VMshare\e203\zhengdian_E203\sdk\whetstone\Release/../application/whets.c:498
    *y = t1 * (*x + *y);
800017a8:	462020ef          	jal	ra,80003c0a <__addsf3>
800017ac:	85a6                	mv	a1,s1
800017ae:	31b020ef          	jal	ra,800042c8 <__mulsf3>
800017b2:	8baa                	mv	s7,a0
E:\VMshare\e203\zhengdian_E203\sdk\whetstone\Release/../application/whets.c:499
    *z = (*x + *y) / t2;
800017b4:	85aa                	mv	a1,a0
800017b6:	856e                	mv	a0,s11
800017b8:	452020ef          	jal	ra,80003c0a <__addsf3>
800017bc:	85a2                	mv	a1,s0
800017be:	30b020ef          	jal	ra,800042c8 <__mulsf3>
800017c2:	8c2a                	mv	s8,a0
E:\VMshare\e203\zhengdian_E203\sdk\whetstone\Release/../application/whets.c:497
    *x = t * (*x + *y);
800017c4:	85aa                	mv	a1,a0
800017c6:	855e                	mv	a0,s7
800017c8:	442020ef          	jal	ra,80003c0a <__addsf3>
800017cc:	85ea                	mv	a1,s10
800017ce:	2fb020ef          	jal	ra,800042c8 <__mulsf3>
E:\VMshare\e203\zhengdian_E203\sdk\whetstone\Release/../application/whets.c:498
    *y = t1 * (*x + *y);
800017d2:	85e2                	mv	a1,s8
E:\VMshare\e203\zhengdian_E203\sdk\whetstone\Release/../application/whets.c:497
    *x = t * (*x + *y);
800017d4:	892a                	mv	s2,a0
E:\VMshare\e203\zhengdian_E203\sdk\whetstone\Release/../application/whets.c:498
    *y = t1 * (*x + *y);
800017d6:	434020ef          	jal	ra,80003c0a <__addsf3>
800017da:	85a6                	mv	a1,s1
800017dc:	2ed020ef          	jal	ra,800042c8 <__mulsf3>
800017e0:	8baa                	mv	s7,a0
E:\VMshare\e203\zhengdian_E203\sdk\whetstone\Release/../application/whets.c:499
    *z = (*x + *y) / t2;
800017e2:	85aa                	mv	a1,a0
800017e4:	854a                	mv	a0,s2
800017e6:	424020ef          	jal	ra,80003c0a <__addsf3>
800017ea:	85a2                	mv	a1,s0
800017ec:	2dd020ef          	jal	ra,800042c8 <__mulsf3>
800017f0:	8daa                	mv	s11,a0
E:\VMshare\e203\zhengdian_E203\sdk\whetstone\Release/../application/whets.c:497
    *x = t * (*x + *y);
800017f2:	85aa                	mv	a1,a0
800017f4:	855e                	mv	a0,s7
800017f6:	414020ef          	jal	ra,80003c0a <__addsf3>
800017fa:	85ea                	mv	a1,s10
800017fc:	2cd020ef          	jal	ra,800042c8 <__mulsf3>
E:\VMshare\e203\zhengdian_E203\sdk\whetstone\Release/../application/whets.c:498
    *y = t1 * (*x + *y);
80001800:	85ee                	mv	a1,s11
E:\VMshare\e203\zhengdian_E203\sdk\whetstone\Release/../application/whets.c:497
    *x = t * (*x + *y);
80001802:	8c2a                	mv	s8,a0
E:\VMshare\e203\zhengdian_E203\sdk\whetstone\Release/../application/whets.c:498
    *y = t1 * (*x + *y);
80001804:	406020ef          	jal	ra,80003c0a <__addsf3>
80001808:	85a6                	mv	a1,s1
8000180a:	2bf020ef          	jal	ra,800042c8 <__mulsf3>
8000180e:	892a                	mv	s2,a0
E:\VMshare\e203\zhengdian_E203\sdk\whetstone\Release/../application/whets.c:499
    *z = (*x + *y) / t2;
80001810:	85aa                	mv	a1,a0
80001812:	8562                	mv	a0,s8
80001814:	3f6020ef          	jal	ra,80003c0a <__addsf3>
80001818:	85a2                	mv	a1,s0
8000181a:	2af020ef          	jal	ra,800042c8 <__mulsf3>
E:\VMshare\e203\zhengdian_E203\sdk\whetstone\Release/../application/whets.c:497
    *x = t * (*x + *y);
8000181e:	85aa                	mv	a1,a0
E:\VMshare\e203\zhengdian_E203\sdk\whetstone\Release/../application/whets.c:499
    *z = (*x + *y) / t2;
80001820:	8baa                	mv	s7,a0
E:\VMshare\e203\zhengdian_E203\sdk\whetstone\Release/../application/whets.c:497
    *x = t * (*x + *y);
80001822:	854a                	mv	a0,s2
80001824:	3e6020ef          	jal	ra,80003c0a <__addsf3>
80001828:	85ea                	mv	a1,s10
8000182a:	29f020ef          	jal	ra,800042c8 <__mulsf3>
E:\VMshare\e203\zhengdian_E203\sdk\whetstone\Release/../application/whets.c:498
    *y = t1 * (*x + *y);
8000182e:	85de                	mv	a1,s7
E:\VMshare\e203\zhengdian_E203\sdk\whetstone\Release/../application/whets.c:497
    *x = t * (*x + *y);
80001830:	8daa                	mv	s11,a0
E:\VMshare\e203\zhengdian_E203\sdk\whetstone\Release/../application/whets.c:498
    *y = t1 * (*x + *y);
80001832:	3d8020ef          	jal	ra,80003c0a <__addsf3>
80001836:	85a6                	mv	a1,s1
80001838:	291020ef          	jal	ra,800042c8 <__mulsf3>
E:\VMshare\e203\zhengdian_E203\sdk\whetstone\Release/../application/whets.c:499
    *z = (*x + *y) / t2;
8000183c:	85aa                	mv	a1,a0
E:\VMshare\e203\zhengdian_E203\sdk\whetstone\Release/../application/whets.c:498
    *y = t1 * (*x + *y);
8000183e:	892a                	mv	s2,a0
E:\VMshare\e203\zhengdian_E203\sdk\whetstone\Release/../application/whets.c:499
    *z = (*x + *y) / t2;
80001840:	856e                	mv	a0,s11
80001842:	3c8020ef          	jal	ra,80003c0a <__addsf3>
80001846:	85a2                	mv	a1,s0
80001848:	281020ef          	jal	ra,800042c8 <__mulsf3>
whetstones():
E:\VMshare\e203\zhengdian_E203\sdk\whetstone\Release/../application/whets.c:427
            for (i = 0; i < n6; i++) {
8000184c:	1cf1                	addi	s9,s9,-4
p3():
E:\VMshare\e203\zhengdian_E203\sdk\whetstone\Release/../application/whets.c:499
    *z = (*x + *y) / t2;
8000184e:	8c2a                	mv	s8,a0
whetstones():
E:\VMshare\e203\zhengdian_E203\sdk\whetstone\Release/../application/whets.c:427
            for (i = 0; i < n6; i++) {
80001850:	f40c93e3          	bnez	s9,80001796 <whetstones.constprop.0+0xc68>
E:\VMshare\e203\zhengdian_E203\sdk\whetstone\Release/../application/whets.c:426
        for (ix = 0; ix < xtra; ix++) {
80001854:	0985                	addi	s3,s3,1
80001856:	f33a1ee3          	bne	s4,s3,80001792 <whetstones.constprop.0+0xc64>
E:\VMshare\e203\zhengdian_E203\sdk\whetstone\Release/../application/whets.c:432
    end_time();
8000185a:	a9aff0ef          	jal	ra,80000af4 <end_time>
pout():
E:\VMshare\e203\zhengdian_E203\sdk\whetstone\Release/../application/whets.c:508
    Check = Check + checknum;
8000185e:	9e818d13          	addi	s10,gp,-1560 # 900003b8 <Check>
80001862:	000d2503          	lw	a0,0(s10)
whetstones():
E:\VMshare\e203\zhengdian_E203\sdk\whetstone\Release/../application/whets.c:433
    pout("N6 floating point\0", (float)(n6 * 6) * (float)(xtra), 1, z, secs,
80001866:	9dc18313          	addi	t1,gp,-1572 # 900003ac <secs>
pout():
E:\VMshare\e203\zhengdian_E203\sdk\whetstone\Release/../application/whets.c:508
    Check = Check + checknum;
8000186a:	85e2                	mv	a1,s8
whetstones():
E:\VMshare\e203\zhengdian_E203\sdk\whetstone\Release/../application/whets.c:433
    pout("N6 floating point\0", (float)(n6 * 6) * (float)(xtra), 1, z, secs,
8000186c:	00032a83          	lw	s5,0(t1)
pout():
E:\VMshare\e203\zhengdian_E203\sdk\whetstone\Release/../application/whets.c:508
    Check = Check + checknum;
80001870:	39a020ef          	jal	ra,80003c0a <__addsf3>
E:\VMshare\e203\zhengdian_E203\sdk\whetstone\Release/../application/whets.c:510
    strcpy(headings[section], title);
80001874:	050b2803          	lw	a6,80(s6)
80001878:	054b2e83          	lw	t4,84(s6)
8000187c:	058b2e03          	lw	t3,88(s6)
80001880:	05cb2283          	lw	t0,92(s6)
80001884:	060b5383          	lhu	t2,96(s6)
E:\VMshare\e203\zhengdian_E203\sdk\whetstone\Release/../application/whets.c:511
    TimeUsed = TimeUsed + time;
80001888:	9ec18493          	addi	s1,gp,-1556 # 900003bc <TimeUsed>
E:\VMshare\e203\zhengdian_E203\sdk\whetstone\Release/../application/whets.c:508
    Check = Check + checknum;
8000188c:	8faa                	mv	t6,a0
E:\VMshare\e203\zhengdian_E203\sdk\whetstone\Release/../application/whets.c:511
    TimeUsed = TimeUsed + time;
8000188e:	4088                	lw	a0,0(s1)
E:\VMshare\e203\zhengdian_E203\sdk\whetstone\Release/../application/whets.c:510
    strcpy(headings[section], title);
80001890:	a9c18693          	addi	a3,gp,-1380 # 9000046c <headings>
E:\VMshare\e203\zhengdian_E203\sdk\whetstone\Release/../application/whets.c:509
    loop_time[section] = time;
80001894:	b4018613          	addi	a2,gp,-1216 # 90000510 <loop_time>
E:\VMshare\e203\zhengdian_E203\sdk\whetstone\Release/../application/whets.c:511
    TimeUsed = TimeUsed + time;
80001898:	85d6                	mv	a1,s5
E:\VMshare\e203\zhengdian_E203\sdk\whetstone\Release/../application/whets.c:508
    Check = Check + checknum;
8000189a:	01fd2023          	sw	t6,0(s10)
E:\VMshare\e203\zhengdian_E203\sdk\whetstone\Release/../application/whets.c:509
    loop_time[section] = time;
8000189e:	01562c23          	sw	s5,24(a2)
E:\VMshare\e203\zhengdian_E203\sdk\whetstone\Release/../application/whets.c:510
    strcpy(headings[section], title);
800018a2:	0706a623          	sw	a6,108(a3) # c20006c <__stack_size+0xc1ff86c>
800018a6:	07d6a823          	sw	t4,112(a3)
800018aa:	07c6aa23          	sw	t3,116(a3)
800018ae:	0656ac23          	sw	t0,120(a3)
800018b2:	06769e23          	sh	t2,124(a3)
E:\VMshare\e203\zhengdian_E203\sdk\whetstone\Release/../application/whets.c:511
    TimeUsed = TimeUsed + time;
800018b6:	354020ef          	jal	ra,80003c0a <__addsf3>
E:\VMshare\e203\zhengdian_E203\sdk\whetstone\Release/../application/whets.c:512
    if (calibrate == 1)
800018ba:	45d2                	lw	a1,20(sp)
E:\VMshare\e203\zhengdian_E203\sdk\whetstone\Release/../application/whets.c:511
    TimeUsed = TimeUsed + time;
800018bc:	c088                	sw	a0,0(s1)
E:\VMshare\e203\zhengdian_E203\sdk\whetstone\Release/../application/whets.c:512
    if (calibrate == 1)
800018be:	4505                	li	a0,1
800018c0:	5ca58a63          	beq	a1,a0,80001e94 <whetstones.constprop.0+0x1366>
E:\VMshare\e203\zhengdian_E203\sdk\whetstone\Release/../application/whets.c:517
    if (calibrate == 0) {
800018c4:	40d2                	lw	ra,20(sp)
800018c6:	5c008c63          	beqz	ra,80001e9e <whetstones.constprop.0+0x1370>
whetstones():
E:\VMshare\e203\zhengdian_E203\sdk\whetstone\Release/../application/whets.c:443
    start_time();
800018ca:	9f8ff0ef          	jal	ra,80000ac2 <start_time>
E:\VMshare\e203\zhengdian_E203\sdk\whetstone\Release/../application/whets.c:445
        for (ix = 0; ix < xtra; ix++) {
800018ce:	43405163          	blez	s4,80001cf0 <whetstones.constprop.0+0x11c2>
E:\VMshare\e203\zhengdian_E203\sdk\whetstone\Release/../application/whets.c:442
    e1[2] = 3.0;
800018d2:	0ffff417          	auipc	s0,0xffff
800018d6:	97242403          	lw	s0,-1678(s0) # 90000244 <_impure_ptr+0x68>
E:\VMshare\e203\zhengdian_E203\sdk\whetstone\Release/../application/whets.c:441
    e1[1] = 2.0;
800018da:	0fffff17          	auipc	t5,0xffff
800018de:	96ef2f03          	lw	t5,-1682(t5) # 90000248 <_impure_ptr+0x6c>
E:\VMshare\e203\zhengdian_E203\sdk\whetstone\Release/../application/whets.c:445
        for (ix = 0; ix < xtra; ix++) {
800018e2:	4c01                	li	s8,0
800018e4:	63bd                	lui	t2,0xf
E:\VMshare\e203\zhengdian_E203\sdk\whetstone\Release/../application/whets.c:446
            for (i = 0; i < n7; i++) {
800018e6:	09d38913          	addi	s2,t2,157 # f09d <__stack_size+0xe89d>
800018ea:	a021                	j	800018f2 <whetstones.constprop.0+0xdc4>
800018ec:	847a                	mv	s0,t5
800018ee:	195d                	addi	s2,s2,-9
800018f0:	8f32                	mv	t5,a2
800018f2:	fff90093          	addi	ra,s2,-1
800018f6:	8622                	mv	a2,s0
800018f8:	fe009ae3          	bnez	ra,800018ec <whetstones.constprop.0+0xdbe>
E:\VMshare\e203\zhengdian_E203\sdk\whetstone\Release/../application/whets.c:445
        for (ix = 0; ix < xtra; ix++) {
800018fc:	0c05                	addi	s8,s8,1
800018fe:	ff8a14e3          	bne	s4,s8,800018e6 <whetstones.constprop.0+0xdb8>
E:\VMshare\e203\zhengdian_E203\sdk\whetstone\Release/../application/whets.c:451
    end_time();
80001902:	9f2ff0ef          	jal	ra,80000af4 <end_time>
pout():
E:\VMshare\e203\zhengdian_E203\sdk\whetstone\Release/../application/whets.c:508
    Check = Check + checknum;
80001906:	9e818b93          	addi	s7,gp,-1560 # 900003b8 <Check>
8000190a:	000ba503          	lw	a0,0(s7)
whetstones():
E:\VMshare\e203\zhengdian_E203\sdk\whetstone\Release/../application/whets.c:452
    pout("N7 assignments   \0", (float)(n7 * 3) * (float)(xtra), 2, e1[2], secs,
8000190e:	9dc18713          	addi	a4,gp,-1572 # 900003ac <secs>
pout():
E:\VMshare\e203\zhengdian_E203\sdk\whetstone\Release/../application/whets.c:508
    Check = Check + checknum;
80001912:	85a2                	mv	a1,s0
whetstones():
E:\VMshare\e203\zhengdian_E203\sdk\whetstone\Release/../application/whets.c:452
    pout("N7 assignments   \0", (float)(n7 * 3) * (float)(xtra), 2, e1[2], secs,
80001914:	00072a83          	lw	s5,0(a4)
pout():
E:\VMshare\e203\zhengdian_E203\sdk\whetstone\Release/../application/whets.c:508
    Check = Check + checknum;
80001918:	2f2020ef          	jal	ra,80003c0a <__addsf3>
E:\VMshare\e203\zhengdian_E203\sdk\whetstone\Release/../application/whets.c:510
    strcpy(headings[section], title);
8000191c:	080b5883          	lhu	a7,128(s6)
80001920:	082b5303          	lhu	t1,130(s6)
80001924:	084b5683          	lhu	a3,132(s6)
80001928:	086b5f83          	lhu	t6,134(s6)
8000192c:	088b5783          	lhu	a5,136(s6)
E:\VMshare\e203\zhengdian_E203\sdk\whetstone\Release/../application/whets.c:511
    TimeUsed = TimeUsed + time;
80001930:	9ec18913          	addi	s2,gp,-1556 # 900003bc <TimeUsed>
E:\VMshare\e203\zhengdian_E203\sdk\whetstone\Release/../application/whets.c:510
    strcpy(headings[section], title);
80001934:	078b5d83          	lhu	s11,120(s6)
80001938:	07ab5c83          	lhu	s9,122(s6)
8000193c:	07cb5d03          	lhu	s10,124(s6)
80001940:	07eb5983          	lhu	s3,126(s6)
E:\VMshare\e203\zhengdian_E203\sdk\whetstone\Release/../application/whets.c:508
    Check = Check + checknum;
80001944:	8f2a                	mv	t5,a0
E:\VMshare\e203\zhengdian_E203\sdk\whetstone\Release/../application/whets.c:511
    TimeUsed = TimeUsed + time;
80001946:	00092503          	lw	a0,0(s2)
E:\VMshare\e203\zhengdian_E203\sdk\whetstone\Release/../application/whets.c:510
    strcpy(headings[section], title);
8000194a:	a9c18e93          	addi	t4,gp,-1380 # 9000046c <headings>
E:\VMshare\e203\zhengdian_E203\sdk\whetstone\Release/../application/whets.c:509
    loop_time[section] = time;
8000194e:	b4018813          	addi	a6,gp,-1216 # 90000510 <loop_time>
E:\VMshare\e203\zhengdian_E203\sdk\whetstone\Release/../application/whets.c:511
    TimeUsed = TimeUsed + time;
80001952:	85d6                	mv	a1,s5
E:\VMshare\e203\zhengdian_E203\sdk\whetstone\Release/../application/whets.c:508
    Check = Check + checknum;
80001954:	01eba023          	sw	t5,0(s7)
E:\VMshare\e203\zhengdian_E203\sdk\whetstone\Release/../application/whets.c:509
    loop_time[section] = time;
80001958:	01582e23          	sw	s5,28(a6)
E:\VMshare\e203\zhengdian_E203\sdk\whetstone\Release/../application/whets.c:510
    strcpy(headings[section], title);
8000195c:	07be9f23          	sh	s11,126(t4)
80001960:	099e9023          	sh	s9,128(t4)
80001964:	09ae9123          	sh	s10,130(t4)
80001968:	093e9223          	sh	s3,132(t4)
8000196c:	091e9323          	sh	a7,134(t4)
80001970:	086e9423          	sh	t1,136(t4)
80001974:	08de9523          	sh	a3,138(t4)
80001978:	09fe9623          	sh	t6,140(t4)
8000197c:	08fe9723          	sh	a5,142(t4)
E:\VMshare\e203\zhengdian_E203\sdk\whetstone\Release/../application/whets.c:511
    TimeUsed = TimeUsed + time;
80001980:	28a020ef          	jal	ra,80003c0a <__addsf3>
80001984:	00a92023          	sw	a0,0(s2)
E:\VMshare\e203\zhengdian_E203\sdk\whetstone\Release/../application/whets.c:512
    if (calibrate == 1)
80001988:	4552                	lw	a0,20(sp)
8000198a:	4585                	li	a1,1
8000198c:	4eb50f63          	beq	a0,a1,80001e8a <whetstones.constprop.0+0x135c>
E:\VMshare\e203\zhengdian_E203\sdk\whetstone\Release/../application/whets.c:517
    if (calibrate == 0) {
80001990:	3e050c63          	beqz	a0,80001d88 <whetstones.constprop.0+0x125a>
whetstones():
E:\VMshare\e203\zhengdian_E203\sdk\whetstone\Release/../application/whets.c:457
    start_time();
80001994:	92eff0ef          	jal	ra,80000ac2 <start_time>
E:\VMshare\e203\zhengdian_E203\sdk\whetstone\Release/../application/whets.c:456
    x = 0.75;
80001998:	0ffff497          	auipc	s1,0xffff
8000199c:	8b44a483          	lw	s1,-1868(s1) # 9000024c <_impure_ptr+0x70>
E:\VMshare\e203\zhengdian_E203\sdk\whetstone\Release/../application/whets.c:459
        for (ix = 0; ix < xtra; ix++) {
800019a0:	4b81                	li	s7,0
800019a2:	6c09                	lui	s8,0x2
E:\VMshare\e203\zhengdian_E203\sdk\whetstone\Release/../application/whets.c:461
                x = sqrt(exp(log(x) / t1));
800019a4:	0ffff417          	auipc	s0,0xffff
800019a8:	8d442403          	lw	s0,-1836(s0) # 90000278 <_impure_ptr+0x9c>
E:\VMshare\e203\zhengdian_E203\sdk\whetstone\Release/../application/whets.c:459
        for (ix = 0; ix < xtra; ix++) {
800019ac:	454c0a93          	addi	s5,s8,1108 # 2454 <__stack_size+0x1c54>
E:\VMshare\e203\zhengdian_E203\sdk\whetstone\Release/../application/whets.c:461
                x = sqrt(exp(log(x) / t1));
800019b0:	8526                	mv	a0,s1
800019b2:	305000ef          	jal	ra,800024b6 <logf>
800019b6:	85a2                	mv	a1,s0
800019b8:	578020ef          	jal	ra,80003f30 <__divsf3>
800019bc:	285000ef          	jal	ra,80002440 <expf>
800019c0:	373000ef          	jal	ra,80002532 <sqrtf>
800019c4:	2f3000ef          	jal	ra,800024b6 <logf>
800019c8:	85a2                	mv	a1,s0
800019ca:	566020ef          	jal	ra,80003f30 <__divsf3>
800019ce:	273000ef          	jal	ra,80002440 <expf>
800019d2:	361000ef          	jal	ra,80002532 <sqrtf>
800019d6:	2e1000ef          	jal	ra,800024b6 <logf>
800019da:	85a2                	mv	a1,s0
800019dc:	554020ef          	jal	ra,80003f30 <__divsf3>
800019e0:	261000ef          	jal	ra,80002440 <expf>
800019e4:	34f000ef          	jal	ra,80002532 <sqrtf>
800019e8:	2cf000ef          	jal	ra,800024b6 <logf>
800019ec:	85a2                	mv	a1,s0
800019ee:	542020ef          	jal	ra,80003f30 <__divsf3>
800019f2:	24f000ef          	jal	ra,80002440 <expf>
800019f6:	33d000ef          	jal	ra,80002532 <sqrtf>
800019fa:	2bd000ef          	jal	ra,800024b6 <logf>
800019fe:	85a2                	mv	a1,s0
80001a00:	530020ef          	jal	ra,80003f30 <__divsf3>
80001a04:	23d000ef          	jal	ra,80002440 <expf>
80001a08:	32b000ef          	jal	ra,80002532 <sqrtf>
80001a0c:	2ab000ef          	jal	ra,800024b6 <logf>
80001a10:	85a2                	mv	a1,s0
80001a12:	51e020ef          	jal	ra,80003f30 <__divsf3>
80001a16:	22b000ef          	jal	ra,80002440 <expf>
80001a1a:	319000ef          	jal	ra,80002532 <sqrtf>
80001a1e:	299000ef          	jal	ra,800024b6 <logf>
80001a22:	85a2                	mv	a1,s0
80001a24:	50c020ef          	jal	ra,80003f30 <__divsf3>
80001a28:	219000ef          	jal	ra,80002440 <expf>
80001a2c:	307000ef          	jal	ra,80002532 <sqrtf>
80001a30:	287000ef          	jal	ra,800024b6 <logf>
80001a34:	85a2                	mv	a1,s0
80001a36:	4fa020ef          	jal	ra,80003f30 <__divsf3>
80001a3a:	207000ef          	jal	ra,80002440 <expf>
80001a3e:	2f5000ef          	jal	ra,80002532 <sqrtf>
80001a42:	275000ef          	jal	ra,800024b6 <logf>
80001a46:	85a2                	mv	a1,s0
80001a48:	4e8020ef          	jal	ra,80003f30 <__divsf3>
80001a4c:	1f5000ef          	jal	ra,80002440 <expf>
80001a50:	2e3000ef          	jal	ra,80002532 <sqrtf>
80001a54:	263000ef          	jal	ra,800024b6 <logf>
80001a58:	85a2                	mv	a1,s0
80001a5a:	4d6020ef          	jal	ra,80003f30 <__divsf3>
80001a5e:	1e3000ef          	jal	ra,80002440 <expf>
80001a62:	2d1000ef          	jal	ra,80002532 <sqrtf>
E:\VMshare\e203\zhengdian_E203\sdk\whetstone\Release/../application/whets.c:460
            for (i = 0; i < n8; i++) {
80001a66:	1ad9                	addi	s5,s5,-10
E:\VMshare\e203\zhengdian_E203\sdk\whetstone\Release/../application/whets.c:461
                x = sqrt(exp(log(x) / t1));
80001a68:	84aa                	mv	s1,a0
E:\VMshare\e203\zhengdian_E203\sdk\whetstone\Release/../application/whets.c:460
            for (i = 0; i < n8; i++) {
80001a6a:	f40a93e3          	bnez	s5,800019b0 <whetstones.constprop.0+0xe82>
E:\VMshare\e203\zhengdian_E203\sdk\whetstone\Release/../application/whets.c:459
        for (ix = 0; ix < xtra; ix++) {
80001a6e:	0b85                	addi	s7,s7,1
80001a70:	f34bcee3          	blt	s7,s4,800019ac <whetstones.constprop.0+0xe7e>
E:\VMshare\e203\zhengdian_E203\sdk\whetstone\Release/../application/whets.c:465
    end_time();
80001a74:	880ff0ef          	jal	ra,80000af4 <end_time>
pout():
E:\VMshare\e203\zhengdian_E203\sdk\whetstone\Release/../application/whets.c:508
    Check = Check + checknum;
80001a78:	9e818d93          	addi	s11,gp,-1560 # 900003b8 <Check>
80001a7c:	000da503          	lw	a0,0(s11)
whetstones():
E:\VMshare\e203\zhengdian_E203\sdk\whetstone\Release/../application/whets.c:466
    pout("N8 exp,sqrt etc. \0", (float)(n8 * 4) * (float)(xtra), 2, x, secs,
80001a80:	9dc18313          	addi	t1,gp,-1572 # 900003ac <secs>
pout():
E:\VMshare\e203\zhengdian_E203\sdk\whetstone\Release/../application/whets.c:508
    Check = Check + checknum;
80001a84:	85a6                	mv	a1,s1
whetstones():
E:\VMshare\e203\zhengdian_E203\sdk\whetstone\Release/../application/whets.c:466
    pout("N8 exp,sqrt etc. \0", (float)(n8 * 4) * (float)(xtra), 2, x, secs,
80001a86:	00032c83          	lw	s9,0(t1)
pout():
E:\VMshare\e203\zhengdian_E203\sdk\whetstone\Release/../application/whets.c:508
    Check = Check + checknum;
80001a8a:	180020ef          	jal	ra,80003c0a <__addsf3>
E:\VMshare\e203\zhengdian_E203\sdk\whetstone\Release/../application/whets.c:510
    strcpy(headings[section], title);
80001a8e:	064b2803          	lw	a6,100(s6)
80001a92:	068b2e83          	lw	t4,104(s6)
80001a96:	06cb2683          	lw	a3,108(s6)
80001a9a:	070b2703          	lw	a4,112(s6)
80001a9e:	074b5783          	lhu	a5,116(s6)
E:\VMshare\e203\zhengdian_E203\sdk\whetstone\Release/../application/whets.c:511
    TimeUsed = TimeUsed + time;
80001aa2:	9ec18a13          	addi	s4,gp,-1556 # 900003bc <TimeUsed>
E:\VMshare\e203\zhengdian_E203\sdk\whetstone\Release/../application/whets.c:508
    Check = Check + checknum;
80001aa6:	8faa                	mv	t6,a0
E:\VMshare\e203\zhengdian_E203\sdk\whetstone\Release/../application/whets.c:511
    TimeUsed = TimeUsed + time;
80001aa8:	000a2503          	lw	a0,0(s4)
E:\VMshare\e203\zhengdian_E203\sdk\whetstone\Release/../application/whets.c:510
    strcpy(headings[section], title);
80001aac:	a9c18293          	addi	t0,gp,-1380 # 9000046c <headings>
E:\VMshare\e203\zhengdian_E203\sdk\whetstone\Release/../application/whets.c:509
    loop_time[section] = time;
80001ab0:	b4018e13          	addi	t3,gp,-1216 # 90000510 <loop_time>
E:\VMshare\e203\zhengdian_E203\sdk\whetstone\Release/../application/whets.c:511
    TimeUsed = TimeUsed + time;
80001ab4:	85e6                	mv	a1,s9
E:\VMshare\e203\zhengdian_E203\sdk\whetstone\Release/../application/whets.c:508
    Check = Check + checknum;
80001ab6:	01fda023          	sw	t6,0(s11)
E:\VMshare\e203\zhengdian_E203\sdk\whetstone\Release/../application/whets.c:509
    loop_time[section] = time;
80001aba:	039e2023          	sw	s9,32(t3)
E:\VMshare\e203\zhengdian_E203\sdk\whetstone\Release/../application/whets.c:510
    strcpy(headings[section], title);
80001abe:	0902a823          	sw	a6,144(t0)
80001ac2:	09d2aa23          	sw	t4,148(t0)
80001ac6:	08d2ac23          	sw	a3,152(t0)
80001aca:	08e2ae23          	sw	a4,156(t0)
80001ace:	0af29023          	sh	a5,160(t0)
E:\VMshare\e203\zhengdian_E203\sdk\whetstone\Release/../application/whets.c:511
    TimeUsed = TimeUsed + time;
80001ad2:	138020ef          	jal	ra,80003c0a <__addsf3>
80001ad6:	00aa2023          	sw	a0,0(s4)
E:\VMshare\e203\zhengdian_E203\sdk\whetstone\Release/../application/whets.c:512
    if (calibrate == 1)
80001ada:	4552                	lw	a0,20(sp)
80001adc:	4585                	li	a1,1
80001ade:	08b50f63          	beq	a0,a1,80001b7c <whetstones.constprop.0+0x104e>
E:\VMshare\e203\zhengdian_E203\sdk\whetstone\Release/../application/whets.c:517
    if (calibrate == 0) {
80001ae2:	e14d                	bnez	a0,80001b84 <whetstones.constprop.0+0x1056>
whetstones():
E:\VMshare\e203\zhengdian_E203\sdk\whetstone\Release/../application/whets.c:466
    pout("N8 exp,sqrt etc. \0", (float)(n8 * 4) * (float)(xtra), 2, x, secs,
80001ae4:	4562                	lw	a0,24(sp)
80001ae6:	0fffe597          	auipc	a1,0xfffe
80001aea:	79e5a583          	lw	a1,1950(a1) # 90000284 <_impure_ptr+0xa8>
80001aee:	b6418c13          	addi	s8,gp,-1180 # 90000534 <results>
80001af2:	7d6020ef          	jal	ra,800042c8 <__mulsf3>
80001af6:	8aaa                	mv	s5,a0
pout():
E:\VMshare\e203\zhengdian_E203\sdk\whetstone\Release/../application/whets.c:518
        printf("%s %20.17f    ", headings[section], results[section]);
80001af8:	020c2503          	lw	a0,32(s8)
80001afc:	7e1020ef          	jal	ra,80004adc <__extendsfdf2>
80001b00:	862a                	mv	a2,a0
80001b02:	86ae                	mv	a3,a1
80001b04:	00008517          	auipc	a0,0x8
80001b08:	f8c50513          	addi	a0,a0,-116 # 80009a90 <__trunctfdf2+0x308>
80001b0c:	b2c18593          	addi	a1,gp,-1236 # 900004fc <headings+0x90>
80001b10:	389030ef          	jal	ra,80005698 <iprintf>
E:\VMshare\e203\zhengdian_E203\sdk\whetstone\Release/../application/whets.c:531
            if (time > 0) {
80001b14:	00000593          	li	a1,0
80001b18:	8566                	mv	a0,s9
80001b1a:	6be020ef          	jal	ra,800041d8 <__gesf2>
80001b1e:	40a05e63          	blez	a0,80001f3a <whetstones.constprop.0+0x140c>
E:\VMshare\e203\zhengdian_E203\sdk\whetstone\Release/../application/whets.c:532
                mops = ops / (1000000L * time);
80001b22:	0fffe597          	auipc	a1,0xfffe
80001b26:	7365a583          	lw	a1,1846(a1) # 90000258 <_impure_ptr+0x7c>
80001b2a:	8566                	mv	a0,s9
80001b2c:	79c020ef          	jal	ra,800042c8 <__mulsf3>
80001b30:	85aa                	mv	a1,a0
80001b32:	8556                	mv	a0,s5
80001b34:	3fc020ef          	jal	ra,80003f30 <__divsf3>
E:\VMshare\e203\zhengdian_E203\sdk\whetstone\Release/../application/whets.c:538
            printf("           %9.3f%9.3f\n", loop_mops[section],
80001b38:	7a5020ef          	jal	ra,80004adc <__extendsfdf2>
80001b3c:	84aa                	mv	s1,a0
80001b3e:	8cae                	mv	s9,a1
80001b40:	b4018093          	addi	ra,gp,-1216 # 90000510 <loop_time>
80001b44:	0200a503          	lw	a0,32(ra)
80001b48:	795020ef          	jal	ra,80004adc <__extendsfdf2>
whetstones():
E:\VMshare\e203\zhengdian_E203\sdk\whetstone\Release/../application/whets.c:470
}
80001b4c:	4466                	lw	s0,88(sp)
80001b4e:	40f6                	lw	ra,92(sp)
80001b50:	4946                	lw	s2,80(sp)
80001b52:	49b6                	lw	s3,76(sp)
80001b54:	4a26                	lw	s4,72(sp)
80001b56:	4a96                	lw	s5,68(sp)
80001b58:	4b06                	lw	s6,64(sp)
80001b5a:	5bf2                	lw	s7,60(sp)
80001b5c:	5c62                	lw	s8,56(sp)
80001b5e:	5d42                	lw	s10,48(sp)
80001b60:	5db2                	lw	s11,44(sp)
pout():
E:\VMshare\e203\zhengdian_E203\sdk\whetstone\Release/../application/whets.c:538
            printf("           %9.3f%9.3f\n", loop_mops[section],
80001b62:	8626                	mv	a2,s1
80001b64:	86e6                	mv	a3,s9
whetstones():
E:\VMshare\e203\zhengdian_E203\sdk\whetstone\Release/../application/whets.c:470
}
80001b66:	44d6                	lw	s1,84(sp)
80001b68:	5cd2                	lw	s9,52(sp)
pout():
E:\VMshare\e203\zhengdian_E203\sdk\whetstone\Release/../application/whets.c:538
            printf("           %9.3f%9.3f\n", loop_mops[section],
80001b6a:	872a                	mv	a4,a0
80001b6c:	87ae                	mv	a5,a1
80001b6e:	00008517          	auipc	a0,0x8
80001b72:	f4a50513          	addi	a0,a0,-182 # 80009ab8 <__trunctfdf2+0x330>
whetstones():
E:\VMshare\e203\zhengdian_E203\sdk\whetstone\Release/../application/whets.c:470
}
80001b76:	6125                	addi	sp,sp,96
pout():
E:\VMshare\e203\zhengdian_E203\sdk\whetstone\Release/../application/whets.c:538
            printf("           %9.3f%9.3f\n", loop_mops[section],
80001b78:	3210306f          	j	80005698 <iprintf>
80001b7c:	b6418c93          	addi	s9,gp,-1180 # 90000534 <results>
E:\VMshare\e203\zhengdian_E203\sdk\whetstone\Release/../application/whets.c:515
        results[section] = checknum;
80001b80:	029ca023          	sw	s1,32(s9)
whetstones():
E:\VMshare\e203\zhengdian_E203\sdk\whetstone\Release/../application/whets.c:470
}
80001b84:	40f6                	lw	ra,92(sp)
80001b86:	4466                	lw	s0,88(sp)
80001b88:	44d6                	lw	s1,84(sp)
80001b8a:	4946                	lw	s2,80(sp)
80001b8c:	49b6                	lw	s3,76(sp)
80001b8e:	4a26                	lw	s4,72(sp)
80001b90:	4a96                	lw	s5,68(sp)
80001b92:	4b06                	lw	s6,64(sp)
80001b94:	5bf2                	lw	s7,60(sp)
80001b96:	5c62                	lw	s8,56(sp)
80001b98:	5cd2                	lw	s9,52(sp)
80001b9a:	5d42                	lw	s10,48(sp)
80001b9c:	5db2                	lw	s11,44(sp)
80001b9e:	6125                	addi	sp,sp,96
80001ba0:	8082                	ret
pout():
E:\VMshare\e203\zhengdian_E203\sdk\whetstone\Release/../application/whets.c:515
        results[section] = checknum;
80001ba2:	46f2                	lw	a3,28(sp)
80001ba4:	b6d1a823          	sw	a3,-1168(gp) # 90000540 <results+0xc>
E:\VMshare\e203\zhengdian_E203\sdk\whetstone\Release/../application/whets.c:517
    if (calibrate == 0) {
80001ba8:	e72ff06f          	j	8000121a <whetstones.constprop.0+0x6ec>
E:\VMshare\e203\zhengdian_E203\sdk\whetstone\Release/../application/whets.c:515
        results[section] = checknum;
80001bac:	b691a623          	sw	s1,-1172(gp) # 9000053c <results+0x8>
E:\VMshare\e203\zhengdian_E203\sdk\whetstone\Release/../application/whets.c:517
    if (calibrate == 0) {
80001bb0:	d56ff06f          	j	80001106 <whetstones.constprop.0+0x5d8>
E:\VMshare\e203\zhengdian_E203\sdk\whetstone\Release/../application/whets.c:515
        results[section] = checknum;
80001bb4:	b691a423          	sw	s1,-1176(gp) # 90000538 <results+0x4>
E:\VMshare\e203\zhengdian_E203\sdk\whetstone\Release/../application/whets.c:517
    if (calibrate == 0) {
80001bb8:	98eff06f          	j	80000d46 <whetstones.constprop.0+0x218>
E:\VMshare\e203\zhengdian_E203\sdk\whetstone\Release/../application/whets.c:515
        results[section] = checknum;
80001bbc:	b681ac23          	sw	s0,-1160(gp) # 90000548 <results+0x14>
whetstones():
E:\VMshare\e203\zhengdian_E203\sdk\whetstone\Release/../application/whets.c:424
    start_time();
80001bc0:	f03fe0ef          	jal	ra,80000ac2 <start_time>
E:\VMshare\e203\zhengdian_E203\sdk\whetstone\Release/../application/whets.c:426
        for (ix = 0; ix < xtra; ix++) {
80001bc4:	b67d                	j	80001772 <whetstones.constprop.0+0xc44>
pout():
E:\VMshare\e203\zhengdian_E203\sdk\whetstone\Release/../application/whets.c:515
        results[section] = checknum;
80001bc6:	b681aa23          	sw	s0,-1164(gp) # 90000544 <results+0x10>
whetstones():
E:\VMshare\e203\zhengdian_E203\sdk\whetstone\Release/../application/whets.c:402
    start_time();
80001bca:	ef9fe0ef          	jal	ra,80000ac2 <start_time>
E:\VMshare\e203\zhengdian_E203\sdk\whetstone\Release/../application/whets.c:404
        for (ix = 0; ix < xtra; ix++) {
80001bce:	83404ce3          	bgtz	s4,80001406 <whetstones.constprop.0+0x8d8>
E:\VMshare\e203\zhengdian_E203\sdk\whetstone\Release/../application/whets.c:415
    end_time();
80001bd2:	f23fe0ef          	jal	ra,80000af4 <end_time>
pout():
E:\VMshare\e203\zhengdian_E203\sdk\whetstone\Release/../application/whets.c:508
    Check = Check + checknum;
80001bd6:	9e818b93          	addi	s7,gp,-1560 # 900003b8 <Check>
80001bda:	000ba503          	lw	a0,0(s7)
whetstones():
E:\VMshare\e203\zhengdian_E203\sdk\whetstone\Release/../application/whets.c:416
    pout("N5 sin,cos etc.  \0", (float)(n5 * 26) * (float)(xtra), 2, y, secs,
80001bde:	9dc18693          	addi	a3,gp,-1572 # 900003ac <secs>
pout():
E:\VMshare\e203\zhengdian_E203\sdk\whetstone\Release/../application/whets.c:508
    Check = Check + checknum;
80001be2:	0fffe597          	auipc	a1,0xfffe
80001be6:	67a5a583          	lw	a1,1658(a1) # 9000025c <_impure_ptr+0x80>
whetstones():
E:\VMshare\e203\zhengdian_E203\sdk\whetstone\Release/../application/whets.c:416
    pout("N5 sin,cos etc.  \0", (float)(n5 * 26) * (float)(xtra), 2, y, secs,
80001bea:	4284                	lw	s1,0(a3)
pout():
E:\VMshare\e203\zhengdian_E203\sdk\whetstone\Release/../application/whets.c:508
    Check = Check + checknum;
80001bec:	01e020ef          	jal	ra,80003c0a <__addsf3>
E:\VMshare\e203\zhengdian_E203\sdk\whetstone\Release/../application/whets.c:510
    strcpy(headings[section], title);
80001bf0:	08eb5383          	lhu	t2,142(s6)
80001bf4:	092b5303          	lhu	t1,146(s6)
80001bf8:	094b5803          	lhu	a6,148(s6)
80001bfc:	096b5f83          	lhu	t6,150(s6)
80001c00:	098b5603          	lhu	a2,152(s6)
80001c04:	09ab5f03          	lhu	t5,154(s6)
80001c08:	09cb5783          	lhu	a5,156(s6)
E:\VMshare\e203\zhengdian_E203\sdk\whetstone\Release/../application/whets.c:511
    TimeUsed = TimeUsed + time;
80001c0c:	9ec18913          	addi	s2,gp,-1556 # 900003bc <TimeUsed>
E:\VMshare\e203\zhengdian_E203\sdk\whetstone\Release/../application/whets.c:510
    strcpy(headings[section], title);
80001c10:	08cb5d83          	lhu	s11,140(s6)
80001c14:	090b5983          	lhu	s3,144(s6)
E:\VMshare\e203\zhengdian_E203\sdk\whetstone\Release/../application/whets.c:508
    Check = Check + checknum;
80001c18:	8aaa                	mv	s5,a0
E:\VMshare\e203\zhengdian_E203\sdk\whetstone\Release/../application/whets.c:511
    TimeUsed = TimeUsed + time;
80001c1a:	00092503          	lw	a0,0(s2)
E:\VMshare\e203\zhengdian_E203\sdk\whetstone\Release/../application/whets.c:510
    strcpy(headings[section], title);
80001c1e:	a9c18e93          	addi	t4,gp,-1380 # 9000046c <headings>
E:\VMshare\e203\zhengdian_E203\sdk\whetstone\Release/../application/whets.c:509
    loop_time[section] = time;
80001c22:	b4018413          	addi	s0,gp,-1216 # 90000510 <loop_time>
E:\VMshare\e203\zhengdian_E203\sdk\whetstone\Release/../application/whets.c:511
    TimeUsed = TimeUsed + time;
80001c26:	85a6                	mv	a1,s1
E:\VMshare\e203\zhengdian_E203\sdk\whetstone\Release/../application/whets.c:508
    Check = Check + checknum;
80001c28:	015ba023          	sw	s5,0(s7)
E:\VMshare\e203\zhengdian_E203\sdk\whetstone\Release/../application/whets.c:509
    loop_time[section] = time;
80001c2c:	c844                	sw	s1,20(s0)
E:\VMshare\e203\zhengdian_E203\sdk\whetstone\Release/../application/whets.c:510
    strcpy(headings[section], title);
80001c2e:	05be9d23          	sh	s11,90(t4)
80001c32:	047e9e23          	sh	t2,92(t4)
80001c36:	053e9f23          	sh	s3,94(t4)
80001c3a:	066e9023          	sh	t1,96(t4)
80001c3e:	070e9123          	sh	a6,98(t4)
80001c42:	07fe9223          	sh	t6,100(t4)
80001c46:	06ce9323          	sh	a2,102(t4)
80001c4a:	07ee9423          	sh	t5,104(t4)
80001c4e:	06fe9523          	sh	a5,106(t4)
E:\VMshare\e203\zhengdian_E203\sdk\whetstone\Release/../application/whets.c:511
    TimeUsed = TimeUsed + time;
80001c52:	7b9010ef          	jal	ra,80003c0a <__addsf3>
E:\VMshare\e203\zhengdian_E203\sdk\whetstone\Release/../application/whets.c:512
    if (calibrate == 1)
80001c56:	42d2                	lw	t0,20(sp)
E:\VMshare\e203\zhengdian_E203\sdk\whetstone\Release/../application/whets.c:511
    TimeUsed = TimeUsed + time;
80001c58:	00a92023          	sw	a0,0(s2)
E:\VMshare\e203\zhengdian_E203\sdk\whetstone\Release/../application/whets.c:512
    if (calibrate == 1)
80001c5c:	4e05                	li	t3,1
80001c5e:	a1c29be3          	bne	t0,t3,80001674 <whetstones.constprop.0+0xb46>
E:\VMshare\e203\zhengdian_E203\sdk\whetstone\Release/../application/whets.c:515
        results[section] = checknum;
80001c62:	0fffe097          	auipc	ra,0xfffe
80001c66:	5fa0a083          	lw	ra,1530(ra) # 9000025c <_impure_ptr+0x80>
80001c6a:	b6418c93          	addi	s9,gp,-1180 # 90000534 <results>
80001c6e:	001caa23          	sw	ra,20(s9)
E:\VMshare\e203\zhengdian_E203\sdk\whetstone\Release/../application/whets.c:508
    Check = Check + checknum;
80001c72:	9e818c13          	addi	s8,gp,-1560 # 900003b8 <Check>
whetstones():
E:\VMshare\e203\zhengdian_E203\sdk\whetstone\Release/../application/whets.c:424
    start_time();
80001c76:	e4dfe0ef          	jal	ra,80000ac2 <start_time>
E:\VMshare\e203\zhengdian_E203\sdk\whetstone\Release/../application/whets.c:432
    end_time();
80001c7a:	e7bfe0ef          	jal	ra,80000af4 <end_time>
pout():
E:\VMshare\e203\zhengdian_E203\sdk\whetstone\Release/../application/whets.c:508
    Check = Check + checknum;
80001c7e:	000c2503          	lw	a0,0(s8)
80001c82:	0fffe597          	auipc	a1,0xfffe
80001c86:	5b65a583          	lw	a1,1462(a1) # 90000238 <_impure_ptr+0x5c>
whetstones():
E:\VMshare\e203\zhengdian_E203\sdk\whetstone\Release/../application/whets.c:433
    pout("N6 floating point\0", (float)(n6 * 6) * (float)(xtra), 1, z, secs,
80001c8a:	9dc18493          	addi	s1,gp,-1572 # 900003ac <secs>
pout():
E:\VMshare\e203\zhengdian_E203\sdk\whetstone\Release/../application/whets.c:508
    Check = Check + checknum;
80001c8e:	77d010ef          	jal	ra,80003c0a <__addsf3>
whetstones():
E:\VMshare\e203\zhengdian_E203\sdk\whetstone\Release/../application/whets.c:433
    pout("N6 floating point\0", (float)(n6 * 6) * (float)(xtra), 1, z, secs,
80001c92:	0004ad03          	lw	s10,0(s1)
pout():
E:\VMshare\e203\zhengdian_E203\sdk\whetstone\Release/../application/whets.c:510
    strcpy(headings[section], title);
80001c96:	058b2683          	lw	a3,88(s6)
80001c9a:	05cb2703          	lw	a4,92(s6)
E:\VMshare\e203\zhengdian_E203\sdk\whetstone\Release/../application/whets.c:511
    TimeUsed = TimeUsed + time;
80001c9e:	9ec18a93          	addi	s5,gp,-1556 # 900003bc <TimeUsed>
E:\VMshare\e203\zhengdian_E203\sdk\whetstone\Release/../application/whets.c:510
    strcpy(headings[section], title);
80001ca2:	050b2b83          	lw	s7,80(s6)
80001ca6:	054b2d83          	lw	s11,84(s6)
80001caa:	060b5903          	lhu	s2,96(s6)
E:\VMshare\e203\zhengdian_E203\sdk\whetstone\Release/../application/whets.c:508
    Check = Check + checknum;
80001cae:	88aa                	mv	a7,a0
E:\VMshare\e203\zhengdian_E203\sdk\whetstone\Release/../application/whets.c:511
    TimeUsed = TimeUsed + time;
80001cb0:	000aa503          	lw	a0,0(s5)
E:\VMshare\e203\zhengdian_E203\sdk\whetstone\Release/../application/whets.c:510
    strcpy(headings[section], title);
80001cb4:	a9c18993          	addi	s3,gp,-1380 # 9000046c <headings>
E:\VMshare\e203\zhengdian_E203\sdk\whetstone\Release/../application/whets.c:509
    loop_time[section] = time;
80001cb8:	b4018393          	addi	t2,gp,-1216 # 90000510 <loop_time>
E:\VMshare\e203\zhengdian_E203\sdk\whetstone\Release/../application/whets.c:508
    Check = Check + checknum;
80001cbc:	011c2023          	sw	a7,0(s8)
E:\VMshare\e203\zhengdian_E203\sdk\whetstone\Release/../application/whets.c:511
    TimeUsed = TimeUsed + time;
80001cc0:	85ea                	mv	a1,s10
E:\VMshare\e203\zhengdian_E203\sdk\whetstone\Release/../application/whets.c:509
    loop_time[section] = time;
80001cc2:	01a3ac23          	sw	s10,24(t2)
E:\VMshare\e203\zhengdian_E203\sdk\whetstone\Release/../application/whets.c:510
    strcpy(headings[section], title);
80001cc6:	0779a623          	sw	s7,108(s3)
80001cca:	07b9a823          	sw	s11,112(s3)
80001cce:	06d9aa23          	sw	a3,116(s3)
80001cd2:	06e9ac23          	sw	a4,120(s3)
80001cd6:	07299e23          	sh	s2,124(s3)
E:\VMshare\e203\zhengdian_E203\sdk\whetstone\Release/../application/whets.c:511
    TimeUsed = TimeUsed + time;
80001cda:	731010ef          	jal	ra,80003c0a <__addsf3>
whetstones():
E:\VMshare\e203\zhengdian_E203\sdk\whetstone\Release/../application/whets.c:423
    z = 1.0;
80001cde:	4c72                	lw	s8,28(sp)
pout():
E:\VMshare\e203\zhengdian_E203\sdk\whetstone\Release/../application/whets.c:511
    TimeUsed = TimeUsed + time;
80001ce0:	00aaa023          	sw	a0,0(s5)
E:\VMshare\e203\zhengdian_E203\sdk\whetstone\Release/../application/whets.c:515
        results[section] = checknum;
80001ce4:	018cac23          	sw	s8,24(s9)
whetstones():
E:\VMshare\e203\zhengdian_E203\sdk\whetstone\Release/../application/whets.c:443
    start_time();
80001ce8:	ddbfe0ef          	jal	ra,80000ac2 <start_time>
E:\VMshare\e203\zhengdian_E203\sdk\whetstone\Release/../application/whets.c:445
        for (ix = 0; ix < xtra; ix++) {
80001cec:	bf4043e3          	bgtz	s4,800018d2 <whetstones.constprop.0+0xda4>
E:\VMshare\e203\zhengdian_E203\sdk\whetstone\Release/../application/whets.c:451
    end_time();
80001cf0:	e05fe0ef          	jal	ra,80000af4 <end_time>
pout():
E:\VMshare\e203\zhengdian_E203\sdk\whetstone\Release/../application/whets.c:508
    Check = Check + checknum;
80001cf4:	9e818b93          	addi	s7,gp,-1560 # 900003b8 <Check>
80001cf8:	000ba503          	lw	a0,0(s7)
whetstones():
E:\VMshare\e203\zhengdian_E203\sdk\whetstone\Release/../application/whets.c:452
    pout("N7 assignments   \0", (float)(n7 * 3) * (float)(xtra), 2, e1[2], secs,
80001cfc:	9dc18793          	addi	a5,gp,-1572 # 900003ac <secs>
pout():
E:\VMshare\e203\zhengdian_E203\sdk\whetstone\Release/../application/whets.c:508
    Check = Check + checknum;
80001d00:	0fffe597          	auipc	a1,0xfffe
80001d04:	5445a583          	lw	a1,1348(a1) # 90000244 <_impure_ptr+0x68>
whetstones():
E:\VMshare\e203\zhengdian_E203\sdk\whetstone\Release/../application/whets.c:452
    pout("N7 assignments   \0", (float)(n7 * 3) * (float)(xtra), 2, e1[2], secs,
80001d08:	0007aa83          	lw	s5,0(a5)
pout():
E:\VMshare\e203\zhengdian_E203\sdk\whetstone\Release/../application/whets.c:508
    Check = Check + checknum;
80001d0c:	6ff010ef          	jal	ra,80003c0a <__addsf3>
E:\VMshare\e203\zhengdian_E203\sdk\whetstone\Release/../application/whets.c:510
    strcpy(headings[section], title);
80001d10:	07eb5883          	lhu	a7,126(s6)
80001d14:	082b5303          	lhu	t1,130(s6)
80001d18:	084b5f83          	lhu	t6,132(s6)
80001d1c:	086b5803          	lhu	a6,134(s6)
80001d20:	088b5e83          	lhu	t4,136(s6)
E:\VMshare\e203\zhengdian_E203\sdk\whetstone\Release/../application/whets.c:511
    TimeUsed = TimeUsed + time;
80001d24:	9ec18913          	addi	s2,gp,-1556 # 900003bc <TimeUsed>
E:\VMshare\e203\zhengdian_E203\sdk\whetstone\Release/../application/whets.c:510
    strcpy(headings[section], title);
80001d28:	078b5d83          	lhu	s11,120(s6)
80001d2c:	07ab5c83          	lhu	s9,122(s6)
80001d30:	07cb5983          	lhu	s3,124(s6)
80001d34:	080b5d03          	lhu	s10,128(s6)
E:\VMshare\e203\zhengdian_E203\sdk\whetstone\Release/../application/whets.c:508
    Check = Check + checknum;
80001d38:	8f2a                	mv	t5,a0
E:\VMshare\e203\zhengdian_E203\sdk\whetstone\Release/../application/whets.c:511
    TimeUsed = TimeUsed + time;
80001d3a:	00092503          	lw	a0,0(s2)
E:\VMshare\e203\zhengdian_E203\sdk\whetstone\Release/../application/whets.c:510
    strcpy(headings[section], title);
80001d3e:	a9c18293          	addi	t0,gp,-1380 # 9000046c <headings>
E:\VMshare\e203\zhengdian_E203\sdk\whetstone\Release/../application/whets.c:509
    loop_time[section] = time;
80001d42:	b4018e13          	addi	t3,gp,-1216 # 90000510 <loop_time>
E:\VMshare\e203\zhengdian_E203\sdk\whetstone\Release/../application/whets.c:511
    TimeUsed = TimeUsed + time;
80001d46:	85d6                	mv	a1,s5
E:\VMshare\e203\zhengdian_E203\sdk\whetstone\Release/../application/whets.c:508
    Check = Check + checknum;
80001d48:	01eba023          	sw	t5,0(s7)
E:\VMshare\e203\zhengdian_E203\sdk\whetstone\Release/../application/whets.c:509
    loop_time[section] = time;
80001d4c:	015e2e23          	sw	s5,28(t3)
E:\VMshare\e203\zhengdian_E203\sdk\whetstone\Release/../application/whets.c:510
    strcpy(headings[section], title);
80001d50:	07b29f23          	sh	s11,126(t0)
80001d54:	09929023          	sh	s9,128(t0)
80001d58:	09329123          	sh	s3,130(t0)
80001d5c:	09129223          	sh	a7,132(t0)
80001d60:	09a29323          	sh	s10,134(t0)
80001d64:	08629423          	sh	t1,136(t0)
80001d68:	09f29523          	sh	t6,138(t0)
80001d6c:	09029623          	sh	a6,140(t0)
80001d70:	09d29723          	sh	t4,142(t0)
E:\VMshare\e203\zhengdian_E203\sdk\whetstone\Release/../application/whets.c:511
    TimeUsed = TimeUsed + time;
80001d74:	697010ef          	jal	ra,80003c0a <__addsf3>
E:\VMshare\e203\zhengdian_E203\sdk\whetstone\Release/../application/whets.c:512
    if (calibrate == 1)
80001d78:	4652                	lw	a2,20(sp)
E:\VMshare\e203\zhengdian_E203\sdk\whetstone\Release/../application/whets.c:511
    TimeUsed = TimeUsed + time;
80001d7a:	00a92023          	sw	a0,0(s2)
E:\VMshare\e203\zhengdian_E203\sdk\whetstone\Release/../application/whets.c:512
    if (calibrate == 1)
80001d7e:	4385                	li	t2,1
80001d80:	24760a63          	beq	a2,t2,80001fd4 <whetstones.constprop.0+0x14a6>
E:\VMshare\e203\zhengdian_E203\sdk\whetstone\Release/../application/whets.c:517
    if (calibrate == 0) {
80001d84:	1c061f63          	bnez	a2,80001f62 <whetstones.constprop.0+0x1434>
E:\VMshare\e203\zhengdian_E203\sdk\whetstone\Release/../application/whets.c:518
        printf("%s %20.17f    ", headings[section], results[section]);
80001d88:	b6418c13          	addi	s8,gp,-1180 # 90000534 <results>
80001d8c:	01cc2503          	lw	a0,28(s8)
80001d90:	54d020ef          	jal	ra,80004adc <__extendsfdf2>
80001d94:	862a                	mv	a2,a0
80001d96:	86ae                	mv	a3,a1
80001d98:	00008517          	auipc	a0,0x8
80001d9c:	cf850513          	addi	a0,a0,-776 # 80009a90 <__trunctfdf2+0x308>
80001da0:	b1a18593          	addi	a1,gp,-1254 # 900004ea <headings+0x7e>
80001da4:	0f5030ef          	jal	ra,80005698 <iprintf>
E:\VMshare\e203\zhengdian_E203\sdk\whetstone\Release/../application/whets.c:531
            if (time > 0) {
80001da8:	00000593          	li	a1,0
80001dac:	8556                	mv	a0,s5
80001dae:	42a020ef          	jal	ra,800041d8 <__gesf2>
80001db2:	16a05d63          	blez	a0,80001f2c <whetstones.constprop.0+0x13fe>
whetstones():
E:\VMshare\e203\zhengdian_E203\sdk\whetstone\Release/../application/whets.c:452
    pout("N7 assignments   \0", (float)(n7 * 3) * (float)(xtra), 2, e1[2], secs,
80001db6:	4562                	lw	a0,24(sp)
80001db8:	0fffe597          	auipc	a1,0xfffe
80001dbc:	4c85a583          	lw	a1,1224(a1) # 90000280 <_impure_ptr+0xa4>
80001dc0:	508020ef          	jal	ra,800042c8 <__mulsf3>
80001dc4:	8baa                	mv	s7,a0
pout():
E:\VMshare\e203\zhengdian_E203\sdk\whetstone\Release/../application/whets.c:532
                mops = ops / (1000000L * time);
80001dc6:	0fffe597          	auipc	a1,0xfffe
80001dca:	4925a583          	lw	a1,1170(a1) # 90000258 <_impure_ptr+0x7c>
80001dce:	8556                	mv	a0,s5
80001dd0:	4f8020ef          	jal	ra,800042c8 <__mulsf3>
80001dd4:	85aa                	mv	a1,a0
80001dd6:	855e                	mv	a0,s7
80001dd8:	158020ef          	jal	ra,80003f30 <__divsf3>
E:\VMshare\e203\zhengdian_E203\sdk\whetstone\Release/../application/whets.c:538
            printf("           %9.3f%9.3f\n", loop_mops[section],
80001ddc:	501020ef          	jal	ra,80004adc <__extendsfdf2>
80001de0:	84aa                	mv	s1,a0
80001de2:	842e                	mv	s0,a1
80001de4:	b4018e13          	addi	t3,gp,-1216 # 90000510 <loop_time>
80001de8:	01ce2503          	lw	a0,28(t3)
80001dec:	4f1020ef          	jal	ra,80004adc <__extendsfdf2>
80001df0:	872a                	mv	a4,a0
80001df2:	87ae                	mv	a5,a1
80001df4:	8626                	mv	a2,s1
80001df6:	86a2                	mv	a3,s0
80001df8:	00008517          	auipc	a0,0x8
80001dfc:	cc050513          	addi	a0,a0,-832 # 80009ab8 <__trunctfdf2+0x330>
80001e00:	099030ef          	jal	ra,80005698 <iprintf>
whetstones():
E:\VMshare\e203\zhengdian_E203\sdk\whetstone\Release/../application/whets.c:457
    start_time();
80001e04:	cbffe0ef          	jal	ra,80000ac2 <start_time>
E:\VMshare\e203\zhengdian_E203\sdk\whetstone\Release/../application/whets.c:459
        for (ix = 0; ix < xtra; ix++) {
80001e08:	b94048e3          	bgtz	s4,80001998 <whetstones.constprop.0+0xe6a>
E:\VMshare\e203\zhengdian_E203\sdk\whetstone\Release/../application/whets.c:465
    end_time();
80001e0c:	ce9fe0ef          	jal	ra,80000af4 <end_time>
E:\VMshare\e203\zhengdian_E203\sdk\whetstone\Release/../application/whets.c:466
    pout("N8 exp,sqrt etc. \0", (float)(n8 * 4) * (float)(xtra), 2, x, secs,
80001e10:	4562                	lw	a0,24(sp)
80001e12:	0fffe597          	auipc	a1,0xfffe
80001e16:	4725a583          	lw	a1,1138(a1) # 90000284 <_impure_ptr+0xa8>
pout():
E:\VMshare\e203\zhengdian_E203\sdk\whetstone\Release/../application/whets.c:508
    Check = Check + checknum;
80001e1a:	9e818d93          	addi	s11,gp,-1560 # 900003b8 <Check>
whetstones():
E:\VMshare\e203\zhengdian_E203\sdk\whetstone\Release/../application/whets.c:466
    pout("N8 exp,sqrt etc. \0", (float)(n8 * 4) * (float)(xtra), 2, x, secs,
80001e1e:	4aa020ef          	jal	ra,800042c8 <__mulsf3>
80001e22:	8aaa                	mv	s5,a0
pout():
E:\VMshare\e203\zhengdian_E203\sdk\whetstone\Release/../application/whets.c:508
    Check = Check + checknum;
80001e24:	000da503          	lw	a0,0(s11)
80001e28:	0fffe597          	auipc	a1,0xfffe
80001e2c:	4245a583          	lw	a1,1060(a1) # 9000024c <_impure_ptr+0x70>
whetstones():
E:\VMshare\e203\zhengdian_E203\sdk\whetstone\Release/../application/whets.c:466
    pout("N8 exp,sqrt etc. \0", (float)(n8 * 4) * (float)(xtra), 2, x, secs,
80001e30:	9dc18a13          	addi	s4,gp,-1572 # 900003ac <secs>
pout():
E:\VMshare\e203\zhengdian_E203\sdk\whetstone\Release/../application/whets.c:508
    Check = Check + checknum;
80001e34:	5d7010ef          	jal	ra,80003c0a <__addsf3>
E:\VMshare\e203\zhengdian_E203\sdk\whetstone\Release/../application/whets.c:510
    strcpy(headings[section], title);
80001e38:	064b2383          	lw	t2,100(s6)
80001e3c:	068b2603          	lw	a2,104(s6)
80001e40:	06cb2f03          	lw	t5,108(s6)
whetstones():
E:\VMshare\e203\zhengdian_E203\sdk\whetstone\Release/../application/whets.c:466
    pout("N8 exp,sqrt etc. \0", (float)(n8 * 4) * (float)(xtra), 2, x, secs,
80001e44:	000a2c83          	lw	s9,0(s4)
pout():
E:\VMshare\e203\zhengdian_E203\sdk\whetstone\Release/../application/whets.c:510
    strcpy(headings[section], title);
80001e48:	070b2d03          	lw	s10,112(s6)
E:\VMshare\e203\zhengdian_E203\sdk\whetstone\Release/../application/whets.c:511
    TimeUsed = TimeUsed + time;
80001e4c:	9ec18913          	addi	s2,gp,-1556 # 900003bc <TimeUsed>
E:\VMshare\e203\zhengdian_E203\sdk\whetstone\Release/../application/whets.c:510
    strcpy(headings[section], title);
80001e50:	074b5b03          	lhu	s6,116(s6)
E:\VMshare\e203\zhengdian_E203\sdk\whetstone\Release/../application/whets.c:508
    Check = Check + checknum;
80001e54:	82aa                	mv	t0,a0
E:\VMshare\e203\zhengdian_E203\sdk\whetstone\Release/../application/whets.c:511
    TimeUsed = TimeUsed + time;
80001e56:	00092503          	lw	a0,0(s2)
E:\VMshare\e203\zhengdian_E203\sdk\whetstone\Release/../application/whets.c:510
    strcpy(headings[section], title);
80001e5a:	a9c18893          	addi	a7,gp,-1380 # 9000046c <headings>
E:\VMshare\e203\zhengdian_E203\sdk\whetstone\Release/../application/whets.c:509
    loop_time[section] = time;
80001e5e:	b4018993          	addi	s3,gp,-1216 # 90000510 <loop_time>
E:\VMshare\e203\zhengdian_E203\sdk\whetstone\Release/../application/whets.c:511
    TimeUsed = TimeUsed + time;
80001e62:	85e6                	mv	a1,s9
E:\VMshare\e203\zhengdian_E203\sdk\whetstone\Release/../application/whets.c:508
    Check = Check + checknum;
80001e64:	005da023          	sw	t0,0(s11)
E:\VMshare\e203\zhengdian_E203\sdk\whetstone\Release/../application/whets.c:509
    loop_time[section] = time;
80001e68:	0399a023          	sw	s9,32(s3)
E:\VMshare\e203\zhengdian_E203\sdk\whetstone\Release/../application/whets.c:510
    strcpy(headings[section], title);
80001e6c:	0878a823          	sw	t2,144(a7)
80001e70:	08c8aa23          	sw	a2,148(a7)
80001e74:	09e8ac23          	sw	t5,152(a7)
80001e78:	09a8ae23          	sw	s10,156(a7)
80001e7c:	0b689023          	sh	s6,160(a7)
E:\VMshare\e203\zhengdian_E203\sdk\whetstone\Release/../application/whets.c:511
    TimeUsed = TimeUsed + time;
80001e80:	58b010ef          	jal	ra,80003c0a <__addsf3>
80001e84:	00a92023          	sw	a0,0(s2)
E:\VMshare\e203\zhengdian_E203\sdk\whetstone\Release/../application/whets.c:517
    if (calibrate == 0) {
80001e88:	b985                	j	80001af8 <whetstones.constprop.0+0xfca>
E:\VMshare\e203\zhengdian_E203\sdk\whetstone\Release/../application/whets.c:515
        results[section] = checknum;
80001e8a:	b881a023          	sw	s0,-1152(gp) # 90000550 <results+0x1c>
whetstones():
E:\VMshare\e203\zhengdian_E203\sdk\whetstone\Release/../application/whets.c:457
    start_time();
80001e8e:	c35fe0ef          	jal	ra,80000ac2 <start_time>
E:\VMshare\e203\zhengdian_E203\sdk\whetstone\Release/../application/whets.c:459
        for (ix = 0; ix < xtra; ix++) {
80001e92:	b619                	j	80001998 <whetstones.constprop.0+0xe6a>
80001e94:	b6418c93          	addi	s9,gp,-1180 # 90000534 <results>
pout():
E:\VMshare\e203\zhengdian_E203\sdk\whetstone\Release/../application/whets.c:515
        results[section] = checknum;
80001e98:	018cac23          	sw	s8,24(s9)
E:\VMshare\e203\zhengdian_E203\sdk\whetstone\Release/../application/whets.c:517
    if (calibrate == 0) {
80001e9c:	b5b1                	j	80001ce8 <whetstones.constprop.0+0x11ba>
80001e9e:	b6418d93          	addi	s11,gp,-1180 # 90000534 <results>
E:\VMshare\e203\zhengdian_E203\sdk\whetstone\Release/../application/whets.c:518
        printf("%s %20.17f    ", headings[section], results[section]);
80001ea2:	018da503          	lw	a0,24(s11)
80001ea6:	437020ef          	jal	ra,80004adc <__extendsfdf2>
80001eaa:	862a                	mv	a2,a0
80001eac:	86ae                	mv	a3,a1
80001eae:	00008517          	auipc	a0,0x8
80001eb2:	be250513          	addi	a0,a0,-1054 # 80009a90 <__trunctfdf2+0x308>
80001eb6:	b0818593          	addi	a1,gp,-1272 # 900004d8 <headings+0x6c>
80001eba:	7de030ef          	jal	ra,80005698 <iprintf>
E:\VMshare\e203\zhengdian_E203\sdk\whetstone\Release/../application/whets.c:521
            if (time > 0) {
80001ebe:	00000593          	li	a1,0
80001ec2:	8556                	mv	a0,s5
80001ec4:	314020ef          	jal	ra,800041d8 <__gesf2>
80001ec8:	08a05463          	blez	a0,80001f50 <whetstones.constprop.0+0x1422>
whetstones():
E:\VMshare\e203\zhengdian_E203\sdk\whetstone\Release/../application/whets.c:433
    pout("N6 floating point\0", (float)(n6 * 6) * (float)(xtra), 1, z, secs,
80001ecc:	4562                	lw	a0,24(sp)
80001ece:	0fffe597          	auipc	a1,0xfffe
80001ed2:	3ae5a583          	lw	a1,942(a1) # 9000027c <_impure_ptr+0xa0>
80001ed6:	3f2020ef          	jal	ra,800042c8 <__mulsf3>
80001eda:	8c2a                	mv	s8,a0
pout():
E:\VMshare\e203\zhengdian_E203\sdk\whetstone\Release/../application/whets.c:522
                mflops = ops / (1000000L * time);
80001edc:	0fffe597          	auipc	a1,0xfffe
80001ee0:	37c5a583          	lw	a1,892(a1) # 90000258 <_impure_ptr+0x7c>
80001ee4:	8556                	mv	a0,s5
80001ee6:	3e2020ef          	jal	ra,800042c8 <__mulsf3>
80001eea:	85aa                	mv	a1,a0
80001eec:	8562                	mv	a0,s8
80001eee:	042020ef          	jal	ra,80003f30 <__divsf3>
E:\VMshare\e203\zhengdian_E203\sdk\whetstone\Release/../application/whets.c:528
            printf(" %9.3f          %9.3f\n", loop_mflops[section],
80001ef2:	3eb020ef          	jal	ra,80004adc <__extendsfdf2>
80001ef6:	8aaa                	mv	s5,a0
80001ef8:	842e                	mv	s0,a1
80001efa:	b4018713          	addi	a4,gp,-1216 # 90000510 <loop_time>
80001efe:	4f08                	lw	a0,24(a4)
80001f00:	3dd020ef          	jal	ra,80004adc <__extendsfdf2>
80001f04:	872a                	mv	a4,a0
80001f06:	87ae                	mv	a5,a1
80001f08:	8656                	mv	a2,s5
80001f0a:	86a2                	mv	a3,s0
80001f0c:	00008517          	auipc	a0,0x8
80001f10:	b9450513          	addi	a0,a0,-1132 # 80009aa0 <__trunctfdf2+0x318>
80001f14:	784030ef          	jal	ra,80005698 <iprintf>
80001f18:	9b3ff06f          	j	800018ca <whetstones.constprop.0+0xd9c>
80001f1c:	4c01                	li	s8,0
80001f1e:	4401                	li	s0,0
80001f20:	e07fe06f          	j	80000d26 <whetstones.constprop.0+0x1f8>
80001f24:	4d01                	li	s10,0
80001f26:	4d81                	li	s11,0
80001f28:	9beff06f          	j	800010e6 <whetstones.constprop.0+0x5b8>
80001f2c:	4481                	li	s1,0
80001f2e:	4401                	li	s0,0
80001f30:	bd55                	j	80001de4 <whetstones.constprop.0+0x12b6>
80001f32:	4c81                	li	s9,0
80001f34:	4c01                	li	s8,0
80001f36:	caaff06f          	j	800013e0 <whetstones.constprop.0+0x8b2>
80001f3a:	4481                	li	s1,0
80001f3c:	4c81                	li	s9,0
80001f3e:	b109                	j	80001b40 <whetstones.constprop.0+0x1012>
80001f40:	4d01                	li	s10,0
80001f42:	4d81                	li	s11,0
80001f44:	ab6ff06f          	j	800011fa <whetstones.constprop.0+0x6cc>
80001f48:	4d01                	li	s10,0
80001f4a:	4c01                	li	s8,0
80001f4c:	f8aff06f          	j	800016d6 <whetstones.constprop.0+0xba8>
80001f50:	4a81                	li	s5,0
80001f52:	4401                	li	s0,0
80001f54:	b75d                	j	80001efa <whetstones.constprop.0+0x13cc>
whetstones():
E:\VMshare\e203\zhengdian_E203\sdk\whetstone\Release/../application/whets.c:312
    e1[0] = 1.0;
80001f56:	ce16                	sw	t0,28(sp)
E:\VMshare\e203\zhengdian_E203\sdk\whetstone\Release/../application/whets.c:314
    e1[2] = -1.0;
80001f58:	8926                	mv	s2,s1
E:\VMshare\e203\zhengdian_E203\sdk\whetstone\Release/../application/whets.c:313
    e1[1] = -1.0;
80001f5a:	8da6                	mv	s11,s1
E:\VMshare\e203\zhengdian_E203\sdk\whetstone\Release/../application/whets.c:312
    e1[0] = 1.0;
80001f5c:	8d16                	mv	s10,t0
80001f5e:	cb3fe06f          	j	80000c10 <whetstones.constprop.0+0xe2>
E:\VMshare\e203\zhengdian_E203\sdk\whetstone\Release/../application/whets.c:457
    start_time();
80001f62:	b61fe0ef          	jal	ra,80000ac2 <start_time>
pout():
E:\VMshare\e203\zhengdian_E203\sdk\whetstone\Release/../application/whets.c:508
    Check = Check + checknum;
80001f66:	9e818a13          	addi	s4,gp,-1560 # 900003b8 <Check>
whetstones():
E:\VMshare\e203\zhengdian_E203\sdk\whetstone\Release/../application/whets.c:465
    end_time();
80001f6a:	b8bfe0ef          	jal	ra,80000af4 <end_time>
pout():
E:\VMshare\e203\zhengdian_E203\sdk\whetstone\Release/../application/whets.c:508
    Check = Check + checknum;
80001f6e:	000a2503          	lw	a0,0(s4)
80001f72:	0fffe597          	auipc	a1,0xfffe
80001f76:	2da5a583          	lw	a1,730(a1) # 9000024c <_impure_ptr+0x70>
whetstones():
E:\VMshare\e203\zhengdian_E203\sdk\whetstone\Release/../application/whets.c:466
    pout("N8 exp,sqrt etc. \0", (float)(n8 * 4) * (float)(xtra), 2, x, secs,
80001f7a:	9dc18493          	addi	s1,gp,-1572 # 900003ac <secs>
pout():
E:\VMshare\e203\zhengdian_E203\sdk\whetstone\Release/../application/whets.c:508
    Check = Check + checknum;
80001f7e:	48d010ef          	jal	ra,80003c0a <__addsf3>
E:\VMshare\e203\zhengdian_E203\sdk\whetstone\Release/../application/whets.c:510
    strcpy(headings[section], title);
80001f82:	068b2f03          	lw	t5,104(s6)
80001f86:	06cb2683          	lw	a3,108(s6)
whetstones():
E:\VMshare\e203\zhengdian_E203\sdk\whetstone\Release/../application/whets.c:466
    pout("N8 exp,sqrt etc. \0", (float)(n8 * 4) * (float)(xtra), 2, x, secs,
80001f8a:	0004aa83          	lw	s5,0(s1)
pout():
E:\VMshare\e203\zhengdian_E203\sdk\whetstone\Release/../application/whets.c:510
    strcpy(headings[section], title);
80001f8e:	064b2c03          	lw	s8,100(s6)
80001f92:	070b2d83          	lw	s11,112(s6)
E:\VMshare\e203\zhengdian_E203\sdk\whetstone\Release/../application/whets.c:511
    TimeUsed = TimeUsed + time;
80001f96:	9ec18b93          	addi	s7,gp,-1556 # 900003bc <TimeUsed>
E:\VMshare\e203\zhengdian_E203\sdk\whetstone\Release/../application/whets.c:510
    strcpy(headings[section], title);
80001f9a:	074b5b03          	lhu	s6,116(s6)
E:\VMshare\e203\zhengdian_E203\sdk\whetstone\Release/../application/whets.c:508
    Check = Check + checknum;
80001f9e:	842a                	mv	s0,a0
E:\VMshare\e203\zhengdian_E203\sdk\whetstone\Release/../application/whets.c:511
    TimeUsed = TimeUsed + time;
80001fa0:	000ba503          	lw	a0,0(s7)
E:\VMshare\e203\zhengdian_E203\sdk\whetstone\Release/../application/whets.c:510
    strcpy(headings[section], title);
80001fa4:	a9c18913          	addi	s2,gp,-1380 # 9000046c <headings>
E:\VMshare\e203\zhengdian_E203\sdk\whetstone\Release/../application/whets.c:509
    loop_time[section] = time;
80001fa8:	b4018793          	addi	a5,gp,-1216 # 90000510 <loop_time>
E:\VMshare\e203\zhengdian_E203\sdk\whetstone\Release/../application/whets.c:511
    TimeUsed = TimeUsed + time;
80001fac:	85d6                	mv	a1,s5
E:\VMshare\e203\zhengdian_E203\sdk\whetstone\Release/../application/whets.c:508
    Check = Check + checknum;
80001fae:	008a2023          	sw	s0,0(s4)
E:\VMshare\e203\zhengdian_E203\sdk\whetstone\Release/../application/whets.c:509
    loop_time[section] = time;
80001fb2:	0357a023          	sw	s5,32(a5)
E:\VMshare\e203\zhengdian_E203\sdk\whetstone\Release/../application/whets.c:510
    strcpy(headings[section], title);
80001fb6:	09892823          	sw	s8,144(s2)
80001fba:	09e92a23          	sw	t5,148(s2)
80001fbe:	08d92c23          	sw	a3,152(s2)
80001fc2:	09b92e23          	sw	s11,156(s2)
80001fc6:	0b691023          	sh	s6,160(s2)
E:\VMshare\e203\zhengdian_E203\sdk\whetstone\Release/../application/whets.c:511
    TimeUsed = TimeUsed + time;
80001fca:	441010ef          	jal	ra,80003c0a <__addsf3>
80001fce:	00aba023          	sw	a0,0(s7)
E:\VMshare\e203\zhengdian_E203\sdk\whetstone\Release/../application/whets.c:512
    if (calibrate == 1)
80001fd2:	be4d                	j	80001b84 <whetstones.constprop.0+0x1056>
E:\VMshare\e203\zhengdian_E203\sdk\whetstone\Release/../application/whets.c:515
        results[section] = checknum;
80001fd4:	0fffe517          	auipc	a0,0xfffe
80001fd8:	27052503          	lw	a0,624(a0) # 90000244 <_impure_ptr+0x68>
80001fdc:	b6418c93          	addi	s9,gp,-1180 # 90000534 <results>
80001fe0:	00acae23          	sw	a0,28(s9)
E:\VMshare\e203\zhengdian_E203\sdk\whetstone\Release/../application/whets.c:508
    Check = Check + checknum;
80001fe4:	9e818d13          	addi	s10,gp,-1560 # 900003b8 <Check>
whetstones():
E:\VMshare\e203\zhengdian_E203\sdk\whetstone\Release/../application/whets.c:457
    start_time();
80001fe8:	adbfe0ef          	jal	ra,80000ac2 <start_time>
E:\VMshare\e203\zhengdian_E203\sdk\whetstone\Release/../application/whets.c:465
    end_time();
80001fec:	b09fe0ef          	jal	ra,80000af4 <end_time>
pout():
E:\VMshare\e203\zhengdian_E203\sdk\whetstone\Release/../application/whets.c:508
    Check = Check + checknum;
80001ff0:	000d2503          	lw	a0,0(s10)
80001ff4:	0fffe597          	auipc	a1,0xfffe
80001ff8:	2585a583          	lw	a1,600(a1) # 9000024c <_impure_ptr+0x70>
whetstones():
E:\VMshare\e203\zhengdian_E203\sdk\whetstone\Release/../application/whets.c:466
    pout("N8 exp,sqrt etc. \0", (float)(n8 * 4) * (float)(xtra), 2, x, secs,
80001ffc:	9dc18993          	addi	s3,gp,-1572 # 900003ac <secs>
pout():
E:\VMshare\e203\zhengdian_E203\sdk\whetstone\Release/../application/whets.c:508
    Check = Check + checknum;
80002000:	40b010ef          	jal	ra,80003c0a <__addsf3>
whetstones():
E:\VMshare\e203\zhengdian_E203\sdk\whetstone\Release/../application/whets.c:466
    pout("N8 exp,sqrt etc. \0", (float)(n8 * 4) * (float)(xtra), 2, x, secs,
80002004:	0009aa03          	lw	s4,0(s3)
pout():
E:\VMshare\e203\zhengdian_E203\sdk\whetstone\Release/../application/whets.c:510
    strcpy(headings[section], title);
80002008:	064b2303          	lw	t1,100(s6)
8000200c:	068b2f83          	lw	t6,104(s6)
80002010:	06cb2803          	lw	a6,108(s6)
80002014:	070b2e83          	lw	t4,112(s6)
80002018:	074b5e03          	lhu	t3,116(s6)
E:\VMshare\e203\zhengdian_E203\sdk\whetstone\Release/../application/whets.c:511
    TimeUsed = TimeUsed + time;
8000201c:	9ec18a93          	addi	s5,gp,-1556 # 900003bc <TimeUsed>
E:\VMshare\e203\zhengdian_E203\sdk\whetstone\Release/../application/whets.c:508
    Check = Check + checknum;
80002020:	88aa                	mv	a7,a0
E:\VMshare\e203\zhengdian_E203\sdk\whetstone\Release/../application/whets.c:511
    TimeUsed = TimeUsed + time;
80002022:	000aa503          	lw	a0,0(s5)
E:\VMshare\e203\zhengdian_E203\sdk\whetstone\Release/../application/whets.c:510
    strcpy(headings[section], title);
80002026:	a9c18393          	addi	t2,gp,-1380 # 9000046c <headings>
E:\VMshare\e203\zhengdian_E203\sdk\whetstone\Release/../application/whets.c:509
    loop_time[section] = time;
8000202a:	b4018293          	addi	t0,gp,-1216 # 90000510 <loop_time>
E:\VMshare\e203\zhengdian_E203\sdk\whetstone\Release/../application/whets.c:511
    TimeUsed = TimeUsed + time;
8000202e:	85d2                	mv	a1,s4
E:\VMshare\e203\zhengdian_E203\sdk\whetstone\Release/../application/whets.c:508
    Check = Check + checknum;
80002030:	011d2023          	sw	a7,0(s10)
E:\VMshare\e203\zhengdian_E203\sdk\whetstone\Release/../application/whets.c:509
    loop_time[section] = time;
80002034:	0342a023          	sw	s4,32(t0)
E:\VMshare\e203\zhengdian_E203\sdk\whetstone\Release/../application/whets.c:510
    strcpy(headings[section], title);
80002038:	0863a823          	sw	t1,144(t2)
8000203c:	09f3aa23          	sw	t6,148(t2)
80002040:	0903ac23          	sw	a6,152(t2)
80002044:	09d3ae23          	sw	t4,156(t2)
80002048:	0bc39023          	sh	t3,160(t2)
E:\VMshare\e203\zhengdian_E203\sdk\whetstone\Release/../application/whets.c:511
    TimeUsed = TimeUsed + time;
8000204c:	3bf010ef          	jal	ra,80003c0a <__addsf3>
whetstones():
E:\VMshare\e203\zhengdian_E203\sdk\whetstone\Release/../application/whets.c:456
    x = 0.75;
80002050:	0fffe497          	auipc	s1,0xfffe
80002054:	1fc4a483          	lw	s1,508(s1) # 9000024c <_impure_ptr+0x70>
pout():
E:\VMshare\e203\zhengdian_E203\sdk\whetstone\Release/../application/whets.c:511
    TimeUsed = TimeUsed + time;
80002058:	00aaa023          	sw	a0,0(s5)
E:\VMshare\e203\zhengdian_E203\sdk\whetstone\Release/../application/whets.c:515
        results[section] = checknum;
8000205c:	029ca023          	sw	s1,32(s9)
E:\VMshare\e203\zhengdian_E203\sdk\whetstone\Release/../application/whets.c:517
    if (calibrate == 0) {
80002060:	b615                	j	80001b84 <whetstones.constprop.0+0x1056>
whetstones():
E:\VMshare\e203\zhengdian_E203\sdk\whetstone\Release/../application/whets.c:432
    end_time();
80002062:	a93fe0ef          	jal	ra,80000af4 <end_time>
pout():
E:\VMshare\e203\zhengdian_E203\sdk\whetstone\Release/../application/whets.c:508
    Check = Check + checknum;
80002066:	9e818c13          	addi	s8,gp,-1560 # 900003b8 <Check>
8000206a:	000c2503          	lw	a0,0(s8)
8000206e:	0fffe597          	auipc	a1,0xfffe
80002072:	1ca5a583          	lw	a1,458(a1) # 90000238 <_impure_ptr+0x5c>
whetstones():
E:\VMshare\e203\zhengdian_E203\sdk\whetstone\Release/../application/whets.c:433
    pout("N6 floating point\0", (float)(n6 * 6) * (float)(xtra), 1, z, secs,
80002076:	9dc18c93          	addi	s9,gp,-1572 # 900003ac <secs>
pout():
E:\VMshare\e203\zhengdian_E203\sdk\whetstone\Release/../application/whets.c:508
    Check = Check + checknum;
8000207a:	391010ef          	jal	ra,80003c0a <__addsf3>
whetstones():
E:\VMshare\e203\zhengdian_E203\sdk\whetstone\Release/../application/whets.c:433
    pout("N6 floating point\0", (float)(n6 * 6) * (float)(xtra), 1, z, secs,
8000207e:	000caa83          	lw	s5,0(s9)
pout():
E:\VMshare\e203\zhengdian_E203\sdk\whetstone\Release/../application/whets.c:510
    strcpy(headings[section], title);
80002082:	050b2303          	lw	t1,80(s6)
80002086:	058b2803          	lw	a6,88(s6)
8000208a:	060b5f83          	lhu	t6,96(s6)
E:\VMshare\e203\zhengdian_E203\sdk\whetstone\Release/../application/whets.c:511
    TimeUsed = TimeUsed + time;
8000208e:	9ec18913          	addi	s2,gp,-1556 # 900003bc <TimeUsed>
E:\VMshare\e203\zhengdian_E203\sdk\whetstone\Release/../application/whets.c:510
    strcpy(headings[section], title);
80002092:	054b2b83          	lw	s7,84(s6)
80002096:	05cb2483          	lw	s1,92(s6)
E:\VMshare\e203\zhengdian_E203\sdk\whetstone\Release/../application/whets.c:508
    Check = Check + checknum;
8000209a:	842a                	mv	s0,a0
E:\VMshare\e203\zhengdian_E203\sdk\whetstone\Release/../application/whets.c:511
    TimeUsed = TimeUsed + time;
8000209c:	00092503          	lw	a0,0(s2)
E:\VMshare\e203\zhengdian_E203\sdk\whetstone\Release/../application/whets.c:510
    strcpy(headings[section], title);
800020a0:	a9c18993          	addi	s3,gp,-1380 # 9000046c <headings>
E:\VMshare\e203\zhengdian_E203\sdk\whetstone\Release/../application/whets.c:509
    loop_time[section] = time;
800020a4:	b4018e93          	addi	t4,gp,-1216 # 90000510 <loop_time>
E:\VMshare\e203\zhengdian_E203\sdk\whetstone\Release/../application/whets.c:511
    TimeUsed = TimeUsed + time;
800020a8:	85d6                	mv	a1,s5
E:\VMshare\e203\zhengdian_E203\sdk\whetstone\Release/../application/whets.c:508
    Check = Check + checknum;
800020aa:	008c2023          	sw	s0,0(s8)
E:\VMshare\e203\zhengdian_E203\sdk\whetstone\Release/../application/whets.c:509
    loop_time[section] = time;
800020ae:	015eac23          	sw	s5,24(t4)
E:\VMshare\e203\zhengdian_E203\sdk\whetstone\Release/../application/whets.c:510
    strcpy(headings[section], title);
800020b2:	0669a623          	sw	t1,108(s3)
800020b6:	0779a823          	sw	s7,112(s3)
800020ba:	0709aa23          	sw	a6,116(s3)
800020be:	0699ac23          	sw	s1,120(s3)
800020c2:	07f99e23          	sh	t6,124(s3)
E:\VMshare\e203\zhengdian_E203\sdk\whetstone\Release/../application/whets.c:511
    TimeUsed = TimeUsed + time;
800020c6:	345010ef          	jal	ra,80003c0a <__addsf3>
800020ca:	00a92023          	sw	a0,0(s2)
E:\VMshare\e203\zhengdian_E203\sdk\whetstone\Release/../application/whets.c:512
    if (calibrate == 1)
800020ce:	ff6ff06f          	j	800018c4 <whetstones.constprop.0+0xd96>

800020d2 <atanf>:
atanf():
800020d2:	1101                	addi	sp,sp,-32
800020d4:	ca26                	sw	s1,20(sp)
800020d6:	00151493          	slli	s1,a0,0x1
800020da:	cc22                	sw	s0,24(sp)
800020dc:	c452                	sw	s4,8(sp)
800020de:	ce06                	sw	ra,28(sp)
800020e0:	c84a                	sw	s2,16(sp)
800020e2:	c64e                	sw	s3,12(sp)
800020e4:	8085                	srli	s1,s1,0x1
800020e6:	508007b7          	lui	a5,0x50800
800020ea:	842a                	mv	s0,a0
800020ec:	8a2a                	mv	s4,a0
800020ee:	02f4ca63          	blt	s1,a5,80002122 <atanf+0x50>
800020f2:	7f8007b7          	lui	a5,0x7f800
800020f6:	0097d763          	bge	a5,s1,80002104 <atanf+0x32>
800020fa:	85aa                	mv	a1,a0
800020fc:	30f010ef          	jal	ra,80003c0a <__addsf3>
80002100:	842a                	mv	s0,a0
80002102:	a039                	j	80002110 <atanf+0x3e>
80002104:	22a04b63          	bgtz	a0,8000233a <atanf+0x268>
80002108:	0fffe417          	auipc	s0,0xfffe
8000210c:	18842403          	lw	s0,392(s0) # 90000290 <_impure_ptr+0xb4>
80002110:	40f2                	lw	ra,28(sp)
80002112:	8522                	mv	a0,s0
80002114:	4462                	lw	s0,24(sp)
80002116:	44d2                	lw	s1,20(sp)
80002118:	4942                	lw	s2,16(sp)
8000211a:	49b2                	lw	s3,12(sp)
8000211c:	4a22                	lw	s4,8(sp)
8000211e:	6105                	addi	sp,sp,32
80002120:	8082                	ret
80002122:	3ee007b7          	lui	a5,0x3ee00
80002126:	02f4d663          	bge	s1,a5,80002152 <atanf+0x80>
8000212a:	310007b7          	lui	a5,0x31000
8000212e:	02f4d063          	bge	s1,a5,8000214e <atanf+0x7c>
80002132:	0fffe597          	auipc	a1,0xfffe
80002136:	1625a583          	lw	a1,354(a1) # 90000294 <_impure_ptr+0xb8>
8000213a:	2d1010ef          	jal	ra,80003c0a <__addsf3>
8000213e:	0fffe597          	auipc	a1,0xfffe
80002142:	0fa5a583          	lw	a1,250(a1) # 90000238 <_impure_ptr+0x5c>
80002146:	092020ef          	jal	ra,800041d8 <__gesf2>
8000214a:	fca043e3          	bgtz	a0,80002110 <atanf+0x3e>
8000214e:	597d                	li	s2,-1
80002150:	a091                	j	80002194 <atanf+0xc2>
80002152:	24b5                	jal	800023be <fabsf>
80002154:	3f9807b7          	lui	a5,0x3f980
80002158:	842a                	mv	s0,a0
8000215a:	14f4d963          	bge	s1,a5,800022ac <atanf+0x1da>
8000215e:	3f3007b7          	lui	a5,0x3f300
80002162:	12f4d063          	bge	s1,a5,80002282 <atanf+0x1b0>
80002166:	85aa                	mv	a1,a0
80002168:	2a3010ef          	jal	ra,80003c0a <__addsf3>
8000216c:	0fffe597          	auipc	a1,0xfffe
80002170:	0cc5a583          	lw	a1,204(a1) # 90000238 <_impure_ptr+0x5c>
80002174:	378020ef          	jal	ra,800044ec <__subsf3>
80002178:	84aa                	mv	s1,a0
8000217a:	0fffe597          	auipc	a1,0xfffe
8000217e:	0ce5a583          	lw	a1,206(a1) # 90000248 <_impure_ptr+0x6c>
80002182:	8522                	mv	a0,s0
80002184:	287010ef          	jal	ra,80003c0a <__addsf3>
80002188:	85aa                	mv	a1,a0
8000218a:	8526                	mv	a0,s1
8000218c:	5a5010ef          	jal	ra,80003f30 <__divsf3>
80002190:	842a                	mv	s0,a0
80002192:	4901                	li	s2,0
80002194:	85a2                	mv	a1,s0
80002196:	8522                	mv	a0,s0
80002198:	130020ef          	jal	ra,800042c8 <__mulsf3>
8000219c:	85aa                	mv	a1,a0
8000219e:	89aa                	mv	s3,a0
800021a0:	128020ef          	jal	ra,800042c8 <__mulsf3>
800021a4:	0fffe597          	auipc	a1,0xfffe
800021a8:	0f85a583          	lw	a1,248(a1) # 9000029c <_impure_ptr+0xc0>
800021ac:	84aa                	mv	s1,a0
800021ae:	11a020ef          	jal	ra,800042c8 <__mulsf3>
800021b2:	0fffe597          	auipc	a1,0xfffe
800021b6:	0ee5a583          	lw	a1,238(a1) # 900002a0 <_impure_ptr+0xc4>
800021ba:	251010ef          	jal	ra,80003c0a <__addsf3>
800021be:	85a6                	mv	a1,s1
800021c0:	108020ef          	jal	ra,800042c8 <__mulsf3>
800021c4:	0fffe597          	auipc	a1,0xfffe
800021c8:	0e05a583          	lw	a1,224(a1) # 900002a4 <_impure_ptr+0xc8>
800021cc:	23f010ef          	jal	ra,80003c0a <__addsf3>
800021d0:	85a6                	mv	a1,s1
800021d2:	0f6020ef          	jal	ra,800042c8 <__mulsf3>
800021d6:	0fffe597          	auipc	a1,0xfffe
800021da:	0d25a583          	lw	a1,210(a1) # 900002a8 <_impure_ptr+0xcc>
800021de:	22d010ef          	jal	ra,80003c0a <__addsf3>
800021e2:	85a6                	mv	a1,s1
800021e4:	0e4020ef          	jal	ra,800042c8 <__mulsf3>
800021e8:	0fffe597          	auipc	a1,0xfffe
800021ec:	0c45a583          	lw	a1,196(a1) # 900002ac <_impure_ptr+0xd0>
800021f0:	21b010ef          	jal	ra,80003c0a <__addsf3>
800021f4:	85a6                	mv	a1,s1
800021f6:	0d2020ef          	jal	ra,800042c8 <__mulsf3>
800021fa:	0fffe597          	auipc	a1,0xfffe
800021fe:	0b65a583          	lw	a1,182(a1) # 900002b0 <_impure_ptr+0xd4>
80002202:	209010ef          	jal	ra,80003c0a <__addsf3>
80002206:	85ce                	mv	a1,s3
80002208:	0c0020ef          	jal	ra,800042c8 <__mulsf3>
8000220c:	0fffe597          	auipc	a1,0xfffe
80002210:	0a85a583          	lw	a1,168(a1) # 900002b4 <_impure_ptr+0xd8>
80002214:	89aa                	mv	s3,a0
80002216:	8526                	mv	a0,s1
80002218:	0b0020ef          	jal	ra,800042c8 <__mulsf3>
8000221c:	0fffe597          	auipc	a1,0xfffe
80002220:	09c5a583          	lw	a1,156(a1) # 900002b8 <_impure_ptr+0xdc>
80002224:	2c8020ef          	jal	ra,800044ec <__subsf3>
80002228:	85a6                	mv	a1,s1
8000222a:	09e020ef          	jal	ra,800042c8 <__mulsf3>
8000222e:	0fffe597          	auipc	a1,0xfffe
80002232:	08e5a583          	lw	a1,142(a1) # 900002bc <_impure_ptr+0xe0>
80002236:	2b6020ef          	jal	ra,800044ec <__subsf3>
8000223a:	85a6                	mv	a1,s1
8000223c:	08c020ef          	jal	ra,800042c8 <__mulsf3>
80002240:	0fffe597          	auipc	a1,0xfffe
80002244:	0805a583          	lw	a1,128(a1) # 900002c0 <_impure_ptr+0xe4>
80002248:	2a4020ef          	jal	ra,800044ec <__subsf3>
8000224c:	85a6                	mv	a1,s1
8000224e:	07a020ef          	jal	ra,800042c8 <__mulsf3>
80002252:	0fffe597          	auipc	a1,0xfffe
80002256:	0725a583          	lw	a1,114(a1) # 900002c4 <_impure_ptr+0xe8>
8000225a:	292020ef          	jal	ra,800044ec <__subsf3>
8000225e:	85a6                	mv	a1,s1
80002260:	068020ef          	jal	ra,800042c8 <__mulsf3>
80002264:	85aa                	mv	a1,a0
80002266:	854e                	mv	a0,s3
80002268:	1a3010ef          	jal	ra,80003c0a <__addsf3>
8000226c:	85a2                	mv	a1,s0
8000226e:	05a020ef          	jal	ra,800042c8 <__mulsf3>
80002272:	57fd                	li	a5,-1
80002274:	85aa                	mv	a1,a0
80002276:	08f91463          	bne	s2,a5,800022fe <atanf+0x22c>
8000227a:	8522                	mv	a0,s0
8000227c:	270020ef          	jal	ra,800044ec <__subsf3>
80002280:	b541                	j	80002100 <atanf+0x2e>
80002282:	0fffe597          	auipc	a1,0xfffe
80002286:	fb65a583          	lw	a1,-74(a1) # 90000238 <_impure_ptr+0x5c>
8000228a:	262020ef          	jal	ra,800044ec <__subsf3>
8000228e:	84aa                	mv	s1,a0
80002290:	0fffe597          	auipc	a1,0xfffe
80002294:	fa85a583          	lw	a1,-88(a1) # 90000238 <_impure_ptr+0x5c>
80002298:	8522                	mv	a0,s0
8000229a:	171010ef          	jal	ra,80003c0a <__addsf3>
8000229e:	85aa                	mv	a1,a0
800022a0:	8526                	mv	a0,s1
800022a2:	48f010ef          	jal	ra,80003f30 <__divsf3>
800022a6:	842a                	mv	s0,a0
800022a8:	4905                	li	s2,1
800022aa:	b5ed                	j	80002194 <atanf+0xc2>
800022ac:	401c07b7          	lui	a5,0x401c0
800022b0:	02f4dd63          	bge	s1,a5,800022ea <atanf+0x218>
800022b4:	0fffe597          	auipc	a1,0xfffe
800022b8:	fe45a583          	lw	a1,-28(a1) # 90000298 <_impure_ptr+0xbc>
800022bc:	230020ef          	jal	ra,800044ec <__subsf3>
800022c0:	84aa                	mv	s1,a0
800022c2:	0fffe597          	auipc	a1,0xfffe
800022c6:	fd65a583          	lw	a1,-42(a1) # 90000298 <_impure_ptr+0xbc>
800022ca:	8522                	mv	a0,s0
800022cc:	7fd010ef          	jal	ra,800042c8 <__mulsf3>
800022d0:	0fffe597          	auipc	a1,0xfffe
800022d4:	f685a583          	lw	a1,-152(a1) # 90000238 <_impure_ptr+0x5c>
800022d8:	133010ef          	jal	ra,80003c0a <__addsf3>
800022dc:	85aa                	mv	a1,a0
800022de:	8526                	mv	a0,s1
800022e0:	451010ef          	jal	ra,80003f30 <__divsf3>
800022e4:	842a                	mv	s0,a0
800022e6:	4909                	li	s2,2
800022e8:	b575                	j	80002194 <atanf+0xc2>
800022ea:	85aa                	mv	a1,a0
800022ec:	0fffe517          	auipc	a0,0xfffe
800022f0:	f4852503          	lw	a0,-184(a0) # 90000234 <_impure_ptr+0x58>
800022f4:	43d010ef          	jal	ra,80003f30 <__divsf3>
800022f8:	842a                	mv	s0,a0
800022fa:	490d                	li	s2,3
800022fc:	bd61                	j	80002194 <atanf+0xc2>
800022fe:	00008797          	auipc	a5,0x8
80002302:	a0e78793          	addi	a5,a5,-1522 # 80009d0c <atanlo>
80002306:	090a                	slli	s2,s2,0x2
80002308:	00008497          	auipc	s1,0x8
8000230c:	9f448493          	addi	s1,s1,-1548 # 80009cfc <atanhi>
80002310:	94ca                	add	s1,s1,s2
80002312:	993e                	add	s2,s2,a5
80002314:	00092583          	lw	a1,0(s2)
80002318:	1d4020ef          	jal	ra,800044ec <__subsf3>
8000231c:	85a2                	mv	a1,s0
8000231e:	1ce020ef          	jal	ra,800044ec <__subsf3>
80002322:	85aa                	mv	a1,a0
80002324:	4088                	lw	a0,0(s1)
80002326:	1c6020ef          	jal	ra,800044ec <__subsf3>
8000232a:	842a                	mv	s0,a0
8000232c:	de0a52e3          	bgez	s4,80002110 <atanf+0x3e>
80002330:	800007b7          	lui	a5,0x80000
80002334:	00a7c433          	xor	s0,a5,a0
80002338:	bbe1                	j	80002110 <atanf+0x3e>
8000233a:	0fffe417          	auipc	s0,0xfffe
8000233e:	f5242403          	lw	s0,-174(s0) # 9000028c <_impure_ptr+0xb0>
80002342:	b3f9                	j	80002110 <atanf+0x3e>

80002344 <cosf>:
cosf():
80002344:	1101                	addi	sp,sp,-32
80002346:	cc22                	sw	s0,24(sp)
80002348:	80000437          	lui	s0,0x80000
8000234c:	fff44793          	not	a5,s0
80002350:	3f491737          	lui	a4,0x3f491
80002354:	ce06                	sw	ra,28(sp)
80002356:	8fe9                	and	a5,a5,a0
80002358:	fd870713          	addi	a4,a4,-40 # 3f490fd8 <__stack_size+0x3f4907d8>
8000235c:	00f74963          	blt	a4,a5,8000236e <cosf+0x2a>
80002360:	4462                	lw	s0,24(sp)
80002362:	40f2                	lw	ra,28(sp)
80002364:	00000593          	li	a1,0
80002368:	6105                	addi	sp,sp,32
8000236a:	3370006f          	j	80002ea0 <__kernel_cosf>
8000236e:	7f800737          	lui	a4,0x7f800
80002372:	00e7c963          	blt	a5,a4,80002384 <cosf+0x40>
80002376:	85aa                	mv	a1,a0
80002378:	174020ef          	jal	ra,800044ec <__subsf3>
8000237c:	40f2                	lw	ra,28(sp)
8000237e:	4462                	lw	s0,24(sp)
80002380:	6105                	addi	sp,sp,32
80002382:	8082                	ret
80002384:	002c                	addi	a1,sp,8
80002386:	714000ef          	jal	ra,80002a9a <__ieee754_rem_pio2f>
8000238a:	00357793          	andi	a5,a0,3
8000238e:	4705                	li	a4,1
80002390:	45b2                	lw	a1,12(sp)
80002392:	4522                	lw	a0,8(sp)
80002394:	00e78963          	beq	a5,a4,800023a6 <cosf+0x62>
80002398:	4709                	li	a4,2
8000239a:	00e78b63          	beq	a5,a4,800023b0 <cosf+0x6c>
8000239e:	ef81                	bnez	a5,800023b6 <cosf+0x72>
800023a0:	301000ef          	jal	ra,80002ea0 <__kernel_cosf>
800023a4:	bfe1                	j	8000237c <cosf+0x38>
800023a6:	4605                	li	a2,1
800023a8:	24e010ef          	jal	ra,800035f6 <__kernel_sinf>
800023ac:	8d21                	xor	a0,a0,s0
800023ae:	b7f9                	j	8000237c <cosf+0x38>
800023b0:	2f1000ef          	jal	ra,80002ea0 <__kernel_cosf>
800023b4:	bfe5                	j	800023ac <cosf+0x68>
800023b6:	4605                	li	a2,1
800023b8:	23e010ef          	jal	ra,800035f6 <__kernel_sinf>
800023bc:	b7c1                	j	8000237c <cosf+0x38>

800023be <fabsf>:
fabsf():
800023be:	0506                	slli	a0,a0,0x1
800023c0:	8105                	srli	a0,a0,0x1
800023c2:	8082                	ret

800023c4 <sinf>:
sinf():
800023c4:	1101                	addi	sp,sp,-32
800023c6:	cc22                	sw	s0,24(sp)
800023c8:	80000437          	lui	s0,0x80000
800023cc:	fff44793          	not	a5,s0
800023d0:	3f491737          	lui	a4,0x3f491
800023d4:	ce06                	sw	ra,28(sp)
800023d6:	8fe9                	and	a5,a5,a0
800023d8:	fd870713          	addi	a4,a4,-40 # 3f490fd8 <__stack_size+0x3f4907d8>
800023dc:	00f74a63          	blt	a4,a5,800023f0 <sinf+0x2c>
800023e0:	4462                	lw	s0,24(sp)
800023e2:	40f2                	lw	ra,28(sp)
800023e4:	4601                	li	a2,0
800023e6:	00000593          	li	a1,0
800023ea:	6105                	addi	sp,sp,32
800023ec:	20a0106f          	j	800035f6 <__kernel_sinf>
800023f0:	7f800737          	lui	a4,0x7f800
800023f4:	00e7c963          	blt	a5,a4,80002406 <sinf+0x42>
800023f8:	85aa                	mv	a1,a0
800023fa:	0f2020ef          	jal	ra,800044ec <__subsf3>
800023fe:	40f2                	lw	ra,28(sp)
80002400:	4462                	lw	s0,24(sp)
80002402:	6105                	addi	sp,sp,32
80002404:	8082                	ret
80002406:	002c                	addi	a1,sp,8
80002408:	692000ef          	jal	ra,80002a9a <__ieee754_rem_pio2f>
8000240c:	00357793          	andi	a5,a0,3
80002410:	4705                	li	a4,1
80002412:	45b2                	lw	a1,12(sp)
80002414:	4522                	lw	a0,8(sp)
80002416:	00e78a63          	beq	a5,a4,8000242a <sinf+0x66>
8000241a:	4709                	li	a4,2
8000241c:	00e78a63          	beq	a5,a4,80002430 <sinf+0x6c>
80002420:	ef89                	bnez	a5,8000243a <sinf+0x76>
80002422:	4605                	li	a2,1
80002424:	1d2010ef          	jal	ra,800035f6 <__kernel_sinf>
80002428:	bfd9                	j	800023fe <sinf+0x3a>
8000242a:	277000ef          	jal	ra,80002ea0 <__kernel_cosf>
8000242e:	bfc1                	j	800023fe <sinf+0x3a>
80002430:	4605                	li	a2,1
80002432:	1c4010ef          	jal	ra,800035f6 <__kernel_sinf>
80002436:	8d21                	xor	a0,a0,s0
80002438:	b7d9                	j	800023fe <sinf+0x3a>
8000243a:	267000ef          	jal	ra,80002ea0 <__kernel_cosf>
8000243e:	bfe5                	j	80002436 <sinf+0x72>

80002440 <expf>:
expf():
80002440:	1141                	addi	sp,sp,-16
80002442:	c422                	sw	s0,8(sp)
80002444:	c226                	sw	s1,4(sp)
80002446:	c606                	sw	ra,12(sp)
80002448:	84aa                	mv	s1,a0
8000244a:	2281                	jal	8000258a <__ieee754_expf>
8000244c:	0fffe717          	auipc	a4,0xfffe
80002450:	d8c72703          	lw	a4,-628(a4) # 900001d8 <__fdlib_version>
80002454:	57fd                	li	a5,-1
80002456:	842a                	mv	s0,a0
80002458:	02f70863          	beq	a4,a5,80002488 <expf+0x48>
8000245c:	8526                	mv	a0,s1
8000245e:	2aa010ef          	jal	ra,80003708 <finitef>
80002462:	c11d                	beqz	a0,80002488 <expf+0x48>
80002464:	0fffe597          	auipc	a1,0xfffe
80002468:	e685a583          	lw	a1,-408(a1) # 900002cc <_impure_ptr+0xf0>
8000246c:	8526                	mv	a0,s1
8000246e:	56b010ef          	jal	ra,800041d8 <__gesf2>
80002472:	02a05163          	blez	a0,80002494 <expf+0x54>
80002476:	798020ef          	jal	ra,80004c0e <__errno>
8000247a:	02200793          	li	a5,34
8000247e:	c11c                	sw	a5,0(a0)
80002480:	0fffe417          	auipc	s0,0xfffe
80002484:	e4842403          	lw	s0,-440(s0) # 900002c8 <_impure_ptr+0xec>
80002488:	40b2                	lw	ra,12(sp)
8000248a:	8522                	mv	a0,s0
8000248c:	4422                	lw	s0,8(sp)
8000248e:	4492                	lw	s1,4(sp)
80002490:	0141                	addi	sp,sp,16
80002492:	8082                	ret
80002494:	0fffe597          	auipc	a1,0xfffe
80002498:	e3c5a583          	lw	a1,-452(a1) # 900002d0 <_impure_ptr+0xf4>
8000249c:	8526                	mv	a0,s1
8000249e:	5b3010ef          	jal	ra,80004250 <__lesf2>
800024a2:	fe0553e3          	bgez	a0,80002488 <expf+0x48>
800024a6:	768020ef          	jal	ra,80004c0e <__errno>
800024aa:	02200793          	li	a5,34
800024ae:	c11c                	sw	a5,0(a0)
800024b0:	00000413          	li	s0,0
800024b4:	bfd1                	j	80002488 <expf+0x48>

800024b6 <logf>:
logf():
800024b6:	1141                	addi	sp,sp,-16
800024b8:	c422                	sw	s0,8(sp)
800024ba:	c226                	sw	s1,4(sp)
800024bc:	c606                	sw	ra,12(sp)
800024be:	842a                	mv	s0,a0
800024c0:	2621                	jal	800027c8 <__ieee754_logf>
800024c2:	0fffe717          	auipc	a4,0xfffe
800024c6:	d1672703          	lw	a4,-746(a4) # 900001d8 <__fdlib_version>
800024ca:	57fd                	li	a5,-1
800024cc:	84aa                	mv	s1,a0
800024ce:	02f70d63          	beq	a4,a5,80002508 <logf+0x52>
800024d2:	85a2                	mv	a1,s0
800024d4:	8522                	mv	a0,s0
800024d6:	348020ef          	jal	ra,8000481e <__unordsf2>
800024da:	e51d                	bnez	a0,80002508 <logf+0x52>
800024dc:	00000593          	li	a1,0
800024e0:	8522                	mv	a0,s0
800024e2:	4f7010ef          	jal	ra,800041d8 <__gesf2>
800024e6:	02a04163          	bgtz	a0,80002508 <logf+0x52>
800024ea:	00000593          	li	a1,0
800024ee:	8522                	mv	a0,s0
800024f0:	495010ef          	jal	ra,80004184 <__eqsf2>
800024f4:	e105                	bnez	a0,80002514 <logf+0x5e>
800024f6:	718020ef          	jal	ra,80004c0e <__errno>
800024fa:	02200793          	li	a5,34
800024fe:	c11c                	sw	a5,0(a0)
80002500:	0fffe497          	auipc	s1,0xfffe
80002504:	dd44a483          	lw	s1,-556(s1) # 900002d4 <_impure_ptr+0xf8>
80002508:	40b2                	lw	ra,12(sp)
8000250a:	4422                	lw	s0,8(sp)
8000250c:	8526                	mv	a0,s1
8000250e:	4492                	lw	s1,4(sp)
80002510:	0141                	addi	sp,sp,16
80002512:	8082                	ret
80002514:	6fa020ef          	jal	ra,80004c0e <__errno>
80002518:	4422                	lw	s0,8(sp)
8000251a:	40b2                	lw	ra,12(sp)
8000251c:	4492                	lw	s1,4(sp)
8000251e:	02100793          	li	a5,33
80002522:	c11c                	sw	a5,0(a0)
80002524:	00007517          	auipc	a0,0x7
80002528:	53850513          	addi	a0,a0,1336 # 80009a5c <__trunctfdf2+0x2d4>
8000252c:	0141                	addi	sp,sp,16
8000252e:	2920106f          	j	800037c0 <nanf>

80002532 <sqrtf>:
sqrtf():
80002532:	1141                	addi	sp,sp,-16
80002534:	c422                	sw	s0,8(sp)
80002536:	c226                	sw	s1,4(sp)
80002538:	c606                	sw	ra,12(sp)
8000253a:	84aa                	mv	s1,a0
8000253c:	0ad000ef          	jal	ra,80002de8 <__ieee754_sqrtf>
80002540:	0fffe717          	auipc	a4,0xfffe
80002544:	c9872703          	lw	a4,-872(a4) # 900001d8 <__fdlib_version>
80002548:	57fd                	li	a5,-1
8000254a:	842a                	mv	s0,a0
8000254c:	02f70963          	beq	a4,a5,8000257e <sqrtf+0x4c>
80002550:	85a6                	mv	a1,s1
80002552:	8526                	mv	a0,s1
80002554:	2ca020ef          	jal	ra,8000481e <__unordsf2>
80002558:	e11d                	bnez	a0,8000257e <sqrtf+0x4c>
8000255a:	00000593          	li	a1,0
8000255e:	8526                	mv	a0,s1
80002560:	4f1010ef          	jal	ra,80004250 <__lesf2>
80002564:	00055d63          	bgez	a0,8000257e <sqrtf+0x4c>
80002568:	6a6020ef          	jal	ra,80004c0e <__errno>
8000256c:	02100793          	li	a5,33
80002570:	00000593          	li	a1,0
80002574:	c11c                	sw	a5,0(a0)
80002576:	852e                	mv	a0,a1
80002578:	1b9010ef          	jal	ra,80003f30 <__divsf3>
8000257c:	842a                	mv	s0,a0
8000257e:	40b2                	lw	ra,12(sp)
80002580:	8522                	mv	a0,s0
80002582:	4422                	lw	s0,8(sp)
80002584:	4492                	lw	s1,4(sp)
80002586:	0141                	addi	sp,sp,16
80002588:	8082                	ret

8000258a <__ieee754_expf>:
__ieee754_expf():
8000258a:	1101                	addi	sp,sp,-32
8000258c:	00151793          	slli	a5,a0,0x1
80002590:	cc22                	sw	s0,24(sp)
80002592:	ce06                	sw	ra,28(sp)
80002594:	ca26                	sw	s1,20(sp)
80002596:	c84a                	sw	s2,16(sp)
80002598:	c64e                	sw	s3,12(sp)
8000259a:	c452                	sw	s4,8(sp)
8000259c:	c256                	sw	s5,4(sp)
8000259e:	8385                	srli	a5,a5,0x1
800025a0:	7f800737          	lui	a4,0x7f800
800025a4:	842a                	mv	s0,a0
800025a6:	85aa                	mv	a1,a0
800025a8:	1af76d63          	bltu	a4,a5,80002762 <__ieee754_expf+0x1d8>
800025ac:	01f55913          	srli	s2,a0,0x1f
800025b0:	00e79e63          	bne	a5,a4,800025cc <__ieee754_expf+0x42>
800025b4:	20091763          	bnez	s2,800027c2 <__ieee754_expf+0x238>
800025b8:	40f2                	lw	ra,28(sp)
800025ba:	8522                	mv	a0,s0
800025bc:	4462                	lw	s0,24(sp)
800025be:	44d2                	lw	s1,20(sp)
800025c0:	4942                	lw	s2,16(sp)
800025c2:	49b2                	lw	s3,12(sp)
800025c4:	4a22                	lw	s4,8(sp)
800025c6:	4a92                	lw	s5,4(sp)
800025c8:	6105                	addi	sp,sp,32
800025ca:	8082                	ret
800025cc:	42b17737          	lui	a4,0x42b17
800025d0:	21770713          	addi	a4,a4,535 # 42b17217 <__stack_size+0x42b16a17>
800025d4:	00a75a63          	bge	a4,a0,800025e8 <__ieee754_expf+0x5e>
800025d8:	0fffe597          	auipc	a1,0xfffe
800025dc:	cbc5a583          	lw	a1,-836(a1) # 90000294 <_impure_ptr+0xb8>
800025e0:	852e                	mv	a0,a1
800025e2:	4e7010ef          	jal	ra,800042c8 <__mulsf3>
800025e6:	a241                	j	80002766 <__ieee754_expf+0x1dc>
800025e8:	00055863          	bgez	a0,800025f8 <__ieee754_expf+0x6e>
800025ec:	42cff737          	lui	a4,0x42cff
800025f0:	1b570713          	addi	a4,a4,437 # 42cff1b5 <__stack_size+0x42cfe9b5>
800025f4:	1cf76763          	bltu	a4,a5,800027c2 <__ieee754_expf+0x238>
800025f8:	3eb17737          	lui	a4,0x3eb17
800025fc:	21870713          	addi	a4,a4,536 # 3eb17218 <__stack_size+0x3eb16a18>
80002600:	12f77863          	bgeu	a4,a5,80002730 <__ieee754_expf+0x1a6>
80002604:	3f851737          	lui	a4,0x3f851
80002608:	59170713          	addi	a4,a4,1425 # 3f851591 <__stack_size+0x3f850d91>
8000260c:	00291493          	slli	s1,s2,0x2
80002610:	0cf76963          	bltu	a4,a5,800026e2 <__ieee754_expf+0x158>
80002614:	9c818793          	addi	a5,gp,-1592 # 90000398 <ln2HI>
80002618:	97a6                	add	a5,a5,s1
8000261a:	438c                	lw	a1,0(a5)
8000261c:	8522                	mv	a0,s0
8000261e:	6cf010ef          	jal	ra,800044ec <__subsf3>
80002622:	9d018793          	addi	a5,gp,-1584 # 900003a0 <ln2LO>
80002626:	97a6                	add	a5,a5,s1
80002628:	0007aa03          	lw	s4,0(a5) # 80000000 <_sp+0xefff0000>
8000262c:	4485                	li	s1,1
8000262e:	412484b3          	sub	s1,s1,s2
80002632:	89aa                	mv	s3,a0
80002634:	412484b3          	sub	s1,s1,s2
80002638:	85d2                	mv	a1,s4
8000263a:	854e                	mv	a0,s3
8000263c:	6b1010ef          	jal	ra,800044ec <__subsf3>
80002640:	842a                	mv	s0,a0
80002642:	85a2                	mv	a1,s0
80002644:	8522                	mv	a0,s0
80002646:	483010ef          	jal	ra,800042c8 <__mulsf3>
8000264a:	0fffe597          	auipc	a1,0xfffe
8000264e:	c9a5a583          	lw	a1,-870(a1) # 900002e4 <_impure_ptr+0x108>
80002652:	892a                	mv	s2,a0
80002654:	475010ef          	jal	ra,800042c8 <__mulsf3>
80002658:	0fffe597          	auipc	a1,0xfffe
8000265c:	c905a583          	lw	a1,-880(a1) # 900002e8 <_impure_ptr+0x10c>
80002660:	68d010ef          	jal	ra,800044ec <__subsf3>
80002664:	85ca                	mv	a1,s2
80002666:	463010ef          	jal	ra,800042c8 <__mulsf3>
8000266a:	0fffe597          	auipc	a1,0xfffe
8000266e:	c825a583          	lw	a1,-894(a1) # 900002ec <_impure_ptr+0x110>
80002672:	598010ef          	jal	ra,80003c0a <__addsf3>
80002676:	85ca                	mv	a1,s2
80002678:	451010ef          	jal	ra,800042c8 <__mulsf3>
8000267c:	0fffe597          	auipc	a1,0xfffe
80002680:	c745a583          	lw	a1,-908(a1) # 900002f0 <_impure_ptr+0x114>
80002684:	669010ef          	jal	ra,800044ec <__subsf3>
80002688:	85ca                	mv	a1,s2
8000268a:	43f010ef          	jal	ra,800042c8 <__mulsf3>
8000268e:	0fffe597          	auipc	a1,0xfffe
80002692:	c665a583          	lw	a1,-922(a1) # 900002f4 <_impure_ptr+0x118>
80002696:	574010ef          	jal	ra,80003c0a <__addsf3>
8000269a:	85ca                	mv	a1,s2
8000269c:	42d010ef          	jal	ra,800042c8 <__mulsf3>
800026a0:	85aa                	mv	a1,a0
800026a2:	8522                	mv	a0,s0
800026a4:	649010ef          	jal	ra,800044ec <__subsf3>
800026a8:	85aa                	mv	a1,a0
800026aa:	892a                	mv	s2,a0
800026ac:	8522                	mv	a0,s0
800026ae:	41b010ef          	jal	ra,800042c8 <__mulsf3>
800026b2:	8aaa                	mv	s5,a0
800026b4:	eccd                	bnez	s1,8000276e <__ieee754_expf+0x1e4>
800026b6:	0fffe597          	auipc	a1,0xfffe
800026ba:	b925a583          	lw	a1,-1134(a1) # 90000248 <_impure_ptr+0x6c>
800026be:	854a                	mv	a0,s2
800026c0:	62d010ef          	jal	ra,800044ec <__subsf3>
800026c4:	85aa                	mv	a1,a0
800026c6:	8556                	mv	a0,s5
800026c8:	069010ef          	jal	ra,80003f30 <__divsf3>
800026cc:	85a2                	mv	a1,s0
800026ce:	61f010ef          	jal	ra,800044ec <__subsf3>
800026d2:	85aa                	mv	a1,a0
800026d4:	0fffe517          	auipc	a0,0xfffe
800026d8:	b6452503          	lw	a0,-1180(a0) # 90000238 <_impure_ptr+0x5c>
800026dc:	611010ef          	jal	ra,800044ec <__subsf3>
800026e0:	a059                	j	80002766 <__ieee754_expf+0x1dc>
800026e2:	0fffe597          	auipc	a1,0xfffe
800026e6:	bf65a583          	lw	a1,-1034(a1) # 900002d8 <_impure_ptr+0xfc>
800026ea:	8522                	mv	a0,s0
800026ec:	3dd010ef          	jal	ra,800042c8 <__mulsf3>
800026f0:	9c018793          	addi	a5,gp,-1600 # 90000390 <halF>
800026f4:	97a6                	add	a5,a5,s1
800026f6:	438c                	lw	a1,0(a5)
800026f8:	512010ef          	jal	ra,80003c0a <__addsf3>
800026fc:	156020ef          	jal	ra,80004852 <__fixsfsi>
80002700:	84aa                	mv	s1,a0
80002702:	1b0020ef          	jal	ra,800048b2 <__floatsisf>
80002706:	0fffe597          	auipc	a1,0xfffe
8000270a:	bd65a583          	lw	a1,-1066(a1) # 900002dc <_impure_ptr+0x100>
8000270e:	892a                	mv	s2,a0
80002710:	3b9010ef          	jal	ra,800042c8 <__mulsf3>
80002714:	85aa                	mv	a1,a0
80002716:	8522                	mv	a0,s0
80002718:	5d5010ef          	jal	ra,800044ec <__subsf3>
8000271c:	89aa                	mv	s3,a0
8000271e:	0fffe597          	auipc	a1,0xfffe
80002722:	bc25a583          	lw	a1,-1086(a1) # 900002e0 <_impure_ptr+0x104>
80002726:	854a                	mv	a0,s2
80002728:	3a1010ef          	jal	ra,800042c8 <__mulsf3>
8000272c:	8a2a                	mv	s4,a0
8000272e:	b729                	j	80002638 <__ieee754_expf+0xae>
80002730:	31800737          	lui	a4,0x31800
80002734:	02e7fb63          	bgeu	a5,a4,8000276a <__ieee754_expf+0x1e0>
80002738:	0fffe597          	auipc	a1,0xfffe
8000273c:	b5c5a583          	lw	a1,-1188(a1) # 90000294 <_impure_ptr+0xb8>
80002740:	8522                	mv	a0,s0
80002742:	4c8010ef          	jal	ra,80003c0a <__addsf3>
80002746:	0fffe597          	auipc	a1,0xfffe
8000274a:	af25a583          	lw	a1,-1294(a1) # 90000238 <_impure_ptr+0x5c>
8000274e:	28b010ef          	jal	ra,800041d8 <__gesf2>
80002752:	00a05c63          	blez	a0,8000276a <__ieee754_expf+0x1e0>
80002756:	0fffe797          	auipc	a5,0xfffe
8000275a:	ae278793          	addi	a5,a5,-1310 # 90000238 <_impure_ptr+0x5c>
8000275e:	438c                	lw	a1,0(a5)
80002760:	8522                	mv	a0,s0
80002762:	4a8010ef          	jal	ra,80003c0a <__addsf3>
80002766:	842a                	mv	s0,a0
80002768:	bd81                	j	800025b8 <__ieee754_expf+0x2e>
8000276a:	4481                	li	s1,0
8000276c:	bdd9                	j	80002642 <__ieee754_expf+0xb8>
8000276e:	85ca                	mv	a1,s2
80002770:	0fffe517          	auipc	a0,0xfffe
80002774:	ad852503          	lw	a0,-1320(a0) # 90000248 <_impure_ptr+0x6c>
80002778:	575010ef          	jal	ra,800044ec <__subsf3>
8000277c:	85aa                	mv	a1,a0
8000277e:	8556                	mv	a0,s5
80002780:	7b0010ef          	jal	ra,80003f30 <__divsf3>
80002784:	85aa                	mv	a1,a0
80002786:	8552                	mv	a0,s4
80002788:	565010ef          	jal	ra,800044ec <__subsf3>
8000278c:	85ce                	mv	a1,s3
8000278e:	55f010ef          	jal	ra,800044ec <__subsf3>
80002792:	85aa                	mv	a1,a0
80002794:	0fffe517          	auipc	a0,0xfffe
80002798:	aa452503          	lw	a0,-1372(a0) # 90000238 <_impure_ptr+0x5c>
8000279c:	551010ef          	jal	ra,800044ec <__subsf3>
800027a0:	f8300793          	li	a5,-125
800027a4:	00f4c663          	blt	s1,a5,800027b0 <__ieee754_expf+0x226>
800027a8:	04de                	slli	s1,s1,0x17
800027aa:	00a48433          	add	s0,s1,a0
800027ae:	b529                	j	800025b8 <__ieee754_expf+0x2e>
800027b0:	06448493          	addi	s1,s1,100
800027b4:	04de                	slli	s1,s1,0x17
800027b6:	0fffe597          	auipc	a1,0xfffe
800027ba:	b425a583          	lw	a1,-1214(a1) # 900002f8 <_impure_ptr+0x11c>
800027be:	9526                	add	a0,a0,s1
800027c0:	b50d                	j	800025e2 <__ieee754_expf+0x58>
800027c2:	00000413          	li	s0,0
800027c6:	bbcd                	j	800025b8 <__ieee754_expf+0x2e>

800027c8 <__ieee754_logf>:
__ieee754_logf():
800027c8:	7179                	addi	sp,sp,-48
800027ca:	d606                	sw	ra,44(sp)
800027cc:	d422                	sw	s0,40(sp)
800027ce:	d226                	sw	s1,36(sp)
800027d0:	d04a                	sw	s2,32(sp)
800027d2:	ce4e                	sw	s3,28(sp)
800027d4:	cc52                	sw	s4,24(sp)
800027d6:	ca56                	sw	s5,20(sp)
800027d8:	c85a                	sw	s6,16(sp)
800027da:	c65e                	sw	s7,12(sp)
800027dc:	00151713          	slli	a4,a0,0x1
800027e0:	e705                	bnez	a4,80002808 <__ieee754_logf+0x40>
800027e2:	00000593          	li	a1,0
800027e6:	0fffe517          	auipc	a0,0xfffe
800027ea:	b1652503          	lw	a0,-1258(a0) # 900002fc <_impure_ptr+0x120>
800027ee:	742010ef          	jal	ra,80003f30 <__divsf3>
800027f2:	50b2                	lw	ra,44(sp)
800027f4:	5422                	lw	s0,40(sp)
800027f6:	5492                	lw	s1,36(sp)
800027f8:	5902                	lw	s2,32(sp)
800027fa:	49f2                	lw	s3,28(sp)
800027fc:	4a62                	lw	s4,24(sp)
800027fe:	4ad2                	lw	s5,20(sp)
80002800:	4b42                	lw	s6,16(sp)
80002802:	4bb2                	lw	s7,12(sp)
80002804:	6145                	addi	sp,sp,48
80002806:	8082                	ret
80002808:	85aa                	mv	a1,a0
8000280a:	87aa                	mv	a5,a0
8000280c:	00055763          	bgez	a0,8000281a <__ieee754_logf+0x52>
80002810:	4dd010ef          	jal	ra,800044ec <__subsf3>
80002814:	00000593          	li	a1,0
80002818:	bfd9                	j	800027ee <__ieee754_logf+0x26>
8000281a:	7f800737          	lui	a4,0x7f800
8000281e:	00e54563          	blt	a0,a4,80002828 <__ieee754_logf+0x60>
80002822:	3e8010ef          	jal	ra,80003c0a <__addsf3>
80002826:	b7f1                	j	800027f2 <__ieee754_logf+0x2a>
80002828:	008006b7          	lui	a3,0x800
8000282c:	4701                	li	a4,0
8000282e:	00d55a63          	bge	a0,a3,80002842 <__ieee754_logf+0x7a>
80002832:	0fffe597          	auipc	a1,0xfffe
80002836:	ace5a583          	lw	a1,-1330(a1) # 90000300 <_impure_ptr+0x124>
8000283a:	28f010ef          	jal	ra,800042c8 <__mulsf3>
8000283e:	87aa                	mv	a5,a0
80002840:	571d                	li	a4,-25
80002842:	008009b7          	lui	s3,0x800
80002846:	fff98493          	addi	s1,s3,-1 # 7fffff <__stack_size+0x7ff7ff>
8000284a:	8cfd                	and	s1,s1,a5
8000284c:	4177d913          	srai	s2,a5,0x17
80002850:	004b07b7          	lui	a5,0x4b0
80002854:	b2078793          	addi	a5,a5,-1248 # 4afb20 <__stack_size+0x4af320>
80002858:	97a6                	add	a5,a5,s1
8000285a:	0137f7b3          	and	a5,a5,s3
8000285e:	3f800537          	lui	a0,0x3f800
80002862:	8d3d                	xor	a0,a0,a5
80002864:	f8190913          	addi	s2,s2,-127
80002868:	974a                	add	a4,a4,s2
8000286a:	0fffe597          	auipc	a1,0xfffe
8000286e:	9ce5a583          	lw	a1,-1586(a1) # 90000238 <_impure_ptr+0x5c>
80002872:	4177d913          	srai	s2,a5,0x17
80002876:	8d45                	or	a0,a0,s1
80002878:	993a                	add	s2,s2,a4
8000287a:	473010ef          	jal	ra,800044ec <__subsf3>
8000287e:	00f48793          	addi	a5,s1,15
80002882:	19c1                	addi	s3,s3,-16
80002884:	0137f9b3          	and	s3,a5,s3
80002888:	842a                	mv	s0,a0
8000288a:	08099f63          	bnez	s3,80002928 <__ieee754_logf+0x160>
8000288e:	00000593          	li	a1,0
80002892:	0f3010ef          	jal	ra,80004184 <__eqsf2>
80002896:	e915                	bnez	a0,800028ca <__ieee754_logf+0x102>
80002898:	00000513          	li	a0,0
8000289c:	f4090be3          	beqz	s2,800027f2 <__ieee754_logf+0x2a>
800028a0:	854a                	mv	a0,s2
800028a2:	010020ef          	jal	ra,800048b2 <__floatsisf>
800028a6:	0fffe597          	auipc	a1,0xfffe
800028aa:	a365a583          	lw	a1,-1482(a1) # 900002dc <_impure_ptr+0x100>
800028ae:	84aa                	mv	s1,a0
800028b0:	219010ef          	jal	ra,800042c8 <__mulsf3>
800028b4:	842a                	mv	s0,a0
800028b6:	0fffe597          	auipc	a1,0xfffe
800028ba:	a2a5a583          	lw	a1,-1494(a1) # 900002e0 <_impure_ptr+0x104>
800028be:	8526                	mv	a0,s1
800028c0:	209010ef          	jal	ra,800042c8 <__mulsf3>
800028c4:	85aa                	mv	a1,a0
800028c6:	8522                	mv	a0,s0
800028c8:	bfa9                	j	80002822 <__ieee754_logf+0x5a>
800028ca:	0fffe597          	auipc	a1,0xfffe
800028ce:	9e65a583          	lw	a1,-1562(a1) # 900002b0 <_impure_ptr+0xd4>
800028d2:	8522                	mv	a0,s0
800028d4:	1f5010ef          	jal	ra,800042c8 <__mulsf3>
800028d8:	85aa                	mv	a1,a0
800028da:	0fffe517          	auipc	a0,0xfffe
800028de:	98252503          	lw	a0,-1662(a0) # 9000025c <_impure_ptr+0x80>
800028e2:	40b010ef          	jal	ra,800044ec <__subsf3>
800028e6:	84aa                	mv	s1,a0
800028e8:	85a2                	mv	a1,s0
800028ea:	8522                	mv	a0,s0
800028ec:	1dd010ef          	jal	ra,800042c8 <__mulsf3>
800028f0:	85aa                	mv	a1,a0
800028f2:	8526                	mv	a0,s1
800028f4:	1d5010ef          	jal	ra,800042c8 <__mulsf3>
800028f8:	84aa                	mv	s1,a0
800028fa:	00091463          	bnez	s2,80002902 <__ieee754_logf+0x13a>
800028fe:	85a6                	mv	a1,s1
80002900:	a22d                	j	80002a2a <__ieee754_logf+0x262>
80002902:	854a                	mv	a0,s2
80002904:	7af010ef          	jal	ra,800048b2 <__floatsisf>
80002908:	0fffe597          	auipc	a1,0xfffe
8000290c:	9d45a583          	lw	a1,-1580(a1) # 900002dc <_impure_ptr+0x100>
80002910:	89aa                	mv	s3,a0
80002912:	1b7010ef          	jal	ra,800042c8 <__mulsf3>
80002916:	892a                	mv	s2,a0
80002918:	0fffe597          	auipc	a1,0xfffe
8000291c:	9c85a583          	lw	a1,-1592(a1) # 900002e0 <_impure_ptr+0x104>
80002920:	854e                	mv	a0,s3
80002922:	1a7010ef          	jal	ra,800042c8 <__mulsf3>
80002926:	aa05                	j	80002a56 <__ieee754_logf+0x28e>
80002928:	0fffe597          	auipc	a1,0xfffe
8000292c:	9205a583          	lw	a1,-1760(a1) # 90000248 <_impure_ptr+0x6c>
80002930:	2da010ef          	jal	ra,80003c0a <__addsf3>
80002934:	85aa                	mv	a1,a0
80002936:	8522                	mv	a0,s0
80002938:	5f8010ef          	jal	ra,80003f30 <__divsf3>
8000293c:	8aaa                	mv	s5,a0
8000293e:	854a                	mv	a0,s2
80002940:	773010ef          	jal	ra,800048b2 <__floatsisf>
80002944:	85d6                	mv	a1,s5
80002946:	8a2a                	mv	s4,a0
80002948:	8556                	mv	a0,s5
8000294a:	17f010ef          	jal	ra,800042c8 <__mulsf3>
8000294e:	ffcf67b7          	lui	a5,0xffcf6
80002952:	c3078793          	addi	a5,a5,-976 # ffcf5c30 <_sp+0x6fce5c30>
80002956:	85aa                	mv	a1,a0
80002958:	00f48b33          	add	s6,s1,a5
8000295c:	8baa                	mv	s7,a0
8000295e:	16b010ef          	jal	ra,800042c8 <__mulsf3>
80002962:	0fffe597          	auipc	a1,0xfffe
80002966:	9a25a583          	lw	a1,-1630(a1) # 90000304 <_impure_ptr+0x128>
8000296a:	89aa                	mv	s3,a0
8000296c:	15d010ef          	jal	ra,800042c8 <__mulsf3>
80002970:	0fffe597          	auipc	a1,0xfffe
80002974:	9985a583          	lw	a1,-1640(a1) # 90000308 <_impure_ptr+0x12c>
80002978:	292010ef          	jal	ra,80003c0a <__addsf3>
8000297c:	85ce                	mv	a1,s3
8000297e:	14b010ef          	jal	ra,800042c8 <__mulsf3>
80002982:	0fffe597          	auipc	a1,0xfffe
80002986:	98a5a583          	lw	a1,-1654(a1) # 9000030c <_impure_ptr+0x130>
8000298a:	280010ef          	jal	ra,80003c0a <__addsf3>
8000298e:	85ce                	mv	a1,s3
80002990:	139010ef          	jal	ra,800042c8 <__mulsf3>
80002994:	0fffe597          	auipc	a1,0xfffe
80002998:	97c5a583          	lw	a1,-1668(a1) # 90000310 <_impure_ptr+0x134>
8000299c:	26e010ef          	jal	ra,80003c0a <__addsf3>
800029a0:	85de                	mv	a1,s7
800029a2:	127010ef          	jal	ra,800042c8 <__mulsf3>
800029a6:	8baa                	mv	s7,a0
800029a8:	0fffe597          	auipc	a1,0xfffe
800029ac:	96c5a583          	lw	a1,-1684(a1) # 90000314 <_impure_ptr+0x138>
800029b0:	854e                	mv	a0,s3
800029b2:	117010ef          	jal	ra,800042c8 <__mulsf3>
800029b6:	0fffe597          	auipc	a1,0xfffe
800029ba:	9625a583          	lw	a1,-1694(a1) # 90000318 <_impure_ptr+0x13c>
800029be:	24c010ef          	jal	ra,80003c0a <__addsf3>
800029c2:	85ce                	mv	a1,s3
800029c4:	105010ef          	jal	ra,800042c8 <__mulsf3>
800029c8:	0fffe597          	auipc	a1,0xfffe
800029cc:	9545a583          	lw	a1,-1708(a1) # 9000031c <_impure_ptr+0x140>
800029d0:	23a010ef          	jal	ra,80003c0a <__addsf3>
800029d4:	85ce                	mv	a1,s3
800029d6:	0f3010ef          	jal	ra,800042c8 <__mulsf3>
800029da:	85aa                	mv	a1,a0
800029dc:	855e                	mv	a0,s7
800029de:	22c010ef          	jal	ra,80003c0a <__addsf3>
800029e2:	0035c7b7          	lui	a5,0x35c
800029e6:	28878793          	addi	a5,a5,648 # 35c288 <__stack_size+0x35ba88>
800029ea:	8f85                	sub	a5,a5,s1
800029ec:	0167e7b3          	or	a5,a5,s6
800029f0:	89aa                	mv	s3,a0
800029f2:	06f05c63          	blez	a5,80002a6a <__ieee754_logf+0x2a2>
800029f6:	0fffe597          	auipc	a1,0xfffe
800029fa:	8665a583          	lw	a1,-1946(a1) # 9000025c <_impure_ptr+0x80>
800029fe:	8522                	mv	a0,s0
80002a00:	0c9010ef          	jal	ra,800042c8 <__mulsf3>
80002a04:	85a2                	mv	a1,s0
80002a06:	0c3010ef          	jal	ra,800042c8 <__mulsf3>
80002a0a:	85aa                	mv	a1,a0
80002a0c:	84aa                	mv	s1,a0
80002a0e:	854e                	mv	a0,s3
80002a10:	1fa010ef          	jal	ra,80003c0a <__addsf3>
80002a14:	85d6                	mv	a1,s5
80002a16:	0b3010ef          	jal	ra,800042c8 <__mulsf3>
80002a1a:	89aa                	mv	s3,a0
80002a1c:	00091b63          	bnez	s2,80002a32 <__ieee754_logf+0x26a>
80002a20:	85aa                	mv	a1,a0
80002a22:	8526                	mv	a0,s1
80002a24:	2c9010ef          	jal	ra,800044ec <__subsf3>
80002a28:	85aa                	mv	a1,a0
80002a2a:	8522                	mv	a0,s0
80002a2c:	2c1010ef          	jal	ra,800044ec <__subsf3>
80002a30:	b3c9                	j	800027f2 <__ieee754_logf+0x2a>
80002a32:	0fffe597          	auipc	a1,0xfffe
80002a36:	8aa5a583          	lw	a1,-1878(a1) # 900002dc <_impure_ptr+0x100>
80002a3a:	8552                	mv	a0,s4
80002a3c:	08d010ef          	jal	ra,800042c8 <__mulsf3>
80002a40:	0fffe597          	auipc	a1,0xfffe
80002a44:	8a05a583          	lw	a1,-1888(a1) # 900002e0 <_impure_ptr+0x104>
80002a48:	892a                	mv	s2,a0
80002a4a:	8552                	mv	a0,s4
80002a4c:	07d010ef          	jal	ra,800042c8 <__mulsf3>
80002a50:	85ce                	mv	a1,s3
80002a52:	1b8010ef          	jal	ra,80003c0a <__addsf3>
80002a56:	85aa                	mv	a1,a0
80002a58:	8526                	mv	a0,s1
80002a5a:	293010ef          	jal	ra,800044ec <__subsf3>
80002a5e:	85a2                	mv	a1,s0
80002a60:	28d010ef          	jal	ra,800044ec <__subsf3>
80002a64:	85aa                	mv	a1,a0
80002a66:	854a                	mv	a0,s2
80002a68:	b7d1                	j	80002a2c <__ieee754_logf+0x264>
80002a6a:	85aa                	mv	a1,a0
80002a6c:	8522                	mv	a0,s0
80002a6e:	27f010ef          	jal	ra,800044ec <__subsf3>
80002a72:	85d6                	mv	a1,s5
80002a74:	055010ef          	jal	ra,800042c8 <__mulsf3>
80002a78:	84aa                	mv	s1,a0
80002a7a:	e80902e3          	beqz	s2,800028fe <__ieee754_logf+0x136>
80002a7e:	0fffe597          	auipc	a1,0xfffe
80002a82:	85e5a583          	lw	a1,-1954(a1) # 900002dc <_impure_ptr+0x100>
80002a86:	8552                	mv	a0,s4
80002a88:	041010ef          	jal	ra,800042c8 <__mulsf3>
80002a8c:	892a                	mv	s2,a0
80002a8e:	0fffe597          	auipc	a1,0xfffe
80002a92:	8525a583          	lw	a1,-1966(a1) # 900002e0 <_impure_ptr+0x104>
80002a96:	8552                	mv	a0,s4
80002a98:	b569                	j	80002922 <__ieee754_logf+0x15a>

80002a9a <__ieee754_rem_pio2f>:
__ieee754_rem_pio2f():
80002a9a:	7139                	addi	sp,sp,-64
80002a9c:	da26                	sw	s1,52(sp)
80002a9e:	3f491737          	lui	a4,0x3f491
80002aa2:	00151493          	slli	s1,a0,0x1
80002aa6:	dc22                	sw	s0,56(sp)
80002aa8:	de06                	sw	ra,60(sp)
80002aaa:	d84a                	sw	s2,48(sp)
80002aac:	d64e                	sw	s3,44(sp)
80002aae:	d452                	sw	s4,40(sp)
80002ab0:	d256                	sw	s5,36(sp)
80002ab2:	d05a                	sw	s6,32(sp)
80002ab4:	ce5e                	sw	s7,28(sp)
80002ab6:	8085                	srli	s1,s1,0x1
80002ab8:	fd870713          	addi	a4,a4,-40 # 3f490fd8 <__stack_size+0x3f4907d8>
80002abc:	842e                	mv	s0,a1
80002abe:	00974863          	blt	a4,s1,80002ace <__ieee754_rem_pio2f+0x34>
80002ac2:	c008                	sw	a0,0(s0)
80002ac4:	00000793          	li	a5,0
80002ac8:	c1dc                	sw	a5,4(a1)
80002aca:	4b81                	li	s7,0
80002acc:	a899                	j	80002b22 <__ieee754_rem_pio2f+0x88>
80002ace:	4016d737          	lui	a4,0x4016d
80002ad2:	be370713          	addi	a4,a4,-1053 # 4016cbe3 <__stack_size+0x4016c3e3>
80002ad6:	892a                	mv	s2,a0
80002ad8:	0e974c63          	blt	a4,s1,80002bd0 <__ieee754_rem_pio2f+0x136>
80002adc:	98c1                	andi	s1,s1,-16
80002ade:	0fffe597          	auipc	a1,0xfffe
80002ae2:	8425a583          	lw	a1,-1982(a1) # 90000320 <_impure_ptr+0x144>
80002ae6:	08a05163          	blez	a0,80002b68 <__ieee754_rem_pio2f+0xce>
80002aea:	203010ef          	jal	ra,800044ec <__subsf3>
80002aee:	3fc917b7          	lui	a5,0x3fc91
80002af2:	fd078793          	addi	a5,a5,-48 # 3fc90fd0 <__stack_size+0x3fc907d0>
80002af6:	892a                	mv	s2,a0
80002af8:	04f48163          	beq	s1,a5,80002b3a <__ieee754_rem_pio2f+0xa0>
80002afc:	0fffe597          	auipc	a1,0xfffe
80002b00:	8285a583          	lw	a1,-2008(a1) # 90000324 <_impure_ptr+0x148>
80002b04:	1e9010ef          	jal	ra,800044ec <__subsf3>
80002b08:	85aa                	mv	a1,a0
80002b0a:	c008                	sw	a0,0(s0)
80002b0c:	854a                	mv	a0,s2
80002b0e:	1df010ef          	jal	ra,800044ec <__subsf3>
80002b12:	0fffe597          	auipc	a1,0xfffe
80002b16:	8125a583          	lw	a1,-2030(a1) # 90000324 <_impure_ptr+0x148>
80002b1a:	1d3010ef          	jal	ra,800044ec <__subsf3>
80002b1e:	c048                	sw	a0,4(s0)
80002b20:	4b85                	li	s7,1
80002b22:	50f2                	lw	ra,60(sp)
80002b24:	5462                	lw	s0,56(sp)
80002b26:	54d2                	lw	s1,52(sp)
80002b28:	5942                	lw	s2,48(sp)
80002b2a:	59b2                	lw	s3,44(sp)
80002b2c:	5a22                	lw	s4,40(sp)
80002b2e:	5a92                	lw	s5,36(sp)
80002b30:	5b02                	lw	s6,32(sp)
80002b32:	855e                	mv	a0,s7
80002b34:	4bf2                	lw	s7,28(sp)
80002b36:	6121                	addi	sp,sp,64
80002b38:	8082                	ret
80002b3a:	0fffd597          	auipc	a1,0xfffd
80002b3e:	7ee5a583          	lw	a1,2030(a1) # 90000328 <_impure_ptr+0x14c>
80002b42:	1ab010ef          	jal	ra,800044ec <__subsf3>
80002b46:	0fffd597          	auipc	a1,0xfffd
80002b4a:	7e65a583          	lw	a1,2022(a1) # 9000032c <_impure_ptr+0x150>
80002b4e:	84aa                	mv	s1,a0
80002b50:	19d010ef          	jal	ra,800044ec <__subsf3>
80002b54:	85aa                	mv	a1,a0
80002b56:	c008                	sw	a0,0(s0)
80002b58:	8526                	mv	a0,s1
80002b5a:	193010ef          	jal	ra,800044ec <__subsf3>
80002b5e:	0fffd597          	auipc	a1,0xfffd
80002b62:	7ce5a583          	lw	a1,1998(a1) # 9000032c <_impure_ptr+0x150>
80002b66:	bf55                	j	80002b1a <__ieee754_rem_pio2f+0x80>
80002b68:	0a2010ef          	jal	ra,80003c0a <__addsf3>
80002b6c:	3fc917b7          	lui	a5,0x3fc91
80002b70:	fd078793          	addi	a5,a5,-48 # 3fc90fd0 <__stack_size+0x3fc907d0>
80002b74:	892a                	mv	s2,a0
80002b76:	02f48663          	beq	s1,a5,80002ba2 <__ieee754_rem_pio2f+0x108>
80002b7a:	0fffd597          	auipc	a1,0xfffd
80002b7e:	7aa5a583          	lw	a1,1962(a1) # 90000324 <_impure_ptr+0x148>
80002b82:	088010ef          	jal	ra,80003c0a <__addsf3>
80002b86:	85aa                	mv	a1,a0
80002b88:	c008                	sw	a0,0(s0)
80002b8a:	854a                	mv	a0,s2
80002b8c:	161010ef          	jal	ra,800044ec <__subsf3>
80002b90:	0fffd597          	auipc	a1,0xfffd
80002b94:	7945a583          	lw	a1,1940(a1) # 90000324 <_impure_ptr+0x148>
80002b98:	072010ef          	jal	ra,80003c0a <__addsf3>
80002b9c:	c048                	sw	a0,4(s0)
80002b9e:	5bfd                	li	s7,-1
80002ba0:	b749                	j	80002b22 <__ieee754_rem_pio2f+0x88>
80002ba2:	0fffd597          	auipc	a1,0xfffd
80002ba6:	7865a583          	lw	a1,1926(a1) # 90000328 <_impure_ptr+0x14c>
80002baa:	060010ef          	jal	ra,80003c0a <__addsf3>
80002bae:	0fffd597          	auipc	a1,0xfffd
80002bb2:	77e5a583          	lw	a1,1918(a1) # 9000032c <_impure_ptr+0x150>
80002bb6:	84aa                	mv	s1,a0
80002bb8:	052010ef          	jal	ra,80003c0a <__addsf3>
80002bbc:	85aa                	mv	a1,a0
80002bbe:	c008                	sw	a0,0(s0)
80002bc0:	8526                	mv	a0,s1
80002bc2:	12b010ef          	jal	ra,800044ec <__subsf3>
80002bc6:	0fffd597          	auipc	a1,0xfffd
80002bca:	7665a583          	lw	a1,1894(a1) # 9000032c <_impure_ptr+0x150>
80002bce:	b7e9                	j	80002b98 <__ieee754_rem_pio2f+0xfe>
80002bd0:	43491737          	lui	a4,0x43491
80002bd4:	f8070713          	addi	a4,a4,-128 # 43490f80 <__stack_size+0x43490780>
80002bd8:	16974363          	blt	a4,s1,80002d3e <__ieee754_rem_pio2f+0x2a4>
80002bdc:	fe2ff0ef          	jal	ra,800023be <fabsf>
80002be0:	0fffd597          	auipc	a1,0xfffd
80002be4:	7505a583          	lw	a1,1872(a1) # 90000330 <_impure_ptr+0x154>
80002be8:	8a2a                	mv	s4,a0
80002bea:	6de010ef          	jal	ra,800042c8 <__mulsf3>
80002bee:	0fffd597          	auipc	a1,0xfffd
80002bf2:	66e5a583          	lw	a1,1646(a1) # 9000025c <_impure_ptr+0x80>
80002bf6:	014010ef          	jal	ra,80003c0a <__addsf3>
80002bfa:	459010ef          	jal	ra,80004852 <__fixsfsi>
80002bfe:	8baa                	mv	s7,a0
80002c00:	4b3010ef          	jal	ra,800048b2 <__floatsisf>
80002c04:	0fffd597          	auipc	a1,0xfffd
80002c08:	71c5a583          	lw	a1,1820(a1) # 90000320 <_impure_ptr+0x144>
80002c0c:	89aa                	mv	s3,a0
80002c0e:	6ba010ef          	jal	ra,800042c8 <__mulsf3>
80002c12:	85aa                	mv	a1,a0
80002c14:	8552                	mv	a0,s4
80002c16:	0d7010ef          	jal	ra,800044ec <__subsf3>
80002c1a:	8aaa                	mv	s5,a0
80002c1c:	0fffd597          	auipc	a1,0xfffd
80002c20:	7085a583          	lw	a1,1800(a1) # 90000324 <_impure_ptr+0x148>
80002c24:	854e                	mv	a0,s3
80002c26:	6a2010ef          	jal	ra,800042c8 <__mulsf3>
80002c2a:	47fd                	li	a5,31
80002c2c:	8a2a                	mv	s4,a0
80002c2e:	85aa                	mv	a1,a0
80002c30:	8556                	mv	a0,s5
80002c32:	0377c363          	blt	a5,s7,80002c58 <__ieee754_rem_pio2f+0x1be>
80002c36:	fffb8713          	addi	a4,s7,-1
80002c3a:	00271693          	slli	a3,a4,0x2
80002c3e:	00007717          	auipc	a4,0x7
80002c42:	0de70713          	addi	a4,a4,222 # 80009d1c <npio2_hw>
80002c46:	9736                	add	a4,a4,a3
80002c48:	4318                	lw	a4,0(a4)
80002c4a:	f004f793          	andi	a5,s1,-256
80002c4e:	00e78563          	beq	a5,a4,80002c58 <__ieee754_rem_pio2f+0x1be>
80002c52:	09b010ef          	jal	ra,800044ec <__subsf3>
80002c56:	a829                	j	80002c70 <__ieee754_rem_pio2f+0x1d6>
80002c58:	095010ef          	jal	ra,800044ec <__subsf3>
80002c5c:	01755793          	srli	a5,a0,0x17
80002c60:	84dd                	srai	s1,s1,0x17
80002c62:	0ff7f793          	andi	a5,a5,255
80002c66:	40f487b3          	sub	a5,s1,a5
80002c6a:	4721                	li	a4,8
80002c6c:	00f74463          	blt	a4,a5,80002c74 <__ieee754_rem_pio2f+0x1da>
80002c70:	c008                	sw	a0,0(s0)
80002c72:	a8b9                	j	80002cd0 <__ieee754_rem_pio2f+0x236>
80002c74:	0fffd597          	auipc	a1,0xfffd
80002c78:	6b45a583          	lw	a1,1716(a1) # 90000328 <_impure_ptr+0x14c>
80002c7c:	854e                	mv	a0,s3
80002c7e:	64a010ef          	jal	ra,800042c8 <__mulsf3>
80002c82:	8a2a                	mv	s4,a0
80002c84:	85aa                	mv	a1,a0
80002c86:	8556                	mv	a0,s5
80002c88:	065010ef          	jal	ra,800044ec <__subsf3>
80002c8c:	85aa                	mv	a1,a0
80002c8e:	8b2a                	mv	s6,a0
80002c90:	8556                	mv	a0,s5
80002c92:	05b010ef          	jal	ra,800044ec <__subsf3>
80002c96:	85d2                	mv	a1,s4
80002c98:	055010ef          	jal	ra,800044ec <__subsf3>
80002c9c:	8a2a                	mv	s4,a0
80002c9e:	0fffd597          	auipc	a1,0xfffd
80002ca2:	68e5a583          	lw	a1,1678(a1) # 9000032c <_impure_ptr+0x150>
80002ca6:	854e                	mv	a0,s3
80002ca8:	620010ef          	jal	ra,800042c8 <__mulsf3>
80002cac:	85d2                	mv	a1,s4
80002cae:	03f010ef          	jal	ra,800044ec <__subsf3>
80002cb2:	85aa                	mv	a1,a0
80002cb4:	8a2a                	mv	s4,a0
80002cb6:	855a                	mv	a0,s6
80002cb8:	035010ef          	jal	ra,800044ec <__subsf3>
80002cbc:	01755713          	srli	a4,a0,0x17
80002cc0:	0ff77713          	andi	a4,a4,255
80002cc4:	8c99                	sub	s1,s1,a4
80002cc6:	4765                	li	a4,25
80002cc8:	02974863          	blt	a4,s1,80002cf8 <__ieee754_rem_pio2f+0x25e>
80002ccc:	c008                	sw	a0,0(s0)
80002cce:	8ada                	mv	s5,s6
80002cd0:	4004                	lw	s1,0(s0)
80002cd2:	8556                	mv	a0,s5
80002cd4:	85a6                	mv	a1,s1
80002cd6:	017010ef          	jal	ra,800044ec <__subsf3>
80002cda:	85d2                	mv	a1,s4
80002cdc:	011010ef          	jal	ra,800044ec <__subsf3>
80002ce0:	c048                	sw	a0,4(s0)
80002ce2:	e40950e3          	bgez	s2,80002b22 <__ieee754_rem_pio2f+0x88>
80002ce6:	800007b7          	lui	a5,0x80000
80002cea:	8cbd                	xor	s1,s1,a5
80002cec:	c004                	sw	s1,0(s0)
80002cee:	8fa9                	xor	a5,a5,a0
80002cf0:	c05c                	sw	a5,4(s0)
80002cf2:	41700bb3          	neg	s7,s7
80002cf6:	b535                	j	80002b22 <__ieee754_rem_pio2f+0x88>
80002cf8:	0fffd597          	auipc	a1,0xfffd
80002cfc:	63c5a583          	lw	a1,1596(a1) # 90000334 <_impure_ptr+0x158>
80002d00:	854e                	mv	a0,s3
80002d02:	5c6010ef          	jal	ra,800042c8 <__mulsf3>
80002d06:	84aa                	mv	s1,a0
80002d08:	85aa                	mv	a1,a0
80002d0a:	855a                	mv	a0,s6
80002d0c:	7e0010ef          	jal	ra,800044ec <__subsf3>
80002d10:	85aa                	mv	a1,a0
80002d12:	8aaa                	mv	s5,a0
80002d14:	855a                	mv	a0,s6
80002d16:	7d6010ef          	jal	ra,800044ec <__subsf3>
80002d1a:	85a6                	mv	a1,s1
80002d1c:	7d0010ef          	jal	ra,800044ec <__subsf3>
80002d20:	84aa                	mv	s1,a0
80002d22:	0fffd597          	auipc	a1,0xfffd
80002d26:	6165a583          	lw	a1,1558(a1) # 90000338 <_impure_ptr+0x15c>
80002d2a:	854e                	mv	a0,s3
80002d2c:	59c010ef          	jal	ra,800042c8 <__mulsf3>
80002d30:	85a6                	mv	a1,s1
80002d32:	7ba010ef          	jal	ra,800044ec <__subsf3>
80002d36:	8a2a                	mv	s4,a0
80002d38:	85aa                	mv	a1,a0
80002d3a:	8556                	mv	a0,s5
80002d3c:	bf19                	j	80002c52 <__ieee754_rem_pio2f+0x1b8>
80002d3e:	7f800737          	lui	a4,0x7f800
80002d42:	00e4c863          	blt	s1,a4,80002d52 <__ieee754_rem_pio2f+0x2b8>
80002d46:	85aa                	mv	a1,a0
80002d48:	7a4010ef          	jal	ra,800044ec <__subsf3>
80002d4c:	c048                	sw	a0,4(s0)
80002d4e:	c008                	sw	a0,0(s0)
80002d50:	bbad                	j	80002aca <__ieee754_rem_pio2f+0x30>
80002d52:	4174da13          	srai	s4,s1,0x17
80002d56:	f7aa0a13          	addi	s4,s4,-134
80002d5a:	017a1793          	slli	a5,s4,0x17
80002d5e:	8c9d                	sub	s1,s1,a5
80002d60:	8526                	mv	a0,s1
80002d62:	2f1010ef          	jal	ra,80004852 <__fixsfsi>
80002d66:	34d010ef          	jal	ra,800048b2 <__floatsisf>
80002d6a:	85aa                	mv	a1,a0
80002d6c:	c22a                	sw	a0,4(sp)
80002d6e:	8526                	mv	a0,s1
80002d70:	77c010ef          	jal	ra,800044ec <__subsf3>
80002d74:	0fffd597          	auipc	a1,0xfffd
80002d78:	5c85a583          	lw	a1,1480(a1) # 9000033c <_impure_ptr+0x160>
80002d7c:	54c010ef          	jal	ra,800042c8 <__mulsf3>
80002d80:	89aa                	mv	s3,a0
80002d82:	2d1010ef          	jal	ra,80004852 <__fixsfsi>
80002d86:	32d010ef          	jal	ra,800048b2 <__floatsisf>
80002d8a:	85aa                	mv	a1,a0
80002d8c:	c42a                	sw	a0,8(sp)
80002d8e:	84aa                	mv	s1,a0
80002d90:	854e                	mv	a0,s3
80002d92:	75a010ef          	jal	ra,800044ec <__subsf3>
80002d96:	0fffd597          	auipc	a1,0xfffd
80002d9a:	5a65a583          	lw	a1,1446(a1) # 9000033c <_impure_ptr+0x160>
80002d9e:	52a010ef          	jal	ra,800042c8 <__mulsf3>
80002da2:	00000593          	li	a1,0
80002da6:	c62a                	sw	a0,12(sp)
80002da8:	3dc010ef          	jal	ra,80004184 <__eqsf2>
80002dac:	468d                	li	a3,3
80002dae:	e909                	bnez	a0,80002dc0 <__ieee754_rem_pio2f+0x326>
80002db0:	00000593          	li	a1,0
80002db4:	8526                	mv	a0,s1
80002db6:	3ce010ef          	jal	ra,80004184 <__eqsf2>
80002dba:	00a036b3          	snez	a3,a0
80002dbe:	0685                	addi	a3,a3,1
80002dc0:	00007797          	auipc	a5,0x7
80002dc4:	fdc78793          	addi	a5,a5,-36 # 80009d9c <two_over_pi>
80002dc8:	4709                	li	a4,2
80002dca:	8652                	mv	a2,s4
80002dcc:	85a2                	mv	a1,s0
80002dce:	0048                	addi	a0,sp,4
80002dd0:	2429                	jal	80002fda <__kernel_rem_pio2f>
80002dd2:	8baa                	mv	s7,a0
80002dd4:	d40957e3          	bgez	s2,80002b22 <__ieee754_rem_pio2f+0x88>
80002dd8:	4018                	lw	a4,0(s0)
80002dda:	405c                	lw	a5,4(s0)
80002ddc:	800006b7          	lui	a3,0x80000
80002de0:	8f35                	xor	a4,a4,a3
80002de2:	c018                	sw	a4,0(s0)
80002de4:	8fb5                	xor	a5,a5,a3
80002de6:	b729                	j	80002cf0 <__ieee754_rem_pio2f+0x256>

80002de8 <__ieee754_sqrtf>:
__ieee754_sqrtf():
80002de8:	1141                	addi	sp,sp,-16
80002dea:	00151713          	slli	a4,a0,0x1
80002dee:	c422                	sw	s0,8(sp)
80002df0:	c606                	sw	ra,12(sp)
80002df2:	8305                	srli	a4,a4,0x1
80002df4:	7f8007b7          	lui	a5,0x7f800
80002df8:	842a                	mv	s0,a0
80002dfa:	00f76f63          	bltu	a4,a5,80002e18 <__ieee754_sqrtf+0x30>
80002dfe:	85aa                	mv	a1,a0
80002e00:	4c8010ef          	jal	ra,800042c8 <__mulsf3>
80002e04:	85aa                	mv	a1,a0
80002e06:	8522                	mv	a0,s0
80002e08:	603000ef          	jal	ra,80003c0a <__addsf3>
80002e0c:	842a                	mv	s0,a0
80002e0e:	40b2                	lw	ra,12(sp)
80002e10:	8522                	mv	a0,s0
80002e12:	4422                	lw	s0,8(sp)
80002e14:	0141                	addi	sp,sp,16
80002e16:	8082                	ret
80002e18:	db7d                	beqz	a4,80002e0e <__ieee754_sqrtf+0x26>
80002e1a:	872a                	mv	a4,a0
80002e1c:	00055963          	bgez	a0,80002e2e <__ieee754_sqrtf+0x46>
80002e20:	85aa                	mv	a1,a0
80002e22:	6ca010ef          	jal	ra,800044ec <__subsf3>
80002e26:	85aa                	mv	a1,a0
80002e28:	108010ef          	jal	ra,80003f30 <__divsf3>
80002e2c:	b7c5                	j	80002e0c <__ieee754_sqrtf+0x24>
80002e2e:	8fe9                	and	a5,a5,a0
80002e30:	41755693          	srai	a3,a0,0x17
80002e34:	c3b5                	beqz	a5,80002e98 <__ieee754_sqrtf+0xb0>
80002e36:	f8168413          	addi	s0,a3,-127 # 7fffff81 <_sp+0xeffeff81>
80002e3a:	008006b7          	lui	a3,0x800
80002e3e:	fff68793          	addi	a5,a3,-1 # 7fffff <__stack_size+0x7ff7ff>
80002e42:	8ff9                	and	a5,a5,a4
80002e44:	00147713          	andi	a4,s0,1
80002e48:	8fd5                	or	a5,a5,a3
80002e4a:	c311                	beqz	a4,80002e4e <__ieee754_sqrtf+0x66>
80002e4c:	0786                	slli	a5,a5,0x1
80002e4e:	8405                	srai	s0,s0,0x1
80002e50:	0786                	slli	a5,a5,0x1
80002e52:	46e5                	li	a3,25
80002e54:	4501                	li	a0,0
80002e56:	4581                	li	a1,0
80002e58:	01000737          	lui	a4,0x1000
80002e5c:	00e58633          	add	a2,a1,a4
80002e60:	00c7c663          	blt	a5,a2,80002e6c <__ieee754_sqrtf+0x84>
80002e64:	00e605b3          	add	a1,a2,a4
80002e68:	8f91                	sub	a5,a5,a2
80002e6a:	953a                	add	a0,a0,a4
80002e6c:	16fd                	addi	a3,a3,-1
80002e6e:	0786                	slli	a5,a5,0x1
80002e70:	8305                	srli	a4,a4,0x1
80002e72:	f6ed                	bnez	a3,80002e5c <__ieee754_sqrtf+0x74>
80002e74:	c399                	beqz	a5,80002e7a <__ieee754_sqrtf+0x92>
80002e76:	0505                	addi	a0,a0,1
80002e78:	9979                	andi	a0,a0,-2
80002e7a:	8505                	srai	a0,a0,0x1
80002e7c:	3f0007b7          	lui	a5,0x3f000
80002e80:	953e                	add	a0,a0,a5
80002e82:	045e                	slli	s0,s0,0x17
80002e84:	942a                	add	s0,s0,a0
80002e86:	b761                	j	80002e0e <__ieee754_sqrtf+0x26>
80002e88:	0706                	slli	a4,a4,0x1
80002e8a:	0785                	addi	a5,a5,1
80002e8c:	00b77633          	and	a2,a4,a1
80002e90:	de65                	beqz	a2,80002e88 <__ieee754_sqrtf+0xa0>
80002e92:	17fd                	addi	a5,a5,-1
80002e94:	8e9d                	sub	a3,a3,a5
80002e96:	b745                	j	80002e36 <__ieee754_sqrtf+0x4e>
80002e98:	4781                	li	a5,0
80002e9a:	008005b7          	lui	a1,0x800
80002e9e:	b7fd                	j	80002e8c <__ieee754_sqrtf+0xa4>

80002ea0 <__kernel_cosf>:
__kernel_cosf():
80002ea0:	7179                	addi	sp,sp,-48
80002ea2:	d422                	sw	s0,40(sp)
80002ea4:	00151413          	slli	s0,a0,0x1
80002ea8:	d04a                	sw	s2,32(sp)
80002eaa:	cc52                	sw	s4,24(sp)
80002eac:	d606                	sw	ra,44(sp)
80002eae:	d226                	sw	s1,36(sp)
80002eb0:	ce4e                	sw	s3,28(sp)
80002eb2:	8005                	srli	s0,s0,0x1
80002eb4:	320007b7          	lui	a5,0x32000
80002eb8:	892a                	mv	s2,a0
80002eba:	8a2e                	mv	s4,a1
80002ebc:	00f45663          	bge	s0,a5,80002ec8 <__kernel_cosf+0x28>
80002ec0:	193010ef          	jal	ra,80004852 <__fixsfsi>
80002ec4:	10050663          	beqz	a0,80002fd0 <__kernel_cosf+0x130>
80002ec8:	85ca                	mv	a1,s2
80002eca:	854a                	mv	a0,s2
80002ecc:	3fc010ef          	jal	ra,800042c8 <__mulsf3>
80002ed0:	0fffd597          	auipc	a1,0xfffd
80002ed4:	38c5a583          	lw	a1,908(a1) # 9000025c <_impure_ptr+0x80>
80002ed8:	84aa                	mv	s1,a0
80002eda:	3ee010ef          	jal	ra,800042c8 <__mulsf3>
80002ede:	0fffd597          	auipc	a1,0xfffd
80002ee2:	4665a583          	lw	a1,1126(a1) # 90000344 <_impure_ptr+0x168>
80002ee6:	89aa                	mv	s3,a0
80002ee8:	8526                	mv	a0,s1
80002eea:	3de010ef          	jal	ra,800042c8 <__mulsf3>
80002eee:	0fffd597          	auipc	a1,0xfffd
80002ef2:	45a5a583          	lw	a1,1114(a1) # 90000348 <_impure_ptr+0x16c>
80002ef6:	515000ef          	jal	ra,80003c0a <__addsf3>
80002efa:	85a6                	mv	a1,s1
80002efc:	3cc010ef          	jal	ra,800042c8 <__mulsf3>
80002f00:	0fffd597          	auipc	a1,0xfffd
80002f04:	44c5a583          	lw	a1,1100(a1) # 9000034c <_impure_ptr+0x170>
80002f08:	5e4010ef          	jal	ra,800044ec <__subsf3>
80002f0c:	85a6                	mv	a1,s1
80002f0e:	3ba010ef          	jal	ra,800042c8 <__mulsf3>
80002f12:	0fffd597          	auipc	a1,0xfffd
80002f16:	43e5a583          	lw	a1,1086(a1) # 90000350 <_impure_ptr+0x174>
80002f1a:	4f1000ef          	jal	ra,80003c0a <__addsf3>
80002f1e:	85a6                	mv	a1,s1
80002f20:	3a8010ef          	jal	ra,800042c8 <__mulsf3>
80002f24:	0fffd597          	auipc	a1,0xfffd
80002f28:	4305a583          	lw	a1,1072(a1) # 90000354 <_impure_ptr+0x178>
80002f2c:	5c0010ef          	jal	ra,800044ec <__subsf3>
80002f30:	85a6                	mv	a1,s1
80002f32:	396010ef          	jal	ra,800042c8 <__mulsf3>
80002f36:	0fffd597          	auipc	a1,0xfffd
80002f3a:	4225a583          	lw	a1,1058(a1) # 90000358 <_impure_ptr+0x17c>
80002f3e:	4cd000ef          	jal	ra,80003c0a <__addsf3>
80002f42:	85a6                	mv	a1,s1
80002f44:	384010ef          	jal	ra,800042c8 <__mulsf3>
80002f48:	85a6                	mv	a1,s1
80002f4a:	37e010ef          	jal	ra,800042c8 <__mulsf3>
80002f4e:	84aa                	mv	s1,a0
80002f50:	85d2                	mv	a1,s4
80002f52:	854a                	mv	a0,s2
80002f54:	374010ef          	jal	ra,800042c8 <__mulsf3>
80002f58:	85aa                	mv	a1,a0
80002f5a:	8526                	mv	a0,s1
80002f5c:	590010ef          	jal	ra,800044ec <__subsf3>
80002f60:	3e99a7b7          	lui	a5,0x3e99a
80002f64:	99978793          	addi	a5,a5,-1639 # 3e999999 <__stack_size+0x3e999199>
80002f68:	84aa                	mv	s1,a0
80002f6a:	0287c563          	blt	a5,s0,80002f94 <__kernel_cosf+0xf4>
80002f6e:	85aa                	mv	a1,a0
80002f70:	854e                	mv	a0,s3
80002f72:	57a010ef          	jal	ra,800044ec <__subsf3>
80002f76:	85aa                	mv	a1,a0
80002f78:	0fffd517          	auipc	a0,0xfffd
80002f7c:	2c052503          	lw	a0,704(a0) # 90000238 <_impure_ptr+0x5c>
80002f80:	56c010ef          	jal	ra,800044ec <__subsf3>
80002f84:	50b2                	lw	ra,44(sp)
80002f86:	5422                	lw	s0,40(sp)
80002f88:	5492                	lw	s1,36(sp)
80002f8a:	5902                	lw	s2,32(sp)
80002f8c:	49f2                	lw	s3,28(sp)
80002f8e:	4a62                	lw	s4,24(sp)
80002f90:	6145                	addi	sp,sp,48
80002f92:	8082                	ret
80002f94:	3f4807b7          	lui	a5,0x3f480
80002f98:	0287c763          	blt	a5,s0,80002fc6 <__kernel_cosf+0x126>
80002f9c:	ff0005b7          	lui	a1,0xff000
80002fa0:	95a2                	add	a1,a1,s0
80002fa2:	0fffd517          	auipc	a0,0xfffd
80002fa6:	29652503          	lw	a0,662(a0) # 90000238 <_impure_ptr+0x5c>
80002faa:	c62e                	sw	a1,12(sp)
80002fac:	540010ef          	jal	ra,800044ec <__subsf3>
80002fb0:	45b2                	lw	a1,12(sp)
80002fb2:	842a                	mv	s0,a0
80002fb4:	854e                	mv	a0,s3
80002fb6:	536010ef          	jal	ra,800044ec <__subsf3>
80002fba:	85a6                	mv	a1,s1
80002fbc:	530010ef          	jal	ra,800044ec <__subsf3>
80002fc0:	85aa                	mv	a1,a0
80002fc2:	8522                	mv	a0,s0
80002fc4:	bf75                	j	80002f80 <__kernel_cosf+0xe0>
80002fc6:	0fffd597          	auipc	a1,0xfffd
80002fca:	37a5a583          	lw	a1,890(a1) # 90000340 <_impure_ptr+0x164>
80002fce:	bfd1                	j	80002fa2 <__kernel_cosf+0x102>
80002fd0:	0fffd517          	auipc	a0,0xfffd
80002fd4:	26852503          	lw	a0,616(a0) # 90000238 <_impure_ptr+0x5c>
80002fd8:	b775                	j	80002f84 <__kernel_cosf+0xe4>

80002fda <__kernel_rem_pio2f>:
__kernel_rem_pio2f():
80002fda:	7125                	addi	sp,sp,-416
80002fdc:	19512223          	sw	s5,388(sp)
80002fe0:	c63e                	sw	a5,12(sp)
80002fe2:	8aba                	mv	s5,a4
80002fe4:	00007797          	auipc	a5,0x7
80002fe8:	0fc78793          	addi	a5,a5,252 # 8000a0e0 <init_jk>
80002fec:	070a                	slli	a4,a4,0x2
80002fee:	97ba                	add	a5,a5,a4
80002ff0:	19312623          	sw	s3,396(sp)
80002ff4:	17712e23          	sw	s7,380(sp)
80002ff8:	17812c23          	sw	s8,376(sp)
80002ffc:	17912a23          	sw	s9,372(sp)
80003000:	17a12823          	sw	s10,368(sp)
80003004:	17b12623          	sw	s11,364(sp)
80003008:	18112e23          	sw	ra,412(sp)
8000300c:	18812c23          	sw	s0,408(sp)
80003010:	18912a23          	sw	s1,404(sp)
80003014:	19212823          	sw	s2,400(sp)
80003018:	19412423          	sw	s4,392(sp)
8000301c:	19612023          	sw	s6,384(sp)
80003020:	c42a                	sw	a0,8(sp)
80003022:	5771                	li	a4,-4
80003024:	0007ab83          	lw	s7,0(a5)
80003028:	89ae                	mv	s3,a1
8000302a:	8c32                	mv	s8,a2
8000302c:	8cb6                	mv	s9,a3
8000302e:	fff68d93          	addi	s11,a3,-1
80003032:	4d01                	li	s10,0
80003034:	00e64763          	blt	a2,a4,80003042 <__kernel_rem_pio2f+0x68>
80003038:	ffd60713          	addi	a4,a2,-3
8000303c:	47a1                	li	a5,8
8000303e:	02f74d33          	div	s10,a4,a5
80003042:	001d0793          	addi	a5,s10,1
80003046:	078e                	slli	a5,a5,0x3
80003048:	41bd0a33          	sub	s4,s10,s11
8000304c:	c23e                	sw	a5,4(sp)
8000304e:	40fc04b3          	sub	s1,s8,a5
80003052:	01bb8b33          	add	s6,s7,s11
80003056:	07010913          	addi	s2,sp,112
8000305a:	8452                	mv	s0,s4
8000305c:	41440733          	sub	a4,s0,s4
80003060:	02eb5063          	bge	s6,a4,80003080 <__kernel_rem_pio2f+0xa6>
80003064:	8b66                	mv	s6,s9
80003066:	0a18                	addi	a4,sp,272
80003068:	419b06b3          	sub	a3,s6,s9
8000306c:	06dbc263          	blt	s7,a3,800030d0 <__kernel_rem_pio2f+0xf6>
80003070:	002b1913          	slli	s2,s6,0x2
80003074:	189c                	addi	a5,sp,112
80003076:	993e                	add	s2,s2,a5
80003078:	00000413          	li	s0,0
8000307c:	4a01                	li	s4,0
8000307e:	a091                	j	800030c2 <__kernel_rem_pio2f+0xe8>
80003080:	00000513          	li	a0,0
80003084:	00044963          	bltz	s0,80003096 <__kernel_rem_pio2f+0xbc>
80003088:	47b2                	lw	a5,12(sp)
8000308a:	00241713          	slli	a4,s0,0x2
8000308e:	973e                	add	a4,a4,a5
80003090:	4308                	lw	a0,0(a4)
80003092:	021010ef          	jal	ra,800048b2 <__floatsisf>
80003096:	00a92023          	sw	a0,0(s2)
8000309a:	0405                	addi	s0,s0,1
8000309c:	0911                	addi	s2,s2,4
8000309e:	bf7d                	j	8000305c <__kernel_rem_pio2f+0x82>
800030a0:	47a2                	lw	a5,8(sp)
800030a2:	002a1693          	slli	a3,s4,0x2
800030a6:	00092583          	lw	a1,0(s2)
800030aa:	96be                	add	a3,a3,a5
800030ac:	4288                	lw	a0,0(a3)
800030ae:	c83a                	sw	a4,16(sp)
800030b0:	0a05                	addi	s4,s4,1
800030b2:	216010ef          	jal	ra,800042c8 <__mulsf3>
800030b6:	85aa                	mv	a1,a0
800030b8:	8522                	mv	a0,s0
800030ba:	351000ef          	jal	ra,80003c0a <__addsf3>
800030be:	4742                	lw	a4,16(sp)
800030c0:	842a                	mv	s0,a0
800030c2:	1971                	addi	s2,s2,-4
800030c4:	fd4ddee3          	bge	s11,s4,800030a0 <__kernel_rem_pio2f+0xc6>
800030c8:	c300                	sw	s0,0(a4)
800030ca:	0b05                	addi	s6,s6,1
800030cc:	0711                	addi	a4,a4,4
800030ce:	bf69                	j	80003068 <__kernel_rem_pio2f+0x8e>
800030d0:	002b9713          	slli	a4,s7,0x2
800030d4:	101c                	addi	a5,sp,32
800030d6:	97ba                	add	a5,a5,a4
800030d8:	cc3e                	sw	a5,24(sp)
800030da:	002d1793          	slli	a5,s10,0x2
800030de:	ca3e                	sw	a5,20(sp)
800030e0:	895e                	mv	s2,s7
800030e2:	00291793          	slli	a5,s2,0x2
800030e6:	c83e                	sw	a5,16(sp)
800030e8:	00291713          	slli	a4,s2,0x2
800030ec:	129c                	addi	a5,sp,352
800030ee:	97ba                	add	a5,a5,a4
800030f0:	fb07a403          	lw	s0,-80(a5)
800030f4:	02010b13          	addi	s6,sp,32
800030f8:	8d5a                	mv	s10,s6
800030fa:	8a4a                	mv	s4,s2
800030fc:	15404163          	bgtz	s4,8000323e <__kernel_rem_pio2f+0x264>
80003100:	85a6                	mv	a1,s1
80003102:	8522                	mv	a0,s0
80003104:	6c6000ef          	jal	ra,800037ca <scalbnf>
80003108:	0fffd797          	auipc	a5,0xfffd
8000310c:	25878793          	addi	a5,a5,600 # 90000360 <_impure_ptr+0x184>
80003110:	438c                	lw	a1,0(a5)
80003112:	842a                	mv	s0,a0
80003114:	1b4010ef          	jal	ra,800042c8 <__mulsf3>
80003118:	2bfd                	jal	80003716 <floorf>
8000311a:	0fffd797          	auipc	a5,0xfffd
8000311e:	24a78793          	addi	a5,a5,586 # 90000364 <_impure_ptr+0x188>
80003122:	438c                	lw	a1,0(a5)
80003124:	1a4010ef          	jal	ra,800042c8 <__mulsf3>
80003128:	85aa                	mv	a1,a0
8000312a:	8522                	mv	a0,s0
8000312c:	3c0010ef          	jal	ra,800044ec <__subsf3>
80003130:	842a                	mv	s0,a0
80003132:	720010ef          	jal	ra,80004852 <__fixsfsi>
80003136:	8a2a                	mv	s4,a0
80003138:	77a010ef          	jal	ra,800048b2 <__floatsisf>
8000313c:	85aa                	mv	a1,a0
8000313e:	8522                	mv	a0,s0
80003140:	3ac010ef          	jal	ra,800044ec <__subsf3>
80003144:	8d2a                	mv	s10,a0
80003146:	14905563          	blez	s1,80003290 <__kernel_rem_pio2f+0x2b6>
8000314a:	fff90713          	addi	a4,s2,-1
8000314e:	070a                	slli	a4,a4,0x2
80003150:	129c                	addi	a5,sp,352
80003152:	973e                	add	a4,a4,a5
80003154:	ec072403          	lw	s0,-320(a4) # fffec0 <__stack_size+0xfff6c0>
80003158:	4621                	li	a2,8
8000315a:	409605b3          	sub	a1,a2,s1
8000315e:	40b45633          	sra	a2,s0,a1
80003162:	9a32                	add	s4,s4,a2
80003164:	00b61633          	sll	a2,a2,a1
80003168:	8c11                	sub	s0,s0,a2
8000316a:	ec872023          	sw	s0,-320(a4)
8000316e:	471d                	li	a4,7
80003170:	8f05                	sub	a4,a4,s1
80003172:	40e45433          	sra	s0,s0,a4
80003176:	04805e63          	blez	s0,800031d2 <__kernel_rem_pio2f+0x1f8>
8000317a:	0a05                	addi	s4,s4,1
8000317c:	4581                	li	a1,0
8000317e:	4601                	li	a2,0
80003180:	0ff00513          	li	a0,255
80003184:	10000813          	li	a6,256
80003188:	1325ca63          	blt	a1,s2,800032bc <__kernel_rem_pio2f+0x2e2>
8000318c:	00905863          	blez	s1,8000319c <__kernel_rem_pio2f+0x1c2>
80003190:	4705                	li	a4,1
80003192:	14e48863          	beq	s1,a4,800032e2 <__kernel_rem_pio2f+0x308>
80003196:	4709                	li	a4,2
80003198:	16e48163          	beq	s1,a4,800032fa <__kernel_rem_pio2f+0x320>
8000319c:	4709                	li	a4,2
8000319e:	02e41a63          	bne	s0,a4,800031d2 <__kernel_rem_pio2f+0x1f8>
800031a2:	0fffd797          	auipc	a5,0xfffd
800031a6:	09678793          	addi	a5,a5,150 # 90000238 <_impure_ptr+0x5c>
800031aa:	4388                	lw	a0,0(a5)
800031ac:	85ea                	mv	a1,s10
800031ae:	ce32                	sw	a2,28(sp)
800031b0:	33c010ef          	jal	ra,800044ec <__subsf3>
800031b4:	4672                	lw	a2,28(sp)
800031b6:	8d2a                	mv	s10,a0
800031b8:	ce09                	beqz	a2,800031d2 <__kernel_rem_pio2f+0x1f8>
800031ba:	0fffd797          	auipc	a5,0xfffd
800031be:	07e78793          	addi	a5,a5,126 # 90000238 <_impure_ptr+0x5c>
800031c2:	4388                	lw	a0,0(a5)
800031c4:	85a6                	mv	a1,s1
800031c6:	2511                	jal	800037ca <scalbnf>
800031c8:	85aa                	mv	a1,a0
800031ca:	856a                	mv	a0,s10
800031cc:	320010ef          	jal	ra,800044ec <__subsf3>
800031d0:	8d2a                	mv	s10,a0
800031d2:	00000593          	li	a1,0
800031d6:	856a                	mv	a0,s10
800031d8:	7ad000ef          	jal	ra,80004184 <__eqsf2>
800031dc:	1c051063          	bnez	a0,8000339c <__kernel_rem_pio2f+0x3c2>
800031e0:	fff90b13          	addi	s6,s2,-1
800031e4:	87da                	mv	a5,s6
800031e6:	4701                	li	a4,0
800031e8:	1377d363          	bge	a5,s7,8000330e <__kernel_rem_pio2f+0x334>
800031ec:	16070f63          	beqz	a4,8000336a <__kernel_rem_pio2f+0x390>
800031f0:	002b1793          	slli	a5,s6,0x2
800031f4:	1018                	addi	a4,sp,32
800031f6:	97ba                	add	a5,a5,a4
800031f8:	439c                	lw	a5,0(a5)
800031fa:	14e1                	addi	s1,s1,-8
800031fc:	18078e63          	beqz	a5,80003398 <__kernel_rem_pio2f+0x3be>
80003200:	85a6                	mv	a1,s1
80003202:	0fffd517          	auipc	a0,0xfffd
80003206:	03652503          	lw	a0,54(a0) # 90000238 <_impure_ptr+0x5c>
8000320a:	23c1                	jal	800037ca <scalbnf>
8000320c:	84aa                	mv	s1,a0
8000320e:	895a                	mv	s2,s6
80003210:	0fffdc17          	auipc	s8,0xfffd
80003214:	14cc2c03          	lw	s8,332(s8) # 9000035c <_impure_ptr+0x180>
80003218:	20095463          	bgez	s2,80003420 <__kernel_rem_pio2f+0x446>
8000321c:	895a                	mv	s2,s6
8000321e:	26094063          	bltz	s2,8000347e <__kernel_rem_pio2f+0x4a4>
80003222:	00291c93          	slli	s9,s2,0x2
80003226:	0a1c                	addi	a5,sp,272
80003228:	00007d97          	auipc	s11,0x7
8000322c:	e8cd8d93          	addi	s11,s11,-372 # 8000a0b4 <PIo2>
80003230:	9cbe                	add	s9,s9,a5
80003232:	00000c13          	li	s8,0
80003236:	4d01                	li	s10,0
80003238:	412b04b3          	sub	s1,s6,s2
8000323c:	a435                	j	80003468 <__kernel_rem_pio2f+0x48e>
8000323e:	0fffd797          	auipc	a5,0xfffd
80003242:	11e78793          	addi	a5,a5,286 # 9000035c <_impure_ptr+0x180>
80003246:	438c                	lw	a1,0(a5)
80003248:	8522                	mv	a0,s0
8000324a:	1a7d                	addi	s4,s4,-1
8000324c:	07c010ef          	jal	ra,800042c8 <__mulsf3>
80003250:	602010ef          	jal	ra,80004852 <__fixsfsi>
80003254:	65e010ef          	jal	ra,800048b2 <__floatsisf>
80003258:	0fffd797          	auipc	a5,0xfffd
8000325c:	0e478793          	addi	a5,a5,228 # 9000033c <_impure_ptr+0x160>
80003260:	438c                	lw	a1,0(a5)
80003262:	ce2a                	sw	a0,28(sp)
80003264:	0d11                	addi	s10,s10,4
80003266:	062010ef          	jal	ra,800042c8 <__mulsf3>
8000326a:	85aa                	mv	a1,a0
8000326c:	8522                	mv	a0,s0
8000326e:	27e010ef          	jal	ra,800044ec <__subsf3>
80003272:	5e0010ef          	jal	ra,80004852 <__fixsfsi>
80003276:	0a1c                	addi	a5,sp,272
80003278:	002a1613          	slli	a2,s4,0x2
8000327c:	4772                	lw	a4,28(sp)
8000327e:	963e                	add	a2,a2,a5
80003280:	420c                	lw	a1,0(a2)
80003282:	fead2e23          	sw	a0,-4(s10)
80003286:	853a                	mv	a0,a4
80003288:	183000ef          	jal	ra,80003c0a <__addsf3>
8000328c:	842a                	mv	s0,a0
8000328e:	b5bd                	j	800030fc <__kernel_rem_pio2f+0x122>
80003290:	e891                	bnez	s1,800032a4 <__kernel_rem_pio2f+0x2ca>
80003292:	fff90713          	addi	a4,s2,-1
80003296:	070a                	slli	a4,a4,0x2
80003298:	129c                	addi	a5,sp,352
8000329a:	973e                	add	a4,a4,a5
8000329c:	ec072403          	lw	s0,-320(a4)
800032a0:	8421                	srai	s0,s0,0x8
800032a2:	bdd1                	j	80003176 <__kernel_rem_pio2f+0x19c>
800032a4:	0fffd797          	auipc	a5,0xfffd
800032a8:	fb878793          	addi	a5,a5,-72 # 9000025c <_impure_ptr+0x80>
800032ac:	438c                	lw	a1,0(a5)
800032ae:	4401                	li	s0,0
800032b0:	729000ef          	jal	ra,800041d8 <__gesf2>
800032b4:	f0054fe3          	bltz	a0,800031d2 <__kernel_rem_pio2f+0x1f8>
800032b8:	4409                	li	s0,2
800032ba:	b5c1                	j	8000317a <__kernel_rem_pio2f+0x1a0>
800032bc:	000b2703          	lw	a4,0(s6)
800032c0:	ea19                	bnez	a2,800032d6 <__kernel_rem_pio2f+0x2fc>
800032c2:	c711                	beqz	a4,800032ce <__kernel_rem_pio2f+0x2f4>
800032c4:	40e80733          	sub	a4,a6,a4
800032c8:	00eb2023          	sw	a4,0(s6)
800032cc:	4705                	li	a4,1
800032ce:	0585                	addi	a1,a1,1
800032d0:	0b11                	addi	s6,s6,4
800032d2:	863a                	mv	a2,a4
800032d4:	bd55                	j	80003188 <__kernel_rem_pio2f+0x1ae>
800032d6:	40e50733          	sub	a4,a0,a4
800032da:	00eb2023          	sw	a4,0(s6)
800032de:	8732                	mv	a4,a2
800032e0:	b7fd                	j	800032ce <__kernel_rem_pio2f+0x2f4>
800032e2:	fff90713          	addi	a4,s2,-1
800032e6:	070a                	slli	a4,a4,0x2
800032e8:	129c                	addi	a5,sp,352
800032ea:	973e                	add	a4,a4,a5
800032ec:	ec072683          	lw	a3,-320(a4)
800032f0:	07f6f693          	andi	a3,a3,127
800032f4:	ecd72023          	sw	a3,-320(a4)
800032f8:	b555                	j	8000319c <__kernel_rem_pio2f+0x1c2>
800032fa:	fff90713          	addi	a4,s2,-1
800032fe:	070a                	slli	a4,a4,0x2
80003300:	129c                	addi	a5,sp,352
80003302:	973e                	add	a4,a4,a5
80003304:	ec072683          	lw	a3,-320(a4)
80003308:	03f6f693          	andi	a3,a3,63
8000330c:	b7e5                	j	800032f4 <__kernel_rem_pio2f+0x31a>
8000330e:	00279693          	slli	a3,a5,0x2
80003312:	1010                	addi	a2,sp,32
80003314:	96b2                	add	a3,a3,a2
80003316:	4294                	lw	a3,0(a3)
80003318:	17fd                	addi	a5,a5,-1
8000331a:	8f55                	or	a4,a4,a3
8000331c:	b5f1                	j	800031e8 <__kernel_rem_pio2f+0x20e>
8000331e:	0785                	addi	a5,a5,1
80003320:	1771                	addi	a4,a4,-4
80003322:	4314                	lw	a3,0(a4)
80003324:	deed                	beqz	a3,8000331e <__kernel_rem_pio2f+0x344>
80003326:	01990a33          	add	s4,s2,s9
8000332a:	0a0a                	slli	s4,s4,0x2
8000332c:	1898                	addi	a4,sp,112
8000332e:	00190d13          	addi	s10,s2,1
80003332:	9a3a                	add	s4,s4,a4
80003334:	993e                	add	s2,s2,a5
80003336:	dba946e3          	blt	s2,s10,800030e2 <__kernel_rem_pio2f+0x108>
8000333a:	47d2                	lw	a5,20(sp)
8000333c:	4732                	lw	a4,12(sp)
8000333e:	002d1413          	slli	s0,s10,0x2
80003342:	97a2                	add	a5,a5,s0
80003344:	97ba                	add	a5,a5,a4
80003346:	4388                	lw	a0,0(a5)
80003348:	00000b13          	li	s6,0
8000334c:	566010ef          	jal	ra,800048b2 <__floatsisf>
80003350:	00aa2023          	sw	a0,0(s4)
80003354:	8752                	mv	a4,s4
80003356:	4781                	li	a5,0
80003358:	00fddc63          	bge	s11,a5,80003370 <__kernel_rem_pio2f+0x396>
8000335c:	0a1c                	addi	a5,sp,272
8000335e:	943e                	add	s0,s0,a5
80003360:	01642023          	sw	s6,0(s0)
80003364:	0d05                	addi	s10,s10,1
80003366:	0a11                	addi	s4,s4,4
80003368:	b7f9                	j	80003336 <__kernel_rem_pio2f+0x35c>
8000336a:	4762                	lw	a4,24(sp)
8000336c:	4785                	li	a5,1
8000336e:	bf4d                	j	80003320 <__kernel_rem_pio2f+0x346>
80003370:	00279693          	slli	a3,a5,0x2
80003374:	ce3e                	sw	a5,28(sp)
80003376:	47a2                	lw	a5,8(sp)
80003378:	430c                	lw	a1,0(a4)
8000337a:	c83a                	sw	a4,16(sp)
8000337c:	96be                	add	a3,a3,a5
8000337e:	4288                	lw	a0,0(a3)
80003380:	749000ef          	jal	ra,800042c8 <__mulsf3>
80003384:	85aa                	mv	a1,a0
80003386:	855a                	mv	a0,s6
80003388:	083000ef          	jal	ra,80003c0a <__addsf3>
8000338c:	47f2                	lw	a5,28(sp)
8000338e:	4742                	lw	a4,16(sp)
80003390:	8b2a                	mv	s6,a0
80003392:	0785                	addi	a5,a5,1
80003394:	1771                	addi	a4,a4,-4
80003396:	b7c9                	j	80003358 <__kernel_rem_pio2f+0x37e>
80003398:	1b7d                	addi	s6,s6,-1
8000339a:	bd99                	j	800031f0 <__kernel_rem_pio2f+0x216>
8000339c:	4792                	lw	a5,4(sp)
8000339e:	856a                	mv	a0,s10
800033a0:	418785b3          	sub	a1,a5,s8
800033a4:	211d                	jal	800037ca <scalbnf>
800033a6:	0fffdd17          	auipc	s10,0xfffd
800033aa:	f96d2d03          	lw	s10,-106(s10) # 9000033c <_impure_ptr+0x160>
800033ae:	85ea                	mv	a1,s10
800033b0:	8c2a                	mv	s8,a0
800033b2:	627000ef          	jal	ra,800041d8 <__gesf2>
800033b6:	04054a63          	bltz	a0,8000340a <__kernel_rem_pio2f+0x430>
800033ba:	0fffd597          	auipc	a1,0xfffd
800033be:	fa25a583          	lw	a1,-94(a1) # 9000035c <_impure_ptr+0x180>
800033c2:	8562                	mv	a0,s8
800033c4:	705000ef          	jal	ra,800042c8 <__mulsf3>
800033c8:	48a010ef          	jal	ra,80004852 <__fixsfsi>
800033cc:	4e6010ef          	jal	ra,800048b2 <__floatsisf>
800033d0:	4742                	lw	a4,16(sp)
800033d2:	129c                	addi	a5,sp,352
800033d4:	85ea                	mv	a1,s10
800033d6:	00e78b33          	add	s6,a5,a4
800033da:	8caa                	mv	s9,a0
800033dc:	6ed000ef          	jal	ra,800042c8 <__mulsf3>
800033e0:	85aa                	mv	a1,a0
800033e2:	8562                	mv	a0,s8
800033e4:	108010ef          	jal	ra,800044ec <__subsf3>
800033e8:	46a010ef          	jal	ra,80004852 <__fixsfsi>
800033ec:	ecab2023          	sw	a0,-320(s6)
800033f0:	00190b13          	addi	s6,s2,1
800033f4:	129c                	addi	a5,sp,352
800033f6:	002b1913          	slli	s2,s6,0x2
800033fa:	8566                	mv	a0,s9
800033fc:	993e                	add	s2,s2,a5
800033fe:	454010ef          	jal	ra,80004852 <__fixsfsi>
80003402:	04a1                	addi	s1,s1,8
80003404:	eca92023          	sw	a0,-320(s2)
80003408:	bbe5                	j	80003200 <__kernel_rem_pio2f+0x226>
8000340a:	4742                	lw	a4,16(sp)
8000340c:	129c                	addi	a5,sp,352
8000340e:	8562                	mv	a0,s8
80003410:	00e78b33          	add	s6,a5,a4
80003414:	43e010ef          	jal	ra,80004852 <__fixsfsi>
80003418:	ecab2023          	sw	a0,-320(s6)
8000341c:	8b4a                	mv	s6,s2
8000341e:	b3cd                	j	80003200 <__kernel_rem_pio2f+0x226>
80003420:	00291793          	slli	a5,s2,0x2
80003424:	0a18                	addi	a4,sp,272
80003426:	00f70cb3          	add	s9,a4,a5
8000342a:	1018                	addi	a4,sp,32
8000342c:	97ba                	add	a5,a5,a4
8000342e:	4388                	lw	a0,0(a5)
80003430:	197d                	addi	s2,s2,-1
80003432:	480010ef          	jal	ra,800048b2 <__floatsisf>
80003436:	85a6                	mv	a1,s1
80003438:	691000ef          	jal	ra,800042c8 <__mulsf3>
8000343c:	00aca023          	sw	a0,0(s9)
80003440:	85e2                	mv	a1,s8
80003442:	8526                	mv	a0,s1
80003444:	685000ef          	jal	ra,800042c8 <__mulsf3>
80003448:	84aa                	mv	s1,a0
8000344a:	b3f9                	j	80003218 <__kernel_rem_pio2f+0x23e>
8000344c:	000ca583          	lw	a1,0(s9)
80003450:	000da503          	lw	a0,0(s11)
80003454:	0d05                	addi	s10,s10,1
80003456:	0d91                	addi	s11,s11,4
80003458:	671000ef          	jal	ra,800042c8 <__mulsf3>
8000345c:	85aa                	mv	a1,a0
8000345e:	8562                	mv	a0,s8
80003460:	7aa000ef          	jal	ra,80003c0a <__addsf3>
80003464:	8c2a                	mv	s8,a0
80003466:	0c91                	addi	s9,s9,4
80003468:	01abc463          	blt	s7,s10,80003470 <__kernel_rem_pio2f+0x496>
8000346c:	ffa4d0e3          	bge	s1,s10,8000344c <__kernel_rem_pio2f+0x472>
80003470:	048a                	slli	s1,s1,0x2
80003472:	129c                	addi	a5,sp,352
80003474:	94be                	add	s1,s1,a5
80003476:	f784a023          	sw	s8,-160(s1)
8000347a:	197d                	addi	s2,s2,-1
8000347c:	b34d                	j	8000321e <__kernel_rem_pio2f+0x244>
8000347e:	4789                	li	a5,2
80003480:	0557c663          	blt	a5,s5,800034cc <__kernel_rem_pio2f+0x4f2>
80003484:	0f504763          	bgtz	s5,80003572 <__kernel_rem_pio2f+0x598>
80003488:	00000513          	li	a0,0
8000348c:	080a8963          	beqz	s5,8000351e <__kernel_rem_pio2f+0x544>
80003490:	19c12083          	lw	ra,412(sp)
80003494:	19812403          	lw	s0,408(sp)
80003498:	19412483          	lw	s1,404(sp)
8000349c:	19012903          	lw	s2,400(sp)
800034a0:	18c12983          	lw	s3,396(sp)
800034a4:	18412a83          	lw	s5,388(sp)
800034a8:	18012b03          	lw	s6,384(sp)
800034ac:	17c12b83          	lw	s7,380(sp)
800034b0:	17812c03          	lw	s8,376(sp)
800034b4:	17412c83          	lw	s9,372(sp)
800034b8:	17012d03          	lw	s10,368(sp)
800034bc:	16c12d83          	lw	s11,364(sp)
800034c0:	007a7513          	andi	a0,s4,7
800034c4:	18812a03          	lw	s4,392(sp)
800034c8:	611d                	addi	sp,sp,416
800034ca:	8082                	ret
800034cc:	478d                	li	a5,3
800034ce:	fcfa91e3          	bne	s5,a5,80003490 <__kernel_rem_pio2f+0x4b6>
800034d2:	002b1493          	slli	s1,s6,0x2
800034d6:	019c                	addi	a5,sp,192
800034d8:	94be                	add	s1,s1,a5
800034da:	8926                	mv	s2,s1
800034dc:	8bda                	mv	s7,s6
800034de:	1971                	addi	s2,s2,-4
800034e0:	0b704263          	bgtz	s7,80003584 <__kernel_rem_pio2f+0x5aa>
800034e4:	8ada                	mv	s5,s6
800034e6:	4c85                	li	s9,1
800034e8:	14f1                	addi	s1,s1,-4
800034ea:	0d5cc163          	blt	s9,s5,800035ac <__kernel_rem_pio2f+0x5d2>
800034ee:	00000513          	li	a0,0
800034f2:	4485                	li	s1,1
800034f4:	0d64cf63          	blt	s1,s6,800035d2 <__kernel_rem_pio2f+0x5f8>
800034f8:	468e                	lw	a3,192(sp)
800034fa:	471e                	lw	a4,196(sp)
800034fc:	0e041363          	bnez	s0,800035e2 <__kernel_rem_pio2f+0x608>
80003500:	00d9a023          	sw	a3,0(s3)
80003504:	00e9a223          	sw	a4,4(s3)
80003508:	00a9a423          	sw	a0,8(s3)
8000350c:	b751                	j	80003490 <__kernel_rem_pio2f+0x4b6>
8000350e:	002b1793          	slli	a5,s6,0x2
80003512:	0198                	addi	a4,sp,192
80003514:	97ba                	add	a5,a5,a4
80003516:	438c                	lw	a1,0(a5)
80003518:	1b7d                	addi	s6,s6,-1
8000351a:	6f0000ef          	jal	ra,80003c0a <__addsf3>
8000351e:	fe0b58e3          	bgez	s6,8000350e <__kernel_rem_pio2f+0x534>
80003522:	c401                	beqz	s0,8000352a <__kernel_rem_pio2f+0x550>
80003524:	800007b7          	lui	a5,0x80000
80003528:	8d3d                	xor	a0,a0,a5
8000352a:	00a9a023          	sw	a0,0(s3)
8000352e:	b78d                	j	80003490 <__kernel_rem_pio2f+0x4b6>
80003530:	00249793          	slli	a5,s1,0x2
80003534:	0198                	addi	a4,sp,192
80003536:	97ba                	add	a5,a5,a4
80003538:	438c                	lw	a1,0(a5)
8000353a:	14fd                	addi	s1,s1,-1
8000353c:	6ce000ef          	jal	ra,80003c0a <__addsf3>
80003540:	fe04d8e3          	bgez	s1,80003530 <__kernel_rem_pio2f+0x556>
80003544:	87aa                	mv	a5,a0
80003546:	c401                	beqz	s0,8000354e <__kernel_rem_pio2f+0x574>
80003548:	800007b7          	lui	a5,0x80000
8000354c:	8fa9                	xor	a5,a5,a0
8000354e:	85aa                	mv	a1,a0
80003550:	450e                	lw	a0,192(sp)
80003552:	00f9a023          	sw	a5,0(s3)
80003556:	0184                	addi	s1,sp,192
80003558:	795000ef          	jal	ra,800044ec <__subsf3>
8000355c:	4905                	li	s2,1
8000355e:	0491                	addi	s1,s1,4
80003560:	012b5d63          	bge	s6,s2,8000357a <__kernel_rem_pio2f+0x5a0>
80003564:	c401                	beqz	s0,8000356c <__kernel_rem_pio2f+0x592>
80003566:	800007b7          	lui	a5,0x80000
8000356a:	8d3d                	xor	a0,a0,a5
8000356c:	00a9a223          	sw	a0,4(s3)
80003570:	b705                	j	80003490 <__kernel_rem_pio2f+0x4b6>
80003572:	84da                	mv	s1,s6
80003574:	00000513          	li	a0,0
80003578:	b7e1                	j	80003540 <__kernel_rem_pio2f+0x566>
8000357a:	408c                	lw	a1,0(s1)
8000357c:	0905                	addi	s2,s2,1
8000357e:	68c000ef          	jal	ra,80003c0a <__addsf3>
80003582:	bff1                	j	8000355e <__kernel_rem_pio2f+0x584>
80003584:	00092c83          	lw	s9,0(s2)
80003588:	00492c03          	lw	s8,4(s2)
8000358c:	1bfd                	addi	s7,s7,-1
8000358e:	8566                	mv	a0,s9
80003590:	85e2                	mv	a1,s8
80003592:	2da5                	jal	80003c0a <__addsf3>
80003594:	85aa                	mv	a1,a0
80003596:	8aaa                	mv	s5,a0
80003598:	8566                	mv	a0,s9
8000359a:	753000ef          	jal	ra,800044ec <__subsf3>
8000359e:	85e2                	mv	a1,s8
800035a0:	25ad                	jal	80003c0a <__addsf3>
800035a2:	00a92223          	sw	a0,4(s2)
800035a6:	01592023          	sw	s5,0(s2)
800035aa:	bf15                	j	800034de <__kernel_rem_pio2f+0x504>
800035ac:	0004ac03          	lw	s8,0(s1)
800035b0:	0044ab83          	lw	s7,4(s1)
800035b4:	1afd                	addi	s5,s5,-1
800035b6:	8562                	mv	a0,s8
800035b8:	85de                	mv	a1,s7
800035ba:	2d81                	jal	80003c0a <__addsf3>
800035bc:	85aa                	mv	a1,a0
800035be:	892a                	mv	s2,a0
800035c0:	8562                	mv	a0,s8
800035c2:	72b000ef          	jal	ra,800044ec <__subsf3>
800035c6:	85de                	mv	a1,s7
800035c8:	2589                	jal	80003c0a <__addsf3>
800035ca:	c0c8                	sw	a0,4(s1)
800035cc:	0124a023          	sw	s2,0(s1)
800035d0:	bf21                	j	800034e8 <__kernel_rem_pio2f+0x50e>
800035d2:	002b1793          	slli	a5,s6,0x2
800035d6:	0198                	addi	a4,sp,192
800035d8:	97ba                	add	a5,a5,a4
800035da:	438c                	lw	a1,0(a5)
800035dc:	1b7d                	addi	s6,s6,-1
800035de:	2535                	jal	80003c0a <__addsf3>
800035e0:	bf11                	j	800034f4 <__kernel_rem_pio2f+0x51a>
800035e2:	800007b7          	lui	a5,0x80000
800035e6:	8ebd                	xor	a3,a3,a5
800035e8:	8f3d                	xor	a4,a4,a5
800035ea:	00d9a023          	sw	a3,0(s3)
800035ee:	00e9a223          	sw	a4,4(s3)
800035f2:	8d3d                	xor	a0,a0,a5
800035f4:	bf11                	j	80003508 <__kernel_rem_pio2f+0x52e>

800035f6 <__kernel_sinf>:
__kernel_sinf():
800035f6:	1101                	addi	sp,sp,-32
800035f8:	00151793          	slli	a5,a0,0x1
800035fc:	cc22                	sw	s0,24(sp)
800035fe:	c64e                	sw	s3,12(sp)
80003600:	c256                	sw	s5,4(sp)
80003602:	ce06                	sw	ra,28(sp)
80003604:	ca26                	sw	s1,20(sp)
80003606:	c84a                	sw	s2,16(sp)
80003608:	c452                	sw	s4,8(sp)
8000360a:	8385                	srli	a5,a5,0x1
8000360c:	32000737          	lui	a4,0x32000
80003610:	842a                	mv	s0,a0
80003612:	89ae                	mv	s3,a1
80003614:	8ab2                	mv	s5,a2
80003616:	00e7d563          	bge	a5,a4,80003620 <__kernel_sinf+0x2a>
8000361a:	238010ef          	jal	ra,80004852 <__fixsfsi>
8000361e:	c549                	beqz	a0,800036a8 <__kernel_sinf+0xb2>
80003620:	85a2                	mv	a1,s0
80003622:	8522                	mv	a0,s0
80003624:	4a5000ef          	jal	ra,800042c8 <__mulsf3>
80003628:	84aa                	mv	s1,a0
8000362a:	85aa                	mv	a1,a0
8000362c:	8522                	mv	a0,s0
8000362e:	49b000ef          	jal	ra,800042c8 <__mulsf3>
80003632:	0fffd597          	auipc	a1,0xfffd
80003636:	d365a583          	lw	a1,-714(a1) # 90000368 <_impure_ptr+0x18c>
8000363a:	892a                	mv	s2,a0
8000363c:	8526                	mv	a0,s1
8000363e:	48b000ef          	jal	ra,800042c8 <__mulsf3>
80003642:	0fffd597          	auipc	a1,0xfffd
80003646:	d2a5a583          	lw	a1,-726(a1) # 9000036c <_impure_ptr+0x190>
8000364a:	6a3000ef          	jal	ra,800044ec <__subsf3>
8000364e:	85a6                	mv	a1,s1
80003650:	479000ef          	jal	ra,800042c8 <__mulsf3>
80003654:	0fffd597          	auipc	a1,0xfffd
80003658:	d1c5a583          	lw	a1,-740(a1) # 90000370 <_impure_ptr+0x194>
8000365c:	237d                	jal	80003c0a <__addsf3>
8000365e:	85a6                	mv	a1,s1
80003660:	469000ef          	jal	ra,800042c8 <__mulsf3>
80003664:	0fffd597          	auipc	a1,0xfffd
80003668:	d105a583          	lw	a1,-752(a1) # 90000374 <_impure_ptr+0x198>
8000366c:	681000ef          	jal	ra,800044ec <__subsf3>
80003670:	85a6                	mv	a1,s1
80003672:	457000ef          	jal	ra,800042c8 <__mulsf3>
80003676:	0fffd597          	auipc	a1,0xfffd
8000367a:	d025a583          	lw	a1,-766(a1) # 90000378 <_impure_ptr+0x19c>
8000367e:	2371                	jal	80003c0a <__addsf3>
80003680:	8a2a                	mv	s4,a0
80003682:	020a9d63          	bnez	s5,800036bc <__kernel_sinf+0xc6>
80003686:	85aa                	mv	a1,a0
80003688:	8526                	mv	a0,s1
8000368a:	43f000ef          	jal	ra,800042c8 <__mulsf3>
8000368e:	0fffd597          	auipc	a1,0xfffd
80003692:	c665a583          	lw	a1,-922(a1) # 900002f4 <_impure_ptr+0x118>
80003696:	657000ef          	jal	ra,800044ec <__subsf3>
8000369a:	85ca                	mv	a1,s2
8000369c:	42d000ef          	jal	ra,800042c8 <__mulsf3>
800036a0:	85aa                	mv	a1,a0
800036a2:	8522                	mv	a0,s0
800036a4:	239d                	jal	80003c0a <__addsf3>
800036a6:	842a                	mv	s0,a0
800036a8:	40f2                	lw	ra,28(sp)
800036aa:	8522                	mv	a0,s0
800036ac:	4462                	lw	s0,24(sp)
800036ae:	44d2                	lw	s1,20(sp)
800036b0:	4942                	lw	s2,16(sp)
800036b2:	49b2                	lw	s3,12(sp)
800036b4:	4a22                	lw	s4,8(sp)
800036b6:	4a92                	lw	s5,4(sp)
800036b8:	6105                	addi	sp,sp,32
800036ba:	8082                	ret
800036bc:	0fffd597          	auipc	a1,0xfffd
800036c0:	ba05a583          	lw	a1,-1120(a1) # 9000025c <_impure_ptr+0x80>
800036c4:	854e                	mv	a0,s3
800036c6:	403000ef          	jal	ra,800042c8 <__mulsf3>
800036ca:	8aaa                	mv	s5,a0
800036cc:	85d2                	mv	a1,s4
800036ce:	854a                	mv	a0,s2
800036d0:	3f9000ef          	jal	ra,800042c8 <__mulsf3>
800036d4:	85aa                	mv	a1,a0
800036d6:	8556                	mv	a0,s5
800036d8:	615000ef          	jal	ra,800044ec <__subsf3>
800036dc:	85a6                	mv	a1,s1
800036de:	3eb000ef          	jal	ra,800042c8 <__mulsf3>
800036e2:	85ce                	mv	a1,s3
800036e4:	609000ef          	jal	ra,800044ec <__subsf3>
800036e8:	84aa                	mv	s1,a0
800036ea:	0fffd597          	auipc	a1,0xfffd
800036ee:	c0a5a583          	lw	a1,-1014(a1) # 900002f4 <_impure_ptr+0x118>
800036f2:	854a                	mv	a0,s2
800036f4:	3d5000ef          	jal	ra,800042c8 <__mulsf3>
800036f8:	85aa                	mv	a1,a0
800036fa:	8526                	mv	a0,s1
800036fc:	2339                	jal	80003c0a <__addsf3>
800036fe:	85aa                	mv	a1,a0
80003700:	8522                	mv	a0,s0
80003702:	5eb000ef          	jal	ra,800044ec <__subsf3>
80003706:	b745                	j	800036a6 <__kernel_sinf+0xb0>

80003708 <finitef>:
finitef():
80003708:	0506                	slli	a0,a0,0x1
8000370a:	7f8007b7          	lui	a5,0x7f800
8000370e:	8105                	srli	a0,a0,0x1
80003710:	00f52533          	slt	a0,a0,a5
80003714:	8082                	ret

80003716 <floorf>:
floorf():
80003716:	1101                	addi	sp,sp,-32
80003718:	ca26                	sw	s1,20(sp)
8000371a:	00151493          	slli	s1,a0,0x1
8000371e:	c84a                	sw	s2,16(sp)
80003720:	0014d913          	srli	s2,s1,0x1
80003724:	80e1                	srli	s1,s1,0x18
80003726:	ce06                	sw	ra,28(sp)
80003728:	cc22                	sw	s0,24(sp)
8000372a:	c64e                	sw	s3,12(sp)
8000372c:	f8148493          	addi	s1,s1,-127
80003730:	47d9                	li	a5,22
80003732:	85aa                	mv	a1,a0
80003734:	0697c663          	blt	a5,s1,800037a0 <floorf+0x8a>
80003738:	842a                	mv	s0,a0
8000373a:	0204d563          	bgez	s1,80003764 <floorf+0x4e>
8000373e:	0fffd597          	auipc	a1,0xfffd
80003742:	b565a583          	lw	a1,-1194(a1) # 90000294 <_impure_ptr+0xb8>
80003746:	21d1                	jal	80003c0a <__addsf3>
80003748:	00000593          	li	a1,0
8000374c:	28d000ef          	jal	ra,800041d8 <__gesf2>
80003750:	00a05863          	blez	a0,80003760 <floorf+0x4a>
80003754:	06045463          	bgez	s0,800037bc <floorf+0xa6>
80003758:	00090463          	beqz	s2,80003760 <floorf+0x4a>
8000375c:	bf800437          	lui	s0,0xbf800
80003760:	85a2                	mv	a1,s0
80003762:	a0a9                	j	800037ac <floorf+0x96>
80003764:	008009b7          	lui	s3,0x800
80003768:	fff98913          	addi	s2,s3,-1 # 7fffff <__stack_size+0x7ff7ff>
8000376c:	40995933          	sra	s2,s2,s1
80003770:	00a977b3          	and	a5,s2,a0
80003774:	cf85                	beqz	a5,800037ac <floorf+0x96>
80003776:	0fffd597          	auipc	a1,0xfffd
8000377a:	b1e5a583          	lw	a1,-1250(a1) # 90000294 <_impure_ptr+0xb8>
8000377e:	2171                	jal	80003c0a <__addsf3>
80003780:	00000593          	li	a1,0
80003784:	255000ef          	jal	ra,800041d8 <__gesf2>
80003788:	fca05ce3          	blez	a0,80003760 <floorf+0x4a>
8000378c:	00045563          	bgez	s0,80003796 <floorf+0x80>
80003790:	4099d4b3          	sra	s1,s3,s1
80003794:	9426                	add	s0,s0,s1
80003796:	fff94913          	not	s2,s2
8000379a:	00897433          	and	s0,s2,s0
8000379e:	b7c9                	j	80003760 <floorf+0x4a>
800037a0:	7f8007b7          	lui	a5,0x7f800
800037a4:	00f96463          	bltu	s2,a5,800037ac <floorf+0x96>
800037a8:	218d                	jal	80003c0a <__addsf3>
800037aa:	85aa                	mv	a1,a0
800037ac:	40f2                	lw	ra,28(sp)
800037ae:	4462                	lw	s0,24(sp)
800037b0:	44d2                	lw	s1,20(sp)
800037b2:	4942                	lw	s2,16(sp)
800037b4:	49b2                	lw	s3,12(sp)
800037b6:	852e                	mv	a0,a1
800037b8:	6105                	addi	sp,sp,32
800037ba:	8082                	ret
800037bc:	4401                	li	s0,0
800037be:	b74d                	j	80003760 <floorf+0x4a>

800037c0 <nanf>:
nanf():
800037c0:	0fffd517          	auipc	a0,0xfffd
800037c4:	bbc52503          	lw	a0,-1092(a0) # 9000037c <_impure_ptr+0x1a0>
800037c8:	8082                	ret

800037ca <scalbnf>:
scalbnf():
800037ca:	00151613          	slli	a2,a0,0x1
800037ce:	87aa                	mv	a5,a0
800037d0:	ce61                	beqz	a2,800038a8 <scalbnf+0xde>
800037d2:	1141                	addi	sp,sp,-16
800037d4:	00165713          	srli	a4,a2,0x1
800037d8:	c606                	sw	ra,12(sp)
800037da:	c422                	sw	s0,8(sp)
800037dc:	7f800637          	lui	a2,0x7f800
800037e0:	00c76663          	bltu	a4,a2,800037ec <scalbnf+0x22>
800037e4:	85aa                	mv	a1,a0
800037e6:	2115                	jal	80003c0a <__addsf3>
800037e8:	87aa                	mv	a5,a0
800037ea:	a0bd                	j	80003858 <scalbnf+0x8e>
800037ec:	00c576b3          	and	a3,a0,a2
800037f0:	842e                	mv	s0,a1
800037f2:	eaa1                	bnez	a3,80003842 <scalbnf+0x78>
800037f4:	0fffd597          	auipc	a1,0xfffd
800037f8:	b0c5a583          	lw	a1,-1268(a1) # 90000300 <_impure_ptr+0x124>
800037fc:	2cd000ef          	jal	ra,800042c8 <__mulsf3>
80003800:	7751                	lui	a4,0xffff4
80003802:	cb070713          	addi	a4,a4,-848 # ffff3cb0 <_sp+0x6ffe3cb0>
80003806:	87aa                	mv	a5,a0
80003808:	06e44f63          	blt	s0,a4,80003886 <scalbnf+0xbc>
8000380c:	41755713          	srai	a4,a0,0x17
80003810:	0ff77713          	andi	a4,a4,255
80003814:	171d                	addi	a4,a4,-25
80003816:	9722                	add	a4,a4,s0
80003818:	0fe00693          	li	a3,254
8000381c:	02e6d563          	bge	a3,a4,80003846 <scalbnf+0x7c>
80003820:	0fffd517          	auipc	a0,0xfffd
80003824:	a7452503          	lw	a0,-1420(a0) # 90000294 <_impure_ptr+0xb8>
80003828:	0007d663          	bgez	a5,80003834 <scalbnf+0x6a>
8000382c:	0fffd517          	auipc	a0,0xfffd
80003830:	b5852503          	lw	a0,-1192(a0) # 90000384 <_impure_ptr+0x1a8>
80003834:	0fffd597          	auipc	a1,0xfffd
80003838:	a605a583          	lw	a1,-1440(a1) # 90000294 <_impure_ptr+0xb8>
8000383c:	28d000ef          	jal	ra,800042c8 <__mulsf3>
80003840:	b765                	j	800037e8 <scalbnf+0x1e>
80003842:	835d                	srli	a4,a4,0x17
80003844:	bfc9                	j	80003816 <scalbnf+0x4c>
80003846:	00e05e63          	blez	a4,80003862 <scalbnf+0x98>
8000384a:	808007b7          	lui	a5,0x80800
8000384e:	17fd                	addi	a5,a5,-1
80003850:	8fe9                	and	a5,a5,a0
80003852:	01771513          	slli	a0,a4,0x17
80003856:	8fc9                	or	a5,a5,a0
80003858:	40b2                	lw	ra,12(sp)
8000385a:	4422                	lw	s0,8(sp)
8000385c:	853e                	mv	a0,a5
8000385e:	0141                	addi	sp,sp,16
80003860:	8082                	ret
80003862:	56a9                	li	a3,-22
80003864:	02d75663          	bge	a4,a3,80003890 <scalbnf+0xc6>
80003868:	6731                	lui	a4,0xc
8000386a:	35070713          	addi	a4,a4,848 # c350 <__stack_size+0xbb50>
8000386e:	fa8749e3          	blt	a4,s0,80003820 <scalbnf+0x56>
80003872:	0fffd517          	auipc	a0,0xfffd
80003876:	b0e52503          	lw	a0,-1266(a0) # 90000380 <_impure_ptr+0x1a4>
8000387a:	0007d663          	bgez	a5,80003886 <scalbnf+0xbc>
8000387e:	0fffd517          	auipc	a0,0xfffd
80003882:	b0a52503          	lw	a0,-1270(a0) # 90000388 <_impure_ptr+0x1ac>
80003886:	0fffd597          	auipc	a1,0xfffd
8000388a:	afa5a583          	lw	a1,-1286(a1) # 90000380 <_impure_ptr+0x1a4>
8000388e:	b77d                	j	8000383c <scalbnf+0x72>
80003890:	808007b7          	lui	a5,0x80800
80003894:	0765                	addi	a4,a4,25
80003896:	17fd                	addi	a5,a5,-1
80003898:	075e                	slli	a4,a4,0x17
8000389a:	8d7d                	and	a0,a0,a5
8000389c:	0fffd597          	auipc	a1,0xfffd
800038a0:	af05a583          	lw	a1,-1296(a1) # 9000038c <_impure_ptr+0x1b0>
800038a4:	8d59                	or	a0,a0,a4
800038a6:	bf59                	j	8000383c <scalbnf+0x72>
800038a8:	8082                	ret

800038aa <__udivdi3>:
__udivdi3():
/home/hqfang/workspace/software/riscv-gnu-toolchain/riscv-gcc/libgcc/libgcc2.c:1319
800038aa:	88aa                	mv	a7,a0
800038ac:	87ae                	mv	a5,a1
__udivmoddi4():
/home/hqfang/workspace/software/riscv-gnu-toolchain/riscv-gcc/libgcc/libgcc2.c:1024
800038ae:	8832                	mv	a6,a2
/home/hqfang/workspace/software/riscv-gnu-toolchain/riscv-gcc/libgcc/libgcc2.c:1025
800038b0:	8536                	mv	a0,a3
/home/hqfang/workspace/software/riscv-gnu-toolchain/riscv-gcc/libgcc/libgcc2.c:1026
800038b2:	8346                	mv	t1,a7
/home/hqfang/workspace/software/riscv-gnu-toolchain/riscv-gcc/libgcc/libgcc2.c:1064
800038b4:	20069663          	bnez	a3,80003ac0 <__udivdi3+0x216>
/home/hqfang/workspace/software/riscv-gnu-toolchain/riscv-gcc/libgcc/libgcc2.c:1066
800038b8:	00007697          	auipc	a3,0x7
800038bc:	8ac68693          	addi	a3,a3,-1876 # 8000a164 <__clz_tab>
800038c0:	0ac5ff63          	bgeu	a1,a2,8000397e <__udivdi3+0xd4>
/home/hqfang/workspace/software/riscv-gnu-toolchain/riscv-gcc/libgcc/libgcc2.c:1070
800038c4:	6741                	lui	a4,0x10
800038c6:	0ae67563          	bgeu	a2,a4,80003970 <__udivdi3+0xc6>
800038ca:	0ff00713          	li	a4,255
800038ce:	00c73733          	sltu	a4,a4,a2
800038d2:	070e                	slli	a4,a4,0x3
800038d4:	00e65533          	srl	a0,a2,a4
800038d8:	96aa                	add	a3,a3,a0
800038da:	0006c683          	lbu	a3,0(a3)
800038de:	02000513          	li	a0,32
800038e2:	9736                	add	a4,a4,a3
800038e4:	40e506b3          	sub	a3,a0,a4
/home/hqfang/workspace/software/riscv-gnu-toolchain/riscv-gcc/libgcc/libgcc2.c:1072
800038e8:	00e50b63          	beq	a0,a4,800038fe <__udivdi3+0x54>
/home/hqfang/workspace/software/riscv-gnu-toolchain/riscv-gcc/libgcc/libgcc2.c:1078
800038ec:	00d795b3          	sll	a1,a5,a3
800038f0:	00e8d733          	srl	a4,a7,a4
/home/hqfang/workspace/software/riscv-gnu-toolchain/riscv-gcc/libgcc/libgcc2.c:1077
800038f4:	00d61833          	sll	a6,a2,a3
/home/hqfang/workspace/software/riscv-gnu-toolchain/riscv-gcc/libgcc/libgcc2.c:1078
800038f8:	8dd9                	or	a1,a1,a4
/home/hqfang/workspace/software/riscv-gnu-toolchain/riscv-gcc/libgcc/libgcc2.c:1079
800038fa:	00d89333          	sll	t1,a7,a3
/home/hqfang/workspace/software/riscv-gnu-toolchain/riscv-gcc/libgcc/libgcc2.c:1082
800038fe:	01085893          	srli	a7,a6,0x10
80003902:	0315d6b3          	divu	a3,a1,a7
80003906:	01081613          	slli	a2,a6,0x10
8000390a:	8241                	srli	a2,a2,0x10
8000390c:	01035793          	srli	a5,t1,0x10
80003910:	0315f733          	remu	a4,a1,a7
80003914:	8536                	mv	a0,a3
80003916:	02d605b3          	mul	a1,a2,a3
8000391a:	0742                	slli	a4,a4,0x10
8000391c:	8fd9                	or	a5,a5,a4
8000391e:	00b7fc63          	bgeu	a5,a1,80003936 <__udivdi3+0x8c>
80003922:	97c2                	add	a5,a5,a6
80003924:	fff68513          	addi	a0,a3,-1
80003928:	0107e763          	bltu	a5,a6,80003936 <__udivdi3+0x8c>
8000392c:	00b7f563          	bgeu	a5,a1,80003936 <__udivdi3+0x8c>
80003930:	ffe68513          	addi	a0,a3,-2
80003934:	97c2                	add	a5,a5,a6
80003936:	8f8d                	sub	a5,a5,a1
80003938:	0317f733          	remu	a4,a5,a7
8000393c:	0342                	slli	t1,t1,0x10
8000393e:	01035313          	srli	t1,t1,0x10
80003942:	0317d7b3          	divu	a5,a5,a7
80003946:	0742                	slli	a4,a4,0x10
80003948:	00676333          	or	t1,a4,t1
8000394c:	02f606b3          	mul	a3,a2,a5
80003950:	863e                	mv	a2,a5
80003952:	00d37b63          	bgeu	t1,a3,80003968 <__udivdi3+0xbe>
80003956:	9342                	add	t1,t1,a6
80003958:	fff78613          	addi	a2,a5,-1 # 807fffff <_sp+0xf07effff>
8000395c:	01036663          	bltu	t1,a6,80003968 <__udivdi3+0xbe>
80003960:	00d37463          	bgeu	t1,a3,80003968 <__udivdi3+0xbe>
80003964:	ffe78613          	addi	a2,a5,-2
80003968:	0542                	slli	a0,a0,0x10
8000396a:	8d51                	or	a0,a0,a2
/home/hqfang/workspace/software/riscv-gnu-toolchain/riscv-gcc/libgcc/libgcc2.c:1209
8000396c:	4581                	li	a1,0
8000396e:	a85d                	j	80003a24 <__udivdi3+0x17a>
/home/hqfang/workspace/software/riscv-gnu-toolchain/riscv-gcc/libgcc/libgcc2.c:1070
80003970:	01000537          	lui	a0,0x1000
80003974:	4741                	li	a4,16
80003976:	f4a66fe3          	bltu	a2,a0,800038d4 <__udivdi3+0x2a>
8000397a:	4761                	li	a4,24
8000397c:	bfa1                	j	800038d4 <__udivdi3+0x2a>
/home/hqfang/workspace/software/riscv-gnu-toolchain/riscv-gcc/libgcc/libgcc2.c:1091
8000397e:	e601                	bnez	a2,80003986 <__udivdi3+0xdc>
/home/hqfang/workspace/software/riscv-gnu-toolchain/riscv-gcc/libgcc/libgcc2.c:1092
80003980:	4705                	li	a4,1
80003982:	02c75833          	divu	a6,a4,a2
/home/hqfang/workspace/software/riscv-gnu-toolchain/riscv-gcc/libgcc/libgcc2.c:1094
80003986:	6741                	lui	a4,0x10
80003988:	08e87f63          	bgeu	a6,a4,80003a26 <__udivdi3+0x17c>
8000398c:	0ff00713          	li	a4,255
80003990:	01077363          	bgeu	a4,a6,80003996 <__udivdi3+0xec>
80003994:	4521                	li	a0,8
80003996:	00a85733          	srl	a4,a6,a0
8000399a:	96ba                	add	a3,a3,a4
8000399c:	0006c703          	lbu	a4,0(a3)
800039a0:	02000613          	li	a2,32
800039a4:	972a                	add	a4,a4,a0
800039a6:	40e606b3          	sub	a3,a2,a4
/home/hqfang/workspace/software/riscv-gnu-toolchain/riscv-gcc/libgcc/libgcc2.c:1096
800039aa:	08e61563          	bne	a2,a4,80003a34 <__udivdi3+0x18a>
/home/hqfang/workspace/software/riscv-gnu-toolchain/riscv-gcc/libgcc/libgcc2.c:1105
800039ae:	410787b3          	sub	a5,a5,a6
/home/hqfang/workspace/software/riscv-gnu-toolchain/riscv-gcc/libgcc/libgcc2.c:1106
800039b2:	4585                	li	a1,1
/home/hqfang/workspace/software/riscv-gnu-toolchain/riscv-gcc/libgcc/libgcc2.c:1124
800039b4:	01085893          	srli	a7,a6,0x10
800039b8:	01081613          	slli	a2,a6,0x10
800039bc:	8241                	srli	a2,a2,0x10
800039be:	01035713          	srli	a4,t1,0x10
800039c2:	0317f6b3          	remu	a3,a5,a7
800039c6:	0317d7b3          	divu	a5,a5,a7
800039ca:	06c2                	slli	a3,a3,0x10
800039cc:	8f55                	or	a4,a4,a3
800039ce:	02f60e33          	mul	t3,a2,a5
800039d2:	853e                	mv	a0,a5
800039d4:	01c77c63          	bgeu	a4,t3,800039ec <__udivdi3+0x142>
800039d8:	9742                	add	a4,a4,a6
800039da:	fff78513          	addi	a0,a5,-1
800039de:	01076763          	bltu	a4,a6,800039ec <__udivdi3+0x142>
800039e2:	01c77563          	bgeu	a4,t3,800039ec <__udivdi3+0x142>
800039e6:	ffe78513          	addi	a0,a5,-2
800039ea:	9742                	add	a4,a4,a6
800039ec:	41c70733          	sub	a4,a4,t3
800039f0:	031777b3          	remu	a5,a4,a7
800039f4:	0342                	slli	t1,t1,0x10
800039f6:	01035313          	srli	t1,t1,0x10
800039fa:	03175733          	divu	a4,a4,a7
800039fe:	07c2                	slli	a5,a5,0x10
80003a00:	0067e333          	or	t1,a5,t1
80003a04:	02e606b3          	mul	a3,a2,a4
80003a08:	863a                	mv	a2,a4
80003a0a:	00d37b63          	bgeu	t1,a3,80003a20 <__udivdi3+0x176>
80003a0e:	9342                	add	t1,t1,a6
80003a10:	fff70613          	addi	a2,a4,-1 # ffff <__stack_size+0xf7ff>
80003a14:	01036663          	bltu	t1,a6,80003a20 <__udivdi3+0x176>
80003a18:	00d37463          	bgeu	t1,a3,80003a20 <__udivdi3+0x176>
80003a1c:	ffe70613          	addi	a2,a4,-2
80003a20:	0542                	slli	a0,a0,0x10
80003a22:	8d51                	or	a0,a0,a2
__udivdi3():
/home/hqfang/workspace/software/riscv-gnu-toolchain/riscv-gcc/libgcc/libgcc2.c:1321
80003a24:	8082                	ret
__udivmoddi4():
/home/hqfang/workspace/software/riscv-gnu-toolchain/riscv-gcc/libgcc/libgcc2.c:1094
80003a26:	01000737          	lui	a4,0x1000
80003a2a:	4541                	li	a0,16
80003a2c:	f6e865e3          	bltu	a6,a4,80003996 <__udivdi3+0xec>
80003a30:	4561                	li	a0,24
80003a32:	b795                	j	80003996 <__udivdi3+0xec>
/home/hqfang/workspace/software/riscv-gnu-toolchain/riscv-gcc/libgcc/libgcc2.c:1114
80003a34:	00d81833          	sll	a6,a6,a3
/home/hqfang/workspace/software/riscv-gnu-toolchain/riscv-gcc/libgcc/libgcc2.c:1115
80003a38:	00e7d533          	srl	a0,a5,a4
/home/hqfang/workspace/software/riscv-gnu-toolchain/riscv-gcc/libgcc/libgcc2.c:1117
80003a3c:	00d89333          	sll	t1,a7,a3
/home/hqfang/workspace/software/riscv-gnu-toolchain/riscv-gcc/libgcc/libgcc2.c:1116
80003a40:	00d797b3          	sll	a5,a5,a3
80003a44:	00e8d733          	srl	a4,a7,a4
/home/hqfang/workspace/software/riscv-gnu-toolchain/riscv-gcc/libgcc/libgcc2.c:1119
80003a48:	01085893          	srli	a7,a6,0x10
/home/hqfang/workspace/software/riscv-gnu-toolchain/riscv-gcc/libgcc/libgcc2.c:1116
80003a4c:	00f76633          	or	a2,a4,a5
/home/hqfang/workspace/software/riscv-gnu-toolchain/riscv-gcc/libgcc/libgcc2.c:1119
80003a50:	03157733          	remu	a4,a0,a7
80003a54:	01081793          	slli	a5,a6,0x10
80003a58:	83c1                	srli	a5,a5,0x10
80003a5a:	01065593          	srli	a1,a2,0x10
80003a5e:	03155533          	divu	a0,a0,a7
80003a62:	0742                	slli	a4,a4,0x10
80003a64:	8f4d                	or	a4,a4,a1
80003a66:	02a786b3          	mul	a3,a5,a0
80003a6a:	85aa                	mv	a1,a0
80003a6c:	00d77c63          	bgeu	a4,a3,80003a84 <__udivdi3+0x1da>
80003a70:	9742                	add	a4,a4,a6
80003a72:	fff50593          	addi	a1,a0,-1 # ffffff <__stack_size+0xfff7ff>
80003a76:	01076763          	bltu	a4,a6,80003a84 <__udivdi3+0x1da>
80003a7a:	00d77563          	bgeu	a4,a3,80003a84 <__udivdi3+0x1da>
80003a7e:	ffe50593          	addi	a1,a0,-2
80003a82:	9742                	add	a4,a4,a6
80003a84:	40d706b3          	sub	a3,a4,a3
80003a88:	0316f733          	remu	a4,a3,a7
80003a8c:	0642                	slli	a2,a2,0x10
80003a8e:	8241                	srli	a2,a2,0x10
80003a90:	0316d6b3          	divu	a3,a3,a7
80003a94:	0742                	slli	a4,a4,0x10
80003a96:	02d78533          	mul	a0,a5,a3
80003a9a:	00c767b3          	or	a5,a4,a2
80003a9e:	8736                	mv	a4,a3
80003aa0:	00a7fc63          	bgeu	a5,a0,80003ab8 <__udivdi3+0x20e>
80003aa4:	97c2                	add	a5,a5,a6
80003aa6:	fff68713          	addi	a4,a3,-1
80003aaa:	0107e763          	bltu	a5,a6,80003ab8 <__udivdi3+0x20e>
80003aae:	00a7f563          	bgeu	a5,a0,80003ab8 <__udivdi3+0x20e>
80003ab2:	ffe68713          	addi	a4,a3,-2
80003ab6:	97c2                	add	a5,a5,a6
80003ab8:	05c2                	slli	a1,a1,0x10
80003aba:	8f89                	sub	a5,a5,a0
80003abc:	8dd9                	or	a1,a1,a4
80003abe:	bddd                	j	800039b4 <__udivdi3+0x10a>
/home/hqfang/workspace/software/riscv-gnu-toolchain/riscv-gcc/libgcc/libgcc2.c:1140
80003ac0:	14d5e263          	bltu	a1,a3,80003c04 <__udivdi3+0x35a>
/home/hqfang/workspace/software/riscv-gnu-toolchain/riscv-gcc/libgcc/libgcc2.c:1159
80003ac4:	6741                	lui	a4,0x10
80003ac6:	02e6ff63          	bgeu	a3,a4,80003b04 <__udivdi3+0x25a>
80003aca:	0ff00713          	li	a4,255
80003ace:	00d735b3          	sltu	a1,a4,a3
80003ad2:	058e                	slli	a1,a1,0x3
80003ad4:	00b6d533          	srl	a0,a3,a1
80003ad8:	00006717          	auipc	a4,0x6
80003adc:	68c70713          	addi	a4,a4,1676 # 8000a164 <__clz_tab>
80003ae0:	972a                	add	a4,a4,a0
80003ae2:	00074703          	lbu	a4,0(a4)
80003ae6:	02000513          	li	a0,32
80003aea:	972e                	add	a4,a4,a1
80003aec:	40e505b3          	sub	a1,a0,a4
/home/hqfang/workspace/software/riscv-gnu-toolchain/riscv-gcc/libgcc/libgcc2.c:1160
80003af0:	02e51163          	bne	a0,a4,80003b12 <__udivdi3+0x268>
/home/hqfang/workspace/software/riscv-gnu-toolchain/riscv-gcc/libgcc/libgcc2.c:1172
80003af4:	4505                	li	a0,1
/home/hqfang/workspace/software/riscv-gnu-toolchain/riscv-gcc/libgcc/libgcc2.c:1170
80003af6:	f2f6e7e3          	bltu	a3,a5,80003a24 <__udivdi3+0x17a>
80003afa:	00c8b533          	sltu	a0,a7,a2
80003afe:	00154513          	xori	a0,a0,1
80003b02:	b70d                	j	80003a24 <__udivdi3+0x17a>
/home/hqfang/workspace/software/riscv-gnu-toolchain/riscv-gcc/libgcc/libgcc2.c:1159
80003b04:	01000737          	lui	a4,0x1000
80003b08:	45c1                	li	a1,16
80003b0a:	fce6e5e3          	bltu	a3,a4,80003ad4 <__udivdi3+0x22a>
80003b0e:	45e1                	li	a1,24
80003b10:	b7d1                	j	80003ad4 <__udivdi3+0x22a>
/home/hqfang/workspace/software/riscv-gnu-toolchain/riscv-gcc/libgcc/libgcc2.c:1194
80003b12:	00e65833          	srl	a6,a2,a4
80003b16:	00b696b3          	sll	a3,a3,a1
80003b1a:	00d86833          	or	a6,a6,a3
/home/hqfang/workspace/software/riscv-gnu-toolchain/riscv-gcc/libgcc/libgcc2.c:1196
80003b1e:	00e7d333          	srl	t1,a5,a4
/home/hqfang/workspace/software/riscv-gnu-toolchain/riscv-gcc/libgcc/libgcc2.c:1200
80003b22:	01085e93          	srli	t4,a6,0x10
80003b26:	03d376b3          	remu	a3,t1,t4
/home/hqfang/workspace/software/riscv-gnu-toolchain/riscv-gcc/libgcc/libgcc2.c:1197
80003b2a:	00b797b3          	sll	a5,a5,a1
80003b2e:	00e8d733          	srl	a4,a7,a4
/home/hqfang/workspace/software/riscv-gnu-toolchain/riscv-gcc/libgcc/libgcc2.c:1195
80003b32:	00b61e33          	sll	t3,a2,a1
/home/hqfang/workspace/software/riscv-gnu-toolchain/riscv-gcc/libgcc/libgcc2.c:1197
80003b36:	00f76633          	or	a2,a4,a5
/home/hqfang/workspace/software/riscv-gnu-toolchain/riscv-gcc/libgcc/libgcc2.c:1200
80003b3a:	01081793          	slli	a5,a6,0x10
80003b3e:	83c1                	srli	a5,a5,0x10
80003b40:	01065713          	srli	a4,a2,0x10
80003b44:	03d35333          	divu	t1,t1,t4
80003b48:	06c2                	slli	a3,a3,0x10
80003b4a:	8f55                	or	a4,a4,a3
80003b4c:	02678f33          	mul	t5,a5,t1
80003b50:	851a                	mv	a0,t1
80003b52:	01e77c63          	bgeu	a4,t5,80003b6a <__udivdi3+0x2c0>
80003b56:	9742                	add	a4,a4,a6
80003b58:	fff30513          	addi	a0,t1,-1
80003b5c:	01076763          	bltu	a4,a6,80003b6a <__udivdi3+0x2c0>
80003b60:	01e77563          	bgeu	a4,t5,80003b6a <__udivdi3+0x2c0>
80003b64:	ffe30513          	addi	a0,t1,-2
80003b68:	9742                	add	a4,a4,a6
80003b6a:	41e70733          	sub	a4,a4,t5
80003b6e:	03d776b3          	remu	a3,a4,t4
80003b72:	03d75733          	divu	a4,a4,t4
80003b76:	06c2                	slli	a3,a3,0x10
80003b78:	02e78333          	mul	t1,a5,a4
80003b7c:	01061793          	slli	a5,a2,0x10
80003b80:	83c1                	srli	a5,a5,0x10
80003b82:	8fd5                	or	a5,a5,a3
80003b84:	863a                	mv	a2,a4
80003b86:	0067fc63          	bgeu	a5,t1,80003b9e <__udivdi3+0x2f4>
80003b8a:	97c2                	add	a5,a5,a6
80003b8c:	fff70613          	addi	a2,a4,-1 # ffffff <__stack_size+0xfff7ff>
80003b90:	0107e763          	bltu	a5,a6,80003b9e <__udivdi3+0x2f4>
80003b94:	0067f563          	bgeu	a5,t1,80003b9e <__udivdi3+0x2f4>
80003b98:	ffe70613          	addi	a2,a4,-2
80003b9c:	97c2                	add	a5,a5,a6
80003b9e:	0542                	slli	a0,a0,0x10
/home/hqfang/workspace/software/riscv-gnu-toolchain/riscv-gcc/libgcc/libgcc2.c:1201
80003ba0:	6ec1                	lui	t4,0x10
/home/hqfang/workspace/software/riscv-gnu-toolchain/riscv-gcc/libgcc/libgcc2.c:1200
80003ba2:	8d51                	or	a0,a0,a2
/home/hqfang/workspace/software/riscv-gnu-toolchain/riscv-gcc/libgcc/libgcc2.c:1201
80003ba4:	fffe8693          	addi	a3,t4,-1 # ffff <__stack_size+0xf7ff>
80003ba8:	010e5613          	srli	a2,t3,0x10
80003bac:	01055813          	srli	a6,a0,0x10
/home/hqfang/workspace/software/riscv-gnu-toolchain/riscv-gcc/libgcc/libgcc2.c:1200
80003bb0:	406787b3          	sub	a5,a5,t1
/home/hqfang/workspace/software/riscv-gnu-toolchain/riscv-gcc/libgcc/libgcc2.c:1201
80003bb4:	00d57333          	and	t1,a0,a3
80003bb8:	00de76b3          	and	a3,t3,a3
80003bbc:	02d30e33          	mul	t3,t1,a3
80003bc0:	02d806b3          	mul	a3,a6,a3
80003bc4:	010e5713          	srli	a4,t3,0x10
80003bc8:	02c30333          	mul	t1,t1,a2
80003bcc:	9336                	add	t1,t1,a3
80003bce:	971a                	add	a4,a4,t1
80003bd0:	02c80833          	mul	a6,a6,a2
80003bd4:	00d77363          	bgeu	a4,a3,80003bda <__udivdi3+0x330>
80003bd8:	9876                	add	a6,a6,t4
80003bda:	01075693          	srli	a3,a4,0x10
80003bde:	9836                	add	a6,a6,a3
/home/hqfang/workspace/software/riscv-gnu-toolchain/riscv-gcc/libgcc/libgcc2.c:1203
80003be0:	0307e063          	bltu	a5,a6,80003c00 <__udivdi3+0x356>
80003be4:	d90794e3          	bne	a5,a6,8000396c <__udivdi3+0xc2>
/home/hqfang/workspace/software/riscv-gnu-toolchain/riscv-gcc/libgcc/libgcc2.c:1201
80003be8:	67c1                	lui	a5,0x10
80003bea:	17fd                	addi	a5,a5,-1
80003bec:	8f7d                	and	a4,a4,a5
80003bee:	0742                	slli	a4,a4,0x10
80003bf0:	00fe7e33          	and	t3,t3,a5
/home/hqfang/workspace/software/riscv-gnu-toolchain/riscv-gcc/libgcc/libgcc2.c:1198
80003bf4:	00b898b3          	sll	a7,a7,a1
/home/hqfang/workspace/software/riscv-gnu-toolchain/riscv-gcc/libgcc/libgcc2.c:1201
80003bf8:	9772                	add	a4,a4,t3
/home/hqfang/workspace/software/riscv-gnu-toolchain/riscv-gcc/libgcc/libgcc2.c:1209
80003bfa:	4581                	li	a1,0
/home/hqfang/workspace/software/riscv-gnu-toolchain/riscv-gcc/libgcc/libgcc2.c:1203
80003bfc:	e2e8f4e3          	bgeu	a7,a4,80003a24 <__udivdi3+0x17a>
/home/hqfang/workspace/software/riscv-gnu-toolchain/riscv-gcc/libgcc/libgcc2.c:1205
80003c00:	157d                	addi	a0,a0,-1
__udivdi3():
/home/hqfang/workspace/software/riscv-gnu-toolchain/riscv-gcc/libgcc/libgcc2.c:1206
80003c02:	b3ad                	j	8000396c <__udivdi3+0xc2>
__udivmoddi4():
/home/hqfang/workspace/software/riscv-gnu-toolchain/riscv-gcc/libgcc/libgcc2.c:1145
80003c04:	4581                	li	a1,0
/home/hqfang/workspace/software/riscv-gnu-toolchain/riscv-gcc/libgcc/libgcc2.c:1144
80003c06:	4501                	li	a0,0
80003c08:	bd31                	j	80003a24 <__udivdi3+0x17a>

80003c0a <__addsf3>:
__addsf3():
/home/hqfang/workspace/software/riscv-gnu-toolchain/riscv-gcc/libgcc/soft-fp/addsf3.c:44
80003c0a:	00800737          	lui	a4,0x800
/home/hqfang/workspace/software/riscv-gnu-toolchain/riscv-gcc/libgcc/soft-fp/addsf3.c:36
80003c0e:	1141                	addi	sp,sp,-16
/home/hqfang/workspace/software/riscv-gnu-toolchain/riscv-gcc/libgcc/soft-fp/addsf3.c:44
80003c10:	177d                	addi	a4,a4,-1
80003c12:	00a777b3          	and	a5,a4,a0
/home/hqfang/workspace/software/riscv-gnu-toolchain/riscv-gcc/libgcc/soft-fp/addsf3.c:36
80003c16:	c422                	sw	s0,8(sp)
80003c18:	c226                	sw	s1,4(sp)
/home/hqfang/workspace/software/riscv-gnu-toolchain/riscv-gcc/libgcc/soft-fp/addsf3.c:44
80003c1a:	01755413          	srli	s0,a0,0x17
80003c1e:	01f55493          	srli	s1,a0,0x1f
/home/hqfang/workspace/software/riscv-gnu-toolchain/riscv-gcc/libgcc/soft-fp/addsf3.c:45
80003c22:	0175d513          	srli	a0,a1,0x17
80003c26:	8f6d                	and	a4,a4,a1
/home/hqfang/workspace/software/riscv-gnu-toolchain/riscv-gcc/libgcc/soft-fp/addsf3.c:44
80003c28:	0ff47413          	andi	s0,s0,255
/home/hqfang/workspace/software/riscv-gnu-toolchain/riscv-gcc/libgcc/soft-fp/addsf3.c:45
80003c2c:	0ff57513          	andi	a0,a0,255
/home/hqfang/workspace/software/riscv-gnu-toolchain/riscv-gcc/libgcc/soft-fp/addsf3.c:36
80003c30:	c606                	sw	ra,12(sp)
80003c32:	c04a                	sw	s2,0(sp)
/home/hqfang/workspace/software/riscv-gnu-toolchain/riscv-gcc/libgcc/soft-fp/addsf3.c:45
80003c34:	81fd                	srli	a1,a1,0x1f
/home/hqfang/workspace/software/riscv-gnu-toolchain/riscv-gcc/libgcc/soft-fp/addsf3.c:44
80003c36:	078e                	slli	a5,a5,0x3
/home/hqfang/workspace/software/riscv-gnu-toolchain/riscv-gcc/libgcc/soft-fp/addsf3.c:45
80003c38:	070e                	slli	a4,a4,0x3
/home/hqfang/workspace/software/riscv-gnu-toolchain/riscv-gcc/libgcc/soft-fp/addsf3.c:46
80003c3a:	40a406b3          	sub	a3,s0,a0
80003c3e:	12b49663          	bne	s1,a1,80003d6a <__addsf3+0x160>
/home/hqfang/workspace/software/riscv-gnu-toolchain/riscv-gcc/libgcc/soft-fp/addsf3.c:46 (discriminator 7)
80003c42:	06d05c63          	blez	a3,80003cba <__addsf3+0xb0>
/home/hqfang/workspace/software/riscv-gnu-toolchain/riscv-gcc/libgcc/soft-fp/addsf3.c:46 (discriminator 9)
80003c46:	e105                	bnez	a0,80003c66 <__addsf3+0x5c>
/home/hqfang/workspace/software/riscv-gnu-toolchain/riscv-gcc/libgcc/soft-fp/addsf3.c:46 (discriminator 11)
80003c48:	10070f63          	beqz	a4,80003d66 <__addsf3+0x15c>
/home/hqfang/workspace/software/riscv-gnu-toolchain/riscv-gcc/libgcc/soft-fp/addsf3.c:46 (discriminator 14)
80003c4c:	fff68613          	addi	a2,a3,-1
80003c50:	e601                	bnez	a2,80003c58 <__addsf3+0x4e>
/home/hqfang/workspace/software/riscv-gnu-toolchain/riscv-gcc/libgcc/soft-fp/addsf3.c:46 (discriminator 75)
80003c52:	97ba                	add	a5,a5,a4
/home/hqfang/workspace/software/riscv-gnu-toolchain/riscv-gcc/libgcc/soft-fp/addsf3.c:45 (discriminator 75)
80003c54:	4405                	li	s0,1
/home/hqfang/workspace/software/riscv-gnu-toolchain/riscv-gcc/libgcc/soft-fp/addsf3.c:46 (discriminator 75)
80003c56:	a081                	j	80003c96 <__addsf3+0x8c>
/home/hqfang/workspace/software/riscv-gnu-toolchain/riscv-gcc/libgcc/soft-fp/addsf3.c:46 (discriminator 24)
80003c58:	0ff00593          	li	a1,255
80003c5c:	00b69d63          	bne	a3,a1,80003c76 <__addsf3+0x6c>
/home/hqfang/workspace/software/riscv-gnu-toolchain/riscv-gcc/libgcc/soft-fp/addsf3.c:46
80003c60:	0ff00413          	li	s0,255
80003c64:	a8c1                	j	80003d34 <__addsf3+0x12a>
/home/hqfang/workspace/software/riscv-gnu-toolchain/riscv-gcc/libgcc/soft-fp/addsf3.c:46 (discriminator 12)
80003c66:	0ff00613          	li	a2,255
80003c6a:	0cc40563          	beq	s0,a2,80003d34 <__addsf3+0x12a>
/home/hqfang/workspace/software/riscv-gnu-toolchain/riscv-gcc/libgcc/soft-fp/addsf3.c:46 (discriminator 38)
80003c6e:	04000637          	lui	a2,0x4000
80003c72:	8f51                	or	a4,a4,a2
80003c74:	8636                	mv	a2,a3
/home/hqfang/workspace/software/riscv-gnu-toolchain/riscv-gcc/libgcc/soft-fp/addsf3.c:46 (discriminator 47)
80003c76:	45ed                	li	a1,27
80003c78:	4685                	li	a3,1
80003c7a:	00c5cd63          	blt	a1,a2,80003c94 <__addsf3+0x8a>
/home/hqfang/workspace/software/riscv-gnu-toolchain/riscv-gcc/libgcc/soft-fp/addsf3.c:46 (discriminator 48)
80003c7e:	02000693          	li	a3,32
80003c82:	8e91                	sub	a3,a3,a2
80003c84:	00c755b3          	srl	a1,a4,a2
80003c88:	00d71733          	sll	a4,a4,a3
80003c8c:	00e03733          	snez	a4,a4
80003c90:	00e5e6b3          	or	a3,a1,a4
/home/hqfang/workspace/software/riscv-gnu-toolchain/riscv-gcc/libgcc/soft-fp/addsf3.c:46 (discriminator 59)
80003c94:	97b6                	add	a5,a5,a3
/home/hqfang/workspace/software/riscv-gnu-toolchain/riscv-gcc/libgcc/soft-fp/addsf3.c:46 (discriminator 112)
80003c96:	04000737          	lui	a4,0x4000
80003c9a:	8f7d                	and	a4,a4,a5
80003c9c:	cf41                	beqz	a4,80003d34 <__addsf3+0x12a>
/home/hqfang/workspace/software/riscv-gnu-toolchain/riscv-gcc/libgcc/soft-fp/addsf3.c:46 (discriminator 171)
80003c9e:	0405                	addi	s0,s0,1
80003ca0:	0ff00713          	li	a4,255
80003ca4:	22e40a63          	beq	s0,a4,80003ed8 <__addsf3+0x2ce>
/home/hqfang/workspace/software/riscv-gnu-toolchain/riscv-gcc/libgcc/soft-fp/addsf3.c:46
80003ca8:	7e000737          	lui	a4,0x7e000
80003cac:	0017f693          	andi	a3,a5,1
80003cb0:	177d                	addi	a4,a4,-1
80003cb2:	8385                	srli	a5,a5,0x1
80003cb4:	8ff9                	and	a5,a5,a4
80003cb6:	8fd5                	or	a5,a5,a3
80003cb8:	a8b5                	j	80003d34 <__addsf3+0x12a>
/home/hqfang/workspace/software/riscv-gnu-toolchain/riscv-gcc/libgcc/soft-fp/addsf3.c:46 (discriminator 10)
80003cba:	cab1                	beqz	a3,80003d0e <__addsf3+0x104>
/home/hqfang/workspace/software/riscv-gnu-toolchain/riscv-gcc/libgcc/soft-fp/addsf3.c:46 (discriminator 61)
80003cbc:	408506b3          	sub	a3,a0,s0
80003cc0:	ec01                	bnez	s0,80003cd8 <__addsf3+0xce>
/home/hqfang/workspace/software/riscv-gnu-toolchain/riscv-gcc/libgcc/soft-fp/addsf3.c:46 (discriminator 63)
80003cc2:	20078563          	beqz	a5,80003ecc <__addsf3+0x2c2>
/home/hqfang/workspace/software/riscv-gnu-toolchain/riscv-gcc/libgcc/soft-fp/addsf3.c:46 (discriminator 66)
80003cc6:	fff68613          	addi	a2,a3,-1
80003cca:	d641                	beqz	a2,80003c52 <__addsf3+0x48>
/home/hqfang/workspace/software/riscv-gnu-toolchain/riscv-gcc/libgcc/soft-fp/addsf3.c:46 (discriminator 76)
80003ccc:	0ff00593          	li	a1,255
80003cd0:	00b69c63          	bne	a3,a1,80003ce8 <__addsf3+0xde>
/home/hqfang/workspace/software/riscv-gnu-toolchain/riscv-gcc/libgcc/soft-fp/addsf3.c:45
80003cd4:	87ba                	mv	a5,a4
80003cd6:	b769                	j	80003c60 <__addsf3+0x56>
/home/hqfang/workspace/software/riscv-gnu-toolchain/riscv-gcc/libgcc/soft-fp/addsf3.c:46 (discriminator 64)
80003cd8:	0ff00613          	li	a2,255
80003cdc:	fec50ce3          	beq	a0,a2,80003cd4 <__addsf3+0xca>
/home/hqfang/workspace/software/riscv-gnu-toolchain/riscv-gcc/libgcc/soft-fp/addsf3.c:46 (discriminator 90)
80003ce0:	04000637          	lui	a2,0x4000
80003ce4:	8fd1                	or	a5,a5,a2
80003ce6:	8636                	mv	a2,a3
/home/hqfang/workspace/software/riscv-gnu-toolchain/riscv-gcc/libgcc/soft-fp/addsf3.c:46 (discriminator 99)
80003ce8:	45ed                	li	a1,27
80003cea:	4685                	li	a3,1
80003cec:	00c5cd63          	blt	a1,a2,80003d06 <__addsf3+0xfc>
/home/hqfang/workspace/software/riscv-gnu-toolchain/riscv-gcc/libgcc/soft-fp/addsf3.c:46 (discriminator 100)
80003cf0:	02000693          	li	a3,32
80003cf4:	8e91                	sub	a3,a3,a2
80003cf6:	00c7d5b3          	srl	a1,a5,a2
80003cfa:	00d797b3          	sll	a5,a5,a3
80003cfe:	00f037b3          	snez	a5,a5
80003d02:	00f5e6b3          	or	a3,a1,a5
/home/hqfang/workspace/software/riscv-gnu-toolchain/riscv-gcc/libgcc/soft-fp/addsf3.c:46 (discriminator 111)
80003d06:	00e687b3          	add	a5,a3,a4
/home/hqfang/workspace/software/riscv-gnu-toolchain/riscv-gcc/libgcc/soft-fp/addsf3.c:45 (discriminator 111)
80003d0a:	842a                	mv	s0,a0
80003d0c:	b769                	j	80003c96 <__addsf3+0x8c>
/home/hqfang/workspace/software/riscv-gnu-toolchain/riscv-gcc/libgcc/soft-fp/addsf3.c:46 (discriminator 62)
80003d0e:	00140693          	addi	a3,s0,1 # bf800001 <_sp+0x2f7f0001>
80003d12:	0fe6f613          	andi	a2,a3,254
80003d16:	e231                	bnez	a2,80003d5a <__addsf3+0x150>
/home/hqfang/workspace/software/riscv-gnu-toolchain/riscv-gcc/libgcc/soft-fp/addsf3.c:46 (discriminator 113)
80003d18:	e80d                	bnez	s0,80003d4a <__addsf3+0x140>
/home/hqfang/workspace/software/riscv-gnu-toolchain/riscv-gcc/libgcc/soft-fp/addsf3.c:46 (discriminator 115)
80003d1a:	1a078b63          	beqz	a5,80003ed0 <__addsf3+0x2c6>
/home/hqfang/workspace/software/riscv-gnu-toolchain/riscv-gcc/libgcc/soft-fp/addsf3.c:46 (discriminator 118)
80003d1e:	cb19                	beqz	a4,80003d34 <__addsf3+0x12a>
/home/hqfang/workspace/software/riscv-gnu-toolchain/riscv-gcc/libgcc/soft-fp/addsf3.c:46 (discriminator 124)
80003d20:	97ba                	add	a5,a5,a4
80003d22:	04000737          	lui	a4,0x4000
80003d26:	8f7d                	and	a4,a4,a5
80003d28:	c711                	beqz	a4,80003d34 <__addsf3+0x12a>
/home/hqfang/workspace/software/riscv-gnu-toolchain/riscv-gcc/libgcc/soft-fp/addsf3.c:46 (discriminator 126)
80003d2a:	fc000737          	lui	a4,0xfc000
80003d2e:	177d                	addi	a4,a4,-1
80003d30:	8ff9                	and	a5,a5,a4
80003d32:	4405                	li	s0,1
/home/hqfang/workspace/software/riscv-gnu-toolchain/riscv-gcc/libgcc/soft-fp/addsf3.c:47 (discriminator 377)
80003d34:	0077f713          	andi	a4,a5,7
80003d38:	1a070163          	beqz	a4,80003eda <__addsf3+0x2d0>
/home/hqfang/workspace/software/riscv-gnu-toolchain/riscv-gcc/libgcc/soft-fp/addsf3.c:47 (discriminator 37)
80003d3c:	00f7f713          	andi	a4,a5,15
80003d40:	4691                	li	a3,4
80003d42:	18d70c63          	beq	a4,a3,80003eda <__addsf3+0x2d0>
/home/hqfang/workspace/software/riscv-gnu-toolchain/riscv-gcc/libgcc/soft-fp/addsf3.c:47 (discriminator 44)
80003d46:	0791                	addi	a5,a5,4
80003d48:	aa49                	j	80003eda <__addsf3+0x2d0>
/home/hqfang/workspace/software/riscv-gnu-toolchain/riscv-gcc/libgcc/soft-fp/addsf3.c:46 (discriminator 143)
80003d4a:	d7c9                	beqz	a5,80003cd4 <__addsf3+0xca>
/home/hqfang/workspace/software/riscv-gnu-toolchain/riscv-gcc/libgcc/soft-fp/addsf3.c:46 (discriminator 329)
80003d4c:	db11                	beqz	a4,80003c60 <__addsf3+0x56>
/home/hqfang/workspace/software/riscv-gnu-toolchain/riscv-gcc/libgcc/soft-fp/addsf3.c:46
80003d4e:	4481                	li	s1,0
80003d50:	020007b7          	lui	a5,0x2000
80003d54:	0ff00413          	li	s0,255
80003d58:	a249                	j	80003eda <__addsf3+0x2d0>
/home/hqfang/workspace/software/riscv-gnu-toolchain/riscv-gcc/libgcc/soft-fp/addsf3.c:46 (discriminator 114)
80003d5a:	0ff00613          	li	a2,255
80003d5e:	16c68b63          	beq	a3,a2,80003ed4 <__addsf3+0x2ca>
/home/hqfang/workspace/software/riscv-gnu-toolchain/riscv-gcc/libgcc/soft-fp/addsf3.c:46
80003d62:	97ba                	add	a5,a5,a4
80003d64:	8385                	srli	a5,a5,0x1
80003d66:	8436                	mv	s0,a3
80003d68:	b7f1                	j	80003d34 <__addsf3+0x12a>
/home/hqfang/workspace/software/riscv-gnu-toolchain/riscv-gcc/libgcc/soft-fp/addsf3.c:46 (discriminator 8)
80003d6a:	06d05063          	blez	a3,80003dca <__addsf3+0x1c0>
/home/hqfang/workspace/software/riscv-gnu-toolchain/riscv-gcc/libgcc/soft-fp/addsf3.c:46 (discriminator 189)
80003d6e:	e529                	bnez	a0,80003db8 <__addsf3+0x1ae>
/home/hqfang/workspace/software/riscv-gnu-toolchain/riscv-gcc/libgcc/soft-fp/addsf3.c:46 (discriminator 191)
80003d70:	db7d                	beqz	a4,80003d66 <__addsf3+0x15c>
/home/hqfang/workspace/software/riscv-gnu-toolchain/riscv-gcc/libgcc/soft-fp/addsf3.c:46 (discriminator 194)
80003d72:	fff68613          	addi	a2,a3,-1
80003d76:	e601                	bnez	a2,80003d7e <__addsf3+0x174>
/home/hqfang/workspace/software/riscv-gnu-toolchain/riscv-gcc/libgcc/soft-fp/addsf3.c:46 (discriminator 203)
80003d78:	8f99                	sub	a5,a5,a4
/home/hqfang/workspace/software/riscv-gnu-toolchain/riscv-gcc/libgcc/soft-fp/addsf3.c:45 (discriminator 255)
80003d7a:	4405                	li	s0,1
/home/hqfang/workspace/software/riscv-gnu-toolchain/riscv-gcc/libgcc/soft-fp/addsf3.c:46 (discriminator 255)
80003d7c:	a02d                	j	80003da6 <__addsf3+0x19c>
/home/hqfang/workspace/software/riscv-gnu-toolchain/riscv-gcc/libgcc/soft-fp/addsf3.c:46 (discriminator 204)
80003d7e:	0ff00593          	li	a1,255
80003d82:	ecb68fe3          	beq	a3,a1,80003c60 <__addsf3+0x56>
/home/hqfang/workspace/software/riscv-gnu-toolchain/riscv-gcc/libgcc/soft-fp/addsf3.c:46 (discriminator 227)
80003d86:	45ed                	li	a1,27
80003d88:	4685                	li	a3,1
80003d8a:	00c5cd63          	blt	a1,a2,80003da4 <__addsf3+0x19a>
/home/hqfang/workspace/software/riscv-gnu-toolchain/riscv-gcc/libgcc/soft-fp/addsf3.c:46 (discriminator 228)
80003d8e:	02000693          	li	a3,32
80003d92:	8e91                	sub	a3,a3,a2
80003d94:	00c755b3          	srl	a1,a4,a2
80003d98:	00d71733          	sll	a4,a4,a3
80003d9c:	00e03733          	snez	a4,a4
80003da0:	00e5e6b3          	or	a3,a1,a4
/home/hqfang/workspace/software/riscv-gnu-toolchain/riscv-gcc/libgcc/soft-fp/addsf3.c:46 (discriminator 239)
80003da4:	8f95                	sub	a5,a5,a3
/home/hqfang/workspace/software/riscv-gnu-toolchain/riscv-gcc/libgcc/soft-fp/addsf3.c:46 (discriminator 292)
80003da6:	04000937          	lui	s2,0x4000
80003daa:	0127f733          	and	a4,a5,s2
80003dae:	d359                	beqz	a4,80003d34 <__addsf3+0x12a>
/home/hqfang/workspace/software/riscv-gnu-toolchain/riscv-gcc/libgcc/soft-fp/addsf3.c:46 (discriminator 351)
80003db0:	197d                	addi	s2,s2,-1
80003db2:	0127f933          	and	s2,a5,s2
80003db6:	a0f1                	j	80003e82 <__addsf3+0x278>
/home/hqfang/workspace/software/riscv-gnu-toolchain/riscv-gcc/libgcc/soft-fp/addsf3.c:46 (discriminator 192)
80003db8:	0ff00613          	li	a2,255
80003dbc:	f6c40ce3          	beq	s0,a2,80003d34 <__addsf3+0x12a>
/home/hqfang/workspace/software/riscv-gnu-toolchain/riscv-gcc/libgcc/soft-fp/addsf3.c:46 (discriminator 218)
80003dc0:	04000637          	lui	a2,0x4000
80003dc4:	8f51                	or	a4,a4,a2
80003dc6:	8636                	mv	a2,a3
80003dc8:	bf7d                	j	80003d86 <__addsf3+0x17c>
/home/hqfang/workspace/software/riscv-gnu-toolchain/riscv-gcc/libgcc/soft-fp/addsf3.c:46 (discriminator 190)
80003dca:	c2ad                	beqz	a3,80003e2c <__addsf3+0x222>
/home/hqfang/workspace/software/riscv-gnu-toolchain/riscv-gcc/libgcc/soft-fp/addsf3.c:46 (discriminator 241)
80003dcc:	408506b3          	sub	a3,a0,s0
80003dd0:	e015                	bnez	s0,80003df4 <__addsf3+0x1ea>
/home/hqfang/workspace/software/riscv-gnu-toolchain/riscv-gcc/libgcc/soft-fp/addsf3.c:46 (discriminator 243)
80003dd2:	14078a63          	beqz	a5,80003f26 <__addsf3+0x31c>
/home/hqfang/workspace/software/riscv-gnu-toolchain/riscv-gcc/libgcc/soft-fp/addsf3.c:46 (discriminator 246)
80003dd6:	fff68613          	addi	a2,a3,-1
80003dda:	e609                	bnez	a2,80003de4 <__addsf3+0x1da>
/home/hqfang/workspace/software/riscv-gnu-toolchain/riscv-gcc/libgcc/soft-fp/addsf3.c:46 (discriminator 255)
80003ddc:	40f707b3          	sub	a5,a4,a5
80003de0:	84ae                	mv	s1,a1
80003de2:	bf61                	j	80003d7a <__addsf3+0x170>
/home/hqfang/workspace/software/riscv-gnu-toolchain/riscv-gcc/libgcc/soft-fp/addsf3.c:46 (discriminator 256)
80003de4:	0ff00813          	li	a6,255
80003de8:	01069e63          	bne	a3,a6,80003e04 <__addsf3+0x1fa>
/home/hqfang/workspace/software/riscv-gnu-toolchain/riscv-gcc/libgcc/soft-fp/addsf3.c:45
80003dec:	87ba                	mv	a5,a4
/home/hqfang/workspace/software/riscv-gnu-toolchain/riscv-gcc/libgcc/soft-fp/addsf3.c:46
80003dee:	0ff00413          	li	s0,255
80003df2:	a0b9                	j	80003e40 <__addsf3+0x236>
/home/hqfang/workspace/software/riscv-gnu-toolchain/riscv-gcc/libgcc/soft-fp/addsf3.c:46 (discriminator 244)
80003df4:	0ff00613          	li	a2,255
80003df8:	fec50ae3          	beq	a0,a2,80003dec <__addsf3+0x1e2>
/home/hqfang/workspace/software/riscv-gnu-toolchain/riscv-gcc/libgcc/soft-fp/addsf3.c:46 (discriminator 270)
80003dfc:	04000637          	lui	a2,0x4000
80003e00:	8fd1                	or	a5,a5,a2
80003e02:	8636                	mv	a2,a3
/home/hqfang/workspace/software/riscv-gnu-toolchain/riscv-gcc/libgcc/soft-fp/addsf3.c:46 (discriminator 279)
80003e04:	486d                	li	a6,27
80003e06:	4685                	li	a3,1
80003e08:	00c84d63          	blt	a6,a2,80003e22 <__addsf3+0x218>
/home/hqfang/workspace/software/riscv-gnu-toolchain/riscv-gcc/libgcc/soft-fp/addsf3.c:46 (discriminator 280)
80003e0c:	02000693          	li	a3,32
80003e10:	8e91                	sub	a3,a3,a2
80003e12:	00c7d833          	srl	a6,a5,a2
80003e16:	00d797b3          	sll	a5,a5,a3
80003e1a:	00f037b3          	snez	a5,a5
80003e1e:	00f866b3          	or	a3,a6,a5
/home/hqfang/workspace/software/riscv-gnu-toolchain/riscv-gcc/libgcc/soft-fp/addsf3.c:46 (discriminator 291)
80003e22:	40d707b3          	sub	a5,a4,a3
/home/hqfang/workspace/software/riscv-gnu-toolchain/riscv-gcc/libgcc/soft-fp/addsf3.c:45 (discriminator 291)
80003e26:	842a                	mv	s0,a0
80003e28:	84ae                	mv	s1,a1
80003e2a:	bfb5                	j	80003da6 <__addsf3+0x19c>
/home/hqfang/workspace/software/riscv-gnu-toolchain/riscv-gcc/libgcc/soft-fp/addsf3.c:46 (discriminator 242)
80003e2c:	00140693          	addi	a3,s0,1
80003e30:	0fe6f693          	andi	a3,a3,254
80003e34:	ee8d                	bnez	a3,80003e6e <__addsf3+0x264>
/home/hqfang/workspace/software/riscv-gnu-toolchain/riscv-gcc/libgcc/soft-fp/addsf3.c:46 (discriminator 293)
80003e36:	e40d                	bnez	s0,80003e60 <__addsf3+0x256>
/home/hqfang/workspace/software/riscv-gnu-toolchain/riscv-gcc/libgcc/soft-fp/addsf3.c:46 (discriminator 295)
80003e38:	e791                	bnez	a5,80003e44 <__addsf3+0x23a>
/home/hqfang/workspace/software/riscv-gnu-toolchain/riscv-gcc/libgcc/soft-fp/addsf3.c:46 (discriminator 297)
80003e3a:	4481                	li	s1,0
80003e3c:	cf59                	beqz	a4,80003eda <__addsf3+0x2d0>
/home/hqfang/workspace/software/riscv-gnu-toolchain/riscv-gcc/libgcc/soft-fp/addsf3.c:46
80003e3e:	87ba                	mv	a5,a4
80003e40:	84ae                	mv	s1,a1
80003e42:	bdcd                	j	80003d34 <__addsf3+0x12a>
/home/hqfang/workspace/software/riscv-gnu-toolchain/riscv-gcc/libgcc/soft-fp/addsf3.c:46 (discriminator 298)
80003e44:	ee0708e3          	beqz	a4,80003d34 <__addsf3+0x12a>
/home/hqfang/workspace/software/riscv-gnu-toolchain/riscv-gcc/libgcc/soft-fp/addsf3.c:46 (discriminator 305)
80003e48:	40e786b3          	sub	a3,a5,a4
80003e4c:	04000637          	lui	a2,0x4000
80003e50:	8e75                	and	a2,a2,a3
80003e52:	40f707b3          	sub	a5,a4,a5
80003e56:	f66d                	bnez	a2,80003e40 <__addsf3+0x236>
/home/hqfang/workspace/software/riscv-gnu-toolchain/riscv-gcc/libgcc/soft-fp/addsf3.c:46 (discriminator 308)
80003e58:	4781                	li	a5,0
80003e5a:	c2a5                	beqz	a3,80003eba <__addsf3+0x2b0>
80003e5c:	87b6                	mv	a5,a3
80003e5e:	bdd9                	j	80003d34 <__addsf3+0x12a>
/home/hqfang/workspace/software/riscv-gnu-toolchain/riscv-gcc/libgcc/soft-fp/addsf3.c:46 (discriminator 327)
80003e60:	ee0796e3          	bnez	a5,80003d4c <__addsf3+0x142>
/home/hqfang/workspace/software/riscv-gnu-toolchain/riscv-gcc/libgcc/soft-fp/addsf3.c:46 (discriminator 328)
80003e64:	ee0705e3          	beqz	a4,80003d4e <__addsf3+0x144>
/home/hqfang/workspace/software/riscv-gnu-toolchain/riscv-gcc/libgcc/soft-fp/addsf3.c:46
80003e68:	87ba                	mv	a5,a4
80003e6a:	84ae                	mv	s1,a1
80003e6c:	bbd5                	j	80003c60 <__addsf3+0x56>
/home/hqfang/workspace/software/riscv-gnu-toolchain/riscv-gcc/libgcc/soft-fp/addsf3.c:46 (discriminator 294)
80003e6e:	40e78933          	sub	s2,a5,a4
80003e72:	040006b7          	lui	a3,0x4000
80003e76:	00d976b3          	and	a3,s2,a3
80003e7a:	ce85                	beqz	a3,80003eb2 <__addsf3+0x2a8>
/home/hqfang/workspace/software/riscv-gnu-toolchain/riscv-gcc/libgcc/soft-fp/addsf3.c:46 (discriminator 344)
80003e7c:	40f70933          	sub	s2,a4,a5
80003e80:	84ae                	mv	s1,a1
/home/hqfang/workspace/software/riscv-gnu-toolchain/riscv-gcc/libgcc/soft-fp/addsf3.c:46 (discriminator 354)
80003e82:	854a                	mv	a0,s2
80003e84:	543000ef          	jal	ra,80004bc6 <__clzsi2>
80003e88:	156d                	addi	a0,a0,-5
80003e8a:	00a91933          	sll	s2,s2,a0
80003e8e:	02854863          	blt	a0,s0,80003ebe <__addsf3+0x2b4>
/home/hqfang/workspace/software/riscv-gnu-toolchain/riscv-gcc/libgcc/soft-fp/addsf3.c:46 (discriminator 367)
80003e92:	8d01                	sub	a0,a0,s0
80003e94:	0505                	addi	a0,a0,1
80003e96:	02000413          	li	s0,32
80003e9a:	00a957b3          	srl	a5,s2,a0
80003e9e:	40a40533          	sub	a0,s0,a0
80003ea2:	00a91933          	sll	s2,s2,a0
80003ea6:	01203933          	snez	s2,s2
80003eaa:	0127e7b3          	or	a5,a5,s2
80003eae:	4401                	li	s0,0
80003eb0:	b551                	j	80003d34 <__addsf3+0x12a>
/home/hqfang/workspace/software/riscv-gnu-toolchain/riscv-gcc/libgcc/soft-fp/addsf3.c:46 (discriminator 345)
80003eb2:	fc0918e3          	bnez	s2,80003e82 <__addsf3+0x278>
/home/hqfang/workspace/software/riscv-gnu-toolchain/riscv-gcc/libgcc/soft-fp/addsf3.c:46
80003eb6:	4781                	li	a5,0
80003eb8:	4401                	li	s0,0
80003eba:	4481                	li	s1,0
80003ebc:	a839                	j	80003eda <__addsf3+0x2d0>
/home/hqfang/workspace/software/riscv-gnu-toolchain/riscv-gcc/libgcc/soft-fp/addsf3.c:46 (discriminator 368)
80003ebe:	fc0007b7          	lui	a5,0xfc000
80003ec2:	17fd                	addi	a5,a5,-1
80003ec4:	8c09                	sub	s0,s0,a0
80003ec6:	00f977b3          	and	a5,s2,a5
80003eca:	b5ad                	j	80003d34 <__addsf3+0x12a>
/home/hqfang/workspace/software/riscv-gnu-toolchain/riscv-gcc/libgcc/soft-fp/addsf3.c:45
80003ecc:	87ba                	mv	a5,a4
80003ece:	bd61                	j	80003d66 <__addsf3+0x15c>
80003ed0:	87ba                	mv	a5,a4
80003ed2:	b58d                	j	80003d34 <__addsf3+0x12a>
80003ed4:	0ff00413          	li	s0,255
80003ed8:	4781                	li	a5,0
/home/hqfang/workspace/software/riscv-gnu-toolchain/riscv-gcc/libgcc/soft-fp/addsf3.c:47 (discriminator 47)
80003eda:	04000737          	lui	a4,0x4000
80003ede:	8f7d                	and	a4,a4,a5
80003ee0:	cb11                	beqz	a4,80003ef4 <__addsf3+0x2ea>
/home/hqfang/workspace/software/riscv-gnu-toolchain/riscv-gcc/libgcc/soft-fp/addsf3.c:47 (discriminator 63)
80003ee2:	0405                	addi	s0,s0,1
80003ee4:	0ff00713          	li	a4,255
80003ee8:	04e40263          	beq	s0,a4,80003f2c <__addsf3+0x322>
/home/hqfang/workspace/software/riscv-gnu-toolchain/riscv-gcc/libgcc/soft-fp/addsf3.c:47
80003eec:	fc000737          	lui	a4,0xfc000
80003ef0:	177d                	addi	a4,a4,-1
80003ef2:	8ff9                	and	a5,a5,a4
/home/hqfang/workspace/software/riscv-gnu-toolchain/riscv-gcc/libgcc/soft-fp/addsf3.c:47 (discriminator 79)
80003ef4:	0ff00713          	li	a4,255
80003ef8:	838d                	srli	a5,a5,0x3
80003efa:	00e41663          	bne	s0,a4,80003f06 <__addsf3+0x2fc>
/home/hqfang/workspace/software/riscv-gnu-toolchain/riscv-gcc/libgcc/soft-fp/addsf3.c:47 (discriminator 80)
80003efe:	c781                	beqz	a5,80003f06 <__addsf3+0x2fc>
/home/hqfang/workspace/software/riscv-gnu-toolchain/riscv-gcc/libgcc/soft-fp/addsf3.c:47
80003f00:	004007b7          	lui	a5,0x400
80003f04:	4481                	li	s1,0
/home/hqfang/workspace/software/riscv-gnu-toolchain/riscv-gcc/libgcc/soft-fp/addsf3.c:47 (discriminator 90)
80003f06:	7f800537          	lui	a0,0x7f800
80003f0a:	045e                	slli	s0,s0,0x17
80003f0c:	07a6                	slli	a5,a5,0x9
80003f0e:	8c69                	and	s0,s0,a0
80003f10:	83a5                	srli	a5,a5,0x9
/home/hqfang/workspace/software/riscv-gnu-toolchain/riscv-gcc/libgcc/soft-fp/addsf3.c:51 (discriminator 90)
80003f12:	40b2                	lw	ra,12(sp)
/home/hqfang/workspace/software/riscv-gnu-toolchain/riscv-gcc/libgcc/soft-fp/addsf3.c:47 (discriminator 90)
80003f14:	8fc1                	or	a5,a5,s0
/home/hqfang/workspace/software/riscv-gnu-toolchain/riscv-gcc/libgcc/soft-fp/addsf3.c:51 (discriminator 90)
80003f16:	4422                	lw	s0,8(sp)
/home/hqfang/workspace/software/riscv-gnu-toolchain/riscv-gcc/libgcc/soft-fp/addsf3.c:47 (discriminator 90)
80003f18:	01f49513          	slli	a0,s1,0x1f
/home/hqfang/workspace/software/riscv-gnu-toolchain/riscv-gcc/libgcc/soft-fp/addsf3.c:51 (discriminator 90)
80003f1c:	4902                	lw	s2,0(sp)
80003f1e:	4492                	lw	s1,4(sp)
80003f20:	8d5d                	or	a0,a0,a5
80003f22:	0141                	addi	sp,sp,16
80003f24:	8082                	ret
/home/hqfang/workspace/software/riscv-gnu-toolchain/riscv-gcc/libgcc/soft-fp/addsf3.c:45
80003f26:	87ba                	mv	a5,a4
/home/hqfang/workspace/software/riscv-gnu-toolchain/riscv-gcc/libgcc/soft-fp/addsf3.c:46
80003f28:	8436                	mv	s0,a3
80003f2a:	bf19                	j	80003e40 <__addsf3+0x236>
80003f2c:	4781                	li	a5,0
80003f2e:	b7d9                	j	80003ef4 <__addsf3+0x2ea>

80003f30 <__divsf3>:
__divsf3():
/home/hqfang/workspace/software/riscv-gnu-toolchain/riscv-gcc/libgcc/soft-fp/divsf3.c:36
80003f30:	1101                	addi	sp,sp,-32
80003f32:	ca26                	sw	s1,20(sp)
80003f34:	01755493          	srli	s1,a0,0x17
80003f38:	c84a                	sw	s2,16(sp)
80003f3a:	c64e                	sw	s3,12(sp)
80003f3c:	c452                	sw	s4,8(sp)
/home/hqfang/workspace/software/riscv-gnu-toolchain/riscv-gcc/libgcc/soft-fp/divsf3.c:44
80003f3e:	00951993          	slli	s3,a0,0x9
/home/hqfang/workspace/software/riscv-gnu-toolchain/riscv-gcc/libgcc/soft-fp/divsf3.c:36
80003f42:	ce06                	sw	ra,28(sp)
80003f44:	cc22                	sw	s0,24(sp)
80003f46:	c256                	sw	s5,4(sp)
80003f48:	0ff4f493          	andi	s1,s1,255
80003f4c:	8a2e                	mv	s4,a1
/home/hqfang/workspace/software/riscv-gnu-toolchain/riscv-gcc/libgcc/soft-fp/divsf3.c:44
80003f4e:	0099d993          	srli	s3,s3,0x9
80003f52:	01f55913          	srli	s2,a0,0x1f
80003f56:	c4b5                	beqz	s1,80003fc2 <__divsf3+0x92>
80003f58:	0ff00793          	li	a5,255
80003f5c:	08f48063          	beq	s1,a5,80003fdc <__divsf3+0xac>
/home/hqfang/workspace/software/riscv-gnu-toolchain/riscv-gcc/libgcc/soft-fp/divsf3.c:44 (discriminator 1)
80003f60:	098e                	slli	s3,s3,0x3
80003f62:	040007b7          	lui	a5,0x4000
80003f66:	00f9e9b3          	or	s3,s3,a5
80003f6a:	f8148493          	addi	s1,s1,-127
/home/hqfang/workspace/software/riscv-gnu-toolchain/riscv-gcc/libgcc/soft-fp/divsf3.c:44 (discriminator 15)
80003f6e:	4a81                	li	s5,0
/home/hqfang/workspace/software/riscv-gnu-toolchain/riscv-gcc/libgcc/soft-fp/divsf3.c:45 (discriminator 8)
80003f70:	017a5513          	srli	a0,s4,0x17
80003f74:	009a1413          	slli	s0,s4,0x9
80003f78:	0ff57513          	andi	a0,a0,255
80003f7c:	8025                	srli	s0,s0,0x9
80003f7e:	01fa5a13          	srli	s4,s4,0x1f
80003f82:	c53d                	beqz	a0,80003ff0 <__divsf3+0xc0>
/home/hqfang/workspace/software/riscv-gnu-toolchain/riscv-gcc/libgcc/soft-fp/divsf3.c:45
80003f84:	0ff00793          	li	a5,255
80003f88:	08f50163          	beq	a0,a5,8000400a <__divsf3+0xda>
/home/hqfang/workspace/software/riscv-gnu-toolchain/riscv-gcc/libgcc/soft-fp/divsf3.c:45 (discriminator 1)
80003f8c:	040e                	slli	s0,s0,0x3
80003f8e:	040007b7          	lui	a5,0x4000
80003f92:	8c5d                	or	s0,s0,a5
80003f94:	f8150513          	addi	a0,a0,-127 # 7f7fff81 <__stack_size+0x7f7ff781>
/home/hqfang/workspace/software/riscv-gnu-toolchain/riscv-gcc/libgcc/soft-fp/divsf3.c:45 (discriminator 15)
80003f98:	4781                	li	a5,0
/home/hqfang/workspace/software/riscv-gnu-toolchain/riscv-gcc/libgcc/soft-fp/divsf3.c:46 (discriminator 8)
80003f9a:	002a9693          	slli	a3,s5,0x2
80003f9e:	8edd                	or	a3,a3,a5
80003fa0:	16fd                	addi	a3,a3,-1
80003fa2:	4739                	li	a4,14
80003fa4:	01494633          	xor	a2,s2,s4
80003fa8:	40a48533          	sub	a0,s1,a0
80003fac:	06d76863          	bltu	a4,a3,8000401c <__divsf3+0xec>
80003fb0:	00006597          	auipc	a1,0x6
80003fb4:	13c58593          	addi	a1,a1,316 # 8000a0ec <init_jk+0xc>
80003fb8:	068a                	slli	a3,a3,0x2
80003fba:	96ae                	add	a3,a3,a1
80003fbc:	4298                	lw	a4,0(a3)
80003fbe:	972e                	add	a4,a4,a1
80003fc0:	8702                	jr	a4
/home/hqfang/workspace/software/riscv-gnu-toolchain/riscv-gcc/libgcc/soft-fp/divsf3.c:44 (discriminator 2)
80003fc2:	02098463          	beqz	s3,80003fea <__divsf3+0xba>
/home/hqfang/workspace/software/riscv-gnu-toolchain/riscv-gcc/libgcc/soft-fp/divsf3.c:44 (discriminator 15)
80003fc6:	854e                	mv	a0,s3
80003fc8:	3ff000ef          	jal	ra,80004bc6 <__clzsi2>
80003fcc:	ffb50793          	addi	a5,a0,-5
80003fd0:	f8a00493          	li	s1,-118
80003fd4:	00f999b3          	sll	s3,s3,a5
80003fd8:	8c89                	sub	s1,s1,a0
80003fda:	bf51                	j	80003f6e <__divsf3+0x3e>
/home/hqfang/workspace/software/riscv-gnu-toolchain/riscv-gcc/libgcc/soft-fp/divsf3.c:44 (discriminator 3)
80003fdc:	0ff00493          	li	s1,255
80003fe0:	4a89                	li	s5,2
80003fe2:	f80987e3          	beqz	s3,80003f70 <__divsf3+0x40>
/home/hqfang/workspace/software/riscv-gnu-toolchain/riscv-gcc/libgcc/soft-fp/divsf3.c:44
80003fe6:	4a8d                	li	s5,3
80003fe8:	b761                	j	80003f70 <__divsf3+0x40>
80003fea:	4481                	li	s1,0
80003fec:	4a85                	li	s5,1
80003fee:	b749                	j	80003f70 <__divsf3+0x40>
/home/hqfang/workspace/software/riscv-gnu-toolchain/riscv-gcc/libgcc/soft-fp/divsf3.c:45 (discriminator 2)
80003ff0:	c01d                	beqz	s0,80004016 <__divsf3+0xe6>
/home/hqfang/workspace/software/riscv-gnu-toolchain/riscv-gcc/libgcc/soft-fp/divsf3.c:45 (discriminator 15)
80003ff2:	8522                	mv	a0,s0
80003ff4:	3d3000ef          	jal	ra,80004bc6 <__clzsi2>
80003ff8:	ffb50793          	addi	a5,a0,-5
80003ffc:	00f41433          	sll	s0,s0,a5
80004000:	f8a00793          	li	a5,-118
80004004:	40a78533          	sub	a0,a5,a0
80004008:	bf41                	j	80003f98 <__divsf3+0x68>
/home/hqfang/workspace/software/riscv-gnu-toolchain/riscv-gcc/libgcc/soft-fp/divsf3.c:45 (discriminator 3)
8000400a:	0ff00513          	li	a0,255
8000400e:	4789                	li	a5,2
80004010:	d449                	beqz	s0,80003f9a <__divsf3+0x6a>
/home/hqfang/workspace/software/riscv-gnu-toolchain/riscv-gcc/libgcc/soft-fp/divsf3.c:45
80004012:	478d                	li	a5,3
80004014:	b759                	j	80003f9a <__divsf3+0x6a>
80004016:	4501                	li	a0,0
80004018:	4785                	li	a5,1
8000401a:	b741                	j	80003f9a <__divsf3+0x6a>
/home/hqfang/workspace/software/riscv-gnu-toolchain/riscv-gcc/libgcc/soft-fp/divsf3.c:46 (discriminator 2)
8000401c:	00541813          	slli	a6,s0,0x5
80004020:	0c89fe63          	bgeu	s3,s0,800040fc <__divsf3+0x1cc>
/home/hqfang/workspace/software/riscv-gnu-toolchain/riscv-gcc/libgcc/soft-fp/divsf3.c:46 (discriminator 10)
80004024:	157d                	addi	a0,a0,-1
80004026:	4681                	li	a3,0
/home/hqfang/workspace/software/riscv-gnu-toolchain/riscv-gcc/libgcc/soft-fp/divsf3.c:46 (discriminator 13)
80004028:	01085413          	srli	s0,a6,0x10
8000402c:	0289d333          	divu	t1,s3,s0
80004030:	67c1                	lui	a5,0x10
80004032:	17fd                	addi	a5,a5,-1
80004034:	00f877b3          	and	a5,a6,a5
80004038:	82c1                	srli	a3,a3,0x10
8000403a:	0289f733          	remu	a4,s3,s0
8000403e:	859a                	mv	a1,t1
80004040:	026788b3          	mul	a7,a5,t1
80004044:	0742                	slli	a4,a4,0x10
80004046:	8f55                	or	a4,a4,a3
80004048:	01177c63          	bgeu	a4,a7,80004060 <__divsf3+0x130>
/home/hqfang/workspace/software/riscv-gnu-toolchain/riscv-gcc/libgcc/soft-fp/divsf3.c:46 (discriminator 14)
8000404c:	9742                	add	a4,a4,a6
8000404e:	fff30593          	addi	a1,t1,-1
80004052:	01076763          	bltu	a4,a6,80004060 <__divsf3+0x130>
/home/hqfang/workspace/software/riscv-gnu-toolchain/riscv-gcc/libgcc/soft-fp/divsf3.c:46 (discriminator 16)
80004056:	01177563          	bgeu	a4,a7,80004060 <__divsf3+0x130>
/home/hqfang/workspace/software/riscv-gnu-toolchain/riscv-gcc/libgcc/soft-fp/divsf3.c:46 (discriminator 18)
8000405a:	ffe30593          	addi	a1,t1,-2
8000405e:	9742                	add	a4,a4,a6
/home/hqfang/workspace/software/riscv-gnu-toolchain/riscv-gcc/libgcc/soft-fp/divsf3.c:46 (discriminator 20)
80004060:	41170733          	sub	a4,a4,a7
80004064:	028758b3          	divu	a7,a4,s0
80004068:	02877733          	remu	a4,a4,s0
8000406c:	031786b3          	mul	a3,a5,a7
80004070:	01071793          	slli	a5,a4,0x10
80004074:	8746                	mv	a4,a7
80004076:	00d7fc63          	bgeu	a5,a3,8000408e <__divsf3+0x15e>
/home/hqfang/workspace/software/riscv-gnu-toolchain/riscv-gcc/libgcc/soft-fp/divsf3.c:46 (discriminator 21)
8000407a:	97c2                	add	a5,a5,a6
8000407c:	fff88713          	addi	a4,a7,-1
80004080:	0107e763          	bltu	a5,a6,8000408e <__divsf3+0x15e>
/home/hqfang/workspace/software/riscv-gnu-toolchain/riscv-gcc/libgcc/soft-fp/divsf3.c:46 (discriminator 23)
80004084:	00d7f563          	bgeu	a5,a3,8000408e <__divsf3+0x15e>
/home/hqfang/workspace/software/riscv-gnu-toolchain/riscv-gcc/libgcc/soft-fp/divsf3.c:46 (discriminator 25)
80004088:	ffe88713          	addi	a4,a7,-2
8000408c:	97c2                	add	a5,a5,a6
/home/hqfang/workspace/software/riscv-gnu-toolchain/riscv-gcc/libgcc/soft-fp/divsf3.c:46 (discriminator 27)
8000408e:	01059413          	slli	s0,a1,0x10
80004092:	8f95                	sub	a5,a5,a3
80004094:	8c59                	or	s0,s0,a4
80004096:	00f037b3          	snez	a5,a5
8000409a:	8c5d                	or	s0,s0,a5
/home/hqfang/workspace/software/riscv-gnu-toolchain/riscv-gcc/libgcc/soft-fp/divsf3.c:47 (discriminator 2)
8000409c:	07f50713          	addi	a4,a0,127
800040a0:	08e05a63          	blez	a4,80004134 <__divsf3+0x204>
/home/hqfang/workspace/software/riscv-gnu-toolchain/riscv-gcc/libgcc/soft-fp/divsf3.c:47 (discriminator 6)
800040a4:	00747793          	andi	a5,s0,7
800040a8:	c799                	beqz	a5,800040b6 <__divsf3+0x186>
/home/hqfang/workspace/software/riscv-gnu-toolchain/riscv-gcc/libgcc/soft-fp/divsf3.c:47 (discriminator 8)
800040aa:	00f47793          	andi	a5,s0,15
800040ae:	4691                	li	a3,4
800040b0:	00d78363          	beq	a5,a3,800040b6 <__divsf3+0x186>
/home/hqfang/workspace/software/riscv-gnu-toolchain/riscv-gcc/libgcc/soft-fp/divsf3.c:47 (discriminator 10)
800040b4:	0411                	addi	s0,s0,4
/home/hqfang/workspace/software/riscv-gnu-toolchain/riscv-gcc/libgcc/soft-fp/divsf3.c:47 (discriminator 9)
800040b6:	080007b7          	lui	a5,0x8000
800040ba:	8fe1                	and	a5,a5,s0
800040bc:	c799                	beqz	a5,800040ca <__divsf3+0x19a>
/home/hqfang/workspace/software/riscv-gnu-toolchain/riscv-gcc/libgcc/soft-fp/divsf3.c:47 (discriminator 24)
800040be:	f80007b7          	lui	a5,0xf8000
800040c2:	17fd                	addi	a5,a5,-1
800040c4:	8c7d                	and	s0,s0,a5
800040c6:	08050713          	addi	a4,a0,128
/home/hqfang/workspace/software/riscv-gnu-toolchain/riscv-gcc/libgcc/soft-fp/divsf3.c:47 (discriminator 26)
800040ca:	0fe00793          	li	a5,254
800040ce:	800d                	srli	s0,s0,0x3
800040d0:	04e7c763          	blt	a5,a4,8000411e <__divsf3+0x1ee>
/home/hqfang/workspace/software/riscv-gnu-toolchain/riscv-gcc/libgcc/soft-fp/divsf3.c:47 (discriminator 111)
800040d4:	01771793          	slli	a5,a4,0x17
800040d8:	0426                	slli	s0,s0,0x9
800040da:	7f800737          	lui	a4,0x7f800
800040de:	8ff9                	and	a5,a5,a4
800040e0:	8025                	srli	s0,s0,0x9
800040e2:	8c5d                	or	s0,s0,a5
800040e4:	01f61513          	slli	a0,a2,0x1f
/home/hqfang/workspace/software/riscv-gnu-toolchain/riscv-gcc/libgcc/soft-fp/divsf3.c:51 (discriminator 111)
800040e8:	40f2                	lw	ra,28(sp)
800040ea:	8d41                	or	a0,a0,s0
800040ec:	4462                	lw	s0,24(sp)
800040ee:	44d2                	lw	s1,20(sp)
800040f0:	4942                	lw	s2,16(sp)
800040f2:	49b2                	lw	s3,12(sp)
800040f4:	4a22                	lw	s4,8(sp)
800040f6:	4a92                	lw	s5,4(sp)
800040f8:	6105                	addi	sp,sp,32
800040fa:	8082                	ret
/home/hqfang/workspace/software/riscv-gnu-toolchain/riscv-gcc/libgcc/soft-fp/divsf3.c:46 (discriminator 11)
800040fc:	01f99693          	slli	a3,s3,0x1f
80004100:	0019d993          	srli	s3,s3,0x1
80004104:	b715                	j	80004028 <__divsf3+0xf8>
/home/hqfang/workspace/software/riscv-gnu-toolchain/riscv-gcc/libgcc/soft-fp/divsf3.c:44 (discriminator 8)
80004106:	864a                	mv	a2,s2
/home/hqfang/workspace/software/riscv-gnu-toolchain/riscv-gcc/libgcc/soft-fp/divsf3.c:46 (discriminator 8)
80004108:	844e                	mv	s0,s3
8000410a:	87d6                	mv	a5,s5
/home/hqfang/workspace/software/riscv-gnu-toolchain/riscv-gcc/libgcc/soft-fp/divsf3.c:47 (discriminator 35)
8000410c:	470d                	li	a4,3
8000410e:	06e78263          	beq	a5,a4,80004172 <__divsf3+0x242>
/home/hqfang/workspace/software/riscv-gnu-toolchain/riscv-gcc/libgcc/soft-fp/divsf3.c:47
80004112:	4705                	li	a4,1
80004114:	06e78563          	beq	a5,a4,8000417e <__divsf3+0x24e>
80004118:	4709                	li	a4,2
8000411a:	f8e791e3          	bne	a5,a4,8000409c <__divsf3+0x16c>
8000411e:	4401                	li	s0,0
80004120:	0ff00713          	li	a4,255
80004124:	bf45                	j	800040d4 <__divsf3+0x1a4>
/home/hqfang/workspace/software/riscv-gnu-toolchain/riscv-gcc/libgcc/soft-fp/divsf3.c:45 (discriminator 5)
80004126:	8652                	mv	a2,s4
/home/hqfang/workspace/software/riscv-gnu-toolchain/riscv-gcc/libgcc/soft-fp/divsf3.c:46 (discriminator 5)
80004128:	b7d5                	j	8000410c <__divsf3+0x1dc>
/home/hqfang/workspace/software/riscv-gnu-toolchain/riscv-gcc/libgcc/soft-fp/divsf3.c:46
8000412a:	00400437          	lui	s0,0x400
8000412e:	4601                	li	a2,0
80004130:	478d                	li	a5,3
80004132:	bfe9                	j	8000410c <__divsf3+0x1dc>
/home/hqfang/workspace/software/riscv-gnu-toolchain/riscv-gcc/libgcc/soft-fp/divsf3.c:47 (discriminator 59)
80004134:	4785                	li	a5,1
80004136:	8f99                	sub	a5,a5,a4
80004138:	476d                	li	a4,27
8000413a:	04f74263          	blt	a4,a5,8000417e <__divsf3+0x24e>
/home/hqfang/workspace/software/riscv-gnu-toolchain/riscv-gcc/libgcc/soft-fp/divsf3.c:47 (discriminator 60)
8000413e:	09e50513          	addi	a0,a0,158
80004142:	00f457b3          	srl	a5,s0,a5
80004146:	00a41433          	sll	s0,s0,a0
8000414a:	00803433          	snez	s0,s0
8000414e:	8c5d                	or	s0,s0,a5
80004150:	00747793          	andi	a5,s0,7
80004154:	c799                	beqz	a5,80004162 <__divsf3+0x232>
/home/hqfang/workspace/software/riscv-gnu-toolchain/riscv-gcc/libgcc/soft-fp/divsf3.c:47 (discriminator 68)
80004156:	00f47793          	andi	a5,s0,15
8000415a:	4711                	li	a4,4
8000415c:	00e78363          	beq	a5,a4,80004162 <__divsf3+0x232>
/home/hqfang/workspace/software/riscv-gnu-toolchain/riscv-gcc/libgcc/soft-fp/divsf3.c:47 (discriminator 70)
80004160:	0411                	addi	s0,s0,4
/home/hqfang/workspace/software/riscv-gnu-toolchain/riscv-gcc/libgcc/soft-fp/divsf3.c:47 (discriminator 69)
80004162:	040007b7          	lui	a5,0x4000
80004166:	8fe1                	and	a5,a5,s0
80004168:	800d                	srli	s0,s0,0x3
8000416a:	cb99                	beqz	a5,80004180 <__divsf3+0x250>
/home/hqfang/workspace/software/riscv-gnu-toolchain/riscv-gcc/libgcc/soft-fp/divsf3.c:47
8000416c:	4401                	li	s0,0
8000416e:	4705                	li	a4,1
80004170:	b795                	j	800040d4 <__divsf3+0x1a4>
80004172:	00400437          	lui	s0,0x400
80004176:	0ff00713          	li	a4,255
8000417a:	4601                	li	a2,0
8000417c:	bfa1                	j	800040d4 <__divsf3+0x1a4>
8000417e:	4401                	li	s0,0
80004180:	4701                	li	a4,0
80004182:	bf89                	j	800040d4 <__divsf3+0x1a4>

80004184 <__eqsf2>:
__eqsf2():
/home/hqfang/workspace/software/riscv-gnu-toolchain/riscv-gcc/libgcc/soft-fp/eqsf2.c:43
80004184:	01755693          	srli	a3,a0,0x17
80004188:	008007b7          	lui	a5,0x800
8000418c:	17fd                	addi	a5,a5,-1
/home/hqfang/workspace/software/riscv-gnu-toolchain/riscv-gcc/libgcc/soft-fp/eqsf2.c:44
8000418e:	0175d613          	srli	a2,a1,0x17
/home/hqfang/workspace/software/riscv-gnu-toolchain/riscv-gcc/libgcc/soft-fp/eqsf2.c:43
80004192:	0ff6f693          	andi	a3,a3,255
/home/hqfang/workspace/software/riscv-gnu-toolchain/riscv-gcc/libgcc/soft-fp/eqsf2.c:45
80004196:	0ff00893          	li	a7,255
/home/hqfang/workspace/software/riscv-gnu-toolchain/riscv-gcc/libgcc/soft-fp/eqsf2.c:43
8000419a:	00a7f833          	and	a6,a5,a0
8000419e:	01f55713          	srli	a4,a0,0x1f
/home/hqfang/workspace/software/riscv-gnu-toolchain/riscv-gcc/libgcc/soft-fp/eqsf2.c:44
800041a2:	8fed                	and	a5,a5,a1
800041a4:	0ff67613          	andi	a2,a2,255
800041a8:	81fd                	srli	a1,a1,0x1f
/home/hqfang/workspace/software/riscv-gnu-toolchain/riscv-gcc/libgcc/soft-fp/eqsf2.c:45
800041aa:	4505                	li	a0,1
800041ac:	01169863          	bne	a3,a7,800041bc <__eqsf2+0x38>
/home/hqfang/workspace/software/riscv-gnu-toolchain/riscv-gcc/libgcc/soft-fp/eqsf2.c:45 (discriminator 20)
800041b0:	00081563          	bnez	a6,800041ba <__eqsf2+0x36>
/home/hqfang/workspace/software/riscv-gnu-toolchain/riscv-gcc/libgcc/soft-fp/eqsf2.c:45
800041b4:	00d61363          	bne	a2,a3,800041ba <__eqsf2+0x36>
800041b8:	cb81                	beqz	a5,800041c8 <__eqsf2+0x44>
/home/hqfang/workspace/software/riscv-gnu-toolchain/riscv-gcc/libgcc/soft-fp/eqsf2.c:49
800041ba:	8082                	ret
/home/hqfang/workspace/software/riscv-gnu-toolchain/riscv-gcc/libgcc/soft-fp/eqsf2.c:45 (discriminator 23)
800041bc:	ff160fe3          	beq	a2,a7,800041ba <__eqsf2+0x36>
/home/hqfang/workspace/software/riscv-gnu-toolchain/riscv-gcc/libgcc/soft-fp/eqsf2.c:45 (discriminator 78)
800041c0:	fec69de3          	bne	a3,a2,800041ba <__eqsf2+0x36>
/home/hqfang/workspace/software/riscv-gnu-toolchain/riscv-gcc/libgcc/soft-fp/eqsf2.c:45 (discriminator 80)
800041c4:	fef81be3          	bne	a6,a5,800041ba <__eqsf2+0x36>
/home/hqfang/workspace/software/riscv-gnu-toolchain/riscv-gcc/libgcc/soft-fp/eqsf2.c:45 (discriminator 82)
800041c8:	4501                	li	a0,0
800041ca:	feb708e3          	beq	a4,a1,800041ba <__eqsf2+0x36>
/home/hqfang/workspace/software/riscv-gnu-toolchain/riscv-gcc/libgcc/soft-fp/eqsf2.c:45 (discriminator 83)
800041ce:	4505                	li	a0,1
800041d0:	f6ed                	bnez	a3,800041ba <__eqsf2+0x36>
/home/hqfang/workspace/software/riscv-gnu-toolchain/riscv-gcc/libgcc/soft-fp/eqsf2.c:45 (discriminator 86)
800041d2:	01003533          	snez	a0,a6
800041d6:	8082                	ret

800041d8 <__gesf2>:
__gesf2():
/home/hqfang/workspace/software/riscv-gnu-toolchain/riscv-gcc/libgcc/soft-fp/gesf2.c:43
800041d8:	01755693          	srli	a3,a0,0x17
800041dc:	008007b7          	lui	a5,0x800
800041e0:	17fd                	addi	a5,a5,-1
/home/hqfang/workspace/software/riscv-gnu-toolchain/riscv-gcc/libgcc/soft-fp/gesf2.c:44
800041e2:	0175d713          	srli	a4,a1,0x17
/home/hqfang/workspace/software/riscv-gnu-toolchain/riscv-gcc/libgcc/soft-fp/gesf2.c:43
800041e6:	0ff6f693          	andi	a3,a3,255
/home/hqfang/workspace/software/riscv-gnu-toolchain/riscv-gcc/libgcc/soft-fp/gesf2.c:45
800041ea:	0ff00813          	li	a6,255
/home/hqfang/workspace/software/riscv-gnu-toolchain/riscv-gcc/libgcc/soft-fp/gesf2.c:43
800041ee:	00a7f633          	and	a2,a5,a0
/home/hqfang/workspace/software/riscv-gnu-toolchain/riscv-gcc/libgcc/soft-fp/gesf2.c:44
800041f2:	0ff77713          	andi	a4,a4,255
800041f6:	8fed                	and	a5,a5,a1
/home/hqfang/workspace/software/riscv-gnu-toolchain/riscv-gcc/libgcc/soft-fp/gesf2.c:43
800041f8:	817d                	srli	a0,a0,0x1f
/home/hqfang/workspace/software/riscv-gnu-toolchain/riscv-gcc/libgcc/soft-fp/gesf2.c:44
800041fa:	81fd                	srli	a1,a1,0x1f
/home/hqfang/workspace/software/riscv-gnu-toolchain/riscv-gcc/libgcc/soft-fp/gesf2.c:45
800041fc:	01069563          	bne	a3,a6,80004206 <__gesf2+0x2e>
/home/hqfang/workspace/software/riscv-gnu-toolchain/riscv-gcc/libgcc/soft-fp/gesf2.c:45 (discriminator 20)
80004200:	c239                	beqz	a2,80004246 <__gesf2+0x6e>
/home/hqfang/workspace/software/riscv-gnu-toolchain/riscv-gcc/libgcc/soft-fp/gesf2.c:45
80004202:	5579                	li	a0,-2
80004204:	8082                	ret
/home/hqfang/workspace/software/riscv-gnu-toolchain/riscv-gcc/libgcc/soft-fp/gesf2.c:45 (discriminator 23)
80004206:	01071363          	bne	a4,a6,8000420c <__gesf2+0x34>
/home/hqfang/workspace/software/riscv-gnu-toolchain/riscv-gcc/libgcc/soft-fp/gesf2.c:45 (discriminator 24)
8000420a:	ffe5                	bnez	a5,80004202 <__gesf2+0x2a>
/home/hqfang/workspace/software/riscv-gnu-toolchain/riscv-gcc/libgcc/soft-fp/gesf2.c:45 (discriminator 62)
8000420c:	ee9d                	bnez	a3,8000424a <__gesf2+0x72>
/home/hqfang/workspace/software/riscv-gnu-toolchain/riscv-gcc/libgcc/soft-fp/gesf2.c:45 (discriminator 63)
8000420e:	e311                	bnez	a4,80004212 <__gesf2+0x3a>
/home/hqfang/workspace/software/riscv-gnu-toolchain/riscv-gcc/libgcc/soft-fp/gesf2.c:45 (discriminator 69)
80004210:	cb8d                	beqz	a5,80004242 <__gesf2+0x6a>
/home/hqfang/workspace/software/riscv-gnu-toolchain/riscv-gcc/libgcc/soft-fp/gesf2.c:45
80004212:	ca01                	beqz	a2,80004222 <__gesf2+0x4a>
80004214:	00b51463          	bne	a0,a1,8000421c <__gesf2+0x44>
/home/hqfang/workspace/software/riscv-gnu-toolchain/riscv-gcc/libgcc/soft-fp/gesf2.c:45 (discriminator 95)
80004218:	00d75963          	bge	a4,a3,8000422a <__gesf2+0x52>
/home/hqfang/workspace/software/riscv-gnu-toolchain/riscv-gcc/libgcc/soft-fp/gesf2.c:45 (discriminator 115)
8000421c:	c10d                	beqz	a0,8000423e <__gesf2+0x66>
/home/hqfang/workspace/software/riscv-gnu-toolchain/riscv-gcc/libgcc/soft-fp/gesf2.c:45
8000421e:	557d                	li	a0,-1
80004220:	8082                	ret
/home/hqfang/workspace/software/riscv-gnu-toolchain/riscv-gcc/libgcc/soft-fp/gesf2.c:45 (discriminator 80)
80004222:	557d                	li	a0,-1
80004224:	c591                	beqz	a1,80004230 <__gesf2+0x58>
/home/hqfang/workspace/software/riscv-gnu-toolchain/riscv-gcc/libgcc/soft-fp/gesf2.c:45
80004226:	852e                	mv	a0,a1
80004228:	8082                	ret
/home/hqfang/workspace/software/riscv-gnu-toolchain/riscv-gcc/libgcc/soft-fp/gesf2.c:45 (discriminator 102)
8000422a:	00e6d463          	bge	a3,a4,80004232 <__gesf2+0x5a>
/home/hqfang/workspace/software/riscv-gnu-toolchain/riscv-gcc/libgcc/soft-fp/gesf2.c:45 (discriminator 122)
8000422e:	d965                	beqz	a0,8000421e <__gesf2+0x46>
/home/hqfang/workspace/software/riscv-gnu-toolchain/riscv-gcc/libgcc/soft-fp/gesf2.c:49
80004230:	8082                	ret
/home/hqfang/workspace/software/riscv-gnu-toolchain/riscv-gcc/libgcc/soft-fp/gesf2.c:45 (discriminator 109)
80004232:	fec7e5e3          	bltu	a5,a2,8000421c <__gesf2+0x44>
/home/hqfang/workspace/software/riscv-gnu-toolchain/riscv-gcc/libgcc/soft-fp/gesf2.c:45 (discriminator 116)
80004236:	fef66ce3          	bltu	a2,a5,8000422e <__gesf2+0x56>
/home/hqfang/workspace/software/riscv-gnu-toolchain/riscv-gcc/libgcc/soft-fp/gesf2.c:45
8000423a:	4501                	li	a0,0
/home/hqfang/workspace/software/riscv-gnu-toolchain/riscv-gcc/libgcc/soft-fp/gesf2.c:48
8000423c:	8082                	ret
/home/hqfang/workspace/software/riscv-gnu-toolchain/riscv-gcc/libgcc/soft-fp/gesf2.c:45
8000423e:	4505                	li	a0,1
80004240:	8082                	ret
80004242:	de65                	beqz	a2,8000423a <__gesf2+0x62>
80004244:	bfe1                	j	8000421c <__gesf2+0x44>
80004246:	fcd702e3          	beq	a4,a3,8000420a <__gesf2+0x32>
8000424a:	f769                	bnez	a4,80004214 <__gesf2+0x3c>
8000424c:	dbe1                	beqz	a5,8000421c <__gesf2+0x44>
8000424e:	b7d9                	j	80004214 <__gesf2+0x3c>

80004250 <__lesf2>:
__lesf2():
/home/hqfang/workspace/software/riscv-gnu-toolchain/riscv-gcc/libgcc/soft-fp/lesf2.c:43
80004250:	01755693          	srli	a3,a0,0x17
80004254:	008007b7          	lui	a5,0x800
80004258:	17fd                	addi	a5,a5,-1
/home/hqfang/workspace/software/riscv-gnu-toolchain/riscv-gcc/libgcc/soft-fp/lesf2.c:44
8000425a:	0175d713          	srli	a4,a1,0x17
/home/hqfang/workspace/software/riscv-gnu-toolchain/riscv-gcc/libgcc/soft-fp/lesf2.c:43
8000425e:	0ff6f693          	andi	a3,a3,255
/home/hqfang/workspace/software/riscv-gnu-toolchain/riscv-gcc/libgcc/soft-fp/lesf2.c:45
80004262:	0ff00813          	li	a6,255
/home/hqfang/workspace/software/riscv-gnu-toolchain/riscv-gcc/libgcc/soft-fp/lesf2.c:43
80004266:	00a7f633          	and	a2,a5,a0
/home/hqfang/workspace/software/riscv-gnu-toolchain/riscv-gcc/libgcc/soft-fp/lesf2.c:44
8000426a:	0ff77713          	andi	a4,a4,255
8000426e:	8fed                	and	a5,a5,a1
/home/hqfang/workspace/software/riscv-gnu-toolchain/riscv-gcc/libgcc/soft-fp/lesf2.c:43
80004270:	817d                	srli	a0,a0,0x1f
/home/hqfang/workspace/software/riscv-gnu-toolchain/riscv-gcc/libgcc/soft-fp/lesf2.c:44
80004272:	81fd                	srli	a1,a1,0x1f
/home/hqfang/workspace/software/riscv-gnu-toolchain/riscv-gcc/libgcc/soft-fp/lesf2.c:45
80004274:	01069563          	bne	a3,a6,8000427e <__lesf2+0x2e>
/home/hqfang/workspace/software/riscv-gnu-toolchain/riscv-gcc/libgcc/soft-fp/lesf2.c:45 (discriminator 20)
80004278:	c239                	beqz	a2,800042be <__lesf2+0x6e>
/home/hqfang/workspace/software/riscv-gnu-toolchain/riscv-gcc/libgcc/soft-fp/lesf2.c:45
8000427a:	4509                	li	a0,2
8000427c:	8082                	ret
/home/hqfang/workspace/software/riscv-gnu-toolchain/riscv-gcc/libgcc/soft-fp/lesf2.c:45 (discriminator 23)
8000427e:	01071363          	bne	a4,a6,80004284 <__lesf2+0x34>
/home/hqfang/workspace/software/riscv-gnu-toolchain/riscv-gcc/libgcc/soft-fp/lesf2.c:45 (discriminator 24)
80004282:	ffe5                	bnez	a5,8000427a <__lesf2+0x2a>
/home/hqfang/workspace/software/riscv-gnu-toolchain/riscv-gcc/libgcc/soft-fp/lesf2.c:45 (discriminator 62)
80004284:	ee9d                	bnez	a3,800042c2 <__lesf2+0x72>
/home/hqfang/workspace/software/riscv-gnu-toolchain/riscv-gcc/libgcc/soft-fp/lesf2.c:45 (discriminator 63)
80004286:	e311                	bnez	a4,8000428a <__lesf2+0x3a>
/home/hqfang/workspace/software/riscv-gnu-toolchain/riscv-gcc/libgcc/soft-fp/lesf2.c:45 (discriminator 69)
80004288:	cb8d                	beqz	a5,800042ba <__lesf2+0x6a>
/home/hqfang/workspace/software/riscv-gnu-toolchain/riscv-gcc/libgcc/soft-fp/lesf2.c:45
8000428a:	ca01                	beqz	a2,8000429a <__lesf2+0x4a>
8000428c:	00b51463          	bne	a0,a1,80004294 <__lesf2+0x44>
/home/hqfang/workspace/software/riscv-gnu-toolchain/riscv-gcc/libgcc/soft-fp/lesf2.c:45 (discriminator 95)
80004290:	00d75963          	bge	a4,a3,800042a2 <__lesf2+0x52>
/home/hqfang/workspace/software/riscv-gnu-toolchain/riscv-gcc/libgcc/soft-fp/lesf2.c:45 (discriminator 115)
80004294:	c10d                	beqz	a0,800042b6 <__lesf2+0x66>
/home/hqfang/workspace/software/riscv-gnu-toolchain/riscv-gcc/libgcc/soft-fp/lesf2.c:45
80004296:	557d                	li	a0,-1
80004298:	8082                	ret
/home/hqfang/workspace/software/riscv-gnu-toolchain/riscv-gcc/libgcc/soft-fp/lesf2.c:45 (discriminator 80)
8000429a:	557d                	li	a0,-1
8000429c:	c591                	beqz	a1,800042a8 <__lesf2+0x58>
/home/hqfang/workspace/software/riscv-gnu-toolchain/riscv-gcc/libgcc/soft-fp/lesf2.c:45
8000429e:	852e                	mv	a0,a1
800042a0:	8082                	ret
/home/hqfang/workspace/software/riscv-gnu-toolchain/riscv-gcc/libgcc/soft-fp/lesf2.c:45 (discriminator 102)
800042a2:	00e6d463          	bge	a3,a4,800042aa <__lesf2+0x5a>
/home/hqfang/workspace/software/riscv-gnu-toolchain/riscv-gcc/libgcc/soft-fp/lesf2.c:45 (discriminator 122)
800042a6:	d965                	beqz	a0,80004296 <__lesf2+0x46>
/home/hqfang/workspace/software/riscv-gnu-toolchain/riscv-gcc/libgcc/soft-fp/lesf2.c:49
800042a8:	8082                	ret
/home/hqfang/workspace/software/riscv-gnu-toolchain/riscv-gcc/libgcc/soft-fp/lesf2.c:45 (discriminator 109)
800042aa:	fec7e5e3          	bltu	a5,a2,80004294 <__lesf2+0x44>
/home/hqfang/workspace/software/riscv-gnu-toolchain/riscv-gcc/libgcc/soft-fp/lesf2.c:45 (discriminator 116)
800042ae:	fef66ce3          	bltu	a2,a5,800042a6 <__lesf2+0x56>
/home/hqfang/workspace/software/riscv-gnu-toolchain/riscv-gcc/libgcc/soft-fp/lesf2.c:45
800042b2:	4501                	li	a0,0
/home/hqfang/workspace/software/riscv-gnu-toolchain/riscv-gcc/libgcc/soft-fp/lesf2.c:48
800042b4:	8082                	ret
/home/hqfang/workspace/software/riscv-gnu-toolchain/riscv-gcc/libgcc/soft-fp/lesf2.c:45
800042b6:	4505                	li	a0,1
800042b8:	8082                	ret
800042ba:	de65                	beqz	a2,800042b2 <__lesf2+0x62>
800042bc:	bfe1                	j	80004294 <__lesf2+0x44>
800042be:	fcd702e3          	beq	a4,a3,80004282 <__lesf2+0x32>
800042c2:	f769                	bnez	a4,8000428c <__lesf2+0x3c>
800042c4:	dbe1                	beqz	a5,80004294 <__lesf2+0x44>
800042c6:	b7d9                	j	8000428c <__lesf2+0x3c>

800042c8 <__mulsf3>:
__mulsf3():
/home/hqfang/workspace/software/riscv-gnu-toolchain/riscv-gcc/libgcc/soft-fp/mulsf3.c:36
800042c8:	1101                	addi	sp,sp,-32
800042ca:	c84a                	sw	s2,16(sp)
800042cc:	01755913          	srli	s2,a0,0x17
800042d0:	ca26                	sw	s1,20(sp)
800042d2:	c64e                	sw	s3,12(sp)
800042d4:	c452                	sw	s4,8(sp)
/home/hqfang/workspace/software/riscv-gnu-toolchain/riscv-gcc/libgcc/soft-fp/mulsf3.c:44
800042d6:	00951493          	slli	s1,a0,0x9
/home/hqfang/workspace/software/riscv-gnu-toolchain/riscv-gcc/libgcc/soft-fp/mulsf3.c:36
800042da:	ce06                	sw	ra,28(sp)
800042dc:	cc22                	sw	s0,24(sp)
800042de:	c256                	sw	s5,4(sp)
800042e0:	0ff97913          	andi	s2,s2,255
800042e4:	8a2e                	mv	s4,a1
/home/hqfang/workspace/software/riscv-gnu-toolchain/riscv-gcc/libgcc/soft-fp/mulsf3.c:44
800042e6:	80a5                	srli	s1,s1,0x9
800042e8:	01f55993          	srli	s3,a0,0x1f
800042ec:	06090763          	beqz	s2,8000435a <__mulsf3+0x92>
800042f0:	0ff00793          	li	a5,255
800042f4:	08f90063          	beq	s2,a5,80004374 <__mulsf3+0xac>
/home/hqfang/workspace/software/riscv-gnu-toolchain/riscv-gcc/libgcc/soft-fp/mulsf3.c:44 (discriminator 1)
800042f8:	048e                	slli	s1,s1,0x3
800042fa:	040007b7          	lui	a5,0x4000
800042fe:	8cdd                	or	s1,s1,a5
80004300:	f8190913          	addi	s2,s2,-127 # 3ffff81 <__stack_size+0x3fff781>
/home/hqfang/workspace/software/riscv-gnu-toolchain/riscv-gcc/libgcc/soft-fp/mulsf3.c:44 (discriminator 15)
80004304:	4a81                	li	s5,0
/home/hqfang/workspace/software/riscv-gnu-toolchain/riscv-gcc/libgcc/soft-fp/mulsf3.c:45 (discriminator 8)
80004306:	017a5513          	srli	a0,s4,0x17
8000430a:	009a1413          	slli	s0,s4,0x9
8000430e:	0ff57513          	andi	a0,a0,255
80004312:	8025                	srli	s0,s0,0x9
80004314:	01fa5a13          	srli	s4,s4,0x1f
80004318:	c53d                	beqz	a0,80004386 <__mulsf3+0xbe>
/home/hqfang/workspace/software/riscv-gnu-toolchain/riscv-gcc/libgcc/soft-fp/mulsf3.c:45
8000431a:	0ff00793          	li	a5,255
8000431e:	08f50163          	beq	a0,a5,800043a0 <__mulsf3+0xd8>
/home/hqfang/workspace/software/riscv-gnu-toolchain/riscv-gcc/libgcc/soft-fp/mulsf3.c:45 (discriminator 1)
80004322:	040e                	slli	s0,s0,0x3
80004324:	040007b7          	lui	a5,0x4000
80004328:	8c5d                	or	s0,s0,a5
8000432a:	f8150513          	addi	a0,a0,-127
/home/hqfang/workspace/software/riscv-gnu-toolchain/riscv-gcc/libgcc/soft-fp/mulsf3.c:45 (discriminator 15)
8000432e:	4781                	li	a5,0
/home/hqfang/workspace/software/riscv-gnu-toolchain/riscv-gcc/libgcc/soft-fp/mulsf3.c:46 (discriminator 8)
80004330:	002a9713          	slli	a4,s5,0x2
80004334:	8f5d                	or	a4,a4,a5
80004336:	954a                	add	a0,a0,s2
80004338:	177d                	addi	a4,a4,-1
8000433a:	45b9                	li	a1,14
8000433c:	0149c6b3          	xor	a3,s3,s4
80004340:	00150613          	addi	a2,a0,1
80004344:	06e5e763          	bltu	a1,a4,800043b2 <__mulsf3+0xea>
80004348:	00006597          	auipc	a1,0x6
8000434c:	de058593          	addi	a1,a1,-544 # 8000a128 <init_jk+0x48>
80004350:	070a                	slli	a4,a4,0x2
80004352:	972e                	add	a4,a4,a1
80004354:	4318                	lw	a4,0(a4)
80004356:	972e                	add	a4,a4,a1
80004358:	8702                	jr	a4
/home/hqfang/workspace/software/riscv-gnu-toolchain/riscv-gcc/libgcc/soft-fp/mulsf3.c:44 (discriminator 2)
8000435a:	c09d                	beqz	s1,80004380 <__mulsf3+0xb8>
/home/hqfang/workspace/software/riscv-gnu-toolchain/riscv-gcc/libgcc/soft-fp/mulsf3.c:44 (discriminator 15)
8000435c:	8526                	mv	a0,s1
8000435e:	069000ef          	jal	ra,80004bc6 <__clzsi2>
80004362:	ffb50793          	addi	a5,a0,-5
80004366:	f8a00913          	li	s2,-118
8000436a:	00f494b3          	sll	s1,s1,a5
8000436e:	40a90933          	sub	s2,s2,a0
80004372:	bf49                	j	80004304 <__mulsf3+0x3c>
/home/hqfang/workspace/software/riscv-gnu-toolchain/riscv-gcc/libgcc/soft-fp/mulsf3.c:44 (discriminator 3)
80004374:	0ff00913          	li	s2,255
80004378:	4a89                	li	s5,2
8000437a:	d4d1                	beqz	s1,80004306 <__mulsf3+0x3e>
/home/hqfang/workspace/software/riscv-gnu-toolchain/riscv-gcc/libgcc/soft-fp/mulsf3.c:44
8000437c:	4a8d                	li	s5,3
8000437e:	b761                	j	80004306 <__mulsf3+0x3e>
80004380:	4901                	li	s2,0
80004382:	4a85                	li	s5,1
80004384:	b749                	j	80004306 <__mulsf3+0x3e>
/home/hqfang/workspace/software/riscv-gnu-toolchain/riscv-gcc/libgcc/soft-fp/mulsf3.c:45 (discriminator 2)
80004386:	c01d                	beqz	s0,800043ac <__mulsf3+0xe4>
/home/hqfang/workspace/software/riscv-gnu-toolchain/riscv-gcc/libgcc/soft-fp/mulsf3.c:45 (discriminator 15)
80004388:	8522                	mv	a0,s0
8000438a:	03d000ef          	jal	ra,80004bc6 <__clzsi2>
8000438e:	ffb50793          	addi	a5,a0,-5
80004392:	00f41433          	sll	s0,s0,a5
80004396:	f8a00793          	li	a5,-118
8000439a:	40a78533          	sub	a0,a5,a0
8000439e:	bf41                	j	8000432e <__mulsf3+0x66>
/home/hqfang/workspace/software/riscv-gnu-toolchain/riscv-gcc/libgcc/soft-fp/mulsf3.c:45 (discriminator 3)
800043a0:	0ff00513          	li	a0,255
800043a4:	4789                	li	a5,2
800043a6:	d449                	beqz	s0,80004330 <__mulsf3+0x68>
/home/hqfang/workspace/software/riscv-gnu-toolchain/riscv-gcc/libgcc/soft-fp/mulsf3.c:45
800043a8:	478d                	li	a5,3
800043aa:	b759                	j	80004330 <__mulsf3+0x68>
800043ac:	4501                	li	a0,0
800043ae:	4785                	li	a5,1
800043b0:	b741                	j	80004330 <__mulsf3+0x68>
/home/hqfang/workspace/software/riscv-gnu-toolchain/riscv-gcc/libgcc/soft-fp/mulsf3.c:46 (discriminator 2)
800043b2:	67c1                	lui	a5,0x10
800043b4:	fff78313          	addi	t1,a5,-1 # ffff <__stack_size+0xf7ff>
800043b8:	0104d713          	srli	a4,s1,0x10
800043bc:	01045593          	srli	a1,s0,0x10
800043c0:	0064f4b3          	and	s1,s1,t1
800043c4:	00647433          	and	s0,s0,t1
800043c8:	029408b3          	mul	a7,s0,s1
800043cc:	02870833          	mul	a6,a4,s0
800043d0:	02b70433          	mul	s0,a4,a1
800043d4:	029585b3          	mul	a1,a1,s1
800043d8:	0108d493          	srli	s1,a7,0x10
800043dc:	95c2                	add	a1,a1,a6
800043de:	94ae                	add	s1,s1,a1
800043e0:	0104f363          	bgeu	s1,a6,800043e6 <__mulsf3+0x11e>
/home/hqfang/workspace/software/riscv-gnu-toolchain/riscv-gcc/libgcc/soft-fp/mulsf3.c:46 (discriminator 9)
800043e4:	943e                	add	s0,s0,a5
/home/hqfang/workspace/software/riscv-gnu-toolchain/riscv-gcc/libgcc/soft-fp/mulsf3.c:46 (discriminator 11)
800043e6:	0064f7b3          	and	a5,s1,t1
800043ea:	07c2                	slli	a5,a5,0x10
800043ec:	0068f8b3          	and	a7,a7,t1
800043f0:	97c6                	add	a5,a5,a7
800043f2:	00679713          	slli	a4,a5,0x6
800043f6:	80c1                	srli	s1,s1,0x10
800043f8:	00e03733          	snez	a4,a4
800043fc:	83e9                	srli	a5,a5,0x1a
800043fe:	9426                	add	s0,s0,s1
80004400:	8fd9                	or	a5,a5,a4
80004402:	041a                	slli	s0,s0,0x6
80004404:	8c5d                	or	s0,s0,a5
80004406:	080007b7          	lui	a5,0x8000
8000440a:	8fe1                	and	a5,a5,s0
8000440c:	c7b5                	beqz	a5,80004478 <__mulsf3+0x1b0>
/home/hqfang/workspace/software/riscv-gnu-toolchain/riscv-gcc/libgcc/soft-fp/mulsf3.c:46 (discriminator 12)
8000440e:	00145793          	srli	a5,s0,0x1
80004412:	8805                	andi	s0,s0,1
80004414:	8c5d                	or	s0,s0,a5
/home/hqfang/workspace/software/riscv-gnu-toolchain/riscv-gcc/libgcc/soft-fp/mulsf3.c:47 (discriminator 2)
80004416:	07f60713          	addi	a4,a2,127 # 400007f <__stack_size+0x3fff87f>
8000441a:	06e05163          	blez	a4,8000447c <__mulsf3+0x1b4>
/home/hqfang/workspace/software/riscv-gnu-toolchain/riscv-gcc/libgcc/soft-fp/mulsf3.c:47 (discriminator 6)
8000441e:	00747793          	andi	a5,s0,7
80004422:	c799                	beqz	a5,80004430 <__mulsf3+0x168>
/home/hqfang/workspace/software/riscv-gnu-toolchain/riscv-gcc/libgcc/soft-fp/mulsf3.c:47 (discriminator 8)
80004424:	00f47793          	andi	a5,s0,15
80004428:	4591                	li	a1,4
8000442a:	00b78363          	beq	a5,a1,80004430 <__mulsf3+0x168>
/home/hqfang/workspace/software/riscv-gnu-toolchain/riscv-gcc/libgcc/soft-fp/mulsf3.c:47 (discriminator 10)
8000442e:	0411                	addi	s0,s0,4
/home/hqfang/workspace/software/riscv-gnu-toolchain/riscv-gcc/libgcc/soft-fp/mulsf3.c:47 (discriminator 9)
80004430:	080007b7          	lui	a5,0x8000
80004434:	8fe1                	and	a5,a5,s0
80004436:	c799                	beqz	a5,80004444 <__mulsf3+0x17c>
/home/hqfang/workspace/software/riscv-gnu-toolchain/riscv-gcc/libgcc/soft-fp/mulsf3.c:47 (discriminator 24)
80004438:	f80007b7          	lui	a5,0xf8000
8000443c:	17fd                	addi	a5,a5,-1
8000443e:	8c7d                	and	s0,s0,a5
80004440:	08060713          	addi	a4,a2,128
/home/hqfang/workspace/software/riscv-gnu-toolchain/riscv-gcc/libgcc/soft-fp/mulsf3.c:47 (discriminator 26)
80004444:	0fe00793          	li	a5,254
80004448:	800d                	srli	s0,s0,0x3
8000444a:	06e7dd63          	bge	a5,a4,800044c4 <__mulsf3+0x1fc>
8000444e:	4401                	li	s0,0
80004450:	0ff00713          	li	a4,255
80004454:	a885                	j	800044c4 <__mulsf3+0x1fc>
/home/hqfang/workspace/software/riscv-gnu-toolchain/riscv-gcc/libgcc/soft-fp/mulsf3.c:44 (discriminator 7)
80004456:	86ce                	mv	a3,s3
/home/hqfang/workspace/software/riscv-gnu-toolchain/riscv-gcc/libgcc/soft-fp/mulsf3.c:46 (discriminator 7)
80004458:	8426                	mv	s0,s1
8000445a:	87d6                	mv	a5,s5
/home/hqfang/workspace/software/riscv-gnu-toolchain/riscv-gcc/libgcc/soft-fp/mulsf3.c:47 (discriminator 21)
8000445c:	4709                	li	a4,2
8000445e:	fee788e3          	beq	a5,a4,8000444e <__mulsf3+0x186>
/home/hqfang/workspace/software/riscv-gnu-toolchain/riscv-gcc/libgcc/soft-fp/mulsf3.c:47
80004462:	470d                	li	a4,3
80004464:	04e78b63          	beq	a5,a4,800044ba <__mulsf3+0x1f2>
80004468:	4705                	li	a4,1
8000446a:	fae796e3          	bne	a5,a4,80004416 <__mulsf3+0x14e>
8000446e:	4401                	li	s0,0
80004470:	4701                	li	a4,0
80004472:	a889                	j	800044c4 <__mulsf3+0x1fc>
/home/hqfang/workspace/software/riscv-gnu-toolchain/riscv-gcc/libgcc/soft-fp/mulsf3.c:45 (discriminator 4)
80004474:	86d2                	mv	a3,s4
/home/hqfang/workspace/software/riscv-gnu-toolchain/riscv-gcc/libgcc/soft-fp/mulsf3.c:46 (discriminator 4)
80004476:	b7dd                	j	8000445c <__mulsf3+0x194>
/home/hqfang/workspace/software/riscv-gnu-toolchain/riscv-gcc/libgcc/soft-fp/mulsf3.c:46
80004478:	862a                	mv	a2,a0
8000447a:	bf71                	j	80004416 <__mulsf3+0x14e>
/home/hqfang/workspace/software/riscv-gnu-toolchain/riscv-gcc/libgcc/soft-fp/mulsf3.c:47 (discriminator 59)
8000447c:	4785                	li	a5,1
8000447e:	8f99                	sub	a5,a5,a4
80004480:	476d                	li	a4,27
80004482:	fef746e3          	blt	a4,a5,8000446e <__mulsf3+0x1a6>
/home/hqfang/workspace/software/riscv-gnu-toolchain/riscv-gcc/libgcc/soft-fp/mulsf3.c:47 (discriminator 60)
80004486:	09e60613          	addi	a2,a2,158
8000448a:	00f457b3          	srl	a5,s0,a5
8000448e:	00c41433          	sll	s0,s0,a2
80004492:	00803433          	snez	s0,s0
80004496:	8c5d                	or	s0,s0,a5
80004498:	00747793          	andi	a5,s0,7
8000449c:	c799                	beqz	a5,800044aa <__mulsf3+0x1e2>
/home/hqfang/workspace/software/riscv-gnu-toolchain/riscv-gcc/libgcc/soft-fp/mulsf3.c:47 (discriminator 68)
8000449e:	00f47793          	andi	a5,s0,15
800044a2:	4711                	li	a4,4
800044a4:	00e78363          	beq	a5,a4,800044aa <__mulsf3+0x1e2>
/home/hqfang/workspace/software/riscv-gnu-toolchain/riscv-gcc/libgcc/soft-fp/mulsf3.c:47 (discriminator 70)
800044a8:	0411                	addi	s0,s0,4
/home/hqfang/workspace/software/riscv-gnu-toolchain/riscv-gcc/libgcc/soft-fp/mulsf3.c:47 (discriminator 69)
800044aa:	040007b7          	lui	a5,0x4000
800044ae:	8fe1                	and	a5,a5,s0
800044b0:	800d                	srli	s0,s0,0x3
800044b2:	dfdd                	beqz	a5,80004470 <__mulsf3+0x1a8>
/home/hqfang/workspace/software/riscv-gnu-toolchain/riscv-gcc/libgcc/soft-fp/mulsf3.c:47
800044b4:	4401                	li	s0,0
800044b6:	4705                	li	a4,1
800044b8:	a031                	j	800044c4 <__mulsf3+0x1fc>
800044ba:	00400437          	lui	s0,0x400
800044be:	0ff00713          	li	a4,255
800044c2:	4681                	li	a3,0
/home/hqfang/workspace/software/riscv-gnu-toolchain/riscv-gcc/libgcc/soft-fp/mulsf3.c:47 (discriminator 111)
800044c4:	01771793          	slli	a5,a4,0x17
800044c8:	0426                	slli	s0,s0,0x9
800044ca:	7f800737          	lui	a4,0x7f800
800044ce:	8ff9                	and	a5,a5,a4
800044d0:	8025                	srli	s0,s0,0x9
800044d2:	8c5d                	or	s0,s0,a5
800044d4:	01f69513          	slli	a0,a3,0x1f
/home/hqfang/workspace/software/riscv-gnu-toolchain/riscv-gcc/libgcc/soft-fp/mulsf3.c:51 (discriminator 111)
800044d8:	40f2                	lw	ra,28(sp)
800044da:	8d41                	or	a0,a0,s0
800044dc:	4462                	lw	s0,24(sp)
800044de:	44d2                	lw	s1,20(sp)
800044e0:	4942                	lw	s2,16(sp)
800044e2:	49b2                	lw	s3,12(sp)
800044e4:	4a22                	lw	s4,8(sp)
800044e6:	4a92                	lw	s5,4(sp)
800044e8:	6105                	addi	sp,sp,32
800044ea:	8082                	ret

800044ec <__subsf3>:
__subsf3():
/home/hqfang/workspace/software/riscv-gnu-toolchain/riscv-gcc/libgcc/soft-fp/subsf3.c:44
800044ec:	00800737          	lui	a4,0x800
/home/hqfang/workspace/software/riscv-gnu-toolchain/riscv-gcc/libgcc/soft-fp/subsf3.c:36
800044f0:	1141                	addi	sp,sp,-16
/home/hqfang/workspace/software/riscv-gnu-toolchain/riscv-gcc/libgcc/soft-fp/subsf3.c:44
800044f2:	177d                	addi	a4,a4,-1
/home/hqfang/workspace/software/riscv-gnu-toolchain/riscv-gcc/libgcc/soft-fp/subsf3.c:45
800044f4:	0175d613          	srli	a2,a1,0x17
/home/hqfang/workspace/software/riscv-gnu-toolchain/riscv-gcc/libgcc/soft-fp/subsf3.c:44
800044f8:	00a777b3          	and	a5,a4,a0
/home/hqfang/workspace/software/riscv-gnu-toolchain/riscv-gcc/libgcc/soft-fp/subsf3.c:36
800044fc:	c422                	sw	s0,8(sp)
/home/hqfang/workspace/software/riscv-gnu-toolchain/riscv-gcc/libgcc/soft-fp/subsf3.c:45
800044fe:	8f6d                	and	a4,a4,a1
/home/hqfang/workspace/software/riscv-gnu-toolchain/riscv-gcc/libgcc/soft-fp/subsf3.c:36
80004500:	c226                	sw	s1,4(sp)
/home/hqfang/workspace/software/riscv-gnu-toolchain/riscv-gcc/libgcc/soft-fp/subsf3.c:44
80004502:	01755413          	srli	s0,a0,0x17
/home/hqfang/workspace/software/riscv-gnu-toolchain/riscv-gcc/libgcc/soft-fp/subsf3.c:36
80004506:	c606                	sw	ra,12(sp)
80004508:	c04a                	sw	s2,0(sp)
/home/hqfang/workspace/software/riscv-gnu-toolchain/riscv-gcc/libgcc/soft-fp/subsf3.c:45
8000450a:	0ff67613          	andi	a2,a2,255
/home/hqfang/workspace/software/riscv-gnu-toolchain/riscv-gcc/libgcc/soft-fp/subsf3.c:46
8000450e:	0ff00693          	li	a3,255
/home/hqfang/workspace/software/riscv-gnu-toolchain/riscv-gcc/libgcc/soft-fp/subsf3.c:44
80004512:	0ff47413          	andi	s0,s0,255
80004516:	01f55493          	srli	s1,a0,0x1f
8000451a:	078e                	slli	a5,a5,0x3
/home/hqfang/workspace/software/riscv-gnu-toolchain/riscv-gcc/libgcc/soft-fp/subsf3.c:45
8000451c:	81fd                	srli	a1,a1,0x1f
8000451e:	070e                	slli	a4,a4,0x3
/home/hqfang/workspace/software/riscv-gnu-toolchain/riscv-gcc/libgcc/soft-fp/subsf3.c:46
80004520:	00d61363          	bne	a2,a3,80004526 <__subsf3+0x3a>
/home/hqfang/workspace/software/riscv-gnu-toolchain/riscv-gcc/libgcc/soft-fp/subsf3.c:46 (discriminator 2)
80004524:	e319                	bnez	a4,8000452a <__subsf3+0x3e>
/home/hqfang/workspace/software/riscv-gnu-toolchain/riscv-gcc/libgcc/soft-fp/subsf3.c:46 (discriminator 3)
80004526:	0015c593          	xori	a1,a1,1
/home/hqfang/workspace/software/riscv-gnu-toolchain/riscv-gcc/libgcc/soft-fp/subsf3.c:46 (discriminator 11)
8000452a:	40c406b3          	sub	a3,s0,a2
8000452e:	12959663          	bne	a1,s1,8000465a <__subsf3+0x16e>
/home/hqfang/workspace/software/riscv-gnu-toolchain/riscv-gcc/libgcc/soft-fp/subsf3.c:46 (discriminator 12)
80004532:	06d05c63          	blez	a3,800045aa <__subsf3+0xbe>
/home/hqfang/workspace/software/riscv-gnu-toolchain/riscv-gcc/libgcc/soft-fp/subsf3.c:46 (discriminator 14)
80004536:	e205                	bnez	a2,80004556 <__subsf3+0x6a>
/home/hqfang/workspace/software/riscv-gnu-toolchain/riscv-gcc/libgcc/soft-fp/subsf3.c:46 (discriminator 16)
80004538:	10070f63          	beqz	a4,80004656 <__subsf3+0x16a>
/home/hqfang/workspace/software/riscv-gnu-toolchain/riscv-gcc/libgcc/soft-fp/subsf3.c:46 (discriminator 19)
8000453c:	fff68613          	addi	a2,a3,-1 # 3ffffff <__stack_size+0x3fff7ff>
80004540:	e601                	bnez	a2,80004548 <__subsf3+0x5c>
/home/hqfang/workspace/software/riscv-gnu-toolchain/riscv-gcc/libgcc/soft-fp/subsf3.c:46 (discriminator 80)
80004542:	97ba                	add	a5,a5,a4
/home/hqfang/workspace/software/riscv-gnu-toolchain/riscv-gcc/libgcc/soft-fp/subsf3.c:45 (discriminator 80)
80004544:	4405                	li	s0,1
/home/hqfang/workspace/software/riscv-gnu-toolchain/riscv-gcc/libgcc/soft-fp/subsf3.c:46 (discriminator 80)
80004546:	a081                	j	80004586 <__subsf3+0x9a>
/home/hqfang/workspace/software/riscv-gnu-toolchain/riscv-gcc/libgcc/soft-fp/subsf3.c:46 (discriminator 29)
80004548:	0ff00593          	li	a1,255
8000454c:	00b69d63          	bne	a3,a1,80004566 <__subsf3+0x7a>
/home/hqfang/workspace/software/riscv-gnu-toolchain/riscv-gcc/libgcc/soft-fp/subsf3.c:46
80004550:	0ff00413          	li	s0,255
80004554:	a8c1                	j	80004624 <__subsf3+0x138>
/home/hqfang/workspace/software/riscv-gnu-toolchain/riscv-gcc/libgcc/soft-fp/subsf3.c:46 (discriminator 17)
80004556:	0ff00613          	li	a2,255
8000455a:	0cc40563          	beq	s0,a2,80004624 <__subsf3+0x138>
/home/hqfang/workspace/software/riscv-gnu-toolchain/riscv-gcc/libgcc/soft-fp/subsf3.c:46 (discriminator 43)
8000455e:	04000637          	lui	a2,0x4000
80004562:	8f51                	or	a4,a4,a2
80004564:	8636                	mv	a2,a3
/home/hqfang/workspace/software/riscv-gnu-toolchain/riscv-gcc/libgcc/soft-fp/subsf3.c:46 (discriminator 52)
80004566:	45ed                	li	a1,27
80004568:	4685                	li	a3,1
8000456a:	00c5cd63          	blt	a1,a2,80004584 <__subsf3+0x98>
/home/hqfang/workspace/software/riscv-gnu-toolchain/riscv-gcc/libgcc/soft-fp/subsf3.c:46 (discriminator 53)
8000456e:	02000693          	li	a3,32
80004572:	8e91                	sub	a3,a3,a2
80004574:	00c755b3          	srl	a1,a4,a2
80004578:	00d71733          	sll	a4,a4,a3
8000457c:	00e03733          	snez	a4,a4
80004580:	00e5e6b3          	or	a3,a1,a4
/home/hqfang/workspace/software/riscv-gnu-toolchain/riscv-gcc/libgcc/soft-fp/subsf3.c:46 (discriminator 64)
80004584:	97b6                	add	a5,a5,a3
/home/hqfang/workspace/software/riscv-gnu-toolchain/riscv-gcc/libgcc/soft-fp/subsf3.c:46 (discriminator 117)
80004586:	04000737          	lui	a4,0x4000
8000458a:	8f7d                	and	a4,a4,a5
8000458c:	cf41                	beqz	a4,80004624 <__subsf3+0x138>
/home/hqfang/workspace/software/riscv-gnu-toolchain/riscv-gcc/libgcc/soft-fp/subsf3.c:46 (discriminator 176)
8000458e:	0405                	addi	s0,s0,1
80004590:	0ff00713          	li	a4,255
80004594:	22e40963          	beq	s0,a4,800047c6 <__subsf3+0x2da>
/home/hqfang/workspace/software/riscv-gnu-toolchain/riscv-gcc/libgcc/soft-fp/subsf3.c:46
80004598:	7e000737          	lui	a4,0x7e000
8000459c:	0017f693          	andi	a3,a5,1
800045a0:	177d                	addi	a4,a4,-1
800045a2:	8385                	srli	a5,a5,0x1
800045a4:	8ff9                	and	a5,a5,a4
800045a6:	8fd5                	or	a5,a5,a3
800045a8:	a8b5                	j	80004624 <__subsf3+0x138>
/home/hqfang/workspace/software/riscv-gnu-toolchain/riscv-gcc/libgcc/soft-fp/subsf3.c:46 (discriminator 15)
800045aa:	cab1                	beqz	a3,800045fe <__subsf3+0x112>
/home/hqfang/workspace/software/riscv-gnu-toolchain/riscv-gcc/libgcc/soft-fp/subsf3.c:46 (discriminator 66)
800045ac:	408606b3          	sub	a3,a2,s0
800045b0:	ec01                	bnez	s0,800045c8 <__subsf3+0xdc>
/home/hqfang/workspace/software/riscv-gnu-toolchain/riscv-gcc/libgcc/soft-fp/subsf3.c:46 (discriminator 68)
800045b2:	20078463          	beqz	a5,800047ba <__subsf3+0x2ce>
/home/hqfang/workspace/software/riscv-gnu-toolchain/riscv-gcc/libgcc/soft-fp/subsf3.c:46 (discriminator 71)
800045b6:	fff68593          	addi	a1,a3,-1
800045ba:	d5c1                	beqz	a1,80004542 <__subsf3+0x56>
/home/hqfang/workspace/software/riscv-gnu-toolchain/riscv-gcc/libgcc/soft-fp/subsf3.c:46 (discriminator 81)
800045bc:	0ff00513          	li	a0,255
800045c0:	00a69c63          	bne	a3,a0,800045d8 <__subsf3+0xec>
/home/hqfang/workspace/software/riscv-gnu-toolchain/riscv-gcc/libgcc/soft-fp/subsf3.c:45
800045c4:	87ba                	mv	a5,a4
800045c6:	b769                	j	80004550 <__subsf3+0x64>
/home/hqfang/workspace/software/riscv-gnu-toolchain/riscv-gcc/libgcc/soft-fp/subsf3.c:46 (discriminator 69)
800045c8:	0ff00593          	li	a1,255
800045cc:	feb60ce3          	beq	a2,a1,800045c4 <__subsf3+0xd8>
/home/hqfang/workspace/software/riscv-gnu-toolchain/riscv-gcc/libgcc/soft-fp/subsf3.c:46 (discriminator 95)
800045d0:	040005b7          	lui	a1,0x4000
800045d4:	8fcd                	or	a5,a5,a1
800045d6:	85b6                	mv	a1,a3
/home/hqfang/workspace/software/riscv-gnu-toolchain/riscv-gcc/libgcc/soft-fp/subsf3.c:46 (discriminator 104)
800045d8:	456d                	li	a0,27
800045da:	4685                	li	a3,1
800045dc:	00b54d63          	blt	a0,a1,800045f6 <__subsf3+0x10a>
/home/hqfang/workspace/software/riscv-gnu-toolchain/riscv-gcc/libgcc/soft-fp/subsf3.c:46 (discriminator 105)
800045e0:	02000693          	li	a3,32
800045e4:	8e8d                	sub	a3,a3,a1
800045e6:	00b7d533          	srl	a0,a5,a1
800045ea:	00d797b3          	sll	a5,a5,a3
800045ee:	00f037b3          	snez	a5,a5
800045f2:	00f566b3          	or	a3,a0,a5
/home/hqfang/workspace/software/riscv-gnu-toolchain/riscv-gcc/libgcc/soft-fp/subsf3.c:46 (discriminator 116)
800045f6:	00e687b3          	add	a5,a3,a4
/home/hqfang/workspace/software/riscv-gnu-toolchain/riscv-gcc/libgcc/soft-fp/subsf3.c:45 (discriminator 116)
800045fa:	8432                	mv	s0,a2
800045fc:	b769                	j	80004586 <__subsf3+0x9a>
/home/hqfang/workspace/software/riscv-gnu-toolchain/riscv-gcc/libgcc/soft-fp/subsf3.c:46 (discriminator 67)
800045fe:	00140693          	addi	a3,s0,1 # 400001 <__stack_size+0x3ff801>
80004602:	0fe6f613          	andi	a2,a3,254
80004606:	e231                	bnez	a2,8000464a <__subsf3+0x15e>
/home/hqfang/workspace/software/riscv-gnu-toolchain/riscv-gcc/libgcc/soft-fp/subsf3.c:46 (discriminator 118)
80004608:	e80d                	bnez	s0,8000463a <__subsf3+0x14e>
/home/hqfang/workspace/software/riscv-gnu-toolchain/riscv-gcc/libgcc/soft-fp/subsf3.c:46 (discriminator 120)
8000460a:	1a078a63          	beqz	a5,800047be <__subsf3+0x2d2>
/home/hqfang/workspace/software/riscv-gnu-toolchain/riscv-gcc/libgcc/soft-fp/subsf3.c:46 (discriminator 123)
8000460e:	cb19                	beqz	a4,80004624 <__subsf3+0x138>
/home/hqfang/workspace/software/riscv-gnu-toolchain/riscv-gcc/libgcc/soft-fp/subsf3.c:46 (discriminator 129)
80004610:	97ba                	add	a5,a5,a4
80004612:	04000737          	lui	a4,0x4000
80004616:	8f7d                	and	a4,a4,a5
80004618:	c711                	beqz	a4,80004624 <__subsf3+0x138>
/home/hqfang/workspace/software/riscv-gnu-toolchain/riscv-gcc/libgcc/soft-fp/subsf3.c:46 (discriminator 131)
8000461a:	fc000737          	lui	a4,0xfc000
8000461e:	177d                	addi	a4,a4,-1
80004620:	8ff9                	and	a5,a5,a4
80004622:	4405                	li	s0,1
/home/hqfang/workspace/software/riscv-gnu-toolchain/riscv-gcc/libgcc/soft-fp/subsf3.c:47 (discriminator 382)
80004624:	0077f713          	andi	a4,a5,7
80004628:	1a070063          	beqz	a4,800047c8 <__subsf3+0x2dc>
/home/hqfang/workspace/software/riscv-gnu-toolchain/riscv-gcc/libgcc/soft-fp/subsf3.c:47 (discriminator 37)
8000462c:	00f7f713          	andi	a4,a5,15
80004630:	4691                	li	a3,4
80004632:	18d70b63          	beq	a4,a3,800047c8 <__subsf3+0x2dc>
/home/hqfang/workspace/software/riscv-gnu-toolchain/riscv-gcc/libgcc/soft-fp/subsf3.c:47 (discriminator 44)
80004636:	0791                	addi	a5,a5,4
80004638:	aa41                	j	800047c8 <__subsf3+0x2dc>
/home/hqfang/workspace/software/riscv-gnu-toolchain/riscv-gcc/libgcc/soft-fp/subsf3.c:46 (discriminator 148)
8000463a:	d7c9                	beqz	a5,800045c4 <__subsf3+0xd8>
/home/hqfang/workspace/software/riscv-gnu-toolchain/riscv-gcc/libgcc/soft-fp/subsf3.c:46 (discriminator 334)
8000463c:	db11                	beqz	a4,80004550 <__subsf3+0x64>
/home/hqfang/workspace/software/riscv-gnu-toolchain/riscv-gcc/libgcc/soft-fp/subsf3.c:46
8000463e:	4481                	li	s1,0
80004640:	020007b7          	lui	a5,0x2000
80004644:	0ff00413          	li	s0,255
80004648:	a241                	j	800047c8 <__subsf3+0x2dc>
/home/hqfang/workspace/software/riscv-gnu-toolchain/riscv-gcc/libgcc/soft-fp/subsf3.c:46 (discriminator 119)
8000464a:	0ff00613          	li	a2,255
8000464e:	16c68a63          	beq	a3,a2,800047c2 <__subsf3+0x2d6>
/home/hqfang/workspace/software/riscv-gnu-toolchain/riscv-gcc/libgcc/soft-fp/subsf3.c:46
80004652:	97ba                	add	a5,a5,a4
80004654:	8385                	srli	a5,a5,0x1
80004656:	8436                	mv	s0,a3
80004658:	b7f1                	j	80004624 <__subsf3+0x138>
/home/hqfang/workspace/software/riscv-gnu-toolchain/riscv-gcc/libgcc/soft-fp/subsf3.c:46 (discriminator 13)
8000465a:	06d05063          	blez	a3,800046ba <__subsf3+0x1ce>
/home/hqfang/workspace/software/riscv-gnu-toolchain/riscv-gcc/libgcc/soft-fp/subsf3.c:46 (discriminator 194)
8000465e:	e629                	bnez	a2,800046a8 <__subsf3+0x1bc>
/home/hqfang/workspace/software/riscv-gnu-toolchain/riscv-gcc/libgcc/soft-fp/subsf3.c:46 (discriminator 196)
80004660:	db7d                	beqz	a4,80004656 <__subsf3+0x16a>
/home/hqfang/workspace/software/riscv-gnu-toolchain/riscv-gcc/libgcc/soft-fp/subsf3.c:46 (discriminator 199)
80004662:	fff68613          	addi	a2,a3,-1
80004666:	e601                	bnez	a2,8000466e <__subsf3+0x182>
/home/hqfang/workspace/software/riscv-gnu-toolchain/riscv-gcc/libgcc/soft-fp/subsf3.c:46 (discriminator 208)
80004668:	8f99                	sub	a5,a5,a4
/home/hqfang/workspace/software/riscv-gnu-toolchain/riscv-gcc/libgcc/soft-fp/subsf3.c:45 (discriminator 260)
8000466a:	4405                	li	s0,1
/home/hqfang/workspace/software/riscv-gnu-toolchain/riscv-gcc/libgcc/soft-fp/subsf3.c:46 (discriminator 260)
8000466c:	a02d                	j	80004696 <__subsf3+0x1aa>
/home/hqfang/workspace/software/riscv-gnu-toolchain/riscv-gcc/libgcc/soft-fp/subsf3.c:46 (discriminator 209)
8000466e:	0ff00593          	li	a1,255
80004672:	ecb68fe3          	beq	a3,a1,80004550 <__subsf3+0x64>
/home/hqfang/workspace/software/riscv-gnu-toolchain/riscv-gcc/libgcc/soft-fp/subsf3.c:46 (discriminator 232)
80004676:	45ed                	li	a1,27
80004678:	4685                	li	a3,1
8000467a:	00c5cd63          	blt	a1,a2,80004694 <__subsf3+0x1a8>
/home/hqfang/workspace/software/riscv-gnu-toolchain/riscv-gcc/libgcc/soft-fp/subsf3.c:46 (discriminator 233)
8000467e:	02000693          	li	a3,32
80004682:	8e91                	sub	a3,a3,a2
80004684:	00c755b3          	srl	a1,a4,a2
80004688:	00d71733          	sll	a4,a4,a3
8000468c:	00e03733          	snez	a4,a4
80004690:	00e5e6b3          	or	a3,a1,a4
/home/hqfang/workspace/software/riscv-gnu-toolchain/riscv-gcc/libgcc/soft-fp/subsf3.c:46 (discriminator 244)
80004694:	8f95                	sub	a5,a5,a3
/home/hqfang/workspace/software/riscv-gnu-toolchain/riscv-gcc/libgcc/soft-fp/subsf3.c:46 (discriminator 297)
80004696:	04000937          	lui	s2,0x4000
8000469a:	0127f733          	and	a4,a5,s2
8000469e:	d359                	beqz	a4,80004624 <__subsf3+0x138>
/home/hqfang/workspace/software/riscv-gnu-toolchain/riscv-gcc/libgcc/soft-fp/subsf3.c:46 (discriminator 356)
800046a0:	197d                	addi	s2,s2,-1
800046a2:	0127f933          	and	s2,a5,s2
800046a6:	a0f1                	j	80004772 <__subsf3+0x286>
/home/hqfang/workspace/software/riscv-gnu-toolchain/riscv-gcc/libgcc/soft-fp/subsf3.c:46 (discriminator 197)
800046a8:	0ff00613          	li	a2,255
800046ac:	f6c40ce3          	beq	s0,a2,80004624 <__subsf3+0x138>
/home/hqfang/workspace/software/riscv-gnu-toolchain/riscv-gcc/libgcc/soft-fp/subsf3.c:46 (discriminator 223)
800046b0:	04000637          	lui	a2,0x4000
800046b4:	8f51                	or	a4,a4,a2
800046b6:	8636                	mv	a2,a3
800046b8:	bf7d                	j	80004676 <__subsf3+0x18a>
/home/hqfang/workspace/software/riscv-gnu-toolchain/riscv-gcc/libgcc/soft-fp/subsf3.c:46 (discriminator 195)
800046ba:	c2ad                	beqz	a3,8000471c <__subsf3+0x230>
/home/hqfang/workspace/software/riscv-gnu-toolchain/riscv-gcc/libgcc/soft-fp/subsf3.c:46 (discriminator 246)
800046bc:	408606b3          	sub	a3,a2,s0
800046c0:	e015                	bnez	s0,800046e4 <__subsf3+0x1f8>
/home/hqfang/workspace/software/riscv-gnu-toolchain/riscv-gcc/libgcc/soft-fp/subsf3.c:46 (discriminator 248)
800046c2:	14078963          	beqz	a5,80004814 <__subsf3+0x328>
/home/hqfang/workspace/software/riscv-gnu-toolchain/riscv-gcc/libgcc/soft-fp/subsf3.c:46 (discriminator 251)
800046c6:	fff68513          	addi	a0,a3,-1
800046ca:	e509                	bnez	a0,800046d4 <__subsf3+0x1e8>
/home/hqfang/workspace/software/riscv-gnu-toolchain/riscv-gcc/libgcc/soft-fp/subsf3.c:46 (discriminator 260)
800046cc:	40f707b3          	sub	a5,a4,a5
800046d0:	84ae                	mv	s1,a1
800046d2:	bf61                	j	8000466a <__subsf3+0x17e>
/home/hqfang/workspace/software/riscv-gnu-toolchain/riscv-gcc/libgcc/soft-fp/subsf3.c:46 (discriminator 261)
800046d4:	0ff00813          	li	a6,255
800046d8:	01069e63          	bne	a3,a6,800046f4 <__subsf3+0x208>
/home/hqfang/workspace/software/riscv-gnu-toolchain/riscv-gcc/libgcc/soft-fp/subsf3.c:45
800046dc:	87ba                	mv	a5,a4
/home/hqfang/workspace/software/riscv-gnu-toolchain/riscv-gcc/libgcc/soft-fp/subsf3.c:46
800046de:	0ff00413          	li	s0,255
800046e2:	a0b9                	j	80004730 <__subsf3+0x244>
/home/hqfang/workspace/software/riscv-gnu-toolchain/riscv-gcc/libgcc/soft-fp/subsf3.c:46 (discriminator 249)
800046e4:	0ff00513          	li	a0,255
800046e8:	fea60ae3          	beq	a2,a0,800046dc <__subsf3+0x1f0>
/home/hqfang/workspace/software/riscv-gnu-toolchain/riscv-gcc/libgcc/soft-fp/subsf3.c:46 (discriminator 275)
800046ec:	04000537          	lui	a0,0x4000
800046f0:	8fc9                	or	a5,a5,a0
800046f2:	8536                	mv	a0,a3
/home/hqfang/workspace/software/riscv-gnu-toolchain/riscv-gcc/libgcc/soft-fp/subsf3.c:46 (discriminator 284)
800046f4:	486d                	li	a6,27
800046f6:	4685                	li	a3,1
800046f8:	00a84d63          	blt	a6,a0,80004712 <__subsf3+0x226>
/home/hqfang/workspace/software/riscv-gnu-toolchain/riscv-gcc/libgcc/soft-fp/subsf3.c:46 (discriminator 285)
800046fc:	02000693          	li	a3,32
80004700:	8e89                	sub	a3,a3,a0
80004702:	00a7d833          	srl	a6,a5,a0
80004706:	00d797b3          	sll	a5,a5,a3
8000470a:	00f037b3          	snez	a5,a5
8000470e:	00f866b3          	or	a3,a6,a5
/home/hqfang/workspace/software/riscv-gnu-toolchain/riscv-gcc/libgcc/soft-fp/subsf3.c:46 (discriminator 296)
80004712:	40d707b3          	sub	a5,a4,a3
/home/hqfang/workspace/software/riscv-gnu-toolchain/riscv-gcc/libgcc/soft-fp/subsf3.c:45 (discriminator 296)
80004716:	8432                	mv	s0,a2
80004718:	84ae                	mv	s1,a1
8000471a:	bfb5                	j	80004696 <__subsf3+0x1aa>
/home/hqfang/workspace/software/riscv-gnu-toolchain/riscv-gcc/libgcc/soft-fp/subsf3.c:46 (discriminator 247)
8000471c:	00140693          	addi	a3,s0,1
80004720:	0fe6f693          	andi	a3,a3,254
80004724:	ee8d                	bnez	a3,8000475e <__subsf3+0x272>
/home/hqfang/workspace/software/riscv-gnu-toolchain/riscv-gcc/libgcc/soft-fp/subsf3.c:46 (discriminator 298)
80004726:	e40d                	bnez	s0,80004750 <__subsf3+0x264>
/home/hqfang/workspace/software/riscv-gnu-toolchain/riscv-gcc/libgcc/soft-fp/subsf3.c:46 (discriminator 300)
80004728:	e791                	bnez	a5,80004734 <__subsf3+0x248>
/home/hqfang/workspace/software/riscv-gnu-toolchain/riscv-gcc/libgcc/soft-fp/subsf3.c:46 (discriminator 302)
8000472a:	4481                	li	s1,0
8000472c:	cf51                	beqz	a4,800047c8 <__subsf3+0x2dc>
/home/hqfang/workspace/software/riscv-gnu-toolchain/riscv-gcc/libgcc/soft-fp/subsf3.c:46
8000472e:	87ba                	mv	a5,a4
80004730:	84ae                	mv	s1,a1
80004732:	bdcd                	j	80004624 <__subsf3+0x138>
/home/hqfang/workspace/software/riscv-gnu-toolchain/riscv-gcc/libgcc/soft-fp/subsf3.c:46 (discriminator 303)
80004734:	ee0708e3          	beqz	a4,80004624 <__subsf3+0x138>
/home/hqfang/workspace/software/riscv-gnu-toolchain/riscv-gcc/libgcc/soft-fp/subsf3.c:46 (discriminator 310)
80004738:	40e786b3          	sub	a3,a5,a4
8000473c:	04000637          	lui	a2,0x4000
80004740:	8e75                	and	a2,a2,a3
80004742:	40f707b3          	sub	a5,a4,a5
80004746:	f66d                	bnez	a2,80004730 <__subsf3+0x244>
/home/hqfang/workspace/software/riscv-gnu-toolchain/riscv-gcc/libgcc/soft-fp/subsf3.c:46 (discriminator 313)
80004748:	4781                	li	a5,0
8000474a:	ceb9                	beqz	a3,800047a8 <__subsf3+0x2bc>
8000474c:	87b6                	mv	a5,a3
8000474e:	bdd9                	j	80004624 <__subsf3+0x138>
/home/hqfang/workspace/software/riscv-gnu-toolchain/riscv-gcc/libgcc/soft-fp/subsf3.c:46 (discriminator 332)
80004750:	ee0796e3          	bnez	a5,8000463c <__subsf3+0x150>
/home/hqfang/workspace/software/riscv-gnu-toolchain/riscv-gcc/libgcc/soft-fp/subsf3.c:46 (discriminator 333)
80004754:	ee0705e3          	beqz	a4,8000463e <__subsf3+0x152>
/home/hqfang/workspace/software/riscv-gnu-toolchain/riscv-gcc/libgcc/soft-fp/subsf3.c:46
80004758:	87ba                	mv	a5,a4
8000475a:	84ae                	mv	s1,a1
8000475c:	bbd5                	j	80004550 <__subsf3+0x64>
/home/hqfang/workspace/software/riscv-gnu-toolchain/riscv-gcc/libgcc/soft-fp/subsf3.c:46 (discriminator 299)
8000475e:	40e78933          	sub	s2,a5,a4
80004762:	040006b7          	lui	a3,0x4000
80004766:	00d976b3          	and	a3,s2,a3
8000476a:	ca9d                	beqz	a3,800047a0 <__subsf3+0x2b4>
/home/hqfang/workspace/software/riscv-gnu-toolchain/riscv-gcc/libgcc/soft-fp/subsf3.c:46 (discriminator 349)
8000476c:	40f70933          	sub	s2,a4,a5
80004770:	84ae                	mv	s1,a1
/home/hqfang/workspace/software/riscv-gnu-toolchain/riscv-gcc/libgcc/soft-fp/subsf3.c:46 (discriminator 359)
80004772:	854a                	mv	a0,s2
80004774:	2989                	jal	80004bc6 <__clzsi2>
80004776:	156d                	addi	a0,a0,-5
80004778:	00a91933          	sll	s2,s2,a0
8000477c:	02854863          	blt	a0,s0,800047ac <__subsf3+0x2c0>
/home/hqfang/workspace/software/riscv-gnu-toolchain/riscv-gcc/libgcc/soft-fp/subsf3.c:46 (discriminator 372)
80004780:	8d01                	sub	a0,a0,s0
80004782:	0505                	addi	a0,a0,1
80004784:	02000413          	li	s0,32
80004788:	00a957b3          	srl	a5,s2,a0
8000478c:	40a40533          	sub	a0,s0,a0
80004790:	00a91933          	sll	s2,s2,a0
80004794:	01203933          	snez	s2,s2
80004798:	0127e7b3          	or	a5,a5,s2
8000479c:	4401                	li	s0,0
8000479e:	b559                	j	80004624 <__subsf3+0x138>
/home/hqfang/workspace/software/riscv-gnu-toolchain/riscv-gcc/libgcc/soft-fp/subsf3.c:46 (discriminator 350)
800047a0:	fc0919e3          	bnez	s2,80004772 <__subsf3+0x286>
/home/hqfang/workspace/software/riscv-gnu-toolchain/riscv-gcc/libgcc/soft-fp/subsf3.c:46
800047a4:	4781                	li	a5,0
800047a6:	4401                	li	s0,0
800047a8:	4481                	li	s1,0
800047aa:	a839                	j	800047c8 <__subsf3+0x2dc>
/home/hqfang/workspace/software/riscv-gnu-toolchain/riscv-gcc/libgcc/soft-fp/subsf3.c:46 (discriminator 373)
800047ac:	fc0007b7          	lui	a5,0xfc000
800047b0:	17fd                	addi	a5,a5,-1
800047b2:	8c09                	sub	s0,s0,a0
800047b4:	00f977b3          	and	a5,s2,a5
800047b8:	b5b5                	j	80004624 <__subsf3+0x138>
/home/hqfang/workspace/software/riscv-gnu-toolchain/riscv-gcc/libgcc/soft-fp/subsf3.c:45
800047ba:	87ba                	mv	a5,a4
800047bc:	bd69                	j	80004656 <__subsf3+0x16a>
800047be:	87ba                	mv	a5,a4
800047c0:	b595                	j	80004624 <__subsf3+0x138>
800047c2:	0ff00413          	li	s0,255
800047c6:	4781                	li	a5,0
/home/hqfang/workspace/software/riscv-gnu-toolchain/riscv-gcc/libgcc/soft-fp/subsf3.c:47 (discriminator 47)
800047c8:	04000737          	lui	a4,0x4000
800047cc:	8f7d                	and	a4,a4,a5
800047ce:	cb11                	beqz	a4,800047e2 <__subsf3+0x2f6>
/home/hqfang/workspace/software/riscv-gnu-toolchain/riscv-gcc/libgcc/soft-fp/subsf3.c:47 (discriminator 63)
800047d0:	0405                	addi	s0,s0,1
800047d2:	0ff00713          	li	a4,255
800047d6:	04e40263          	beq	s0,a4,8000481a <__subsf3+0x32e>
/home/hqfang/workspace/software/riscv-gnu-toolchain/riscv-gcc/libgcc/soft-fp/subsf3.c:47
800047da:	fc000737          	lui	a4,0xfc000
800047de:	177d                	addi	a4,a4,-1
800047e0:	8ff9                	and	a5,a5,a4
/home/hqfang/workspace/software/riscv-gnu-toolchain/riscv-gcc/libgcc/soft-fp/subsf3.c:47 (discriminator 79)
800047e2:	0ff00713          	li	a4,255
800047e6:	838d                	srli	a5,a5,0x3
800047e8:	00e41663          	bne	s0,a4,800047f4 <__subsf3+0x308>
/home/hqfang/workspace/software/riscv-gnu-toolchain/riscv-gcc/libgcc/soft-fp/subsf3.c:47 (discriminator 80)
800047ec:	c781                	beqz	a5,800047f4 <__subsf3+0x308>
/home/hqfang/workspace/software/riscv-gnu-toolchain/riscv-gcc/libgcc/soft-fp/subsf3.c:47
800047ee:	004007b7          	lui	a5,0x400
800047f2:	4481                	li	s1,0
/home/hqfang/workspace/software/riscv-gnu-toolchain/riscv-gcc/libgcc/soft-fp/subsf3.c:47 (discriminator 90)
800047f4:	7f800537          	lui	a0,0x7f800
800047f8:	045e                	slli	s0,s0,0x17
800047fa:	07a6                	slli	a5,a5,0x9
800047fc:	8c69                	and	s0,s0,a0
800047fe:	83a5                	srli	a5,a5,0x9
/home/hqfang/workspace/software/riscv-gnu-toolchain/riscv-gcc/libgcc/soft-fp/subsf3.c:51 (discriminator 90)
80004800:	40b2                	lw	ra,12(sp)
/home/hqfang/workspace/software/riscv-gnu-toolchain/riscv-gcc/libgcc/soft-fp/subsf3.c:47 (discriminator 90)
80004802:	8fc1                	or	a5,a5,s0
/home/hqfang/workspace/software/riscv-gnu-toolchain/riscv-gcc/libgcc/soft-fp/subsf3.c:51 (discriminator 90)
80004804:	4422                	lw	s0,8(sp)
/home/hqfang/workspace/software/riscv-gnu-toolchain/riscv-gcc/libgcc/soft-fp/subsf3.c:47 (discriminator 90)
80004806:	01f49513          	slli	a0,s1,0x1f
/home/hqfang/workspace/software/riscv-gnu-toolchain/riscv-gcc/libgcc/soft-fp/subsf3.c:51 (discriminator 90)
8000480a:	4902                	lw	s2,0(sp)
8000480c:	4492                	lw	s1,4(sp)
8000480e:	8d5d                	or	a0,a0,a5
80004810:	0141                	addi	sp,sp,16
80004812:	8082                	ret
/home/hqfang/workspace/software/riscv-gnu-toolchain/riscv-gcc/libgcc/soft-fp/subsf3.c:45
80004814:	87ba                	mv	a5,a4
/home/hqfang/workspace/software/riscv-gnu-toolchain/riscv-gcc/libgcc/soft-fp/subsf3.c:46
80004816:	8436                	mv	s0,a3
80004818:	bf21                	j	80004730 <__subsf3+0x244>
8000481a:	4781                	li	a5,0
8000481c:	b7d9                	j	800047e2 <__subsf3+0x2f6>

8000481e <__unordsf2>:
__unordsf2():
/home/hqfang/workspace/software/riscv-gnu-toolchain/riscv-gcc/libgcc/soft-fp/unordsf2.c:42
8000481e:	008007b7          	lui	a5,0x800
80004822:	17fd                	addi	a5,a5,-1
80004824:	00a7f733          	and	a4,a5,a0
/home/hqfang/workspace/software/riscv-gnu-toolchain/riscv-gcc/libgcc/soft-fp/unordsf2.c:44
80004828:	815d                	srli	a0,a0,0x17
/home/hqfang/workspace/software/riscv-gnu-toolchain/riscv-gcc/libgcc/soft-fp/unordsf2.c:43
8000482a:	8fed                	and	a5,a5,a1
/home/hqfang/workspace/software/riscv-gnu-toolchain/riscv-gcc/libgcc/soft-fp/unordsf2.c:44
8000482c:	0ff57513          	andi	a0,a0,255
80004830:	81dd                	srli	a1,a1,0x17
80004832:	0ff00693          	li	a3,255
80004836:	0ff5f593          	andi	a1,a1,255
8000483a:	00d51463          	bne	a0,a3,80004842 <__unordsf2+0x24>
8000483e:	4505                	li	a0,1
/home/hqfang/workspace/software/riscv-gnu-toolchain/riscv-gcc/libgcc/soft-fp/unordsf2.c:44 (discriminator 20)
80004840:	eb01                	bnez	a4,80004850 <__unordsf2+0x32>
/home/hqfang/workspace/software/riscv-gnu-toolchain/riscv-gcc/libgcc/soft-fp/unordsf2.c:44 (discriminator 23)
80004842:	0ff00713          	li	a4,255
80004846:	4501                	li	a0,0
80004848:	00e59463          	bne	a1,a4,80004850 <__unordsf2+0x32>
/home/hqfang/workspace/software/riscv-gnu-toolchain/riscv-gcc/libgcc/soft-fp/unordsf2.c:44 (discriminator 24)
8000484c:	00f03533          	snez	a0,a5
/home/hqfang/workspace/software/riscv-gnu-toolchain/riscv-gcc/libgcc/soft-fp/unordsf2.c:48
80004850:	8082                	ret

80004852 <__fixsfsi>:
__fixsfsi():
/home/hqfang/workspace/software/riscv-gnu-toolchain/riscv-gcc/libgcc/soft-fp/fixsfsi.c:42
80004852:	00800637          	lui	a2,0x800
80004856:	01755713          	srli	a4,a0,0x17
8000485a:	fff60793          	addi	a5,a2,-1 # 7fffff <__stack_size+0x7ff7ff>
8000485e:	0ff77713          	andi	a4,a4,255
/home/hqfang/workspace/software/riscv-gnu-toolchain/riscv-gcc/libgcc/soft-fp/fixsfsi.c:43
80004862:	07e00593          	li	a1,126
/home/hqfang/workspace/software/riscv-gnu-toolchain/riscv-gcc/libgcc/soft-fp/fixsfsi.c:42
80004866:	8fe9                	and	a5,a5,a0
80004868:	01f55693          	srli	a3,a0,0x1f
/home/hqfang/workspace/software/riscv-gnu-toolchain/riscv-gcc/libgcc/soft-fp/fixsfsi.c:43
8000486c:	04e5d163          	bge	a1,a4,800048ae <__fixsfsi+0x5c>
/home/hqfang/workspace/software/riscv-gnu-toolchain/riscv-gcc/libgcc/soft-fp/fixsfsi.c:43 (discriminator 10)
80004870:	09d00593          	li	a1,157
80004874:	00e5d863          	bge	a1,a4,80004884 <__fixsfsi+0x32>
/home/hqfang/workspace/software/riscv-gnu-toolchain/riscv-gcc/libgcc/soft-fp/fixsfsi.c:43 (discriminator 14)
80004878:	80000537          	lui	a0,0x80000
8000487c:	fff54513          	not	a0,a0
80004880:	9536                	add	a0,a0,a3
80004882:	8082                	ret
/home/hqfang/workspace/software/riscv-gnu-toolchain/riscv-gcc/libgcc/soft-fp/fixsfsi.c:43 (discriminator 13)
80004884:	00c7e533          	or	a0,a5,a2
80004888:	09500793          	li	a5,149
8000488c:	00e7da63          	bge	a5,a4,800048a0 <__fixsfsi+0x4e>
/home/hqfang/workspace/software/riscv-gnu-toolchain/riscv-gcc/libgcc/soft-fp/fixsfsi.c:43 (discriminator 27)
80004890:	f6a70713          	addi	a4,a4,-150 # fbffff6a <_sp+0x6bfeff6a>
80004894:	00e51533          	sll	a0,a0,a4
/home/hqfang/workspace/software/riscv-gnu-toolchain/riscv-gcc/libgcc/soft-fp/fixsfsi.c:43 (discriminator 36)
80004898:	ce81                	beqz	a3,800048b0 <__fixsfsi+0x5e>
/home/hqfang/workspace/software/riscv-gnu-toolchain/riscv-gcc/libgcc/soft-fp/fixsfsi.c:43 (discriminator 37)
8000489a:	40a00533          	neg	a0,a0
8000489e:	8082                	ret
/home/hqfang/workspace/software/riscv-gnu-toolchain/riscv-gcc/libgcc/soft-fp/fixsfsi.c:43 (discriminator 28)
800048a0:	09600793          	li	a5,150
800048a4:	40e78733          	sub	a4,a5,a4
800048a8:	00e55533          	srl	a0,a0,a4
800048ac:	b7f5                	j	80004898 <__fixsfsi+0x46>
/home/hqfang/workspace/software/riscv-gnu-toolchain/riscv-gcc/libgcc/soft-fp/fixsfsi.c:43
800048ae:	4501                	li	a0,0
/home/hqfang/workspace/software/riscv-gnu-toolchain/riscv-gcc/libgcc/soft-fp/fixsfsi.c:47 (discriminator 51)
800048b0:	8082                	ret

800048b2 <__floatsisf>:
__floatsisf():
/home/hqfang/workspace/software/riscv-gnu-toolchain/riscv-gcc/libgcc/soft-fp/floatsisf.c:36
800048b2:	1141                	addi	sp,sp,-16
800048b4:	c606                	sw	ra,12(sp)
800048b6:	c422                	sw	s0,8(sp)
800048b8:	c226                	sw	s1,4(sp)
/home/hqfang/workspace/software/riscv-gnu-toolchain/riscv-gcc/libgcc/soft-fp/floatsisf.c:42
800048ba:	c555                	beqz	a0,80004966 <__floatsisf+0xb4>
/home/hqfang/workspace/software/riscv-gnu-toolchain/riscv-gcc/libgcc/soft-fp/floatsisf.c:42 (discriminator 1)
800048bc:	41f55793          	srai	a5,a0,0x1f
800048c0:	00a7c433          	xor	s0,a5,a0
800048c4:	8c1d                	sub	s0,s0,a5
800048c6:	01f55493          	srli	s1,a0,0x1f
800048ca:	8522                	mv	a0,s0
800048cc:	2ced                	jal	80004bc6 <__clzsi2>
800048ce:	09e00793          	li	a5,158
800048d2:	872a                	mv	a4,a0
800048d4:	40a78533          	sub	a0,a5,a0
800048d8:	09600793          	li	a5,150
800048dc:	02a7c463          	blt	a5,a0,80004904 <__floatsisf+0x52>
/home/hqfang/workspace/software/riscv-gnu-toolchain/riscv-gcc/libgcc/soft-fp/floatsisf.c:42 (discriminator 28)
800048e0:	47a1                	li	a5,8
800048e2:	00e7d563          	bge	a5,a4,800048ec <__floatsisf+0x3a>
/home/hqfang/workspace/software/riscv-gnu-toolchain/riscv-gcc/libgcc/soft-fp/floatsisf.c:42 (discriminator 35)
800048e6:	1761                	addi	a4,a4,-8
800048e8:	00e41433          	sll	s0,s0,a4
/home/hqfang/workspace/software/riscv-gnu-toolchain/riscv-gcc/libgcc/soft-fp/floatsisf.c:43 (discriminator 140)
800048ec:	0426                	slli	s0,s0,0x9
800048ee:	055e                	slli	a0,a0,0x17
800048f0:	8025                	srli	s0,s0,0x9
800048f2:	8c49                	or	s0,s0,a0
800048f4:	01f49513          	slli	a0,s1,0x1f
/home/hqfang/workspace/software/riscv-gnu-toolchain/riscv-gcc/libgcc/soft-fp/floatsisf.c:47 (discriminator 140)
800048f8:	40b2                	lw	ra,12(sp)
800048fa:	8d41                	or	a0,a0,s0
800048fc:	4422                	lw	s0,8(sp)
800048fe:	4492                	lw	s1,4(sp)
80004900:	0141                	addi	sp,sp,16
80004902:	8082                	ret
/home/hqfang/workspace/software/riscv-gnu-toolchain/riscv-gcc/libgcc/soft-fp/floatsisf.c:42 (discriminator 29)
80004904:	09900793          	li	a5,153
80004908:	00a7dd63          	bge	a5,a0,80004922 <__floatsisf+0x70>
/home/hqfang/workspace/software/riscv-gnu-toolchain/riscv-gcc/libgcc/soft-fp/floatsisf.c:42 (discriminator 38)
8000490c:	4795                	li	a5,5
8000490e:	8f99                	sub	a5,a5,a4
80004910:	01b70693          	addi	a3,a4,27
80004914:	00f457b3          	srl	a5,s0,a5
80004918:	00d41433          	sll	s0,s0,a3
8000491c:	00803433          	snez	s0,s0
80004920:	8c5d                	or	s0,s0,a5
/home/hqfang/workspace/software/riscv-gnu-toolchain/riscv-gcc/libgcc/soft-fp/floatsisf.c:42 (discriminator 40)
80004922:	4795                	li	a5,5
80004924:	00e7d663          	bge	a5,a4,80004930 <__floatsisf+0x7e>
/home/hqfang/workspace/software/riscv-gnu-toolchain/riscv-gcc/libgcc/soft-fp/floatsisf.c:42 (discriminator 46)
80004928:	ffb70793          	addi	a5,a4,-5
8000492c:	00f41433          	sll	s0,s0,a5
/home/hqfang/workspace/software/riscv-gnu-toolchain/riscv-gcc/libgcc/soft-fp/floatsisf.c:42 (discriminator 48)
80004930:	fc0006b7          	lui	a3,0xfc000
80004934:	16fd                	addi	a3,a3,-1
80004936:	00747793          	andi	a5,s0,7
8000493a:	8ee1                	and	a3,a3,s0
8000493c:	c791                	beqz	a5,80004948 <__floatsisf+0x96>
/home/hqfang/workspace/software/riscv-gnu-toolchain/riscv-gcc/libgcc/soft-fp/floatsisf.c:42 (discriminator 89)
8000493e:	883d                	andi	s0,s0,15
80004940:	4791                	li	a5,4
80004942:	00f40363          	beq	s0,a5,80004948 <__floatsisf+0x96>
/home/hqfang/workspace/software/riscv-gnu-toolchain/riscv-gcc/libgcc/soft-fp/floatsisf.c:42 (discriminator 93)
80004946:	0691                	addi	a3,a3,4
/home/hqfang/workspace/software/riscv-gnu-toolchain/riscv-gcc/libgcc/soft-fp/floatsisf.c:42 (discriminator 96)
80004948:	040007b7          	lui	a5,0x4000
8000494c:	8ff5                	and	a5,a5,a3
8000494e:	cb89                	beqz	a5,80004960 <__floatsisf+0xae>
/home/hqfang/workspace/software/riscv-gnu-toolchain/riscv-gcc/libgcc/soft-fp/floatsisf.c:42 (discriminator 112)
80004950:	fc0007b7          	lui	a5,0xfc000
80004954:	17fd                	addi	a5,a5,-1
80004956:	8efd                	and	a3,a3,a5
80004958:	09f00793          	li	a5,159
8000495c:	40e78533          	sub	a0,a5,a4
/home/hqfang/workspace/software/riscv-gnu-toolchain/riscv-gcc/libgcc/soft-fp/floatsisf.c:42 (discriminator 128)
80004960:	0036d413          	srli	s0,a3,0x3
80004964:	b761                	j	800048ec <__floatsisf+0x3a>
/home/hqfang/workspace/software/riscv-gnu-toolchain/riscv-gcc/libgcc/soft-fp/floatsisf.c:42
80004966:	4481                	li	s1,0
80004968:	4401                	li	s0,0
8000496a:	b749                	j	800048ec <__floatsisf+0x3a>

8000496c <__floatunsisf>:
__floatunsisf():
/home/hqfang/workspace/software/riscv-gnu-toolchain/riscv-gcc/libgcc/soft-fp/floatunsisf.c:36
8000496c:	1141                	addi	sp,sp,-16
8000496e:	c422                	sw	s0,8(sp)
80004970:	c606                	sw	ra,12(sp)
80004972:	842a                	mv	s0,a0
/home/hqfang/workspace/software/riscv-gnu-toolchain/riscv-gcc/libgcc/soft-fp/floatunsisf.c:42
80004974:	4781                	li	a5,0
80004976:	cd19                	beqz	a0,80004994 <__floatunsisf+0x28>
/home/hqfang/workspace/software/riscv-gnu-toolchain/riscv-gcc/libgcc/soft-fp/floatunsisf.c:42 (discriminator 6)
80004978:	24b9                	jal	80004bc6 <__clzsi2>
8000497a:	09e00793          	li	a5,158
8000497e:	8f89                	sub	a5,a5,a0
80004980:	09600713          	li	a4,150
80004984:	02f74163          	blt	a4,a5,800049a6 <__floatunsisf+0x3a>
/home/hqfang/workspace/software/riscv-gnu-toolchain/riscv-gcc/libgcc/soft-fp/floatunsisf.c:42 (discriminator 28)
80004988:	4721                	li	a4,8
8000498a:	00a75563          	bge	a4,a0,80004994 <__floatunsisf+0x28>
/home/hqfang/workspace/software/riscv-gnu-toolchain/riscv-gcc/libgcc/soft-fp/floatunsisf.c:42 (discriminator 35)
8000498e:	1561                	addi	a0,a0,-8
80004990:	00a41433          	sll	s0,s0,a0
/home/hqfang/workspace/software/riscv-gnu-toolchain/riscv-gcc/libgcc/soft-fp/floatunsisf.c:43 (discriminator 140)
80004994:	0426                	slli	s0,s0,0x9
80004996:	8025                	srli	s0,s0,0x9
80004998:	01779513          	slli	a0,a5,0x17
/home/hqfang/workspace/software/riscv-gnu-toolchain/riscv-gcc/libgcc/soft-fp/floatunsisf.c:47 (discriminator 140)
8000499c:	40b2                	lw	ra,12(sp)
8000499e:	8d41                	or	a0,a0,s0
800049a0:	4422                	lw	s0,8(sp)
800049a2:	0141                	addi	sp,sp,16
800049a4:	8082                	ret
/home/hqfang/workspace/software/riscv-gnu-toolchain/riscv-gcc/libgcc/soft-fp/floatunsisf.c:42 (discriminator 29)
800049a6:	09900713          	li	a4,153
800049aa:	00f75d63          	bge	a4,a5,800049c4 <__floatunsisf+0x58>
/home/hqfang/workspace/software/riscv-gnu-toolchain/riscv-gcc/libgcc/soft-fp/floatunsisf.c:42 (discriminator 38)
800049ae:	01b50713          	addi	a4,a0,27 # 8000001b <_sp+0xefff001b>
800049b2:	4695                	li	a3,5
800049b4:	00e41733          	sll	a4,s0,a4
800049b8:	8e89                	sub	a3,a3,a0
800049ba:	00e03733          	snez	a4,a4
800049be:	00d45433          	srl	s0,s0,a3
800049c2:	8c59                	or	s0,s0,a4
/home/hqfang/workspace/software/riscv-gnu-toolchain/riscv-gcc/libgcc/soft-fp/floatunsisf.c:42 (discriminator 40)
800049c4:	4715                	li	a4,5
800049c6:	00a75663          	bge	a4,a0,800049d2 <__floatunsisf+0x66>
/home/hqfang/workspace/software/riscv-gnu-toolchain/riscv-gcc/libgcc/soft-fp/floatunsisf.c:42 (discriminator 46)
800049ca:	ffb50713          	addi	a4,a0,-5
800049ce:	00e41433          	sll	s0,s0,a4
/home/hqfang/workspace/software/riscv-gnu-toolchain/riscv-gcc/libgcc/soft-fp/floatunsisf.c:42 (discriminator 48)
800049d2:	fc000737          	lui	a4,0xfc000
800049d6:	177d                	addi	a4,a4,-1
800049d8:	00747693          	andi	a3,s0,7
800049dc:	8f61                	and	a4,a4,s0
800049de:	c691                	beqz	a3,800049ea <__floatunsisf+0x7e>
/home/hqfang/workspace/software/riscv-gnu-toolchain/riscv-gcc/libgcc/soft-fp/floatunsisf.c:42 (discriminator 89)
800049e0:	883d                	andi	s0,s0,15
800049e2:	4691                	li	a3,4
800049e4:	00d40363          	beq	s0,a3,800049ea <__floatunsisf+0x7e>
/home/hqfang/workspace/software/riscv-gnu-toolchain/riscv-gcc/libgcc/soft-fp/floatunsisf.c:42 (discriminator 93)
800049e8:	0711                	addi	a4,a4,4
/home/hqfang/workspace/software/riscv-gnu-toolchain/riscv-gcc/libgcc/soft-fp/floatunsisf.c:42 (discriminator 96)
800049ea:	040006b7          	lui	a3,0x4000
800049ee:	8ef9                	and	a3,a3,a4
800049f0:	ca81                	beqz	a3,80004a00 <__floatunsisf+0x94>
/home/hqfang/workspace/software/riscv-gnu-toolchain/riscv-gcc/libgcc/soft-fp/floatunsisf.c:42 (discriminator 112)
800049f2:	fc0007b7          	lui	a5,0xfc000
800049f6:	17fd                	addi	a5,a5,-1
800049f8:	8f7d                	and	a4,a4,a5
800049fa:	09f00793          	li	a5,159
800049fe:	8f89                	sub	a5,a5,a0
/home/hqfang/workspace/software/riscv-gnu-toolchain/riscv-gcc/libgcc/soft-fp/floatunsisf.c:42 (discriminator 128)
80004a00:	00375413          	srli	s0,a4,0x3
80004a04:	bf41                	j	80004994 <__floatunsisf+0x28>

80004a06 <__floatundisf>:
__floatundisf():
/home/hqfang/workspace/software/riscv-gnu-toolchain/riscv-gcc/libgcc/soft-fp/floatundisf.c:36
80004a06:	1101                	addi	sp,sp,-32
80004a08:	ce06                	sw	ra,28(sp)
80004a0a:	cc22                	sw	s0,24(sp)
80004a0c:	ca26                	sw	s1,20(sp)
80004a0e:	c84a                	sw	s2,16(sp)
80004a10:	c64e                	sw	s3,12(sp)
80004a12:	c452                	sw	s4,8(sp)
/home/hqfang/workspace/software/riscv-gnu-toolchain/riscv-gcc/libgcc/soft-fp/floatundisf.c:42
80004a14:	00b567b3          	or	a5,a0,a1
80004a18:	cfdd                	beqz	a5,80004ad6 <__floatundisf+0xd0>
80004a1a:	842a                	mv	s0,a0
80004a1c:	89ae                	mv	s3,a1
80004a1e:	c1a9                	beqz	a1,80004a60 <__floatundisf+0x5a>
/home/hqfang/workspace/software/riscv-gnu-toolchain/riscv-gcc/libgcc/soft-fp/floatundisf.c:42 (discriminator 8)
80004a20:	852e                	mv	a0,a1
80004a22:	2255                	jal	80004bc6 <__clzsi2>
80004a24:	84aa                	mv	s1,a0
/home/hqfang/workspace/software/riscv-gnu-toolchain/riscv-gcc/libgcc/soft-fp/floatundisf.c:42 (discriminator 22)
80004a26:	0be00913          	li	s2,190
80004a2a:	40990933          	sub	s2,s2,s1
80004a2e:	09600793          	li	a5,150
80004a32:	0327cb63          	blt	a5,s2,80004a68 <__floatundisf+0x62>
/home/hqfang/workspace/software/riscv-gnu-toolchain/riscv-gcc/libgcc/soft-fp/floatundisf.c:42 (discriminator 38)
80004a36:	02800793          	li	a5,40
80004a3a:	0097d663          	bge	a5,s1,80004a46 <__floatundisf+0x40>
/home/hqfang/workspace/software/riscv-gnu-toolchain/riscv-gcc/libgcc/soft-fp/floatundisf.c:42 (discriminator 45)
80004a3e:	fd848493          	addi	s1,s1,-40
80004a42:	00941433          	sll	s0,s0,s1
/home/hqfang/workspace/software/riscv-gnu-toolchain/riscv-gcc/libgcc/soft-fp/floatundisf.c:43 (discriminator 150)
80004a46:	0426                	slli	s0,s0,0x9
80004a48:	01791513          	slli	a0,s2,0x17
80004a4c:	8025                	srli	s0,s0,0x9
/home/hqfang/workspace/software/riscv-gnu-toolchain/riscv-gcc/libgcc/soft-fp/floatundisf.c:47 (discriminator 150)
80004a4e:	40f2                	lw	ra,28(sp)
80004a50:	8d41                	or	a0,a0,s0
80004a52:	4462                	lw	s0,24(sp)
80004a54:	44d2                	lw	s1,20(sp)
80004a56:	4942                	lw	s2,16(sp)
80004a58:	49b2                	lw	s3,12(sp)
80004a5a:	4a22                	lw	s4,8(sp)
80004a5c:	6105                	addi	sp,sp,32
80004a5e:	8082                	ret
/home/hqfang/workspace/software/riscv-gnu-toolchain/riscv-gcc/libgcc/soft-fp/floatundisf.c:42 (discriminator 15)
80004a60:	229d                	jal	80004bc6 <__clzsi2>
80004a62:	02050493          	addi	s1,a0,32
80004a66:	b7c1                	j	80004a26 <__floatundisf+0x20>
/home/hqfang/workspace/software/riscv-gnu-toolchain/riscv-gcc/libgcc/soft-fp/floatundisf.c:42 (discriminator 39)
80004a68:	09900793          	li	a5,153
80004a6c:	0327d263          	bge	a5,s2,80004a90 <__floatundisf+0x8a>
/home/hqfang/workspace/software/riscv-gnu-toolchain/riscv-gcc/libgcc/soft-fp/floatundisf.c:42 (discriminator 48)
80004a70:	01b48613          	addi	a2,s1,27
80004a74:	8522                	mv	a0,s0
80004a76:	85ce                	mv	a1,s3
80004a78:	2215                	jal	80004b9c <__ashldi3>
80004a7a:	8d4d                	or	a0,a0,a1
80004a7c:	02500613          	li	a2,37
80004a80:	00a03a33          	snez	s4,a0
80004a84:	8e05                	sub	a2,a2,s1
80004a86:	8522                	mv	a0,s0
80004a88:	85ce                	mv	a1,s3
80004a8a:	20e5                	jal	80004b72 <__lshrdi3>
80004a8c:	00aa6433          	or	s0,s4,a0
/home/hqfang/workspace/software/riscv-gnu-toolchain/riscv-gcc/libgcc/soft-fp/floatundisf.c:42 (discriminator 50)
80004a90:	02500793          	li	a5,37
80004a94:	0097d663          	bge	a5,s1,80004aa0 <__floatundisf+0x9a>
/home/hqfang/workspace/software/riscv-gnu-toolchain/riscv-gcc/libgcc/soft-fp/floatundisf.c:42 (discriminator 56)
80004a98:	fdb48793          	addi	a5,s1,-37
80004a9c:	00f41433          	sll	s0,s0,a5
/home/hqfang/workspace/software/riscv-gnu-toolchain/riscv-gcc/libgcc/soft-fp/floatundisf.c:42 (discriminator 58)
80004aa0:	fc000537          	lui	a0,0xfc000
80004aa4:	157d                	addi	a0,a0,-1
80004aa6:	00747793          	andi	a5,s0,7
80004aaa:	8d61                	and	a0,a0,s0
80004aac:	c791                	beqz	a5,80004ab8 <__floatundisf+0xb2>
/home/hqfang/workspace/software/riscv-gnu-toolchain/riscv-gcc/libgcc/soft-fp/floatundisf.c:42 (discriminator 99)
80004aae:	883d                	andi	s0,s0,15
80004ab0:	4791                	li	a5,4
80004ab2:	00f40363          	beq	s0,a5,80004ab8 <__floatundisf+0xb2>
/home/hqfang/workspace/software/riscv-gnu-toolchain/riscv-gcc/libgcc/soft-fp/floatundisf.c:42 (discriminator 103)
80004ab6:	0511                	addi	a0,a0,4
/home/hqfang/workspace/software/riscv-gnu-toolchain/riscv-gcc/libgcc/soft-fp/floatundisf.c:42 (discriminator 106)
80004ab8:	040007b7          	lui	a5,0x4000
80004abc:	8fe9                	and	a5,a5,a0
80004abe:	cb89                	beqz	a5,80004ad0 <__floatundisf+0xca>
/home/hqfang/workspace/software/riscv-gnu-toolchain/riscv-gcc/libgcc/soft-fp/floatundisf.c:42 (discriminator 122)
80004ac0:	fc0007b7          	lui	a5,0xfc000
80004ac4:	17fd                	addi	a5,a5,-1
80004ac6:	0bf00913          	li	s2,191
80004aca:	8d7d                	and	a0,a0,a5
80004acc:	40990933          	sub	s2,s2,s1
/home/hqfang/workspace/software/riscv-gnu-toolchain/riscv-gcc/libgcc/soft-fp/floatundisf.c:42 (discriminator 138)
80004ad0:	00355413          	srli	s0,a0,0x3
80004ad4:	bf8d                	j	80004a46 <__floatundisf+0x40>
/home/hqfang/workspace/software/riscv-gnu-toolchain/riscv-gcc/libgcc/soft-fp/floatundisf.c:42
80004ad6:	4401                	li	s0,0
80004ad8:	4901                	li	s2,0
80004ada:	b7b5                	j	80004a46 <__floatundisf+0x40>

80004adc <__extendsfdf2>:
__extendsfdf2():
/home/hqfang/workspace/software/riscv-gnu-toolchain/riscv-gcc/libgcc/soft-fp/extendsfdf2.c:45
80004adc:	01755713          	srli	a4,a0,0x17
80004ae0:	0ff77713          	andi	a4,a4,255
/home/hqfang/workspace/software/riscv-gnu-toolchain/riscv-gcc/libgcc/soft-fp/extendsfdf2.c:38
80004ae4:	1141                	addi	sp,sp,-16
/home/hqfang/workspace/software/riscv-gnu-toolchain/riscv-gcc/libgcc/soft-fp/extendsfdf2.c:47
80004ae6:	00170793          	addi	a5,a4,1 # fc000001 <_sp+0x6bff0001>
/home/hqfang/workspace/software/riscv-gnu-toolchain/riscv-gcc/libgcc/soft-fp/extendsfdf2.c:38
80004aea:	c422                	sw	s0,8(sp)
80004aec:	c226                	sw	s1,4(sp)
/home/hqfang/workspace/software/riscv-gnu-toolchain/riscv-gcc/libgcc/soft-fp/extendsfdf2.c:45
80004aee:	00951413          	slli	s0,a0,0x9
/home/hqfang/workspace/software/riscv-gnu-toolchain/riscv-gcc/libgcc/soft-fp/extendsfdf2.c:38
80004af2:	c606                	sw	ra,12(sp)
/home/hqfang/workspace/software/riscv-gnu-toolchain/riscv-gcc/libgcc/soft-fp/extendsfdf2.c:47
80004af4:	0fe7f793          	andi	a5,a5,254
/home/hqfang/workspace/software/riscv-gnu-toolchain/riscv-gcc/libgcc/soft-fp/extendsfdf2.c:45
80004af8:	8025                	srli	s0,s0,0x9
80004afa:	01f55493          	srli	s1,a0,0x1f
/home/hqfang/workspace/software/riscv-gnu-toolchain/riscv-gcc/libgcc/soft-fp/extendsfdf2.c:47
80004afe:	c78d                	beqz	a5,80004b28 <__extendsfdf2+0x4c>
/home/hqfang/workspace/software/riscv-gnu-toolchain/riscv-gcc/libgcc/soft-fp/extendsfdf2.c:47 (discriminator 1)
80004b00:	00345793          	srli	a5,s0,0x3
80004b04:	38070713          	addi	a4,a4,896
80004b08:	0476                	slli	s0,s0,0x1d
/home/hqfang/workspace/software/riscv-gnu-toolchain/riscv-gcc/libgcc/soft-fp/extendsfdf2.c:51 (discriminator 53)
80004b0a:	07b2                	slli	a5,a5,0xc
80004b0c:	0752                	slli	a4,a4,0x14
80004b0e:	83b1                	srli	a5,a5,0xc
80004b10:	01f49513          	slli	a0,s1,0x1f
80004b14:	8fd9                	or	a5,a5,a4
/home/hqfang/workspace/software/riscv-gnu-toolchain/riscv-gcc/libgcc/soft-fp/extendsfdf2.c:55 (discriminator 53)
80004b16:	40b2                	lw	ra,12(sp)
/home/hqfang/workspace/software/riscv-gnu-toolchain/riscv-gcc/libgcc/soft-fp/extendsfdf2.c:51 (discriminator 53)
80004b18:	00a7e733          	or	a4,a5,a0
/home/hqfang/workspace/software/riscv-gnu-toolchain/riscv-gcc/libgcc/soft-fp/extendsfdf2.c:55 (discriminator 53)
80004b1c:	8522                	mv	a0,s0
80004b1e:	4422                	lw	s0,8(sp)
80004b20:	4492                	lw	s1,4(sp)
80004b22:	85ba                	mv	a1,a4
80004b24:	0141                	addi	sp,sp,16
80004b26:	8082                	ret
/home/hqfang/workspace/software/riscv-gnu-toolchain/riscv-gcc/libgcc/soft-fp/extendsfdf2.c:47 (discriminator 2)
80004b28:	eb15                	bnez	a4,80004b5c <__extendsfdf2+0x80>
/home/hqfang/workspace/software/riscv-gnu-toolchain/riscv-gcc/libgcc/soft-fp/extendsfdf2.c:47 (discriminator 12)
80004b2a:	4781                	li	a5,0
80004b2c:	dc79                	beqz	s0,80004b0a <__extendsfdf2+0x2e>
/home/hqfang/workspace/software/riscv-gnu-toolchain/riscv-gcc/libgcc/soft-fp/extendsfdf2.c:47 (discriminator 16)
80004b2e:	8522                	mv	a0,s0
80004b30:	2859                	jal	80004bc6 <__clzsi2>
80004b32:	47a9                	li	a5,10
80004b34:	00a7ce63          	blt	a5,a0,80004b50 <__extendsfdf2+0x74>
/home/hqfang/workspace/software/riscv-gnu-toolchain/riscv-gcc/libgcc/soft-fp/extendsfdf2.c:47 (discriminator 29)
80004b38:	47ad                	li	a5,11
80004b3a:	8f89                	sub	a5,a5,a0
80004b3c:	01550713          	addi	a4,a0,21 # fc000015 <_sp+0x6bff0015>
80004b40:	00f457b3          	srl	a5,s0,a5
80004b44:	00e41433          	sll	s0,s0,a4
/home/hqfang/workspace/software/riscv-gnu-toolchain/riscv-gcc/libgcc/soft-fp/extendsfdf2.c:47 (discriminator 38)
80004b48:	38900713          	li	a4,905
80004b4c:	8f09                	sub	a4,a4,a0
80004b4e:	bf75                	j	80004b0a <__extendsfdf2+0x2e>
/home/hqfang/workspace/software/riscv-gnu-toolchain/riscv-gcc/libgcc/soft-fp/extendsfdf2.c:47 (discriminator 30)
80004b50:	ff550793          	addi	a5,a0,-11
80004b54:	00f417b3          	sll	a5,s0,a5
80004b58:	4401                	li	s0,0
80004b5a:	b7fd                	j	80004b48 <__extendsfdf2+0x6c>
/home/hqfang/workspace/software/riscv-gnu-toolchain/riscv-gcc/libgcc/soft-fp/extendsfdf2.c:47 (discriminator 9)
80004b5c:	4781                	li	a5,0
80004b5e:	c419                	beqz	s0,80004b6c <__extendsfdf2+0x90>
/home/hqfang/workspace/software/riscv-gnu-toolchain/riscv-gcc/libgcc/soft-fp/extendsfdf2.c:47 (discriminator 39)
80004b60:	00345793          	srli	a5,s0,0x3
80004b64:	00080737          	lui	a4,0x80
80004b68:	0476                	slli	s0,s0,0x1d
80004b6a:	8fd9                	or	a5,a5,a4
/home/hqfang/workspace/software/riscv-gnu-toolchain/riscv-gcc/libgcc/soft-fp/extendsfdf2.c:47
80004b6c:	7ff00713          	li	a4,2047
80004b70:	bf69                	j	80004b0a <__extendsfdf2+0x2e>

80004b72 <__lshrdi3>:
__lshrdi3():
/home/hqfang/workspace/software/riscv-gnu-toolchain/riscv-gcc/libgcc/libgcc2.c:406
80004b72:	ce01                	beqz	a2,80004b8a <__lshrdi3+0x18>
/home/hqfang/workspace/software/riscv-gnu-toolchain/riscv-gcc/libgcc/libgcc2.c:410
80004b74:	02000793          	li	a5,32
80004b78:	8f91                	sub	a5,a5,a2
/home/hqfang/workspace/software/riscv-gnu-toolchain/riscv-gcc/libgcc/libgcc2.c:413
80004b7a:	00f04963          	bgtz	a5,80004b8c <__lshrdi3+0x1a>
/home/hqfang/workspace/software/riscv-gnu-toolchain/riscv-gcc/libgcc/libgcc2.c:416
80004b7e:	fe060513          	addi	a0,a2,-32
/home/hqfang/workspace/software/riscv-gnu-toolchain/riscv-gcc/libgcc/libgcc2.c:415
80004b82:	4701                	li	a4,0
/home/hqfang/workspace/software/riscv-gnu-toolchain/riscv-gcc/libgcc/libgcc2.c:416
80004b84:	00a5d533          	srl	a0,a1,a0
/home/hqfang/workspace/software/riscv-gnu-toolchain/riscv-gcc/libgcc/libgcc2.c:426
80004b88:	85ba                	mv	a1,a4
/home/hqfang/workspace/software/riscv-gnu-toolchain/riscv-gcc/libgcc/libgcc2.c:427
80004b8a:	8082                	ret
/home/hqfang/workspace/software/riscv-gnu-toolchain/riscv-gcc/libgcc/libgcc2.c:422
80004b8c:	00c5d733          	srl	a4,a1,a2
/home/hqfang/workspace/software/riscv-gnu-toolchain/riscv-gcc/libgcc/libgcc2.c:423
80004b90:	00c55533          	srl	a0,a0,a2
/home/hqfang/workspace/software/riscv-gnu-toolchain/riscv-gcc/libgcc/libgcc2.c:420
80004b94:	00f595b3          	sll	a1,a1,a5
/home/hqfang/workspace/software/riscv-gnu-toolchain/riscv-gcc/libgcc/libgcc2.c:423
80004b98:	8d4d                	or	a0,a0,a1
80004b9a:	b7fd                	j	80004b88 <__lshrdi3+0x16>

80004b9c <__ashldi3>:
__ashldi3():
/home/hqfang/workspace/software/riscv-gnu-toolchain/riscv-gcc/libgcc/libgcc2.c:434
80004b9c:	ce01                	beqz	a2,80004bb4 <__ashldi3+0x18>
/home/hqfang/workspace/software/riscv-gnu-toolchain/riscv-gcc/libgcc/libgcc2.c:438
80004b9e:	02000793          	li	a5,32
80004ba2:	8f91                	sub	a5,a5,a2
/home/hqfang/workspace/software/riscv-gnu-toolchain/riscv-gcc/libgcc/libgcc2.c:441
80004ba4:	00f04963          	bgtz	a5,80004bb6 <__ashldi3+0x1a>
/home/hqfang/workspace/software/riscv-gnu-toolchain/riscv-gcc/libgcc/libgcc2.c:444
80004ba8:	fe060593          	addi	a1,a2,-32
/home/hqfang/workspace/software/riscv-gnu-toolchain/riscv-gcc/libgcc/libgcc2.c:443
80004bac:	4701                	li	a4,0
/home/hqfang/workspace/software/riscv-gnu-toolchain/riscv-gcc/libgcc/libgcc2.c:444
80004bae:	00b515b3          	sll	a1,a0,a1
/home/hqfang/workspace/software/riscv-gnu-toolchain/riscv-gcc/libgcc/libgcc2.c:454
80004bb2:	853a                	mv	a0,a4
/home/hqfang/workspace/software/riscv-gnu-toolchain/riscv-gcc/libgcc/libgcc2.c:455
80004bb4:	8082                	ret
/home/hqfang/workspace/software/riscv-gnu-toolchain/riscv-gcc/libgcc/libgcc2.c:450
80004bb6:	00c51733          	sll	a4,a0,a2
/home/hqfang/workspace/software/riscv-gnu-toolchain/riscv-gcc/libgcc/libgcc2.c:451
80004bba:	00c595b3          	sll	a1,a1,a2
/home/hqfang/workspace/software/riscv-gnu-toolchain/riscv-gcc/libgcc/libgcc2.c:448
80004bbe:	00f55533          	srl	a0,a0,a5
/home/hqfang/workspace/software/riscv-gnu-toolchain/riscv-gcc/libgcc/libgcc2.c:451
80004bc2:	8dc9                	or	a1,a1,a0
80004bc4:	b7fd                	j	80004bb2 <__ashldi3+0x16>

80004bc6 <__clzsi2>:
__clzsi2():
/home/hqfang/workspace/software/riscv-gnu-toolchain/riscv-gcc/libgcc/libgcc2.c:710
80004bc6:	67c1                	lui	a5,0x10
80004bc8:	02f57663          	bgeu	a0,a5,80004bf4 <__clzsi2+0x2e>
/home/hqfang/workspace/software/riscv-gnu-toolchain/riscv-gcc/libgcc/libgcc2.c:710 (discriminator 3)
80004bcc:	0ff00793          	li	a5,255
80004bd0:	00a7b7b3          	sltu	a5,a5,a0
80004bd4:	078e                	slli	a5,a5,0x3
/home/hqfang/workspace/software/riscv-gnu-toolchain/riscv-gcc/libgcc/libgcc2.c:710 (discriminator 14)
80004bd6:	02000713          	li	a4,32
80004bda:	8f1d                	sub	a4,a4,a5
80004bdc:	00f55533          	srl	a0,a0,a5
80004be0:	00005797          	auipc	a5,0x5
80004be4:	58478793          	addi	a5,a5,1412 # 8000a164 <__clz_tab>
80004be8:	953e                	add	a0,a0,a5
80004bea:	00054503          	lbu	a0,0(a0)
/home/hqfang/workspace/software/riscv-gnu-toolchain/riscv-gcc/libgcc/libgcc2.c:713 (discriminator 14)
80004bee:	40a70533          	sub	a0,a4,a0
80004bf2:	8082                	ret
/home/hqfang/workspace/software/riscv-gnu-toolchain/riscv-gcc/libgcc/libgcc2.c:710 (discriminator 4)
80004bf4:	01000737          	lui	a4,0x1000
80004bf8:	47c1                	li	a5,16
80004bfa:	fce56ee3          	bltu	a0,a4,80004bd6 <__clzsi2+0x10>
/home/hqfang/workspace/software/riscv-gnu-toolchain/riscv-gcc/libgcc/libgcc2.c:710
80004bfe:	47e1                	li	a5,24
80004c00:	bfd9                	j	80004bd6 <__clzsi2+0x10>

80004c02 <atexit>:
atexit():
80004c02:	85aa                	mv	a1,a0
80004c04:	4681                	li	a3,0
80004c06:	4601                	li	a2,0
80004c08:	4501                	li	a0,0
80004c0a:	6470006f          	j	80005a50 <__register_exitproc>

80004c0e <__errno>:
__errno():
80004c0e:	80c1a503          	lw	a0,-2036(gp) # 900001dc <_impure_ptr>
80004c12:	8082                	ret

80004c14 <__libc_fini_array>:
__libc_fini_array():
80004c14:	1141                	addi	sp,sp,-16
80004c16:	c422                	sw	s0,8(sp)
80004c18:	c226                	sw	s1,4(sp)
80004c1a:	00006417          	auipc	s0,0x6
80004c1e:	afa40413          	addi	s0,s0,-1286 # 8000a714 <__fsymtab_end>
80004c22:	00006497          	auipc	s1,0x6
80004c26:	af248493          	addi	s1,s1,-1294 # 8000a714 <__fsymtab_end>
80004c2a:	8c05                	sub	s0,s0,s1
80004c2c:	c606                	sw	ra,12(sp)
80004c2e:	8409                	srai	s0,s0,0x2
80004c30:	e411                	bnez	s0,80004c3c <__libc_fini_array+0x28>
80004c32:	40b2                	lw	ra,12(sp)
80004c34:	4422                	lw	s0,8(sp)
80004c36:	4492                	lw	s1,4(sp)
80004c38:	0141                	addi	sp,sp,16
80004c3a:	8082                	ret
80004c3c:	147d                	addi	s0,s0,-1
80004c3e:	00241793          	slli	a5,s0,0x2
80004c42:	97a6                	add	a5,a5,s1
80004c44:	439c                	lw	a5,0(a5)
80004c46:	9782                	jalr	a5
80004c48:	b7e5                	j	80004c30 <__libc_fini_array+0x1c>

80004c4a <__libc_init_array>:
__libc_init_array():
80004c4a:	1141                	addi	sp,sp,-16
80004c4c:	c422                	sw	s0,8(sp)
80004c4e:	c226                	sw	s1,4(sp)
80004c50:	00006417          	auipc	s0,0x6
80004c54:	ac440413          	addi	s0,s0,-1340 # 8000a714 <__fsymtab_end>
80004c58:	00006497          	auipc	s1,0x6
80004c5c:	abc48493          	addi	s1,s1,-1348 # 8000a714 <__fsymtab_end>
80004c60:	8c81                	sub	s1,s1,s0
80004c62:	c04a                	sw	s2,0(sp)
80004c64:	c606                	sw	ra,12(sp)
80004c66:	8489                	srai	s1,s1,0x2
80004c68:	4901                	li	s2,0
80004c6a:	02991563          	bne	s2,s1,80004c94 <__libc_init_array+0x4a>
80004c6e:	00006417          	auipc	s0,0x6
80004c72:	aa640413          	addi	s0,s0,-1370 # 8000a714 <__fsymtab_end>
80004c76:	00006497          	auipc	s1,0x6
80004c7a:	a9e48493          	addi	s1,s1,-1378 # 8000a714 <__fsymtab_end>
80004c7e:	8c81                	sub	s1,s1,s0
80004c80:	8489                	srai	s1,s1,0x2
80004c82:	4901                	li	s2,0
80004c84:	00991d63          	bne	s2,s1,80004c9e <__libc_init_array+0x54>
80004c88:	40b2                	lw	ra,12(sp)
80004c8a:	4422                	lw	s0,8(sp)
80004c8c:	4492                	lw	s1,4(sp)
80004c8e:	4902                	lw	s2,0(sp)
80004c90:	0141                	addi	sp,sp,16
80004c92:	8082                	ret
80004c94:	401c                	lw	a5,0(s0)
80004c96:	0905                	addi	s2,s2,1
80004c98:	0411                	addi	s0,s0,4
80004c9a:	9782                	jalr	a5
80004c9c:	b7f9                	j	80004c6a <__libc_init_array+0x20>
80004c9e:	401c                	lw	a5,0(s0)
80004ca0:	0905                	addi	s2,s2,1
80004ca2:	0411                	addi	s0,s0,4
80004ca4:	9782                	jalr	a5
80004ca6:	bff9                	j	80004c84 <__libc_init_array+0x3a>

80004ca8 <__cvt>:
__cvt():
80004ca8:	7179                	addi	sp,sp,-48
80004caa:	d422                	sw	s0,40(sp)
80004cac:	d04a                	sw	s2,32(sp)
80004cae:	cc52                	sw	s4,24(sp)
80004cb0:	ca56                	sw	s5,20(sp)
80004cb2:	c85a                	sw	s6,16(sp)
80004cb4:	d606                	sw	ra,44(sp)
80004cb6:	d226                	sw	s1,36(sp)
80004cb8:	ce4e                	sw	s3,28(sp)
80004cba:	8b3a                	mv	s6,a4
80004cbc:	8a2e                	mv	s4,a1
80004cbe:	8432                	mv	s0,a2
80004cc0:	8936                	mv	s2,a3
80004cc2:	8ac2                	mv	s5,a6
80004cc4:	4701                	li	a4,0
80004cc6:	00065863          	bgez	a2,80004cd6 <__cvt+0x2e>
80004cca:	80000737          	lui	a4,0x80000
80004cce:	00c74433          	xor	s0,a4,a2
80004cd2:	02d00713          	li	a4,45
80004cd6:	00e78023          	sb	a4,0(a5)
80004cda:	fdf8f493          	andi	s1,a7,-33
80004cde:	04600793          	li	a5,70
80004ce2:	468d                	li	a3,3
80004ce4:	00f48863          	beq	s1,a5,80004cf4 <__cvt+0x4c>
80004ce8:	04500793          	li	a5,69
80004cec:	4689                	li	a3,2
80004cee:	00f49363          	bne	s1,a5,80004cf4 <__cvt+0x4c>
80004cf2:	0905                	addi	s2,s2,1
80004cf4:	87d6                	mv	a5,s5
80004cf6:	00c10893          	addi	a7,sp,12
80004cfa:	00810813          	addi	a6,sp,8
80004cfe:	874a                	mv	a4,s2
80004d00:	85d2                	mv	a1,s4
80004d02:	8622                	mv	a2,s0
80004d04:	6ed000ef          	jal	ra,80005bf0 <_dtoa_r>
80004d08:	04700793          	li	a5,71
80004d0c:	89aa                	mv	s3,a0
80004d0e:	00f49663          	bne	s1,a5,80004d1a <__cvt+0x72>
80004d12:	001b7b13          	andi	s6,s6,1
80004d16:	040b0a63          	beqz	s6,80004d6a <__cvt+0xc2>
80004d1a:	04600793          	li	a5,70
80004d1e:	01298b33          	add	s6,s3,s2
80004d22:	02f49763          	bne	s1,a5,80004d50 <__cvt+0xa8>
80004d26:	0009c703          	lbu	a4,0(s3)
80004d2a:	03000793          	li	a5,48
80004d2e:	00f71e63          	bne	a4,a5,80004d4a <__cvt+0xa2>
80004d32:	4601                	li	a2,0
80004d34:	4681                	li	a3,0
80004d36:	8552                	mv	a0,s4
80004d38:	85a2                	mv	a1,s0
80004d3a:	4e5030ef          	jal	ra,80008a1e <__eqdf2>
80004d3e:	c511                	beqz	a0,80004d4a <__cvt+0xa2>
80004d40:	4685                	li	a3,1
80004d42:	41268933          	sub	s2,a3,s2
80004d46:	012aa023          	sw	s2,0(s5)
80004d4a:	000aa783          	lw	a5,0(s5)
80004d4e:	9b3e                	add	s6,s6,a5
80004d50:	4601                	li	a2,0
80004d52:	4681                	li	a3,0
80004d54:	8552                	mv	a0,s4
80004d56:	85a2                	mv	a1,s0
80004d58:	4c7030ef          	jal	ra,80008a1e <__eqdf2>
80004d5c:	e111                	bnez	a0,80004d60 <__cvt+0xb8>
80004d5e:	c65a                	sw	s6,12(sp)
80004d60:	03000713          	li	a4,48
80004d64:	47b2                	lw	a5,12(sp)
80004d66:	0367e263          	bltu	a5,s6,80004d8a <__cvt+0xe2>
80004d6a:	47b2                	lw	a5,12(sp)
80004d6c:	5742                	lw	a4,48(sp)
80004d6e:	50b2                	lw	ra,44(sp)
80004d70:	5422                	lw	s0,40(sp)
80004d72:	413787b3          	sub	a5,a5,s3
80004d76:	c31c                	sw	a5,0(a4)
80004d78:	5492                	lw	s1,36(sp)
80004d7a:	5902                	lw	s2,32(sp)
80004d7c:	4a62                	lw	s4,24(sp)
80004d7e:	4ad2                	lw	s5,20(sp)
80004d80:	4b42                	lw	s6,16(sp)
80004d82:	854e                	mv	a0,s3
80004d84:	49f2                	lw	s3,28(sp)
80004d86:	6145                	addi	sp,sp,48
80004d88:	8082                	ret
80004d8a:	00178693          	addi	a3,a5,1
80004d8e:	c636                	sw	a3,12(sp)
80004d90:	00e78023          	sb	a4,0(a5)
80004d94:	bfc1                	j	80004d64 <__cvt+0xbc>

80004d96 <__exponent>:
__exponent():
80004d96:	00c50023          	sb	a2,0(a0)
80004d9a:	00250793          	addi	a5,a0,2
80004d9e:	02b00713          	li	a4,43
80004da2:	0005d663          	bgez	a1,80004dae <__exponent+0x18>
80004da6:	40b005b3          	neg	a1,a1
80004daa:	02d00713          	li	a4,45
80004dae:	00e500a3          	sb	a4,1(a0)
80004db2:	4725                	li	a4,9
80004db4:	06b75263          	bge	a4,a1,80004e18 <__exponent+0x82>
80004db8:	1141                	addi	sp,sp,-16
80004dba:	00f10713          	addi	a4,sp,15
80004dbe:	883a                	mv	a6,a4
80004dc0:	48a9                	li	a7,10
80004dc2:	06300313          	li	t1,99
80004dc6:	0315e633          	rem	a2,a1,a7
80004dca:	86ba                	mv	a3,a4
80004dcc:	177d                	addi	a4,a4,-1
80004dce:	03060613          	addi	a2,a2,48
80004dd2:	fec68fa3          	sb	a2,-1(a3) # 3ffffff <__stack_size+0x3fff7ff>
80004dd6:	862e                	mv	a2,a1
80004dd8:	0315c5b3          	div	a1,a1,a7
80004ddc:	fec345e3          	blt	t1,a2,80004dc6 <__exponent+0x30>
80004de0:	ffe68893          	addi	a7,a3,-2
80004de4:	03058593          	addi	a1,a1,48 # 4000030 <__stack_size+0x3fff830>
80004de8:	feb70fa3          	sb	a1,-1(a4) # 7fffffff <_sp+0xeffeffff>
80004dec:	863e                	mv	a2,a5
80004dee:	8746                	mv	a4,a7
80004df0:	01076d63          	bltu	a4,a6,80004e0a <__exponent+0x74>
80004df4:	4701                	li	a4,0
80004df6:	01186563          	bltu	a6,a7,80004e00 <__exponent+0x6a>
80004dfa:	01110713          	addi	a4,sp,17
80004dfe:	8f15                	sub	a4,a4,a3
80004e00:	97ba                	add	a5,a5,a4
80004e02:	40a78533          	sub	a0,a5,a0
80004e06:	0141                	addi	sp,sp,16
80004e08:	8082                	ret
80004e0a:	00074583          	lbu	a1,0(a4)
80004e0e:	0705                	addi	a4,a4,1
80004e10:	0605                	addi	a2,a2,1
80004e12:	feb60fa3          	sb	a1,-1(a2)
80004e16:	bfe9                	j	80004df0 <__exponent+0x5a>
80004e18:	03000793          	li	a5,48
80004e1c:	00f50123          	sb	a5,2(a0)
80004e20:	03058593          	addi	a1,a1,48
80004e24:	00450793          	addi	a5,a0,4
80004e28:	00b501a3          	sb	a1,3(a0)
80004e2c:	40a78533          	sub	a0,a5,a0
80004e30:	8082                	ret

80004e32 <_printf_float>:
_printf_float():
80004e32:	7159                	addi	sp,sp,-112
80004e34:	d686                	sw	ra,108(sp)
80004e36:	d4a2                	sw	s0,104(sp)
80004e38:	d2a6                	sw	s1,100(sp)
80004e3a:	842e                	mv	s0,a1
80004e3c:	d0ca                	sw	s2,96(sp)
80004e3e:	cece                	sw	s3,92(sp)
80004e40:	ccd2                	sw	s4,88(sp)
80004e42:	cad6                	sw	s5,84(sp)
80004e44:	8a3a                	mv	s4,a4
80004e46:	c8da                	sw	s6,80(sp)
80004e48:	c6de                	sw	s7,76(sp)
80004e4a:	c4e2                	sw	s8,72(sp)
80004e4c:	8932                	mv	s2,a2
80004e4e:	89b6                	mv	s3,a3
80004e50:	c2e6                	sw	s9,68(sp)
80004e52:	c0ea                	sw	s10,64(sp)
80004e54:	de6e                	sw	s11,60(sp)
80004e56:	84aa                	mv	s1,a0
80004e58:	5ad010ef          	jal	ra,80006c04 <_localeconv_r>
80004e5c:	00052c03          	lw	s8,0(a0)
80004e60:	8562                	mv	a0,s8
80004e62:	207000ef          	jal	ra,80005868 <strlen>
80004e66:	00042b03          	lw	s6,0(s0)
80004e6a:	d402                	sw	zero,40(sp)
80004e6c:	01844a83          	lbu	s5,24(s0)
80004e70:	100b7713          	andi	a4,s6,256
80004e74:	000a2783          	lw	a5,0(s4)
80004e78:	8baa                	mv	s7,a0
80004e7a:	c375                	beqz	a4,80004f5e <_printf_float+0x12c>
80004e7c:	00478713          	addi	a4,a5,4
80004e80:	00ea2023          	sw	a4,0(s4)
80004e84:	439c                	lw	a5,0(a5)
80004e86:	0808                	addi	a0,sp,16
80004e88:	4398                	lw	a4,0(a5)
80004e8a:	c83a                	sw	a4,16(sp)
80004e8c:	43d8                	lw	a4,4(a5)
80004e8e:	ca3a                	sw	a4,20(sp)
80004e90:	4798                	lw	a4,8(a5)
80004e92:	cc3a                	sw	a4,24(sp)
80004e94:	47dc                	lw	a5,12(a5)
80004e96:	ce3e                	sw	a5,28(sp)
80004e98:	0f1040ef          	jal	ra,80009788 <__trunctfdf2>
80004e9c:	c428                	sw	a0,72(s0)
80004e9e:	c46c                	sw	a1,76(s0)
80004ea0:	04c42c83          	lw	s9,76(s0)
80004ea4:	0fffb797          	auipc	a5,0xfffb
80004ea8:	33c78793          	addi	a5,a5,828 # 900001e0 <_impure_ptr+0x4>
80004eac:	04842d83          	lw	s11,72(s0)
80004eb0:	0007a803          	lw	a6,0(a5)
80004eb4:	0047a883          	lw	a7,4(a5)
80004eb8:	001c9a13          	slli	s4,s9,0x1
80004ebc:	001a5a13          	srli	s4,s4,0x1
80004ec0:	8642                	mv	a2,a6
80004ec2:	86c6                	mv	a3,a7
80004ec4:	856e                	mv	a0,s11
80004ec6:	85d2                	mv	a1,s4
80004ec8:	76a040ef          	jal	ra,80009632 <__unorddf2>
80004ecc:	e545                	bnez	a0,80004f74 <_printf_float+0x142>
80004ece:	0fffb797          	auipc	a5,0xfffb
80004ed2:	31278793          	addi	a5,a5,786 # 900001e0 <_impure_ptr+0x4>
80004ed6:	0007a803          	lw	a6,0(a5)
80004eda:	0047a883          	lw	a7,4(a5)
80004ede:	856e                	mv	a0,s11
80004ee0:	8642                	mv	a2,a6
80004ee2:	86c6                	mv	a3,a7
80004ee4:	85d2                	mv	a1,s4
80004ee6:	449030ef          	jal	ra,80008b2e <__ledf2>
80004eea:	08a05563          	blez	a0,80004f74 <_printf_float+0x142>
80004eee:	4601                	li	a2,0
80004ef0:	4681                	li	a3,0
80004ef2:	856e                	mv	a0,s11
80004ef4:	85e6                	mv	a1,s9
80004ef6:	439030ef          	jal	ra,80008b2e <__ledf2>
80004efa:	00055663          	bgez	a0,80004f06 <_printf_float+0xd4>
80004efe:	02d00793          	li	a5,45
80004f02:	04f401a3          	sb	a5,67(s0)
80004f06:	04700793          	li	a5,71
80004f0a:	00005a17          	auipc	s4,0x5
80004f0e:	35aa0a13          	addi	s4,s4,858 # 8000a264 <__clz_tab+0x100>
80004f12:	0157f663          	bgeu	a5,s5,80004f1e <_printf_float+0xec>
80004f16:	00005a17          	auipc	s4,0x5
80004f1a:	352a0a13          	addi	s4,s4,850 # 8000a268 <__clz_tab+0x104>
80004f1e:	ffbb7b13          	andi	s6,s6,-5
80004f22:	478d                	li	a5,3
80004f24:	01642023          	sw	s6,0(s0)
80004f28:	c81c                	sw	a5,16(s0)
80004f2a:	4b01                	li	s6,0
80004f2c:	874e                	mv	a4,s3
80004f2e:	86ca                	mv	a3,s2
80004f30:	1070                	addi	a2,sp,44
80004f32:	85a2                	mv	a1,s0
80004f34:	8526                	mv	a0,s1
80004f36:	26cd                	jal	80005318 <_printf_common>
80004f38:	5cfd                	li	s9,-1
80004f3a:	17951563          	bne	a0,s9,800050a4 <_printf_float+0x272>
80004f3e:	557d                	li	a0,-1
80004f40:	50b6                	lw	ra,108(sp)
80004f42:	5426                	lw	s0,104(sp)
80004f44:	5496                	lw	s1,100(sp)
80004f46:	5906                	lw	s2,96(sp)
80004f48:	49f6                	lw	s3,92(sp)
80004f4a:	4a66                	lw	s4,88(sp)
80004f4c:	4ad6                	lw	s5,84(sp)
80004f4e:	4b46                	lw	s6,80(sp)
80004f50:	4bb6                	lw	s7,76(sp)
80004f52:	4c26                	lw	s8,72(sp)
80004f54:	4c96                	lw	s9,68(sp)
80004f56:	4d06                	lw	s10,64(sp)
80004f58:	5df2                	lw	s11,60(sp)
80004f5a:	6165                	addi	sp,sp,112
80004f5c:	8082                	ret
80004f5e:	079d                	addi	a5,a5,7
80004f60:	9be1                	andi	a5,a5,-8
80004f62:	00878713          	addi	a4,a5,8
80004f66:	00ea2023          	sw	a4,0(s4)
80004f6a:	4398                	lw	a4,0(a5)
80004f6c:	43dc                	lw	a5,4(a5)
80004f6e:	c438                	sw	a4,72(s0)
80004f70:	c47c                	sw	a5,76(s0)
80004f72:	b73d                	j	80004ea0 <_printf_float+0x6e>
80004f74:	866e                	mv	a2,s11
80004f76:	86e6                	mv	a3,s9
80004f78:	856e                	mv	a0,s11
80004f7a:	85e6                	mv	a1,s9
80004f7c:	6b6040ef          	jal	ra,80009632 <__unorddf2>
80004f80:	c505                	beqz	a0,80004fa8 <_printf_float+0x176>
80004f82:	000cd663          	bgez	s9,80004f8e <_printf_float+0x15c>
80004f86:	02d00793          	li	a5,45
80004f8a:	04f401a3          	sb	a5,67(s0)
80004f8e:	04700793          	li	a5,71
80004f92:	00005a17          	auipc	s4,0x5
80004f96:	2daa0a13          	addi	s4,s4,730 # 8000a26c <__clz_tab+0x108>
80004f9a:	f957f2e3          	bgeu	a5,s5,80004f1e <_printf_float+0xec>
80004f9e:	00005a17          	auipc	s4,0x5
80004fa2:	2d2a0a13          	addi	s4,s4,722 # 8000a270 <__clz_tab+0x10c>
80004fa6:	bfa5                	j	80004f1e <_printf_float+0xec>
80004fa8:	405c                	lw	a5,4(s0)
80004faa:	577d                	li	a4,-1
80004fac:	0dfafd13          	andi	s10,s5,223
80004fb0:	08e79563          	bne	a5,a4,8000503a <_printf_float+0x208>
80004fb4:	4799                	li	a5,6
80004fb6:	c05c                	sw	a5,4(s0)
80004fb8:	4054                	lw	a3,4(s0)
80004fba:	400b6713          	ori	a4,s6,1024
80004fbe:	103c                	addi	a5,sp,40
80004fc0:	c03e                	sw	a5,0(sp)
80004fc2:	85ee                	mv	a1,s11
80004fc4:	02310793          	addi	a5,sp,35
80004fc8:	c018                	sw	a4,0(s0)
80004fca:	c202                	sw	zero,4(sp)
80004fcc:	88d6                	mv	a7,s5
80004fce:	02410813          	addi	a6,sp,36
80004fd2:	8666                	mv	a2,s9
80004fd4:	8526                	mv	a0,s1
80004fd6:	cd3ff0ef          	jal	ra,80004ca8 <__cvt>
80004fda:	04700793          	li	a5,71
80004fde:	5592                	lw	a1,36(sp)
80004fe0:	8a2a                	mv	s4,a0
80004fe2:	00fd1b63          	bne	s10,a5,80004ff8 <_printf_float+0x1c6>
80004fe6:	57f5                	li	a5,-3
80004fe8:	00f5c563          	blt	a1,a5,80004ff2 <_printf_float+0x1c0>
80004fec:	405c                	lw	a5,4(s0)
80004fee:	08b7d863          	bge	a5,a1,8000507e <_printf_float+0x24c>
80004ff2:	1af9                	addi	s5,s5,-2
80004ff4:	0ffafa93          	andi	s5,s5,255
80004ff8:	06500793          	li	a5,101
80004ffc:	0557e663          	bltu	a5,s5,80005048 <_printf_float+0x216>
80005000:	15fd                	addi	a1,a1,-1
80005002:	8656                	mv	a2,s5
80005004:	05040513          	addi	a0,s0,80
80005008:	d22e                	sw	a1,36(sp)
8000500a:	d8dff0ef          	jal	ra,80004d96 <__exponent>
8000500e:	5722                	lw	a4,40(sp)
80005010:	4685                	li	a3,1
80005012:	8b2a                	mv	s6,a0
80005014:	00a707b3          	add	a5,a4,a0
80005018:	c81c                	sw	a5,16(s0)
8000501a:	00e6c563          	blt	a3,a4,80005024 <_printf_float+0x1f2>
8000501e:	4018                	lw	a4,0(s0)
80005020:	8b05                	andi	a4,a4,1
80005022:	c319                	beqz	a4,80005028 <_printf_float+0x1f6>
80005024:	0785                	addi	a5,a5,1
80005026:	c81c                	sw	a5,16(s0)
80005028:	02314783          	lbu	a5,35(sp)
8000502c:	f00780e3          	beqz	a5,80004f2c <_printf_float+0xfa>
80005030:	02d00793          	li	a5,45
80005034:	04f401a3          	sb	a5,67(s0)
80005038:	bdd5                	j	80004f2c <_printf_float+0xfa>
8000503a:	04700713          	li	a4,71
8000503e:	f6ed1de3          	bne	s10,a4,80004fb8 <_printf_float+0x186>
80005042:	fbbd                	bnez	a5,80004fb8 <_printf_float+0x186>
80005044:	4785                	li	a5,1
80005046:	bf85                	j	80004fb6 <_printf_float+0x184>
80005048:	06600793          	li	a5,102
8000504c:	02fa9b63          	bne	s5,a5,80005082 <_printf_float+0x250>
80005050:	405c                	lw	a5,4(s0)
80005052:	00b05b63          	blez	a1,80005068 <_printf_float+0x236>
80005056:	c80c                	sw	a1,16(s0)
80005058:	e781                	bnez	a5,80005060 <_printf_float+0x22e>
8000505a:	4018                	lw	a4,0(s0)
8000505c:	8b05                	andi	a4,a4,1
8000505e:	cf09                	beqz	a4,80005078 <_printf_float+0x246>
80005060:	0785                	addi	a5,a5,1
80005062:	97ae                	add	a5,a5,a1
80005064:	c81c                	sw	a5,16(s0)
80005066:	a809                	j	80005078 <_printf_float+0x246>
80005068:	e789                	bnez	a5,80005072 <_printf_float+0x240>
8000506a:	4018                	lw	a4,0(s0)
8000506c:	4685                	li	a3,1
8000506e:	8b05                	andi	a4,a4,1
80005070:	c319                	beqz	a4,80005076 <_printf_float+0x244>
80005072:	00278693          	addi	a3,a5,2
80005076:	c814                	sw	a3,16(s0)
80005078:	cc2c                	sw	a1,88(s0)
8000507a:	4b01                	li	s6,0
8000507c:	b775                	j	80005028 <_printf_float+0x1f6>
8000507e:	06700a93          	li	s5,103
80005082:	57a2                	lw	a5,40(sp)
80005084:	00f5c963          	blt	a1,a5,80005096 <_printf_float+0x264>
80005088:	401c                	lw	a5,0(s0)
8000508a:	c80c                	sw	a1,16(s0)
8000508c:	8b85                	andi	a5,a5,1
8000508e:	d7ed                	beqz	a5,80005078 <_printf_float+0x246>
80005090:	00158793          	addi	a5,a1,1
80005094:	bfc1                	j	80005064 <_printf_float+0x232>
80005096:	4705                	li	a4,1
80005098:	00b04463          	bgtz	a1,800050a0 <_printf_float+0x26e>
8000509c:	4709                	li	a4,2
8000509e:	8f0d                	sub	a4,a4,a1
800050a0:	97ba                	add	a5,a5,a4
800050a2:	b7c9                	j	80005064 <_printf_float+0x232>
800050a4:	401c                	lw	a5,0(s0)
800050a6:	4007f713          	andi	a4,a5,1024
800050aa:	e315                	bnez	a4,800050ce <_printf_float+0x29c>
800050ac:	4814                	lw	a3,16(s0)
800050ae:	8652                	mv	a2,s4
800050b0:	85ca                	mv	a1,s2
800050b2:	8526                	mv	a0,s1
800050b4:	9982                	jalr	s3
800050b6:	e99504e3          	beq	a0,s9,80004f3e <_printf_float+0x10c>
800050ba:	401c                	lw	a5,0(s0)
800050bc:	8b89                	andi	a5,a5,2
800050be:	24079863          	bnez	a5,8000530e <_printf_float+0x4dc>
800050c2:	57b2                	lw	a5,44(sp)
800050c4:	4448                	lw	a0,12(s0)
800050c6:	e6f55de3          	bge	a0,a5,80004f40 <_printf_float+0x10e>
800050ca:	853e                	mv	a0,a5
800050cc:	bd95                	j	80004f40 <_printf_float+0x10e>
800050ce:	06500713          	li	a4,101
800050d2:	19577d63          	bgeu	a4,s5,8000526c <_printf_float+0x43a>
800050d6:	4428                	lw	a0,72(s0)
800050d8:	446c                	lw	a1,76(s0)
800050da:	4601                	li	a2,0
800050dc:	4681                	li	a3,0
800050de:	141030ef          	jal	ra,80008a1e <__eqdf2>
800050e2:	e939                	bnez	a0,80005138 <_printf_float+0x306>
800050e4:	4685                	li	a3,1
800050e6:	00005617          	auipc	a2,0x5
800050ea:	18e60613          	addi	a2,a2,398 # 8000a274 <__clz_tab+0x110>
800050ee:	85ca                	mv	a1,s2
800050f0:	8526                	mv	a0,s1
800050f2:	9982                	jalr	s3
800050f4:	e59505e3          	beq	a0,s9,80004f3e <_printf_float+0x10c>
800050f8:	5712                	lw	a4,36(sp)
800050fa:	57a2                	lw	a5,40(sp)
800050fc:	00f74563          	blt	a4,a5,80005106 <_printf_float+0x2d4>
80005100:	401c                	lw	a5,0(s0)
80005102:	8b85                	andi	a5,a5,1
80005104:	dbdd                	beqz	a5,800050ba <_printf_float+0x288>
80005106:	86de                	mv	a3,s7
80005108:	8662                	mv	a2,s8
8000510a:	85ca                	mv	a1,s2
8000510c:	8526                	mv	a0,s1
8000510e:	9982                	jalr	s3
80005110:	57fd                	li	a5,-1
80005112:	e2f506e3          	beq	a0,a5,80004f3e <_printf_float+0x10c>
80005116:	4a01                	li	s4,0
80005118:	01a40a93          	addi	s5,s0,26
8000511c:	5b7d                	li	s6,-1
8000511e:	57a2                	lw	a5,40(sp)
80005120:	17fd                	addi	a5,a5,-1
80005122:	f8fa5ce3          	bge	s4,a5,800050ba <_printf_float+0x288>
80005126:	4685                	li	a3,1
80005128:	8656                	mv	a2,s5
8000512a:	85ca                	mv	a1,s2
8000512c:	8526                	mv	a0,s1
8000512e:	9982                	jalr	s3
80005130:	e16507e3          	beq	a0,s6,80004f3e <_printf_float+0x10c>
80005134:	0a05                	addi	s4,s4,1
80005136:	b7e5                	j	8000511e <_printf_float+0x2ec>
80005138:	5792                	lw	a5,36(sp)
8000513a:	06f04663          	bgtz	a5,800051a6 <_printf_float+0x374>
8000513e:	4685                	li	a3,1
80005140:	00005617          	auipc	a2,0x5
80005144:	13460613          	addi	a2,a2,308 # 8000a274 <__clz_tab+0x110>
80005148:	85ca                	mv	a1,s2
8000514a:	8526                	mv	a0,s1
8000514c:	9982                	jalr	s3
8000514e:	df9508e3          	beq	a0,s9,80004f3e <_printf_float+0x10c>
80005152:	5792                	lw	a5,36(sp)
80005154:	5722                	lw	a4,40(sp)
80005156:	8fd9                	or	a5,a5,a4
80005158:	e781                	bnez	a5,80005160 <_printf_float+0x32e>
8000515a:	401c                	lw	a5,0(s0)
8000515c:	8b85                	andi	a5,a5,1
8000515e:	dfb1                	beqz	a5,800050ba <_printf_float+0x288>
80005160:	86de                	mv	a3,s7
80005162:	8662                	mv	a2,s8
80005164:	85ca                	mv	a1,s2
80005166:	8526                	mv	a0,s1
80005168:	9982                	jalr	s3
8000516a:	57fd                	li	a5,-1
8000516c:	dcf509e3          	beq	a0,a5,80004f3e <_printf_float+0x10c>
80005170:	4a81                	li	s5,0
80005172:	01a40b13          	addi	s6,s0,26
80005176:	5bfd                	li	s7,-1
80005178:	5792                	lw	a5,36(sp)
8000517a:	40f007b3          	neg	a5,a5
8000517e:	00facb63          	blt	s5,a5,80005194 <_printf_float+0x362>
80005182:	56a2                	lw	a3,40(sp)
80005184:	8652                	mv	a2,s4
80005186:	85ca                	mv	a1,s2
80005188:	8526                	mv	a0,s1
8000518a:	9982                	jalr	s3
8000518c:	57fd                	li	a5,-1
8000518e:	f2f516e3          	bne	a0,a5,800050ba <_printf_float+0x288>
80005192:	b375                	j	80004f3e <_printf_float+0x10c>
80005194:	4685                	li	a3,1
80005196:	865a                	mv	a2,s6
80005198:	85ca                	mv	a1,s2
8000519a:	8526                	mv	a0,s1
8000519c:	9982                	jalr	s3
8000519e:	db7500e3          	beq	a0,s7,80004f3e <_printf_float+0x10c>
800051a2:	0a85                	addi	s5,s5,1
800051a4:	bfd1                	j	80005178 <_printf_float+0x346>
800051a6:	4c3c                	lw	a5,88(s0)
800051a8:	5aa2                	lw	s5,40(sp)
800051aa:	0157d363          	bge	a5,s5,800051b0 <_printf_float+0x37e>
800051ae:	8abe                	mv	s5,a5
800051b0:	07504963          	bgtz	s5,80005222 <_printf_float+0x3f0>
800051b4:	4b01                	li	s6,0
800051b6:	01a40d13          	addi	s10,s0,26
800051ba:	5dfd                	li	s11,-1
800051bc:	05842c83          	lw	s9,88(s0)
800051c0:	87d6                	mv	a5,s5
800051c2:	000ad363          	bgez	s5,800051c8 <_printf_float+0x396>
800051c6:	4781                	li	a5,0
800051c8:	40fc87b3          	sub	a5,s9,a5
800051cc:	06fb4463          	blt	s6,a5,80005234 <_printf_float+0x402>
800051d0:	5712                	lw	a4,36(sp)
800051d2:	57a2                	lw	a5,40(sp)
800051d4:	06f74963          	blt	a4,a5,80005246 <_printf_float+0x414>
800051d8:	401c                	lw	a5,0(s0)
800051da:	8b85                	andi	a5,a5,1
800051dc:	e7ad                	bnez	a5,80005246 <_printf_float+0x414>
800051de:	5aa2                	lw	s5,40(sp)
800051e0:	5712                	lw	a4,36(sp)
800051e2:	419a87b3          	sub	a5,s5,s9
800051e6:	40ea8ab3          	sub	s5,s5,a4
800051ea:	0157d363          	bge	a5,s5,800051f0 <_printf_float+0x3be>
800051ee:	8abe                	mv	s5,a5
800051f0:	07504463          	bgtz	s5,80005258 <_printf_float+0x426>
800051f4:	4a01                	li	s4,0
800051f6:	01a40b13          	addi	s6,s0,26
800051fa:	5bfd                	li	s7,-1
800051fc:	5712                	lw	a4,36(sp)
800051fe:	57a2                	lw	a5,40(sp)
80005200:	8f99                	sub	a5,a5,a4
80005202:	8756                	mv	a4,s5
80005204:	000ad363          	bgez	s5,8000520a <_printf_float+0x3d8>
80005208:	4701                	li	a4,0
8000520a:	8f99                	sub	a5,a5,a4
8000520c:	eafa57e3          	bge	s4,a5,800050ba <_printf_float+0x288>
80005210:	4685                	li	a3,1
80005212:	865a                	mv	a2,s6
80005214:	85ca                	mv	a1,s2
80005216:	8526                	mv	a0,s1
80005218:	9982                	jalr	s3
8000521a:	d37502e3          	beq	a0,s7,80004f3e <_printf_float+0x10c>
8000521e:	0a05                	addi	s4,s4,1
80005220:	bff1                	j	800051fc <_printf_float+0x3ca>
80005222:	86d6                	mv	a3,s5
80005224:	8652                	mv	a2,s4
80005226:	85ca                	mv	a1,s2
80005228:	8526                	mv	a0,s1
8000522a:	9982                	jalr	s3
8000522c:	57fd                	li	a5,-1
8000522e:	f8f513e3          	bne	a0,a5,800051b4 <_printf_float+0x382>
80005232:	b331                	j	80004f3e <_printf_float+0x10c>
80005234:	4685                	li	a3,1
80005236:	866a                	mv	a2,s10
80005238:	85ca                	mv	a1,s2
8000523a:	8526                	mv	a0,s1
8000523c:	9982                	jalr	s3
8000523e:	d1b500e3          	beq	a0,s11,80004f3e <_printf_float+0x10c>
80005242:	0b05                	addi	s6,s6,1
80005244:	bfa5                	j	800051bc <_printf_float+0x38a>
80005246:	86de                	mv	a3,s7
80005248:	8662                	mv	a2,s8
8000524a:	85ca                	mv	a1,s2
8000524c:	8526                	mv	a0,s1
8000524e:	9982                	jalr	s3
80005250:	57fd                	li	a5,-1
80005252:	f8f516e3          	bne	a0,a5,800051de <_printf_float+0x3ac>
80005256:	b1e5                	j	80004f3e <_printf_float+0x10c>
80005258:	86d6                	mv	a3,s5
8000525a:	019a0633          	add	a2,s4,s9
8000525e:	85ca                	mv	a1,s2
80005260:	8526                	mv	a0,s1
80005262:	9982                	jalr	s3
80005264:	57fd                	li	a5,-1
80005266:	f8f517e3          	bne	a0,a5,800051f4 <_printf_float+0x3c2>
8000526a:	b9d1                	j	80004f3e <_printf_float+0x10c>
8000526c:	56a2                	lw	a3,40(sp)
8000526e:	4705                	li	a4,1
80005270:	00d74463          	blt	a4,a3,80005278 <_printf_float+0x446>
80005274:	8b85                	andi	a5,a5,1
80005276:	c7b5                	beqz	a5,800052e2 <_printf_float+0x4b0>
80005278:	4685                	li	a3,1
8000527a:	8652                	mv	a2,s4
8000527c:	85ca                	mv	a1,s2
8000527e:	8526                	mv	a0,s1
80005280:	9982                	jalr	s3
80005282:	5afd                	li	s5,-1
80005284:	cb550de3          	beq	a0,s5,80004f3e <_printf_float+0x10c>
80005288:	86de                	mv	a3,s7
8000528a:	8662                	mv	a2,s8
8000528c:	85ca                	mv	a1,s2
8000528e:	8526                	mv	a0,s1
80005290:	9982                	jalr	s3
80005292:	cb5506e3          	beq	a0,s5,80004f3e <_printf_float+0x10c>
80005296:	4428                	lw	a0,72(s0)
80005298:	446c                	lw	a1,76(s0)
8000529a:	4601                	li	a2,0
8000529c:	4681                	li	a3,0
8000529e:	780030ef          	jal	ra,80008a1e <__eqdf2>
800052a2:	c91d                	beqz	a0,800052d8 <_printf_float+0x4a6>
800052a4:	56a2                	lw	a3,40(sp)
800052a6:	001a0613          	addi	a2,s4,1
800052aa:	85ca                	mv	a1,s2
800052ac:	16fd                	addi	a3,a3,-1
800052ae:	8526                	mv	a0,s1
800052b0:	9982                	jalr	s3
800052b2:	c95506e3          	beq	a0,s5,80004f3e <_printf_float+0x10c>
800052b6:	86da                	mv	a3,s6
800052b8:	05040613          	addi	a2,s0,80
800052bc:	b5e9                	j	80005186 <_printf_float+0x354>
800052be:	4685                	li	a3,1
800052c0:	8656                	mv	a2,s5
800052c2:	85ca                	mv	a1,s2
800052c4:	8526                	mv	a0,s1
800052c6:	9982                	jalr	s3
800052c8:	c7750be3          	beq	a0,s7,80004f3e <_printf_float+0x10c>
800052cc:	0a05                	addi	s4,s4,1
800052ce:	57a2                	lw	a5,40(sp)
800052d0:	17fd                	addi	a5,a5,-1
800052d2:	fefa46e3          	blt	s4,a5,800052be <_printf_float+0x48c>
800052d6:	b7c5                	j	800052b6 <_printf_float+0x484>
800052d8:	4a01                	li	s4,0
800052da:	01a40a93          	addi	s5,s0,26
800052de:	5bfd                	li	s7,-1
800052e0:	b7fd                	j	800052ce <_printf_float+0x49c>
800052e2:	4685                	li	a3,1
800052e4:	8652                	mv	a2,s4
800052e6:	85ca                	mv	a1,s2
800052e8:	8526                	mv	a0,s1
800052ea:	9982                	jalr	s3
800052ec:	fd9515e3          	bne	a0,s9,800052b6 <_printf_float+0x484>
800052f0:	b1b9                	j	80004f3e <_printf_float+0x10c>
800052f2:	4685                	li	a3,1
800052f4:	8656                	mv	a2,s5
800052f6:	85ca                	mv	a1,s2
800052f8:	8526                	mv	a0,s1
800052fa:	9982                	jalr	s3
800052fc:	c56501e3          	beq	a0,s6,80004f3e <_printf_float+0x10c>
80005300:	0a05                	addi	s4,s4,1
80005302:	445c                	lw	a5,12(s0)
80005304:	5732                	lw	a4,44(sp)
80005306:	8f99                	sub	a5,a5,a4
80005308:	fefa45e3          	blt	s4,a5,800052f2 <_printf_float+0x4c0>
8000530c:	bb5d                	j	800050c2 <_printf_float+0x290>
8000530e:	4a01                	li	s4,0
80005310:	01940a93          	addi	s5,s0,25
80005314:	5b7d                	li	s6,-1
80005316:	b7f5                	j	80005302 <_printf_float+0x4d0>

80005318 <_printf_common>:
_printf_common():
80005318:	7179                	addi	sp,sp,-48
8000531a:	cc52                	sw	s4,24(sp)
8000531c:	499c                	lw	a5,16(a1)
8000531e:	8a3a                	mv	s4,a4
80005320:	4598                	lw	a4,8(a1)
80005322:	d422                	sw	s0,40(sp)
80005324:	d226                	sw	s1,36(sp)
80005326:	ce4e                	sw	s3,28(sp)
80005328:	ca56                	sw	s5,20(sp)
8000532a:	d606                	sw	ra,44(sp)
8000532c:	d04a                	sw	s2,32(sp)
8000532e:	c85a                	sw	s6,16(sp)
80005330:	c65e                	sw	s7,12(sp)
80005332:	89aa                	mv	s3,a0
80005334:	842e                	mv	s0,a1
80005336:	84b2                	mv	s1,a2
80005338:	8ab6                	mv	s5,a3
8000533a:	00e7d363          	bge	a5,a4,80005340 <_printf_common+0x28>
8000533e:	87ba                	mv	a5,a4
80005340:	c09c                	sw	a5,0(s1)
80005342:	04344703          	lbu	a4,67(s0)
80005346:	c319                	beqz	a4,8000534c <_printf_common+0x34>
80005348:	0785                	addi	a5,a5,1
8000534a:	c09c                	sw	a5,0(s1)
8000534c:	401c                	lw	a5,0(s0)
8000534e:	0207f793          	andi	a5,a5,32
80005352:	c781                	beqz	a5,8000535a <_printf_common+0x42>
80005354:	409c                	lw	a5,0(s1)
80005356:	0789                	addi	a5,a5,2
80005358:	c09c                	sw	a5,0(s1)
8000535a:	00042903          	lw	s2,0(s0)
8000535e:	00697913          	andi	s2,s2,6
80005362:	00091a63          	bnez	s2,80005376 <_printf_common+0x5e>
80005366:	01940b13          	addi	s6,s0,25
8000536a:	5bfd                	li	s7,-1
8000536c:	445c                	lw	a5,12(s0)
8000536e:	4098                	lw	a4,0(s1)
80005370:	8f99                	sub	a5,a5,a4
80005372:	04f94c63          	blt	s2,a5,800053ca <_printf_common+0xb2>
80005376:	04344783          	lbu	a5,67(s0)
8000537a:	00f036b3          	snez	a3,a5
8000537e:	401c                	lw	a5,0(s0)
80005380:	0207f793          	andi	a5,a5,32
80005384:	eba5                	bnez	a5,800053f4 <_printf_common+0xdc>
80005386:	04340613          	addi	a2,s0,67
8000538a:	85d6                	mv	a1,s5
8000538c:	854e                	mv	a0,s3
8000538e:	9a02                	jalr	s4
80005390:	57fd                	li	a5,-1
80005392:	04f50363          	beq	a0,a5,800053d8 <_printf_common+0xc0>
80005396:	401c                	lw	a5,0(s0)
80005398:	4611                	li	a2,4
8000539a:	4098                	lw	a4,0(s1)
8000539c:	8b99                	andi	a5,a5,6
8000539e:	4454                	lw	a3,12(s0)
800053a0:	4481                	li	s1,0
800053a2:	00c79763          	bne	a5,a2,800053b0 <_printf_common+0x98>
800053a6:	40e684b3          	sub	s1,a3,a4
800053aa:	0004d363          	bgez	s1,800053b0 <_printf_common+0x98>
800053ae:	4481                	li	s1,0
800053b0:	441c                	lw	a5,8(s0)
800053b2:	4818                	lw	a4,16(s0)
800053b4:	00f75463          	bge	a4,a5,800053bc <_printf_common+0xa4>
800053b8:	8f99                	sub	a5,a5,a4
800053ba:	94be                	add	s1,s1,a5
800053bc:	4901                	li	s2,0
800053be:	0469                	addi	s0,s0,26
800053c0:	5b7d                	li	s6,-1
800053c2:	05249863          	bne	s1,s2,80005412 <_printf_common+0xfa>
800053c6:	4501                	li	a0,0
800053c8:	a809                	j	800053da <_printf_common+0xc2>
800053ca:	4685                	li	a3,1
800053cc:	865a                	mv	a2,s6
800053ce:	85d6                	mv	a1,s5
800053d0:	854e                	mv	a0,s3
800053d2:	9a02                	jalr	s4
800053d4:	01751e63          	bne	a0,s7,800053f0 <_printf_common+0xd8>
800053d8:	557d                	li	a0,-1
800053da:	50b2                	lw	ra,44(sp)
800053dc:	5422                	lw	s0,40(sp)
800053de:	5492                	lw	s1,36(sp)
800053e0:	5902                	lw	s2,32(sp)
800053e2:	49f2                	lw	s3,28(sp)
800053e4:	4a62                	lw	s4,24(sp)
800053e6:	4ad2                	lw	s5,20(sp)
800053e8:	4b42                	lw	s6,16(sp)
800053ea:	4bb2                	lw	s7,12(sp)
800053ec:	6145                	addi	sp,sp,48
800053ee:	8082                	ret
800053f0:	0905                	addi	s2,s2,1
800053f2:	bfad                	j	8000536c <_printf_common+0x54>
800053f4:	00d40733          	add	a4,s0,a3
800053f8:	03000613          	li	a2,48
800053fc:	04c701a3          	sb	a2,67(a4)
80005400:	04544703          	lbu	a4,69(s0)
80005404:	00168793          	addi	a5,a3,1
80005408:	97a2                	add	a5,a5,s0
8000540a:	0689                	addi	a3,a3,2
8000540c:	04e781a3          	sb	a4,67(a5)
80005410:	bf9d                	j	80005386 <_printf_common+0x6e>
80005412:	4685                	li	a3,1
80005414:	8622                	mv	a2,s0
80005416:	85d6                	mv	a1,s5
80005418:	854e                	mv	a0,s3
8000541a:	9a02                	jalr	s4
8000541c:	fb650ee3          	beq	a0,s6,800053d8 <_printf_common+0xc0>
80005420:	0905                	addi	s2,s2,1
80005422:	b745                	j	800053c2 <_printf_common+0xaa>

80005424 <_printf_i>:
_printf_i():
80005424:	7179                	addi	sp,sp,-48
80005426:	d422                	sw	s0,40(sp)
80005428:	d226                	sw	s1,36(sp)
8000542a:	d04a                	sw	s2,32(sp)
8000542c:	ce4e                	sw	s3,28(sp)
8000542e:	d606                	sw	ra,44(sp)
80005430:	cc52                	sw	s4,24(sp)
80005432:	ca56                	sw	s5,20(sp)
80005434:	c85a                	sw	s6,16(sp)
80005436:	0185c803          	lbu	a6,24(a1)
8000543a:	07800793          	li	a5,120
8000543e:	84aa                	mv	s1,a0
80005440:	842e                	mv	s0,a1
80005442:	8932                	mv	s2,a2
80005444:	89b6                	mv	s3,a3
80005446:	0107ee63          	bltu	a5,a6,80005462 <_printf_i+0x3e>
8000544a:	06200793          	li	a5,98
8000544e:	04358693          	addi	a3,a1,67
80005452:	0107ed63          	bltu	a5,a6,8000546c <_printf_i+0x48>
80005456:	1c080663          	beqz	a6,80005622 <_printf_i+0x1fe>
8000545a:	05800793          	li	a5,88
8000545e:	12f80b63          	beq	a6,a5,80005594 <_printf_i+0x170>
80005462:	04240a93          	addi	s5,s0,66
80005466:	05040123          	sb	a6,66(s0)
8000546a:	a815                	j	8000549e <_printf_i+0x7a>
8000546c:	f9d80793          	addi	a5,a6,-99
80005470:	0ff7f793          	andi	a5,a5,255
80005474:	4655                	li	a2,21
80005476:	fef666e3          	bltu	a2,a5,80005462 <_printf_i+0x3e>
8000547a:	00005617          	auipc	a2,0x5
8000547e:	e2660613          	addi	a2,a2,-474 # 8000a2a0 <__clz_tab+0x13c>
80005482:	078a                	slli	a5,a5,0x2
80005484:	97b2                	add	a5,a5,a2
80005486:	439c                	lw	a5,0(a5)
80005488:	97b2                	add	a5,a5,a2
8000548a:	8782                	jr	a5
8000548c:	431c                	lw	a5,0(a4)
8000548e:	04258a93          	addi	s5,a1,66
80005492:	00478693          	addi	a3,a5,4
80005496:	439c                	lw	a5,0(a5)
80005498:	c314                	sw	a3,0(a4)
8000549a:	04f58123          	sb	a5,66(a1)
8000549e:	4785                	li	a5,1
800054a0:	a26d                	j	8000564a <_printf_i+0x226>
800054a2:	419c                	lw	a5,0(a1)
800054a4:	4308                	lw	a0,0(a4)
800054a6:	0807f613          	andi	a2,a5,128
800054aa:	00450593          	addi	a1,a0,4
800054ae:	c20d                	beqz	a2,800054d0 <_printf_i+0xac>
800054b0:	411c                	lw	a5,0(a0)
800054b2:	c30c                	sw	a1,0(a4)
800054b4:	0007d863          	bgez	a5,800054c4 <_printf_i+0xa0>
800054b8:	02d00713          	li	a4,45
800054bc:	40f007b3          	neg	a5,a5
800054c0:	04e401a3          	sb	a4,67(s0)
800054c4:	00005617          	auipc	a2,0x5
800054c8:	db460613          	addi	a2,a2,-588 # 8000a278 <__clz_tab+0x114>
800054cc:	4829                	li	a6,10
800054ce:	a0a1                	j	80005516 <_printf_i+0xf2>
800054d0:	0407f613          	andi	a2,a5,64
800054d4:	411c                	lw	a5,0(a0)
800054d6:	c30c                	sw	a1,0(a4)
800054d8:	de71                	beqz	a2,800054b4 <_printf_i+0x90>
800054da:	07c2                	slli	a5,a5,0x10
800054dc:	87c1                	srai	a5,a5,0x10
800054de:	bfd9                	j	800054b4 <_printf_i+0x90>
800054e0:	4190                	lw	a2,0(a1)
800054e2:	431c                	lw	a5,0(a4)
800054e4:	08067513          	andi	a0,a2,128
800054e8:	00478593          	addi	a1,a5,4
800054ec:	c501                	beqz	a0,800054f4 <_printf_i+0xd0>
800054ee:	c30c                	sw	a1,0(a4)
800054f0:	439c                	lw	a5,0(a5)
800054f2:	a039                	j	80005500 <_printf_i+0xdc>
800054f4:	04067613          	andi	a2,a2,64
800054f8:	c30c                	sw	a1,0(a4)
800054fa:	da7d                	beqz	a2,800054f0 <_printf_i+0xcc>
800054fc:	0007d783          	lhu	a5,0(a5)
80005500:	06f00713          	li	a4,111
80005504:	00005617          	auipc	a2,0x5
80005508:	d7460613          	addi	a2,a2,-652 # 8000a278 <__clz_tab+0x114>
8000550c:	0ee80563          	beq	a6,a4,800055f6 <_printf_i+0x1d2>
80005510:	4829                	li	a6,10
80005512:	040401a3          	sb	zero,67(s0)
80005516:	4058                	lw	a4,4(s0)
80005518:	c418                	sw	a4,8(s0)
8000551a:	00074563          	bltz	a4,80005524 <_printf_i+0x100>
8000551e:	400c                	lw	a1,0(s0)
80005520:	99ed                	andi	a1,a1,-5
80005522:	c00c                	sw	a1,0(s0)
80005524:	e399                	bnez	a5,8000552a <_printf_i+0x106>
80005526:	8ab6                	mv	s5,a3
80005528:	cf19                	beqz	a4,80005546 <_printf_i+0x122>
8000552a:	8ab6                	mv	s5,a3
8000552c:	0307f733          	remu	a4,a5,a6
80005530:	1afd                	addi	s5,s5,-1
80005532:	9732                	add	a4,a4,a2
80005534:	00074703          	lbu	a4,0(a4)
80005538:	00ea8023          	sb	a4,0(s5)
8000553c:	873e                	mv	a4,a5
8000553e:	0307d7b3          	divu	a5,a5,a6
80005542:	ff0775e3          	bgeu	a4,a6,8000552c <_printf_i+0x108>
80005546:	47a1                	li	a5,8
80005548:	00f81e63          	bne	a6,a5,80005564 <_printf_i+0x140>
8000554c:	401c                	lw	a5,0(s0)
8000554e:	8b85                	andi	a5,a5,1
80005550:	cb91                	beqz	a5,80005564 <_printf_i+0x140>
80005552:	4058                	lw	a4,4(s0)
80005554:	481c                	lw	a5,16(s0)
80005556:	00e7c763          	blt	a5,a4,80005564 <_printf_i+0x140>
8000555a:	03000793          	li	a5,48
8000555e:	fefa8fa3          	sb	a5,-1(s5)
80005562:	1afd                	addi	s5,s5,-1
80005564:	415686b3          	sub	a3,a3,s5
80005568:	c814                	sw	a3,16(s0)
8000556a:	874e                	mv	a4,s3
8000556c:	86ca                	mv	a3,s2
8000556e:	0070                	addi	a2,sp,12
80005570:	85a2                	mv	a1,s0
80005572:	8526                	mv	a0,s1
80005574:	da5ff0ef          	jal	ra,80005318 <_printf_common>
80005578:	5a7d                	li	s4,-1
8000557a:	0d451c63          	bne	a0,s4,80005652 <_printf_i+0x22e>
8000557e:	557d                	li	a0,-1
80005580:	50b2                	lw	ra,44(sp)
80005582:	5422                	lw	s0,40(sp)
80005584:	5492                	lw	s1,36(sp)
80005586:	5902                	lw	s2,32(sp)
80005588:	49f2                	lw	s3,28(sp)
8000558a:	4a62                	lw	s4,24(sp)
8000558c:	4ad2                	lw	s5,20(sp)
8000558e:	4b42                	lw	s6,16(sp)
80005590:	6145                	addi	sp,sp,48
80005592:	8082                	ret
80005594:	050582a3          	sb	a6,69(a1)
80005598:	00005617          	auipc	a2,0x5
8000559c:	ce060613          	addi	a2,a2,-800 # 8000a278 <__clz_tab+0x114>
800055a0:	400c                	lw	a1,0(s0)
800055a2:	4308                	lw	a0,0(a4)
800055a4:	0805f813          	andi	a6,a1,128
800055a8:	411c                	lw	a5,0(a0)
800055aa:	0511                	addi	a0,a0,4
800055ac:	02080d63          	beqz	a6,800055e6 <_printf_i+0x1c2>
800055b0:	c308                	sw	a0,0(a4)
800055b2:	0015f713          	andi	a4,a1,1
800055b6:	c701                	beqz	a4,800055be <_printf_i+0x19a>
800055b8:	0205e593          	ori	a1,a1,32
800055bc:	c00c                	sw	a1,0(s0)
800055be:	4841                	li	a6,16
800055c0:	fba9                	bnez	a5,80005512 <_printf_i+0xee>
800055c2:	4018                	lw	a4,0(s0)
800055c4:	fdf77713          	andi	a4,a4,-33
800055c8:	c018                	sw	a4,0(s0)
800055ca:	b7a1                	j	80005512 <_printf_i+0xee>
800055cc:	419c                	lw	a5,0(a1)
800055ce:	0207e793          	ori	a5,a5,32
800055d2:	c19c                	sw	a5,0(a1)
800055d4:	07800793          	li	a5,120
800055d8:	04f402a3          	sb	a5,69(s0)
800055dc:	00005617          	auipc	a2,0x5
800055e0:	cb060613          	addi	a2,a2,-848 # 8000a28c <__clz_tab+0x128>
800055e4:	bf75                	j	800055a0 <_printf_i+0x17c>
800055e6:	0405f813          	andi	a6,a1,64
800055ea:	c308                	sw	a0,0(a4)
800055ec:	fc0803e3          	beqz	a6,800055b2 <_printf_i+0x18e>
800055f0:	07c2                	slli	a5,a5,0x10
800055f2:	83c1                	srli	a5,a5,0x10
800055f4:	bf7d                	j	800055b2 <_printf_i+0x18e>
800055f6:	4821                	li	a6,8
800055f8:	bf29                	j	80005512 <_printf_i+0xee>
800055fa:	4190                	lw	a2,0(a1)
800055fc:	431c                	lw	a5,0(a4)
800055fe:	49cc                	lw	a1,20(a1)
80005600:	08067813          	andi	a6,a2,128
80005604:	00478513          	addi	a0,a5,4
80005608:	00080663          	beqz	a6,80005614 <_printf_i+0x1f0>
8000560c:	c308                	sw	a0,0(a4)
8000560e:	439c                	lw	a5,0(a5)
80005610:	c38c                	sw	a1,0(a5)
80005612:	a801                	j	80005622 <_printf_i+0x1fe>
80005614:	c308                	sw	a0,0(a4)
80005616:	04067613          	andi	a2,a2,64
8000561a:	439c                	lw	a5,0(a5)
8000561c:	da75                	beqz	a2,80005610 <_printf_i+0x1ec>
8000561e:	00b79023          	sh	a1,0(a5)
80005622:	00042823          	sw	zero,16(s0)
80005626:	8ab6                	mv	s5,a3
80005628:	b789                	j	8000556a <_printf_i+0x146>
8000562a:	431c                	lw	a5,0(a4)
8000562c:	41d0                	lw	a2,4(a1)
8000562e:	4581                	li	a1,0
80005630:	00478693          	addi	a3,a5,4
80005634:	c314                	sw	a3,0(a4)
80005636:	0007aa83          	lw	s5,0(a5)
8000563a:	8556                	mv	a0,s5
8000563c:	714010ef          	jal	ra,80006d50 <memchr>
80005640:	c501                	beqz	a0,80005648 <_printf_i+0x224>
80005642:	41550533          	sub	a0,a0,s5
80005646:	c048                	sw	a0,4(s0)
80005648:	405c                	lw	a5,4(s0)
8000564a:	c81c                	sw	a5,16(s0)
8000564c:	040401a3          	sb	zero,67(s0)
80005650:	bf29                	j	8000556a <_printf_i+0x146>
80005652:	4814                	lw	a3,16(s0)
80005654:	8656                	mv	a2,s5
80005656:	85ca                	mv	a1,s2
80005658:	8526                	mv	a0,s1
8000565a:	9982                	jalr	s3
8000565c:	f34501e3          	beq	a0,s4,8000557e <_printf_i+0x15a>
80005660:	401c                	lw	a5,0(s0)
80005662:	8b89                	andi	a5,a5,2
80005664:	e78d                	bnez	a5,8000568e <_printf_i+0x26a>
80005666:	47b2                	lw	a5,12(sp)
80005668:	4448                	lw	a0,12(s0)
8000566a:	f0f55be3          	bge	a0,a5,80005580 <_printf_i+0x15c>
8000566e:	853e                	mv	a0,a5
80005670:	bf01                	j	80005580 <_printf_i+0x15c>
80005672:	4685                	li	a3,1
80005674:	8656                	mv	a2,s5
80005676:	85ca                	mv	a1,s2
80005678:	8526                	mv	a0,s1
8000567a:	9982                	jalr	s3
8000567c:	f16501e3          	beq	a0,s6,8000557e <_printf_i+0x15a>
80005680:	0a05                	addi	s4,s4,1
80005682:	445c                	lw	a5,12(s0)
80005684:	4732                	lw	a4,12(sp)
80005686:	8f99                	sub	a5,a5,a4
80005688:	fefa45e3          	blt	s4,a5,80005672 <_printf_i+0x24e>
8000568c:	bfe9                	j	80005666 <_printf_i+0x242>
8000568e:	4a01                	li	s4,0
80005690:	01940a93          	addi	s5,s0,25
80005694:	5b7d                	li	s6,-1
80005696:	b7f5                	j	80005682 <_printf_i+0x25e>

80005698 <iprintf>:
printf():
80005698:	715d                	addi	sp,sp,-80
8000569a:	d422                	sw	s0,40(sp)
8000569c:	d606                	sw	ra,44(sp)
8000569e:	842a                	mv	s0,a0
800056a0:	da2e                	sw	a1,52(sp)
800056a2:	dc32                	sw	a2,56(sp)
800056a4:	de36                	sw	a3,60(sp)
800056a6:	c0ba                	sw	a4,64(sp)
800056a8:	c2be                	sw	a5,68(sp)
800056aa:	c4c2                	sw	a6,72(sp)
800056ac:	c6c6                	sw	a7,76(sp)
800056ae:	80c1a503          	lw	a0,-2036(gp) # 900001dc <_impure_ptr>
800056b2:	c519                	beqz	a0,800056c0 <iprintf+0x28>
800056b4:	4d1c                	lw	a5,24(a0)
800056b6:	e789                	bnez	a5,800056c0 <iprintf+0x28>
800056b8:	c62a                	sw	a0,12(sp)
800056ba:	3d8010ef          	jal	ra,80006a92 <__sinit>
800056be:	4532                	lw	a0,12(sp)
800056c0:	450c                	lw	a1,8(a0)
800056c2:	1854                	addi	a3,sp,52
800056c4:	8622                	mv	a2,s0
800056c6:	ce36                	sw	a3,28(sp)
800056c8:	264020ef          	jal	ra,8000792c <_vfiprintf_r>
800056cc:	50b2                	lw	ra,44(sp)
800056ce:	5422                	lw	s0,40(sp)
800056d0:	6161                	addi	sp,sp,80
800056d2:	8082                	ret

800056d4 <putchar>:
putchar():
800056d4:	85aa                	mv	a1,a0
800056d6:	80c1a503          	lw	a0,-2036(gp) # 900001dc <_impure_ptr>
800056da:	cd19                	beqz	a0,800056f8 <putchar+0x24>
800056dc:	4d1c                	lw	a5,24(a0)
800056de:	ef89                	bnez	a5,800056f8 <putchar+0x24>
800056e0:	1101                	addi	sp,sp,-32
800056e2:	ce06                	sw	ra,28(sp)
800056e4:	c62e                	sw	a1,12(sp)
800056e6:	c42a                	sw	a0,8(sp)
800056e8:	3aa010ef          	jal	ra,80006a92 <__sinit>
800056ec:	4522                	lw	a0,8(sp)
800056ee:	45b2                	lw	a1,12(sp)
800056f0:	40f2                	lw	ra,28(sp)
800056f2:	4510                	lw	a2,8(a0)
800056f4:	6105                	addi	sp,sp,32
800056f6:	a019                	j	800056fc <_putc_r>
800056f8:	4510                	lw	a2,8(a0)
800056fa:	bff5                	j	800056f6 <putchar+0x22>

800056fc <_putc_r>:
_putc_r():
800056fc:	1101                	addi	sp,sp,-32
800056fe:	cc22                	sw	s0,24(sp)
80005700:	ce06                	sw	ra,28(sp)
80005702:	842a                	mv	s0,a0
80005704:	c909                	beqz	a0,80005716 <_putc_r+0x1a>
80005706:	4d1c                	lw	a5,24(a0)
80005708:	e799                	bnez	a5,80005716 <_putc_r+0x1a>
8000570a:	c632                	sw	a2,12(sp)
8000570c:	c42e                	sw	a1,8(sp)
8000570e:	384010ef          	jal	ra,80006a92 <__sinit>
80005712:	4632                	lw	a2,12(sp)
80005714:	45a2                	lw	a1,8(sp)
80005716:	00005797          	auipc	a5,0x5
8000571a:	c8278793          	addi	a5,a5,-894 # 8000a398 <__sf_fake_stdin>
8000571e:	02f61563          	bne	a2,a5,80005748 <_putc_r+0x4c>
80005722:	4050                	lw	a2,4(s0)
80005724:	461c                	lw	a5,8(a2)
80005726:	17fd                	addi	a5,a5,-1
80005728:	c61c                	sw	a5,8(a2)
8000572a:	0207df63          	bgez	a5,80005768 <_putc_r+0x6c>
8000572e:	4e18                	lw	a4,24(a2)
80005730:	00e7c763          	blt	a5,a4,8000573e <_putc_r+0x42>
80005734:	0ff5f793          	andi	a5,a1,255
80005738:	4729                	li	a4,10
8000573a:	02e79763          	bne	a5,a4,80005768 <_putc_r+0x6c>
8000573e:	8522                	mv	a0,s0
80005740:	4462                	lw	s0,24(sp)
80005742:	40f2                	lw	ra,28(sp)
80005744:	6105                	addi	sp,sp,32
80005746:	aa25                	j	8000587e <__swbuf_r>
80005748:	00005797          	auipc	a5,0x5
8000574c:	c7078793          	addi	a5,a5,-912 # 8000a3b8 <__sf_fake_stdout>
80005750:	00f61463          	bne	a2,a5,80005758 <_putc_r+0x5c>
80005754:	4410                	lw	a2,8(s0)
80005756:	b7f9                	j	80005724 <_putc_r+0x28>
80005758:	00005797          	auipc	a5,0x5
8000575c:	c2078793          	addi	a5,a5,-992 # 8000a378 <__sf_fake_stderr>
80005760:	fcf612e3          	bne	a2,a5,80005724 <_putc_r+0x28>
80005764:	4450                	lw	a2,12(s0)
80005766:	bf7d                	j	80005724 <_putc_r+0x28>
80005768:	421c                	lw	a5,0(a2)
8000576a:	0ff5f513          	andi	a0,a1,255
8000576e:	00178713          	addi	a4,a5,1
80005772:	c218                	sw	a4,0(a2)
80005774:	00b78023          	sb	a1,0(a5)
80005778:	40f2                	lw	ra,28(sp)
8000577a:	4462                	lw	s0,24(sp)
8000577c:	6105                	addi	sp,sp,32
8000577e:	8082                	ret

80005780 <_puts_r>:
_puts_r():
80005780:	1101                	addi	sp,sp,-32
80005782:	ca26                	sw	s1,20(sp)
80005784:	c84a                	sw	s2,16(sp)
80005786:	ce06                	sw	ra,28(sp)
80005788:	cc22                	sw	s0,24(sp)
8000578a:	c64e                	sw	s3,12(sp)
8000578c:	c452                	sw	s4,8(sp)
8000578e:	84aa                	mv	s1,a0
80005790:	892e                	mv	s2,a1
80005792:	c509                	beqz	a0,8000579c <_puts_r+0x1c>
80005794:	4d1c                	lw	a5,24(a0)
80005796:	e399                	bnez	a5,8000579c <_puts_r+0x1c>
80005798:	2fa010ef          	jal	ra,80006a92 <__sinit>
8000579c:	4c9c                	lw	a5,24(s1)
8000579e:	4480                	lw	s0,8(s1)
800057a0:	e781                	bnez	a5,800057a8 <_puts_r+0x28>
800057a2:	8526                	mv	a0,s1
800057a4:	2ee010ef          	jal	ra,80006a92 <__sinit>
800057a8:	00005797          	auipc	a5,0x5
800057ac:	bf078793          	addi	a5,a5,-1040 # 8000a398 <__sf_fake_stdin>
800057b0:	02f41c63          	bne	s0,a5,800057e8 <_puts_r+0x68>
800057b4:	40c0                	lw	s0,4(s1)
800057b6:	00c45783          	lhu	a5,12(s0)
800057ba:	8ba1                	andi	a5,a5,8
800057bc:	c7b1                	beqz	a5,80005808 <_puts_r+0x88>
800057be:	481c                	lw	a5,16(s0)
800057c0:	c7a1                	beqz	a5,80005808 <_puts_r+0x88>
800057c2:	59fd                	li	s3,-1
800057c4:	4a29                	li	s4,10
800057c6:	441c                	lw	a5,8(s0)
800057c8:	00094583          	lbu	a1,0(s2) # 4000000 <__stack_size+0x3fff800>
800057cc:	17fd                	addi	a5,a5,-1
800057ce:	e9b1                	bnez	a1,80005822 <_puts_r+0xa2>
800057d0:	c41c                	sw	a5,8(s0)
800057d2:	0607de63          	bgez	a5,8000584e <_puts_r+0xce>
800057d6:	8622                	mv	a2,s0
800057d8:	45a9                	li	a1,10
800057da:	8526                	mv	a0,s1
800057dc:	204d                	jal	8000587e <__swbuf_r>
800057de:	57fd                	li	a5,-1
800057e0:	02f50863          	beq	a0,a5,80005810 <_puts_r+0x90>
800057e4:	4529                	li	a0,10
800057e6:	a035                	j	80005812 <_puts_r+0x92>
800057e8:	00005797          	auipc	a5,0x5
800057ec:	bd078793          	addi	a5,a5,-1072 # 8000a3b8 <__sf_fake_stdout>
800057f0:	00f41463          	bne	s0,a5,800057f8 <_puts_r+0x78>
800057f4:	4480                	lw	s0,8(s1)
800057f6:	b7c1                	j	800057b6 <_puts_r+0x36>
800057f8:	00005797          	auipc	a5,0x5
800057fc:	b8078793          	addi	a5,a5,-1152 # 8000a378 <__sf_fake_stderr>
80005800:	faf41be3          	bne	s0,a5,800057b6 <_puts_r+0x36>
80005804:	44c0                	lw	s0,12(s1)
80005806:	bf45                	j	800057b6 <_puts_r+0x36>
80005808:	85a2                	mv	a1,s0
8000580a:	8526                	mv	a0,s1
8000580c:	2a25                	jal	80005944 <__swsetup_r>
8000580e:	d955                	beqz	a0,800057c2 <_puts_r+0x42>
80005810:	557d                	li	a0,-1
80005812:	40f2                	lw	ra,28(sp)
80005814:	4462                	lw	s0,24(sp)
80005816:	44d2                	lw	s1,20(sp)
80005818:	4942                	lw	s2,16(sp)
8000581a:	49b2                	lw	s3,12(sp)
8000581c:	4a22                	lw	s4,8(sp)
8000581e:	6105                	addi	sp,sp,32
80005820:	8082                	ret
80005822:	c41c                	sw	a5,8(s0)
80005824:	0905                	addi	s2,s2,1
80005826:	0007d763          	bgez	a5,80005834 <_puts_r+0xb4>
8000582a:	4c18                	lw	a4,24(s0)
8000582c:	00e7cb63          	blt	a5,a4,80005842 <_puts_r+0xc2>
80005830:	01458963          	beq	a1,s4,80005842 <_puts_r+0xc2>
80005834:	401c                	lw	a5,0(s0)
80005836:	00178713          	addi	a4,a5,1
8000583a:	c018                	sw	a4,0(s0)
8000583c:	00b78023          	sb	a1,0(a5)
80005840:	b759                	j	800057c6 <_puts_r+0x46>
80005842:	8622                	mv	a2,s0
80005844:	8526                	mv	a0,s1
80005846:	2825                	jal	8000587e <__swbuf_r>
80005848:	f7351fe3          	bne	a0,s3,800057c6 <_puts_r+0x46>
8000584c:	b7d1                	j	80005810 <_puts_r+0x90>
8000584e:	401c                	lw	a5,0(s0)
80005850:	00178713          	addi	a4,a5,1
80005854:	c018                	sw	a4,0(s0)
80005856:	4729                	li	a4,10
80005858:	00e78023          	sb	a4,0(a5)
8000585c:	b761                	j	800057e4 <_puts_r+0x64>

8000585e <puts>:
puts():
8000585e:	85aa                	mv	a1,a0
80005860:	80c1a503          	lw	a0,-2036(gp) # 900001dc <_impure_ptr>
80005864:	f1dff06f          	j	80005780 <_puts_r>

80005868 <strlen>:
strlen():
80005868:	87aa                	mv	a5,a0
8000586a:	0007c703          	lbu	a4,0(a5)
8000586e:	0785                	addi	a5,a5,1
80005870:	ff6d                	bnez	a4,8000586a <strlen+0x2>
80005872:	40a78533          	sub	a0,a5,a0
80005876:	157d                	addi	a0,a0,-1
80005878:	8082                	ret

8000587a <isatty>:
isatty():
8000587a:	b6bfa06f          	j	800003e4 <_isatty>

8000587e <__swbuf_r>:
__swbuf_r():
8000587e:	1101                	addi	sp,sp,-32
80005880:	cc22                	sw	s0,24(sp)
80005882:	ca26                	sw	s1,20(sp)
80005884:	c84a                	sw	s2,16(sp)
80005886:	ce06                	sw	ra,28(sp)
80005888:	c64e                	sw	s3,12(sp)
8000588a:	84aa                	mv	s1,a0
8000588c:	892e                	mv	s2,a1
8000588e:	8432                	mv	s0,a2
80005890:	c509                	beqz	a0,8000589a <__swbuf_r+0x1c>
80005892:	4d1c                	lw	a5,24(a0)
80005894:	e399                	bnez	a5,8000589a <__swbuf_r+0x1c>
80005896:	1fc010ef          	jal	ra,80006a92 <__sinit>
8000589a:	00005797          	auipc	a5,0x5
8000589e:	afe78793          	addi	a5,a5,-1282 # 8000a398 <__sf_fake_stdin>
800058a2:	06f41b63          	bne	s0,a5,80005918 <__swbuf_r+0x9a>
800058a6:	40c0                	lw	s0,4(s1)
800058a8:	4c1c                	lw	a5,24(s0)
800058aa:	c41c                	sw	a5,8(s0)
800058ac:	00c45783          	lhu	a5,12(s0)
800058b0:	8ba1                	andi	a5,a5,8
800058b2:	c3d9                	beqz	a5,80005938 <__swbuf_r+0xba>
800058b4:	481c                	lw	a5,16(s0)
800058b6:	c3c9                	beqz	a5,80005938 <__swbuf_r+0xba>
800058b8:	481c                	lw	a5,16(s0)
800058ba:	4008                	lw	a0,0(s0)
800058bc:	0ff97993          	andi	s3,s2,255
800058c0:	0ff97913          	andi	s2,s2,255
800058c4:	8d1d                	sub	a0,a0,a5
800058c6:	485c                	lw	a5,20(s0)
800058c8:	00f54763          	blt	a0,a5,800058d6 <__swbuf_r+0x58>
800058cc:	85a2                	mv	a1,s0
800058ce:	8526                	mv	a0,s1
800058d0:	0a4010ef          	jal	ra,80006974 <_fflush_r>
800058d4:	e535                	bnez	a0,80005940 <__swbuf_r+0xc2>
800058d6:	441c                	lw	a5,8(s0)
800058d8:	0505                	addi	a0,a0,1
800058da:	17fd                	addi	a5,a5,-1
800058dc:	c41c                	sw	a5,8(s0)
800058de:	401c                	lw	a5,0(s0)
800058e0:	00178713          	addi	a4,a5,1
800058e4:	c018                	sw	a4,0(s0)
800058e6:	01378023          	sb	s3,0(a5)
800058ea:	485c                	lw	a5,20(s0)
800058ec:	00a78963          	beq	a5,a0,800058fe <__swbuf_r+0x80>
800058f0:	00c45783          	lhu	a5,12(s0)
800058f4:	8b85                	andi	a5,a5,1
800058f6:	cb89                	beqz	a5,80005908 <__swbuf_r+0x8a>
800058f8:	47a9                	li	a5,10
800058fa:	00f91763          	bne	s2,a5,80005908 <__swbuf_r+0x8a>
800058fe:	85a2                	mv	a1,s0
80005900:	8526                	mv	a0,s1
80005902:	072010ef          	jal	ra,80006974 <_fflush_r>
80005906:	ed0d                	bnez	a0,80005940 <__swbuf_r+0xc2>
80005908:	40f2                	lw	ra,28(sp)
8000590a:	4462                	lw	s0,24(sp)
8000590c:	44d2                	lw	s1,20(sp)
8000590e:	49b2                	lw	s3,12(sp)
80005910:	854a                	mv	a0,s2
80005912:	4942                	lw	s2,16(sp)
80005914:	6105                	addi	sp,sp,32
80005916:	8082                	ret
80005918:	00005797          	auipc	a5,0x5
8000591c:	aa078793          	addi	a5,a5,-1376 # 8000a3b8 <__sf_fake_stdout>
80005920:	00f41463          	bne	s0,a5,80005928 <__swbuf_r+0xaa>
80005924:	4480                	lw	s0,8(s1)
80005926:	b749                	j	800058a8 <__swbuf_r+0x2a>
80005928:	00005797          	auipc	a5,0x5
8000592c:	a5078793          	addi	a5,a5,-1456 # 8000a378 <__sf_fake_stderr>
80005930:	f6f41ce3          	bne	s0,a5,800058a8 <__swbuf_r+0x2a>
80005934:	44c0                	lw	s0,12(s1)
80005936:	bf8d                	j	800058a8 <__swbuf_r+0x2a>
80005938:	85a2                	mv	a1,s0
8000593a:	8526                	mv	a0,s1
8000593c:	2021                	jal	80005944 <__swsetup_r>
8000593e:	dd2d                	beqz	a0,800058b8 <__swbuf_r+0x3a>
80005940:	597d                	li	s2,-1
80005942:	b7d9                	j	80005908 <__swbuf_r+0x8a>

80005944 <__swsetup_r>:
__swsetup_r():
80005944:	1141                	addi	sp,sp,-16
80005946:	c422                	sw	s0,8(sp)
80005948:	c226                	sw	s1,4(sp)
8000594a:	c04a                	sw	s2,0(sp)
8000594c:	c606                	sw	ra,12(sp)
8000594e:	80c1a483          	lw	s1,-2036(gp) # 900001dc <_impure_ptr>
80005952:	892a                	mv	s2,a0
80005954:	842e                	mv	s0,a1
80005956:	c491                	beqz	s1,80005962 <__swsetup_r+0x1e>
80005958:	4c9c                	lw	a5,24(s1)
8000595a:	e781                	bnez	a5,80005962 <__swsetup_r+0x1e>
8000595c:	8526                	mv	a0,s1
8000595e:	134010ef          	jal	ra,80006a92 <__sinit>
80005962:	00005797          	auipc	a5,0x5
80005966:	a3678793          	addi	a5,a5,-1482 # 8000a398 <__sf_fake_stdin>
8000596a:	02f41763          	bne	s0,a5,80005998 <__swsetup_r+0x54>
8000596e:	40c0                	lw	s0,4(s1)
80005970:	00c41783          	lh	a5,12(s0)
80005974:	01079713          	slli	a4,a5,0x10
80005978:	0087f693          	andi	a3,a5,8
8000597c:	8341                	srli	a4,a4,0x10
8000597e:	eab5                	bnez	a3,800059f2 <__swsetup_r+0xae>
80005980:	01077693          	andi	a3,a4,16
80005984:	ea95                	bnez	a3,800059b8 <__swsetup_r+0x74>
80005986:	4725                	li	a4,9
80005988:	00e92023          	sw	a4,0(s2)
8000598c:	0407e793          	ori	a5,a5,64
80005990:	00f41623          	sh	a5,12(s0)
80005994:	557d                	li	a0,-1
80005996:	a045                	j	80005a36 <__swsetup_r+0xf2>
80005998:	00005797          	auipc	a5,0x5
8000599c:	a2078793          	addi	a5,a5,-1504 # 8000a3b8 <__sf_fake_stdout>
800059a0:	00f41463          	bne	s0,a5,800059a8 <__swsetup_r+0x64>
800059a4:	4480                	lw	s0,8(s1)
800059a6:	b7e9                	j	80005970 <__swsetup_r+0x2c>
800059a8:	00005797          	auipc	a5,0x5
800059ac:	9d078793          	addi	a5,a5,-1584 # 8000a378 <__sf_fake_stderr>
800059b0:	fcf410e3          	bne	s0,a5,80005970 <__swsetup_r+0x2c>
800059b4:	44c0                	lw	s0,12(s1)
800059b6:	bf6d                	j	80005970 <__swsetup_r+0x2c>
800059b8:	8b11                	andi	a4,a4,4
800059ba:	c715                	beqz	a4,800059e6 <__swsetup_r+0xa2>
800059bc:	584c                	lw	a1,52(s0)
800059be:	c991                	beqz	a1,800059d2 <__swsetup_r+0x8e>
800059c0:	04440793          	addi	a5,s0,68
800059c4:	00f58563          	beq	a1,a5,800059ce <__swsetup_r+0x8a>
800059c8:	854a                	mv	a0,s2
800059ca:	587010ef          	jal	ra,80007750 <_free_r>
800059ce:	02042a23          	sw	zero,52(s0)
800059d2:	00c45783          	lhu	a5,12(s0)
800059d6:	00042223          	sw	zero,4(s0)
800059da:	fdb7f793          	andi	a5,a5,-37
800059de:	00f41623          	sh	a5,12(s0)
800059e2:	481c                	lw	a5,16(s0)
800059e4:	c01c                	sw	a5,0(s0)
800059e6:	00c45783          	lhu	a5,12(s0)
800059ea:	0087e793          	ori	a5,a5,8
800059ee:	00f41623          	sh	a5,12(s0)
800059f2:	481c                	lw	a5,16(s0)
800059f4:	ef89                	bnez	a5,80005a0e <__swsetup_r+0xca>
800059f6:	00c45783          	lhu	a5,12(s0)
800059fa:	20000713          	li	a4,512
800059fe:	2807f793          	andi	a5,a5,640
80005a02:	00e78663          	beq	a5,a4,80005a0e <__swsetup_r+0xca>
80005a06:	85a2                	mv	a1,s0
80005a08:	854a                	mv	a0,s2
80005a0a:	260010ef          	jal	ra,80006c6a <__smakebuf_r>
80005a0e:	00c41783          	lh	a5,12(s0)
80005a12:	01079713          	slli	a4,a5,0x10
80005a16:	0017f693          	andi	a3,a5,1
80005a1a:	8341                	srli	a4,a4,0x10
80005a1c:	c29d                	beqz	a3,80005a42 <__swsetup_r+0xfe>
80005a1e:	4854                	lw	a3,20(s0)
80005a20:	00042423          	sw	zero,8(s0)
80005a24:	40d006b3          	neg	a3,a3
80005a28:	cc14                	sw	a3,24(s0)
80005a2a:	4814                	lw	a3,16(s0)
80005a2c:	4501                	li	a0,0
80005a2e:	e681                	bnez	a3,80005a36 <__swsetup_r+0xf2>
80005a30:	08077713          	andi	a4,a4,128
80005a34:	ff21                	bnez	a4,8000598c <__swsetup_r+0x48>
80005a36:	40b2                	lw	ra,12(sp)
80005a38:	4422                	lw	s0,8(sp)
80005a3a:	4492                	lw	s1,4(sp)
80005a3c:	4902                	lw	s2,0(sp)
80005a3e:	0141                	addi	sp,sp,16
80005a40:	8082                	ret
80005a42:	00277693          	andi	a3,a4,2
80005a46:	4601                	li	a2,0
80005a48:	e291                	bnez	a3,80005a4c <__swsetup_r+0x108>
80005a4a:	4850                	lw	a2,20(s0)
80005a4c:	c410                	sw	a2,8(s0)
80005a4e:	bff1                	j	80005a2a <__swsetup_r+0xe6>

80005a50 <__register_exitproc>:
__register_exitproc():
80005a50:	88aa                	mv	a7,a0
80005a52:	9f818513          	addi	a0,gp,-1544 # 900003c8 <_global_atexit>
80005a56:	411c                	lw	a5,0(a0)
80005a58:	ef81                	bnez	a5,80005a70 <__register_exitproc+0x20>
80005a5a:	b8818713          	addi	a4,gp,-1144 # 90000558 <_global_atexit0>
80005a5e:	c118                	sw	a4,0(a0)
80005a60:	00000513          	li	a0,0
80005a64:	87ba                	mv	a5,a4
80005a66:	c509                	beqz	a0,80005a70 <__register_exitproc+0x20>
80005a68:	411c                	lw	a5,0(a0)
80005a6a:	08f72423          	sw	a5,136(a4)
80005a6e:	87ba                	mv	a5,a4
80005a70:	43d8                	lw	a4,4(a5)
80005a72:	487d                	li	a6,31
80005a74:	557d                	li	a0,-1
80005a76:	04e84663          	blt	a6,a4,80005ac2 <__register_exitproc+0x72>
80005a7a:	02088d63          	beqz	a7,80005ab4 <__register_exitproc+0x64>
80005a7e:	0887a803          	lw	a6,136(a5)
80005a82:	04080063          	beqz	a6,80005ac2 <__register_exitproc+0x72>
80005a86:	00271513          	slli	a0,a4,0x2
80005a8a:	9542                	add	a0,a0,a6
80005a8c:	c110                	sw	a2,0(a0)
80005a8e:	10082303          	lw	t1,256(a6)
80005a92:	4605                	li	a2,1
80005a94:	00e61633          	sll	a2,a2,a4
80005a98:	00c36333          	or	t1,t1,a2
80005a9c:	10682023          	sw	t1,256(a6)
80005aa0:	08d52023          	sw	a3,128(a0)
80005aa4:	4689                	li	a3,2
80005aa6:	00d89763          	bne	a7,a3,80005ab4 <__register_exitproc+0x64>
80005aaa:	10482683          	lw	a3,260(a6)
80005aae:	8e55                	or	a2,a2,a3
80005ab0:	10c82223          	sw	a2,260(a6)
80005ab4:	00170693          	addi	a3,a4,1
80005ab8:	070a                	slli	a4,a4,0x2
80005aba:	c3d4                	sw	a3,4(a5)
80005abc:	97ba                	add	a5,a5,a4
80005abe:	c78c                	sw	a1,8(a5)
80005ac0:	4501                	li	a0,0
80005ac2:	8082                	ret

80005ac4 <quorem>:
quorem():
80005ac4:	1101                	addi	sp,sp,-32
80005ac6:	cc22                	sw	s0,24(sp)
80005ac8:	491c                	lw	a5,16(a0)
80005aca:	4980                	lw	s0,16(a1)
80005acc:	ce06                	sw	ra,28(sp)
80005ace:	ca26                	sw	s1,20(sp)
80005ad0:	c84a                	sw	s2,16(sp)
80005ad2:	c64e                	sw	s3,12(sp)
80005ad4:	c452                	sw	s4,8(sp)
80005ad6:	c256                	sw	s5,4(sp)
80005ad8:	1087ca63          	blt	a5,s0,80005bec <quorem+0x128>
80005adc:	147d                	addi	s0,s0,-1
80005ade:	00241613          	slli	a2,s0,0x2
80005ae2:	01458a13          	addi	s4,a1,20
80005ae6:	00ca0ab3          	add	s5,s4,a2
80005aea:	01450993          	addi	s3,a0,20
80005aee:	000aa783          	lw	a5,0(s5)
80005af2:	964e                	add	a2,a2,s3
80005af4:	4218                	lw	a4,0(a2)
80005af6:	0785                	addi	a5,a5,1
80005af8:	892a                	mv	s2,a0
80005afa:	02f754b3          	divu	s1,a4,a5
80005afe:	06f76263          	bltu	a4,a5,80005b62 <quorem+0x9e>
80005b02:	6541                	lui	a0,0x10
80005b04:	8852                	mv	a6,s4
80005b06:	88ce                	mv	a7,s3
80005b08:	4301                	li	t1,0
80005b0a:	4e01                	li	t3,0
80005b0c:	157d                	addi	a0,a0,-1
80005b0e:	00082683          	lw	a3,0(a6)
80005b12:	0891                	addi	a7,a7,4
80005b14:	0811                	addi	a6,a6,4
80005b16:	00a6f7b3          	and	a5,a3,a0
80005b1a:	82c1                	srli	a3,a3,0x10
80005b1c:	029787b3          	mul	a5,a5,s1
80005b20:	029686b3          	mul	a3,a3,s1
80005b24:	979a                	add	a5,a5,t1
80005b26:	0107d713          	srli	a4,a5,0x10
80005b2a:	8fe9                	and	a5,a5,a0
80005b2c:	40fe07b3          	sub	a5,t3,a5
80005b30:	96ba                	add	a3,a3,a4
80005b32:	ffc8a703          	lw	a4,-4(a7)
80005b36:	0106d313          	srli	t1,a3,0x10
80005b3a:	8ee9                	and	a3,a3,a0
80005b3c:	00a77e33          	and	t3,a4,a0
80005b40:	97f2                	add	a5,a5,t3
80005b42:	8341                	srli	a4,a4,0x10
80005b44:	8f15                	sub	a4,a4,a3
80005b46:	4107d693          	srai	a3,a5,0x10
80005b4a:	9736                	add	a4,a4,a3
80005b4c:	41075e13          	srai	t3,a4,0x10
80005b50:	8fe9                	and	a5,a5,a0
80005b52:	0742                	slli	a4,a4,0x10
80005b54:	8fd9                	or	a5,a5,a4
80005b56:	fef8ae23          	sw	a5,-4(a7)
80005b5a:	fb0afae3          	bgeu	s5,a6,80005b0e <quorem+0x4a>
80005b5e:	421c                	lw	a5,0(a2)
80005b60:	c7bd                	beqz	a5,80005bce <quorem+0x10a>
80005b62:	854a                	mv	a0,s2
80005b64:	145010ef          	jal	ra,800074a8 <__mcmp>
80005b68:	04054663          	bltz	a0,80005bb4 <quorem+0xf0>
80005b6c:	66c1                	lui	a3,0x10
80005b6e:	0485                	addi	s1,s1,1
80005b70:	864e                	mv	a2,s3
80005b72:	4581                	li	a1,0
80005b74:	16fd                	addi	a3,a3,-1
80005b76:	000a2503          	lw	a0,0(s4)
80005b7a:	421c                	lw	a5,0(a2)
80005b7c:	0611                	addi	a2,a2,4
80005b7e:	00d57733          	and	a4,a0,a3
80005b82:	8d99                	sub	a1,a1,a4
80005b84:	00d7f733          	and	a4,a5,a3
80005b88:	972e                	add	a4,a4,a1
80005b8a:	83c1                	srli	a5,a5,0x10
80005b8c:	8141                	srli	a0,a0,0x10
80005b8e:	41075593          	srai	a1,a4,0x10
80005b92:	8f89                	sub	a5,a5,a0
80005b94:	97ae                	add	a5,a5,a1
80005b96:	4107d593          	srai	a1,a5,0x10
80005b9a:	8f75                	and	a4,a4,a3
80005b9c:	07c2                	slli	a5,a5,0x10
80005b9e:	8fd9                	or	a5,a5,a4
80005ba0:	0a11                	addi	s4,s4,4
80005ba2:	fef62e23          	sw	a5,-4(a2)
80005ba6:	fd4af8e3          	bgeu	s5,s4,80005b76 <quorem+0xb2>
80005baa:	00241793          	slli	a5,s0,0x2
80005bae:	97ce                	add	a5,a5,s3
80005bb0:	4398                	lw	a4,0(a5)
80005bb2:	c71d                	beqz	a4,80005be0 <quorem+0x11c>
80005bb4:	8526                	mv	a0,s1
80005bb6:	40f2                	lw	ra,28(sp)
80005bb8:	4462                	lw	s0,24(sp)
80005bba:	44d2                	lw	s1,20(sp)
80005bbc:	4942                	lw	s2,16(sp)
80005bbe:	49b2                	lw	s3,12(sp)
80005bc0:	4a22                	lw	s4,8(sp)
80005bc2:	4a92                	lw	s5,4(sp)
80005bc4:	6105                	addi	sp,sp,32
80005bc6:	8082                	ret
80005bc8:	421c                	lw	a5,0(a2)
80005bca:	e789                	bnez	a5,80005bd4 <quorem+0x110>
80005bcc:	147d                	addi	s0,s0,-1
80005bce:	1671                	addi	a2,a2,-4
80005bd0:	fec9ece3          	bltu	s3,a2,80005bc8 <quorem+0x104>
80005bd4:	00892823          	sw	s0,16(s2)
80005bd8:	b769                	j	80005b62 <quorem+0x9e>
80005bda:	4398                	lw	a4,0(a5)
80005bdc:	e709                	bnez	a4,80005be6 <quorem+0x122>
80005bde:	147d                	addi	s0,s0,-1
80005be0:	17f1                	addi	a5,a5,-4
80005be2:	fef9ece3          	bltu	s3,a5,80005bda <quorem+0x116>
80005be6:	00892823          	sw	s0,16(s2)
80005bea:	b7e9                	j	80005bb4 <quorem+0xf0>
80005bec:	4501                	li	a0,0
80005bee:	b7e1                	j	80005bb6 <quorem+0xf2>

80005bf0 <_dtoa_r>:
_dtoa_r():
80005bf0:	7135                	addi	sp,sp,-160
80005bf2:	dc3e                	sw	a5,56(sp)
80005bf4:	515c                	lw	a5,36(a0)
80005bf6:	cd22                	sw	s0,152(sp)
80005bf8:	cb26                	sw	s1,148(sp)
80005bfa:	c94a                	sw	s2,144(sp)
80005bfc:	c74e                	sw	s3,140(sp)
80005bfe:	c356                	sw	s5,132(sp)
80005c00:	c15a                	sw	s6,128(sp)
80005c02:	cf06                	sw	ra,156(sp)
80005c04:	c552                	sw	s4,136(sp)
80005c06:	dede                	sw	s7,124(sp)
80005c08:	dce2                	sw	s8,120(sp)
80005c0a:	dae6                	sw	s9,116(sp)
80005c0c:	d8ea                	sw	s10,112(sp)
80005c0e:	d6ee                	sw	s11,108(sp)
80005c10:	ca36                	sw	a3,20(sp)
80005c12:	d03a                	sw	a4,32(sp)
80005c14:	d246                	sw	a7,36(sp)
80005c16:	84aa                	mv	s1,a0
80005c18:	8aae                	mv	s5,a1
80005c1a:	8432                	mv	s0,a2
80005c1c:	8942                	mv	s2,a6
80005c1e:	89ae                	mv	s3,a1
80005c20:	8b32                	mv	s6,a2
80005c22:	ef89                	bnez	a5,80005c3c <_dtoa_r+0x4c>
80005c24:	4541                	li	a0,16
80005c26:	0e6010ef          	jal	ra,80006d0c <malloc>
80005c2a:	d0c8                	sw	a0,36(s1)
80005c2c:	00052223          	sw	zero,4(a0) # 10004 <__stack_size+0xf804>
80005c30:	00052423          	sw	zero,8(a0)
80005c34:	00052023          	sw	zero,0(a0)
80005c38:	00052623          	sw	zero,12(a0)
80005c3c:	50dc                	lw	a5,36(s1)
80005c3e:	438c                	lw	a1,0(a5)
80005c40:	cd89                	beqz	a1,80005c5a <_dtoa_r+0x6a>
80005c42:	43d8                	lw	a4,4(a5)
80005c44:	4785                	li	a5,1
80005c46:	8526                	mv	a0,s1
80005c48:	00e797b3          	sll	a5,a5,a4
80005c4c:	c59c                	sw	a5,8(a1)
80005c4e:	c1d8                	sw	a4,4(a1)
80005c50:	328010ef          	jal	ra,80006f78 <_Bfree>
80005c54:	50dc                	lw	a5,36(s1)
80005c56:	0007a023          	sw	zero,0(a5)
80005c5a:	04045263          	bgez	s0,80005c9e <_dtoa_r+0xae>
80005c5e:	4785                	li	a5,1
80005c60:	0406                	slli	s0,s0,0x1
80005c62:	00f92023          	sw	a5,0(s2)
80005c66:	00145b13          	srli	s6,s0,0x1
80005c6a:	7ff007b7          	lui	a5,0x7ff00
80005c6e:	00fb7733          	and	a4,s6,a5
80005c72:	06f71463          	bne	a4,a5,80005cda <_dtoa_r+0xea>
80005c76:	5762                	lw	a4,56(sp)
80005c78:	6789                	lui	a5,0x2
80005c7a:	0b32                	slli	s6,s6,0xc
80005c7c:	70f78793          	addi	a5,a5,1807 # 270f <__stack_size+0x1f0f>
80005c80:	00cb5b13          	srli	s6,s6,0xc
80005c84:	c31c                	sw	a5,0(a4)
80005c86:	015b6ab3          	or	s5,s6,s5
80005c8a:	340a84e3          	beqz	s5,800067d2 <_dtoa_r+0xbe2>
80005c8e:	5792                	lw	a5,36(sp)
80005c90:	eb91                	bnez	a5,80005ca4 <_dtoa_r+0xb4>
80005c92:	00004797          	auipc	a5,0x4
80005c96:	67278793          	addi	a5,a5,1650 # 8000a304 <__clz_tab+0x1a0>
80005c9a:	c63e                	sw	a5,12(sp)
80005c9c:	a839                	j	80005cba <_dtoa_r+0xca>
80005c9e:	00092023          	sw	zero,0(s2)
80005ca2:	b7e1                	j	80005c6a <_dtoa_r+0x7a>
80005ca4:	00004797          	auipc	a5,0x4
80005ca8:	66078793          	addi	a5,a5,1632 # 8000a304 <__clz_tab+0x1a0>
80005cac:	c63e                	sw	a5,12(sp)
80005cae:	00004797          	auipc	a5,0x4
80005cb2:	65978793          	addi	a5,a5,1625 # 8000a307 <__clz_tab+0x1a3>
80005cb6:	5712                	lw	a4,36(sp)
80005cb8:	c31c                	sw	a5,0(a4)
80005cba:	40fa                	lw	ra,156(sp)
80005cbc:	446a                	lw	s0,152(sp)
80005cbe:	4532                	lw	a0,12(sp)
80005cc0:	44da                	lw	s1,148(sp)
80005cc2:	494a                	lw	s2,144(sp)
80005cc4:	49ba                	lw	s3,140(sp)
80005cc6:	4a2a                	lw	s4,136(sp)
80005cc8:	4a9a                	lw	s5,132(sp)
80005cca:	4b0a                	lw	s6,128(sp)
80005ccc:	5bf6                	lw	s7,124(sp)
80005cce:	5c66                	lw	s8,120(sp)
80005cd0:	5cd6                	lw	s9,116(sp)
80005cd2:	5d46                	lw	s10,112(sp)
80005cd4:	5db6                	lw	s11,108(sp)
80005cd6:	610d                	addi	sp,sp,160
80005cd8:	8082                	ret
80005cda:	4601                	li	a2,0
80005cdc:	4681                	li	a3,0
80005cde:	8556                	mv	a0,s5
80005ce0:	85da                	mv	a1,s6
80005ce2:	d656                	sw	s5,44(sp)
80005ce4:	d85a                	sw	s6,48(sp)
80005ce6:	539020ef          	jal	ra,80008a1e <__eqdf2>
80005cea:	e105                	bnez	a0,80005d0a <_dtoa_r+0x11a>
80005cec:	5762                	lw	a4,56(sp)
80005cee:	4785                	li	a5,1
80005cf0:	c31c                	sw	a5,0(a4)
80005cf2:	00004797          	auipc	a5,0x4
80005cf6:	58278793          	addi	a5,a5,1410 # 8000a274 <__clz_tab+0x110>
80005cfa:	c63e                	sw	a5,12(sp)
80005cfc:	5792                	lw	a5,36(sp)
80005cfe:	dfd5                	beqz	a5,80005cba <_dtoa_r+0xca>
80005d00:	00004797          	auipc	a5,0x4
80005d04:	57578793          	addi	a5,a5,1397 # 8000a275 <__clz_tab+0x111>
80005d08:	b77d                	j	80005cb6 <_dtoa_r+0xc6>
80005d0a:	08b8                	addi	a4,sp,88
80005d0c:	08f4                	addi	a3,sp,92
80005d0e:	865a                	mv	a2,s6
80005d10:	85d6                	mv	a1,s5
80005d12:	8526                	mv	a0,s1
80005d14:	014b5913          	srli	s2,s6,0x14
80005d18:	125010ef          	jal	ra,8000763c <__d2b>
80005d1c:	7ff97913          	andi	s2,s2,2047
80005d20:	4a66                	lw	s4,88(sp)
80005d22:	842a                	mv	s0,a0
80005d24:	12090663          	beqz	s2,80005e50 <_dtoa_r+0x260>
80005d28:	57c2                	lw	a5,48(sp)
80005d2a:	5532                	lw	a0,44(sp)
80005d2c:	c0190913          	addi	s2,s2,-1023
80005d30:	00c79593          	slli	a1,a5,0xc
80005d34:	81b1                	srli	a1,a1,0xc
80005d36:	3ff007b7          	lui	a5,0x3ff00
80005d3a:	8ddd                	or	a1,a1,a5
80005d3c:	c082                	sw	zero,64(sp)
80005d3e:	0fffa797          	auipc	a5,0xfffa
80005d42:	4aa78793          	addi	a5,a5,1194 # 900001e8 <_impure_ptr+0xc>
80005d46:	4390                	lw	a2,0(a5)
80005d48:	43d4                	lw	a3,4(a5)
80005d4a:	2cc030ef          	jal	ra,80009016 <__subdf3>
80005d4e:	0fffa797          	auipc	a5,0xfffa
80005d52:	4a278793          	addi	a5,a5,1186 # 900001f0 <_impure_ptr+0x14>
80005d56:	4390                	lw	a2,0(a5)
80005d58:	43d4                	lw	a3,4(a5)
80005d5a:	67b020ef          	jal	ra,80008bd4 <__muldf3>
80005d5e:	0fffa797          	auipc	a5,0xfffa
80005d62:	49a78793          	addi	a5,a5,1178 # 900001f8 <_impure_ptr+0x1c>
80005d66:	4390                	lw	a2,0(a5)
80005d68:	43d4                	lw	a3,4(a5)
80005d6a:	16a020ef          	jal	ra,80007ed4 <__adddf3>
80005d6e:	8baa                	mv	s7,a0
80005d70:	854a                	mv	a0,s2
80005d72:	8aae                	mv	s5,a1
80005d74:	15d030ef          	jal	ra,800096d0 <__floatsidf>
80005d78:	0fffa797          	auipc	a5,0xfffa
80005d7c:	48878793          	addi	a5,a5,1160 # 90000200 <_impure_ptr+0x24>
80005d80:	4390                	lw	a2,0(a5)
80005d82:	43d4                	lw	a3,4(a5)
80005d84:	651020ef          	jal	ra,80008bd4 <__muldf3>
80005d88:	862a                	mv	a2,a0
80005d8a:	86ae                	mv	a3,a1
80005d8c:	855e                	mv	a0,s7
80005d8e:	85d6                	mv	a1,s5
80005d90:	144020ef          	jal	ra,80007ed4 <__adddf3>
80005d94:	8baa                	mv	s7,a0
80005d96:	8aae                	mv	s5,a1
80005d98:	0d5030ef          	jal	ra,8000966c <__fixdfsi>
80005d9c:	8daa                	mv	s11,a0
80005d9e:	4601                	li	a2,0
80005da0:	4681                	li	a3,0
80005da2:	855e                	mv	a0,s7
80005da4:	85d6                	mv	a1,s5
80005da6:	589020ef          	jal	ra,80008b2e <__ledf2>
80005daa:	00055b63          	bgez	a0,80005dc0 <_dtoa_r+0x1d0>
80005dae:	856e                	mv	a0,s11
80005db0:	121030ef          	jal	ra,800096d0 <__floatsidf>
80005db4:	865e                	mv	a2,s7
80005db6:	86d6                	mv	a3,s5
80005db8:	467020ef          	jal	ra,80008a1e <__eqdf2>
80005dbc:	c111                	beqz	a0,80005dc0 <_dtoa_r+0x1d0>
80005dbe:	1dfd                	addi	s11,s11,-1
80005dc0:	4705                	li	a4,1
80005dc2:	47d9                	li	a5,22
80005dc4:	da3a                	sw	a4,52(sp)
80005dc6:	03b7e363          	bltu	a5,s11,80005dec <_dtoa_r+0x1fc>
80005dca:	003d9713          	slli	a4,s11,0x3
80005dce:	00004797          	auipc	a5,0x4
80005dd2:	6a278793          	addi	a5,a5,1698 # 8000a470 <__mprec_tens>
80005dd6:	97ba                	add	a5,a5,a4
80005dd8:	4390                	lw	a2,0(a5)
80005dda:	43d4                	lw	a3,4(a5)
80005ddc:	5532                	lw	a0,44(sp)
80005dde:	55c2                	lw	a1,48(sp)
80005de0:	54f020ef          	jal	ra,80008b2e <__ledf2>
80005de4:	00055363          	bgez	a0,80005dea <_dtoa_r+0x1fa>
80005de8:	1dfd                	addi	s11,s11,-1
80005dea:	da02                	sw	zero,52(sp)
80005dec:	412a0933          	sub	s2,s4,s2
80005df0:	fff90c13          	addi	s8,s2,-1
80005df4:	4b81                	li	s7,0
80005df6:	000c5663          	bgez	s8,80005e02 <_dtoa_r+0x212>
80005dfa:	4b85                	li	s7,1
80005dfc:	412b8bb3          	sub	s7,s7,s2
80005e00:	4c01                	li	s8,0
80005e02:	080dc863          	bltz	s11,80005e92 <_dtoa_r+0x2a2>
80005e06:	9c6e                	add	s8,s8,s11
80005e08:	d46e                	sw	s11,40(sp)
80005e0a:	4c81                	li	s9,0
80005e0c:	4752                	lw	a4,20(sp)
80005e0e:	47a5                	li	a5,9
80005e10:	0ee7ea63          	bltu	a5,a4,80005f04 <_dtoa_r+0x314>
80005e14:	4795                	li	a5,5
80005e16:	4905                	li	s2,1
80005e18:	00e7d663          	bge	a5,a4,80005e24 <_dtoa_r+0x234>
80005e1c:	ffc70793          	addi	a5,a4,-4
80005e20:	ca3e                	sw	a5,20(sp)
80005e22:	4901                	li	s2,0
80005e24:	4752                	lw	a4,20(sp)
80005e26:	4791                	li	a5,4
80005e28:	06f70b63          	beq	a4,a5,80005e9e <_dtoa_r+0x2ae>
80005e2c:	4795                	li	a5,5
80005e2e:	0af70f63          	beq	a4,a5,80005eec <_dtoa_r+0x2fc>
80005e32:	4789                	li	a5,2
80005e34:	0af70a63          	beq	a4,a5,80005ee8 <_dtoa_r+0x2f8>
80005e38:	478d                	li	a5,3
80005e3a:	ce02                	sw	zero,28(sp)
80005e3c:	0af70a63          	beq	a4,a5,80005ef0 <_dtoa_r+0x300>
80005e40:	4785                	li	a5,1
80005e42:	ce3e                	sw	a5,28(sp)
80005e44:	57fd                	li	a5,-1
80005e46:	c83e                	sw	a5,16(sp)
80005e48:	5d7d                	li	s10,-1
80005e4a:	47c9                	li	a5,18
80005e4c:	d002                	sw	zero,32(sp)
80005e4e:	a095                	j	80005eb2 <_dtoa_r+0x2c2>
80005e50:	4976                	lw	s2,92(sp)
80005e52:	02000793          	li	a5,32
80005e56:	9952                	add	s2,s2,s4
80005e58:	43290593          	addi	a1,s2,1074
80005e5c:	02b7d663          	bge	a5,a1,80005e88 <_dtoa_r+0x298>
80005e60:	04000513          	li	a0,64
80005e64:	8d0d                	sub	a0,a0,a1
80005e66:	41290593          	addi	a1,s2,1042
80005e6a:	00ab1533          	sll	a0,s6,a0
80005e6e:	00badab3          	srl	s5,s5,a1
80005e72:	01556533          	or	a0,a0,s5
80005e76:	0c3030ef          	jal	ra,80009738 <__floatunsidf>
80005e7a:	fe1007b7          	lui	a5,0xfe100
80005e7e:	95be                	add	a1,a1,a5
80005e80:	4785                	li	a5,1
80005e82:	197d                	addi	s2,s2,-1
80005e84:	c0be                	sw	a5,64(sp)
80005e86:	bd65                	j	80005d3e <_dtoa_r+0x14e>
80005e88:	40b78533          	sub	a0,a5,a1
80005e8c:	00aa9533          	sll	a0,s5,a0
80005e90:	b7dd                	j	80005e76 <_dtoa_r+0x286>
80005e92:	41bb8bb3          	sub	s7,s7,s11
80005e96:	41b00cb3          	neg	s9,s11
80005e9a:	d402                	sw	zero,40(sp)
80005e9c:	bf85                	j	80005e0c <_dtoa_r+0x21c>
80005e9e:	4785                	li	a5,1
80005ea0:	ce3e                	sw	a5,28(sp)
80005ea2:	5782                	lw	a5,32(sp)
80005ea4:	06f04363          	bgtz	a5,80005f0a <_dtoa_r+0x31a>
80005ea8:	4785                	li	a5,1
80005eaa:	4705                	li	a4,1
80005eac:	c83e                	sw	a5,16(sp)
80005eae:	4d05                	li	s10,1
80005eb0:	d03a                	sw	a4,32(sp)
80005eb2:	50d4                	lw	a3,36(s1)
80005eb4:	4711                	li	a4,4
80005eb6:	0006a223          	sw	zero,4(a3) # 10004 <__stack_size+0xf804>
80005eba:	01470613          	addi	a2,a4,20
80005ebe:	42cc                	lw	a1,4(a3)
80005ec0:	04c7f963          	bgeu	a5,a2,80005f12 <_dtoa_r+0x322>
80005ec4:	8526                	mv	a0,s1
80005ec6:	020010ef          	jal	ra,80006ee6 <_Balloc>
80005eca:	c62a                	sw	a0,12(sp)
80005ecc:	e539                	bnez	a0,80005f1a <_dtoa_r+0x32a>
80005ece:	00004697          	auipc	a3,0x4
80005ed2:	43a68693          	addi	a3,a3,1082 # 8000a308 <__clz_tab+0x1a4>
80005ed6:	4601                	li	a2,0
80005ed8:	1aa00593          	li	a1,426
80005edc:	00004517          	auipc	a0,0x4
80005ee0:	44050513          	addi	a0,a0,1088 # 8000a31c <__clz_tab+0x1b8>
80005ee4:	617010ef          	jal	ra,80007cfa <__assert_func>
80005ee8:	ce02                	sw	zero,28(sp)
80005eea:	bf65                	j	80005ea2 <_dtoa_r+0x2b2>
80005eec:	4785                	li	a5,1
80005eee:	ce3e                	sw	a5,28(sp)
80005ef0:	5782                	lw	a5,32(sp)
80005ef2:	97ee                	add	a5,a5,s11
80005ef4:	c83e                	sw	a5,16(sp)
80005ef6:	00178d13          	addi	s10,a5,1 # fe100001 <_sp+0x6e0f0001>
80005efa:	87ea                	mv	a5,s10
80005efc:	fba04be3          	bgtz	s10,80005eb2 <_dtoa_r+0x2c2>
80005f00:	4785                	li	a5,1
80005f02:	bf45                	j	80005eb2 <_dtoa_r+0x2c2>
80005f04:	4905                	li	s2,1
80005f06:	ca02                	sw	zero,20(sp)
80005f08:	bf25                	j	80005e40 <_dtoa_r+0x250>
80005f0a:	5782                	lw	a5,32(sp)
80005f0c:	c83e                	sw	a5,16(sp)
80005f0e:	8d3e                	mv	s10,a5
80005f10:	b74d                	j	80005eb2 <_dtoa_r+0x2c2>
80005f12:	0585                	addi	a1,a1,1
80005f14:	c2cc                	sw	a1,4(a3)
80005f16:	0706                	slli	a4,a4,0x1
80005f18:	b74d                	j	80005eba <_dtoa_r+0x2ca>
80005f1a:	50dc                	lw	a5,36(s1)
80005f1c:	4732                	lw	a4,12(sp)
80005f1e:	c398                	sw	a4,0(a5)
80005f20:	47b9                	li	a5,14
80005f22:	13a7e763          	bltu	a5,s10,80006050 <_dtoa_r+0x460>
80005f26:	12090563          	beqz	s2,80006050 <_dtoa_r+0x460>
80005f2a:	1bb05963          	blez	s11,800060dc <_dtoa_r+0x4ec>
80005f2e:	00fdf713          	andi	a4,s11,15
80005f32:	00371793          	slli	a5,a4,0x3
80005f36:	00004717          	auipc	a4,0x4
80005f3a:	53a70713          	addi	a4,a4,1338 # 8000a470 <__mprec_tens>
80005f3e:	973e                	add	a4,a4,a5
80005f40:	404dd913          	srai	s2,s11,0x4
80005f44:	431c                	lw	a5,0(a4)
80005f46:	00472a83          	lw	s5,4(a4)
80005f4a:	01097713          	andi	a4,s2,16
80005f4e:	4a09                	li	s4,2
80005f50:	c315                	beqz	a4,80005f74 <_dtoa_r+0x384>
80005f52:	00004717          	auipc	a4,0x4
80005f56:	4f670713          	addi	a4,a4,1270 # 8000a448 <__mprec_bigtens>
80005f5a:	5310                	lw	a2,32(a4)
80005f5c:	5354                	lw	a3,36(a4)
80005f5e:	5532                	lw	a0,44(sp)
80005f60:	55c2                	lw	a1,48(sp)
80005f62:	cc3e                	sw	a5,24(sp)
80005f64:	00f97913          	andi	s2,s2,15
80005f68:	576020ef          	jal	ra,800084de <__divdf3>
80005f6c:	47e2                	lw	a5,24(sp)
80005f6e:	89aa                	mv	s3,a0
80005f70:	8b2e                	mv	s6,a1
80005f72:	4a0d                	li	s4,3
80005f74:	00004717          	auipc	a4,0x4
80005f78:	4d470713          	addi	a4,a4,1236 # 8000a448 <__mprec_bigtens>
80005f7c:	12091e63          	bnez	s2,800060b8 <_dtoa_r+0x4c8>
80005f80:	854e                	mv	a0,s3
80005f82:	863e                	mv	a2,a5
80005f84:	86d6                	mv	a3,s5
80005f86:	85da                	mv	a1,s6
80005f88:	556020ef          	jal	ra,800084de <__divdf3>
80005f8c:	89aa                	mv	s3,a0
80005f8e:	8b2e                	mv	s6,a1
80005f90:	57d2                	lw	a5,52(sp)
80005f92:	1a078a63          	beqz	a5,80006146 <_dtoa_r+0x556>
80005f96:	0fffa797          	auipc	a5,0xfffa
80005f9a:	27278793          	addi	a5,a5,626 # 90000208 <_impure_ptr+0x2c>
80005f9e:	4390                	lw	a2,0(a5)
80005fa0:	43d4                	lw	a3,4(a5)
80005fa2:	854e                	mv	a0,s3
80005fa4:	85da                	mv	a1,s6
80005fa6:	389020ef          	jal	ra,80008b2e <__ledf2>
80005faa:	18055e63          	bgez	a0,80006146 <_dtoa_r+0x556>
80005fae:	180d0f63          	beqz	s10,8000614c <_dtoa_r+0x55c>
80005fb2:	47c2                	lw	a5,16(sp)
80005fb4:	08f05c63          	blez	a5,8000604c <_dtoa_r+0x45c>
80005fb8:	fffd8793          	addi	a5,s11,-1
80005fbc:	cc3e                	sw	a5,24(sp)
80005fbe:	0fffa797          	auipc	a5,0xfffa
80005fc2:	25278793          	addi	a5,a5,594 # 90000210 <_impure_ptr+0x34>
80005fc6:	4390                	lw	a2,0(a5)
80005fc8:	43d4                	lw	a3,4(a5)
80005fca:	854e                	mv	a0,s3
80005fcc:	85da                	mv	a1,s6
80005fce:	407020ef          	jal	ra,80008bd4 <__muldf3>
80005fd2:	47c2                	lw	a5,16(sp)
80005fd4:	89aa                	mv	s3,a0
80005fd6:	8b2e                	mv	s6,a1
80005fd8:	0a05                	addi	s4,s4,1
80005fda:	8552                	mv	a0,s4
80005fdc:	c4be                	sw	a5,72(sp)
80005fde:	c2ce                	sw	s3,68(sp)
80005fe0:	de5a                	sw	s6,60(sp)
80005fe2:	6ee030ef          	jal	ra,800096d0 <__floatsidf>
80005fe6:	864e                	mv	a2,s3
80005fe8:	86da                	mv	a3,s6
80005fea:	3eb020ef          	jal	ra,80008bd4 <__muldf3>
80005fee:	0fffa697          	auipc	a3,0xfffa
80005ff2:	22a68693          	addi	a3,a3,554 # 90000218 <_impure_ptr+0x3c>
80005ff6:	4290                	lw	a2,0(a3)
80005ff8:	42d4                	lw	a3,4(a3)
80005ffa:	8ace                	mv	s5,s3
80005ffc:	fcc009b7          	lui	s3,0xfcc00
80006000:	6d5010ef          	jal	ra,80007ed4 <__adddf3>
80006004:	47a6                	lw	a5,72(sp)
80006006:	895a                	mv	s2,s6
80006008:	8a2a                	mv	s4,a0
8000600a:	99ae                	add	s3,s3,a1
8000600c:	14079363          	bnez	a5,80006152 <_dtoa_r+0x562>
80006010:	0fffa797          	auipc	a5,0xfffa
80006014:	21078793          	addi	a5,a5,528 # 90000220 <_impure_ptr+0x44>
80006018:	4390                	lw	a2,0(a5)
8000601a:	43d4                	lw	a3,4(a5)
8000601c:	8556                	mv	a0,s5
8000601e:	85da                	mv	a1,s6
80006020:	7f7020ef          	jal	ra,80009016 <__subdf3>
80006024:	8652                	mv	a2,s4
80006026:	86ce                	mv	a3,s3
80006028:	8aaa                	mv	s5,a0
8000602a:	892e                	mv	s2,a1
8000602c:	25d020ef          	jal	ra,80008a88 <__gedf2>
80006030:	5aa04963          	bgtz	a0,800065e2 <_dtoa_r+0x9f2>
80006034:	800007b7          	lui	a5,0x80000
80006038:	0137c7b3          	xor	a5,a5,s3
8000603c:	8652                	mv	a2,s4
8000603e:	86be                	mv	a3,a5
80006040:	8556                	mv	a0,s5
80006042:	85ca                	mv	a1,s2
80006044:	2eb020ef          	jal	ra,80008b2e <__ledf2>
80006048:	58054a63          	bltz	a0,800065dc <_dtoa_r+0x9ec>
8000604c:	59b2                	lw	s3,44(sp)
8000604e:	5b42                	lw	s6,48(sp)
80006050:	47f6                	lw	a5,92(sp)
80006052:	3607c663          	bltz	a5,800063be <_dtoa_r+0x7ce>
80006056:	4739                	li	a4,14
80006058:	37b74363          	blt	a4,s11,800063be <_dtoa_r+0x7ce>
8000605c:	003d9713          	slli	a4,s11,0x3
80006060:	00004797          	auipc	a5,0x4
80006064:	41078793          	addi	a5,a5,1040 # 8000a470 <__mprec_tens>
80006068:	97ba                	add	a5,a5,a4
8000606a:	0007aa03          	lw	s4,0(a5)
8000606e:	0047aa83          	lw	s5,4(a5)
80006072:	5782                	lw	a5,32(sp)
80006074:	2407df63          	bgez	a5,800062d2 <_dtoa_r+0x6e2>
80006078:	25a04d63          	bgtz	s10,800062d2 <_dtoa_r+0x6e2>
8000607c:	560d1063          	bnez	s10,800065dc <_dtoa_r+0x9ec>
80006080:	0fffa797          	auipc	a5,0xfffa
80006084:	1a078793          	addi	a5,a5,416 # 90000220 <_impure_ptr+0x44>
80006088:	4390                	lw	a2,0(a5)
8000608a:	43d4                	lw	a3,4(a5)
8000608c:	8552                	mv	a0,s4
8000608e:	85d6                	mv	a1,s5
80006090:	345020ef          	jal	ra,80008bd4 <__muldf3>
80006094:	864e                	mv	a2,s3
80006096:	86da                	mv	a3,s6
80006098:	1f1020ef          	jal	ra,80008a88 <__gedf2>
8000609c:	4a01                	li	s4,0
8000609e:	4901                	li	s2,0
800060a0:	50055663          	bgez	a0,800065ac <_dtoa_r+0x9bc>
800060a4:	47b2                	lw	a5,12(sp)
800060a6:	4732                	lw	a4,12(sp)
800060a8:	0d85                	addi	s11,s11,1
800060aa:	00178993          	addi	s3,a5,1
800060ae:	03100793          	li	a5,49
800060b2:	00f70023          	sb	a5,0(a4)
800060b6:	a9fd                	j	800065b4 <_dtoa_r+0x9c4>
800060b8:	00197693          	andi	a3,s2,1
800060bc:	ce81                	beqz	a3,800060d4 <_dtoa_r+0x4e4>
800060be:	4310                	lw	a2,0(a4)
800060c0:	4354                	lw	a3,4(a4)
800060c2:	853e                	mv	a0,a5
800060c4:	85d6                	mv	a1,s5
800060c6:	cc3a                	sw	a4,24(sp)
800060c8:	30d020ef          	jal	ra,80008bd4 <__muldf3>
800060cc:	4762                	lw	a4,24(sp)
800060ce:	0a05                	addi	s4,s4,1
800060d0:	87aa                	mv	a5,a0
800060d2:	8aae                	mv	s5,a1
800060d4:	40195913          	srai	s2,s2,0x1
800060d8:	0721                	addi	a4,a4,8
800060da:	b54d                	j	80005f7c <_dtoa_r+0x38c>
800060dc:	4a09                	li	s4,2
800060de:	ea0d89e3          	beqz	s11,80005f90 <_dtoa_r+0x3a0>
800060e2:	41b00933          	neg	s2,s11
800060e6:	00f97793          	andi	a5,s2,15
800060ea:	00379713          	slli	a4,a5,0x3
800060ee:	00004797          	auipc	a5,0x4
800060f2:	38278793          	addi	a5,a5,898 # 8000a470 <__mprec_tens>
800060f6:	97ba                	add	a5,a5,a4
800060f8:	4390                	lw	a2,0(a5)
800060fa:	43d4                	lw	a3,4(a5)
800060fc:	5532                	lw	a0,44(sp)
800060fe:	55c2                	lw	a1,48(sp)
80006100:	40495913          	srai	s2,s2,0x4
80006104:	00004a97          	auipc	s5,0x4
80006108:	344a8a93          	addi	s5,s5,836 # 8000a448 <__mprec_bigtens>
8000610c:	2c9020ef          	jal	ra,80008bd4 <__muldf3>
80006110:	87aa                	mv	a5,a0
80006112:	89aa                	mv	s3,a0
80006114:	8b2e                	mv	s6,a1
80006116:	4701                	li	a4,0
80006118:	00091663          	bnez	s2,80006124 <_dtoa_r+0x534>
8000611c:	e6070ae3          	beqz	a4,80005f90 <_dtoa_r+0x3a0>
80006120:	89be                	mv	s3,a5
80006122:	b5b5                	j	80005f8e <_dtoa_r+0x39e>
80006124:	00197693          	andi	a3,s2,1
80006128:	ca99                	beqz	a3,8000613e <_dtoa_r+0x54e>
8000612a:	000aa603          	lw	a2,0(s5)
8000612e:	004aa683          	lw	a3,4(s5)
80006132:	853e                	mv	a0,a5
80006134:	0a05                	addi	s4,s4,1
80006136:	29f020ef          	jal	ra,80008bd4 <__muldf3>
8000613a:	87aa                	mv	a5,a0
8000613c:	4705                	li	a4,1
8000613e:	40195913          	srai	s2,s2,0x1
80006142:	0aa1                	addi	s5,s5,8
80006144:	bfd1                	j	80006118 <_dtoa_r+0x528>
80006146:	cc6e                	sw	s11,24(sp)
80006148:	87ea                	mv	a5,s10
8000614a:	bd41                	j	80005fda <_dtoa_r+0x3ea>
8000614c:	cc6e                	sw	s11,24(sp)
8000614e:	4781                	li	a5,0
80006150:	b569                	j	80005fda <_dtoa_r+0x3ea>
80006152:	45b2                	lw	a1,12(sp)
80006154:	fff78693          	addi	a3,a5,-1
80006158:	00369613          	slli	a2,a3,0x3
8000615c:	97ae                	add	a5,a5,a1
8000615e:	de3e                	sw	a5,60(sp)
80006160:	47f2                	lw	a5,28(sp)
80006162:	00004697          	auipc	a3,0x4
80006166:	30e68693          	addi	a3,a3,782 # 8000a470 <__mprec_tens>
8000616a:	96b2                	add	a3,a3,a2
8000616c:	4290                	lw	a2,0(a3)
8000616e:	42d4                	lw	a3,4(a3)
80006170:	cbc5                	beqz	a5,80006220 <_dtoa_r+0x630>
80006172:	0fffa797          	auipc	a5,0xfffa
80006176:	0b678793          	addi	a5,a5,182 # 90000228 <_impure_ptr+0x4c>
8000617a:	4388                	lw	a0,0(a5)
8000617c:	43cc                	lw	a1,4(a5)
8000617e:	c2d2                	sw	s4,68(sp)
80006180:	35e020ef          	jal	ra,800084de <__divdf3>
80006184:	8652                	mv	a2,s4
80006186:	86ce                	mv	a3,s3
80006188:	68f020ef          	jal	ra,80009016 <__subdf3>
8000618c:	49b2                	lw	s3,12(sp)
8000618e:	8a2a                	mv	s4,a0
80006190:	8b2e                	mv	s6,a1
80006192:	85ca                	mv	a1,s2
80006194:	8556                	mv	a0,s5
80006196:	4d6030ef          	jal	ra,8000966c <__fixdfsi>
8000619a:	c2aa                	sw	a0,68(sp)
8000619c:	534030ef          	jal	ra,800096d0 <__floatsidf>
800061a0:	862a                	mv	a2,a0
800061a2:	86ae                	mv	a3,a1
800061a4:	8556                	mv	a0,s5
800061a6:	85ca                	mv	a1,s2
800061a8:	66f020ef          	jal	ra,80009016 <__subdf3>
800061ac:	4796                	lw	a5,68(sp)
800061ae:	0985                	addi	s3,s3,1
800061b0:	8652                	mv	a2,s4
800061b2:	03078793          	addi	a5,a5,48
800061b6:	fef98fa3          	sb	a5,-1(s3) # fcbfffff <_sp+0x6cbeffff>
800061ba:	86da                	mv	a3,s6
800061bc:	892a                	mv	s2,a0
800061be:	8aae                	mv	s5,a1
800061c0:	16f020ef          	jal	ra,80008b2e <__ledf2>
800061c4:	0e054a63          	bltz	a0,800062b8 <_dtoa_r+0x6c8>
800061c8:	0fffa797          	auipc	a5,0xfffa
800061cc:	04078793          	addi	a5,a5,64 # 90000208 <_impure_ptr+0x2c>
800061d0:	4388                	lw	a0,0(a5)
800061d2:	43cc                	lw	a1,4(a5)
800061d4:	864a                	mv	a2,s2
800061d6:	86d6                	mv	a3,s5
800061d8:	63f020ef          	jal	ra,80009016 <__subdf3>
800061dc:	8652                	mv	a2,s4
800061de:	86da                	mv	a3,s6
800061e0:	14f020ef          	jal	ra,80008b2e <__ledf2>
800061e4:	18054563          	bltz	a0,8000636e <_dtoa_r+0x77e>
800061e8:	57f2                	lw	a5,60(sp)
800061ea:	e6f981e3          	beq	s3,a5,8000604c <_dtoa_r+0x45c>
800061ee:	0fffa797          	auipc	a5,0xfffa
800061f2:	02278793          	addi	a5,a5,34 # 90000210 <_impure_ptr+0x34>
800061f6:	4390                	lw	a2,0(a5)
800061f8:	43d4                	lw	a3,4(a5)
800061fa:	8552                	mv	a0,s4
800061fc:	85da                	mv	a1,s6
800061fe:	1d7020ef          	jal	ra,80008bd4 <__muldf3>
80006202:	0fffa797          	auipc	a5,0xfffa
80006206:	00e78793          	addi	a5,a5,14 # 90000210 <_impure_ptr+0x34>
8000620a:	4390                	lw	a2,0(a5)
8000620c:	43d4                	lw	a3,4(a5)
8000620e:	8a2a                	mv	s4,a0
80006210:	8b2e                	mv	s6,a1
80006212:	854a                	mv	a0,s2
80006214:	85d6                	mv	a1,s5
80006216:	1bf020ef          	jal	ra,80008bd4 <__muldf3>
8000621a:	8aaa                	mv	s5,a0
8000621c:	892e                	mv	s2,a1
8000621e:	bf95                	j	80006192 <_dtoa_r+0x5a2>
80006220:	85ce                	mv	a1,s3
80006222:	8552                	mv	a0,s4
80006224:	1b1020ef          	jal	ra,80008bd4 <__muldf3>
80006228:	5b72                	lw	s6,60(sp)
8000622a:	49b2                	lw	s3,12(sp)
8000622c:	c2aa                	sw	a0,68(sp)
8000622e:	c4ae                	sw	a1,72(sp)
80006230:	85ca                	mv	a1,s2
80006232:	8556                	mv	a0,s5
80006234:	438030ef          	jal	ra,8000966c <__fixdfsi>
80006238:	c6aa                	sw	a0,76(sp)
8000623a:	496030ef          	jal	ra,800096d0 <__floatsidf>
8000623e:	862a                	mv	a2,a0
80006240:	86ae                	mv	a3,a1
80006242:	8556                	mv	a0,s5
80006244:	85ca                	mv	a1,s2
80006246:	5d1020ef          	jal	ra,80009016 <__subdf3>
8000624a:	47b6                	lw	a5,76(sp)
8000624c:	0985                	addi	s3,s3,1
8000624e:	8a2a                	mv	s4,a0
80006250:	03078793          	addi	a5,a5,48
80006254:	fef98fa3          	sb	a5,-1(s3)
80006258:	57f2                	lw	a5,60(sp)
8000625a:	892e                	mv	s2,a1
8000625c:	06f99063          	bne	s3,a5,800062bc <_dtoa_r+0x6cc>
80006260:	0fffaa97          	auipc	s5,0xfffa
80006264:	fc8a8a93          	addi	s5,s5,-56 # 90000228 <_impure_ptr+0x4c>
80006268:	000aa603          	lw	a2,0(s5)
8000626c:	004aa683          	lw	a3,4(s5)
80006270:	4516                	lw	a0,68(sp)
80006272:	45a6                	lw	a1,72(sp)
80006274:	461010ef          	jal	ra,80007ed4 <__adddf3>
80006278:	862a                	mv	a2,a0
8000627a:	86ae                	mv	a3,a1
8000627c:	8552                	mv	a0,s4
8000627e:	85ca                	mv	a1,s2
80006280:	009020ef          	jal	ra,80008a88 <__gedf2>
80006284:	0ea04563          	bgtz	a0,8000636e <_dtoa_r+0x77e>
80006288:	4616                	lw	a2,68(sp)
8000628a:	46a6                	lw	a3,72(sp)
8000628c:	000aa503          	lw	a0,0(s5)
80006290:	004aa583          	lw	a1,4(s5)
80006294:	583020ef          	jal	ra,80009016 <__subdf3>
80006298:	862a                	mv	a2,a0
8000629a:	86ae                	mv	a3,a1
8000629c:	8552                	mv	a0,s4
8000629e:	85ca                	mv	a1,s2
800062a0:	08f020ef          	jal	ra,80008b2e <__ledf2>
800062a4:	da0554e3          	bgez	a0,8000604c <_dtoa_r+0x45c>
800062a8:	03000793          	li	a5,48
800062ac:	89da                	mv	s3,s6
800062ae:	fff9c703          	lbu	a4,-1(s3)
800062b2:	1b7d                	addi	s6,s6,-1
800062b4:	fef70ce3          	beq	a4,a5,800062ac <_dtoa_r+0x6bc>
800062b8:	4de2                	lw	s11,24(sp)
800062ba:	a849                	j	8000634c <_dtoa_r+0x75c>
800062bc:	0fffa797          	auipc	a5,0xfffa
800062c0:	f5478793          	addi	a5,a5,-172 # 90000210 <_impure_ptr+0x34>
800062c4:	4390                	lw	a2,0(a5)
800062c6:	43d4                	lw	a3,4(a5)
800062c8:	10d020ef          	jal	ra,80008bd4 <__muldf3>
800062cc:	8aaa                	mv	s5,a0
800062ce:	892e                	mv	s2,a1
800062d0:	b785                	j	80006230 <_dtoa_r+0x640>
800062d2:	47b2                	lw	a5,12(sp)
800062d4:	8c5a                	mv	s8,s6
800062d6:	8cce                	mv	s9,s3
800062d8:	00178b13          	addi	s6,a5,1
800062dc:	9d3e                	add	s10,s10,a5
800062de:	0fffab97          	auipc	s7,0xfffa
800062e2:	f32b8b93          	addi	s7,s7,-206 # 90000210 <_impure_ptr+0x34>
800062e6:	8652                	mv	a2,s4
800062e8:	86d6                	mv	a3,s5
800062ea:	8566                	mv	a0,s9
800062ec:	85e2                	mv	a1,s8
800062ee:	1f0020ef          	jal	ra,800084de <__divdf3>
800062f2:	37a030ef          	jal	ra,8000966c <__fixdfsi>
800062f6:	892a                	mv	s2,a0
800062f8:	3d8030ef          	jal	ra,800096d0 <__floatsidf>
800062fc:	8652                	mv	a2,s4
800062fe:	86d6                	mv	a3,s5
80006300:	0d5020ef          	jal	ra,80008bd4 <__muldf3>
80006304:	86ae                	mv	a3,a1
80006306:	862a                	mv	a2,a0
80006308:	85e2                	mv	a1,s8
8000630a:	8566                	mv	a0,s9
8000630c:	50b020ef          	jal	ra,80009016 <__subdf3>
80006310:	03090693          	addi	a3,s2,48
80006314:	fedb0fa3          	sb	a3,-1(s6)
80006318:	89da                	mv	s3,s6
8000631a:	096d1363          	bne	s10,s6,800063a0 <_dtoa_r+0x7b0>
8000631e:	862a                	mv	a2,a0
80006320:	86ae                	mv	a3,a1
80006322:	3b3010ef          	jal	ra,80007ed4 <__adddf3>
80006326:	8652                	mv	a2,s4
80006328:	86d6                	mv	a3,s5
8000632a:	8baa                	mv	s7,a0
8000632c:	8b2e                	mv	s6,a1
8000632e:	75a020ef          	jal	ra,80008a88 <__gedf2>
80006332:	02a04d63          	bgtz	a0,8000636c <_dtoa_r+0x77c>
80006336:	8652                	mv	a2,s4
80006338:	86d6                	mv	a3,s5
8000633a:	855e                	mv	a0,s7
8000633c:	85da                	mv	a1,s6
8000633e:	6e0020ef          	jal	ra,80008a1e <__eqdf2>
80006342:	e509                	bnez	a0,8000634c <_dtoa_r+0x75c>
80006344:	00197913          	andi	s2,s2,1
80006348:	02091263          	bnez	s2,8000636c <_dtoa_r+0x77c>
8000634c:	8526                	mv	a0,s1
8000634e:	85a2                	mv	a1,s0
80006350:	429000ef          	jal	ra,80006f78 <_Bfree>
80006354:	57e2                	lw	a5,56(sp)
80006356:	00098023          	sb	zero,0(s3)
8000635a:	001d8513          	addi	a0,s11,1
8000635e:	c388                	sw	a0,0(a5)
80006360:	5792                	lw	a5,36(sp)
80006362:	94078ce3          	beqz	a5,80005cba <_dtoa_r+0xca>
80006366:	0137a023          	sw	s3,0(a5)
8000636a:	ba81                	j	80005cba <_dtoa_r+0xca>
8000636c:	cc6e                	sw	s11,24(sp)
8000636e:	87ce                	mv	a5,s3
80006370:	03900713          	li	a4,57
80006374:	89be                	mv	s3,a5
80006376:	fff7c683          	lbu	a3,-1(a5)
8000637a:	17fd                	addi	a5,a5,-1
8000637c:	00e69c63          	bne	a3,a4,80006394 <_dtoa_r+0x7a4>
80006380:	46b2                	lw	a3,12(sp)
80006382:	fef699e3          	bne	a3,a5,80006374 <_dtoa_r+0x784>
80006386:	4762                	lw	a4,24(sp)
80006388:	0705                	addi	a4,a4,1
8000638a:	cc3a                	sw	a4,24(sp)
8000638c:	03000713          	li	a4,48
80006390:	00e68023          	sb	a4,0(a3)
80006394:	0007c703          	lbu	a4,0(a5)
80006398:	0705                	addi	a4,a4,1
8000639a:	00e78023          	sb	a4,0(a5)
8000639e:	bf29                	j	800062b8 <_dtoa_r+0x6c8>
800063a0:	000ba603          	lw	a2,0(s7)
800063a4:	004ba683          	lw	a3,4(s7)
800063a8:	0b05                	addi	s6,s6,1
800063aa:	02b020ef          	jal	ra,80008bd4 <__muldf3>
800063ae:	4601                	li	a2,0
800063b0:	4681                	li	a3,0
800063b2:	8caa                	mv	s9,a0
800063b4:	8c2e                	mv	s8,a1
800063b6:	668020ef          	jal	ra,80008a1e <__eqdf2>
800063ba:	f515                	bnez	a0,800062e6 <_dtoa_r+0x6f6>
800063bc:	bf41                	j	8000634c <_dtoa_r+0x75c>
800063be:	4772                	lw	a4,28(sp)
800063c0:	10070063          	beqz	a4,800064c0 <_dtoa_r+0x8d0>
800063c4:	46d2                	lw	a3,20(sp)
800063c6:	4705                	li	a4,1
800063c8:	0cd74563          	blt	a4,a3,80006492 <_dtoa_r+0x8a2>
800063cc:	4706                	lw	a4,64(sp)
800063ce:	43378793          	addi	a5,a5,1075
800063d2:	e709                	bnez	a4,800063dc <_dtoa_r+0x7ec>
800063d4:	4766                	lw	a4,88(sp)
800063d6:	03600793          	li	a5,54
800063da:	8f99                	sub	a5,a5,a4
800063dc:	8a66                	mv	s4,s9
800063de:	8ade                	mv	s5,s7
800063e0:	4585                	li	a1,1
800063e2:	8526                	mv	a0,s1
800063e4:	9bbe                	add	s7,s7,a5
800063e6:	9c3e                	add	s8,s8,a5
800063e8:	547000ef          	jal	ra,8000712e <__i2b>
800063ec:	892a                	mv	s2,a0
800063ee:	01505e63          	blez	s5,8000640a <_dtoa_r+0x81a>
800063f2:	01805c63          	blez	s8,8000640a <_dtoa_r+0x81a>
800063f6:	87d6                	mv	a5,s5
800063f8:	015c5363          	bge	s8,s5,800063fe <_dtoa_r+0x80e>
800063fc:	87e2                	mv	a5,s8
800063fe:	40fb8bb3          	sub	s7,s7,a5
80006402:	40fa8ab3          	sub	s5,s5,a5
80006406:	40fc0c33          	sub	s8,s8,a5
8000640a:	040c8163          	beqz	s9,8000644c <_dtoa_r+0x85c>
8000640e:	47f2                	lw	a5,28(sp)
80006410:	cfc5                	beqz	a5,800064c8 <_dtoa_r+0x8d8>
80006412:	03405463          	blez	s4,8000643a <_dtoa_r+0x84a>
80006416:	85ca                	mv	a1,s2
80006418:	8652                	mv	a2,s4
8000641a:	8526                	mv	a0,s1
8000641c:	6cb000ef          	jal	ra,800072e6 <__pow5mult>
80006420:	8622                	mv	a2,s0
80006422:	85aa                	mv	a1,a0
80006424:	892a                	mv	s2,a0
80006426:	8526                	mv	a0,s1
80006428:	53f000ef          	jal	ra,80007166 <__multiply>
8000642c:	cc2a                	sw	a0,24(sp)
8000642e:	85a2                	mv	a1,s0
80006430:	8526                	mv	a0,s1
80006432:	347000ef          	jal	ra,80006f78 <_Bfree>
80006436:	47e2                	lw	a5,24(sp)
80006438:	843e                	mv	s0,a5
8000643a:	414c8633          	sub	a2,s9,s4
8000643e:	014c8763          	beq	s9,s4,8000644c <_dtoa_r+0x85c>
80006442:	85a2                	mv	a1,s0
80006444:	8526                	mv	a0,s1
80006446:	6a1000ef          	jal	ra,800072e6 <__pow5mult>
8000644a:	842a                	mv	s0,a0
8000644c:	4585                	li	a1,1
8000644e:	8526                	mv	a0,s1
80006450:	4df000ef          	jal	ra,8000712e <__i2b>
80006454:	57a2                	lw	a5,40(sp)
80006456:	8a2a                	mv	s4,a0
80006458:	06f05a63          	blez	a5,800064cc <_dtoa_r+0x8dc>
8000645c:	863e                	mv	a2,a5
8000645e:	85aa                	mv	a1,a0
80006460:	8526                	mv	a0,s1
80006462:	685000ef          	jal	ra,800072e6 <__pow5mult>
80006466:	4752                	lw	a4,20(sp)
80006468:	4785                	li	a5,1
8000646a:	8a2a                	mv	s4,a0
8000646c:	4c81                	li	s9,0
8000646e:	06e7c763          	blt	a5,a4,800064dc <_dtoa_r+0x8ec>
80006472:	4c81                	li	s9,0
80006474:	06099163          	bnez	s3,800064d6 <_dtoa_r+0x8e6>
80006478:	00cb1793          	slli	a5,s6,0xc
8000647c:	efa9                	bnez	a5,800064d6 <_dtoa_r+0x8e6>
8000647e:	7ff005b7          	lui	a1,0x7ff00
80006482:	00bb7b33          	and	s6,s6,a1
80006486:	040b0863          	beqz	s6,800064d6 <_dtoa_r+0x8e6>
8000648a:	0b85                	addi	s7,s7,1
8000648c:	0c05                	addi	s8,s8,1
8000648e:	4c85                	li	s9,1
80006490:	a099                	j	800064d6 <_dtoa_r+0x8e6>
80006492:	fffd0a13          	addi	s4,s10,-1
80006496:	014cca63          	blt	s9,s4,800064aa <_dtoa_r+0x8ba>
8000649a:	414c8a33          	sub	s4,s9,s4
8000649e:	000d5e63          	bgez	s10,800064ba <_dtoa_r+0x8ca>
800064a2:	41ab8ab3          	sub	s5,s7,s10
800064a6:	4781                	li	a5,0
800064a8:	bf25                	j	800063e0 <_dtoa_r+0x7f0>
800064aa:	57a2                	lw	a5,40(sp)
800064ac:	419a0cb3          	sub	s9,s4,s9
800064b0:	97e6                	add	a5,a5,s9
800064b2:	d43e                	sw	a5,40(sp)
800064b4:	8cd2                	mv	s9,s4
800064b6:	4a01                	li	s4,0
800064b8:	b7dd                	j	8000649e <_dtoa_r+0x8ae>
800064ba:	8ade                	mv	s5,s7
800064bc:	87ea                	mv	a5,s10
800064be:	b70d                	j	800063e0 <_dtoa_r+0x7f0>
800064c0:	8a66                	mv	s4,s9
800064c2:	8ade                	mv	s5,s7
800064c4:	4901                	li	s2,0
800064c6:	b725                	j	800063ee <_dtoa_r+0x7fe>
800064c8:	8666                	mv	a2,s9
800064ca:	bfa5                	j	80006442 <_dtoa_r+0x852>
800064cc:	4752                	lw	a4,20(sp)
800064ce:	4785                	li	a5,1
800064d0:	4c81                	li	s9,0
800064d2:	fae7d0e3          	bge	a5,a4,80006472 <_dtoa_r+0x882>
800064d6:	57a2                	lw	a5,40(sp)
800064d8:	4505                	li	a0,1
800064da:	cf89                	beqz	a5,800064f4 <_dtoa_r+0x904>
800064dc:	010a2783          	lw	a5,16(s4)
800064e0:	078d                	addi	a5,a5,3
800064e2:	078a                	slli	a5,a5,0x2
800064e4:	97d2                	add	a5,a5,s4
800064e6:	43c8                	lw	a0,4(a5)
800064e8:	397000ef          	jal	ra,8000707e <__hi0bits>
800064ec:	02000793          	li	a5,32
800064f0:	40a78533          	sub	a0,a5,a0
800064f4:	9562                	add	a0,a0,s8
800064f6:	897d                	andi	a0,a0,31
800064f8:	c151                	beqz	a0,8000657c <_dtoa_r+0x98c>
800064fa:	02000793          	li	a5,32
800064fe:	8f89                	sub	a5,a5,a0
80006500:	4711                	li	a4,4
80006502:	06f75a63          	bge	a4,a5,80006576 <_dtoa_r+0x986>
80006506:	47f1                	li	a5,28
80006508:	40a78533          	sub	a0,a5,a0
8000650c:	9baa                	add	s7,s7,a0
8000650e:	9aaa                	add	s5,s5,a0
80006510:	9c2a                	add	s8,s8,a0
80006512:	01705863          	blez	s7,80006522 <_dtoa_r+0x932>
80006516:	85a2                	mv	a1,s0
80006518:	865e                	mv	a2,s7
8000651a:	8526                	mv	a0,s1
8000651c:	689000ef          	jal	ra,800073a4 <__lshift>
80006520:	842a                	mv	s0,a0
80006522:	01805863          	blez	s8,80006532 <_dtoa_r+0x942>
80006526:	85d2                	mv	a1,s4
80006528:	8662                	mv	a2,s8
8000652a:	8526                	mv	a0,s1
8000652c:	679000ef          	jal	ra,800073a4 <__lshift>
80006530:	8a2a                	mv	s4,a0
80006532:	57d2                	lw	a5,52(sp)
80006534:	c7b1                	beqz	a5,80006580 <_dtoa_r+0x990>
80006536:	85d2                	mv	a1,s4
80006538:	8522                	mv	a0,s0
8000653a:	76f000ef          	jal	ra,800074a8 <__mcmp>
8000653e:	04055163          	bgez	a0,80006580 <_dtoa_r+0x990>
80006542:	85a2                	mv	a1,s0
80006544:	4681                	li	a3,0
80006546:	4629                	li	a2,10
80006548:	8526                	mv	a0,s1
8000654a:	275000ef          	jal	ra,80006fbe <__multadd>
8000654e:	47f2                	lw	a5,28(sp)
80006550:	1dfd                	addi	s11,s11,-1
80006552:	842a                	mv	s0,a0
80006554:	28078d63          	beqz	a5,800067ee <_dtoa_r+0xbfe>
80006558:	85ca                	mv	a1,s2
8000655a:	4681                	li	a3,0
8000655c:	4629                	li	a2,10
8000655e:	8526                	mv	a0,s1
80006560:	25f000ef          	jal	ra,80006fbe <__multadd>
80006564:	47c2                	lw	a5,16(sp)
80006566:	892a                	mv	s2,a0
80006568:	08f04563          	bgtz	a5,800065f2 <_dtoa_r+0xa02>
8000656c:	4752                	lw	a4,20(sp)
8000656e:	4789                	li	a5,2
80006570:	00e7cf63          	blt	a5,a4,8000658e <_dtoa_r+0x99e>
80006574:	a8bd                	j	800065f2 <_dtoa_r+0xa02>
80006576:	f8e78ee3          	beq	a5,a4,80006512 <_dtoa_r+0x922>
8000657a:	853e                	mv	a0,a5
8000657c:	0571                	addi	a0,a0,28
8000657e:	b779                	j	8000650c <_dtoa_r+0x91c>
80006580:	07a04563          	bgtz	s10,800065ea <_dtoa_r+0x9fa>
80006584:	4752                	lw	a4,20(sp)
80006586:	4789                	li	a5,2
80006588:	06e7d163          	bge	a5,a4,800065ea <_dtoa_r+0x9fa>
8000658c:	c86a                	sw	s10,16(sp)
8000658e:	47c2                	lw	a5,16(sp)
80006590:	ef91                	bnez	a5,800065ac <_dtoa_r+0x9bc>
80006592:	85d2                	mv	a1,s4
80006594:	4681                	li	a3,0
80006596:	4615                	li	a2,5
80006598:	8526                	mv	a0,s1
8000659a:	225000ef          	jal	ra,80006fbe <__multadd>
8000659e:	8a2a                	mv	s4,a0
800065a0:	85aa                	mv	a1,a0
800065a2:	8522                	mv	a0,s0
800065a4:	705000ef          	jal	ra,800074a8 <__mcmp>
800065a8:	aea04ee3          	bgtz	a0,800060a4 <_dtoa_r+0x4b4>
800065ac:	5782                	lw	a5,32(sp)
800065ae:	49b2                	lw	s3,12(sp)
800065b0:	fff7cd93          	not	s11,a5
800065b4:	4b01                	li	s6,0
800065b6:	85d2                	mv	a1,s4
800065b8:	8526                	mv	a0,s1
800065ba:	1bf000ef          	jal	ra,80006f78 <_Bfree>
800065be:	d80907e3          	beqz	s2,8000634c <_dtoa_r+0x75c>
800065c2:	000b0863          	beqz	s6,800065d2 <_dtoa_r+0x9e2>
800065c6:	012b0663          	beq	s6,s2,800065d2 <_dtoa_r+0x9e2>
800065ca:	85da                	mv	a1,s6
800065cc:	8526                	mv	a0,s1
800065ce:	1ab000ef          	jal	ra,80006f78 <_Bfree>
800065d2:	85ca                	mv	a1,s2
800065d4:	8526                	mv	a0,s1
800065d6:	1a3000ef          	jal	ra,80006f78 <_Bfree>
800065da:	bb8d                	j	8000634c <_dtoa_r+0x75c>
800065dc:	4a01                	li	s4,0
800065de:	4901                	li	s2,0
800065e0:	b7f1                	j	800065ac <_dtoa_r+0x9bc>
800065e2:	4de2                	lw	s11,24(sp)
800065e4:	4a01                	li	s4,0
800065e6:	4901                	li	s2,0
800065e8:	bc75                	j	800060a4 <_dtoa_r+0x4b4>
800065ea:	47f2                	lw	a5,28(sp)
800065ec:	c86a                	sw	s10,16(sp)
800065ee:	20078763          	beqz	a5,800067fc <_dtoa_r+0xc0c>
800065f2:	01505863          	blez	s5,80006602 <_dtoa_r+0xa12>
800065f6:	85ca                	mv	a1,s2
800065f8:	8656                	mv	a2,s5
800065fa:	8526                	mv	a0,s1
800065fc:	5a9000ef          	jal	ra,800073a4 <__lshift>
80006600:	892a                	mv	s2,a0
80006602:	854a                	mv	a0,s2
80006604:	040c8063          	beqz	s9,80006644 <_dtoa_r+0xa54>
80006608:	00492583          	lw	a1,4(s2)
8000660c:	8526                	mv	a0,s1
8000660e:	0d9000ef          	jal	ra,80006ee6 <_Balloc>
80006612:	8aaa                	mv	s5,a0
80006614:	e911                	bnez	a0,80006628 <_dtoa_r+0xa38>
80006616:	00004697          	auipc	a3,0x4
8000661a:	cf268693          	addi	a3,a3,-782 # 8000a308 <__clz_tab+0x1a4>
8000661e:	4601                	li	a2,0
80006620:	2ea00593          	li	a1,746
80006624:	8b9ff06f          	j	80005edc <_dtoa_r+0x2ec>
80006628:	01092603          	lw	a2,16(s2)
8000662c:	00c90593          	addi	a1,s2,12
80006630:	0531                	addi	a0,a0,12
80006632:	0609                	addi	a2,a2,2
80006634:	060a                	slli	a2,a2,0x2
80006636:	734000ef          	jal	ra,80006d6a <memcpy>
8000663a:	4605                	li	a2,1
8000663c:	85d6                	mv	a1,s5
8000663e:	8526                	mv	a0,s1
80006640:	565000ef          	jal	ra,800073a4 <__lshift>
80006644:	47b2                	lw	a5,12(sp)
80006646:	4742                	lw	a4,16(sp)
80006648:	8b4a                	mv	s6,s2
8000664a:	00178c13          	addi	s8,a5,1
8000664e:	97ba                	add	a5,a5,a4
80006650:	cc3e                	sw	a5,24(sp)
80006652:	0019f793          	andi	a5,s3,1
80006656:	892a                	mv	s2,a0
80006658:	c83e                	sw	a5,16(sp)
8000665a:	85d2                	mv	a1,s4
8000665c:	8522                	mv	a0,s0
8000665e:	c66ff0ef          	jal	ra,80005ac4 <quorem>
80006662:	85da                	mv	a1,s6
80006664:	8caa                	mv	s9,a0
80006666:	03050a93          	addi	s5,a0,48
8000666a:	8522                	mv	a0,s0
8000666c:	63d000ef          	jal	ra,800074a8 <__mcmp>
80006670:	85d2                	mv	a1,s4
80006672:	8baa                	mv	s7,a0
80006674:	864a                	mv	a2,s2
80006676:	8526                	mv	a0,s1
80006678:	667000ef          	jal	ra,800074de <__mdiff>
8000667c:	4554                	lw	a3,12(a0)
8000667e:	fffc0d13          	addi	s10,s8,-1
80006682:	85aa                	mv	a1,a0
80006684:	4705                	li	a4,1
80006686:	e699                	bnez	a3,80006694 <_dtoa_r+0xaa4>
80006688:	ce2a                	sw	a0,28(sp)
8000668a:	8522                	mv	a0,s0
8000668c:	61d000ef          	jal	ra,800074a8 <__mcmp>
80006690:	45f2                	lw	a1,28(sp)
80006692:	872a                	mv	a4,a0
80006694:	8526                	mv	a0,s1
80006696:	ce3a                	sw	a4,28(sp)
80006698:	0e1000ef          	jal	ra,80006f78 <_Bfree>
8000669c:	47d2                	lw	a5,20(sp)
8000669e:	4772                	lw	a4,28(sp)
800066a0:	89e2                	mv	s3,s8
800066a2:	00e7e6b3          	or	a3,a5,a4
800066a6:	47c2                	lw	a5,16(sp)
800066a8:	8edd                	or	a3,a3,a5
800066aa:	ee81                	bnez	a3,800066c2 <_dtoa_r+0xad2>
800066ac:	03900713          	li	a4,57
800066b0:	04ea8863          	beq	s5,a4,80006700 <_dtoa_r+0xb10>
800066b4:	01705463          	blez	s7,800066bc <_dtoa_r+0xacc>
800066b8:	031c8a93          	addi	s5,s9,49
800066bc:	015d0023          	sb	s5,0(s10)
800066c0:	bddd                	j	800065b6 <_dtoa_r+0x9c6>
800066c2:	000bca63          	bltz	s7,800066d6 <_dtoa_r+0xae6>
800066c6:	47d2                	lw	a5,20(sp)
800066c8:	0177ebb3          	or	s7,a5,s7
800066cc:	47c2                	lw	a5,16(sp)
800066ce:	00fbebb3          	or	s7,s7,a5
800066d2:	040b9863          	bnez	s7,80006722 <_dtoa_r+0xb32>
800066d6:	fee053e3          	blez	a4,800066bc <_dtoa_r+0xacc>
800066da:	85a2                	mv	a1,s0
800066dc:	4605                	li	a2,1
800066de:	8526                	mv	a0,s1
800066e0:	4c5000ef          	jal	ra,800073a4 <__lshift>
800066e4:	85d2                	mv	a1,s4
800066e6:	842a                	mv	s0,a0
800066e8:	5c1000ef          	jal	ra,800074a8 <__mcmp>
800066ec:	00a04663          	bgtz	a0,800066f8 <_dtoa_r+0xb08>
800066f0:	f571                	bnez	a0,800066bc <_dtoa_r+0xacc>
800066f2:	001af713          	andi	a4,s5,1
800066f6:	d379                	beqz	a4,800066bc <_dtoa_r+0xacc>
800066f8:	03900713          	li	a4,57
800066fc:	faea9ee3          	bne	s5,a4,800066b8 <_dtoa_r+0xac8>
80006700:	03900793          	li	a5,57
80006704:	00fd0023          	sb	a5,0(s10)
80006708:	87ce                	mv	a5,s3
8000670a:	03900693          	li	a3,57
8000670e:	89be                	mv	s3,a5
80006710:	fff9c703          	lbu	a4,-1(s3)
80006714:	17fd                	addi	a5,a5,-1
80006716:	0ad70563          	beq	a4,a3,800067c0 <_dtoa_r+0xbd0>
8000671a:	0705                	addi	a4,a4,1
8000671c:	00e78023          	sb	a4,0(a5)
80006720:	bd59                	j	800065b6 <_dtoa_r+0x9c6>
80006722:	00e05b63          	blez	a4,80006738 <_dtoa_r+0xb48>
80006726:	03900713          	li	a4,57
8000672a:	fcea8be3          	beq	s5,a4,80006700 <_dtoa_r+0xb10>
8000672e:	001a8793          	addi	a5,s5,1
80006732:	00fd0023          	sb	a5,0(s10)
80006736:	b541                	j	800065b6 <_dtoa_r+0x9c6>
80006738:	47e2                	lw	a5,24(sp)
8000673a:	ff5c0fa3          	sb	s5,-1(s8)
8000673e:	05878863          	beq	a5,s8,8000678e <_dtoa_r+0xb9e>
80006742:	85a2                	mv	a1,s0
80006744:	4681                	li	a3,0
80006746:	4629                	li	a2,10
80006748:	8526                	mv	a0,s1
8000674a:	075000ef          	jal	ra,80006fbe <__multadd>
8000674e:	842a                	mv	s0,a0
80006750:	4681                	li	a3,0
80006752:	4629                	li	a2,10
80006754:	85da                	mv	a1,s6
80006756:	8526                	mv	a0,s1
80006758:	012b1863          	bne	s6,s2,80006768 <_dtoa_r+0xb78>
8000675c:	063000ef          	jal	ra,80006fbe <__multadd>
80006760:	8b2a                	mv	s6,a0
80006762:	892a                	mv	s2,a0
80006764:	0c05                	addi	s8,s8,1
80006766:	bdd5                	j	8000665a <_dtoa_r+0xa6a>
80006768:	057000ef          	jal	ra,80006fbe <__multadd>
8000676c:	85ca                	mv	a1,s2
8000676e:	8b2a                	mv	s6,a0
80006770:	4681                	li	a3,0
80006772:	4629                	li	a2,10
80006774:	8526                	mv	a0,s1
80006776:	049000ef          	jal	ra,80006fbe <__multadd>
8000677a:	892a                	mv	s2,a0
8000677c:	b7e5                	j	80006764 <_dtoa_r+0xb74>
8000677e:	47c2                	lw	a5,16(sp)
80006780:	4985                	li	s3,1
80006782:	00f05363          	blez	a5,80006788 <_dtoa_r+0xb98>
80006786:	89be                	mv	s3,a5
80006788:	47b2                	lw	a5,12(sp)
8000678a:	4b01                	li	s6,0
8000678c:	99be                	add	s3,s3,a5
8000678e:	85a2                	mv	a1,s0
80006790:	4605                	li	a2,1
80006792:	8526                	mv	a0,s1
80006794:	411000ef          	jal	ra,800073a4 <__lshift>
80006798:	85d2                	mv	a1,s4
8000679a:	842a                	mv	s0,a0
8000679c:	50d000ef          	jal	ra,800074a8 <__mcmp>
800067a0:	f6a044e3          	bgtz	a0,80006708 <_dtoa_r+0xb18>
800067a4:	e501                	bnez	a0,800067ac <_dtoa_r+0xbbc>
800067a6:	001af793          	andi	a5,s5,1
800067aa:	ffb9                	bnez	a5,80006708 <_dtoa_r+0xb18>
800067ac:	87ce                	mv	a5,s3
800067ae:	03000713          	li	a4,48
800067b2:	89be                	mv	s3,a5
800067b4:	fff7c683          	lbu	a3,-1(a5)
800067b8:	17fd                	addi	a5,a5,-1
800067ba:	fee68ce3          	beq	a3,a4,800067b2 <_dtoa_r+0xbc2>
800067be:	bbe5                	j	800065b6 <_dtoa_r+0x9c6>
800067c0:	4732                	lw	a4,12(sp)
800067c2:	f4f716e3          	bne	a4,a5,8000670e <_dtoa_r+0xb1e>
800067c6:	03100793          	li	a5,49
800067ca:	0d85                	addi	s11,s11,1
800067cc:	00f70023          	sb	a5,0(a4)
800067d0:	b3dd                	j	800065b6 <_dtoa_r+0x9c6>
800067d2:	5712                	lw	a4,36(sp)
800067d4:	00004797          	auipc	a5,0x4
800067d8:	b2478793          	addi	a5,a5,-1244 # 8000a2f8 <__clz_tab+0x194>
800067dc:	c63e                	sw	a5,12(sp)
800067de:	00004797          	auipc	a5,0x4
800067e2:	b2278793          	addi	a5,a5,-1246 # 8000a300 <__clz_tab+0x19c>
800067e6:	cc071863          	bnez	a4,80005cb6 <_dtoa_r+0xc6>
800067ea:	cd0ff06f          	j	80005cba <_dtoa_r+0xca>
800067ee:	47c2                	lw	a5,16(sp)
800067f0:	00f04663          	bgtz	a5,800067fc <_dtoa_r+0xc0c>
800067f4:	4752                	lw	a4,20(sp)
800067f6:	4789                	li	a5,2
800067f8:	d8e7cbe3          	blt	a5,a4,8000658e <_dtoa_r+0x99e>
800067fc:	4981                	li	s3,0
800067fe:	85d2                	mv	a1,s4
80006800:	8522                	mv	a0,s0
80006802:	ac2ff0ef          	jal	ra,80005ac4 <quorem>
80006806:	47b2                	lw	a5,12(sp)
80006808:	03050a93          	addi	s5,a0,48
8000680c:	01378733          	add	a4,a5,s3
80006810:	47c2                	lw	a5,16(sp)
80006812:	01570023          	sb	s5,0(a4)
80006816:	0985                	addi	s3,s3,1
80006818:	f6f9d3e3          	bge	s3,a5,8000677e <_dtoa_r+0xb8e>
8000681c:	85a2                	mv	a1,s0
8000681e:	4681                	li	a3,0
80006820:	4629                	li	a2,10
80006822:	8526                	mv	a0,s1
80006824:	79a000ef          	jal	ra,80006fbe <__multadd>
80006828:	842a                	mv	s0,a0
8000682a:	bfd1                	j	800067fe <_dtoa_r+0xc0e>

8000682c <__sflush_r>:
__sflush_r():
8000682c:	00c5d783          	lhu	a5,12(a1) # 7ff0000c <__stack_size+0x7feff80c>
80006830:	1101                	addi	sp,sp,-32
80006832:	cc22                	sw	s0,24(sp)
80006834:	ca26                	sw	s1,20(sp)
80006836:	ce06                	sw	ra,28(sp)
80006838:	c84a                	sw	s2,16(sp)
8000683a:	c64e                	sw	s3,12(sp)
8000683c:	0087f713          	andi	a4,a5,8
80006840:	84aa                	mv	s1,a0
80006842:	842e                	mv	s0,a1
80006844:	e37d                	bnez	a4,8000692a <__sflush_r+0xfe>
80006846:	41d8                	lw	a4,4(a1)
80006848:	00e04763          	bgtz	a4,80006856 <__sflush_r+0x2a>
8000684c:	41b8                	lw	a4,64(a1)
8000684e:	00e04463          	bgtz	a4,80006856 <__sflush_r+0x2a>
80006852:	4501                	li	a0,0
80006854:	a87d                	j	80006912 <__sflush_r+0xe6>
80006856:	5458                	lw	a4,44(s0)
80006858:	df6d                	beqz	a4,80006852 <__sflush_r+0x26>
8000685a:	6685                	lui	a3,0x1
8000685c:	0004a903          	lw	s2,0(s1)
80006860:	8ff5                	and	a5,a5,a3
80006862:	0004a023          	sw	zero,0(s1)
80006866:	cfad                	beqz	a5,800068e0 <__sflush_r+0xb4>
80006868:	4868                	lw	a0,84(s0)
8000686a:	00c45783          	lhu	a5,12(s0)
8000686e:	8b91                	andi	a5,a5,4
80006870:	c799                	beqz	a5,8000687e <__sflush_r+0x52>
80006872:	405c                	lw	a5,4(s0)
80006874:	8d1d                	sub	a0,a0,a5
80006876:	585c                	lw	a5,52(s0)
80006878:	c399                	beqz	a5,8000687e <__sflush_r+0x52>
8000687a:	403c                	lw	a5,64(s0)
8000687c:	8d1d                	sub	a0,a0,a5
8000687e:	545c                	lw	a5,44(s0)
80006880:	500c                	lw	a1,32(s0)
80006882:	862a                	mv	a2,a0
80006884:	4681                	li	a3,0
80006886:	8526                	mv	a0,s1
80006888:	9782                	jalr	a5
8000688a:	57fd                	li	a5,-1
8000688c:	00c45703          	lhu	a4,12(s0)
80006890:	00f51d63          	bne	a0,a5,800068aa <__sflush_r+0x7e>
80006894:	4094                	lw	a3,0(s1)
80006896:	47f5                	li	a5,29
80006898:	08d7e463          	bltu	a5,a3,80006920 <__sflush_r+0xf4>
8000689c:	204007b7          	lui	a5,0x20400
800068a0:	0785                	addi	a5,a5,1
800068a2:	00d7d7b3          	srl	a5,a5,a3
800068a6:	8b85                	andi	a5,a5,1
800068a8:	cfa5                	beqz	a5,80006920 <__sflush_r+0xf4>
800068aa:	481c                	lw	a5,16(s0)
800068ac:	00042223          	sw	zero,4(s0)
800068b0:	c01c                	sw	a5,0(s0)
800068b2:	6785                	lui	a5,0x1
800068b4:	8f7d                	and	a4,a4,a5
800068b6:	c719                	beqz	a4,800068c4 <__sflush_r+0x98>
800068b8:	57fd                	li	a5,-1
800068ba:	00f51463          	bne	a0,a5,800068c2 <__sflush_r+0x96>
800068be:	409c                	lw	a5,0(s1)
800068c0:	e391                	bnez	a5,800068c4 <__sflush_r+0x98>
800068c2:	c868                	sw	a0,84(s0)
800068c4:	584c                	lw	a1,52(s0)
800068c6:	0124a023          	sw	s2,0(s1)
800068ca:	d5c1                	beqz	a1,80006852 <__sflush_r+0x26>
800068cc:	04440793          	addi	a5,s0,68
800068d0:	00f58563          	beq	a1,a5,800068da <__sflush_r+0xae>
800068d4:	8526                	mv	a0,s1
800068d6:	67b000ef          	jal	ra,80007750 <_free_r>
800068da:	02042a23          	sw	zero,52(s0)
800068de:	bf95                	j	80006852 <__sflush_r+0x26>
800068e0:	500c                	lw	a1,32(s0)
800068e2:	4685                	li	a3,1
800068e4:	4601                	li	a2,0
800068e6:	8526                	mv	a0,s1
800068e8:	9702                	jalr	a4
800068ea:	57fd                	li	a5,-1
800068ec:	f6f51fe3          	bne	a0,a5,8000686a <__sflush_r+0x3e>
800068f0:	409c                	lw	a5,0(s1)
800068f2:	dfa5                	beqz	a5,8000686a <__sflush_r+0x3e>
800068f4:	4775                	li	a4,29
800068f6:	00e78563          	beq	a5,a4,80006900 <__sflush_r+0xd4>
800068fa:	4759                	li	a4,22
800068fc:	00e79563          	bne	a5,a4,80006906 <__sflush_r+0xda>
80006900:	0124a023          	sw	s2,0(s1)
80006904:	b7b9                	j	80006852 <__sflush_r+0x26>
80006906:	00c45783          	lhu	a5,12(s0)
8000690a:	0407e793          	ori	a5,a5,64
8000690e:	00f41623          	sh	a5,12(s0)
80006912:	40f2                	lw	ra,28(sp)
80006914:	4462                	lw	s0,24(sp)
80006916:	44d2                	lw	s1,20(sp)
80006918:	4942                	lw	s2,16(sp)
8000691a:	49b2                	lw	s3,12(sp)
8000691c:	6105                	addi	sp,sp,32
8000691e:	8082                	ret
80006920:	04076713          	ori	a4,a4,64
80006924:	00e41623          	sh	a4,12(s0)
80006928:	b7ed                	j	80006912 <__sflush_r+0xe6>
8000692a:	0105a983          	lw	s3,16(a1)
8000692e:	f20982e3          	beqz	s3,80006852 <__sflush_r+0x26>
80006932:	0005a903          	lw	s2,0(a1)
80006936:	8b8d                	andi	a5,a5,3
80006938:	0135a023          	sw	s3,0(a1)
8000693c:	41390933          	sub	s2,s2,s3
80006940:	4701                	li	a4,0
80006942:	e391                	bnez	a5,80006946 <__sflush_r+0x11a>
80006944:	49d8                	lw	a4,20(a1)
80006946:	c418                	sw	a4,8(s0)
80006948:	f12055e3          	blez	s2,80006852 <__sflush_r+0x26>
8000694c:	541c                	lw	a5,40(s0)
8000694e:	500c                	lw	a1,32(s0)
80006950:	86ca                	mv	a3,s2
80006952:	864e                	mv	a2,s3
80006954:	8526                	mv	a0,s1
80006956:	9782                	jalr	a5
80006958:	00a04a63          	bgtz	a0,8000696c <__sflush_r+0x140>
8000695c:	00c45783          	lhu	a5,12(s0)
80006960:	557d                	li	a0,-1
80006962:	0407e793          	ori	a5,a5,64
80006966:	00f41623          	sh	a5,12(s0)
8000696a:	b765                	j	80006912 <__sflush_r+0xe6>
8000696c:	99aa                	add	s3,s3,a0
8000696e:	40a90933          	sub	s2,s2,a0
80006972:	bfd9                	j	80006948 <__sflush_r+0x11c>

80006974 <_fflush_r>:
_fflush_r():
80006974:	499c                	lw	a5,16(a1)
80006976:	c3a5                	beqz	a5,800069d6 <_fflush_r+0x62>
80006978:	1101                	addi	sp,sp,-32
8000697a:	cc22                	sw	s0,24(sp)
8000697c:	ce06                	sw	ra,28(sp)
8000697e:	842a                	mv	s0,a0
80006980:	c511                	beqz	a0,8000698c <_fflush_r+0x18>
80006982:	4d1c                	lw	a5,24(a0)
80006984:	e781                	bnez	a5,8000698c <_fflush_r+0x18>
80006986:	c62e                	sw	a1,12(sp)
80006988:	2229                	jal	80006a92 <__sinit>
8000698a:	45b2                	lw	a1,12(sp)
8000698c:	00004797          	auipc	a5,0x4
80006990:	a0c78793          	addi	a5,a5,-1524 # 8000a398 <__sf_fake_stdin>
80006994:	00f59c63          	bne	a1,a5,800069ac <_fflush_r+0x38>
80006998:	404c                	lw	a1,4(s0)
8000699a:	00c59783          	lh	a5,12(a1)
8000699e:	c79d                	beqz	a5,800069cc <_fflush_r+0x58>
800069a0:	8522                	mv	a0,s0
800069a2:	4462                	lw	s0,24(sp)
800069a4:	40f2                	lw	ra,28(sp)
800069a6:	6105                	addi	sp,sp,32
800069a8:	e85ff06f          	j	8000682c <__sflush_r>
800069ac:	00004797          	auipc	a5,0x4
800069b0:	a0c78793          	addi	a5,a5,-1524 # 8000a3b8 <__sf_fake_stdout>
800069b4:	00f59463          	bne	a1,a5,800069bc <_fflush_r+0x48>
800069b8:	440c                	lw	a1,8(s0)
800069ba:	b7c5                	j	8000699a <_fflush_r+0x26>
800069bc:	00004797          	auipc	a5,0x4
800069c0:	9bc78793          	addi	a5,a5,-1604 # 8000a378 <__sf_fake_stderr>
800069c4:	fcf59be3          	bne	a1,a5,8000699a <_fflush_r+0x26>
800069c8:	444c                	lw	a1,12(s0)
800069ca:	bfc1                	j	8000699a <_fflush_r+0x26>
800069cc:	40f2                	lw	ra,28(sp)
800069ce:	4462                	lw	s0,24(sp)
800069d0:	4501                	li	a0,0
800069d2:	6105                	addi	sp,sp,32
800069d4:	8082                	ret
800069d6:	4501                	li	a0,0
800069d8:	8082                	ret

800069da <std>:
std():
800069da:	1141                	addi	sp,sp,-16
800069dc:	c422                	sw	s0,8(sp)
800069de:	c606                	sw	ra,12(sp)
800069e0:	842a                	mv	s0,a0
800069e2:	00b51623          	sh	a1,12(a0)
800069e6:	00c51723          	sh	a2,14(a0)
800069ea:	00052023          	sw	zero,0(a0)
800069ee:	00052223          	sw	zero,4(a0)
800069f2:	00052423          	sw	zero,8(a0)
800069f6:	06052223          	sw	zero,100(a0)
800069fa:	00052823          	sw	zero,16(a0)
800069fe:	00052a23          	sw	zero,20(a0)
80006a02:	00052c23          	sw	zero,24(a0)
80006a06:	4621                	li	a2,8
80006a08:	4581                	li	a1,0
80006a0a:	05c50513          	addi	a0,a0,92
80006a0e:	2905                	jal	80006e3e <memset>
80006a10:	00001797          	auipc	a5,0x1
80006a14:	1e478793          	addi	a5,a5,484 # 80007bf4 <__sread>
80006a18:	d05c                	sw	a5,36(s0)
80006a1a:	00001797          	auipc	a5,0x1
80006a1e:	20a78793          	addi	a5,a5,522 # 80007c24 <__swrite>
80006a22:	d41c                	sw	a5,40(s0)
80006a24:	00001797          	auipc	a5,0x1
80006a28:	24e78793          	addi	a5,a5,590 # 80007c72 <__sseek>
80006a2c:	d45c                	sw	a5,44(s0)
80006a2e:	00001797          	auipc	a5,0x1
80006a32:	27a78793          	addi	a5,a5,634 # 80007ca8 <__sclose>
80006a36:	40b2                	lw	ra,12(sp)
80006a38:	d000                	sw	s0,32(s0)
80006a3a:	d81c                	sw	a5,48(s0)
80006a3c:	4422                	lw	s0,8(sp)
80006a3e:	0141                	addi	sp,sp,16
80006a40:	8082                	ret

80006a42 <_cleanup_r>:
_cleanup_r():
80006a42:	00000597          	auipc	a1,0x0
80006a46:	f3258593          	addi	a1,a1,-206 # 80006974 <_fflush_r>
80006a4a:	aa81                	j	80006b9a <_fwalk_reent>

80006a4c <__sfmoreglue>:
__sfmoreglue():
80006a4c:	1141                	addi	sp,sp,-16
80006a4e:	c226                	sw	s1,4(sp)
80006a50:	06800613          	li	a2,104
80006a54:	fff58493          	addi	s1,a1,-1
80006a58:	02c484b3          	mul	s1,s1,a2
80006a5c:	c04a                	sw	s2,0(sp)
80006a5e:	892e                	mv	s2,a1
80006a60:	c422                	sw	s0,8(sp)
80006a62:	c606                	sw	ra,12(sp)
80006a64:	07448593          	addi	a1,s1,116
80006a68:	587000ef          	jal	ra,800077ee <_malloc_r>
80006a6c:	842a                	mv	s0,a0
80006a6e:	c919                	beqz	a0,80006a84 <__sfmoreglue+0x38>
80006a70:	00052023          	sw	zero,0(a0)
80006a74:	01252223          	sw	s2,4(a0)
80006a78:	0531                	addi	a0,a0,12
80006a7a:	c408                	sw	a0,8(s0)
80006a7c:	06848613          	addi	a2,s1,104
80006a80:	4581                	li	a1,0
80006a82:	2e75                	jal	80006e3e <memset>
80006a84:	40b2                	lw	ra,12(sp)
80006a86:	8522                	mv	a0,s0
80006a88:	4422                	lw	s0,8(sp)
80006a8a:	4492                	lw	s1,4(sp)
80006a8c:	4902                	lw	s2,0(sp)
80006a8e:	0141                	addi	sp,sp,16
80006a90:	8082                	ret

80006a92 <__sinit>:
__sinit():
80006a92:	4d1c                	lw	a5,24(a0)
80006a94:	e7a5                	bnez	a5,80006afc <__sinit+0x6a>
80006a96:	1141                	addi	sp,sp,-16
80006a98:	c422                	sw	s0,8(sp)
80006a9a:	c606                	sw	ra,12(sp)
80006a9c:	00000797          	auipc	a5,0x0
80006aa0:	fa678793          	addi	a5,a5,-90 # 80006a42 <_cleanup_r>
80006aa4:	d51c                	sw	a5,40(a0)
80006aa6:	04052423          	sw	zero,72(a0)
80006aaa:	04052623          	sw	zero,76(a0)
80006aae:	04052823          	sw	zero,80(a0)
80006ab2:	9d81a783          	lw	a5,-1576(gp) # 900003a8 <_global_impure_ptr>
80006ab6:	842a                	mv	s0,a0
80006ab8:	00f51463          	bne	a0,a5,80006ac0 <__sinit+0x2e>
80006abc:	4785                	li	a5,1
80006abe:	cd1c                	sw	a5,24(a0)
80006ac0:	8522                	mv	a0,s0
80006ac2:	2835                	jal	80006afe <__sfp>
80006ac4:	c048                	sw	a0,4(s0)
80006ac6:	8522                	mv	a0,s0
80006ac8:	281d                	jal	80006afe <__sfp>
80006aca:	c408                	sw	a0,8(s0)
80006acc:	8522                	mv	a0,s0
80006ace:	2805                	jal	80006afe <__sfp>
80006ad0:	c448                	sw	a0,12(s0)
80006ad2:	4048                	lw	a0,4(s0)
80006ad4:	4601                	li	a2,0
80006ad6:	4591                	li	a1,4
80006ad8:	f03ff0ef          	jal	ra,800069da <std>
80006adc:	4408                	lw	a0,8(s0)
80006ade:	4605                	li	a2,1
80006ae0:	45a5                	li	a1,9
80006ae2:	ef9ff0ef          	jal	ra,800069da <std>
80006ae6:	4448                	lw	a0,12(s0)
80006ae8:	4609                	li	a2,2
80006aea:	45c9                	li	a1,18
80006aec:	eefff0ef          	jal	ra,800069da <std>
80006af0:	4785                	li	a5,1
80006af2:	40b2                	lw	ra,12(sp)
80006af4:	cc1c                	sw	a5,24(s0)
80006af6:	4422                	lw	s0,8(sp)
80006af8:	0141                	addi	sp,sp,16
80006afa:	8082                	ret
80006afc:	8082                	ret

80006afe <__sfp>:
__sfp():
80006afe:	1141                	addi	sp,sp,-16
80006b00:	c226                	sw	s1,4(sp)
80006b02:	9d81a483          	lw	s1,-1576(gp) # 900003a8 <_global_impure_ptr>
80006b06:	4c9c                	lw	a5,24(s1)
80006b08:	c04a                	sw	s2,0(sp)
80006b0a:	c606                	sw	ra,12(sp)
80006b0c:	c422                	sw	s0,8(sp)
80006b0e:	892a                	mv	s2,a0
80006b10:	e781                	bnez	a5,80006b18 <__sfp+0x1a>
80006b12:	8526                	mv	a0,s1
80006b14:	f7fff0ef          	jal	ra,80006a92 <__sinit>
80006b18:	04848493          	addi	s1,s1,72
80006b1c:	4480                	lw	s0,8(s1)
80006b1e:	40dc                	lw	a5,4(s1)
80006b20:	17fd                	addi	a5,a5,-1
80006b22:	0007d663          	bgez	a5,80006b2e <__sfp+0x30>
80006b26:	409c                	lw	a5,0(s1)
80006b28:	cfb1                	beqz	a5,80006b84 <__sfp+0x86>
80006b2a:	4084                	lw	s1,0(s1)
80006b2c:	bfc5                	j	80006b1c <__sfp+0x1e>
80006b2e:	00c41703          	lh	a4,12(s0)
80006b32:	e731                	bnez	a4,80006b7e <__sfp+0x80>
80006b34:	77c1                	lui	a5,0xffff0
80006b36:	0785                	addi	a5,a5,1
80006b38:	06042223          	sw	zero,100(s0)
80006b3c:	00042023          	sw	zero,0(s0)
80006b40:	00042223          	sw	zero,4(s0)
80006b44:	00042423          	sw	zero,8(s0)
80006b48:	c45c                	sw	a5,12(s0)
80006b4a:	00042823          	sw	zero,16(s0)
80006b4e:	00042a23          	sw	zero,20(s0)
80006b52:	00042c23          	sw	zero,24(s0)
80006b56:	4621                	li	a2,8
80006b58:	4581                	li	a1,0
80006b5a:	05c40513          	addi	a0,s0,92
80006b5e:	24c5                	jal	80006e3e <memset>
80006b60:	02042a23          	sw	zero,52(s0)
80006b64:	02042c23          	sw	zero,56(s0)
80006b68:	04042423          	sw	zero,72(s0)
80006b6c:	04042623          	sw	zero,76(s0)
80006b70:	40b2                	lw	ra,12(sp)
80006b72:	8522                	mv	a0,s0
80006b74:	4422                	lw	s0,8(sp)
80006b76:	4492                	lw	s1,4(sp)
80006b78:	4902                	lw	s2,0(sp)
80006b7a:	0141                	addi	sp,sp,16
80006b7c:	8082                	ret
80006b7e:	06840413          	addi	s0,s0,104
80006b82:	bf79                	j	80006b20 <__sfp+0x22>
80006b84:	4591                	li	a1,4
80006b86:	854a                	mv	a0,s2
80006b88:	ec5ff0ef          	jal	ra,80006a4c <__sfmoreglue>
80006b8c:	c088                	sw	a0,0(s1)
80006b8e:	842a                	mv	s0,a0
80006b90:	fd49                	bnez	a0,80006b2a <__sfp+0x2c>
80006b92:	47b1                	li	a5,12
80006b94:	00f92023          	sw	a5,0(s2)
80006b98:	bfe1                	j	80006b70 <__sfp+0x72>

80006b9a <_fwalk_reent>:
_fwalk_reent():
80006b9a:	7179                	addi	sp,sp,-48
80006b9c:	d422                	sw	s0,40(sp)
80006b9e:	d04a                	sw	s2,32(sp)
80006ba0:	ce4e                	sw	s3,28(sp)
80006ba2:	cc52                	sw	s4,24(sp)
80006ba4:	c85a                	sw	s6,16(sp)
80006ba6:	c65e                	sw	s7,12(sp)
80006ba8:	d606                	sw	ra,44(sp)
80006baa:	d226                	sw	s1,36(sp)
80006bac:	ca56                	sw	s5,20(sp)
80006bae:	892a                	mv	s2,a0
80006bb0:	8a2e                	mv	s4,a1
80006bb2:	04850413          	addi	s0,a0,72
80006bb6:	4981                	li	s3,0
80006bb8:	4b05                	li	s6,1
80006bba:	5bfd                	li	s7,-1
80006bbc:	4404                	lw	s1,8(s0)
80006bbe:	00442a83          	lw	s5,4(s0)
80006bc2:	1afd                	addi	s5,s5,-1
80006bc4:	020ad063          	bgez	s5,80006be4 <_fwalk_reent+0x4a>
80006bc8:	4000                	lw	s0,0(s0)
80006bca:	f86d                	bnez	s0,80006bbc <_fwalk_reent+0x22>
80006bcc:	50b2                	lw	ra,44(sp)
80006bce:	5422                	lw	s0,40(sp)
80006bd0:	5492                	lw	s1,36(sp)
80006bd2:	5902                	lw	s2,32(sp)
80006bd4:	4a62                	lw	s4,24(sp)
80006bd6:	4ad2                	lw	s5,20(sp)
80006bd8:	4b42                	lw	s6,16(sp)
80006bda:	4bb2                	lw	s7,12(sp)
80006bdc:	854e                	mv	a0,s3
80006bde:	49f2                	lw	s3,28(sp)
80006be0:	6145                	addi	sp,sp,48
80006be2:	8082                	ret
80006be4:	00c4d783          	lhu	a5,12(s1)
80006be8:	00fb7b63          	bgeu	s6,a5,80006bfe <_fwalk_reent+0x64>
80006bec:	00e49783          	lh	a5,14(s1)
80006bf0:	01778763          	beq	a5,s7,80006bfe <_fwalk_reent+0x64>
80006bf4:	85a6                	mv	a1,s1
80006bf6:	854a                	mv	a0,s2
80006bf8:	9a02                	jalr	s4
80006bfa:	00a9e9b3          	or	s3,s3,a0
80006bfe:	06848493          	addi	s1,s1,104
80006c02:	b7c1                	j	80006bc2 <_fwalk_reent+0x28>

80006c04 <_localeconv_r>:
_localeconv_r():
80006c04:	0fff9517          	auipc	a0,0xfff9
80006c08:	54c50513          	addi	a0,a0,1356 # 90000150 <__global_locale+0xf0>
80006c0c:	8082                	ret

80006c0e <__swhatbuf_r>:
__swhatbuf_r():
80006c0e:	7159                	addi	sp,sp,-112
80006c10:	d0ca                	sw	s2,96(sp)
80006c12:	892e                	mv	s2,a1
80006c14:	00e59583          	lh	a1,14(a1)
80006c18:	d4a2                	sw	s0,104(sp)
80006c1a:	d2a6                	sw	s1,100(sp)
80006c1c:	d686                	sw	ra,108(sp)
80006c1e:	8432                	mv	s0,a2
80006c20:	84b6                	mv	s1,a3
80006c22:	0005dc63          	bgez	a1,80006c3a <__swhatbuf_r+0x2c>
80006c26:	00c91783          	lh	a5,12(s2)
80006c2a:	0004a023          	sw	zero,0(s1)
80006c2e:	0807f793          	andi	a5,a5,128
80006c32:	e395                	bnez	a5,80006c56 <__swhatbuf_r+0x48>
80006c34:	40000793          	li	a5,1024
80006c38:	a00d                	j	80006c5a <__swhatbuf_r+0x4c>
80006c3a:	0030                	addi	a2,sp,8
80006c3c:	142010ef          	jal	ra,80007d7e <_fstat_r>
80006c40:	fe0543e3          	bltz	a0,80006c26 <__swhatbuf_r+0x18>
80006c44:	4732                	lw	a4,12(sp)
80006c46:	67bd                	lui	a5,0xf
80006c48:	8ff9                	and	a5,a5,a4
80006c4a:	7779                	lui	a4,0xffffe
80006c4c:	97ba                	add	a5,a5,a4
80006c4e:	0017b793          	seqz	a5,a5
80006c52:	c09c                	sw	a5,0(s1)
80006c54:	b7c5                	j	80006c34 <__swhatbuf_r+0x26>
80006c56:	04000793          	li	a5,64
80006c5a:	50b6                	lw	ra,108(sp)
80006c5c:	c01c                	sw	a5,0(s0)
80006c5e:	5426                	lw	s0,104(sp)
80006c60:	5496                	lw	s1,100(sp)
80006c62:	5906                	lw	s2,96(sp)
80006c64:	4501                	li	a0,0
80006c66:	6165                	addi	sp,sp,112
80006c68:	8082                	ret

80006c6a <__smakebuf_r>:
__smakebuf_r():
80006c6a:	00c5d783          	lhu	a5,12(a1)
80006c6e:	1101                	addi	sp,sp,-32
80006c70:	cc22                	sw	s0,24(sp)
80006c72:	ce06                	sw	ra,28(sp)
80006c74:	ca26                	sw	s1,20(sp)
80006c76:	c84a                	sw	s2,16(sp)
80006c78:	8b89                	andi	a5,a5,2
80006c7a:	842e                	mv	s0,a1
80006c7c:	cf89                	beqz	a5,80006c96 <__smakebuf_r+0x2c>
80006c7e:	04740793          	addi	a5,s0,71
80006c82:	c01c                	sw	a5,0(s0)
80006c84:	c81c                	sw	a5,16(s0)
80006c86:	4785                	li	a5,1
80006c88:	c85c                	sw	a5,20(s0)
80006c8a:	40f2                	lw	ra,28(sp)
80006c8c:	4462                	lw	s0,24(sp)
80006c8e:	44d2                	lw	s1,20(sp)
80006c90:	4942                	lw	s2,16(sp)
80006c92:	6105                	addi	sp,sp,32
80006c94:	8082                	ret
80006c96:	0074                	addi	a3,sp,12
80006c98:	0030                	addi	a2,sp,8
80006c9a:	892a                	mv	s2,a0
80006c9c:	f73ff0ef          	jal	ra,80006c0e <__swhatbuf_r>
80006ca0:	45a2                	lw	a1,8(sp)
80006ca2:	84aa                	mv	s1,a0
80006ca4:	854a                	mv	a0,s2
80006ca6:	349000ef          	jal	ra,800077ee <_malloc_r>
80006caa:	ed01                	bnez	a0,80006cc2 <__smakebuf_r+0x58>
80006cac:	00c41783          	lh	a5,12(s0)
80006cb0:	2007f713          	andi	a4,a5,512
80006cb4:	fb79                	bnez	a4,80006c8a <__smakebuf_r+0x20>
80006cb6:	9bf1                	andi	a5,a5,-4
80006cb8:	0027e793          	ori	a5,a5,2
80006cbc:	00f41623          	sh	a5,12(s0)
80006cc0:	bf7d                	j	80006c7e <__smakebuf_r+0x14>
80006cc2:	00000797          	auipc	a5,0x0
80006cc6:	d8078793          	addi	a5,a5,-640 # 80006a42 <_cleanup_r>
80006cca:	02f92423          	sw	a5,40(s2)
80006cce:	00c45783          	lhu	a5,12(s0)
80006cd2:	c008                	sw	a0,0(s0)
80006cd4:	c808                	sw	a0,16(s0)
80006cd6:	0807e793          	ori	a5,a5,128
80006cda:	00f41623          	sh	a5,12(s0)
80006cde:	47a2                	lw	a5,8(sp)
80006ce0:	c85c                	sw	a5,20(s0)
80006ce2:	47b2                	lw	a5,12(sp)
80006ce4:	cf91                	beqz	a5,80006d00 <__smakebuf_r+0x96>
80006ce6:	00e41583          	lh	a1,14(s0)
80006cea:	854a                	mv	a0,s2
80006cec:	0bc010ef          	jal	ra,80007da8 <_isatty_r>
80006cf0:	c901                	beqz	a0,80006d00 <__smakebuf_r+0x96>
80006cf2:	00c45783          	lhu	a5,12(s0)
80006cf6:	9bf1                	andi	a5,a5,-4
80006cf8:	0017e793          	ori	a5,a5,1
80006cfc:	00f41623          	sh	a5,12(s0)
80006d00:	00c45503          	lhu	a0,12(s0)
80006d04:	8cc9                	or	s1,s1,a0
80006d06:	00941623          	sh	s1,12(s0)
80006d0a:	b741                	j	80006c8a <__smakebuf_r+0x20>

80006d0c <malloc>:
malloc():
80006d0c:	85aa                	mv	a1,a0
80006d0e:	80c1a503          	lw	a0,-2036(gp) # 900001dc <_impure_ptr>
80006d12:	2dd0006f          	j	800077ee <_malloc_r>

80006d16 <__ascii_mbtowc>:
__ascii_mbtowc():
80006d16:	e185                	bnez	a1,80006d36 <__ascii_mbtowc+0x20>
80006d18:	1141                	addi	sp,sp,-16
80006d1a:	006c                	addi	a1,sp,12
80006d1c:	4501                	li	a0,0
80006d1e:	ca11                	beqz	a2,80006d32 <__ascii_mbtowc+0x1c>
80006d20:	5579                	li	a0,-2
80006d22:	ca81                	beqz	a3,80006d32 <__ascii_mbtowc+0x1c>
80006d24:	00064783          	lbu	a5,0(a2)
80006d28:	c19c                	sw	a5,0(a1)
80006d2a:	00064503          	lbu	a0,0(a2)
80006d2e:	00a03533          	snez	a0,a0
80006d32:	0141                	addi	sp,sp,16
80006d34:	8082                	ret
80006d36:	4501                	li	a0,0
80006d38:	ca19                	beqz	a2,80006d4e <__ascii_mbtowc+0x38>
80006d3a:	5579                	li	a0,-2
80006d3c:	ca89                	beqz	a3,80006d4e <__ascii_mbtowc+0x38>
80006d3e:	00064783          	lbu	a5,0(a2)
80006d42:	c19c                	sw	a5,0(a1)
80006d44:	00064503          	lbu	a0,0(a2)
80006d48:	00a03533          	snez	a0,a0
80006d4c:	8082                	ret
80006d4e:	8082                	ret

80006d50 <memchr>:
memchr():
80006d50:	0ff5f593          	andi	a1,a1,255
80006d54:	962a                	add	a2,a2,a0
80006d56:	00c51463          	bne	a0,a2,80006d5e <memchr+0xe>
80006d5a:	4501                	li	a0,0
80006d5c:	8082                	ret
80006d5e:	00054783          	lbu	a5,0(a0)
80006d62:	feb78de3          	beq	a5,a1,80006d5c <memchr+0xc>
80006d66:	0505                	addi	a0,a0,1
80006d68:	b7fd                	j	80006d56 <memchr+0x6>

80006d6a <memcpy>:
memcpy():
80006d6a:	00a5c7b3          	xor	a5,a1,a0
80006d6e:	8b8d                	andi	a5,a5,3
80006d70:	00c506b3          	add	a3,a0,a2
80006d74:	e781                	bnez	a5,80006d7c <memcpy+0x12>
80006d76:	478d                	li	a5,3
80006d78:	00c7ee63          	bltu	a5,a2,80006d94 <memcpy+0x2a>
80006d7c:	87aa                	mv	a5,a0
80006d7e:	0ad57863          	bgeu	a0,a3,80006e2e <memcpy+0xc4>
80006d82:	0005c703          	lbu	a4,0(a1)
80006d86:	0785                	addi	a5,a5,1
80006d88:	0585                	addi	a1,a1,1
80006d8a:	fee78fa3          	sb	a4,-1(a5)
80006d8e:	fed7eae3          	bltu	a5,a3,80006d82 <memcpy+0x18>
80006d92:	8082                	ret
80006d94:	00357713          	andi	a4,a0,3
80006d98:	87aa                	mv	a5,a0
80006d9a:	cb11                	beqz	a4,80006dae <memcpy+0x44>
80006d9c:	0005c703          	lbu	a4,0(a1)
80006da0:	0785                	addi	a5,a5,1
80006da2:	0585                	addi	a1,a1,1
80006da4:	fee78fa3          	sb	a4,-1(a5)
80006da8:	0037f713          	andi	a4,a5,3
80006dac:	b7fd                	j	80006d9a <memcpy+0x30>
80006dae:	ffc6f713          	andi	a4,a3,-4
80006db2:	fe070613          	addi	a2,a4,-32 # ffffdfe0 <_sp+0x6ffedfe0>
80006db6:	04c7fb63          	bgeu	a5,a2,80006e0c <memcpy+0xa2>
80006dba:	0005a383          	lw	t2,0(a1)
80006dbe:	0045a283          	lw	t0,4(a1)
80006dc2:	0085af83          	lw	t6,8(a1)
80006dc6:	00c5af03          	lw	t5,12(a1)
80006dca:	0105ae83          	lw	t4,16(a1)
80006dce:	0145ae03          	lw	t3,20(a1)
80006dd2:	0185a303          	lw	t1,24(a1)
80006dd6:	01c5a883          	lw	a7,28(a1)
80006dda:	0077a023          	sw	t2,0(a5)
80006dde:	0057a223          	sw	t0,4(a5)
80006de2:	0205a803          	lw	a6,32(a1)
80006de6:	01f7a423          	sw	t6,8(a5)
80006dea:	01e7a623          	sw	t5,12(a5)
80006dee:	01d7a823          	sw	t4,16(a5)
80006df2:	01c7aa23          	sw	t3,20(a5)
80006df6:	0067ac23          	sw	t1,24(a5)
80006dfa:	0117ae23          	sw	a7,28(a5)
80006dfe:	02458593          	addi	a1,a1,36
80006e02:	02478793          	addi	a5,a5,36
80006e06:	ff07ae23          	sw	a6,-4(a5)
80006e0a:	b775                	j	80006db6 <memcpy+0x4c>
80006e0c:	882e                	mv	a6,a1
80006e0e:	863e                	mv	a2,a5
80006e10:	02e66063          	bltu	a2,a4,80006e30 <memcpy+0xc6>
80006e14:	ffd78813          	addi	a6,a5,-3
80006e18:	4601                	li	a2,0
80006e1a:	01076663          	bltu	a4,a6,80006e26 <memcpy+0xbc>
80006e1e:	070d                	addi	a4,a4,3
80006e20:	8f1d                	sub	a4,a4,a5
80006e22:	ffc77613          	andi	a2,a4,-4
80006e26:	97b2                	add	a5,a5,a2
80006e28:	95b2                	add	a1,a1,a2
80006e2a:	f4d7ece3          	bltu	a5,a3,80006d82 <memcpy+0x18>
80006e2e:	8082                	ret
80006e30:	00082883          	lw	a7,0(a6)
80006e34:	0611                	addi	a2,a2,4
80006e36:	0811                	addi	a6,a6,4
80006e38:	ff162e23          	sw	a7,-4(a2)
80006e3c:	bfd1                	j	80006e10 <memcpy+0xa6>

80006e3e <memset>:
memset():
80006e3e:	433d                	li	t1,15
80006e40:	872a                	mv	a4,a0
80006e42:	02c37363          	bgeu	t1,a2,80006e68 <memset+0x2a>
80006e46:	00f77793          	andi	a5,a4,15
80006e4a:	efbd                	bnez	a5,80006ec8 <memset+0x8a>
80006e4c:	e5ad                	bnez	a1,80006eb6 <memset+0x78>
80006e4e:	ff067693          	andi	a3,a2,-16
80006e52:	8a3d                	andi	a2,a2,15
80006e54:	96ba                	add	a3,a3,a4
80006e56:	c30c                	sw	a1,0(a4)
80006e58:	c34c                	sw	a1,4(a4)
80006e5a:	c70c                	sw	a1,8(a4)
80006e5c:	c74c                	sw	a1,12(a4)
80006e5e:	0741                	addi	a4,a4,16
80006e60:	fed76be3          	bltu	a4,a3,80006e56 <memset+0x18>
80006e64:	e211                	bnez	a2,80006e68 <memset+0x2a>
80006e66:	8082                	ret
80006e68:	40c306b3          	sub	a3,t1,a2
80006e6c:	068a                	slli	a3,a3,0x2
80006e6e:	00000297          	auipc	t0,0x0
80006e72:	9696                	add	a3,a3,t0
80006e74:	00a68067          	jr	10(a3) # 100a <__stack_size+0x80a>
80006e78:	00b70723          	sb	a1,14(a4)
80006e7c:	00b706a3          	sb	a1,13(a4)
80006e80:	00b70623          	sb	a1,12(a4)
80006e84:	00b705a3          	sb	a1,11(a4)
80006e88:	00b70523          	sb	a1,10(a4)
80006e8c:	00b704a3          	sb	a1,9(a4)
80006e90:	00b70423          	sb	a1,8(a4)
80006e94:	00b703a3          	sb	a1,7(a4)
80006e98:	00b70323          	sb	a1,6(a4)
80006e9c:	00b702a3          	sb	a1,5(a4)
80006ea0:	00b70223          	sb	a1,4(a4)
80006ea4:	00b701a3          	sb	a1,3(a4)
80006ea8:	00b70123          	sb	a1,2(a4)
80006eac:	00b700a3          	sb	a1,1(a4)
80006eb0:	00b70023          	sb	a1,0(a4)
80006eb4:	8082                	ret
80006eb6:	0ff5f593          	andi	a1,a1,255
80006eba:	00859693          	slli	a3,a1,0x8
80006ebe:	8dd5                	or	a1,a1,a3
80006ec0:	01059693          	slli	a3,a1,0x10
80006ec4:	8dd5                	or	a1,a1,a3
80006ec6:	b761                	j	80006e4e <memset+0x10>
80006ec8:	00279693          	slli	a3,a5,0x2
80006ecc:	00000297          	auipc	t0,0x0
80006ed0:	9696                	add	a3,a3,t0
80006ed2:	8286                	mv	t0,ra
80006ed4:	fa8680e7          	jalr	-88(a3)
80006ed8:	8096                	mv	ra,t0
80006eda:	17c1                	addi	a5,a5,-16
80006edc:	8f1d                	sub	a4,a4,a5
80006ede:	963e                	add	a2,a2,a5
80006ee0:	f8c374e3          	bgeu	t1,a2,80006e68 <memset+0x2a>
80006ee4:	b7a5                	j	80006e4c <memset+0xe>

80006ee6 <_Balloc>:
_Balloc():
80006ee6:	515c                	lw	a5,36(a0)
80006ee8:	1141                	addi	sp,sp,-16
80006eea:	c422                	sw	s0,8(sp)
80006eec:	c226                	sw	s1,4(sp)
80006eee:	c606                	sw	ra,12(sp)
80006ef0:	c04a                	sw	s2,0(sp)
80006ef2:	842a                	mv	s0,a0
80006ef4:	84ae                	mv	s1,a1
80006ef6:	ef89                	bnez	a5,80006f10 <_Balloc+0x2a>
80006ef8:	4541                	li	a0,16
80006efa:	e13ff0ef          	jal	ra,80006d0c <malloc>
80006efe:	d048                	sw	a0,36(s0)
80006f00:	00052223          	sw	zero,4(a0)
80006f04:	00052423          	sw	zero,8(a0)
80006f08:	00052023          	sw	zero,0(a0)
80006f0c:	00052623          	sw	zero,12(a0)
80006f10:	02442903          	lw	s2,36(s0)
80006f14:	00c92783          	lw	a5,12(s2)
80006f18:	c79d                	beqz	a5,80006f46 <_Balloc+0x60>
80006f1a:	5058                	lw	a4,36(s0)
80006f1c:	00249793          	slli	a5,s1,0x2
80006f20:	4758                	lw	a4,12(a4)
80006f22:	97ba                	add	a5,a5,a4
80006f24:	4388                	lw	a0,0(a5)
80006f26:	e131                	bnez	a0,80006f6a <_Balloc+0x84>
80006f28:	4905                	li	s2,1
80006f2a:	00991933          	sll	s2,s2,s1
80006f2e:	00590613          	addi	a2,s2,5
80006f32:	060a                	slli	a2,a2,0x2
80006f34:	4585                	li	a1,1
80006f36:	8522                	mv	a0,s0
80006f38:	7f2000ef          	jal	ra,8000772a <_calloc_r>
80006f3c:	c105                	beqz	a0,80006f5c <_Balloc+0x76>
80006f3e:	c144                	sw	s1,4(a0)
80006f40:	01252423          	sw	s2,8(a0)
80006f44:	a02d                	j	80006f6e <_Balloc+0x88>
80006f46:	02100613          	li	a2,33
80006f4a:	4591                	li	a1,4
80006f4c:	8522                	mv	a0,s0
80006f4e:	7dc000ef          	jal	ra,8000772a <_calloc_r>
80006f52:	505c                	lw	a5,36(s0)
80006f54:	00a92623          	sw	a0,12(s2)
80006f58:	47dc                	lw	a5,12(a5)
80006f5a:	f3e1                	bnez	a5,80006f1a <_Balloc+0x34>
80006f5c:	4501                	li	a0,0
80006f5e:	40b2                	lw	ra,12(sp)
80006f60:	4422                	lw	s0,8(sp)
80006f62:	4492                	lw	s1,4(sp)
80006f64:	4902                	lw	s2,0(sp)
80006f66:	0141                	addi	sp,sp,16
80006f68:	8082                	ret
80006f6a:	4118                	lw	a4,0(a0)
80006f6c:	c398                	sw	a4,0(a5)
80006f6e:	00052823          	sw	zero,16(a0)
80006f72:	00052623          	sw	zero,12(a0)
80006f76:	b7e5                	j	80006f5e <_Balloc+0x78>

80006f78 <_Bfree>:
_Bfree():
80006f78:	515c                	lw	a5,36(a0)
80006f7a:	1141                	addi	sp,sp,-16
80006f7c:	c422                	sw	s0,8(sp)
80006f7e:	c226                	sw	s1,4(sp)
80006f80:	c606                	sw	ra,12(sp)
80006f82:	84aa                	mv	s1,a0
80006f84:	842e                	mv	s0,a1
80006f86:	ef89                	bnez	a5,80006fa0 <_Bfree+0x28>
80006f88:	4541                	li	a0,16
80006f8a:	d83ff0ef          	jal	ra,80006d0c <malloc>
80006f8e:	d0c8                	sw	a0,36(s1)
80006f90:	00052223          	sw	zero,4(a0)
80006f94:	00052423          	sw	zero,8(a0)
80006f98:	00052023          	sw	zero,0(a0)
80006f9c:	00052623          	sw	zero,12(a0)
80006fa0:	c811                	beqz	s0,80006fb4 <_Bfree+0x3c>
80006fa2:	50d4                	lw	a3,36(s1)
80006fa4:	405c                	lw	a5,4(s0)
80006fa6:	00279713          	slli	a4,a5,0x2
80006faa:	46dc                	lw	a5,12(a3)
80006fac:	97ba                	add	a5,a5,a4
80006fae:	4398                	lw	a4,0(a5)
80006fb0:	c018                	sw	a4,0(s0)
80006fb2:	c380                	sw	s0,0(a5)
80006fb4:	40b2                	lw	ra,12(sp)
80006fb6:	4422                	lw	s0,8(sp)
80006fb8:	4492                	lw	s1,4(sp)
80006fba:	0141                	addi	sp,sp,16
80006fbc:	8082                	ret

80006fbe <__multadd>:
__multadd():
80006fbe:	1101                	addi	sp,sp,-32
80006fc0:	cc22                	sw	s0,24(sp)
80006fc2:	c84a                	sw	s2,16(sp)
80006fc4:	c64e                	sw	s3,12(sp)
80006fc6:	0105a903          	lw	s2,16(a1)
80006fca:	842e                	mv	s0,a1
80006fcc:	89b6                	mv	s3,a3
80006fce:	01458693          	addi	a3,a1,20
80006fd2:	65c1                	lui	a1,0x10
80006fd4:	ca26                	sw	s1,20(sp)
80006fd6:	ce06                	sw	ra,28(sp)
80006fd8:	84aa                	mv	s1,a0
80006fda:	c452                	sw	s4,8(sp)
80006fdc:	4501                	li	a0,0
80006fde:	15fd                	addi	a1,a1,-1
80006fe0:	429c                	lw	a5,0(a3)
80006fe2:	0691                	addi	a3,a3,4
80006fe4:	0505                	addi	a0,a0,1
80006fe6:	00b7f733          	and	a4,a5,a1
80006fea:	02c70733          	mul	a4,a4,a2
80006fee:	83c1                	srli	a5,a5,0x10
80006ff0:	02c787b3          	mul	a5,a5,a2
80006ff4:	974e                	add	a4,a4,s3
80006ff6:	01075813          	srli	a6,a4,0x10
80006ffa:	8f6d                	and	a4,a4,a1
80006ffc:	97c2                	add	a5,a5,a6
80006ffe:	0107d993          	srli	s3,a5,0x10
80007002:	07c2                	slli	a5,a5,0x10
80007004:	97ba                	add	a5,a5,a4
80007006:	fef6ae23          	sw	a5,-4(a3)
8000700a:	fd254be3          	blt	a0,s2,80006fe0 <__multadd+0x22>
8000700e:	04098f63          	beqz	s3,8000706c <__multadd+0xae>
80007012:	441c                	lw	a5,8(s0)
80007014:	04f94363          	blt	s2,a5,8000705a <__multadd+0x9c>
80007018:	404c                	lw	a1,4(s0)
8000701a:	8526                	mv	a0,s1
8000701c:	0585                	addi	a1,a1,1
8000701e:	ec9ff0ef          	jal	ra,80006ee6 <_Balloc>
80007022:	8a2a                	mv	s4,a0
80007024:	ed11                	bnez	a0,80007040 <__multadd+0x82>
80007026:	00003697          	auipc	a3,0x3
8000702a:	2e268693          	addi	a3,a3,738 # 8000a308 <__clz_tab+0x1a4>
8000702e:	4601                	li	a2,0
80007030:	0b500593          	li	a1,181
80007034:	00003517          	auipc	a0,0x3
80007038:	3b450513          	addi	a0,a0,948 # 8000a3e8 <__sf_fake_stdout+0x30>
8000703c:	4bf000ef          	jal	ra,80007cfa <__assert_func>
80007040:	4810                	lw	a2,16(s0)
80007042:	00c40593          	addi	a1,s0,12
80007046:	0531                	addi	a0,a0,12
80007048:	0609                	addi	a2,a2,2
8000704a:	060a                	slli	a2,a2,0x2
8000704c:	d1fff0ef          	jal	ra,80006d6a <memcpy>
80007050:	85a2                	mv	a1,s0
80007052:	8526                	mv	a0,s1
80007054:	f25ff0ef          	jal	ra,80006f78 <_Bfree>
80007058:	8452                	mv	s0,s4
8000705a:	00490793          	addi	a5,s2,4
8000705e:	078a                	slli	a5,a5,0x2
80007060:	97a2                	add	a5,a5,s0
80007062:	0137a223          	sw	s3,4(a5)
80007066:	0905                	addi	s2,s2,1
80007068:	01242823          	sw	s2,16(s0)
8000706c:	40f2                	lw	ra,28(sp)
8000706e:	8522                	mv	a0,s0
80007070:	4462                	lw	s0,24(sp)
80007072:	44d2                	lw	s1,20(sp)
80007074:	4942                	lw	s2,16(sp)
80007076:	49b2                	lw	s3,12(sp)
80007078:	4a22                	lw	s4,8(sp)
8000707a:	6105                	addi	sp,sp,32
8000707c:	8082                	ret

8000707e <__hi0bits>:
__hi0bits():
8000707e:	7741                	lui	a4,0xffff0
80007080:	8f69                	and	a4,a4,a0
80007082:	87aa                	mv	a5,a0
80007084:	4501                	li	a0,0
80007086:	e319                	bnez	a4,8000708c <__hi0bits+0xe>
80007088:	07c2                	slli	a5,a5,0x10
8000708a:	4541                	li	a0,16
8000708c:	ff000737          	lui	a4,0xff000
80007090:	8f7d                	and	a4,a4,a5
80007092:	e319                	bnez	a4,80007098 <__hi0bits+0x1a>
80007094:	0521                	addi	a0,a0,8
80007096:	07a2                	slli	a5,a5,0x8
80007098:	f0000737          	lui	a4,0xf0000
8000709c:	8f7d                	and	a4,a4,a5
8000709e:	e319                	bnez	a4,800070a4 <__hi0bits+0x26>
800070a0:	0511                	addi	a0,a0,4
800070a2:	0792                	slli	a5,a5,0x4
800070a4:	c0000737          	lui	a4,0xc0000
800070a8:	8f7d                	and	a4,a4,a5
800070aa:	e319                	bnez	a4,800070b0 <__hi0bits+0x32>
800070ac:	0509                	addi	a0,a0,2
800070ae:	078a                	slli	a5,a5,0x2
800070b0:	0007c963          	bltz	a5,800070c2 <__hi0bits+0x44>
800070b4:	40000737          	lui	a4,0x40000
800070b8:	8ff9                	and	a5,a5,a4
800070ba:	0505                	addi	a0,a0,1
800070bc:	e399                	bnez	a5,800070c2 <__hi0bits+0x44>
800070be:	02000513          	li	a0,32
800070c2:	8082                	ret

800070c4 <__lo0bits>:
__lo0bits():
800070c4:	411c                	lw	a5,0(a0)
800070c6:	872a                	mv	a4,a0
800070c8:	0077f693          	andi	a3,a5,7
800070cc:	c285                	beqz	a3,800070ec <__lo0bits+0x28>
800070ce:	0017f693          	andi	a3,a5,1
800070d2:	4501                	li	a0,0
800070d4:	eea1                	bnez	a3,8000712c <__lo0bits+0x68>
800070d6:	0027f693          	andi	a3,a5,2
800070da:	c689                	beqz	a3,800070e4 <__lo0bits+0x20>
800070dc:	8385                	srli	a5,a5,0x1
800070de:	c31c                	sw	a5,0(a4)
800070e0:	4505                	li	a0,1
800070e2:	8082                	ret
800070e4:	8389                	srli	a5,a5,0x2
800070e6:	c31c                	sw	a5,0(a4)
800070e8:	4509                	li	a0,2
800070ea:	8082                	ret
800070ec:	01079693          	slli	a3,a5,0x10
800070f0:	82c1                	srli	a3,a3,0x10
800070f2:	4501                	li	a0,0
800070f4:	e299                	bnez	a3,800070fa <__lo0bits+0x36>
800070f6:	83c1                	srli	a5,a5,0x10
800070f8:	4541                	li	a0,16
800070fa:	0ff7f693          	andi	a3,a5,255
800070fe:	e299                	bnez	a3,80007104 <__lo0bits+0x40>
80007100:	0521                	addi	a0,a0,8
80007102:	83a1                	srli	a5,a5,0x8
80007104:	00f7f693          	andi	a3,a5,15
80007108:	e299                	bnez	a3,8000710e <__lo0bits+0x4a>
8000710a:	0511                	addi	a0,a0,4
8000710c:	8391                	srli	a5,a5,0x4
8000710e:	0037f693          	andi	a3,a5,3
80007112:	e299                	bnez	a3,80007118 <__lo0bits+0x54>
80007114:	0509                	addi	a0,a0,2
80007116:	8389                	srli	a5,a5,0x2
80007118:	0017f693          	andi	a3,a5,1
8000711c:	e681                	bnez	a3,80007124 <__lo0bits+0x60>
8000711e:	8385                	srli	a5,a5,0x1
80007120:	0505                	addi	a0,a0,1
80007122:	c399                	beqz	a5,80007128 <__lo0bits+0x64>
80007124:	c31c                	sw	a5,0(a4)
80007126:	8082                	ret
80007128:	02000513          	li	a0,32
8000712c:	8082                	ret

8000712e <__i2b>:
__i2b():
8000712e:	1141                	addi	sp,sp,-16
80007130:	c422                	sw	s0,8(sp)
80007132:	842e                	mv	s0,a1
80007134:	4585                	li	a1,1
80007136:	c606                	sw	ra,12(sp)
80007138:	dafff0ef          	jal	ra,80006ee6 <_Balloc>
8000713c:	ed11                	bnez	a0,80007158 <__i2b+0x2a>
8000713e:	00003697          	auipc	a3,0x3
80007142:	1ca68693          	addi	a3,a3,458 # 8000a308 <__clz_tab+0x1a4>
80007146:	4601                	li	a2,0
80007148:	14000593          	li	a1,320
8000714c:	00003517          	auipc	a0,0x3
80007150:	29c50513          	addi	a0,a0,668 # 8000a3e8 <__sf_fake_stdout+0x30>
80007154:	3a7000ef          	jal	ra,80007cfa <__assert_func>
80007158:	40b2                	lw	ra,12(sp)
8000715a:	c940                	sw	s0,20(a0)
8000715c:	4422                	lw	s0,8(sp)
8000715e:	4705                	li	a4,1
80007160:	c918                	sw	a4,16(a0)
80007162:	0141                	addi	sp,sp,16
80007164:	8082                	ret

80007166 <__multiply>:
__multiply():
80007166:	4998                	lw	a4,16(a1)
80007168:	4a1c                	lw	a5,16(a2)
8000716a:	1101                	addi	sp,sp,-32
8000716c:	cc22                	sw	s0,24(sp)
8000716e:	c84a                	sw	s2,16(sp)
80007170:	ce06                	sw	ra,28(sp)
80007172:	ca26                	sw	s1,20(sp)
80007174:	c64e                	sw	s3,12(sp)
80007176:	c452                	sw	s4,8(sp)
80007178:	842e                	mv	s0,a1
8000717a:	8932                	mv	s2,a2
8000717c:	00f75463          	bge	a4,a5,80007184 <__multiply+0x1e>
80007180:	8432                	mv	s0,a2
80007182:	892e                	mv	s2,a1
80007184:	01042a03          	lw	s4,16(s0)
80007188:	01092983          	lw	s3,16(s2)
8000718c:	441c                	lw	a5,8(s0)
8000718e:	404c                	lw	a1,4(s0)
80007190:	013a04b3          	add	s1,s4,s3
80007194:	0097d363          	bge	a5,s1,8000719a <__multiply+0x34>
80007198:	0585                	addi	a1,a1,1
8000719a:	d4dff0ef          	jal	ra,80006ee6 <_Balloc>
8000719e:	ed11                	bnez	a0,800071ba <__multiply+0x54>
800071a0:	00003697          	auipc	a3,0x3
800071a4:	16868693          	addi	a3,a3,360 # 8000a308 <__clz_tab+0x1a4>
800071a8:	4601                	li	a2,0
800071aa:	15d00593          	li	a1,349
800071ae:	00003517          	auipc	a0,0x3
800071b2:	23a50513          	addi	a0,a0,570 # 8000a3e8 <__sf_fake_stdout+0x30>
800071b6:	345000ef          	jal	ra,80007cfa <__assert_func>
800071ba:	01450693          	addi	a3,a0,20
800071be:	00249813          	slli	a6,s1,0x2
800071c2:	9836                	add	a6,a6,a3
800071c4:	87b6                	mv	a5,a3
800071c6:	0507ea63          	bltu	a5,a6,8000721a <__multiply+0xb4>
800071ca:	01440313          	addi	t1,s0,20
800071ce:	002a1593          	slli	a1,s4,0x2
800071d2:	01490613          	addi	a2,s2,20
800071d6:	00299893          	slli	a7,s3,0x2
800071da:	959a                	add	a1,a1,t1
800071dc:	01540793          	addi	a5,s0,21
800071e0:	98b2                	add	a7,a7,a2
800071e2:	4e11                	li	t3,4
800071e4:	00f5e863          	bltu	a1,a5,800071f4 <__multiply+0x8e>
800071e8:	40858433          	sub	s0,a1,s0
800071ec:	142d                	addi	s0,s0,-21
800071ee:	9871                	andi	s0,s0,-4
800071f0:	00440e13          	addi	t3,s0,4
800071f4:	6ec1                	lui	t4,0x10
800071f6:	1efd                	addi	t4,t4,-1
800071f8:	03166563          	bltu	a2,a7,80007222 <__multiply+0xbc>
800071fc:	00905663          	blez	s1,80007208 <__multiply+0xa2>
80007200:	ffc82783          	lw	a5,-4(a6)
80007204:	1871                	addi	a6,a6,-4
80007206:	cff1                	beqz	a5,800072e2 <__multiply+0x17c>
80007208:	40f2                	lw	ra,28(sp)
8000720a:	4462                	lw	s0,24(sp)
8000720c:	c904                	sw	s1,16(a0)
8000720e:	4942                	lw	s2,16(sp)
80007210:	44d2                	lw	s1,20(sp)
80007212:	49b2                	lw	s3,12(sp)
80007214:	4a22                	lw	s4,8(sp)
80007216:	6105                	addi	sp,sp,32
80007218:	8082                	ret
8000721a:	0007a023          	sw	zero,0(a5)
8000721e:	0791                	addi	a5,a5,4
80007220:	b75d                	j	800071c6 <__multiply+0x60>
80007222:	00062f83          	lw	t6,0(a2)
80007226:	01dfffb3          	and	t6,t6,t4
8000722a:	040f8b63          	beqz	t6,80007280 <__multiply+0x11a>
8000722e:	83b6                	mv	t2,a3
80007230:	829a                	mv	t0,t1
80007232:	4901                	li	s2,0
80007234:	0002a703          	lw	a4,0(t0) # 80006ecc <memset+0x8e>
80007238:	0003a403          	lw	s0,0(t2)
8000723c:	0391                	addi	t2,t2,4
8000723e:	01d77f33          	and	t5,a4,t4
80007242:	03ff0f33          	mul	t5,t5,t6
80007246:	01d477b3          	and	a5,s0,t4
8000724a:	8041                	srli	s0,s0,0x10
8000724c:	0291                	addi	t0,t0,4
8000724e:	9f3e                	add	t5,t5,a5
80007250:	01075793          	srli	a5,a4,0x10
80007254:	03f787b3          	mul	a5,a5,t6
80007258:	9f4a                	add	t5,t5,s2
8000725a:	010f5713          	srli	a4,t5,0x10
8000725e:	01df7f33          	and	t5,t5,t4
80007262:	97a2                	add	a5,a5,s0
80007264:	97ba                	add	a5,a5,a4
80007266:	0107d913          	srli	s2,a5,0x10
8000726a:	07c2                	slli	a5,a5,0x10
8000726c:	01e7e7b3          	or	a5,a5,t5
80007270:	fef3ae23          	sw	a5,-4(t2)
80007274:	fcb2e0e3          	bltu	t0,a1,80007234 <__multiply+0xce>
80007278:	01c687b3          	add	a5,a3,t3
8000727c:	0127a023          	sw	s2,0(a5)
80007280:	00265383          	lhu	t2,2(a2)
80007284:	04038c63          	beqz	t2,800072dc <__multiply+0x176>
80007288:	429c                	lw	a5,0(a3)
8000728a:	8fb6                	mv	t6,a3
8000728c:	8f1a                	mv	t5,t1
8000728e:	4281                	li	t0,0
80007290:	000f2703          	lw	a4,0(t5)
80007294:	002fd403          	lhu	s0,2(t6)
80007298:	01d7f7b3          	and	a5,a5,t4
8000729c:	01d77733          	and	a4,a4,t4
800072a0:	02770733          	mul	a4,a4,t2
800072a4:	0f91                	addi	t6,t6,4
800072a6:	0f11                	addi	t5,t5,4
800072a8:	9722                	add	a4,a4,s0
800072aa:	9716                	add	a4,a4,t0
800072ac:	01071293          	slli	t0,a4,0x10
800072b0:	00f2e7b3          	or	a5,t0,a5
800072b4:	feffae23          	sw	a5,-4(t6)
800072b8:	ffef5783          	lhu	a5,-2(t5)
800072bc:	000fa283          	lw	t0,0(t6)
800072c0:	8341                	srli	a4,a4,0x10
800072c2:	027787b3          	mul	a5,a5,t2
800072c6:	01d2f2b3          	and	t0,t0,t4
800072ca:	9796                	add	a5,a5,t0
800072cc:	97ba                	add	a5,a5,a4
800072ce:	0107d293          	srli	t0,a5,0x10
800072d2:	fabf6fe3          	bltu	t5,a1,80007290 <__multiply+0x12a>
800072d6:	01c68733          	add	a4,a3,t3
800072da:	c31c                	sw	a5,0(a4)
800072dc:	0611                	addi	a2,a2,4
800072de:	0691                	addi	a3,a3,4
800072e0:	bf21                	j	800071f8 <__multiply+0x92>
800072e2:	14fd                	addi	s1,s1,-1
800072e4:	bf21                	j	800071fc <__multiply+0x96>

800072e6 <__pow5mult>:
__pow5mult():
800072e6:	1101                	addi	sp,sp,-32
800072e8:	ca26                	sw	s1,20(sp)
800072ea:	c84a                	sw	s2,16(sp)
800072ec:	c64e                	sw	s3,12(sp)
800072ee:	ce06                	sw	ra,28(sp)
800072f0:	cc22                	sw	s0,24(sp)
800072f2:	c452                	sw	s4,8(sp)
800072f4:	00367793          	andi	a5,a2,3
800072f8:	892a                	mv	s2,a0
800072fa:	84b2                	mv	s1,a2
800072fc:	89ae                	mv	s3,a1
800072fe:	cf89                	beqz	a5,80007318 <__pow5mult+0x32>
80007300:	17fd                	addi	a5,a5,-1
80007302:	00003717          	auipc	a4,0x3
80007306:	23670713          	addi	a4,a4,566 # 8000a538 <p05.0>
8000730a:	078a                	slli	a5,a5,0x2
8000730c:	97ba                	add	a5,a5,a4
8000730e:	4390                	lw	a2,0(a5)
80007310:	4681                	li	a3,0
80007312:	cadff0ef          	jal	ra,80006fbe <__multadd>
80007316:	89aa                	mv	s3,a0
80007318:	8489                	srai	s1,s1,0x2
8000731a:	cca5                	beqz	s1,80007392 <__pow5mult+0xac>
8000731c:	02492783          	lw	a5,36(s2)
80007320:	ef91                	bnez	a5,8000733c <__pow5mult+0x56>
80007322:	4541                	li	a0,16
80007324:	9e9ff0ef          	jal	ra,80006d0c <malloc>
80007328:	02a92223          	sw	a0,36(s2)
8000732c:	00052223          	sw	zero,4(a0)
80007330:	00052423          	sw	zero,8(a0)
80007334:	00052023          	sw	zero,0(a0)
80007338:	00052623          	sw	zero,12(a0)
8000733c:	02492a03          	lw	s4,36(s2)
80007340:	008a2403          	lw	s0,8(s4)
80007344:	e819                	bnez	s0,8000735a <__pow5mult+0x74>
80007346:	27100593          	li	a1,625
8000734a:	854a                	mv	a0,s2
8000734c:	de3ff0ef          	jal	ra,8000712e <__i2b>
80007350:	00aa2423          	sw	a0,8(s4)
80007354:	842a                	mv	s0,a0
80007356:	00052023          	sw	zero,0(a0)
8000735a:	0014f793          	andi	a5,s1,1
8000735e:	cf81                	beqz	a5,80007376 <__pow5mult+0x90>
80007360:	85ce                	mv	a1,s3
80007362:	8622                	mv	a2,s0
80007364:	854a                	mv	a0,s2
80007366:	e01ff0ef          	jal	ra,80007166 <__multiply>
8000736a:	8a2a                	mv	s4,a0
8000736c:	85ce                	mv	a1,s3
8000736e:	854a                	mv	a0,s2
80007370:	c09ff0ef          	jal	ra,80006f78 <_Bfree>
80007374:	89d2                	mv	s3,s4
80007376:	8485                	srai	s1,s1,0x1
80007378:	cc89                	beqz	s1,80007392 <__pow5mult+0xac>
8000737a:	4008                	lw	a0,0(s0)
8000737c:	e909                	bnez	a0,8000738e <__pow5mult+0xa8>
8000737e:	8622                	mv	a2,s0
80007380:	85a2                	mv	a1,s0
80007382:	854a                	mv	a0,s2
80007384:	de3ff0ef          	jal	ra,80007166 <__multiply>
80007388:	c008                	sw	a0,0(s0)
8000738a:	00052023          	sw	zero,0(a0)
8000738e:	842a                	mv	s0,a0
80007390:	b7e9                	j	8000735a <__pow5mult+0x74>
80007392:	40f2                	lw	ra,28(sp)
80007394:	4462                	lw	s0,24(sp)
80007396:	44d2                	lw	s1,20(sp)
80007398:	4942                	lw	s2,16(sp)
8000739a:	4a22                	lw	s4,8(sp)
8000739c:	854e                	mv	a0,s3
8000739e:	49b2                	lw	s3,12(sp)
800073a0:	6105                	addi	sp,sp,32
800073a2:	8082                	ret

800073a4 <__lshift>:
__lshift():
800073a4:	1101                	addi	sp,sp,-32
800073a6:	cc22                	sw	s0,24(sp)
800073a8:	842e                	mv	s0,a1
800073aa:	c05a                	sw	s6,0(sp)
800073ac:	01042b03          	lw	s6,16(s0)
800073b0:	ca26                	sw	s1,20(sp)
800073b2:	41cc                	lw	a1,4(a1)
800073b4:	40565493          	srai	s1,a2,0x5
800073b8:	441c                	lw	a5,8(s0)
800073ba:	9b26                	add	s6,s6,s1
800073bc:	c84a                	sw	s2,16(sp)
800073be:	c452                	sw	s4,8(sp)
800073c0:	c256                	sw	s5,4(sp)
800073c2:	ce06                	sw	ra,28(sp)
800073c4:	c64e                	sw	s3,12(sp)
800073c6:	8aaa                	mv	s5,a0
800073c8:	8932                	mv	s2,a2
800073ca:	001b0a13          	addi	s4,s6,1
800073ce:	0347c463          	blt	a5,s4,800073f6 <__lshift+0x52>
800073d2:	8556                	mv	a0,s5
800073d4:	b13ff0ef          	jal	ra,80006ee6 <_Balloc>
800073d8:	89aa                	mv	s3,a0
800073da:	e10d                	bnez	a0,800073fc <__lshift+0x58>
800073dc:	00003697          	auipc	a3,0x3
800073e0:	f2c68693          	addi	a3,a3,-212 # 8000a308 <__clz_tab+0x1a4>
800073e4:	4601                	li	a2,0
800073e6:	1d900593          	li	a1,473
800073ea:	00003517          	auipc	a0,0x3
800073ee:	ffe50513          	addi	a0,a0,-2 # 8000a3e8 <__sf_fake_stdout+0x30>
800073f2:	109000ef          	jal	ra,80007cfa <__assert_func>
800073f6:	0585                	addi	a1,a1,1
800073f8:	0786                	slli	a5,a5,0x1
800073fa:	bfd1                	j	800073ce <__lshift+0x2a>
800073fc:	01450793          	addi	a5,a0,20
80007400:	86be                	mv	a3,a5
80007402:	4701                	li	a4,0
80007404:	0691                	addi	a3,a3,4
80007406:	08974563          	blt	a4,s1,80007490 <__lshift+0xec>
8000740a:	0004d363          	bgez	s1,80007410 <__lshift+0x6c>
8000740e:	4481                	li	s1,0
80007410:	048a                	slli	s1,s1,0x2
80007412:	009786b3          	add	a3,a5,s1
80007416:	481c                	lw	a5,16(s0)
80007418:	01440713          	addi	a4,s0,20
8000741c:	01f97613          	andi	a2,s2,31
80007420:	078a                	slli	a5,a5,0x2
80007422:	97ba                	add	a5,a5,a4
80007424:	ca35                	beqz	a2,80007498 <__lshift+0xf4>
80007426:	02000813          	li	a6,32
8000742a:	40c80833          	sub	a6,a6,a2
8000742e:	88b6                	mv	a7,a3
80007430:	4581                	li	a1,0
80007432:	4308                	lw	a0,0(a4)
80007434:	0891                	addi	a7,a7,4
80007436:	0711                	addi	a4,a4,4
80007438:	00c51533          	sll	a0,a0,a2
8000743c:	8dc9                	or	a1,a1,a0
8000743e:	feb8ae23          	sw	a1,-4(a7)
80007442:	ffc72583          	lw	a1,-4(a4)
80007446:	0105d5b3          	srl	a1,a1,a6
8000744a:	fef764e3          	bltu	a4,a5,80007432 <__lshift+0x8e>
8000744e:	01540713          	addi	a4,s0,21
80007452:	4611                	li	a2,4
80007454:	00e7e763          	bltu	a5,a4,80007462 <__lshift+0xbe>
80007458:	8f81                	sub	a5,a5,s0
8000745a:	17ad                	addi	a5,a5,-21
8000745c:	9bf1                	andi	a5,a5,-4
8000745e:	00478613          	addi	a2,a5,4
80007462:	96b2                	add	a3,a3,a2
80007464:	c28c                	sw	a1,0(a3)
80007466:	c199                	beqz	a1,8000746c <__lshift+0xc8>
80007468:	002b0a13          	addi	s4,s6,2
8000746c:	1a7d                	addi	s4,s4,-1
8000746e:	0149a823          	sw	s4,16(s3)
80007472:	8556                	mv	a0,s5
80007474:	85a2                	mv	a1,s0
80007476:	b03ff0ef          	jal	ra,80006f78 <_Bfree>
8000747a:	40f2                	lw	ra,28(sp)
8000747c:	4462                	lw	s0,24(sp)
8000747e:	44d2                	lw	s1,20(sp)
80007480:	4942                	lw	s2,16(sp)
80007482:	4a22                	lw	s4,8(sp)
80007484:	4a92                	lw	s5,4(sp)
80007486:	4b02                	lw	s6,0(sp)
80007488:	854e                	mv	a0,s3
8000748a:	49b2                	lw	s3,12(sp)
8000748c:	6105                	addi	sp,sp,32
8000748e:	8082                	ret
80007490:	fe06ae23          	sw	zero,-4(a3)
80007494:	0705                	addi	a4,a4,1
80007496:	b7bd                	j	80007404 <__lshift+0x60>
80007498:	4310                	lw	a2,0(a4)
8000749a:	0711                	addi	a4,a4,4
8000749c:	0691                	addi	a3,a3,4
8000749e:	fec6ae23          	sw	a2,-4(a3)
800074a2:	fef76be3          	bltu	a4,a5,80007498 <__lshift+0xf4>
800074a6:	b7d9                	j	8000746c <__lshift+0xc8>

800074a8 <__mcmp>:
__mcmp():
800074a8:	4914                	lw	a3,16(a0)
800074aa:	4998                	lw	a4,16(a1)
800074ac:	87aa                	mv	a5,a0
800074ae:	40e68533          	sub	a0,a3,a4
800074b2:	02e69563          	bne	a3,a4,800074dc <__mcmp+0x34>
800074b6:	070a                	slli	a4,a4,0x2
800074b8:	07d1                	addi	a5,a5,20
800074ba:	05d1                	addi	a1,a1,20
800074bc:	00e786b3          	add	a3,a5,a4
800074c0:	95ba                	add	a1,a1,a4
800074c2:	16f1                	addi	a3,a3,-4
800074c4:	15f1                	addi	a1,a1,-4
800074c6:	4290                	lw	a2,0(a3)
800074c8:	4198                	lw	a4,0(a1)
800074ca:	00e60763          	beq	a2,a4,800074d8 <__mcmp+0x30>
800074ce:	557d                	li	a0,-1
800074d0:	00e66663          	bltu	a2,a4,800074dc <__mcmp+0x34>
800074d4:	4505                	li	a0,1
800074d6:	8082                	ret
800074d8:	fed7e5e3          	bltu	a5,a3,800074c2 <__mcmp+0x1a>
800074dc:	8082                	ret

800074de <__mdiff>:
__mdiff():
800074de:	1101                	addi	sp,sp,-32
800074e0:	cc22                	sw	s0,24(sp)
800074e2:	842e                	mv	s0,a1
800074e4:	c84a                	sw	s2,16(sp)
800074e6:	85b2                	mv	a1,a2
800074e8:	892a                	mv	s2,a0
800074ea:	8522                	mv	a0,s0
800074ec:	ca26                	sw	s1,20(sp)
800074ee:	ce06                	sw	ra,28(sp)
800074f0:	c64e                	sw	s3,12(sp)
800074f2:	84b2                	mv	s1,a2
800074f4:	fb5ff0ef          	jal	ra,800074a8 <__mcmp>
800074f8:	ed15                	bnez	a0,80007534 <__mdiff+0x56>
800074fa:	4581                	li	a1,0
800074fc:	854a                	mv	a0,s2
800074fe:	9e9ff0ef          	jal	ra,80006ee6 <_Balloc>
80007502:	ed11                	bnez	a0,8000751e <__mdiff+0x40>
80007504:	00003697          	auipc	a3,0x3
80007508:	e0468693          	addi	a3,a3,-508 # 8000a308 <__clz_tab+0x1a4>
8000750c:	4601                	li	a2,0
8000750e:	23200593          	li	a1,562
80007512:	00003517          	auipc	a0,0x3
80007516:	ed650513          	addi	a0,a0,-298 # 8000a3e8 <__sf_fake_stdout+0x30>
8000751a:	7e0000ef          	jal	ra,80007cfa <__assert_func>
8000751e:	4785                	li	a5,1
80007520:	c91c                	sw	a5,16(a0)
80007522:	00052a23          	sw	zero,20(a0)
80007526:	40f2                	lw	ra,28(sp)
80007528:	4462                	lw	s0,24(sp)
8000752a:	44d2                	lw	s1,20(sp)
8000752c:	4942                	lw	s2,16(sp)
8000752e:	49b2                	lw	s3,12(sp)
80007530:	6105                	addi	sp,sp,32
80007532:	8082                	ret
80007534:	4985                	li	s3,1
80007536:	00054663          	bltz	a0,80007542 <__mdiff+0x64>
8000753a:	87a6                	mv	a5,s1
8000753c:	4981                	li	s3,0
8000753e:	84a2                	mv	s1,s0
80007540:	843e                	mv	s0,a5
80007542:	40cc                	lw	a1,4(s1)
80007544:	854a                	mv	a0,s2
80007546:	9a1ff0ef          	jal	ra,80006ee6 <_Balloc>
8000754a:	e909                	bnez	a0,8000755c <__mdiff+0x7e>
8000754c:	00003697          	auipc	a3,0x3
80007550:	dbc68693          	addi	a3,a3,-580 # 8000a308 <__clz_tab+0x1a4>
80007554:	4601                	li	a2,0
80007556:	24000593          	li	a1,576
8000755a:	bf65                	j	80007512 <__mdiff+0x34>
8000755c:	0104a803          	lw	a6,16(s1)
80007560:	4818                	lw	a4,16(s0)
80007562:	01448893          	addi	a7,s1,20
80007566:	00281693          	slli	a3,a6,0x2
8000756a:	01440793          	addi	a5,s0,20
8000756e:	070a                	slli	a4,a4,0x2
80007570:	6ec1                	lui	t4,0x10
80007572:	01352623          	sw	s3,12(a0)
80007576:	96c6                	add	a3,a3,a7
80007578:	97ba                	add	a5,a5,a4
8000757a:	01450613          	addi	a2,a0,20
8000757e:	4e51                	li	t3,20
80007580:	4301                	li	t1,0
80007582:	1efd                	addi	t4,t4,-1
80007584:	01c48733          	add	a4,s1,t3
80007588:	4318                	lw	a4,0(a4)
8000758a:	01c405b3          	add	a1,s0,t3
8000758e:	0005af03          	lw	t5,0(a1) # 10000 <__stack_size+0xf800>
80007592:	01d775b3          	and	a1,a4,t4
80007596:	959a                	add	a1,a1,t1
80007598:	01df7333          	and	t1,t5,t4
8000759c:	406585b3          	sub	a1,a1,t1
800075a0:	010f5f13          	srli	t5,t5,0x10
800075a4:	8341                	srli	a4,a4,0x10
800075a6:	4105d313          	srai	t1,a1,0x10
800075aa:	41e70733          	sub	a4,a4,t5
800075ae:	971a                	add	a4,a4,t1
800075b0:	41075313          	srai	t1,a4,0x10
800075b4:	01d5f5b3          	and	a1,a1,t4
800075b8:	0742                	slli	a4,a4,0x10
800075ba:	01c50f33          	add	t5,a0,t3
800075be:	8f4d                	or	a4,a4,a1
800075c0:	0e11                	addi	t3,t3,4
800075c2:	00ef2023          	sw	a4,0(t5)
800075c6:	008e0733          	add	a4,t3,s0
800075ca:	faf76de3          	bltu	a4,a5,80007584 <__mdiff+0xa6>
800075ce:	01540593          	addi	a1,s0,21
800075d2:	4711                	li	a4,4
800075d4:	00b7e763          	bltu	a5,a1,800075e2 <__mdiff+0x104>
800075d8:	8f81                	sub	a5,a5,s0
800075da:	17ad                	addi	a5,a5,-21
800075dc:	9bf1                	andi	a5,a5,-4
800075de:	00478713          	addi	a4,a5,4
800075e2:	98ba                	add	a7,a7,a4
800075e4:	6e41                	lui	t3,0x10
800075e6:	9732                	add	a4,a4,a2
800075e8:	8eba                	mv	t4,a4
800075ea:	85c6                	mv	a1,a7
800075ec:	1e7d                	addi	t3,t3,-1
800075ee:	02d5e263          	bltu	a1,a3,80007612 <__mdiff+0x134>
800075f2:	ffd88613          	addi	a2,a7,-3
800075f6:	4781                	li	a5,0
800075f8:	00c6e663          	bltu	a3,a2,80007604 <__mdiff+0x126>
800075fc:	068d                	addi	a3,a3,3
800075fe:	411687b3          	sub	a5,a3,a7
80007602:	9bf1                	andi	a5,a5,-4
80007604:	97ba                	add	a5,a5,a4
80007606:	17f1                	addi	a5,a5,-4
80007608:	4398                	lw	a4,0(a5)
8000760a:	c71d                	beqz	a4,80007638 <__mdiff+0x15a>
8000760c:	01052823          	sw	a6,16(a0)
80007610:	bf19                	j	80007526 <__mdiff+0x48>
80007612:	419c                	lw	a5,0(a1)
80007614:	0e91                	addi	t4,t4,4
80007616:	0591                	addi	a1,a1,4
80007618:	01c7f633          	and	a2,a5,t3
8000761c:	961a                	add	a2,a2,t1
8000761e:	41065313          	srai	t1,a2,0x10
80007622:	83c1                	srli	a5,a5,0x10
80007624:	979a                	add	a5,a5,t1
80007626:	4107d313          	srai	t1,a5,0x10
8000762a:	01c67633          	and	a2,a2,t3
8000762e:	07c2                	slli	a5,a5,0x10
80007630:	8fd1                	or	a5,a5,a2
80007632:	fefeae23          	sw	a5,-4(t4) # fffc <__stack_size+0xf7fc>
80007636:	bf65                	j	800075ee <__mdiff+0x110>
80007638:	187d                	addi	a6,a6,-1
8000763a:	b7f1                	j	80007606 <__mdiff+0x128>

8000763c <__d2b>:
__d2b():
8000763c:	7179                	addi	sp,sp,-48
8000763e:	d226                	sw	s1,36(sp)
80007640:	84ae                	mv	s1,a1
80007642:	4585                	li	a1,1
80007644:	d422                	sw	s0,40(sp)
80007646:	d04a                	sw	s2,32(sp)
80007648:	ce4e                	sw	s3,28(sp)
8000764a:	d606                	sw	ra,44(sp)
8000764c:	cc52                	sw	s4,24(sp)
8000764e:	8432                	mv	s0,a2
80007650:	89b6                	mv	s3,a3
80007652:	893a                	mv	s2,a4
80007654:	893ff0ef          	jal	ra,80006ee6 <_Balloc>
80007658:	ed09                	bnez	a0,80007672 <__d2b+0x36>
8000765a:	00003697          	auipc	a3,0x3
8000765e:	cae68693          	addi	a3,a3,-850 # 8000a308 <__clz_tab+0x1a4>
80007662:	4601                	li	a2,0
80007664:	30a00593          	li	a1,778
80007668:	00003517          	auipc	a0,0x3
8000766c:	d8050513          	addi	a0,a0,-640 # 8000a3e8 <__sf_fake_stdout+0x30>
80007670:	2569                	jal	80007cfa <__assert_func>
80007672:	00100737          	lui	a4,0x100
80007676:	fff70793          	addi	a5,a4,-1 # fffff <__stack_size+0xff7ff>
8000767a:	8fe1                	and	a5,a5,s0
8000767c:	8051                	srli	s0,s0,0x14
8000767e:	7ff47413          	andi	s0,s0,2047
80007682:	8a2a                	mv	s4,a0
80007684:	e035                	bnez	s0,800076e8 <__d2b+0xac>
80007686:	c63e                	sw	a5,12(sp)
80007688:	c4ad                	beqz	s1,800076f2 <__d2b+0xb6>
8000768a:	0028                	addi	a0,sp,8
8000768c:	c426                	sw	s1,8(sp)
8000768e:	a37ff0ef          	jal	ra,800070c4 <__lo0bits>
80007692:	46a2                	lw	a3,8(sp)
80007694:	cd21                	beqz	a0,800076ec <__d2b+0xb0>
80007696:	4732                	lw	a4,12(sp)
80007698:	02000793          	li	a5,32
8000769c:	8f89                	sub	a5,a5,a0
8000769e:	00f717b3          	sll	a5,a4,a5
800076a2:	8fd5                	or	a5,a5,a3
800076a4:	00a75733          	srl	a4,a4,a0
800076a8:	00fa2a23          	sw	a5,20(s4)
800076ac:	c63a                	sw	a4,12(sp)
800076ae:	44b2                	lw	s1,12(sp)
800076b0:	009a2c23          	sw	s1,24(s4)
800076b4:	009034b3          	snez	s1,s1
800076b8:	0485                	addi	s1,s1,1
800076ba:	009a2823          	sw	s1,16(s4)
800076be:	c439                	beqz	s0,8000770c <__d2b+0xd0>
800076c0:	bcd40413          	addi	s0,s0,-1075
800076c4:	942a                	add	s0,s0,a0
800076c6:	03500793          	li	a5,53
800076ca:	0089a023          	sw	s0,0(s3)
800076ce:	40a78533          	sub	a0,a5,a0
800076d2:	00a92023          	sw	a0,0(s2)
800076d6:	50b2                	lw	ra,44(sp)
800076d8:	5422                	lw	s0,40(sp)
800076da:	5492                	lw	s1,36(sp)
800076dc:	5902                	lw	s2,32(sp)
800076de:	49f2                	lw	s3,28(sp)
800076e0:	8552                	mv	a0,s4
800076e2:	4a62                	lw	s4,24(sp)
800076e4:	6145                	addi	sp,sp,48
800076e6:	8082                	ret
800076e8:	8fd9                	or	a5,a5,a4
800076ea:	bf71                	j	80007686 <__d2b+0x4a>
800076ec:	00da2a23          	sw	a3,20(s4)
800076f0:	bf7d                	j	800076ae <__d2b+0x72>
800076f2:	0068                	addi	a0,sp,12
800076f4:	9d1ff0ef          	jal	ra,800070c4 <__lo0bits>
800076f8:	47b2                	lw	a5,12(sp)
800076fa:	02050513          	addi	a0,a0,32
800076fe:	4485                	li	s1,1
80007700:	00fa2a23          	sw	a5,20(s4)
80007704:	4785                	li	a5,1
80007706:	00fa2823          	sw	a5,16(s4)
8000770a:	bf55                	j	800076be <__d2b+0x82>
8000770c:	bce50793          	addi	a5,a0,-1074
80007710:	00f9a023          	sw	a5,0(s3)
80007714:	00249793          	slli	a5,s1,0x2
80007718:	97d2                	add	a5,a5,s4
8000771a:	4b88                	lw	a0,16(a5)
8000771c:	0496                	slli	s1,s1,0x5
8000771e:	961ff0ef          	jal	ra,8000707e <__hi0bits>
80007722:	8c89                	sub	s1,s1,a0
80007724:	00992023          	sw	s1,0(s2)
80007728:	b77d                	j	800076d6 <__d2b+0x9a>

8000772a <_calloc_r>:
_calloc_r():
8000772a:	02c58633          	mul	a2,a1,a2
8000772e:	1101                	addi	sp,sp,-32
80007730:	cc22                	sw	s0,24(sp)
80007732:	ce06                	sw	ra,28(sp)
80007734:	85b2                	mv	a1,a2
80007736:	c632                	sw	a2,12(sp)
80007738:	285d                	jal	800077ee <_malloc_r>
8000773a:	842a                	mv	s0,a0
8000773c:	c509                	beqz	a0,80007746 <_calloc_r+0x1c>
8000773e:	4632                	lw	a2,12(sp)
80007740:	4581                	li	a1,0
80007742:	efcff0ef          	jal	ra,80006e3e <memset>
80007746:	40f2                	lw	ra,28(sp)
80007748:	8522                	mv	a0,s0
8000774a:	4462                	lw	s0,24(sp)
8000774c:	6105                	addi	sp,sp,32
8000774e:	8082                	ret

80007750 <_free_r>:
_free_r():
80007750:	cdd1                	beqz	a1,800077ec <_free_r+0x9c>
80007752:	ffc5a783          	lw	a5,-4(a1)
80007756:	1101                	addi	sp,sp,-32
80007758:	cc22                	sw	s0,24(sp)
8000775a:	ce06                	sw	ra,28(sp)
8000775c:	ffc58413          	addi	s0,a1,-4
80007760:	0007d363          	bgez	a5,80007766 <_free_r+0x16>
80007764:	943e                	add	s0,s0,a5
80007766:	c62a                	sw	a0,12(sp)
80007768:	2d51                	jal	80007dfc <__malloc_lock>
8000776a:	9fc18713          	addi	a4,gp,-1540 # 900003cc <__malloc_free_list>
8000776e:	431c                	lw	a5,0(a4)
80007770:	4532                	lw	a0,12(sp)
80007772:	eb81                	bnez	a5,80007782 <_free_r+0x32>
80007774:	00042223          	sw	zero,4(s0)
80007778:	c300                	sw	s0,0(a4)
8000777a:	4462                	lw	s0,24(sp)
8000777c:	40f2                	lw	ra,28(sp)
8000777e:	6105                	addi	sp,sp,32
80007780:	adbd                	j	80007dfe <__malloc_unlock>
80007782:	00f47d63          	bgeu	s0,a5,8000779c <_free_r+0x4c>
80007786:	4010                	lw	a2,0(s0)
80007788:	00c406b3          	add	a3,s0,a2
8000778c:	00d79663          	bne	a5,a3,80007798 <_free_r+0x48>
80007790:	4394                	lw	a3,0(a5)
80007792:	43dc                	lw	a5,4(a5)
80007794:	96b2                	add	a3,a3,a2
80007796:	c014                	sw	a3,0(s0)
80007798:	c05c                	sw	a5,4(s0)
8000779a:	bff9                	j	80007778 <_free_r+0x28>
8000779c:	873e                	mv	a4,a5
8000779e:	43dc                	lw	a5,4(a5)
800077a0:	c399                	beqz	a5,800077a6 <_free_r+0x56>
800077a2:	fef47de3          	bgeu	s0,a5,8000779c <_free_r+0x4c>
800077a6:	4314                	lw	a3,0(a4)
800077a8:	00d70633          	add	a2,a4,a3
800077ac:	00861f63          	bne	a2,s0,800077ca <_free_r+0x7a>
800077b0:	4010                	lw	a2,0(s0)
800077b2:	96b2                	add	a3,a3,a2
800077b4:	c314                	sw	a3,0(a4)
800077b6:	00d70633          	add	a2,a4,a3
800077ba:	fcc790e3          	bne	a5,a2,8000777a <_free_r+0x2a>
800077be:	4390                	lw	a2,0(a5)
800077c0:	43dc                	lw	a5,4(a5)
800077c2:	96b2                	add	a3,a3,a2
800077c4:	c314                	sw	a3,0(a4)
800077c6:	c35c                	sw	a5,4(a4)
800077c8:	bf4d                	j	8000777a <_free_r+0x2a>
800077ca:	00c47563          	bgeu	s0,a2,800077d4 <_free_r+0x84>
800077ce:	47b1                	li	a5,12
800077d0:	c11c                	sw	a5,0(a0)
800077d2:	b765                	j	8000777a <_free_r+0x2a>
800077d4:	4010                	lw	a2,0(s0)
800077d6:	00c406b3          	add	a3,s0,a2
800077da:	00d79663          	bne	a5,a3,800077e6 <_free_r+0x96>
800077de:	4394                	lw	a3,0(a5)
800077e0:	43dc                	lw	a5,4(a5)
800077e2:	96b2                	add	a3,a3,a2
800077e4:	c014                	sw	a3,0(s0)
800077e6:	c05c                	sw	a5,4(s0)
800077e8:	c340                	sw	s0,4(a4)
800077ea:	bf41                	j	8000777a <_free_r+0x2a>
800077ec:	8082                	ret

800077ee <_malloc_r>:
_malloc_r():
800077ee:	1101                	addi	sp,sp,-32
800077f0:	ca26                	sw	s1,20(sp)
800077f2:	00358493          	addi	s1,a1,3
800077f6:	98f1                	andi	s1,s1,-4
800077f8:	c84a                	sw	s2,16(sp)
800077fa:	ce06                	sw	ra,28(sp)
800077fc:	cc22                	sw	s0,24(sp)
800077fe:	c64e                	sw	s3,12(sp)
80007800:	04a1                	addi	s1,s1,8
80007802:	47b1                	li	a5,12
80007804:	892a                	mv	s2,a0
80007806:	04f4f063          	bgeu	s1,a5,80007846 <_malloc_r+0x58>
8000780a:	44b1                	li	s1,12
8000780c:	02b4ef63          	bltu	s1,a1,8000784a <_malloc_r+0x5c>
80007810:	854a                	mv	a0,s2
80007812:	23ed                	jal	80007dfc <__malloc_lock>
80007814:	9fc18693          	addi	a3,gp,-1540 # 900003cc <__malloc_free_list>
80007818:	4298                	lw	a4,0(a3)
8000781a:	843a                	mv	s0,a4
8000781c:	e031                	bnez	s0,80007860 <_malloc_r+0x72>
8000781e:	a0018413          	addi	s0,gp,-1536 # 900003d0 <__malloc_sbrk_start>
80007822:	401c                	lw	a5,0(s0)
80007824:	e789                	bnez	a5,8000782e <_malloc_r+0x40>
80007826:	4581                	li	a1,0
80007828:	854a                	mv	a0,s2
8000782a:	264d                	jal	80007bcc <_sbrk_r>
8000782c:	c008                	sw	a0,0(s0)
8000782e:	85a6                	mv	a1,s1
80007830:	854a                	mv	a0,s2
80007832:	2e69                	jal	80007bcc <_sbrk_r>
80007834:	59fd                	li	s3,-1
80007836:	07351863          	bne	a0,s3,800078a6 <_malloc_r+0xb8>
8000783a:	47b1                	li	a5,12
8000783c:	00f92023          	sw	a5,0(s2)
80007840:	854a                	mv	a0,s2
80007842:	2b75                	jal	80007dfe <__malloc_unlock>
80007844:	a031                	j	80007850 <_malloc_r+0x62>
80007846:	fc04d3e3          	bgez	s1,8000780c <_malloc_r+0x1e>
8000784a:	47b1                	li	a5,12
8000784c:	00f92023          	sw	a5,0(s2)
80007850:	4501                	li	a0,0
80007852:	40f2                	lw	ra,28(sp)
80007854:	4462                	lw	s0,24(sp)
80007856:	44d2                	lw	s1,20(sp)
80007858:	4942                	lw	s2,16(sp)
8000785a:	49b2                	lw	s3,12(sp)
8000785c:	6105                	addi	sp,sp,32
8000785e:	8082                	ret
80007860:	401c                	lw	a5,0(s0)
80007862:	8f85                	sub	a5,a5,s1
80007864:	0207ce63          	bltz	a5,800078a0 <_malloc_r+0xb2>
80007868:	462d                	li	a2,11
8000786a:	00f67663          	bgeu	a2,a5,80007876 <_malloc_r+0x88>
8000786e:	c01c                	sw	a5,0(s0)
80007870:	943e                	add	s0,s0,a5
80007872:	c004                	sw	s1,0(s0)
80007874:	a029                	j	8000787e <_malloc_r+0x90>
80007876:	405c                	lw	a5,4(s0)
80007878:	02871263          	bne	a4,s0,8000789c <_malloc_r+0xae>
8000787c:	c29c                	sw	a5,0(a3)
8000787e:	854a                	mv	a0,s2
80007880:	2bbd                	jal	80007dfe <__malloc_unlock>
80007882:	00b40513          	addi	a0,s0,11
80007886:	00440793          	addi	a5,s0,4
8000788a:	9961                	andi	a0,a0,-8
8000788c:	40f50733          	sub	a4,a0,a5
80007890:	fcf501e3          	beq	a0,a5,80007852 <_malloc_r+0x64>
80007894:	943a                	add	s0,s0,a4
80007896:	8f89                	sub	a5,a5,a0
80007898:	c01c                	sw	a5,0(s0)
8000789a:	bf65                	j	80007852 <_malloc_r+0x64>
8000789c:	c35c                	sw	a5,4(a4)
8000789e:	b7c5                	j	8000787e <_malloc_r+0x90>
800078a0:	8722                	mv	a4,s0
800078a2:	4040                	lw	s0,4(s0)
800078a4:	bfa5                	j	8000781c <_malloc_r+0x2e>
800078a6:	00350413          	addi	s0,a0,3
800078aa:	9871                	andi	s0,s0,-4
800078ac:	fc8503e3          	beq	a0,s0,80007872 <_malloc_r+0x84>
800078b0:	40a405b3          	sub	a1,s0,a0
800078b4:	854a                	mv	a0,s2
800078b6:	2e19                	jal	80007bcc <_sbrk_r>
800078b8:	fb351de3          	bne	a0,s3,80007872 <_malloc_r+0x84>
800078bc:	bfbd                	j	8000783a <_malloc_r+0x4c>

800078be <__sfputc_r>:
__sfputc_r():
800078be:	461c                	lw	a5,8(a2)
800078c0:	17fd                	addi	a5,a5,-1
800078c2:	c61c                	sw	a5,8(a2)
800078c4:	0007da63          	bgez	a5,800078d8 <__sfputc_r+0x1a>
800078c8:	4e18                	lw	a4,24(a2)
800078ca:	00e7c563          	blt	a5,a4,800078d4 <__sfputc_r+0x16>
800078ce:	47a9                	li	a5,10
800078d0:	00f59463          	bne	a1,a5,800078d8 <__sfputc_r+0x1a>
800078d4:	fabfd06f          	j	8000587e <__swbuf_r>
800078d8:	421c                	lw	a5,0(a2)
800078da:	852e                	mv	a0,a1
800078dc:	00178713          	addi	a4,a5,1
800078e0:	c218                	sw	a4,0(a2)
800078e2:	00b78023          	sb	a1,0(a5)
800078e6:	8082                	ret

800078e8 <__sfputs_r>:
__sfputs_r():
800078e8:	1101                	addi	sp,sp,-32
800078ea:	cc22                	sw	s0,24(sp)
800078ec:	ca26                	sw	s1,20(sp)
800078ee:	c84a                	sw	s2,16(sp)
800078f0:	c64e                	sw	s3,12(sp)
800078f2:	c452                	sw	s4,8(sp)
800078f4:	ce06                	sw	ra,28(sp)
800078f6:	892a                	mv	s2,a0
800078f8:	89ae                	mv	s3,a1
800078fa:	8432                	mv	s0,a2
800078fc:	00d604b3          	add	s1,a2,a3
80007900:	5a7d                	li	s4,-1
80007902:	00941463          	bne	s0,s1,8000790a <__sfputs_r+0x22>
80007906:	4501                	li	a0,0
80007908:	a811                	j	8000791c <__sfputs_r+0x34>
8000790a:	00044583          	lbu	a1,0(s0)
8000790e:	864e                	mv	a2,s3
80007910:	854a                	mv	a0,s2
80007912:	fadff0ef          	jal	ra,800078be <__sfputc_r>
80007916:	0405                	addi	s0,s0,1
80007918:	ff4515e3          	bne	a0,s4,80007902 <__sfputs_r+0x1a>
8000791c:	40f2                	lw	ra,28(sp)
8000791e:	4462                	lw	s0,24(sp)
80007920:	44d2                	lw	s1,20(sp)
80007922:	4942                	lw	s2,16(sp)
80007924:	49b2                	lw	s3,12(sp)
80007926:	4a22                	lw	s4,8(sp)
80007928:	6105                	addi	sp,sp,32
8000792a:	8082                	ret

8000792c <_vfiprintf_r>:
_vfiprintf_r():
8000792c:	7135                	addi	sp,sp,-160
8000792e:	cd22                	sw	s0,152(sp)
80007930:	cb26                	sw	s1,148(sp)
80007932:	c94a                	sw	s2,144(sp)
80007934:	c74e                	sw	s3,140(sp)
80007936:	cf06                	sw	ra,156(sp)
80007938:	c552                	sw	s4,136(sp)
8000793a:	c356                	sw	s5,132(sp)
8000793c:	c15a                	sw	s6,128(sp)
8000793e:	dede                	sw	s7,124(sp)
80007940:	dce2                	sw	s8,120(sp)
80007942:	dae6                	sw	s9,116(sp)
80007944:	89aa                	mv	s3,a0
80007946:	84ae                	mv	s1,a1
80007948:	8932                	mv	s2,a2
8000794a:	8436                	mv	s0,a3
8000794c:	c509                	beqz	a0,80007956 <_vfiprintf_r+0x2a>
8000794e:	4d1c                	lw	a5,24(a0)
80007950:	e399                	bnez	a5,80007956 <_vfiprintf_r+0x2a>
80007952:	940ff0ef          	jal	ra,80006a92 <__sinit>
80007956:	00003797          	auipc	a5,0x3
8000795a:	a4278793          	addi	a5,a5,-1470 # 8000a398 <__sf_fake_stdin>
8000795e:	0cf49d63          	bne	s1,a5,80007a38 <_vfiprintf_r+0x10c>
80007962:	0049a483          	lw	s1,4(s3)
80007966:	00c4d783          	lhu	a5,12(s1)
8000796a:	8ba1                	andi	a5,a5,8
8000796c:	cbe5                	beqz	a5,80007a5c <_vfiprintf_r+0x130>
8000796e:	489c                	lw	a5,16(s1)
80007970:	c7f5                	beqz	a5,80007a5c <_vfiprintf_r+0x130>
80007972:	02000793          	li	a5,32
80007976:	02f104a3          	sb	a5,41(sp)
8000797a:	03000793          	li	a5,48
8000797e:	d202                	sw	zero,36(sp)
80007980:	02f10523          	sb	a5,42(sp)
80007984:	c622                	sw	s0,12(sp)
80007986:	02500b93          	li	s7,37
8000798a:	00003a97          	auipc	s5,0x3
8000798e:	bbaa8a93          	addi	s5,s5,-1094 # 8000a544 <p05.0+0xc>
80007992:	4c05                	li	s8,1
80007994:	4b29                	li	s6,10
80007996:	844a                	mv	s0,s2
80007998:	00044783          	lbu	a5,0(s0)
8000799c:	c399                	beqz	a5,800079a2 <_vfiprintf_r+0x76>
8000799e:	0f779263          	bne	a5,s7,80007a82 <_vfiprintf_r+0x156>
800079a2:	41240cb3          	sub	s9,s0,s2
800079a6:	01240e63          	beq	s0,s2,800079c2 <_vfiprintf_r+0x96>
800079aa:	86e6                	mv	a3,s9
800079ac:	864a                	mv	a2,s2
800079ae:	85a6                	mv	a1,s1
800079b0:	854e                	mv	a0,s3
800079b2:	f37ff0ef          	jal	ra,800078e8 <__sfputs_r>
800079b6:	57fd                	li	a5,-1
800079b8:	1ef50763          	beq	a0,a5,80007ba6 <_vfiprintf_r+0x27a>
800079bc:	5792                	lw	a5,36(sp)
800079be:	97e6                	add	a5,a5,s9
800079c0:	d23e                	sw	a5,36(sp)
800079c2:	00044783          	lbu	a5,0(s0)
800079c6:	1e078063          	beqz	a5,80007ba6 <_vfiprintf_r+0x27a>
800079ca:	57fd                	li	a5,-1
800079cc:	00140913          	addi	s2,s0,1
800079d0:	c802                	sw	zero,16(sp)
800079d2:	ce02                	sw	zero,28(sp)
800079d4:	ca3e                	sw	a5,20(sp)
800079d6:	cc02                	sw	zero,24(sp)
800079d8:	040109a3          	sb	zero,83(sp)
800079dc:	d482                	sw	zero,104(sp)
800079de:	00094583          	lbu	a1,0(s2)
800079e2:	4615                	li	a2,5
800079e4:	8556                	mv	a0,s5
800079e6:	b6aff0ef          	jal	ra,80006d50 <memchr>
800079ea:	47c2                	lw	a5,16(sp)
800079ec:	00190413          	addi	s0,s2,1
800079f0:	e959                	bnez	a0,80007a86 <_vfiprintf_r+0x15a>
800079f2:	0107f713          	andi	a4,a5,16
800079f6:	c709                	beqz	a4,80007a00 <_vfiprintf_r+0xd4>
800079f8:	02000713          	li	a4,32
800079fc:	04e109a3          	sb	a4,83(sp)
80007a00:	0087f713          	andi	a4,a5,8
80007a04:	c709                	beqz	a4,80007a0e <_vfiprintf_r+0xe2>
80007a06:	02b00713          	li	a4,43
80007a0a:	04e109a3          	sb	a4,83(sp)
80007a0e:	00094683          	lbu	a3,0(s2)
80007a12:	02a00713          	li	a4,42
80007a16:	08e68063          	beq	a3,a4,80007a96 <_vfiprintf_r+0x16a>
80007a1a:	47f2                	lw	a5,28(sp)
80007a1c:	844a                	mv	s0,s2
80007a1e:	4681                	li	a3,0
80007a20:	4625                	li	a2,9
80007a22:	00044703          	lbu	a4,0(s0)
80007a26:	00140593          	addi	a1,s0,1
80007a2a:	fd070713          	addi	a4,a4,-48
80007a2e:	0ae67963          	bgeu	a2,a4,80007ae0 <_vfiprintf_r+0x1b4>
80007a32:	cab5                	beqz	a3,80007aa6 <_vfiprintf_r+0x17a>
80007a34:	ce3e                	sw	a5,28(sp)
80007a36:	a885                	j	80007aa6 <_vfiprintf_r+0x17a>
80007a38:	00003797          	auipc	a5,0x3
80007a3c:	98078793          	addi	a5,a5,-1664 # 8000a3b8 <__sf_fake_stdout>
80007a40:	00f49563          	bne	s1,a5,80007a4a <_vfiprintf_r+0x11e>
80007a44:	0089a483          	lw	s1,8(s3)
80007a48:	bf39                	j	80007966 <_vfiprintf_r+0x3a>
80007a4a:	00003797          	auipc	a5,0x3
80007a4e:	92e78793          	addi	a5,a5,-1746 # 8000a378 <__sf_fake_stderr>
80007a52:	f0f49ae3          	bne	s1,a5,80007966 <_vfiprintf_r+0x3a>
80007a56:	00c9a483          	lw	s1,12(s3)
80007a5a:	b731                	j	80007966 <_vfiprintf_r+0x3a>
80007a5c:	85a6                	mv	a1,s1
80007a5e:	854e                	mv	a0,s3
80007a60:	ee5fd0ef          	jal	ra,80005944 <__swsetup_r>
80007a64:	d519                	beqz	a0,80007972 <_vfiprintf_r+0x46>
80007a66:	557d                	li	a0,-1
80007a68:	40fa                	lw	ra,156(sp)
80007a6a:	446a                	lw	s0,152(sp)
80007a6c:	44da                	lw	s1,148(sp)
80007a6e:	494a                	lw	s2,144(sp)
80007a70:	49ba                	lw	s3,140(sp)
80007a72:	4a2a                	lw	s4,136(sp)
80007a74:	4a9a                	lw	s5,132(sp)
80007a76:	4b0a                	lw	s6,128(sp)
80007a78:	5bf6                	lw	s7,124(sp)
80007a7a:	5c66                	lw	s8,120(sp)
80007a7c:	5cd6                	lw	s9,116(sp)
80007a7e:	610d                	addi	sp,sp,160
80007a80:	8082                	ret
80007a82:	0405                	addi	s0,s0,1
80007a84:	bf11                	j	80007998 <_vfiprintf_r+0x6c>
80007a86:	41550533          	sub	a0,a0,s5
80007a8a:	00ac1533          	sll	a0,s8,a0
80007a8e:	8fc9                	or	a5,a5,a0
80007a90:	c83e                	sw	a5,16(sp)
80007a92:	8922                	mv	s2,s0
80007a94:	b7a9                	j	800079de <_vfiprintf_r+0xb2>
80007a96:	4732                	lw	a4,12(sp)
80007a98:	00470693          	addi	a3,a4,4
80007a9c:	4318                	lw	a4,0(a4)
80007a9e:	c636                	sw	a3,12(sp)
80007aa0:	02074963          	bltz	a4,80007ad2 <_vfiprintf_r+0x1a6>
80007aa4:	ce3a                	sw	a4,28(sp)
80007aa6:	00044703          	lbu	a4,0(s0)
80007aaa:	02e00793          	li	a5,46
80007aae:	04f71f63          	bne	a4,a5,80007b0c <_vfiprintf_r+0x1e0>
80007ab2:	00144703          	lbu	a4,1(s0)
80007ab6:	02a00793          	li	a5,42
80007aba:	02f71b63          	bne	a4,a5,80007af0 <_vfiprintf_r+0x1c4>
80007abe:	47b2                	lw	a5,12(sp)
80007ac0:	0409                	addi	s0,s0,2
80007ac2:	00478713          	addi	a4,a5,4
80007ac6:	439c                	lw	a5,0(a5)
80007ac8:	c63a                	sw	a4,12(sp)
80007aca:	0207c163          	bltz	a5,80007aec <_vfiprintf_r+0x1c0>
80007ace:	ca3e                	sw	a5,20(sp)
80007ad0:	a835                	j	80007b0c <_vfiprintf_r+0x1e0>
80007ad2:	40e00733          	neg	a4,a4
80007ad6:	0027e793          	ori	a5,a5,2
80007ada:	ce3a                	sw	a4,28(sp)
80007adc:	c83e                	sw	a5,16(sp)
80007ade:	b7e1                	j	80007aa6 <_vfiprintf_r+0x17a>
80007ae0:	036787b3          	mul	a5,a5,s6
80007ae4:	842e                	mv	s0,a1
80007ae6:	4685                	li	a3,1
80007ae8:	97ba                	add	a5,a5,a4
80007aea:	bf25                	j	80007a22 <_vfiprintf_r+0xf6>
80007aec:	57fd                	li	a5,-1
80007aee:	b7c5                	j	80007ace <_vfiprintf_r+0x1a2>
80007af0:	0405                	addi	s0,s0,1
80007af2:	ca02                	sw	zero,20(sp)
80007af4:	4681                	li	a3,0
80007af6:	4781                	li	a5,0
80007af8:	4625                	li	a2,9
80007afa:	00044703          	lbu	a4,0(s0)
80007afe:	00140593          	addi	a1,s0,1
80007b02:	fd070713          	addi	a4,a4,-48
80007b06:	06e67863          	bgeu	a2,a4,80007b76 <_vfiprintf_r+0x24a>
80007b0a:	f2f1                	bnez	a3,80007ace <_vfiprintf_r+0x1a2>
80007b0c:	00044583          	lbu	a1,0(s0)
80007b10:	460d                	li	a2,3
80007b12:	00003517          	auipc	a0,0x3
80007b16:	a3a50513          	addi	a0,a0,-1478 # 8000a54c <p05.0+0x14>
80007b1a:	a36ff0ef          	jal	ra,80006d50 <memchr>
80007b1e:	cd11                	beqz	a0,80007b3a <_vfiprintf_r+0x20e>
80007b20:	00003797          	auipc	a5,0x3
80007b24:	a2c78793          	addi	a5,a5,-1492 # 8000a54c <p05.0+0x14>
80007b28:	8d1d                	sub	a0,a0,a5
80007b2a:	04000793          	li	a5,64
80007b2e:	00a797b3          	sll	a5,a5,a0
80007b32:	4542                	lw	a0,16(sp)
80007b34:	0405                	addi	s0,s0,1
80007b36:	8d5d                	or	a0,a0,a5
80007b38:	c82a                	sw	a0,16(sp)
80007b3a:	00044583          	lbu	a1,0(s0)
80007b3e:	4619                	li	a2,6
80007b40:	00003517          	auipc	a0,0x3
80007b44:	a1050513          	addi	a0,a0,-1520 # 8000a550 <p05.0+0x18>
80007b48:	00140913          	addi	s2,s0,1
80007b4c:	02b10423          	sb	a1,40(sp)
80007b50:	a00ff0ef          	jal	ra,80006d50 <memchr>
80007b54:	c12d                	beqz	a0,80007bb6 <_vfiprintf_r+0x28a>
80007b56:	ffffd797          	auipc	a5,0xffffd
80007b5a:	2dc78793          	addi	a5,a5,732 # 80004e32 <_printf_float>
80007b5e:	e795                	bnez	a5,80007b8a <_vfiprintf_r+0x25e>
80007b60:	4742                	lw	a4,16(sp)
80007b62:	47b2                	lw	a5,12(sp)
80007b64:	10077713          	andi	a4,a4,256
80007b68:	cf09                	beqz	a4,80007b82 <_vfiprintf_r+0x256>
80007b6a:	0791                	addi	a5,a5,4
80007b6c:	c63e                	sw	a5,12(sp)
80007b6e:	5792                	lw	a5,36(sp)
80007b70:	97d2                	add	a5,a5,s4
80007b72:	d23e                	sw	a5,36(sp)
80007b74:	b50d                	j	80007996 <_vfiprintf_r+0x6a>
80007b76:	036787b3          	mul	a5,a5,s6
80007b7a:	842e                	mv	s0,a1
80007b7c:	4685                	li	a3,1
80007b7e:	97ba                	add	a5,a5,a4
80007b80:	bfad                	j	80007afa <_vfiprintf_r+0x1ce>
80007b82:	079d                	addi	a5,a5,7
80007b84:	9be1                	andi	a5,a5,-8
80007b86:	07a1                	addi	a5,a5,8
80007b88:	b7d5                	j	80007b6c <_vfiprintf_r+0x240>
80007b8a:	0078                	addi	a4,sp,12
80007b8c:	00000697          	auipc	a3,0x0
80007b90:	d5c68693          	addi	a3,a3,-676 # 800078e8 <__sfputs_r>
80007b94:	8626                	mv	a2,s1
80007b96:	080c                	addi	a1,sp,16
80007b98:	854e                	mv	a0,s3
80007b9a:	a98fd0ef          	jal	ra,80004e32 <_printf_float>
80007b9e:	57fd                	li	a5,-1
80007ba0:	8a2a                	mv	s4,a0
80007ba2:	fcf516e3          	bne	a0,a5,80007b6e <_vfiprintf_r+0x242>
80007ba6:	00c4d783          	lhu	a5,12(s1)
80007baa:	0407f793          	andi	a5,a5,64
80007bae:	ea079ce3          	bnez	a5,80007a66 <_vfiprintf_r+0x13a>
80007bb2:	5512                	lw	a0,36(sp)
80007bb4:	bd55                	j	80007a68 <_vfiprintf_r+0x13c>
80007bb6:	0078                	addi	a4,sp,12
80007bb8:	00000697          	auipc	a3,0x0
80007bbc:	d3068693          	addi	a3,a3,-720 # 800078e8 <__sfputs_r>
80007bc0:	8626                	mv	a2,s1
80007bc2:	080c                	addi	a1,sp,16
80007bc4:	854e                	mv	a0,s3
80007bc6:	85ffd0ef          	jal	ra,80005424 <_printf_i>
80007bca:	bfd1                	j	80007b9e <_vfiprintf_r+0x272>

80007bcc <_sbrk_r>:
_sbrk_r():
80007bcc:	1141                	addi	sp,sp,-16
80007bce:	c422                	sw	s0,8(sp)
80007bd0:	842a                	mv	s0,a0
80007bd2:	852e                	mv	a0,a1
80007bd4:	9e01aa23          	sw	zero,-1548(gp) # 900003c4 <errno>
80007bd8:	c606                	sw	ra,12(sp)
80007bda:	83ff80ef          	jal	ra,80000418 <_sbrk>
80007bde:	57fd                	li	a5,-1
80007be0:	00f51663          	bne	a0,a5,80007bec <_sbrk_r+0x20>
80007be4:	9f41a783          	lw	a5,-1548(gp) # 900003c4 <errno>
80007be8:	c391                	beqz	a5,80007bec <_sbrk_r+0x20>
80007bea:	c01c                	sw	a5,0(s0)
80007bec:	40b2                	lw	ra,12(sp)
80007bee:	4422                	lw	s0,8(sp)
80007bf0:	0141                	addi	sp,sp,16
80007bf2:	8082                	ret

80007bf4 <__sread>:
__sread():
80007bf4:	1141                	addi	sp,sp,-16
80007bf6:	c422                	sw	s0,8(sp)
80007bf8:	842e                	mv	s0,a1
80007bfa:	00e59583          	lh	a1,14(a1)
80007bfe:	c606                	sw	ra,12(sp)
80007c00:	2401                	jal	80007e00 <_read_r>
80007c02:	00054963          	bltz	a0,80007c14 <__sread+0x20>
80007c06:	487c                	lw	a5,84(s0)
80007c08:	97aa                	add	a5,a5,a0
80007c0a:	c87c                	sw	a5,84(s0)
80007c0c:	40b2                	lw	ra,12(sp)
80007c0e:	4422                	lw	s0,8(sp)
80007c10:	0141                	addi	sp,sp,16
80007c12:	8082                	ret
80007c14:	00c45783          	lhu	a5,12(s0)
80007c18:	777d                	lui	a4,0xfffff
80007c1a:	177d                	addi	a4,a4,-1
80007c1c:	8ff9                	and	a5,a5,a4
80007c1e:	00f41623          	sh	a5,12(s0)
80007c22:	b7ed                	j	80007c0c <__sread+0x18>

80007c24 <__swrite>:
__swrite():
80007c24:	00c5d783          	lhu	a5,12(a1)
80007c28:	1101                	addi	sp,sp,-32
80007c2a:	cc22                	sw	s0,24(sp)
80007c2c:	ca26                	sw	s1,20(sp)
80007c2e:	c84a                	sw	s2,16(sp)
80007c30:	c64e                	sw	s3,12(sp)
80007c32:	ce06                	sw	ra,28(sp)
80007c34:	1007f793          	andi	a5,a5,256
80007c38:	84aa                	mv	s1,a0
80007c3a:	842e                	mv	s0,a1
80007c3c:	8932                	mv	s2,a2
80007c3e:	89b6                	mv	s3,a3
80007c40:	c791                	beqz	a5,80007c4c <__swrite+0x28>
80007c42:	00e59583          	lh	a1,14(a1)
80007c46:	4689                	li	a3,2
80007c48:	4601                	li	a2,0
80007c4a:	2259                	jal	80007dd0 <_lseek_r>
80007c4c:	00c45783          	lhu	a5,12(s0)
80007c50:	777d                	lui	a4,0xfffff
80007c52:	177d                	addi	a4,a4,-1
80007c54:	8ff9                	and	a5,a5,a4
80007c56:	00e41583          	lh	a1,14(s0)
80007c5a:	00f41623          	sh	a5,12(s0)
80007c5e:	4462                	lw	s0,24(sp)
80007c60:	40f2                	lw	ra,28(sp)
80007c62:	86ce                	mv	a3,s3
80007c64:	864a                	mv	a2,s2
80007c66:	49b2                	lw	s3,12(sp)
80007c68:	4942                	lw	s2,16(sp)
80007c6a:	8526                	mv	a0,s1
80007c6c:	44d2                	lw	s1,20(sp)
80007c6e:	6105                	addi	sp,sp,32
80007c70:	a8b9                	j	80007cce <_write_r>

80007c72 <__sseek>:
__sseek():
80007c72:	1141                	addi	sp,sp,-16
80007c74:	c422                	sw	s0,8(sp)
80007c76:	842e                	mv	s0,a1
80007c78:	00e59583          	lh	a1,14(a1)
80007c7c:	c606                	sw	ra,12(sp)
80007c7e:	2a89                	jal	80007dd0 <_lseek_r>
80007c80:	57fd                	li	a5,-1
80007c82:	00c45703          	lhu	a4,12(s0)
80007c86:	00f51b63          	bne	a0,a5,80007c9c <__sseek+0x2a>
80007c8a:	77fd                	lui	a5,0xfffff
80007c8c:	17fd                	addi	a5,a5,-1
80007c8e:	8ff9                	and	a5,a5,a4
80007c90:	00f41623          	sh	a5,12(s0)
80007c94:	40b2                	lw	ra,12(sp)
80007c96:	4422                	lw	s0,8(sp)
80007c98:	0141                	addi	sp,sp,16
80007c9a:	8082                	ret
80007c9c:	6785                	lui	a5,0x1
80007c9e:	8fd9                	or	a5,a5,a4
80007ca0:	00f41623          	sh	a5,12(s0)
80007ca4:	c868                	sw	a0,84(s0)
80007ca6:	b7fd                	j	80007c94 <__sseek+0x22>

80007ca8 <__sclose>:
__sclose():
80007ca8:	00e59583          	lh	a1,14(a1)
80007cac:	a051                	j	80007d30 <_close_r>

80007cae <__ascii_wctomb>:
__ascii_wctomb():
80007cae:	cd91                	beqz	a1,80007cca <__ascii_wctomb+0x1c>
80007cb0:	0ff00793          	li	a5,255
80007cb4:	00c7f763          	bgeu	a5,a2,80007cc2 <__ascii_wctomb+0x14>
80007cb8:	08a00793          	li	a5,138
80007cbc:	c11c                	sw	a5,0(a0)
80007cbe:	557d                	li	a0,-1
80007cc0:	8082                	ret
80007cc2:	00c58023          	sb	a2,0(a1)
80007cc6:	4505                	li	a0,1
80007cc8:	8082                	ret
80007cca:	4501                	li	a0,0
80007ccc:	8082                	ret

80007cce <_write_r>:
_write_r():
80007cce:	1141                	addi	sp,sp,-16
80007cd0:	c422                	sw	s0,8(sp)
80007cd2:	842a                	mv	s0,a0
80007cd4:	852e                	mv	a0,a1
80007cd6:	85b2                	mv	a1,a2
80007cd8:	8636                	mv	a2,a3
80007cda:	9e01aa23          	sw	zero,-1548(gp) # 900003c4 <errno>
80007cde:	c606                	sw	ra,12(sp)
80007ce0:	f64f80ef          	jal	ra,80000444 <_write>
80007ce4:	57fd                	li	a5,-1
80007ce6:	00f51663          	bne	a0,a5,80007cf2 <_write_r+0x24>
80007cea:	9f41a783          	lw	a5,-1548(gp) # 900003c4 <errno>
80007cee:	c391                	beqz	a5,80007cf2 <_write_r+0x24>
80007cf0:	c01c                	sw	a5,0(s0)
80007cf2:	40b2                	lw	ra,12(sp)
80007cf4:	4422                	lw	s0,8(sp)
80007cf6:	0141                	addi	sp,sp,16
80007cf8:	8082                	ret

80007cfa <__assert_func>:
__assert_func():
80007cfa:	1141                	addi	sp,sp,-16
80007cfc:	80c1a783          	lw	a5,-2036(gp) # 900001dc <_impure_ptr>
80007d00:	8832                	mv	a6,a2
80007d02:	c606                	sw	ra,12(sp)
80007d04:	88aa                	mv	a7,a0
80007d06:	872e                	mv	a4,a1
80007d08:	47c8                	lw	a0,12(a5)
80007d0a:	8636                	mv	a2,a3
80007d0c:	00003797          	auipc	a5,0x3
80007d10:	84c78793          	addi	a5,a5,-1972 # 8000a558 <p05.0+0x20>
80007d14:	00081763          	bnez	a6,80007d22 <__assert_func+0x28>
80007d18:	00002797          	auipc	a5,0x2
80007d1c:	d4478793          	addi	a5,a5,-700 # 80009a5c <__trunctfdf2+0x2d4>
80007d20:	883e                	mv	a6,a5
80007d22:	86c6                	mv	a3,a7
80007d24:	00003597          	auipc	a1,0x3
80007d28:	84458593          	addi	a1,a1,-1980 # 8000a568 <p05.0+0x30>
80007d2c:	2035                	jal	80007d58 <fiprintf>
80007d2e:	28fd                	jal	80007e2c <abort>

80007d30 <_close_r>:
_close_r():
80007d30:	1141                	addi	sp,sp,-16
80007d32:	c422                	sw	s0,8(sp)
80007d34:	842a                	mv	s0,a0
80007d36:	852e                	mv	a0,a1
80007d38:	9e01aa23          	sw	zero,-1548(gp) # 900003c4 <errno>
80007d3c:	c606                	sw	ra,12(sp)
80007d3e:	e76f80ef          	jal	ra,800003b4 <_close>
80007d42:	57fd                	li	a5,-1
80007d44:	00f51663          	bne	a0,a5,80007d50 <_close_r+0x20>
80007d48:	9f41a783          	lw	a5,-1548(gp) # 900003c4 <errno>
80007d4c:	c391                	beqz	a5,80007d50 <_close_r+0x20>
80007d4e:	c01c                	sw	a5,0(s0)
80007d50:	40b2                	lw	ra,12(sp)
80007d52:	4422                	lw	s0,8(sp)
80007d54:	0141                	addi	sp,sp,16
80007d56:	8082                	ret

80007d58 <fiprintf>:
fprintf():
80007d58:	7139                	addi	sp,sp,-64
80007d5a:	d432                	sw	a2,40(sp)
80007d5c:	d636                	sw	a3,44(sp)
80007d5e:	862e                	mv	a2,a1
80007d60:	1034                	addi	a3,sp,40
80007d62:	85aa                	mv	a1,a0
80007d64:	80c1a503          	lw	a0,-2036(gp) # 900001dc <_impure_ptr>
80007d68:	ce06                	sw	ra,28(sp)
80007d6a:	d83a                	sw	a4,48(sp)
80007d6c:	da3e                	sw	a5,52(sp)
80007d6e:	dc42                	sw	a6,56(sp)
80007d70:	de46                	sw	a7,60(sp)
80007d72:	c636                	sw	a3,12(sp)
80007d74:	bb9ff0ef          	jal	ra,8000792c <_vfiprintf_r>
80007d78:	40f2                	lw	ra,28(sp)
80007d7a:	6121                	addi	sp,sp,64
80007d7c:	8082                	ret

80007d7e <_fstat_r>:
_fstat_r():
80007d7e:	1141                	addi	sp,sp,-16
80007d80:	c422                	sw	s0,8(sp)
80007d82:	842a                	mv	s0,a0
80007d84:	852e                	mv	a0,a1
80007d86:	85b2                	mv	a1,a2
80007d88:	9e01aa23          	sw	zero,-1548(gp) # 900003c4 <errno>
80007d8c:	c606                	sw	ra,12(sp)
80007d8e:	e36f80ef          	jal	ra,800003c4 <_fstat>
80007d92:	57fd                	li	a5,-1
80007d94:	00f51663          	bne	a0,a5,80007da0 <_fstat_r+0x22>
80007d98:	9f41a783          	lw	a5,-1548(gp) # 900003c4 <errno>
80007d9c:	c391                	beqz	a5,80007da0 <_fstat_r+0x22>
80007d9e:	c01c                	sw	a5,0(s0)
80007da0:	40b2                	lw	ra,12(sp)
80007da2:	4422                	lw	s0,8(sp)
80007da4:	0141                	addi	sp,sp,16
80007da6:	8082                	ret

80007da8 <_isatty_r>:
_isatty_r():
80007da8:	1141                	addi	sp,sp,-16
80007daa:	c422                	sw	s0,8(sp)
80007dac:	842a                	mv	s0,a0
80007dae:	852e                	mv	a0,a1
80007db0:	9e01aa23          	sw	zero,-1548(gp) # 900003c4 <errno>
80007db4:	c606                	sw	ra,12(sp)
80007db6:	e2ef80ef          	jal	ra,800003e4 <_isatty>
80007dba:	57fd                	li	a5,-1
80007dbc:	00f51663          	bne	a0,a5,80007dc8 <_isatty_r+0x20>
80007dc0:	9f41a783          	lw	a5,-1548(gp) # 900003c4 <errno>
80007dc4:	c391                	beqz	a5,80007dc8 <_isatty_r+0x20>
80007dc6:	c01c                	sw	a5,0(s0)
80007dc8:	40b2                	lw	ra,12(sp)
80007dca:	4422                	lw	s0,8(sp)
80007dcc:	0141                	addi	sp,sp,16
80007dce:	8082                	ret

80007dd0 <_lseek_r>:
_lseek_r():
80007dd0:	1141                	addi	sp,sp,-16
80007dd2:	c422                	sw	s0,8(sp)
80007dd4:	842a                	mv	s0,a0
80007dd6:	852e                	mv	a0,a1
80007dd8:	85b2                	mv	a1,a2
80007dda:	8636                	mv	a2,a3
80007ddc:	9e01aa23          	sw	zero,-1548(gp) # 900003c4 <errno>
80007de0:	c606                	sw	ra,12(sp)
80007de2:	e10f80ef          	jal	ra,800003f2 <_lseek>
80007de6:	57fd                	li	a5,-1
80007de8:	00f51663          	bne	a0,a5,80007df4 <_lseek_r+0x24>
80007dec:	9f41a783          	lw	a5,-1548(gp) # 900003c4 <errno>
80007df0:	c391                	beqz	a5,80007df4 <_lseek_r+0x24>
80007df2:	c01c                	sw	a5,0(s0)
80007df4:	40b2                	lw	ra,12(sp)
80007df6:	4422                	lw	s0,8(sp)
80007df8:	0141                	addi	sp,sp,16
80007dfa:	8082                	ret

80007dfc <__malloc_lock>:
__malloc_lock():
80007dfc:	8082                	ret

80007dfe <__malloc_unlock>:
__malloc_unlock():
80007dfe:	8082                	ret

80007e00 <_read_r>:
_read_r():
80007e00:	1141                	addi	sp,sp,-16
80007e02:	c422                	sw	s0,8(sp)
80007e04:	842a                	mv	s0,a0
80007e06:	852e                	mv	a0,a1
80007e08:	85b2                	mv	a1,a2
80007e0a:	8636                	mv	a2,a3
80007e0c:	9e01aa23          	sw	zero,-1548(gp) # 900003c4 <errno>
80007e10:	c606                	sw	ra,12(sp)
80007e12:	de4f80ef          	jal	ra,800003f6 <_read>
80007e16:	57fd                	li	a5,-1
80007e18:	00f51663          	bne	a0,a5,80007e24 <_read_r+0x24>
80007e1c:	9f41a783          	lw	a5,-1548(gp) # 900003c4 <errno>
80007e20:	c391                	beqz	a5,80007e24 <_read_r+0x24>
80007e22:	c01c                	sw	a5,0(s0)
80007e24:	40b2                	lw	ra,12(sp)
80007e26:	4422                	lw	s0,8(sp)
80007e28:	0141                	addi	sp,sp,16
80007e2a:	8082                	ret

80007e2c <abort>:
abort():
80007e2c:	1141                	addi	sp,sp,-16
80007e2e:	4519                	li	a0,6
80007e30:	c606                	sw	ra,12(sp)
80007e32:	20ad                	jal	80007e9c <raise>
80007e34:	4505                	li	a0,1
80007e36:	d88f80ef          	jal	ra,800003be <_exit>

80007e3a <_raise_r>:
_raise_r():
80007e3a:	1101                	addi	sp,sp,-32
80007e3c:	cc22                	sw	s0,24(sp)
80007e3e:	ce06                	sw	ra,28(sp)
80007e40:	47fd                	li	a5,31
80007e42:	842a                	mv	s0,a0
80007e44:	00b7f963          	bgeu	a5,a1,80007e56 <_raise_r+0x1c>
80007e48:	47d9                	li	a5,22
80007e4a:	c11c                	sw	a5,0(a0)
80007e4c:	557d                	li	a0,-1
80007e4e:	40f2                	lw	ra,28(sp)
80007e50:	4462                	lw	s0,24(sp)
80007e52:	6105                	addi	sp,sp,32
80007e54:	8082                	ret
80007e56:	417c                	lw	a5,68(a0)
80007e58:	862e                	mv	a2,a1
80007e5a:	c791                	beqz	a5,80007e66 <_raise_r+0x2c>
80007e5c:	00259713          	slli	a4,a1,0x2
80007e60:	97ba                	add	a5,a5,a4
80007e62:	4398                	lw	a4,0(a5)
80007e64:	eb19                	bnez	a4,80007e7a <_raise_r+0x40>
80007e66:	8522                	mv	a0,s0
80007e68:	c632                	sw	a2,12(sp)
80007e6a:	209d                	jal	80007ed0 <_getpid_r>
80007e6c:	85aa                	mv	a1,a0
80007e6e:	8522                	mv	a0,s0
80007e70:	4462                	lw	s0,24(sp)
80007e72:	4632                	lw	a2,12(sp)
80007e74:	40f2                	lw	ra,28(sp)
80007e76:	6105                	addi	sp,sp,32
80007e78:	a03d                	j	80007ea6 <_kill_r>
80007e7a:	4685                	li	a3,1
80007e7c:	4501                	li	a0,0
80007e7e:	fcd708e3          	beq	a4,a3,80007e4e <_raise_r+0x14>
80007e82:	56fd                	li	a3,-1
80007e84:	00d71663          	bne	a4,a3,80007e90 <_raise_r+0x56>
80007e88:	47d9                	li	a5,22
80007e8a:	c01c                	sw	a5,0(s0)
80007e8c:	4505                	li	a0,1
80007e8e:	b7c1                	j	80007e4e <_raise_r+0x14>
80007e90:	852e                	mv	a0,a1
80007e92:	0007a023          	sw	zero,0(a5)
80007e96:	9702                	jalr	a4
80007e98:	4501                	li	a0,0
80007e9a:	bf55                	j	80007e4e <_raise_r+0x14>

80007e9c <raise>:
raise():
80007e9c:	85aa                	mv	a1,a0
80007e9e:	80c1a503          	lw	a0,-2036(gp) # 900001dc <_impure_ptr>
80007ea2:	f99ff06f          	j	80007e3a <_raise_r>

80007ea6 <_kill_r>:
_kill_r():
80007ea6:	1141                	addi	sp,sp,-16
80007ea8:	c422                	sw	s0,8(sp)
80007eaa:	842a                	mv	s0,a0
80007eac:	852e                	mv	a0,a1
80007eae:	85b2                	mv	a1,a2
80007eb0:	9e01aa23          	sw	zero,-1548(gp) # 900003c4 <errno>
80007eb4:	c606                	sw	ra,12(sp)
80007eb6:	d32f80ef          	jal	ra,800003e8 <_kill>
80007eba:	57fd                	li	a5,-1
80007ebc:	00f51663          	bne	a0,a5,80007ec8 <_kill_r+0x22>
80007ec0:	9f41a783          	lw	a5,-1548(gp) # 900003c4 <errno>
80007ec4:	c391                	beqz	a5,80007ec8 <_kill_r+0x22>
80007ec6:	c01c                	sw	a5,0(s0)
80007ec8:	40b2                	lw	ra,12(sp)
80007eca:	4422                	lw	s0,8(sp)
80007ecc:	0141                	addi	sp,sp,16
80007ece:	8082                	ret

80007ed0 <_getpid_r>:
_getpid_r():
80007ed0:	d10f806f          	j	800003e0 <_getpid>

80007ed4 <__adddf3>:
__adddf3():
/home/hqfang/workspace/software/riscv-gnu-toolchain/riscv-gcc/libgcc/soft-fp/adddf3.c:44
80007ed4:	00100837          	lui	a6,0x100
80007ed8:	187d                	addi	a6,a6,-1
/home/hqfang/workspace/software/riscv-gnu-toolchain/riscv-gcc/libgcc/soft-fp/adddf3.c:36
80007eda:	1101                	addi	sp,sp,-32
/home/hqfang/workspace/software/riscv-gnu-toolchain/riscv-gcc/libgcc/soft-fp/adddf3.c:44
80007edc:	00b877b3          	and	a5,a6,a1
80007ee0:	0145d713          	srli	a4,a1,0x14
/home/hqfang/workspace/software/riscv-gnu-toolchain/riscv-gcc/libgcc/soft-fp/adddf3.c:45
80007ee4:	00d87833          	and	a6,a6,a3
80007ee8:	0146d313          	srli	t1,a3,0x14
/home/hqfang/workspace/software/riscv-gnu-toolchain/riscv-gcc/libgcc/soft-fp/adddf3.c:36
80007eec:	cc22                	sw	s0,24(sp)
/home/hqfang/workspace/software/riscv-gnu-toolchain/riscv-gcc/libgcc/soft-fp/adddf3.c:44
80007eee:	078e                	slli	a5,a5,0x3
80007ef0:	7ff77413          	andi	s0,a4,2047
80007ef4:	01d55713          	srli	a4,a0,0x1d
/home/hqfang/workspace/software/riscv-gnu-toolchain/riscv-gcc/libgcc/soft-fp/adddf3.c:45
80007ef8:	080e                	slli	a6,a6,0x3
/home/hqfang/workspace/software/riscv-gnu-toolchain/riscv-gcc/libgcc/soft-fp/adddf3.c:36
80007efa:	ca26                	sw	s1,20(sp)
/home/hqfang/workspace/software/riscv-gnu-toolchain/riscv-gcc/libgcc/soft-fp/adddf3.c:44
80007efc:	8fd9                	or	a5,a5,a4
80007efe:	01f5d493          	srli	s1,a1,0x1f
/home/hqfang/workspace/software/riscv-gnu-toolchain/riscv-gcc/libgcc/soft-fp/adddf3.c:45
80007f02:	01d65713          	srli	a4,a2,0x1d
80007f06:	7ff37313          	andi	t1,t1,2047
/home/hqfang/workspace/software/riscv-gnu-toolchain/riscv-gcc/libgcc/soft-fp/adddf3.c:36
80007f0a:	ce06                	sw	ra,28(sp)
80007f0c:	c84a                	sw	s2,16(sp)
80007f0e:	c64e                	sw	s3,12(sp)
/home/hqfang/workspace/software/riscv-gnu-toolchain/riscv-gcc/libgcc/soft-fp/adddf3.c:45
80007f10:	82fd                	srli	a3,a3,0x1f
80007f12:	01076733          	or	a4,a4,a6
/home/hqfang/workspace/software/riscv-gnu-toolchain/riscv-gcc/libgcc/soft-fp/adddf3.c:44
80007f16:	00351593          	slli	a1,a0,0x3
/home/hqfang/workspace/software/riscv-gnu-toolchain/riscv-gcc/libgcc/soft-fp/adddf3.c:45
80007f1a:	060e                	slli	a2,a2,0x3
/home/hqfang/workspace/software/riscv-gnu-toolchain/riscv-gcc/libgcc/soft-fp/adddf3.c:46
80007f1c:	40640833          	sub	a6,s0,t1
80007f20:	22d49863          	bne	s1,a3,80008150 <__adddf3+0x27c>
/home/hqfang/workspace/software/riscv-gnu-toolchain/riscv-gcc/libgcc/soft-fp/adddf3.c:46 (discriminator 7)
80007f24:	0f005363          	blez	a6,8000800a <__adddf3+0x136>
/home/hqfang/workspace/software/riscv-gnu-toolchain/riscv-gcc/libgcc/soft-fp/adddf3.c:46 (discriminator 9)
80007f28:	02031863          	bnez	t1,80007f58 <__adddf3+0x84>
/home/hqfang/workspace/software/riscv-gnu-toolchain/riscv-gcc/libgcc/soft-fp/adddf3.c:46 (discriminator 11)
80007f2c:	00c766b3          	or	a3,a4,a2
80007f30:	58068363          	beqz	a3,800084b6 <__adddf3+0x5e2>
/home/hqfang/workspace/software/riscv-gnu-toolchain/riscv-gcc/libgcc/soft-fp/adddf3.c:46 (discriminator 14)
80007f34:	fff80513          	addi	a0,a6,-1 # fffff <__stack_size+0xff7ff>
80007f38:	e909                	bnez	a0,80007f4a <__adddf3+0x76>
/home/hqfang/workspace/software/riscv-gnu-toolchain/riscv-gcc/libgcc/soft-fp/adddf3.c:46 (discriminator 23)
80007f3a:	962e                	add	a2,a2,a1
80007f3c:	00b63533          	sltu	a0,a2,a1
80007f40:	97ba                	add	a5,a5,a4
80007f42:	97aa                	add	a5,a5,a0
80007f44:	85b2                	mv	a1,a2
/home/hqfang/workspace/software/riscv-gnu-toolchain/riscv-gcc/libgcc/soft-fp/adddf3.c:45 (discriminator 80)
80007f46:	4405                	li	s0,1
/home/hqfang/workspace/software/riscv-gnu-toolchain/riscv-gcc/libgcc/soft-fp/adddf3.c:46 (discriminator 80)
80007f48:	a8b9                	j	80007fa6 <__adddf3+0xd2>
/home/hqfang/workspace/software/riscv-gnu-toolchain/riscv-gcc/libgcc/soft-fp/adddf3.c:46 (discriminator 24)
80007f4a:	7ff00693          	li	a3,2047
80007f4e:	00d81d63          	bne	a6,a3,80007f68 <__adddf3+0x94>
/home/hqfang/workspace/software/riscv-gnu-toolchain/riscv-gcc/libgcc/soft-fp/adddf3.c:46
80007f52:	7ff00413          	li	s0,2047
80007f56:	a24d                	j	800080f8 <__adddf3+0x224>
/home/hqfang/workspace/software/riscv-gnu-toolchain/riscv-gcc/libgcc/soft-fp/adddf3.c:46 (discriminator 12)
80007f58:	7ff00693          	li	a3,2047
80007f5c:	18d40e63          	beq	s0,a3,800080f8 <__adddf3+0x224>
/home/hqfang/workspace/software/riscv-gnu-toolchain/riscv-gcc/libgcc/soft-fp/adddf3.c:46 (discriminator 38)
80007f60:	008006b7          	lui	a3,0x800
80007f64:	8f55                	or	a4,a4,a3
80007f66:	8542                	mv	a0,a6
/home/hqfang/workspace/software/riscv-gnu-toolchain/riscv-gcc/libgcc/soft-fp/adddf3.c:46 (discriminator 47)
80007f68:	03800693          	li	a3,56
80007f6c:	08a6cb63          	blt	a3,a0,80008002 <__adddf3+0x12e>
/home/hqfang/workspace/software/riscv-gnu-toolchain/riscv-gcc/libgcc/soft-fp/adddf3.c:46 (discriminator 48)
80007f70:	46fd                	li	a3,31
80007f72:	06a6c263          	blt	a3,a0,80007fd6 <__adddf3+0x102>
/home/hqfang/workspace/software/riscv-gnu-toolchain/riscv-gcc/libgcc/soft-fp/adddf3.c:46 (discriminator 50)
80007f76:	02000813          	li	a6,32
80007f7a:	40a80833          	sub	a6,a6,a0
80007f7e:	010716b3          	sll	a3,a4,a6
80007f82:	00a658b3          	srl	a7,a2,a0
80007f86:	01061633          	sll	a2,a2,a6
80007f8a:	0116e6b3          	or	a3,a3,a7
80007f8e:	00c03633          	snez	a2,a2
80007f92:	8e55                	or	a2,a2,a3
80007f94:	00a75733          	srl	a4,a4,a0
/home/hqfang/workspace/software/riscv-gnu-toolchain/riscv-gcc/libgcc/soft-fp/adddf3.c:46 (discriminator 64)
80007f98:	962e                	add	a2,a2,a1
80007f9a:	00b63533          	sltu	a0,a2,a1
80007f9e:	973e                	add	a4,a4,a5
80007fa0:	00a707b3          	add	a5,a4,a0
80007fa4:	85b2                	mv	a1,a2
/home/hqfang/workspace/software/riscv-gnu-toolchain/riscv-gcc/libgcc/soft-fp/adddf3.c:46 (discriminator 122)
80007fa6:	00800737          	lui	a4,0x800
80007faa:	8f7d                	and	a4,a4,a5
80007fac:	14070663          	beqz	a4,800080f8 <__adddf3+0x224>
/home/hqfang/workspace/software/riscv-gnu-toolchain/riscv-gcc/libgcc/soft-fp/adddf3.c:46 (discriminator 182)
80007fb0:	0405                	addi	s0,s0,1
80007fb2:	7ff00713          	li	a4,2047
80007fb6:	48e40d63          	beq	s0,a4,80008450 <__adddf3+0x57c>
/home/hqfang/workspace/software/riscv-gnu-toolchain/riscv-gcc/libgcc/soft-fp/adddf3.c:46
80007fba:	ff800737          	lui	a4,0xff800
80007fbe:	177d                	addi	a4,a4,-1
80007fc0:	8ff9                	and	a5,a5,a4
80007fc2:	0015f513          	andi	a0,a1,1
80007fc6:	0015d713          	srli	a4,a1,0x1
80007fca:	8d59                	or	a0,a0,a4
80007fcc:	01f79593          	slli	a1,a5,0x1f
80007fd0:	8dc9                	or	a1,a1,a0
80007fd2:	8385                	srli	a5,a5,0x1
80007fd4:	a215                	j	800080f8 <__adddf3+0x224>
/home/hqfang/workspace/software/riscv-gnu-toolchain/riscv-gcc/libgcc/soft-fp/adddf3.c:46 (discriminator 51)
80007fd6:	fe050693          	addi	a3,a0,-32
80007fda:	02000893          	li	a7,32
80007fde:	00d756b3          	srl	a3,a4,a3
80007fe2:	4801                	li	a6,0
80007fe4:	01150863          	beq	a0,a7,80007ff4 <__adddf3+0x120>
/home/hqfang/workspace/software/riscv-gnu-toolchain/riscv-gcc/libgcc/soft-fp/adddf3.c:46 (discriminator 58)
80007fe8:	04000813          	li	a6,64
80007fec:	40a80533          	sub	a0,a6,a0
80007ff0:	00a71833          	sll	a6,a4,a0
/home/hqfang/workspace/software/riscv-gnu-toolchain/riscv-gcc/libgcc/soft-fp/adddf3.c:46 (discriminator 61)
80007ff4:	00c86633          	or	a2,a6,a2
80007ff8:	00c03633          	snez	a2,a2
80007ffc:	8e55                	or	a2,a2,a3
/home/hqfang/workspace/software/riscv-gnu-toolchain/riscv-gcc/libgcc/soft-fp/adddf3.c:46 (discriminator 49)
80007ffe:	4701                	li	a4,0
80008000:	bf61                	j	80007f98 <__adddf3+0xc4>
80008002:	8e59                	or	a2,a2,a4
80008004:	00c03633          	snez	a2,a2
80008008:	bfdd                	j	80007ffe <__adddf3+0x12a>
/home/hqfang/workspace/software/riscv-gnu-toolchain/riscv-gcc/libgcc/soft-fp/adddf3.c:46 (discriminator 10)
8000800a:	0a080b63          	beqz	a6,800080c0 <__adddf3+0x1ec>
/home/hqfang/workspace/software/riscv-gnu-toolchain/riscv-gcc/libgcc/soft-fp/adddf3.c:46 (discriminator 66)
8000800e:	40830533          	sub	a0,t1,s0
80008012:	e40d                	bnez	s0,8000803c <__adddf3+0x168>
/home/hqfang/workspace/software/riscv-gnu-toolchain/riscv-gcc/libgcc/soft-fp/adddf3.c:46 (discriminator 68)
80008014:	00b7e6b3          	or	a3,a5,a1
80008018:	42068363          	beqz	a3,8000843e <__adddf3+0x56a>
/home/hqfang/workspace/software/riscv-gnu-toolchain/riscv-gcc/libgcc/soft-fp/adddf3.c:46 (discriminator 71)
8000801c:	fff50693          	addi	a3,a0,-1
80008020:	e699                	bnez	a3,8000802e <__adddf3+0x15a>
/home/hqfang/workspace/software/riscv-gnu-toolchain/riscv-gcc/libgcc/soft-fp/adddf3.c:46 (discriminator 80)
80008022:	95b2                	add	a1,a1,a2
80008024:	97ba                	add	a5,a5,a4
80008026:	00c5b633          	sltu	a2,a1,a2
8000802a:	97b2                	add	a5,a5,a2
8000802c:	bf29                	j	80007f46 <__adddf3+0x72>
/home/hqfang/workspace/software/riscv-gnu-toolchain/riscv-gcc/libgcc/soft-fp/adddf3.c:46 (discriminator 81)
8000802e:	7ff00813          	li	a6,2047
80008032:	01051d63          	bne	a0,a6,8000804c <__adddf3+0x178>
/home/hqfang/workspace/software/riscv-gnu-toolchain/riscv-gcc/libgcc/soft-fp/adddf3.c:45
80008036:	87ba                	mv	a5,a4
80008038:	85b2                	mv	a1,a2
8000803a:	bf21                	j	80007f52 <__adddf3+0x7e>
/home/hqfang/workspace/software/riscv-gnu-toolchain/riscv-gcc/libgcc/soft-fp/adddf3.c:46 (discriminator 69)
8000803c:	7ff00693          	li	a3,2047
80008040:	fed30be3          	beq	t1,a3,80008036 <__adddf3+0x162>
/home/hqfang/workspace/software/riscv-gnu-toolchain/riscv-gcc/libgcc/soft-fp/adddf3.c:46 (discriminator 95)
80008044:	008006b7          	lui	a3,0x800
80008048:	8fd5                	or	a5,a5,a3
8000804a:	86aa                	mv	a3,a0
/home/hqfang/workspace/software/riscv-gnu-toolchain/riscv-gcc/libgcc/soft-fp/adddf3.c:46 (discriminator 104)
8000804c:	03800513          	li	a0,56
80008050:	06d54363          	blt	a0,a3,800080b6 <__adddf3+0x1e2>
/home/hqfang/workspace/software/riscv-gnu-toolchain/riscv-gcc/libgcc/soft-fp/adddf3.c:46 (discriminator 105)
80008054:	457d                	li	a0,31
80008056:	02d54b63          	blt	a0,a3,8000808c <__adddf3+0x1b8>
/home/hqfang/workspace/software/riscv-gnu-toolchain/riscv-gcc/libgcc/soft-fp/adddf3.c:46 (discriminator 107)
8000805a:	02000813          	li	a6,32
8000805e:	40d80833          	sub	a6,a6,a3
80008062:	01079533          	sll	a0,a5,a6
80008066:	00d5d8b3          	srl	a7,a1,a3
8000806a:	010595b3          	sll	a1,a1,a6
8000806e:	01156533          	or	a0,a0,a7
80008072:	00b035b3          	snez	a1,a1
80008076:	8d4d                	or	a0,a0,a1
80008078:	00d7d7b3          	srl	a5,a5,a3
/home/hqfang/workspace/software/riscv-gnu-toolchain/riscv-gcc/libgcc/soft-fp/adddf3.c:46 (discriminator 121)
8000807c:	00c505b3          	add	a1,a0,a2
80008080:	97ba                	add	a5,a5,a4
80008082:	00c5b633          	sltu	a2,a1,a2
80008086:	97b2                	add	a5,a5,a2
/home/hqfang/workspace/software/riscv-gnu-toolchain/riscv-gcc/libgcc/soft-fp/adddf3.c:45 (discriminator 121)
80008088:	841a                	mv	s0,t1
8000808a:	bf31                	j	80007fa6 <__adddf3+0xd2>
/home/hqfang/workspace/software/riscv-gnu-toolchain/riscv-gcc/libgcc/soft-fp/adddf3.c:46 (discriminator 108)
8000808c:	fe068513          	addi	a0,a3,-32 # 7fffe0 <__stack_size+0x7ff7e0>
80008090:	02000893          	li	a7,32
80008094:	00a7d833          	srl	a6,a5,a0
80008098:	4501                	li	a0,0
8000809a:	01168763          	beq	a3,a7,800080a8 <__adddf3+0x1d4>
/home/hqfang/workspace/software/riscv-gnu-toolchain/riscv-gcc/libgcc/soft-fp/adddf3.c:46 (discriminator 115)
8000809e:	04000513          	li	a0,64
800080a2:	8d15                	sub	a0,a0,a3
800080a4:	00a79533          	sll	a0,a5,a0
/home/hqfang/workspace/software/riscv-gnu-toolchain/riscv-gcc/libgcc/soft-fp/adddf3.c:46 (discriminator 118)
800080a8:	8d4d                	or	a0,a0,a1
800080aa:	00a03533          	snez	a0,a0
800080ae:	00a86533          	or	a0,a6,a0
/home/hqfang/workspace/software/riscv-gnu-toolchain/riscv-gcc/libgcc/soft-fp/adddf3.c:46 (discriminator 106)
800080b2:	4781                	li	a5,0
800080b4:	b7e1                	j	8000807c <__adddf3+0x1a8>
800080b6:	00b7e533          	or	a0,a5,a1
800080ba:	00a03533          	snez	a0,a0
800080be:	bfd5                	j	800080b2 <__adddf3+0x1de>
/home/hqfang/workspace/software/riscv-gnu-toolchain/riscv-gcc/libgcc/soft-fp/adddf3.c:46 (discriminator 67)
800080c0:	00140693          	addi	a3,s0,1
800080c4:	7fe6f513          	andi	a0,a3,2046
800080c8:	e13d                	bnez	a0,8000812e <__adddf3+0x25a>
/home/hqfang/workspace/software/riscv-gnu-toolchain/riscv-gcc/libgcc/soft-fp/adddf3.c:46 (discriminator 123)
800080ca:	00b7e6b3          	or	a3,a5,a1
800080ce:	e429                	bnez	s0,80008118 <__adddf3+0x244>
/home/hqfang/workspace/software/riscv-gnu-toolchain/riscv-gcc/libgcc/soft-fp/adddf3.c:46 (discriminator 125)
800080d0:	36068b63          	beqz	a3,80008446 <__adddf3+0x572>
/home/hqfang/workspace/software/riscv-gnu-toolchain/riscv-gcc/libgcc/soft-fp/adddf3.c:46 (discriminator 128)
800080d4:	00c766b3          	or	a3,a4,a2
800080d8:	c285                	beqz	a3,800080f8 <__adddf3+0x224>
/home/hqfang/workspace/software/riscv-gnu-toolchain/riscv-gcc/libgcc/soft-fp/adddf3.c:46 (discriminator 134)
800080da:	962e                	add	a2,a2,a1
800080dc:	97ba                	add	a5,a5,a4
800080de:	00b63533          	sltu	a0,a2,a1
800080e2:	97aa                	add	a5,a5,a0
800080e4:	00800737          	lui	a4,0x800
800080e8:	8f7d                	and	a4,a4,a5
800080ea:	85b2                	mv	a1,a2
800080ec:	c711                	beqz	a4,800080f8 <__adddf3+0x224>
/home/hqfang/workspace/software/riscv-gnu-toolchain/riscv-gcc/libgcc/soft-fp/adddf3.c:46 (discriminator 136)
800080ee:	ff800737          	lui	a4,0xff800
800080f2:	177d                	addi	a4,a4,-1
800080f4:	8ff9                	and	a5,a5,a4
800080f6:	4405                	li	s0,1
/home/hqfang/workspace/software/riscv-gnu-toolchain/riscv-gcc/libgcc/soft-fp/adddf3.c:47 (discriminator 421)
800080f8:	0075f713          	andi	a4,a1,7
800080fc:	34070c63          	beqz	a4,80008454 <__adddf3+0x580>
/home/hqfang/workspace/software/riscv-gnu-toolchain/riscv-gcc/libgcc/soft-fp/adddf3.c:47 (discriminator 37)
80008100:	00f5f713          	andi	a4,a1,15
80008104:	4691                	li	a3,4
80008106:	34d70763          	beq	a4,a3,80008454 <__adddf3+0x580>
/home/hqfang/workspace/software/riscv-gnu-toolchain/riscv-gcc/libgcc/soft-fp/adddf3.c:47 (discriminator 44)
8000810a:	00458713          	addi	a4,a1,4
8000810e:	00b73533          	sltu	a0,a4,a1
80008112:	97aa                	add	a5,a5,a0
80008114:	85ba                	mv	a1,a4
80008116:	ae3d                	j	80008454 <__adddf3+0x580>
/home/hqfang/workspace/software/riscv-gnu-toolchain/riscv-gcc/libgcc/soft-fp/adddf3.c:46 (discriminator 153)
80008118:	de99                	beqz	a3,80008036 <__adddf3+0x162>
/home/hqfang/workspace/software/riscv-gnu-toolchain/riscv-gcc/libgcc/soft-fp/adddf3.c:46 (discriminator 155)
8000811a:	8e59                	or	a2,a2,a4
8000811c:	e2060be3          	beqz	a2,80007f52 <__adddf3+0x7e>
/home/hqfang/workspace/software/riscv-gnu-toolchain/riscv-gcc/libgcc/soft-fp/adddf3.c:46
80008120:	4481                	li	s1,0
80008122:	004007b7          	lui	a5,0x400
80008126:	4581                	li	a1,0
80008128:	7ff00413          	li	s0,2047
8000812c:	a625                	j	80008454 <__adddf3+0x580>
/home/hqfang/workspace/software/riscv-gnu-toolchain/riscv-gcc/libgcc/soft-fp/adddf3.c:46 (discriminator 124)
8000812e:	7ff00513          	li	a0,2047
80008132:	30a68d63          	beq	a3,a0,8000844c <__adddf3+0x578>
/home/hqfang/workspace/software/riscv-gnu-toolchain/riscv-gcc/libgcc/soft-fp/adddf3.c:46
80008136:	962e                	add	a2,a2,a1
80008138:	00b63533          	sltu	a0,a2,a1
8000813c:	97ba                	add	a5,a5,a4
8000813e:	97aa                	add	a5,a5,a0
80008140:	01f79513          	slli	a0,a5,0x1f
80008144:	8205                	srli	a2,a2,0x1
80008146:	00c565b3          	or	a1,a0,a2
8000814a:	8385                	srli	a5,a5,0x1
8000814c:	8436                	mv	s0,a3
8000814e:	b76d                	j	800080f8 <__adddf3+0x224>
/home/hqfang/workspace/software/riscv-gnu-toolchain/riscv-gcc/libgcc/soft-fp/adddf3.c:46 (discriminator 8)
80008150:	0d005663          	blez	a6,8000821c <__adddf3+0x348>
/home/hqfang/workspace/software/riscv-gnu-toolchain/riscv-gcc/libgcc/soft-fp/adddf3.c:46 (discriminator 200)
80008154:	08031163          	bnez	t1,800081d6 <__adddf3+0x302>
/home/hqfang/workspace/software/riscv-gnu-toolchain/riscv-gcc/libgcc/soft-fp/adddf3.c:46 (discriminator 202)
80008158:	00c766b3          	or	a3,a4,a2
8000815c:	34068d63          	beqz	a3,800084b6 <__adddf3+0x5e2>
/home/hqfang/workspace/software/riscv-gnu-toolchain/riscv-gcc/libgcc/soft-fp/adddf3.c:46 (discriminator 205)
80008160:	fff80513          	addi	a0,a6,-1
80008164:	e911                	bnez	a0,80008178 <__adddf3+0x2a4>
/home/hqfang/workspace/software/riscv-gnu-toolchain/riscv-gcc/libgcc/soft-fp/adddf3.c:46 (discriminator 214)
80008166:	40c58633          	sub	a2,a1,a2
8000816a:	00c5b533          	sltu	a0,a1,a2
8000816e:	8f99                	sub	a5,a5,a4
80008170:	8f89                	sub	a5,a5,a0
80008172:	85b2                	mv	a1,a2
/home/hqfang/workspace/software/riscv-gnu-toolchain/riscv-gcc/libgcc/soft-fp/adddf3.c:45 (discriminator 271)
80008174:	4405                	li	s0,1
/home/hqfang/workspace/software/riscv-gnu-toolchain/riscv-gcc/libgcc/soft-fp/adddf3.c:46 (discriminator 271)
80008176:	a0b1                	j	800081c2 <__adddf3+0x2ee>
/home/hqfang/workspace/software/riscv-gnu-toolchain/riscv-gcc/libgcc/soft-fp/adddf3.c:46 (discriminator 215)
80008178:	7ff00693          	li	a3,2047
8000817c:	dcd80be3          	beq	a6,a3,80007f52 <__adddf3+0x7e>
/home/hqfang/workspace/software/riscv-gnu-toolchain/riscv-gcc/libgcc/soft-fp/adddf3.c:46 (discriminator 238)
80008180:	03800693          	li	a3,56
80008184:	08a6c863          	blt	a3,a0,80008214 <__adddf3+0x340>
/home/hqfang/workspace/software/riscv-gnu-toolchain/riscv-gcc/libgcc/soft-fp/adddf3.c:46 (discriminator 239)
80008188:	46fd                	li	a3,31
8000818a:	04a6cf63          	blt	a3,a0,800081e8 <__adddf3+0x314>
/home/hqfang/workspace/software/riscv-gnu-toolchain/riscv-gcc/libgcc/soft-fp/adddf3.c:46 (discriminator 241)
8000818e:	02000813          	li	a6,32
80008192:	40a80833          	sub	a6,a6,a0
80008196:	010716b3          	sll	a3,a4,a6
8000819a:	00a658b3          	srl	a7,a2,a0
8000819e:	01061633          	sll	a2,a2,a6
800081a2:	0116e6b3          	or	a3,a3,a7
800081a6:	00c03633          	snez	a2,a2
800081aa:	8e55                	or	a2,a2,a3
800081ac:	00a75733          	srl	a4,a4,a0
/home/hqfang/workspace/software/riscv-gnu-toolchain/riscv-gcc/libgcc/soft-fp/adddf3.c:46 (discriminator 255)
800081b0:	40c58633          	sub	a2,a1,a2
800081b4:	00c5b533          	sltu	a0,a1,a2
800081b8:	40e78733          	sub	a4,a5,a4
800081bc:	40a707b3          	sub	a5,a4,a0
800081c0:	85b2                	mv	a1,a2
/home/hqfang/workspace/software/riscv-gnu-toolchain/riscv-gcc/libgcc/soft-fp/adddf3.c:46 (discriminator 313)
800081c2:	00800937          	lui	s2,0x800
800081c6:	0127f733          	and	a4,a5,s2
800081ca:	d71d                	beqz	a4,800080f8 <__adddf3+0x224>
/home/hqfang/workspace/software/riscv-gnu-toolchain/riscv-gcc/libgcc/soft-fp/adddf3.c:46 (discriminator 373)
800081cc:	197d                	addi	s2,s2,-1
800081ce:	0127f933          	and	s2,a5,s2
800081d2:	89ae                	mv	s3,a1
800081d4:	aa5d                	j	8000838a <__adddf3+0x4b6>
/home/hqfang/workspace/software/riscv-gnu-toolchain/riscv-gcc/libgcc/soft-fp/adddf3.c:46 (discriminator 203)
800081d6:	7ff00693          	li	a3,2047
800081da:	f0d40fe3          	beq	s0,a3,800080f8 <__adddf3+0x224>
/home/hqfang/workspace/software/riscv-gnu-toolchain/riscv-gcc/libgcc/soft-fp/adddf3.c:46 (discriminator 229)
800081de:	008006b7          	lui	a3,0x800
800081e2:	8f55                	or	a4,a4,a3
800081e4:	8542                	mv	a0,a6
800081e6:	bf69                	j	80008180 <__adddf3+0x2ac>
/home/hqfang/workspace/software/riscv-gnu-toolchain/riscv-gcc/libgcc/soft-fp/adddf3.c:46 (discriminator 242)
800081e8:	fe050693          	addi	a3,a0,-32
800081ec:	02000893          	li	a7,32
800081f0:	00d756b3          	srl	a3,a4,a3
800081f4:	4801                	li	a6,0
800081f6:	01150863          	beq	a0,a7,80008206 <__adddf3+0x332>
/home/hqfang/workspace/software/riscv-gnu-toolchain/riscv-gcc/libgcc/soft-fp/adddf3.c:46 (discriminator 249)
800081fa:	04000813          	li	a6,64
800081fe:	40a80533          	sub	a0,a6,a0
80008202:	00a71833          	sll	a6,a4,a0
/home/hqfang/workspace/software/riscv-gnu-toolchain/riscv-gcc/libgcc/soft-fp/adddf3.c:46 (discriminator 252)
80008206:	00c86633          	or	a2,a6,a2
8000820a:	00c03633          	snez	a2,a2
8000820e:	8e55                	or	a2,a2,a3
/home/hqfang/workspace/software/riscv-gnu-toolchain/riscv-gcc/libgcc/soft-fp/adddf3.c:46 (discriminator 240)
80008210:	4701                	li	a4,0
80008212:	bf79                	j	800081b0 <__adddf3+0x2dc>
80008214:	8e59                	or	a2,a2,a4
80008216:	00c03633          	snez	a2,a2
8000821a:	bfdd                	j	80008210 <__adddf3+0x33c>
/home/hqfang/workspace/software/riscv-gnu-toolchain/riscv-gcc/libgcc/soft-fp/adddf3.c:46 (discriminator 201)
8000821c:	0c080563          	beqz	a6,800082e6 <__adddf3+0x412>
/home/hqfang/workspace/software/riscv-gnu-toolchain/riscv-gcc/libgcc/soft-fp/adddf3.c:46 (discriminator 257)
80008220:	40830533          	sub	a0,t1,s0
80008224:	e81d                	bnez	s0,8000825a <__adddf3+0x386>
/home/hqfang/workspace/software/riscv-gnu-toolchain/riscv-gcc/libgcc/soft-fp/adddf3.c:46 (discriminator 259)
80008226:	00b7e833          	or	a6,a5,a1
8000822a:	28080863          	beqz	a6,800084ba <__adddf3+0x5e6>
/home/hqfang/workspace/software/riscv-gnu-toolchain/riscv-gcc/libgcc/soft-fp/adddf3.c:46 (discriminator 262)
8000822e:	fff50813          	addi	a6,a0,-1
80008232:	00081b63          	bnez	a6,80008248 <__adddf3+0x374>
/home/hqfang/workspace/software/riscv-gnu-toolchain/riscv-gcc/libgcc/soft-fp/adddf3.c:46 (discriminator 271)
80008236:	40b605b3          	sub	a1,a2,a1
8000823a:	40f707b3          	sub	a5,a4,a5
8000823e:	00b63633          	sltu	a2,a2,a1
80008242:	8f91                	sub	a5,a5,a2
80008244:	84b6                	mv	s1,a3
80008246:	b73d                	j	80008174 <__adddf3+0x2a0>
/home/hqfang/workspace/software/riscv-gnu-toolchain/riscv-gcc/libgcc/soft-fp/adddf3.c:46 (discriminator 272)
80008248:	7ff00893          	li	a7,2047
8000824c:	03151063          	bne	a0,a7,8000826c <__adddf3+0x398>
/home/hqfang/workspace/software/riscv-gnu-toolchain/riscv-gcc/libgcc/soft-fp/adddf3.c:45
80008250:	87ba                	mv	a5,a4
80008252:	85b2                	mv	a1,a2
/home/hqfang/workspace/software/riscv-gnu-toolchain/riscv-gcc/libgcc/soft-fp/adddf3.c:46
80008254:	7ff00413          	li	s0,2047
80008258:	a07d                	j	80008306 <__adddf3+0x432>
/home/hqfang/workspace/software/riscv-gnu-toolchain/riscv-gcc/libgcc/soft-fp/adddf3.c:46 (discriminator 260)
8000825a:	7ff00813          	li	a6,2047
8000825e:	ff0309e3          	beq	t1,a6,80008250 <__adddf3+0x37c>
/home/hqfang/workspace/software/riscv-gnu-toolchain/riscv-gcc/libgcc/soft-fp/adddf3.c:46 (discriminator 286)
80008262:	00800837          	lui	a6,0x800
80008266:	0107e7b3          	or	a5,a5,a6
8000826a:	882a                	mv	a6,a0
/home/hqfang/workspace/software/riscv-gnu-toolchain/riscv-gcc/libgcc/soft-fp/adddf3.c:46 (discriminator 295)
8000826c:	03800513          	li	a0,56
80008270:	07054663          	blt	a0,a6,800082dc <__adddf3+0x408>
/home/hqfang/workspace/software/riscv-gnu-toolchain/riscv-gcc/libgcc/soft-fp/adddf3.c:46 (discriminator 296)
80008274:	457d                	li	a0,31
80008276:	03054d63          	blt	a0,a6,800082b0 <__adddf3+0x3dc>
/home/hqfang/workspace/software/riscv-gnu-toolchain/riscv-gcc/libgcc/soft-fp/adddf3.c:46 (discriminator 298)
8000827a:	02000893          	li	a7,32
8000827e:	410888b3          	sub	a7,a7,a6
80008282:	01179533          	sll	a0,a5,a7
80008286:	0105de33          	srl	t3,a1,a6
8000828a:	011595b3          	sll	a1,a1,a7
8000828e:	01c56533          	or	a0,a0,t3
80008292:	00b035b3          	snez	a1,a1
80008296:	8d4d                	or	a0,a0,a1
80008298:	0107d7b3          	srl	a5,a5,a6
/home/hqfang/workspace/software/riscv-gnu-toolchain/riscv-gcc/libgcc/soft-fp/adddf3.c:46 (discriminator 312)
8000829c:	40a605b3          	sub	a1,a2,a0
800082a0:	40f707b3          	sub	a5,a4,a5
800082a4:	00b63633          	sltu	a2,a2,a1
800082a8:	8f91                	sub	a5,a5,a2
/home/hqfang/workspace/software/riscv-gnu-toolchain/riscv-gcc/libgcc/soft-fp/adddf3.c:45 (discriminator 312)
800082aa:	841a                	mv	s0,t1
800082ac:	84b6                	mv	s1,a3
800082ae:	bf11                	j	800081c2 <__adddf3+0x2ee>
/home/hqfang/workspace/software/riscv-gnu-toolchain/riscv-gcc/libgcc/soft-fp/adddf3.c:46 (discriminator 299)
800082b0:	fe080513          	addi	a0,a6,-32 # 7fffe0 <__stack_size+0x7ff7e0>
800082b4:	02000e13          	li	t3,32
800082b8:	00a7d8b3          	srl	a7,a5,a0
800082bc:	4501                	li	a0,0
800082be:	01c80863          	beq	a6,t3,800082ce <__adddf3+0x3fa>
/home/hqfang/workspace/software/riscv-gnu-toolchain/riscv-gcc/libgcc/soft-fp/adddf3.c:46 (discriminator 306)
800082c2:	04000513          	li	a0,64
800082c6:	41050533          	sub	a0,a0,a6
800082ca:	00a79533          	sll	a0,a5,a0
/home/hqfang/workspace/software/riscv-gnu-toolchain/riscv-gcc/libgcc/soft-fp/adddf3.c:46 (discriminator 309)
800082ce:	8d4d                	or	a0,a0,a1
800082d0:	00a03533          	snez	a0,a0
800082d4:	00a8e533          	or	a0,a7,a0
/home/hqfang/workspace/software/riscv-gnu-toolchain/riscv-gcc/libgcc/soft-fp/adddf3.c:46 (discriminator 297)
800082d8:	4781                	li	a5,0
800082da:	b7c9                	j	8000829c <__adddf3+0x3c8>
800082dc:	00b7e533          	or	a0,a5,a1
800082e0:	00a03533          	snez	a0,a0
800082e4:	bfd5                	j	800082d8 <__adddf3+0x404>
/home/hqfang/workspace/software/riscv-gnu-toolchain/riscv-gcc/libgcc/soft-fp/adddf3.c:46 (discriminator 258)
800082e6:	00140513          	addi	a0,s0,1
800082ea:	7fe57513          	andi	a0,a0,2046
800082ee:	e925                	bnez	a0,8000835e <__adddf3+0x48a>
/home/hqfang/workspace/software/riscv-gnu-toolchain/riscv-gcc/libgcc/soft-fp/adddf3.c:46 (discriminator 314)
800082f0:	00b7e833          	or	a6,a5,a1
800082f4:	00c76533          	or	a0,a4,a2
800082f8:	e821                	bnez	s0,80008348 <__adddf3+0x474>
/home/hqfang/workspace/software/riscv-gnu-toolchain/riscv-gcc/libgcc/soft-fp/adddf3.c:46 (discriminator 316)
800082fa:	00081863          	bnez	a6,8000830a <__adddf3+0x436>
/home/hqfang/workspace/software/riscv-gnu-toolchain/riscv-gcc/libgcc/soft-fp/adddf3.c:46 (discriminator 318)
800082fe:	1c050263          	beqz	a0,800084c2 <__adddf3+0x5ee>
/home/hqfang/workspace/software/riscv-gnu-toolchain/riscv-gcc/libgcc/soft-fp/adddf3.c:45
80008302:	87ba                	mv	a5,a4
80008304:	85b2                	mv	a1,a2
80008306:	84b6                	mv	s1,a3
80008308:	bbc5                	j	800080f8 <__adddf3+0x224>
/home/hqfang/workspace/software/riscv-gnu-toolchain/riscv-gcc/libgcc/soft-fp/adddf3.c:46 (discriminator 319)
8000830a:	de0507e3          	beqz	a0,800080f8 <__adddf3+0x224>
/home/hqfang/workspace/software/riscv-gnu-toolchain/riscv-gcc/libgcc/soft-fp/adddf3.c:46 (discriminator 326)
8000830e:	40c58833          	sub	a6,a1,a2
80008312:	0105b8b3          	sltu	a7,a1,a6
80008316:	40e78533          	sub	a0,a5,a4
8000831a:	41150533          	sub	a0,a0,a7
8000831e:	008008b7          	lui	a7,0x800
80008322:	011578b3          	and	a7,a0,a7
80008326:	00088a63          	beqz	a7,8000833a <__adddf3+0x466>
/home/hqfang/workspace/software/riscv-gnu-toolchain/riscv-gcc/libgcc/soft-fp/adddf3.c:46 (discriminator 328)
8000832a:	40b605b3          	sub	a1,a2,a1
8000832e:	40f707b3          	sub	a5,a4,a5
80008332:	00b63633          	sltu	a2,a2,a1
80008336:	8f91                	sub	a5,a5,a2
80008338:	b7f9                	j	80008306 <__adddf3+0x432>
/home/hqfang/workspace/software/riscv-gnu-toolchain/riscv-gcc/libgcc/soft-fp/adddf3.c:46 (discriminator 329)
8000833a:	00a865b3          	or	a1,a6,a0
8000833e:	18058663          	beqz	a1,800084ca <__adddf3+0x5f6>
/home/hqfang/workspace/software/riscv-gnu-toolchain/riscv-gcc/libgcc/soft-fp/adddf3.c:46
80008342:	87aa                	mv	a5,a0
80008344:	85c2                	mv	a1,a6
80008346:	bb4d                	j	800080f8 <__adddf3+0x224>
/home/hqfang/workspace/software/riscv-gnu-toolchain/riscv-gcc/libgcc/soft-fp/adddf3.c:46 (discriminator 348)
80008348:	00081863          	bnez	a6,80008358 <__adddf3+0x484>
/home/hqfang/workspace/software/riscv-gnu-toolchain/riscv-gcc/libgcc/soft-fp/adddf3.c:46 (discriminator 349)
8000834c:	18050163          	beqz	a0,800084ce <__adddf3+0x5fa>
/home/hqfang/workspace/software/riscv-gnu-toolchain/riscv-gcc/libgcc/soft-fp/adddf3.c:45
80008350:	87ba                	mv	a5,a4
80008352:	85b2                	mv	a1,a2
/home/hqfang/workspace/software/riscv-gnu-toolchain/riscv-gcc/libgcc/soft-fp/adddf3.c:46
80008354:	84b6                	mv	s1,a3
80008356:	bef5                	j	80007f52 <__adddf3+0x7e>
/home/hqfang/workspace/software/riscv-gnu-toolchain/riscv-gcc/libgcc/soft-fp/adddf3.c:46 (discriminator 350)
80008358:	be050de3          	beqz	a0,80007f52 <__adddf3+0x7e>
8000835c:	b3d1                	j	80008120 <__adddf3+0x24c>
/home/hqfang/workspace/software/riscv-gnu-toolchain/riscv-gcc/libgcc/soft-fp/adddf3.c:46 (discriminator 315)
8000835e:	40c589b3          	sub	s3,a1,a2
80008362:	0135b533          	sltu	a0,a1,s3
80008366:	40e78933          	sub	s2,a5,a4
8000836a:	40a90933          	sub	s2,s2,a0
8000836e:	00800537          	lui	a0,0x800
80008372:	00a97533          	and	a0,s2,a0
80008376:	c925                	beqz	a0,800083e6 <__adddf3+0x512>
/home/hqfang/workspace/software/riscv-gnu-toolchain/riscv-gcc/libgcc/soft-fp/adddf3.c:46 (discriminator 366)
80008378:	40b609b3          	sub	s3,a2,a1
8000837c:	40f707b3          	sub	a5,a4,a5
80008380:	01363633          	sltu	a2,a2,s3
80008384:	40c78933          	sub	s2,a5,a2
80008388:	84b6                	mv	s1,a3
/home/hqfang/workspace/software/riscv-gnu-toolchain/riscv-gcc/libgcc/soft-fp/adddf3.c:46 (discriminator 375)
8000838a:	06090463          	beqz	s2,800083f2 <__adddf3+0x51e>
/home/hqfang/workspace/software/riscv-gnu-toolchain/riscv-gcc/libgcc/soft-fp/adddf3.c:46 (discriminator 378)
8000838e:	854a                	mv	a0,s2
80008390:	837fc0ef          	jal	ra,80004bc6 <__clzsi2>
/home/hqfang/workspace/software/riscv-gnu-toolchain/riscv-gcc/libgcc/soft-fp/adddf3.c:46 (discriminator 392)
80008394:	ff850713          	addi	a4,a0,-8 # 7ffff8 <__stack_size+0x7ff7f8>
80008398:	47fd                	li	a5,31
8000839a:	06e7c263          	blt	a5,a4,800083fe <__adddf3+0x52a>
/home/hqfang/workspace/software/riscv-gnu-toolchain/riscv-gcc/libgcc/soft-fp/adddf3.c:46 (discriminator 398)
8000839e:	02000793          	li	a5,32
800083a2:	8f99                	sub	a5,a5,a4
800083a4:	00e91933          	sll	s2,s2,a4
800083a8:	00f9d7b3          	srl	a5,s3,a5
800083ac:	0127e7b3          	or	a5,a5,s2
800083b0:	00e995b3          	sll	a1,s3,a4
/home/hqfang/workspace/software/riscv-gnu-toolchain/riscv-gcc/libgcc/soft-fp/adddf3.c:46 (discriminator 402)
800083b4:	06874f63          	blt	a4,s0,80008432 <__adddf3+0x55e>
/home/hqfang/workspace/software/riscv-gnu-toolchain/riscv-gcc/libgcc/soft-fp/adddf3.c:46 (discriminator 403)
800083b8:	8f01                	sub	a4,a4,s0
800083ba:	00170693          	addi	a3,a4,1 # ff800001 <_sp+0x6f7f0001>
800083be:	467d                	li	a2,31
800083c0:	04d64563          	blt	a2,a3,8000840a <__adddf3+0x536>
/home/hqfang/workspace/software/riscv-gnu-toolchain/riscv-gcc/libgcc/soft-fp/adddf3.c:46 (discriminator 405)
800083c4:	02000713          	li	a4,32
800083c8:	8f15                	sub	a4,a4,a3
800083ca:	00e79633          	sll	a2,a5,a4
800083ce:	00d5d533          	srl	a0,a1,a3
800083d2:	00e595b3          	sll	a1,a1,a4
800083d6:	8e49                	or	a2,a2,a0
800083d8:	00b035b3          	snez	a1,a1
800083dc:	8dd1                	or	a1,a1,a2
800083de:	00d7d7b3          	srl	a5,a5,a3
/home/hqfang/workspace/software/riscv-gnu-toolchain/riscv-gcc/libgcc/soft-fp/adddf3.c:46 (discriminator 417)
800083e2:	4401                	li	s0,0
800083e4:	bb11                	j	800080f8 <__adddf3+0x224>
/home/hqfang/workspace/software/riscv-gnu-toolchain/riscv-gcc/libgcc/soft-fp/adddf3.c:46 (discriminator 367)
800083e6:	0129e5b3          	or	a1,s3,s2
800083ea:	f1c5                	bnez	a1,8000838a <__adddf3+0x4b6>
800083ec:	4781                	li	a5,0
/home/hqfang/workspace/software/riscv-gnu-toolchain/riscv-gcc/libgcc/soft-fp/adddf3.c:46
800083ee:	4401                	li	s0,0
800083f0:	a8d9                	j	800084c6 <__adddf3+0x5f2>
/home/hqfang/workspace/software/riscv-gnu-toolchain/riscv-gcc/libgcc/soft-fp/adddf3.c:46 (discriminator 385)
800083f2:	854e                	mv	a0,s3
800083f4:	fd2fc0ef          	jal	ra,80004bc6 <__clzsi2>
800083f8:	02050513          	addi	a0,a0,32
800083fc:	bf61                	j	80008394 <__adddf3+0x4c0>
/home/hqfang/workspace/software/riscv-gnu-toolchain/riscv-gcc/libgcc/soft-fp/adddf3.c:46 (discriminator 394)
800083fe:	fd850793          	addi	a5,a0,-40
80008402:	00f997b3          	sll	a5,s3,a5
80008406:	4581                	li	a1,0
80008408:	b775                	j	800083b4 <__adddf3+0x4e0>
/home/hqfang/workspace/software/riscv-gnu-toolchain/riscv-gcc/libgcc/soft-fp/adddf3.c:46 (discriminator 406)
8000840a:	1705                	addi	a4,a4,-31
8000840c:	02000613          	li	a2,32
80008410:	00e7d733          	srl	a4,a5,a4
80008414:	4501                	li	a0,0
80008416:	00c68763          	beq	a3,a2,80008424 <__adddf3+0x550>
/home/hqfang/workspace/software/riscv-gnu-toolchain/riscv-gcc/libgcc/soft-fp/adddf3.c:46 (discriminator 414)
8000841a:	04000513          	li	a0,64
8000841e:	8d15                	sub	a0,a0,a3
80008420:	00a79533          	sll	a0,a5,a0
/home/hqfang/workspace/software/riscv-gnu-toolchain/riscv-gcc/libgcc/soft-fp/adddf3.c:46 (discriminator 417)
80008424:	8d4d                	or	a0,a0,a1
80008426:	00a03533          	snez	a0,a0
8000842a:	00a765b3          	or	a1,a4,a0
8000842e:	4781                	li	a5,0
80008430:	bf4d                	j	800083e2 <__adddf3+0x50e>
/home/hqfang/workspace/software/riscv-gnu-toolchain/riscv-gcc/libgcc/soft-fp/adddf3.c:46 (discriminator 404)
80008432:	8c19                	sub	s0,s0,a4
80008434:	ff800737          	lui	a4,0xff800
80008438:	177d                	addi	a4,a4,-1
8000843a:	8ff9                	and	a5,a5,a4
8000843c:	b975                	j	800080f8 <__adddf3+0x224>
/home/hqfang/workspace/software/riscv-gnu-toolchain/riscv-gcc/libgcc/soft-fp/adddf3.c:45
8000843e:	87ba                	mv	a5,a4
80008440:	85b2                	mv	a1,a2
/home/hqfang/workspace/software/riscv-gnu-toolchain/riscv-gcc/libgcc/soft-fp/adddf3.c:46
80008442:	842a                	mv	s0,a0
80008444:	b955                	j	800080f8 <__adddf3+0x224>
/home/hqfang/workspace/software/riscv-gnu-toolchain/riscv-gcc/libgcc/soft-fp/adddf3.c:45
80008446:	87ba                	mv	a5,a4
80008448:	85b2                	mv	a1,a2
8000844a:	b17d                	j	800080f8 <__adddf3+0x224>
8000844c:	7ff00413          	li	s0,2047
80008450:	4781                	li	a5,0
80008452:	4581                	li	a1,0
/home/hqfang/workspace/software/riscv-gnu-toolchain/riscv-gcc/libgcc/soft-fp/adddf3.c:47 (discriminator 47)
80008454:	00800737          	lui	a4,0x800
80008458:	8f7d                	and	a4,a4,a5
8000845a:	cb11                	beqz	a4,8000846e <__adddf3+0x59a>
/home/hqfang/workspace/software/riscv-gnu-toolchain/riscv-gcc/libgcc/soft-fp/adddf3.c:47 (discriminator 63)
8000845c:	0405                	addi	s0,s0,1
8000845e:	7ff00713          	li	a4,2047
80008462:	06e40b63          	beq	s0,a4,800084d8 <__adddf3+0x604>
/home/hqfang/workspace/software/riscv-gnu-toolchain/riscv-gcc/libgcc/soft-fp/adddf3.c:47
80008466:	ff800737          	lui	a4,0xff800
8000846a:	177d                	addi	a4,a4,-1
8000846c:	8ff9                	and	a5,a5,a4
/home/hqfang/workspace/software/riscv-gnu-toolchain/riscv-gcc/libgcc/soft-fp/adddf3.c:47 (discriminator 79)
8000846e:	01d79713          	slli	a4,a5,0x1d
80008472:	0035d513          	srli	a0,a1,0x3
80008476:	8d59                	or	a0,a0,a4
80008478:	7ff00713          	li	a4,2047
8000847c:	838d                	srli	a5,a5,0x3
8000847e:	00e41963          	bne	s0,a4,80008490 <__adddf3+0x5bc>
/home/hqfang/workspace/software/riscv-gnu-toolchain/riscv-gcc/libgcc/soft-fp/adddf3.c:47 (discriminator 80)
80008482:	8d5d                	or	a0,a0,a5
80008484:	4781                	li	a5,0
80008486:	c509                	beqz	a0,80008490 <__adddf3+0x5bc>
/home/hqfang/workspace/software/riscv-gnu-toolchain/riscv-gcc/libgcc/soft-fp/adddf3.c:47
80008488:	000807b7          	lui	a5,0x80
8000848c:	4501                	li	a0,0
8000848e:	4481                	li	s1,0
/home/hqfang/workspace/software/riscv-gnu-toolchain/riscv-gcc/libgcc/soft-fp/adddf3.c:47 (discriminator 90)
80008490:	01441713          	slli	a4,s0,0x14
80008494:	7ff006b7          	lui	a3,0x7ff00
80008498:	07b2                	slli	a5,a5,0xc
/home/hqfang/workspace/software/riscv-gnu-toolchain/riscv-gcc/libgcc/soft-fp/adddf3.c:51 (discriminator 90)
8000849a:	40f2                	lw	ra,28(sp)
8000849c:	4462                	lw	s0,24(sp)
/home/hqfang/workspace/software/riscv-gnu-toolchain/riscv-gcc/libgcc/soft-fp/adddf3.c:47 (discriminator 90)
8000849e:	8f75                	and	a4,a4,a3
800084a0:	83b1                	srli	a5,a5,0xc
800084a2:	04fe                	slli	s1,s1,0x1f
800084a4:	8fd9                	or	a5,a5,a4
800084a6:	0097e733          	or	a4,a5,s1
/home/hqfang/workspace/software/riscv-gnu-toolchain/riscv-gcc/libgcc/soft-fp/adddf3.c:51 (discriminator 90)
800084aa:	4942                	lw	s2,16(sp)
800084ac:	44d2                	lw	s1,20(sp)
800084ae:	49b2                	lw	s3,12(sp)
800084b0:	85ba                	mv	a1,a4
800084b2:	6105                	addi	sp,sp,32
800084b4:	8082                	ret
800084b6:	8442                	mv	s0,a6
800084b8:	b181                	j	800080f8 <__adddf3+0x224>
/home/hqfang/workspace/software/riscv-gnu-toolchain/riscv-gcc/libgcc/soft-fp/adddf3.c:45
800084ba:	87ba                	mv	a5,a4
800084bc:	85b2                	mv	a1,a2
/home/hqfang/workspace/software/riscv-gnu-toolchain/riscv-gcc/libgcc/soft-fp/adddf3.c:46
800084be:	842a                	mv	s0,a0
800084c0:	b599                	j	80008306 <__adddf3+0x432>
800084c2:	4781                	li	a5,0
800084c4:	4581                	li	a1,0
800084c6:	4481                	li	s1,0
800084c8:	b771                	j	80008454 <__adddf3+0x580>
800084ca:	4781                	li	a5,0
800084cc:	bfed                	j	800084c6 <__adddf3+0x5f2>
800084ce:	4581                	li	a1,0
800084d0:	4481                	li	s1,0
800084d2:	004007b7          	lui	a5,0x400
800084d6:	b989                	j	80008128 <__adddf3+0x254>
800084d8:	4781                	li	a5,0
800084da:	4581                	li	a1,0
800084dc:	bf49                	j	8000846e <__adddf3+0x59a>

800084de <__divdf3>:
__divdf3():
/home/hqfang/workspace/software/riscv-gnu-toolchain/riscv-gcc/libgcc/soft-fp/divdf3.c:36
800084de:	7179                	addi	sp,sp,-48
800084e0:	d04a                	sw	s2,32(sp)
/home/hqfang/workspace/software/riscv-gnu-toolchain/riscv-gcc/libgcc/soft-fp/divdf3.c:44
800084e2:	0145d913          	srli	s2,a1,0x14
/home/hqfang/workspace/software/riscv-gnu-toolchain/riscv-gcc/libgcc/soft-fp/divdf3.c:36
800084e6:	d226                	sw	s1,36(sp)
800084e8:	ce4e                	sw	s3,28(sp)
800084ea:	cc52                	sw	s4,24(sp)
800084ec:	c85a                	sw	s6,16(sp)
800084ee:	c462                	sw	s8,8(sp)
/home/hqfang/workspace/software/riscv-gnu-toolchain/riscv-gcc/libgcc/soft-fp/divdf3.c:44
800084f0:	00c59493          	slli	s1,a1,0xc
/home/hqfang/workspace/software/riscv-gnu-toolchain/riscv-gcc/libgcc/soft-fp/divdf3.c:36
800084f4:	d606                	sw	ra,44(sp)
800084f6:	d422                	sw	s0,40(sp)
800084f8:	ca56                	sw	s5,20(sp)
800084fa:	c65e                	sw	s7,12(sp)
/home/hqfang/workspace/software/riscv-gnu-toolchain/riscv-gcc/libgcc/soft-fp/divdf3.c:44
800084fc:	7ff97913          	andi	s2,s2,2047
/home/hqfang/workspace/software/riscv-gnu-toolchain/riscv-gcc/libgcc/soft-fp/divdf3.c:36
80008500:	8a2a                	mv	s4,a0
80008502:	8b32                	mv	s6,a2
80008504:	8c36                	mv	s8,a3
/home/hqfang/workspace/software/riscv-gnu-toolchain/riscv-gcc/libgcc/soft-fp/divdf3.c:44
80008506:	80b1                	srli	s1,s1,0xc
80008508:	01f5d993          	srli	s3,a1,0x1f
8000850c:	08090463          	beqz	s2,80008594 <__divdf3+0xb6>
80008510:	7ff00793          	li	a5,2047
80008514:	0cf90a63          	beq	s2,a5,800085e8 <__divdf3+0x10a>
/home/hqfang/workspace/software/riscv-gnu-toolchain/riscv-gcc/libgcc/soft-fp/divdf3.c:44 (discriminator 1)
80008518:	01d55a93          	srli	s5,a0,0x1d
8000851c:	048e                	slli	s1,s1,0x3
8000851e:	009ae4b3          	or	s1,s5,s1
80008522:	00800ab7          	lui	s5,0x800
80008526:	0154eab3          	or	s5,s1,s5
8000852a:	00351413          	slli	s0,a0,0x3
8000852e:	c0190913          	addi	s2,s2,-1023 # 7ffc01 <__stack_size+0x7ff401>
/home/hqfang/workspace/software/riscv-gnu-toolchain/riscv-gcc/libgcc/soft-fp/divdf3.c:44 (discriminator 41)
80008532:	4b81                	li	s7,0
/home/hqfang/workspace/software/riscv-gnu-toolchain/riscv-gcc/libgcc/soft-fp/divdf3.c:45 (discriminator 8)
80008534:	00cc1513          	slli	a0,s8,0xc
80008538:	00c55493          	srli	s1,a0,0xc
8000853c:	014c5513          	srli	a0,s8,0x14
80008540:	7ff57593          	andi	a1,a0,2047
80008544:	01fc5c13          	srli	s8,s8,0x1f
80008548:	c1f9                	beqz	a1,8000860e <__divdf3+0x130>
/home/hqfang/workspace/software/riscv-gnu-toolchain/riscv-gcc/libgcc/soft-fp/divdf3.c:45
8000854a:	7ff00793          	li	a5,2047
8000854e:	10f58b63          	beq	a1,a5,80008664 <__divdf3+0x186>
/home/hqfang/workspace/software/riscv-gnu-toolchain/riscv-gcc/libgcc/soft-fp/divdf3.c:45 (discriminator 1)
80008552:	00349513          	slli	a0,s1,0x3
80008556:	01db5793          	srli	a5,s6,0x1d
8000855a:	8d5d                	or	a0,a0,a5
8000855c:	008004b7          	lui	s1,0x800
80008560:	8cc9                	or	s1,s1,a0
80008562:	003b1f93          	slli	t6,s6,0x3
80008566:	c0158513          	addi	a0,a1,-1023
/home/hqfang/workspace/software/riscv-gnu-toolchain/riscv-gcc/libgcc/soft-fp/divdf3.c:45 (discriminator 41)
8000856a:	4781                	li	a5,0
/home/hqfang/workspace/software/riscv-gnu-toolchain/riscv-gcc/libgcc/soft-fp/divdf3.c:46 (discriminator 8)
8000856c:	002b9713          	slli	a4,s7,0x2
80008570:	8f5d                	or	a4,a4,a5
80008572:	177d                	addi	a4,a4,-1
80008574:	4639                	li	a2,14
80008576:	0189c6b3          	xor	a3,s3,s8
8000857a:	40a905b3          	sub	a1,s2,a0
8000857e:	10e66563          	bltu	a2,a4,80008688 <__divdf3+0x1aa>
80008582:	00002617          	auipc	a2,0x2
80008586:	11a60613          	addi	a2,a2,282 # 8000a69c <_ctype_+0x104>
8000858a:	070a                	slli	a4,a4,0x2
8000858c:	9732                	add	a4,a4,a2
8000858e:	4318                	lw	a4,0(a4)
80008590:	9732                	add	a4,a4,a2
80008592:	8702                	jr	a4
/home/hqfang/workspace/software/riscv-gnu-toolchain/riscv-gcc/libgcc/soft-fp/divdf3.c:44 (discriminator 2)
80008594:	00a4eab3          	or	s5,s1,a0
80008598:	060a8263          	beqz	s5,800085fc <__divdf3+0x11e>
/home/hqfang/workspace/software/riscv-gnu-toolchain/riscv-gcc/libgcc/soft-fp/divdf3.c:44 (discriminator 13)
8000859c:	c89d                	beqz	s1,800085d2 <__divdf3+0xf4>
/home/hqfang/workspace/software/riscv-gnu-toolchain/riscv-gcc/libgcc/soft-fp/divdf3.c:44 (discriminator 17)
8000859e:	8526                	mv	a0,s1
800085a0:	e26fc0ef          	jal	ra,80004bc6 <__clzsi2>
/home/hqfang/workspace/software/riscv-gnu-toolchain/riscv-gcc/libgcc/soft-fp/divdf3.c:44 (discriminator 31)
800085a4:	ff550793          	addi	a5,a0,-11
800085a8:	4771                	li	a4,28
800085aa:	02f74963          	blt	a4,a5,800085dc <__divdf3+0xfe>
/home/hqfang/workspace/software/riscv-gnu-toolchain/riscv-gcc/libgcc/soft-fp/divdf3.c:44 (discriminator 32)
800085ae:	4af5                	li	s5,29
800085b0:	ff850413          	addi	s0,a0,-8
800085b4:	40fa8ab3          	sub	s5,s5,a5
800085b8:	008494b3          	sll	s1,s1,s0
800085bc:	015a5ab3          	srl	s5,s4,s5
800085c0:	009aeab3          	or	s5,s5,s1
800085c4:	008a1433          	sll	s0,s4,s0
/home/hqfang/workspace/software/riscv-gnu-toolchain/riscv-gcc/libgcc/soft-fp/divdf3.c:44 (discriminator 41)
800085c8:	c0d00593          	li	a1,-1011
800085cc:	40a58933          	sub	s2,a1,a0
800085d0:	b78d                	j	80008532 <__divdf3+0x54>
/home/hqfang/workspace/software/riscv-gnu-toolchain/riscv-gcc/libgcc/soft-fp/divdf3.c:44 (discriminator 24)
800085d2:	df4fc0ef          	jal	ra,80004bc6 <__clzsi2>
800085d6:	02050513          	addi	a0,a0,32
800085da:	b7e9                	j	800085a4 <__divdf3+0xc6>
/home/hqfang/workspace/software/riscv-gnu-toolchain/riscv-gcc/libgcc/soft-fp/divdf3.c:44 (discriminator 33)
800085dc:	fd850493          	addi	s1,a0,-40
800085e0:	009a1ab3          	sll	s5,s4,s1
800085e4:	4401                	li	s0,0
800085e6:	b7cd                	j	800085c8 <__divdf3+0xea>
/home/hqfang/workspace/software/riscv-gnu-toolchain/riscv-gcc/libgcc/soft-fp/divdf3.c:44 (discriminator 3)
800085e8:	00a4eab3          	or	s5,s1,a0
800085ec:	000a8c63          	beqz	s5,80008604 <__divdf3+0x126>
800085f0:	842a                	mv	s0,a0
/home/hqfang/workspace/software/riscv-gnu-toolchain/riscv-gcc/libgcc/soft-fp/divdf3.c:44
800085f2:	8aa6                	mv	s5,s1
800085f4:	7ff00913          	li	s2,2047
800085f8:	4b8d                	li	s7,3
800085fa:	bf2d                	j	80008534 <__divdf3+0x56>
800085fc:	4401                	li	s0,0
800085fe:	4901                	li	s2,0
80008600:	4b85                	li	s7,1
80008602:	bf0d                	j	80008534 <__divdf3+0x56>
80008604:	4401                	li	s0,0
80008606:	7ff00913          	li	s2,2047
8000860a:	4b89                	li	s7,2
8000860c:	b725                	j	80008534 <__divdf3+0x56>
/home/hqfang/workspace/software/riscv-gnu-toolchain/riscv-gcc/libgcc/soft-fp/divdf3.c:45 (discriminator 2)
8000860e:	0164efb3          	or	t6,s1,s6
80008612:	060f8263          	beqz	t6,80008676 <__divdf3+0x198>
/home/hqfang/workspace/software/riscv-gnu-toolchain/riscv-gcc/libgcc/soft-fp/divdf3.c:45 (discriminator 13)
80008616:	c89d                	beqz	s1,8000864c <__divdf3+0x16e>
/home/hqfang/workspace/software/riscv-gnu-toolchain/riscv-gcc/libgcc/soft-fp/divdf3.c:45 (discriminator 17)
80008618:	8526                	mv	a0,s1
8000861a:	dacfc0ef          	jal	ra,80004bc6 <__clzsi2>
8000861e:	85aa                	mv	a1,a0
/home/hqfang/workspace/software/riscv-gnu-toolchain/riscv-gcc/libgcc/soft-fp/divdf3.c:45 (discriminator 31)
80008620:	ff558793          	addi	a5,a1,-11
80008624:	4771                	li	a4,28
80008626:	02f74963          	blt	a4,a5,80008658 <__divdf3+0x17a>
/home/hqfang/workspace/software/riscv-gnu-toolchain/riscv-gcc/libgcc/soft-fp/divdf3.c:45 (discriminator 32)
8000862a:	46f5                	li	a3,29
8000862c:	ff858f93          	addi	t6,a1,-8
80008630:	8e9d                	sub	a3,a3,a5
80008632:	01f49533          	sll	a0,s1,t6
80008636:	00db56b3          	srl	a3,s6,a3
8000863a:	00a6e4b3          	or	s1,a3,a0
8000863e:	01fb1fb3          	sll	t6,s6,t6
/home/hqfang/workspace/software/riscv-gnu-toolchain/riscv-gcc/libgcc/soft-fp/divdf3.c:45 (discriminator 41)
80008642:	c0d00693          	li	a3,-1011
80008646:	40b68533          	sub	a0,a3,a1
8000864a:	b705                	j	8000856a <__divdf3+0x8c>
/home/hqfang/workspace/software/riscv-gnu-toolchain/riscv-gcc/libgcc/soft-fp/divdf3.c:45 (discriminator 24)
8000864c:	855a                	mv	a0,s6
8000864e:	d78fc0ef          	jal	ra,80004bc6 <__clzsi2>
80008652:	02050593          	addi	a1,a0,32
80008656:	b7e9                	j	80008620 <__divdf3+0x142>
/home/hqfang/workspace/software/riscv-gnu-toolchain/riscv-gcc/libgcc/soft-fp/divdf3.c:45 (discriminator 33)
80008658:	fd858513          	addi	a0,a1,-40
8000865c:	00ab14b3          	sll	s1,s6,a0
80008660:	4f81                	li	t6,0
80008662:	b7c5                	j	80008642 <__divdf3+0x164>
/home/hqfang/workspace/software/riscv-gnu-toolchain/riscv-gcc/libgcc/soft-fp/divdf3.c:45 (discriminator 3)
80008664:	0164efb3          	or	t6,s1,s6
80008668:	000f8b63          	beqz	t6,8000867e <__divdf3+0x1a0>
/home/hqfang/workspace/software/riscv-gnu-toolchain/riscv-gcc/libgcc/soft-fp/divdf3.c:45
8000866c:	8fda                	mv	t6,s6
8000866e:	7ff00513          	li	a0,2047
80008672:	478d                	li	a5,3
80008674:	bde5                	j	8000856c <__divdf3+0x8e>
80008676:	4481                	li	s1,0
80008678:	4501                	li	a0,0
8000867a:	4785                	li	a5,1
8000867c:	bdc5                	j	8000856c <__divdf3+0x8e>
8000867e:	4481                	li	s1,0
80008680:	7ff00513          	li	a0,2047
80008684:	4789                	li	a5,2
80008686:	b5dd                	j	8000856c <__divdf3+0x8e>
/home/hqfang/workspace/software/riscv-gnu-toolchain/riscv-gcc/libgcc/soft-fp/divdf3.c:46 (discriminator 2)
80008688:	0154e663          	bltu	s1,s5,80008694 <__divdf3+0x1b6>
/home/hqfang/workspace/software/riscv-gnu-toolchain/riscv-gcc/libgcc/soft-fp/divdf3.c:46 (discriminator 11)
8000868c:	2a9a9663          	bne	s5,s1,80008938 <__divdf3+0x45a>
/home/hqfang/workspace/software/riscv-gnu-toolchain/riscv-gcc/libgcc/soft-fp/divdf3.c:46 (discriminator 12)
80008690:	2bf46463          	bltu	s0,t6,80008938 <__divdf3+0x45a>
/home/hqfang/workspace/software/riscv-gnu-toolchain/riscv-gcc/libgcc/soft-fp/divdf3.c:46 (discriminator 14)
80008694:	01fa9613          	slli	a2,s5,0x1f
80008698:	00145713          	srli	a4,s0,0x1
8000869c:	01f41793          	slli	a5,s0,0x1f
800086a0:	001ada93          	srli	s5,s5,0x1
800086a4:	00e66433          	or	s0,a2,a4
/home/hqfang/workspace/software/riscv-gnu-toolchain/riscv-gcc/libgcc/soft-fp/divdf3.c:46 (discriminator 19)
800086a8:	00849513          	slli	a0,s1,0x8
800086ac:	018fd893          	srli	a7,t6,0x18
800086b0:	00a8e8b3          	or	a7,a7,a0
800086b4:	8141                	srli	a0,a0,0x10
800086b6:	02aade33          	divu	t3,s5,a0
800086ba:	01089e93          	slli	t4,a7,0x10
800086be:	010ede93          	srli	t4,t4,0x10
800086c2:	01045713          	srli	a4,s0,0x10
800086c6:	008f9313          	slli	t1,t6,0x8
800086ca:	02aafab3          	remu	s5,s5,a0
800086ce:	8672                	mv	a2,t3
800086d0:	03ce8833          	mul	a6,t4,t3
800086d4:	0ac2                	slli	s5,s5,0x10
800086d6:	01576733          	or	a4,a4,s5
800086da:	01077c63          	bgeu	a4,a6,800086f2 <__divdf3+0x214>
/home/hqfang/workspace/software/riscv-gnu-toolchain/riscv-gcc/libgcc/soft-fp/divdf3.c:46 (discriminator 22)
800086de:	9746                	add	a4,a4,a7
800086e0:	fffe0613          	addi	a2,t3,-1 # ffff <__stack_size+0xf7ff>
800086e4:	01176763          	bltu	a4,a7,800086f2 <__divdf3+0x214>
/home/hqfang/workspace/software/riscv-gnu-toolchain/riscv-gcc/libgcc/soft-fp/divdf3.c:46 (discriminator 24)
800086e8:	01077563          	bgeu	a4,a6,800086f2 <__divdf3+0x214>
/home/hqfang/workspace/software/riscv-gnu-toolchain/riscv-gcc/libgcc/soft-fp/divdf3.c:46 (discriminator 26)
800086ec:	ffee0613          	addi	a2,t3,-2
800086f0:	9746                	add	a4,a4,a7
/home/hqfang/workspace/software/riscv-gnu-toolchain/riscv-gcc/libgcc/soft-fp/divdf3.c:46 (discriminator 28)
800086f2:	41070733          	sub	a4,a4,a6
800086f6:	02a75e33          	divu	t3,a4,a0
800086fa:	0442                	slli	s0,s0,0x10
800086fc:	8041                	srli	s0,s0,0x10
800086fe:	02a77733          	remu	a4,a4,a0
80008702:	82f2                	mv	t0,t3
80008704:	03ce8833          	mul	a6,t4,t3
80008708:	0742                	slli	a4,a4,0x10
8000870a:	8f41                	or	a4,a4,s0
8000870c:	01077c63          	bgeu	a4,a6,80008724 <__divdf3+0x246>
/home/hqfang/workspace/software/riscv-gnu-toolchain/riscv-gcc/libgcc/soft-fp/divdf3.c:46 (discriminator 29)
80008710:	9746                	add	a4,a4,a7
80008712:	fffe0293          	addi	t0,t3,-1
80008716:	01176763          	bltu	a4,a7,80008724 <__divdf3+0x246>
/home/hqfang/workspace/software/riscv-gnu-toolchain/riscv-gcc/libgcc/soft-fp/divdf3.c:46 (discriminator 31)
8000871a:	01077563          	bgeu	a4,a6,80008724 <__divdf3+0x246>
/home/hqfang/workspace/software/riscv-gnu-toolchain/riscv-gcc/libgcc/soft-fp/divdf3.c:46 (discriminator 33)
8000871e:	ffee0293          	addi	t0,t3,-2
80008722:	9746                	add	a4,a4,a7
/home/hqfang/workspace/software/riscv-gnu-toolchain/riscv-gcc/libgcc/soft-fp/divdf3.c:46 (discriminator 35)
80008724:	41070433          	sub	s0,a4,a6
80008728:	0642                	slli	a2,a2,0x10
8000872a:	6841                	lui	a6,0x10
8000872c:	005662b3          	or	t0,a2,t0
80008730:	fff80e13          	addi	t3,a6,-1 # ffff <__stack_size+0xf7ff>
80008734:	0102d613          	srli	a2,t0,0x10
80008738:	01c2f733          	and	a4,t0,t3
8000873c:	01035f13          	srli	t5,t1,0x10
80008740:	01c37e33          	and	t3,t1,t3
80008744:	02ee03b3          	mul	t2,t3,a4
80008748:	03c604b3          	mul	s1,a2,t3
8000874c:	02ef0733          	mul	a4,t5,a4
80008750:	03e60fb3          	mul	t6,a2,t5
80008754:	00970633          	add	a2,a4,s1
80008758:	0103d713          	srli	a4,t2,0x10
8000875c:	9732                	add	a4,a4,a2
8000875e:	00977363          	bgeu	a4,s1,80008764 <__divdf3+0x286>
/home/hqfang/workspace/software/riscv-gnu-toolchain/riscv-gcc/libgcc/soft-fp/divdf3.c:46 (discriminator 36)
80008762:	9fc2                	add	t6,t6,a6
/home/hqfang/workspace/software/riscv-gnu-toolchain/riscv-gcc/libgcc/soft-fp/divdf3.c:46 (discriminator 38)
80008764:	01075613          	srli	a2,a4,0x10
80008768:	967e                	add	a2,a2,t6
8000876a:	6fc1                	lui	t6,0x10
8000876c:	1ffd                	addi	t6,t6,-1
8000876e:	01f77833          	and	a6,a4,t6
80008772:	0842                	slli	a6,a6,0x10
80008774:	01f3f3b3          	and	t2,t2,t6
80008778:	981e                	add	a6,a6,t2
8000877a:	00c46763          	bltu	s0,a2,80008788 <__divdf3+0x2aa>
/home/hqfang/workspace/software/riscv-gnu-toolchain/riscv-gcc/libgcc/soft-fp/divdf3.c:46 (discriminator 40)
8000877e:	8496                	mv	s1,t0
80008780:	02c41e63          	bne	s0,a2,800087bc <__divdf3+0x2de>
/home/hqfang/workspace/software/riscv-gnu-toolchain/riscv-gcc/libgcc/soft-fp/divdf3.c:46 (discriminator 41)
80008784:	0307fc63          	bgeu	a5,a6,800087bc <__divdf3+0x2de>
/home/hqfang/workspace/software/riscv-gnu-toolchain/riscv-gcc/libgcc/soft-fp/divdf3.c:46 (discriminator 43)
80008788:	979a                	add	a5,a5,t1
8000878a:	0067b733          	sltu	a4,a5,t1
8000878e:	9746                	add	a4,a4,a7
80008790:	943a                	add	s0,s0,a4
80008792:	fff28493          	addi	s1,t0,-1
80008796:	0088e663          	bltu	a7,s0,800087a2 <__divdf3+0x2c4>
/home/hqfang/workspace/software/riscv-gnu-toolchain/riscv-gcc/libgcc/soft-fp/divdf3.c:46 (discriminator 46)
8000879a:	02889163          	bne	a7,s0,800087bc <__divdf3+0x2de>
/home/hqfang/workspace/software/riscv-gnu-toolchain/riscv-gcc/libgcc/soft-fp/divdf3.c:46 (discriminator 47)
8000879e:	0067ef63          	bltu	a5,t1,800087bc <__divdf3+0x2de>
/home/hqfang/workspace/software/riscv-gnu-toolchain/riscv-gcc/libgcc/soft-fp/divdf3.c:46 (discriminator 49)
800087a2:	00c46663          	bltu	s0,a2,800087ae <__divdf3+0x2d0>
/home/hqfang/workspace/software/riscv-gnu-toolchain/riscv-gcc/libgcc/soft-fp/divdf3.c:46 (discriminator 52)
800087a6:	00861b63          	bne	a2,s0,800087bc <__divdf3+0x2de>
/home/hqfang/workspace/software/riscv-gnu-toolchain/riscv-gcc/libgcc/soft-fp/divdf3.c:46 (discriminator 53)
800087aa:	0107f963          	bgeu	a5,a6,800087bc <__divdf3+0x2de>
/home/hqfang/workspace/software/riscv-gnu-toolchain/riscv-gcc/libgcc/soft-fp/divdf3.c:46 (discriminator 55)
800087ae:	979a                	add	a5,a5,t1
800087b0:	0067b733          	sltu	a4,a5,t1
800087b4:	9746                	add	a4,a4,a7
800087b6:	ffe28493          	addi	s1,t0,-2
800087ba:	943a                	add	s0,s0,a4
/home/hqfang/workspace/software/riscv-gnu-toolchain/riscv-gcc/libgcc/soft-fp/divdf3.c:46 (discriminator 57)
800087bc:	41078833          	sub	a6,a5,a6
800087c0:	8c11                	sub	s0,s0,a2
800087c2:	0107b7b3          	sltu	a5,a5,a6
800087c6:	8c1d                	sub	s0,s0,a5
800087c8:	5ffd                	li	t6,-1
800087ca:	0e888763          	beq	a7,s0,800088b8 <__divdf3+0x3da>
/home/hqfang/workspace/software/riscv-gnu-toolchain/riscv-gcc/libgcc/soft-fp/divdf3.c:46 (discriminator 59)
800087ce:	02a45fb3          	divu	t6,s0,a0
800087d2:	01085713          	srli	a4,a6,0x10
800087d6:	02a47433          	remu	s0,s0,a0
800087da:	867e                	mv	a2,t6
800087dc:	03fe87b3          	mul	a5,t4,t6
800087e0:	0442                	slli	s0,s0,0x10
800087e2:	8c59                	or	s0,s0,a4
800087e4:	00f47c63          	bgeu	s0,a5,800087fc <__divdf3+0x31e>
/home/hqfang/workspace/software/riscv-gnu-toolchain/riscv-gcc/libgcc/soft-fp/divdf3.c:46 (discriminator 61)
800087e8:	9446                	add	s0,s0,a7
800087ea:	ffff8613          	addi	a2,t6,-1 # ffff <__stack_size+0xf7ff>
800087ee:	01146763          	bltu	s0,a7,800087fc <__divdf3+0x31e>
/home/hqfang/workspace/software/riscv-gnu-toolchain/riscv-gcc/libgcc/soft-fp/divdf3.c:46 (discriminator 63)
800087f2:	00f47563          	bgeu	s0,a5,800087fc <__divdf3+0x31e>
/home/hqfang/workspace/software/riscv-gnu-toolchain/riscv-gcc/libgcc/soft-fp/divdf3.c:46 (discriminator 65)
800087f6:	ffef8613          	addi	a2,t6,-2
800087fa:	9446                	add	s0,s0,a7
/home/hqfang/workspace/software/riscv-gnu-toolchain/riscv-gcc/libgcc/soft-fp/divdf3.c:46 (discriminator 67)
800087fc:	8c1d                	sub	s0,s0,a5
800087fe:	02a45733          	divu	a4,s0,a0
80008802:	0842                	slli	a6,a6,0x10
80008804:	01085813          	srli	a6,a6,0x10
80008808:	02a47433          	remu	s0,s0,a0
8000880c:	87ba                	mv	a5,a4
8000880e:	02ee8eb3          	mul	t4,t4,a4
80008812:	0442                	slli	s0,s0,0x10
80008814:	00886433          	or	s0,a6,s0
80008818:	01d47c63          	bgeu	s0,t4,80008830 <__divdf3+0x352>
/home/hqfang/workspace/software/riscv-gnu-toolchain/riscv-gcc/libgcc/soft-fp/divdf3.c:46 (discriminator 68)
8000881c:	9446                	add	s0,s0,a7
8000881e:	fff70793          	addi	a5,a4,-1 # ff7fffff <_sp+0x6f7effff>
80008822:	01146763          	bltu	s0,a7,80008830 <__divdf3+0x352>
/home/hqfang/workspace/software/riscv-gnu-toolchain/riscv-gcc/libgcc/soft-fp/divdf3.c:46 (discriminator 70)
80008826:	01d47563          	bgeu	s0,t4,80008830 <__divdf3+0x352>
/home/hqfang/workspace/software/riscv-gnu-toolchain/riscv-gcc/libgcc/soft-fp/divdf3.c:46 (discriminator 72)
8000882a:	ffe70793          	addi	a5,a4,-2
8000882e:	9446                	add	s0,s0,a7
/home/hqfang/workspace/software/riscv-gnu-toolchain/riscv-gcc/libgcc/soft-fp/divdf3.c:46 (discriminator 74)
80008830:	0642                	slli	a2,a2,0x10
80008832:	8e5d                	or	a2,a2,a5
80008834:	01061793          	slli	a5,a2,0x10
80008838:	83c1                	srli	a5,a5,0x10
8000883a:	01065713          	srli	a4,a2,0x10
8000883e:	02ef0833          	mul	a6,t5,a4
80008842:	41d40433          	sub	s0,s0,t4
80008846:	02ff0f33          	mul	t5,t5,a5
8000884a:	03c78eb3          	mul	t4,a5,t3
8000884e:	03c70e33          	mul	t3,a4,t3
80008852:	010ed793          	srli	a5,t4,0x10
80008856:	9f72                	add	t5,t5,t3
80008858:	97fa                	add	a5,a5,t5
8000885a:	01c7f463          	bgeu	a5,t3,80008862 <__divdf3+0x384>
/home/hqfang/workspace/software/riscv-gnu-toolchain/riscv-gcc/libgcc/soft-fp/divdf3.c:46 (discriminator 75)
8000885e:	6741                	lui	a4,0x10
80008860:	983a                	add	a6,a6,a4
/home/hqfang/workspace/software/riscv-gnu-toolchain/riscv-gcc/libgcc/soft-fp/divdf3.c:46 (discriminator 77)
80008862:	0107d713          	srli	a4,a5,0x10
80008866:	9742                	add	a4,a4,a6
80008868:	6841                	lui	a6,0x10
8000886a:	187d                	addi	a6,a6,-1
8000886c:	0107f533          	and	a0,a5,a6
80008870:	0542                	slli	a0,a0,0x10
80008872:	010efeb3          	and	t4,t4,a6
80008876:	9576                	add	a0,a0,t4
80008878:	00e46663          	bltu	s0,a4,80008884 <__divdf3+0x3a6>
/home/hqfang/workspace/software/riscv-gnu-toolchain/riscv-gcc/libgcc/soft-fp/divdf3.c:46 (discriminator 79)
8000887c:	18e41f63          	bne	s0,a4,80008a1a <__divdf3+0x53c>
/home/hqfang/workspace/software/riscv-gnu-toolchain/riscv-gcc/libgcc/soft-fp/divdf3.c:46 (discriminator 80)
80008880:	8fb2                	mv	t6,a2
80008882:	c91d                	beqz	a0,800088b8 <__divdf3+0x3da>
/home/hqfang/workspace/software/riscv-gnu-toolchain/riscv-gcc/libgcc/soft-fp/divdf3.c:46 (discriminator 82)
80008884:	9446                	add	s0,s0,a7
80008886:	fff60f93          	addi	t6,a2,-1
8000888a:	03146163          	bltu	s0,a7,800088ac <__divdf3+0x3ce>
/home/hqfang/workspace/software/riscv-gnu-toolchain/riscv-gcc/libgcc/soft-fp/divdf3.c:46 (discriminator 88)
8000888e:	00e46663          	bltu	s0,a4,8000889a <__divdf3+0x3bc>
/home/hqfang/workspace/software/riscv-gnu-toolchain/riscv-gcc/libgcc/soft-fp/divdf3.c:46 (discriminator 91)
80008892:	18e41363          	bne	s0,a4,80008a18 <__divdf3+0x53a>
/home/hqfang/workspace/software/riscv-gnu-toolchain/riscv-gcc/libgcc/soft-fp/divdf3.c:46 (discriminator 92)
80008896:	00a37d63          	bgeu	t1,a0,800088b0 <__divdf3+0x3d2>
/home/hqfang/workspace/software/riscv-gnu-toolchain/riscv-gcc/libgcc/soft-fp/divdf3.c:46 (discriminator 94)
8000889a:	00131793          	slli	a5,t1,0x1
8000889e:	0067b333          	sltu	t1,a5,t1
800088a2:	989a                	add	a7,a7,t1
800088a4:	ffe60f93          	addi	t6,a2,-2
800088a8:	9446                	add	s0,s0,a7
800088aa:	833e                	mv	t1,a5
/home/hqfang/workspace/software/riscv-gnu-toolchain/riscv-gcc/libgcc/soft-fp/divdf3.c:46 (discriminator 96)
800088ac:	00e41463          	bne	s0,a4,800088b4 <__divdf3+0x3d6>
/home/hqfang/workspace/software/riscv-gnu-toolchain/riscv-gcc/libgcc/soft-fp/divdf3.c:46 (discriminator 98)
800088b0:	00650463          	beq	a0,t1,800088b8 <__divdf3+0x3da>
/home/hqfang/workspace/software/riscv-gnu-toolchain/riscv-gcc/libgcc/soft-fp/divdf3.c:46 (discriminator 99)
800088b4:	001fef93          	ori	t6,t6,1
/home/hqfang/workspace/software/riscv-gnu-toolchain/riscv-gcc/libgcc/soft-fp/divdf3.c:47 (discriminator 2)
800088b8:	3ff58793          	addi	a5,a1,1023
800088bc:	0af05b63          	blez	a5,80008972 <__divdf3+0x494>
/home/hqfang/workspace/software/riscv-gnu-toolchain/riscv-gcc/libgcc/soft-fp/divdf3.c:47 (discriminator 6)
800088c0:	007ff713          	andi	a4,t6,7
800088c4:	cf01                	beqz	a4,800088dc <__divdf3+0x3fe>
/home/hqfang/workspace/software/riscv-gnu-toolchain/riscv-gcc/libgcc/soft-fp/divdf3.c:47 (discriminator 8)
800088c6:	00fff713          	andi	a4,t6,15
800088ca:	4611                	li	a2,4
800088cc:	00c70863          	beq	a4,a2,800088dc <__divdf3+0x3fe>
/home/hqfang/workspace/software/riscv-gnu-toolchain/riscv-gcc/libgcc/soft-fp/divdf3.c:47 (discriminator 10)
800088d0:	004f8613          	addi	a2,t6,4
800088d4:	01f63fb3          	sltu	t6,a2,t6
800088d8:	94fe                	add	s1,s1,t6
800088da:	8fb2                	mv	t6,a2
/home/hqfang/workspace/software/riscv-gnu-toolchain/riscv-gcc/libgcc/soft-fp/divdf3.c:47 (discriminator 9)
800088dc:	01000737          	lui	a4,0x1000
800088e0:	8f65                	and	a4,a4,s1
800088e2:	c719                	beqz	a4,800088f0 <__divdf3+0x412>
/home/hqfang/workspace/software/riscv-gnu-toolchain/riscv-gcc/libgcc/soft-fp/divdf3.c:47 (discriminator 24)
800088e4:	ff0007b7          	lui	a5,0xff000
800088e8:	17fd                	addi	a5,a5,-1
800088ea:	8cfd                	and	s1,s1,a5
800088ec:	40058793          	addi	a5,a1,1024
/home/hqfang/workspace/software/riscv-gnu-toolchain/riscv-gcc/libgcc/soft-fp/divdf3.c:47 (discriminator 26)
800088f0:	7fe00713          	li	a4,2046
800088f4:	06f74263          	blt	a4,a5,80008958 <__divdf3+0x47a>
/home/hqfang/workspace/software/riscv-gnu-toolchain/riscv-gcc/libgcc/soft-fp/divdf3.c:47
800088f8:	003fdf93          	srli	t6,t6,0x3
800088fc:	01d49713          	slli	a4,s1,0x1d
80008900:	01f76733          	or	a4,a4,t6
80008904:	0034d513          	srli	a0,s1,0x3
/home/hqfang/workspace/software/riscv-gnu-toolchain/riscv-gcc/libgcc/soft-fp/divdf3.c:47 (discriminator 119)
80008908:	07d2                	slli	a5,a5,0x14
8000890a:	7ff00637          	lui	a2,0x7ff00
8000890e:	0532                	slli	a0,a0,0xc
/home/hqfang/workspace/software/riscv-gnu-toolchain/riscv-gcc/libgcc/soft-fp/divdf3.c:51 (discriminator 119)
80008910:	50b2                	lw	ra,44(sp)
80008912:	5422                	lw	s0,40(sp)
/home/hqfang/workspace/software/riscv-gnu-toolchain/riscv-gcc/libgcc/soft-fp/divdf3.c:47 (discriminator 119)
80008914:	8ff1                	and	a5,a5,a2
80008916:	8131                	srli	a0,a0,0xc
80008918:	8d5d                	or	a0,a0,a5
8000891a:	06fe                	slli	a3,a3,0x1f
8000891c:	00d567b3          	or	a5,a0,a3
/home/hqfang/workspace/software/riscv-gnu-toolchain/riscv-gcc/libgcc/soft-fp/divdf3.c:51 (discriminator 119)
80008920:	5492                	lw	s1,36(sp)
80008922:	5902                	lw	s2,32(sp)
80008924:	49f2                	lw	s3,28(sp)
80008926:	4a62                	lw	s4,24(sp)
80008928:	4ad2                	lw	s5,20(sp)
8000892a:	4b42                	lw	s6,16(sp)
8000892c:	4bb2                	lw	s7,12(sp)
8000892e:	4c22                	lw	s8,8(sp)
80008930:	853a                	mv	a0,a4
80008932:	85be                	mv	a1,a5
80008934:	6145                	addi	sp,sp,48
80008936:	8082                	ret
/home/hqfang/workspace/software/riscv-gnu-toolchain/riscv-gcc/libgcc/soft-fp/divdf3.c:46 (discriminator 15)
80008938:	15fd                	addi	a1,a1,-1
8000893a:	4781                	li	a5,0
8000893c:	b3b5                	j	800086a8 <__divdf3+0x1ca>
/home/hqfang/workspace/software/riscv-gnu-toolchain/riscv-gcc/libgcc/soft-fp/divdf3.c:44 (discriminator 8)
8000893e:	86ce                	mv	a3,s3
/home/hqfang/workspace/software/riscv-gnu-toolchain/riscv-gcc/libgcc/soft-fp/divdf3.c:46 (discriminator 8)
80008940:	84d6                	mv	s1,s5
80008942:	8fa2                	mv	t6,s0
80008944:	87de                	mv	a5,s7
/home/hqfang/workspace/software/riscv-gnu-toolchain/riscv-gcc/libgcc/soft-fp/divdf3.c:47 (discriminator 108)
80008946:	470d                	li	a4,3
80008948:	0ae78a63          	beq	a5,a4,800089fc <__divdf3+0x51e>
/home/hqfang/workspace/software/riscv-gnu-toolchain/riscv-gcc/libgcc/soft-fp/divdf3.c:47
8000894c:	4705                	li	a4,1
8000894e:	0ae78e63          	beq	a5,a4,80008a0a <__divdf3+0x52c>
80008952:	4709                	li	a4,2
80008954:	f6e792e3          	bne	a5,a4,800088b8 <__divdf3+0x3da>
80008958:	4501                	li	a0,0
8000895a:	4701                	li	a4,0
8000895c:	7ff00793          	li	a5,2047
80008960:	b765                	j	80008908 <__divdf3+0x42a>
/home/hqfang/workspace/software/riscv-gnu-toolchain/riscv-gcc/libgcc/soft-fp/divdf3.c:45 (discriminator 5)
80008962:	86e2                	mv	a3,s8
/home/hqfang/workspace/software/riscv-gnu-toolchain/riscv-gcc/libgcc/soft-fp/divdf3.c:46 (discriminator 5)
80008964:	b7cd                	j	80008946 <__divdf3+0x468>
/home/hqfang/workspace/software/riscv-gnu-toolchain/riscv-gcc/libgcc/soft-fp/divdf3.c:46
80008966:	000804b7          	lui	s1,0x80
8000896a:	4f81                	li	t6,0
8000896c:	4681                	li	a3,0
8000896e:	478d                	li	a5,3
80008970:	bfd9                	j	80008946 <__divdf3+0x468>
/home/hqfang/workspace/software/riscv-gnu-toolchain/riscv-gcc/libgcc/soft-fp/divdf3.c:47 (discriminator 59)
80008972:	4505                	li	a0,1
80008974:	8d1d                	sub	a0,a0,a5
80008976:	03800713          	li	a4,56
8000897a:	08a74863          	blt	a4,a0,80008a0a <__divdf3+0x52c>
/home/hqfang/workspace/software/riscv-gnu-toolchain/riscv-gcc/libgcc/soft-fp/divdf3.c:47 (discriminator 60)
8000897e:	477d                	li	a4,31
80008980:	04a74963          	blt	a4,a0,800089d2 <__divdf3+0x4f4>
/home/hqfang/workspace/software/riscv-gnu-toolchain/riscv-gcc/libgcc/soft-fp/divdf3.c:47 (discriminator 62)
80008984:	41e58593          	addi	a1,a1,1054
80008988:	00b497b3          	sll	a5,s1,a1
8000898c:	00afd733          	srl	a4,t6,a0
80008990:	00bf95b3          	sll	a1,t6,a1
80008994:	8fd9                	or	a5,a5,a4
80008996:	00b035b3          	snez	a1,a1
8000899a:	8fcd                	or	a5,a5,a1
8000899c:	00a4d533          	srl	a0,s1,a0
/home/hqfang/workspace/software/riscv-gnu-toolchain/riscv-gcc/libgcc/soft-fp/divdf3.c:47 (discriminator 75)
800089a0:	0077f713          	andi	a4,a5,7
800089a4:	cf01                	beqz	a4,800089bc <__divdf3+0x4de>
/home/hqfang/workspace/software/riscv-gnu-toolchain/riscv-gcc/libgcc/soft-fp/divdf3.c:47 (discriminator 76)
800089a6:	00f7f713          	andi	a4,a5,15
800089aa:	4611                	li	a2,4
800089ac:	00c70863          	beq	a4,a2,800089bc <__divdf3+0x4de>
/home/hqfang/workspace/software/riscv-gnu-toolchain/riscv-gcc/libgcc/soft-fp/divdf3.c:47 (discriminator 78)
800089b0:	00478713          	addi	a4,a5,4 # ff000004 <_sp+0x6eff0004>
800089b4:	00f737b3          	sltu	a5,a4,a5
800089b8:	953e                	add	a0,a0,a5
800089ba:	87ba                	mv	a5,a4
/home/hqfang/workspace/software/riscv-gnu-toolchain/riscv-gcc/libgcc/soft-fp/divdf3.c:47 (discriminator 77)
800089bc:	00800737          	lui	a4,0x800
800089c0:	8f69                	and	a4,a4,a0
800089c2:	e739                	bnez	a4,80008a10 <__divdf3+0x532>
/home/hqfang/workspace/software/riscv-gnu-toolchain/riscv-gcc/libgcc/soft-fp/divdf3.c:47 (discriminator 93)
800089c4:	01d51713          	slli	a4,a0,0x1d
800089c8:	838d                	srli	a5,a5,0x3
800089ca:	8f5d                	or	a4,a4,a5
800089cc:	810d                	srli	a0,a0,0x3
/home/hqfang/workspace/software/riscv-gnu-toolchain/riscv-gcc/libgcc/soft-fp/divdf3.c:47
800089ce:	4781                	li	a5,0
800089d0:	bf25                	j	80008908 <__divdf3+0x42a>
/home/hqfang/workspace/software/riscv-gnu-toolchain/riscv-gcc/libgcc/soft-fp/divdf3.c:47 (discriminator 63)
800089d2:	5705                	li	a4,-31
800089d4:	40f707b3          	sub	a5,a4,a5
800089d8:	02000613          	li	a2,32
800089dc:	00f4d7b3          	srl	a5,s1,a5
800089e0:	4701                	li	a4,0
800089e2:	00c50663          	beq	a0,a2,800089ee <__divdf3+0x510>
/home/hqfang/workspace/software/riscv-gnu-toolchain/riscv-gcc/libgcc/soft-fp/divdf3.c:47 (discriminator 71)
800089e6:	43e58713          	addi	a4,a1,1086
800089ea:	00e49733          	sll	a4,s1,a4
/home/hqfang/workspace/software/riscv-gnu-toolchain/riscv-gcc/libgcc/soft-fp/divdf3.c:47 (discriminator 74)
800089ee:	01f76733          	or	a4,a4,t6
800089f2:	00e03733          	snez	a4,a4
800089f6:	8fd9                	or	a5,a5,a4
800089f8:	4501                	li	a0,0
800089fa:	b75d                	j	800089a0 <__divdf3+0x4c2>
/home/hqfang/workspace/software/riscv-gnu-toolchain/riscv-gcc/libgcc/soft-fp/divdf3.c:47
800089fc:	00080537          	lui	a0,0x80
80008a00:	4701                	li	a4,0
80008a02:	7ff00793          	li	a5,2047
80008a06:	4681                	li	a3,0
80008a08:	b701                	j	80008908 <__divdf3+0x42a>
80008a0a:	4501                	li	a0,0
80008a0c:	4701                	li	a4,0
80008a0e:	b7c1                	j	800089ce <__divdf3+0x4f0>
80008a10:	4501                	li	a0,0
80008a12:	4701                	li	a4,0
80008a14:	4785                	li	a5,1
80008a16:	bdcd                	j	80008908 <__divdf3+0x42a>
/home/hqfang/workspace/software/riscv-gnu-toolchain/riscv-gcc/libgcc/soft-fp/divdf3.c:46
80008a18:	867e                	mv	a2,t6
80008a1a:	8fb2                	mv	t6,a2
80008a1c:	bd61                	j	800088b4 <__divdf3+0x3d6>

80008a1e <__eqdf2>:
__eqdf2():
/home/hqfang/workspace/software/riscv-gnu-toolchain/riscv-gcc/libgcc/soft-fp/eqdf2.c:43
80008a1e:	0145d713          	srli	a4,a1,0x14
80008a22:	001007b7          	lui	a5,0x100
80008a26:	17fd                	addi	a5,a5,-1
/home/hqfang/workspace/software/riscv-gnu-toolchain/riscv-gcc/libgcc/soft-fp/eqdf2.c:44
80008a28:	0146d813          	srli	a6,a3,0x14
/home/hqfang/workspace/software/riscv-gnu-toolchain/riscv-gcc/libgcc/soft-fp/eqdf2.c:36
80008a2c:	832a                	mv	t1,a0
80008a2e:	8eaa                	mv	t4,a0
/home/hqfang/workspace/software/riscv-gnu-toolchain/riscv-gcc/libgcc/soft-fp/eqdf2.c:43
80008a30:	7ff77713          	andi	a4,a4,2047
/home/hqfang/workspace/software/riscv-gnu-toolchain/riscv-gcc/libgcc/soft-fp/eqdf2.c:45
80008a34:	7ff00513          	li	a0,2047
/home/hqfang/workspace/software/riscv-gnu-toolchain/riscv-gcc/libgcc/soft-fp/eqdf2.c:43
80008a38:	00b7f8b3          	and	a7,a5,a1
80008a3c:	8f32                	mv	t5,a2
/home/hqfang/workspace/software/riscv-gnu-toolchain/riscv-gcc/libgcc/soft-fp/eqdf2.c:44
80008a3e:	8ff5                	and	a5,a5,a3
/home/hqfang/workspace/software/riscv-gnu-toolchain/riscv-gcc/libgcc/soft-fp/eqdf2.c:43
80008a40:	81fd                	srli	a1,a1,0x1f
/home/hqfang/workspace/software/riscv-gnu-toolchain/riscv-gcc/libgcc/soft-fp/eqdf2.c:44
80008a42:	7ff87813          	andi	a6,a6,2047
80008a46:	82fd                	srli	a3,a3,0x1f
/home/hqfang/workspace/software/riscv-gnu-toolchain/riscv-gcc/libgcc/soft-fp/eqdf2.c:45
80008a48:	00a71a63          	bne	a4,a0,80008a5c <__eqdf2+0x3e>
/home/hqfang/workspace/software/riscv-gnu-toolchain/riscv-gcc/libgcc/soft-fp/eqdf2.c:45 (discriminator 20)
80008a4c:	0068ee33          	or	t3,a7,t1
80008a50:	4505                	li	a0,1
80008a52:	000e1463          	bnez	t3,80008a5a <__eqdf2+0x3c>
/home/hqfang/workspace/software/riscv-gnu-toolchain/riscv-gcc/libgcc/soft-fp/eqdf2.c:45
80008a56:	00e80563          	beq	a6,a4,80008a60 <__eqdf2+0x42>
/home/hqfang/workspace/software/riscv-gnu-toolchain/riscv-gcc/libgcc/soft-fp/eqdf2.c:49
80008a5a:	8082                	ret
/home/hqfang/workspace/software/riscv-gnu-toolchain/riscv-gcc/libgcc/soft-fp/eqdf2.c:45 (discriminator 23)
80008a5c:	00a81563          	bne	a6,a0,80008a66 <__eqdf2+0x48>
/home/hqfang/workspace/software/riscv-gnu-toolchain/riscv-gcc/libgcc/soft-fp/eqdf2.c:45 (discriminator 24)
80008a60:	8e5d                	or	a2,a2,a5
80008a62:	4505                	li	a0,1
80008a64:	fa7d                	bnez	a2,80008a5a <__eqdf2+0x3c>
/home/hqfang/workspace/software/riscv-gnu-toolchain/riscv-gcc/libgcc/soft-fp/eqdf2.c:45 (discriminator 78)
80008a66:	4505                	li	a0,1
80008a68:	ff0719e3          	bne	a4,a6,80008a5a <__eqdf2+0x3c>
/home/hqfang/workspace/software/riscv-gnu-toolchain/riscv-gcc/libgcc/soft-fp/eqdf2.c:45 (discriminator 80)
80008a6c:	fef897e3          	bne	a7,a5,80008a5a <__eqdf2+0x3c>
/home/hqfang/workspace/software/riscv-gnu-toolchain/riscv-gcc/libgcc/soft-fp/eqdf2.c:45 (discriminator 82)
80008a70:	ffee95e3          	bne	t4,t5,80008a5a <__eqdf2+0x3c>
/home/hqfang/workspace/software/riscv-gnu-toolchain/riscv-gcc/libgcc/soft-fp/eqdf2.c:45 (discriminator 84)
80008a74:	00d58863          	beq	a1,a3,80008a84 <__eqdf2+0x66>
/home/hqfang/workspace/software/riscv-gnu-toolchain/riscv-gcc/libgcc/soft-fp/eqdf2.c:45 (discriminator 85)
80008a78:	f36d                	bnez	a4,80008a5a <__eqdf2+0x3c>
/home/hqfang/workspace/software/riscv-gnu-toolchain/riscv-gcc/libgcc/soft-fp/eqdf2.c:45 (discriminator 88)
80008a7a:	0068e533          	or	a0,a7,t1
80008a7e:	00a03533          	snez	a0,a0
80008a82:	8082                	ret
/home/hqfang/workspace/software/riscv-gnu-toolchain/riscv-gcc/libgcc/soft-fp/eqdf2.c:45
80008a84:	4501                	li	a0,0
80008a86:	8082                	ret

80008a88 <__gedf2>:
__gedf2():
/home/hqfang/workspace/software/riscv-gnu-toolchain/riscv-gcc/libgcc/soft-fp/gedf2.c:43
80008a88:	00100737          	lui	a4,0x100
80008a8c:	177d                	addi	a4,a4,-1
80008a8e:	0145d813          	srli	a6,a1,0x14
80008a92:	00b778b3          	and	a7,a4,a1
/home/hqfang/workspace/software/riscv-gnu-toolchain/riscv-gcc/libgcc/soft-fp/gedf2.c:36
80008a96:	87aa                	mv	a5,a0
80008a98:	832a                	mv	t1,a0
/home/hqfang/workspace/software/riscv-gnu-toolchain/riscv-gcc/libgcc/soft-fp/gedf2.c:43
80008a9a:	7ff87813          	andi	a6,a6,2047
80008a9e:	01f5d513          	srli	a0,a1,0x1f
/home/hqfang/workspace/software/riscv-gnu-toolchain/riscv-gcc/libgcc/soft-fp/gedf2.c:45
80008aa2:	7ff00e93          	li	t4,2047
/home/hqfang/workspace/software/riscv-gnu-toolchain/riscv-gcc/libgcc/soft-fp/gedf2.c:44
80008aa6:	0146d593          	srli	a1,a3,0x14
80008aaa:	8f75                	and	a4,a4,a3
80008aac:	8e32                	mv	t3,a2
80008aae:	7ff5f593          	andi	a1,a1,2047
80008ab2:	82fd                	srli	a3,a3,0x1f
/home/hqfang/workspace/software/riscv-gnu-toolchain/riscv-gcc/libgcc/soft-fp/gedf2.c:45
80008ab4:	01d81863          	bne	a6,t4,80008ac4 <__gedf2+0x3c>
/home/hqfang/workspace/software/riscv-gnu-toolchain/riscv-gcc/libgcc/soft-fp/gedf2.c:45 (discriminator 20)
80008ab8:	00f8eeb3          	or	t4,a7,a5
80008abc:	060e8463          	beqz	t4,80008b24 <__gedf2+0x9c>
/home/hqfang/workspace/software/riscv-gnu-toolchain/riscv-gcc/libgcc/soft-fp/gedf2.c:45
80008ac0:	5579                	li	a0,-2
80008ac2:	8082                	ret
/home/hqfang/workspace/software/riscv-gnu-toolchain/riscv-gcc/libgcc/soft-fp/gedf2.c:45 (discriminator 23)
80008ac4:	01d59663          	bne	a1,t4,80008ad0 <__gedf2+0x48>
/home/hqfang/workspace/software/riscv-gnu-toolchain/riscv-gcc/libgcc/soft-fp/gedf2.c:45 (discriminator 24)
80008ac8:	00c76eb3          	or	t4,a4,a2
80008acc:	fe0e9ae3          	bnez	t4,80008ac0 <__gedf2+0x38>
/home/hqfang/workspace/software/riscv-gnu-toolchain/riscv-gcc/libgcc/soft-fp/gedf2.c:45 (discriminator 62)
80008ad0:	04081c63          	bnez	a6,80008b28 <__gedf2+0xa0>
/home/hqfang/workspace/software/riscv-gnu-toolchain/riscv-gcc/libgcc/soft-fp/gedf2.c:45 (discriminator 63)
80008ad4:	00f8e7b3          	or	a5,a7,a5
80008ad8:	0017b793          	seqz	a5,a5
80008adc:	e199                	bnez	a1,80008ae2 <__gedf2+0x5a>
/home/hqfang/workspace/software/riscv-gnu-toolchain/riscv-gcc/libgcc/soft-fp/gedf2.c:45 (discriminator 69)
80008ade:	8e59                	or	a2,a2,a4
80008ae0:	ce0d                	beqz	a2,80008b1a <__gedf2+0x92>
/home/hqfang/workspace/software/riscv-gnu-toolchain/riscv-gcc/libgcc/soft-fp/gedf2.c:45
80008ae2:	eb81                	bnez	a5,80008af2 <__gedf2+0x6a>
80008ae4:	00d51463          	bne	a0,a3,80008aec <__gedf2+0x64>
/home/hqfang/workspace/software/riscv-gnu-toolchain/riscv-gcc/libgcc/soft-fp/gedf2.c:45 (discriminator 95)
80008ae8:	0105d963          	bge	a1,a6,80008afa <__gedf2+0x72>
/home/hqfang/workspace/software/riscv-gnu-toolchain/riscv-gcc/libgcc/soft-fp/gedf2.c:45 (discriminator 119)
80008aec:	c50d                	beqz	a0,80008b16 <__gedf2+0x8e>
/home/hqfang/workspace/software/riscv-gnu-toolchain/riscv-gcc/libgcc/soft-fp/gedf2.c:45
80008aee:	557d                	li	a0,-1
80008af0:	8082                	ret
/home/hqfang/workspace/software/riscv-gnu-toolchain/riscv-gcc/libgcc/soft-fp/gedf2.c:45 (discriminator 80)
80008af2:	557d                	li	a0,-1
80008af4:	c691                	beqz	a3,80008b00 <__gedf2+0x78>
/home/hqfang/workspace/software/riscv-gnu-toolchain/riscv-gcc/libgcc/soft-fp/gedf2.c:45
80008af6:	8536                	mv	a0,a3
80008af8:	8082                	ret
/home/hqfang/workspace/software/riscv-gnu-toolchain/riscv-gcc/libgcc/soft-fp/gedf2.c:45 (discriminator 102)
80008afa:	00b85463          	bge	a6,a1,80008b02 <__gedf2+0x7a>
/home/hqfang/workspace/software/riscv-gnu-toolchain/riscv-gcc/libgcc/soft-fp/gedf2.c:45 (discriminator 130)
80008afe:	d965                	beqz	a0,80008aee <__gedf2+0x66>
/home/hqfang/workspace/software/riscv-gnu-toolchain/riscv-gcc/libgcc/soft-fp/gedf2.c:49
80008b00:	8082                	ret
/home/hqfang/workspace/software/riscv-gnu-toolchain/riscv-gcc/libgcc/soft-fp/gedf2.c:45 (discriminator 109)
80008b02:	ff1765e3          	bltu	a4,a7,80008aec <__gedf2+0x64>
/home/hqfang/workspace/software/riscv-gnu-toolchain/riscv-gcc/libgcc/soft-fp/gedf2.c:45 (discriminator 116)
80008b06:	00e89c63          	bne	a7,a4,80008b1e <__gedf2+0x96>
/home/hqfang/workspace/software/riscv-gnu-toolchain/riscv-gcc/libgcc/soft-fp/gedf2.c:45 (discriminator 117)
80008b0a:	fe6e61e3          	bltu	t3,t1,80008aec <__gedf2+0x64>
/home/hqfang/workspace/software/riscv-gnu-toolchain/riscv-gcc/libgcc/soft-fp/gedf2.c:45 (discriminator 128)
80008b0e:	ffc368e3          	bltu	t1,t3,80008afe <__gedf2+0x76>
/home/hqfang/workspace/software/riscv-gnu-toolchain/riscv-gcc/libgcc/soft-fp/gedf2.c:45
80008b12:	4501                	li	a0,0
80008b14:	8082                	ret
80008b16:	4505                	li	a0,1
80008b18:	8082                	ret
80008b1a:	ffe5                	bnez	a5,80008b12 <__gedf2+0x8a>
80008b1c:	bfc1                	j	80008aec <__gedf2+0x64>
80008b1e:	fee8e0e3          	bltu	a7,a4,80008afe <__gedf2+0x76>
80008b22:	bfc5                	j	80008b12 <__gedf2+0x8a>
80008b24:	fb0582e3          	beq	a1,a6,80008ac8 <__gedf2+0x40>
80008b28:	fdd5                	bnez	a1,80008ae4 <__gedf2+0x5c>
80008b2a:	4781                	li	a5,0
80008b2c:	bf4d                	j	80008ade <__gedf2+0x56>

80008b2e <__ledf2>:
__ledf2():
/home/hqfang/workspace/software/riscv-gnu-toolchain/riscv-gcc/libgcc/soft-fp/ledf2.c:43
80008b2e:	00100737          	lui	a4,0x100
80008b32:	177d                	addi	a4,a4,-1
80008b34:	0145d813          	srli	a6,a1,0x14
80008b38:	00b778b3          	and	a7,a4,a1
/home/hqfang/workspace/software/riscv-gnu-toolchain/riscv-gcc/libgcc/soft-fp/ledf2.c:36
80008b3c:	87aa                	mv	a5,a0
80008b3e:	832a                	mv	t1,a0
/home/hqfang/workspace/software/riscv-gnu-toolchain/riscv-gcc/libgcc/soft-fp/ledf2.c:43
80008b40:	7ff87813          	andi	a6,a6,2047
80008b44:	01f5d513          	srli	a0,a1,0x1f
/home/hqfang/workspace/software/riscv-gnu-toolchain/riscv-gcc/libgcc/soft-fp/ledf2.c:45
80008b48:	7ff00e93          	li	t4,2047
/home/hqfang/workspace/software/riscv-gnu-toolchain/riscv-gcc/libgcc/soft-fp/ledf2.c:44
80008b4c:	0146d593          	srli	a1,a3,0x14
80008b50:	8f75                	and	a4,a4,a3
80008b52:	8e32                	mv	t3,a2
80008b54:	7ff5f593          	andi	a1,a1,2047
80008b58:	82fd                	srli	a3,a3,0x1f
/home/hqfang/workspace/software/riscv-gnu-toolchain/riscv-gcc/libgcc/soft-fp/ledf2.c:45
80008b5a:	01d81863          	bne	a6,t4,80008b6a <__ledf2+0x3c>
/home/hqfang/workspace/software/riscv-gnu-toolchain/riscv-gcc/libgcc/soft-fp/ledf2.c:45 (discriminator 20)
80008b5e:	00f8eeb3          	or	t4,a7,a5
80008b62:	060e8463          	beqz	t4,80008bca <__ledf2+0x9c>
/home/hqfang/workspace/software/riscv-gnu-toolchain/riscv-gcc/libgcc/soft-fp/ledf2.c:45
80008b66:	4509                	li	a0,2
80008b68:	8082                	ret
/home/hqfang/workspace/software/riscv-gnu-toolchain/riscv-gcc/libgcc/soft-fp/ledf2.c:45 (discriminator 23)
80008b6a:	01d59663          	bne	a1,t4,80008b76 <__ledf2+0x48>
/home/hqfang/workspace/software/riscv-gnu-toolchain/riscv-gcc/libgcc/soft-fp/ledf2.c:45 (discriminator 24)
80008b6e:	00c76eb3          	or	t4,a4,a2
80008b72:	fe0e9ae3          	bnez	t4,80008b66 <__ledf2+0x38>
/home/hqfang/workspace/software/riscv-gnu-toolchain/riscv-gcc/libgcc/soft-fp/ledf2.c:45 (discriminator 62)
80008b76:	04081c63          	bnez	a6,80008bce <__ledf2+0xa0>
/home/hqfang/workspace/software/riscv-gnu-toolchain/riscv-gcc/libgcc/soft-fp/ledf2.c:45 (discriminator 63)
80008b7a:	00f8e7b3          	or	a5,a7,a5
80008b7e:	0017b793          	seqz	a5,a5
80008b82:	e199                	bnez	a1,80008b88 <__ledf2+0x5a>
/home/hqfang/workspace/software/riscv-gnu-toolchain/riscv-gcc/libgcc/soft-fp/ledf2.c:45 (discriminator 69)
80008b84:	8e59                	or	a2,a2,a4
80008b86:	ce0d                	beqz	a2,80008bc0 <__ledf2+0x92>
/home/hqfang/workspace/software/riscv-gnu-toolchain/riscv-gcc/libgcc/soft-fp/ledf2.c:45
80008b88:	eb81                	bnez	a5,80008b98 <__ledf2+0x6a>
80008b8a:	00d51463          	bne	a0,a3,80008b92 <__ledf2+0x64>
/home/hqfang/workspace/software/riscv-gnu-toolchain/riscv-gcc/libgcc/soft-fp/ledf2.c:45 (discriminator 95)
80008b8e:	0105d963          	bge	a1,a6,80008ba0 <__ledf2+0x72>
/home/hqfang/workspace/software/riscv-gnu-toolchain/riscv-gcc/libgcc/soft-fp/ledf2.c:45 (discriminator 119)
80008b92:	c50d                	beqz	a0,80008bbc <__ledf2+0x8e>
/home/hqfang/workspace/software/riscv-gnu-toolchain/riscv-gcc/libgcc/soft-fp/ledf2.c:45
80008b94:	557d                	li	a0,-1
80008b96:	8082                	ret
/home/hqfang/workspace/software/riscv-gnu-toolchain/riscv-gcc/libgcc/soft-fp/ledf2.c:45 (discriminator 80)
80008b98:	557d                	li	a0,-1
80008b9a:	c691                	beqz	a3,80008ba6 <__ledf2+0x78>
/home/hqfang/workspace/software/riscv-gnu-toolchain/riscv-gcc/libgcc/soft-fp/ledf2.c:45
80008b9c:	8536                	mv	a0,a3
80008b9e:	8082                	ret
/home/hqfang/workspace/software/riscv-gnu-toolchain/riscv-gcc/libgcc/soft-fp/ledf2.c:45 (discriminator 102)
80008ba0:	00b85463          	bge	a6,a1,80008ba8 <__ledf2+0x7a>
/home/hqfang/workspace/software/riscv-gnu-toolchain/riscv-gcc/libgcc/soft-fp/ledf2.c:45 (discriminator 130)
80008ba4:	d965                	beqz	a0,80008b94 <__ledf2+0x66>
/home/hqfang/workspace/software/riscv-gnu-toolchain/riscv-gcc/libgcc/soft-fp/ledf2.c:49
80008ba6:	8082                	ret
/home/hqfang/workspace/software/riscv-gnu-toolchain/riscv-gcc/libgcc/soft-fp/ledf2.c:45 (discriminator 109)
80008ba8:	ff1765e3          	bltu	a4,a7,80008b92 <__ledf2+0x64>
/home/hqfang/workspace/software/riscv-gnu-toolchain/riscv-gcc/libgcc/soft-fp/ledf2.c:45 (discriminator 116)
80008bac:	00e89c63          	bne	a7,a4,80008bc4 <__ledf2+0x96>
/home/hqfang/workspace/software/riscv-gnu-toolchain/riscv-gcc/libgcc/soft-fp/ledf2.c:45 (discriminator 117)
80008bb0:	fe6e61e3          	bltu	t3,t1,80008b92 <__ledf2+0x64>
/home/hqfang/workspace/software/riscv-gnu-toolchain/riscv-gcc/libgcc/soft-fp/ledf2.c:45 (discriminator 128)
80008bb4:	ffc368e3          	bltu	t1,t3,80008ba4 <__ledf2+0x76>
/home/hqfang/workspace/software/riscv-gnu-toolchain/riscv-gcc/libgcc/soft-fp/ledf2.c:45
80008bb8:	4501                	li	a0,0
80008bba:	8082                	ret
80008bbc:	4505                	li	a0,1
80008bbe:	8082                	ret
80008bc0:	ffe5                	bnez	a5,80008bb8 <__ledf2+0x8a>
80008bc2:	bfc1                	j	80008b92 <__ledf2+0x64>
80008bc4:	fee8e0e3          	bltu	a7,a4,80008ba4 <__ledf2+0x76>
80008bc8:	bfc5                	j	80008bb8 <__ledf2+0x8a>
80008bca:	fb0582e3          	beq	a1,a6,80008b6e <__ledf2+0x40>
80008bce:	fdd5                	bnez	a1,80008b8a <__ledf2+0x5c>
80008bd0:	4781                	li	a5,0
80008bd2:	bf4d                	j	80008b84 <__ledf2+0x56>

80008bd4 <__muldf3>:
__muldf3():
/home/hqfang/workspace/software/riscv-gnu-toolchain/riscv-gcc/libgcc/soft-fp/muldf3.c:36
80008bd4:	7179                	addi	sp,sp,-48
80008bd6:	ce4e                	sw	s3,28(sp)
/home/hqfang/workspace/software/riscv-gnu-toolchain/riscv-gcc/libgcc/soft-fp/muldf3.c:44
80008bd8:	0145d993          	srli	s3,a1,0x14
/home/hqfang/workspace/software/riscv-gnu-toolchain/riscv-gcc/libgcc/soft-fp/muldf3.c:36
80008bdc:	d422                	sw	s0,40(sp)
80008bde:	d226                	sw	s1,36(sp)
80008be0:	cc52                	sw	s4,24(sp)
80008be2:	ca56                	sw	s5,20(sp)
80008be4:	c65e                	sw	s7,12(sp)
/home/hqfang/workspace/software/riscv-gnu-toolchain/riscv-gcc/libgcc/soft-fp/muldf3.c:44
80008be6:	00c59493          	slli	s1,a1,0xc
/home/hqfang/workspace/software/riscv-gnu-toolchain/riscv-gcc/libgcc/soft-fp/muldf3.c:36
80008bea:	d606                	sw	ra,44(sp)
80008bec:	d04a                	sw	s2,32(sp)
80008bee:	c85a                	sw	s6,16(sp)
/home/hqfang/workspace/software/riscv-gnu-toolchain/riscv-gcc/libgcc/soft-fp/muldf3.c:44
80008bf0:	7ff9f993          	andi	s3,s3,2047
/home/hqfang/workspace/software/riscv-gnu-toolchain/riscv-gcc/libgcc/soft-fp/muldf3.c:36
80008bf4:	842a                	mv	s0,a0
80008bf6:	8bb2                	mv	s7,a2
80008bf8:	8ab6                	mv	s5,a3
/home/hqfang/workspace/software/riscv-gnu-toolchain/riscv-gcc/libgcc/soft-fp/muldf3.c:44
80008bfa:	80b1                	srli	s1,s1,0xc
80008bfc:	01f5da13          	srli	s4,a1,0x1f
80008c00:	08098163          	beqz	s3,80008c82 <__muldf3+0xae>
80008c04:	7ff00793          	li	a5,2047
80008c08:	0cf98563          	beq	s3,a5,80008cd2 <__muldf3+0xfe>
/home/hqfang/workspace/software/riscv-gnu-toolchain/riscv-gcc/libgcc/soft-fp/muldf3.c:44 (discriminator 1)
80008c0c:	01d55793          	srli	a5,a0,0x1d
80008c10:	048e                	slli	s1,s1,0x3
80008c12:	8cdd                	or	s1,s1,a5
80008c14:	008007b7          	lui	a5,0x800
80008c18:	8cdd                	or	s1,s1,a5
80008c1a:	00351913          	slli	s2,a0,0x3
80008c1e:	c0198993          	addi	s3,s3,-1023
/home/hqfang/workspace/software/riscv-gnu-toolchain/riscv-gcc/libgcc/soft-fp/muldf3.c:44 (discriminator 41)
80008c22:	4b01                	li	s6,0
/home/hqfang/workspace/software/riscv-gnu-toolchain/riscv-gcc/libgcc/soft-fp/muldf3.c:45 (discriminator 8)
80008c24:	014ad513          	srli	a0,s5,0x14
80008c28:	00ca9413          	slli	s0,s5,0xc
80008c2c:	7ff57513          	andi	a0,a0,2047
80008c30:	8031                	srli	s0,s0,0xc
80008c32:	01fada93          	srli	s5,s5,0x1f
80008c36:	c161                	beqz	a0,80008cf6 <__muldf3+0x122>
/home/hqfang/workspace/software/riscv-gnu-toolchain/riscv-gcc/libgcc/soft-fp/muldf3.c:45
80008c38:	7ff00793          	li	a5,2047
80008c3c:	10f50563          	beq	a0,a5,80008d46 <__muldf3+0x172>
/home/hqfang/workspace/software/riscv-gnu-toolchain/riscv-gcc/libgcc/soft-fp/muldf3.c:45 (discriminator 1)
80008c40:	01dbd793          	srli	a5,s7,0x1d
80008c44:	040e                	slli	s0,s0,0x3
80008c46:	8c5d                	or	s0,s0,a5
80008c48:	008007b7          	lui	a5,0x800
80008c4c:	8c5d                	or	s0,s0,a5
80008c4e:	c0150513          	addi	a0,a0,-1023 # 7fc01 <__stack_size+0x7f401>
80008c52:	003b9793          	slli	a5,s7,0x3
/home/hqfang/workspace/software/riscv-gnu-toolchain/riscv-gcc/libgcc/soft-fp/muldf3.c:45 (discriminator 41)
80008c56:	4701                	li	a4,0
/home/hqfang/workspace/software/riscv-gnu-toolchain/riscv-gcc/libgcc/soft-fp/muldf3.c:46 (discriminator 8)
80008c58:	002b1693          	slli	a3,s6,0x2
80008c5c:	8ed9                	or	a3,a3,a4
80008c5e:	954e                	add	a0,a0,s3
80008c60:	16fd                	addi	a3,a3,-1
80008c62:	4839                	li	a6,14
80008c64:	015a4633          	xor	a2,s4,s5
80008c68:	00150593          	addi	a1,a0,1
80008c6c:	0ed86e63          	bltu	a6,a3,80008d68 <__muldf3+0x194>
80008c70:	00002517          	auipc	a0,0x2
80008c74:	a6850513          	addi	a0,a0,-1432 # 8000a6d8 <_ctype_+0x140>
80008c78:	068a                	slli	a3,a3,0x2
80008c7a:	96aa                	add	a3,a3,a0
80008c7c:	4294                	lw	a3,0(a3)
80008c7e:	96aa                	add	a3,a3,a0
80008c80:	8682                	jr	a3
/home/hqfang/workspace/software/riscv-gnu-toolchain/riscv-gcc/libgcc/soft-fp/muldf3.c:44 (discriminator 2)
80008c82:	00a4e933          	or	s2,s1,a0
80008c86:	04090f63          	beqz	s2,80008ce4 <__muldf3+0x110>
/home/hqfang/workspace/software/riscv-gnu-toolchain/riscv-gcc/libgcc/soft-fp/muldf3.c:44 (discriminator 13)
80008c8a:	c88d                	beqz	s1,80008cbc <__muldf3+0xe8>
/home/hqfang/workspace/software/riscv-gnu-toolchain/riscv-gcc/libgcc/soft-fp/muldf3.c:44 (discriminator 17)
80008c8c:	8526                	mv	a0,s1
80008c8e:	f39fb0ef          	jal	ra,80004bc6 <__clzsi2>
/home/hqfang/workspace/software/riscv-gnu-toolchain/riscv-gcc/libgcc/soft-fp/muldf3.c:44 (discriminator 31)
80008c92:	ff550713          	addi	a4,a0,-11
80008c96:	47f1                	li	a5,28
80008c98:	02e7c763          	blt	a5,a4,80008cc6 <__muldf3+0xf2>
/home/hqfang/workspace/software/riscv-gnu-toolchain/riscv-gcc/libgcc/soft-fp/muldf3.c:44 (discriminator 32)
80008c9c:	47f5                	li	a5,29
80008c9e:	ff850913          	addi	s2,a0,-8
80008ca2:	8f99                	sub	a5,a5,a4
80008ca4:	012494b3          	sll	s1,s1,s2
80008ca8:	00f457b3          	srl	a5,s0,a5
80008cac:	8cdd                	or	s1,s1,a5
80008cae:	01241933          	sll	s2,s0,s2
/home/hqfang/workspace/software/riscv-gnu-toolchain/riscv-gcc/libgcc/soft-fp/muldf3.c:44 (discriminator 41)
80008cb2:	c0d00993          	li	s3,-1011
80008cb6:	40a989b3          	sub	s3,s3,a0
80008cba:	b7a5                	j	80008c22 <__muldf3+0x4e>
/home/hqfang/workspace/software/riscv-gnu-toolchain/riscv-gcc/libgcc/soft-fp/muldf3.c:44 (discriminator 24)
80008cbc:	f0bfb0ef          	jal	ra,80004bc6 <__clzsi2>
80008cc0:	02050513          	addi	a0,a0,32
80008cc4:	b7f9                	j	80008c92 <__muldf3+0xbe>
/home/hqfang/workspace/software/riscv-gnu-toolchain/riscv-gcc/libgcc/soft-fp/muldf3.c:44 (discriminator 33)
80008cc6:	fd850493          	addi	s1,a0,-40
80008cca:	009414b3          	sll	s1,s0,s1
80008cce:	4901                	li	s2,0
80008cd0:	b7cd                	j	80008cb2 <__muldf3+0xde>
/home/hqfang/workspace/software/riscv-gnu-toolchain/riscv-gcc/libgcc/soft-fp/muldf3.c:44 (discriminator 3)
80008cd2:	00a4e933          	or	s2,s1,a0
80008cd6:	00090b63          	beqz	s2,80008cec <__muldf3+0x118>
/home/hqfang/workspace/software/riscv-gnu-toolchain/riscv-gcc/libgcc/soft-fp/muldf3.c:44
80008cda:	892a                	mv	s2,a0
80008cdc:	7ff00993          	li	s3,2047
80008ce0:	4b0d                	li	s6,3
80008ce2:	b789                	j	80008c24 <__muldf3+0x50>
80008ce4:	4481                	li	s1,0
80008ce6:	4981                	li	s3,0
80008ce8:	4b05                	li	s6,1
80008cea:	bf2d                	j	80008c24 <__muldf3+0x50>
80008cec:	4481                	li	s1,0
80008cee:	7ff00993          	li	s3,2047
80008cf2:	4b09                	li	s6,2
80008cf4:	bf05                	j	80008c24 <__muldf3+0x50>
/home/hqfang/workspace/software/riscv-gnu-toolchain/riscv-gcc/libgcc/soft-fp/muldf3.c:45 (discriminator 2)
80008cf6:	017467b3          	or	a5,s0,s7
80008cfa:	cfb1                	beqz	a5,80008d56 <__muldf3+0x182>
/home/hqfang/workspace/software/riscv-gnu-toolchain/riscv-gcc/libgcc/soft-fp/muldf3.c:45 (discriminator 13)
80008cfc:	c80d                	beqz	s0,80008d2e <__muldf3+0x15a>
/home/hqfang/workspace/software/riscv-gnu-toolchain/riscv-gcc/libgcc/soft-fp/muldf3.c:45 (discriminator 17)
80008cfe:	8522                	mv	a0,s0
80008d00:	ec7fb0ef          	jal	ra,80004bc6 <__clzsi2>
/home/hqfang/workspace/software/riscv-gnu-toolchain/riscv-gcc/libgcc/soft-fp/muldf3.c:45 (discriminator 31)
80008d04:	ff550693          	addi	a3,a0,-11
80008d08:	47f1                	li	a5,28
80008d0a:	02d7c863          	blt	a5,a3,80008d3a <__muldf3+0x166>
/home/hqfang/workspace/software/riscv-gnu-toolchain/riscv-gcc/libgcc/soft-fp/muldf3.c:45 (discriminator 32)
80008d0e:	4775                	li	a4,29
80008d10:	ff850793          	addi	a5,a0,-8
80008d14:	8f15                	sub	a4,a4,a3
80008d16:	00f41433          	sll	s0,s0,a5
80008d1a:	00ebd733          	srl	a4,s7,a4
80008d1e:	8c59                	or	s0,s0,a4
80008d20:	00fb97b3          	sll	a5,s7,a5
/home/hqfang/workspace/software/riscv-gnu-toolchain/riscv-gcc/libgcc/soft-fp/muldf3.c:45 (discriminator 41)
80008d24:	c0d00713          	li	a4,-1011
80008d28:	40a70533          	sub	a0,a4,a0
80008d2c:	b72d                	j	80008c56 <__muldf3+0x82>
/home/hqfang/workspace/software/riscv-gnu-toolchain/riscv-gcc/libgcc/soft-fp/muldf3.c:45 (discriminator 24)
80008d2e:	855e                	mv	a0,s7
80008d30:	e97fb0ef          	jal	ra,80004bc6 <__clzsi2>
80008d34:	02050513          	addi	a0,a0,32
80008d38:	b7f1                	j	80008d04 <__muldf3+0x130>
/home/hqfang/workspace/software/riscv-gnu-toolchain/riscv-gcc/libgcc/soft-fp/muldf3.c:45 (discriminator 33)
80008d3a:	fd850413          	addi	s0,a0,-40
80008d3e:	008b9433          	sll	s0,s7,s0
80008d42:	4781                	li	a5,0
80008d44:	b7c5                	j	80008d24 <__muldf3+0x150>
/home/hqfang/workspace/software/riscv-gnu-toolchain/riscv-gcc/libgcc/soft-fp/muldf3.c:45 (discriminator 3)
80008d46:	017467b3          	or	a5,s0,s7
80008d4a:	cb91                	beqz	a5,80008d5e <__muldf3+0x18a>
/home/hqfang/workspace/software/riscv-gnu-toolchain/riscv-gcc/libgcc/soft-fp/muldf3.c:45
80008d4c:	87de                	mv	a5,s7
80008d4e:	7ff00513          	li	a0,2047
80008d52:	470d                	li	a4,3
80008d54:	b711                	j	80008c58 <__muldf3+0x84>
80008d56:	4401                	li	s0,0
80008d58:	4501                	li	a0,0
80008d5a:	4705                	li	a4,1
80008d5c:	bdf5                	j	80008c58 <__muldf3+0x84>
80008d5e:	4401                	li	s0,0
80008d60:	7ff00513          	li	a0,2047
80008d64:	4709                	li	a4,2
80008d66:	bdcd                	j	80008c58 <__muldf3+0x84>
/home/hqfang/workspace/software/riscv-gnu-toolchain/riscv-gcc/libgcc/soft-fp/muldf3.c:46 (discriminator 2)
80008d68:	6f41                	lui	t5,0x10
80008d6a:	ffff0e93          	addi	t4,t5,-1 # ffff <__stack_size+0xf7ff>
80008d6e:	01095713          	srli	a4,s2,0x10
80008d72:	0107d893          	srli	a7,a5,0x10
80008d76:	01d97933          	and	s2,s2,t4
80008d7a:	01d7f7b3          	and	a5,a5,t4
80008d7e:	03288833          	mul	a6,a7,s2
80008d82:	02f906b3          	mul	a3,s2,a5
80008d86:	02f70fb3          	mul	t6,a4,a5
80008d8a:	01f80333          	add	t1,a6,t6
80008d8e:	0106d813          	srli	a6,a3,0x10
80008d92:	981a                	add	a6,a6,t1
80008d94:	03170e33          	mul	t3,a4,a7
80008d98:	01f87363          	bgeu	a6,t6,80008d9e <__muldf3+0x1ca>
/home/hqfang/workspace/software/riscv-gnu-toolchain/riscv-gcc/libgcc/soft-fp/muldf3.c:46 (discriminator 9)
80008d9c:	9e7a                	add	t3,t3,t5
/home/hqfang/workspace/software/riscv-gnu-toolchain/riscv-gcc/libgcc/soft-fp/muldf3.c:46 (discriminator 11)
80008d9e:	01085393          	srli	t2,a6,0x10
80008da2:	01d87833          	and	a6,a6,t4
80008da6:	01d6f6b3          	and	a3,a3,t4
80008daa:	01045f13          	srli	t5,s0,0x10
80008dae:	01d472b3          	and	t0,s0,t4
80008db2:	0842                	slli	a6,a6,0x10
80008db4:	9836                	add	a6,a6,a3
80008db6:	02570eb3          	mul	t4,a4,t0
80008dba:	025906b3          	mul	a3,s2,t0
80008dbe:	032f0933          	mul	s2,t5,s2
80008dc2:	01d90333          	add	t1,s2,t4
80008dc6:	0106d913          	srli	s2,a3,0x10
80008dca:	991a                	add	s2,s2,t1
80008dcc:	03e70733          	mul	a4,a4,t5
80008dd0:	01d97463          	bgeu	s2,t4,80008dd8 <__muldf3+0x204>
/home/hqfang/workspace/software/riscv-gnu-toolchain/riscv-gcc/libgcc/soft-fp/muldf3.c:46 (discriminator 12)
80008dd4:	6341                	lui	t1,0x10
80008dd6:	971a                	add	a4,a4,t1
/home/hqfang/workspace/software/riscv-gnu-toolchain/riscv-gcc/libgcc/soft-fp/muldf3.c:46 (discriminator 14)
80008dd8:	01095e93          	srli	t4,s2,0x10
80008ddc:	69c1                	lui	s3,0x10
80008dde:	9eba                	add	t4,t4,a4
80008de0:	fff98713          	addi	a4,s3,-1 # ffff <__stack_size+0xf7ff>
80008de4:	00e97933          	and	s2,s2,a4
80008de8:	8ef9                	and	a3,a3,a4
80008dea:	0104d413          	srli	s0,s1,0x10
80008dee:	0942                	slli	s2,s2,0x10
80008df0:	8cf9                	and	s1,s1,a4
80008df2:	02978733          	mul	a4,a5,s1
80008df6:	9936                	add	s2,s2,a3
80008df8:	93ca                	add	t2,t2,s2
80008dfa:	02f40333          	mul	t1,s0,a5
80008dfe:	029886b3          	mul	a3,a7,s1
80008e02:	028887b3          	mul	a5,a7,s0
80008e06:	006688b3          	add	a7,a3,t1
80008e0a:	01075693          	srli	a3,a4,0x10
80008e0e:	96c6                	add	a3,a3,a7
80008e10:	0066f363          	bgeu	a3,t1,80008e16 <__muldf3+0x242>
/home/hqfang/workspace/software/riscv-gnu-toolchain/riscv-gcc/libgcc/soft-fp/muldf3.c:46 (discriminator 15)
80008e14:	97ce                	add	a5,a5,s3
/home/hqfang/workspace/software/riscv-gnu-toolchain/riscv-gcc/libgcc/soft-fp/muldf3.c:46 (discriminator 17)
80008e16:	0106d893          	srli	a7,a3,0x10
80008e1a:	69c1                	lui	s3,0x10
80008e1c:	00f88fb3          	add	t6,a7,a5
80008e20:	fff98793          	addi	a5,s3,-1 # ffff <__stack_size+0xf7ff>
80008e24:	029288b3          	mul	a7,t0,s1
80008e28:	8efd                	and	a3,a3,a5
80008e2a:	8f7d                	and	a4,a4,a5
80008e2c:	06c2                	slli	a3,a3,0x10
80008e2e:	96ba                	add	a3,a3,a4
80008e30:	025407b3          	mul	a5,s0,t0
80008e34:	029f04b3          	mul	s1,t5,s1
80008e38:	028f0333          	mul	t1,t5,s0
80008e3c:	94be                	add	s1,s1,a5
80008e3e:	0108d413          	srli	s0,a7,0x10
80008e42:	94a2                	add	s1,s1,s0
80008e44:	00f4f363          	bgeu	s1,a5,80008e4a <__muldf3+0x276>
/home/hqfang/workspace/software/riscv-gnu-toolchain/riscv-gcc/libgcc/soft-fp/muldf3.c:46 (discriminator 18)
80008e48:	934e                	add	t1,t1,s3
/home/hqfang/workspace/software/riscv-gnu-toolchain/riscv-gcc/libgcc/soft-fp/muldf3.c:46 (discriminator 20)
80008e4a:	67c1                	lui	a5,0x10
80008e4c:	17fd                	addi	a5,a5,-1
80008e4e:	00f4f733          	and	a4,s1,a5
80008e52:	00f8f8b3          	and	a7,a7,a5
80008e56:	0742                	slli	a4,a4,0x10
80008e58:	9e1e                	add	t3,t3,t2
80008e5a:	9746                	add	a4,a4,a7
80008e5c:	012e3933          	sltu	s2,t3,s2
80008e60:	9776                	add	a4,a4,t4
80008e62:	01270433          	add	s0,a4,s2
80008e66:	9e36                	add	t3,t3,a3
80008e68:	00de36b3          	sltu	a3,t3,a3
80008e6c:	01f408b3          	add	a7,s0,t6
80008e70:	00d88f33          	add	t5,a7,a3
80008e74:	01d73733          	sltu	a4,a4,t4
80008e78:	01243433          	sltu	s0,s0,s2
80008e7c:	8c59                	or	s0,s0,a4
80008e7e:	80c1                	srli	s1,s1,0x10
80008e80:	01f8b8b3          	sltu	a7,a7,t6
80008e84:	00df36b3          	sltu	a3,t5,a3
80008e88:	9426                	add	s0,s0,s1
80008e8a:	00d8e6b3          	or	a3,a7,a3
80008e8e:	9436                	add	s0,s0,a3
80008e90:	941a                	add	s0,s0,t1
80008e92:	017f5793          	srli	a5,t5,0x17
80008e96:	0426                	slli	s0,s0,0x9
80008e98:	8c5d                	or	s0,s0,a5
80008e9a:	009e1793          	slli	a5,t3,0x9
80008e9e:	0107e7b3          	or	a5,a5,a6
80008ea2:	00f037b3          	snez	a5,a5
80008ea6:	017e5e13          	srli	t3,t3,0x17
80008eaa:	009f1713          	slli	a4,t5,0x9
80008eae:	01c7e7b3          	or	a5,a5,t3
80008eb2:	8fd9                	or	a5,a5,a4
80008eb4:	01000737          	lui	a4,0x1000
80008eb8:	8f61                	and	a4,a4,s0
80008eba:	cb4d                	beqz	a4,80008f6c <__muldf3+0x398>
/home/hqfang/workspace/software/riscv-gnu-toolchain/riscv-gcc/libgcc/soft-fp/muldf3.c:46 (discriminator 38)
80008ebc:	0017d713          	srli	a4,a5,0x1
80008ec0:	8b85                	andi	a5,a5,1
80008ec2:	8fd9                	or	a5,a5,a4
80008ec4:	01f41713          	slli	a4,s0,0x1f
80008ec8:	8fd9                	or	a5,a5,a4
80008eca:	8005                	srli	s0,s0,0x1
/home/hqfang/workspace/software/riscv-gnu-toolchain/riscv-gcc/libgcc/soft-fp/muldf3.c:47 (discriminator 2)
80008ecc:	3ff58693          	addi	a3,a1,1023
80008ed0:	0ad05063          	blez	a3,80008f70 <__muldf3+0x39c>
/home/hqfang/workspace/software/riscv-gnu-toolchain/riscv-gcc/libgcc/soft-fp/muldf3.c:47 (discriminator 6)
80008ed4:	0077f713          	andi	a4,a5,7
80008ed8:	cf01                	beqz	a4,80008ef0 <__muldf3+0x31c>
/home/hqfang/workspace/software/riscv-gnu-toolchain/riscv-gcc/libgcc/soft-fp/muldf3.c:47 (discriminator 8)
80008eda:	00f7f713          	andi	a4,a5,15
80008ede:	4511                	li	a0,4
80008ee0:	00a70863          	beq	a4,a0,80008ef0 <__muldf3+0x31c>
/home/hqfang/workspace/software/riscv-gnu-toolchain/riscv-gcc/libgcc/soft-fp/muldf3.c:47 (discriminator 10)
80008ee4:	00478713          	addi	a4,a5,4 # 10004 <__stack_size+0xf804>
80008ee8:	00f737b3          	sltu	a5,a4,a5
80008eec:	943e                	add	s0,s0,a5
80008eee:	87ba                	mv	a5,a4
/home/hqfang/workspace/software/riscv-gnu-toolchain/riscv-gcc/libgcc/soft-fp/muldf3.c:47 (discriminator 9)
80008ef0:	01000737          	lui	a4,0x1000
80008ef4:	8f61                	and	a4,a4,s0
80008ef6:	c719                	beqz	a4,80008f04 <__muldf3+0x330>
/home/hqfang/workspace/software/riscv-gnu-toolchain/riscv-gcc/libgcc/soft-fp/muldf3.c:47 (discriminator 24)
80008ef8:	ff000737          	lui	a4,0xff000
80008efc:	177d                	addi	a4,a4,-1
80008efe:	8c79                	and	s0,s0,a4
80008f00:	40058693          	addi	a3,a1,1024
/home/hqfang/workspace/software/riscv-gnu-toolchain/riscv-gcc/libgcc/soft-fp/muldf3.c:47 (discriminator 26)
80008f04:	7fe00713          	li	a4,2046
80008f08:	0ed74e63          	blt	a4,a3,80009004 <__muldf3+0x430>
/home/hqfang/workspace/software/riscv-gnu-toolchain/riscv-gcc/libgcc/soft-fp/muldf3.c:47
80008f0c:	0037d713          	srli	a4,a5,0x3
80008f10:	01d41793          	slli	a5,s0,0x1d
80008f14:	8fd9                	or	a5,a5,a4
80008f16:	800d                	srli	s0,s0,0x3
/home/hqfang/workspace/software/riscv-gnu-toolchain/riscv-gcc/libgcc/soft-fp/muldf3.c:47 (discriminator 119)
80008f18:	01469713          	slli	a4,a3,0x14
80008f1c:	0432                	slli	s0,s0,0xc
80008f1e:	7ff006b7          	lui	a3,0x7ff00
80008f22:	8f75                	and	a4,a4,a3
80008f24:	8031                	srli	s0,s0,0xc
80008f26:	8c59                	or	s0,s0,a4
80008f28:	067e                	slli	a2,a2,0x1f
/home/hqfang/workspace/software/riscv-gnu-toolchain/riscv-gcc/libgcc/soft-fp/muldf3.c:51 (discriminator 119)
80008f2a:	50b2                	lw	ra,44(sp)
/home/hqfang/workspace/software/riscv-gnu-toolchain/riscv-gcc/libgcc/soft-fp/muldf3.c:47 (discriminator 119)
80008f2c:	00c46733          	or	a4,s0,a2
/home/hqfang/workspace/software/riscv-gnu-toolchain/riscv-gcc/libgcc/soft-fp/muldf3.c:51 (discriminator 119)
80008f30:	5422                	lw	s0,40(sp)
80008f32:	5492                	lw	s1,36(sp)
80008f34:	5902                	lw	s2,32(sp)
80008f36:	49f2                	lw	s3,28(sp)
80008f38:	4a62                	lw	s4,24(sp)
80008f3a:	4ad2                	lw	s5,20(sp)
80008f3c:	4b42                	lw	s6,16(sp)
80008f3e:	4bb2                	lw	s7,12(sp)
80008f40:	853e                	mv	a0,a5
80008f42:	85ba                	mv	a1,a4
80008f44:	6145                	addi	sp,sp,48
80008f46:	8082                	ret
/home/hqfang/workspace/software/riscv-gnu-toolchain/riscv-gcc/libgcc/soft-fp/muldf3.c:44 (discriminator 7)
80008f48:	8652                	mv	a2,s4
/home/hqfang/workspace/software/riscv-gnu-toolchain/riscv-gcc/libgcc/soft-fp/muldf3.c:46 (discriminator 7)
80008f4a:	8426                	mv	s0,s1
80008f4c:	87ca                	mv	a5,s2
80008f4e:	875a                	mv	a4,s6
/home/hqfang/workspace/software/riscv-gnu-toolchain/riscv-gcc/libgcc/soft-fp/muldf3.c:47 (discriminator 47)
80008f50:	4689                	li	a3,2
80008f52:	0ad70963          	beq	a4,a3,80009004 <__muldf3+0x430>
/home/hqfang/workspace/software/riscv-gnu-toolchain/riscv-gcc/libgcc/soft-fp/muldf3.c:47
80008f56:	468d                	li	a3,3
80008f58:	08d70f63          	beq	a4,a3,80008ff6 <__muldf3+0x422>
80008f5c:	4685                	li	a3,1
80008f5e:	f6d717e3          	bne	a4,a3,80008ecc <__muldf3+0x2f8>
80008f62:	4401                	li	s0,0
80008f64:	4781                	li	a5,0
80008f66:	a09d                	j	80008fcc <__muldf3+0x3f8>
/home/hqfang/workspace/software/riscv-gnu-toolchain/riscv-gcc/libgcc/soft-fp/muldf3.c:45 (discriminator 4)
80008f68:	8656                	mv	a2,s5
/home/hqfang/workspace/software/riscv-gnu-toolchain/riscv-gcc/libgcc/soft-fp/muldf3.c:46 (discriminator 4)
80008f6a:	b7dd                	j	80008f50 <__muldf3+0x37c>
/home/hqfang/workspace/software/riscv-gnu-toolchain/riscv-gcc/libgcc/soft-fp/muldf3.c:46
80008f6c:	85aa                	mv	a1,a0
80008f6e:	bfb9                	j	80008ecc <__muldf3+0x2f8>
/home/hqfang/workspace/software/riscv-gnu-toolchain/riscv-gcc/libgcc/soft-fp/muldf3.c:47 (discriminator 59)
80008f70:	4505                	li	a0,1
80008f72:	8d15                	sub	a0,a0,a3
80008f74:	03800713          	li	a4,56
80008f78:	fea745e3          	blt	a4,a0,80008f62 <__muldf3+0x38e>
/home/hqfang/workspace/software/riscv-gnu-toolchain/riscv-gcc/libgcc/soft-fp/muldf3.c:47 (discriminator 60)
80008f7c:	477d                	li	a4,31
80008f7e:	04a74963          	blt	a4,a0,80008fd0 <__muldf3+0x3fc>
/home/hqfang/workspace/software/riscv-gnu-toolchain/riscv-gcc/libgcc/soft-fp/muldf3.c:47 (discriminator 62)
80008f82:	41e58593          	addi	a1,a1,1054
80008f86:	00b41733          	sll	a4,s0,a1
80008f8a:	00a7d6b3          	srl	a3,a5,a0
80008f8e:	00b797b3          	sll	a5,a5,a1
80008f92:	8f55                	or	a4,a4,a3
80008f94:	00f037b3          	snez	a5,a5
80008f98:	8fd9                	or	a5,a5,a4
80008f9a:	00a45433          	srl	s0,s0,a0
/home/hqfang/workspace/software/riscv-gnu-toolchain/riscv-gcc/libgcc/soft-fp/muldf3.c:47 (discriminator 75)
80008f9e:	0077f713          	andi	a4,a5,7
80008fa2:	cf01                	beqz	a4,80008fba <__muldf3+0x3e6>
/home/hqfang/workspace/software/riscv-gnu-toolchain/riscv-gcc/libgcc/soft-fp/muldf3.c:47 (discriminator 76)
80008fa4:	00f7f713          	andi	a4,a5,15
80008fa8:	4691                	li	a3,4
80008faa:	00d70863          	beq	a4,a3,80008fba <__muldf3+0x3e6>
/home/hqfang/workspace/software/riscv-gnu-toolchain/riscv-gcc/libgcc/soft-fp/muldf3.c:47 (discriminator 78)
80008fae:	00478713          	addi	a4,a5,4
80008fb2:	00f737b3          	sltu	a5,a4,a5
80008fb6:	943e                	add	s0,s0,a5
80008fb8:	87ba                	mv	a5,a4
/home/hqfang/workspace/software/riscv-gnu-toolchain/riscv-gcc/libgcc/soft-fp/muldf3.c:47 (discriminator 77)
80008fba:	00800737          	lui	a4,0x800
80008fbe:	8f61                	and	a4,a4,s0
80008fc0:	e739                	bnez	a4,8000900e <__muldf3+0x43a>
/home/hqfang/workspace/software/riscv-gnu-toolchain/riscv-gcc/libgcc/soft-fp/muldf3.c:47 (discriminator 93)
80008fc2:	01d41713          	slli	a4,s0,0x1d
80008fc6:	838d                	srli	a5,a5,0x3
80008fc8:	8fd9                	or	a5,a5,a4
80008fca:	800d                	srli	s0,s0,0x3
/home/hqfang/workspace/software/riscv-gnu-toolchain/riscv-gcc/libgcc/soft-fp/muldf3.c:47
80008fcc:	4681                	li	a3,0
80008fce:	b7a9                	j	80008f18 <__muldf3+0x344>
/home/hqfang/workspace/software/riscv-gnu-toolchain/riscv-gcc/libgcc/soft-fp/muldf3.c:47 (discriminator 63)
80008fd0:	5705                	li	a4,-31
80008fd2:	8f15                	sub	a4,a4,a3
80008fd4:	02000813          	li	a6,32
80008fd8:	00e45733          	srl	a4,s0,a4
80008fdc:	4681                	li	a3,0
80008fde:	01050663          	beq	a0,a6,80008fea <__muldf3+0x416>
/home/hqfang/workspace/software/riscv-gnu-toolchain/riscv-gcc/libgcc/soft-fp/muldf3.c:47 (discriminator 71)
80008fe2:	43e58593          	addi	a1,a1,1086
80008fe6:	00b416b3          	sll	a3,s0,a1
/home/hqfang/workspace/software/riscv-gnu-toolchain/riscv-gcc/libgcc/soft-fp/muldf3.c:47 (discriminator 74)
80008fea:	8fd5                	or	a5,a5,a3
80008fec:	00f037b3          	snez	a5,a5
80008ff0:	8fd9                	or	a5,a5,a4
80008ff2:	4401                	li	s0,0
80008ff4:	b76d                	j	80008f9e <__muldf3+0x3ca>
/home/hqfang/workspace/software/riscv-gnu-toolchain/riscv-gcc/libgcc/soft-fp/muldf3.c:47
80008ff6:	00080437          	lui	s0,0x80
80008ffa:	4781                	li	a5,0
80008ffc:	7ff00693          	li	a3,2047
80009000:	4601                	li	a2,0
80009002:	bf19                	j	80008f18 <__muldf3+0x344>
80009004:	4401                	li	s0,0
80009006:	4781                	li	a5,0
80009008:	7ff00693          	li	a3,2047
8000900c:	b731                	j	80008f18 <__muldf3+0x344>
8000900e:	4401                	li	s0,0
80009010:	4781                	li	a5,0
80009012:	4685                	li	a3,1
80009014:	b711                	j	80008f18 <__muldf3+0x344>

80009016 <__subdf3>:
__subdf3():
/home/hqfang/workspace/software/riscv-gnu-toolchain/riscv-gcc/libgcc/soft-fp/subdf3.c:44
80009016:	00100837          	lui	a6,0x100
8000901a:	187d                	addi	a6,a6,-1
/home/hqfang/workspace/software/riscv-gnu-toolchain/riscv-gcc/libgcc/soft-fp/subdf3.c:36
8000901c:	1101                	addi	sp,sp,-32
/home/hqfang/workspace/software/riscv-gnu-toolchain/riscv-gcc/libgcc/soft-fp/subdf3.c:44
8000901e:	00b877b3          	and	a5,a6,a1
80009022:	0145d713          	srli	a4,a1,0x14
/home/hqfang/workspace/software/riscv-gnu-toolchain/riscv-gcc/libgcc/soft-fp/subdf3.c:45
80009026:	00d87833          	and	a6,a6,a3
8000902a:	0146d313          	srli	t1,a3,0x14
/home/hqfang/workspace/software/riscv-gnu-toolchain/riscv-gcc/libgcc/soft-fp/subdf3.c:36
8000902e:	cc22                	sw	s0,24(sp)
/home/hqfang/workspace/software/riscv-gnu-toolchain/riscv-gcc/libgcc/soft-fp/subdf3.c:44
80009030:	078e                	slli	a5,a5,0x3
80009032:	7ff77413          	andi	s0,a4,2047
80009036:	01d55713          	srli	a4,a0,0x1d
/home/hqfang/workspace/software/riscv-gnu-toolchain/riscv-gcc/libgcc/soft-fp/subdf3.c:36
8000903a:	ca26                	sw	s1,20(sp)
/home/hqfang/workspace/software/riscv-gnu-toolchain/riscv-gcc/libgcc/soft-fp/subdf3.c:44
8000903c:	8fd9                	or	a5,a5,a4
8000903e:	01f5d493          	srli	s1,a1,0x1f
/home/hqfang/workspace/software/riscv-gnu-toolchain/riscv-gcc/libgcc/soft-fp/subdf3.c:45
80009042:	01d65713          	srli	a4,a2,0x1d
/home/hqfang/workspace/software/riscv-gnu-toolchain/riscv-gcc/libgcc/soft-fp/subdf3.c:44
80009046:	00351593          	slli	a1,a0,0x3
/home/hqfang/workspace/software/riscv-gnu-toolchain/riscv-gcc/libgcc/soft-fp/subdf3.c:45
8000904a:	080e                	slli	a6,a6,0x3
/home/hqfang/workspace/software/riscv-gnu-toolchain/riscv-gcc/libgcc/soft-fp/subdf3.c:36
8000904c:	ce06                	sw	ra,28(sp)
8000904e:	c84a                	sw	s2,16(sp)
80009050:	c64e                	sw	s3,12(sp)
/home/hqfang/workspace/software/riscv-gnu-toolchain/riscv-gcc/libgcc/soft-fp/subdf3.c:45
80009052:	7ff37313          	andi	t1,t1,2047
/home/hqfang/workspace/software/riscv-gnu-toolchain/riscv-gcc/libgcc/soft-fp/subdf3.c:46
80009056:	7ff00513          	li	a0,2047
/home/hqfang/workspace/software/riscv-gnu-toolchain/riscv-gcc/libgcc/soft-fp/subdf3.c:45
8000905a:	82fd                	srli	a3,a3,0x1f
8000905c:	01076733          	or	a4,a4,a6
80009060:	060e                	slli	a2,a2,0x3
/home/hqfang/workspace/software/riscv-gnu-toolchain/riscv-gcc/libgcc/soft-fp/subdf3.c:46
80009062:	00a31563          	bne	t1,a0,8000906c <__subdf3+0x56>
/home/hqfang/workspace/software/riscv-gnu-toolchain/riscv-gcc/libgcc/soft-fp/subdf3.c:46 (discriminator 2)
80009066:	00c76533          	or	a0,a4,a2
8000906a:	e119                	bnez	a0,80009070 <__subdf3+0x5a>
/home/hqfang/workspace/software/riscv-gnu-toolchain/riscv-gcc/libgcc/soft-fp/subdf3.c:46 (discriminator 3)
8000906c:	0016c693          	xori	a3,a3,1
/home/hqfang/workspace/software/riscv-gnu-toolchain/riscv-gcc/libgcc/soft-fp/subdf3.c:46 (discriminator 11)
80009070:	40640833          	sub	a6,s0,t1
80009074:	22969863          	bne	a3,s1,800092a4 <__subdf3+0x28e>
/home/hqfang/workspace/software/riscv-gnu-toolchain/riscv-gcc/libgcc/soft-fp/subdf3.c:46 (discriminator 12)
80009078:	0f005363          	blez	a6,8000915e <__subdf3+0x148>
/home/hqfang/workspace/software/riscv-gnu-toolchain/riscv-gcc/libgcc/soft-fp/subdf3.c:46 (discriminator 14)
8000907c:	02031863          	bnez	t1,800090ac <__subdf3+0x96>
/home/hqfang/workspace/software/riscv-gnu-toolchain/riscv-gcc/libgcc/soft-fp/subdf3.c:46 (discriminator 16)
80009080:	00c766b3          	or	a3,a4,a2
80009084:	58068363          	beqz	a3,8000960a <__subdf3+0x5f4>
/home/hqfang/workspace/software/riscv-gnu-toolchain/riscv-gcc/libgcc/soft-fp/subdf3.c:46 (discriminator 19)
80009088:	fff80513          	addi	a0,a6,-1 # fffff <__stack_size+0xff7ff>
8000908c:	e909                	bnez	a0,8000909e <__subdf3+0x88>
/home/hqfang/workspace/software/riscv-gnu-toolchain/riscv-gcc/libgcc/soft-fp/subdf3.c:46 (discriminator 28)
8000908e:	962e                	add	a2,a2,a1
80009090:	00b63533          	sltu	a0,a2,a1
80009094:	97ba                	add	a5,a5,a4
80009096:	97aa                	add	a5,a5,a0
80009098:	85b2                	mv	a1,a2
/home/hqfang/workspace/software/riscv-gnu-toolchain/riscv-gcc/libgcc/soft-fp/subdf3.c:45 (discriminator 85)
8000909a:	4405                	li	s0,1
/home/hqfang/workspace/software/riscv-gnu-toolchain/riscv-gcc/libgcc/soft-fp/subdf3.c:46 (discriminator 85)
8000909c:	a8b9                	j	800090fa <__subdf3+0xe4>
/home/hqfang/workspace/software/riscv-gnu-toolchain/riscv-gcc/libgcc/soft-fp/subdf3.c:46 (discriminator 29)
8000909e:	7ff00693          	li	a3,2047
800090a2:	00d81d63          	bne	a6,a3,800090bc <__subdf3+0xa6>
/home/hqfang/workspace/software/riscv-gnu-toolchain/riscv-gcc/libgcc/soft-fp/subdf3.c:46
800090a6:	7ff00413          	li	s0,2047
800090aa:	a24d                	j	8000924c <__subdf3+0x236>
/home/hqfang/workspace/software/riscv-gnu-toolchain/riscv-gcc/libgcc/soft-fp/subdf3.c:46 (discriminator 17)
800090ac:	7ff00693          	li	a3,2047
800090b0:	18d40e63          	beq	s0,a3,8000924c <__subdf3+0x236>
/home/hqfang/workspace/software/riscv-gnu-toolchain/riscv-gcc/libgcc/soft-fp/subdf3.c:46 (discriminator 43)
800090b4:	008006b7          	lui	a3,0x800
800090b8:	8f55                	or	a4,a4,a3
800090ba:	8542                	mv	a0,a6
/home/hqfang/workspace/software/riscv-gnu-toolchain/riscv-gcc/libgcc/soft-fp/subdf3.c:46 (discriminator 52)
800090bc:	03800693          	li	a3,56
800090c0:	08a6cb63          	blt	a3,a0,80009156 <__subdf3+0x140>
/home/hqfang/workspace/software/riscv-gnu-toolchain/riscv-gcc/libgcc/soft-fp/subdf3.c:46 (discriminator 53)
800090c4:	46fd                	li	a3,31
800090c6:	06a6c263          	blt	a3,a0,8000912a <__subdf3+0x114>
/home/hqfang/workspace/software/riscv-gnu-toolchain/riscv-gcc/libgcc/soft-fp/subdf3.c:46 (discriminator 55)
800090ca:	02000813          	li	a6,32
800090ce:	40a80833          	sub	a6,a6,a0
800090d2:	010716b3          	sll	a3,a4,a6
800090d6:	00a658b3          	srl	a7,a2,a0
800090da:	01061633          	sll	a2,a2,a6
800090de:	0116e6b3          	or	a3,a3,a7
800090e2:	00c03633          	snez	a2,a2
800090e6:	8e55                	or	a2,a2,a3
800090e8:	00a75733          	srl	a4,a4,a0
/home/hqfang/workspace/software/riscv-gnu-toolchain/riscv-gcc/libgcc/soft-fp/subdf3.c:46 (discriminator 69)
800090ec:	962e                	add	a2,a2,a1
800090ee:	00b63533          	sltu	a0,a2,a1
800090f2:	973e                	add	a4,a4,a5
800090f4:	00a707b3          	add	a5,a4,a0
800090f8:	85b2                	mv	a1,a2
/home/hqfang/workspace/software/riscv-gnu-toolchain/riscv-gcc/libgcc/soft-fp/subdf3.c:46 (discriminator 127)
800090fa:	00800737          	lui	a4,0x800
800090fe:	8f7d                	and	a4,a4,a5
80009100:	14070663          	beqz	a4,8000924c <__subdf3+0x236>
/home/hqfang/workspace/software/riscv-gnu-toolchain/riscv-gcc/libgcc/soft-fp/subdf3.c:46 (discriminator 187)
80009104:	0405                	addi	s0,s0,1
80009106:	7ff00713          	li	a4,2047
8000910a:	48e40d63          	beq	s0,a4,800095a4 <__subdf3+0x58e>
/home/hqfang/workspace/software/riscv-gnu-toolchain/riscv-gcc/libgcc/soft-fp/subdf3.c:46
8000910e:	ff800737          	lui	a4,0xff800
80009112:	177d                	addi	a4,a4,-1
80009114:	8ff9                	and	a5,a5,a4
80009116:	0015f513          	andi	a0,a1,1
8000911a:	0015d713          	srli	a4,a1,0x1
8000911e:	8d59                	or	a0,a0,a4
80009120:	01f79593          	slli	a1,a5,0x1f
80009124:	8dc9                	or	a1,a1,a0
80009126:	8385                	srli	a5,a5,0x1
80009128:	a215                	j	8000924c <__subdf3+0x236>
/home/hqfang/workspace/software/riscv-gnu-toolchain/riscv-gcc/libgcc/soft-fp/subdf3.c:46 (discriminator 56)
8000912a:	fe050693          	addi	a3,a0,-32
8000912e:	02000893          	li	a7,32
80009132:	00d756b3          	srl	a3,a4,a3
80009136:	4801                	li	a6,0
80009138:	01150863          	beq	a0,a7,80009148 <__subdf3+0x132>
/home/hqfang/workspace/software/riscv-gnu-toolchain/riscv-gcc/libgcc/soft-fp/subdf3.c:46 (discriminator 63)
8000913c:	04000813          	li	a6,64
80009140:	40a80533          	sub	a0,a6,a0
80009144:	00a71833          	sll	a6,a4,a0
/home/hqfang/workspace/software/riscv-gnu-toolchain/riscv-gcc/libgcc/soft-fp/subdf3.c:46 (discriminator 66)
80009148:	00c86633          	or	a2,a6,a2
8000914c:	00c03633          	snez	a2,a2
80009150:	8e55                	or	a2,a2,a3
/home/hqfang/workspace/software/riscv-gnu-toolchain/riscv-gcc/libgcc/soft-fp/subdf3.c:46 (discriminator 54)
80009152:	4701                	li	a4,0
80009154:	bf61                	j	800090ec <__subdf3+0xd6>
80009156:	8e59                	or	a2,a2,a4
80009158:	00c03633          	snez	a2,a2
8000915c:	bfdd                	j	80009152 <__subdf3+0x13c>
/home/hqfang/workspace/software/riscv-gnu-toolchain/riscv-gcc/libgcc/soft-fp/subdf3.c:46 (discriminator 15)
8000915e:	0a080b63          	beqz	a6,80009214 <__subdf3+0x1fe>
/home/hqfang/workspace/software/riscv-gnu-toolchain/riscv-gcc/libgcc/soft-fp/subdf3.c:46 (discriminator 71)
80009162:	40830533          	sub	a0,t1,s0
80009166:	e40d                	bnez	s0,80009190 <__subdf3+0x17a>
/home/hqfang/workspace/software/riscv-gnu-toolchain/riscv-gcc/libgcc/soft-fp/subdf3.c:46 (discriminator 73)
80009168:	00b7e6b3          	or	a3,a5,a1
8000916c:	42068363          	beqz	a3,80009592 <__subdf3+0x57c>
/home/hqfang/workspace/software/riscv-gnu-toolchain/riscv-gcc/libgcc/soft-fp/subdf3.c:46 (discriminator 76)
80009170:	fff50693          	addi	a3,a0,-1
80009174:	e699                	bnez	a3,80009182 <__subdf3+0x16c>
/home/hqfang/workspace/software/riscv-gnu-toolchain/riscv-gcc/libgcc/soft-fp/subdf3.c:46 (discriminator 85)
80009176:	95b2                	add	a1,a1,a2
80009178:	97ba                	add	a5,a5,a4
8000917a:	00c5b633          	sltu	a2,a1,a2
8000917e:	97b2                	add	a5,a5,a2
80009180:	bf29                	j	8000909a <__subdf3+0x84>
/home/hqfang/workspace/software/riscv-gnu-toolchain/riscv-gcc/libgcc/soft-fp/subdf3.c:46 (discriminator 86)
80009182:	7ff00813          	li	a6,2047
80009186:	01051d63          	bne	a0,a6,800091a0 <__subdf3+0x18a>
/home/hqfang/workspace/software/riscv-gnu-toolchain/riscv-gcc/libgcc/soft-fp/subdf3.c:45
8000918a:	87ba                	mv	a5,a4
8000918c:	85b2                	mv	a1,a2
8000918e:	bf21                	j	800090a6 <__subdf3+0x90>
/home/hqfang/workspace/software/riscv-gnu-toolchain/riscv-gcc/libgcc/soft-fp/subdf3.c:46 (discriminator 74)
80009190:	7ff00693          	li	a3,2047
80009194:	fed30be3          	beq	t1,a3,8000918a <__subdf3+0x174>
/home/hqfang/workspace/software/riscv-gnu-toolchain/riscv-gcc/libgcc/soft-fp/subdf3.c:46 (discriminator 100)
80009198:	008006b7          	lui	a3,0x800
8000919c:	8fd5                	or	a5,a5,a3
8000919e:	86aa                	mv	a3,a0
/home/hqfang/workspace/software/riscv-gnu-toolchain/riscv-gcc/libgcc/soft-fp/subdf3.c:46 (discriminator 109)
800091a0:	03800513          	li	a0,56
800091a4:	06d54363          	blt	a0,a3,8000920a <__subdf3+0x1f4>
/home/hqfang/workspace/software/riscv-gnu-toolchain/riscv-gcc/libgcc/soft-fp/subdf3.c:46 (discriminator 110)
800091a8:	457d                	li	a0,31
800091aa:	02d54b63          	blt	a0,a3,800091e0 <__subdf3+0x1ca>
/home/hqfang/workspace/software/riscv-gnu-toolchain/riscv-gcc/libgcc/soft-fp/subdf3.c:46 (discriminator 112)
800091ae:	02000813          	li	a6,32
800091b2:	40d80833          	sub	a6,a6,a3
800091b6:	01079533          	sll	a0,a5,a6
800091ba:	00d5d8b3          	srl	a7,a1,a3
800091be:	010595b3          	sll	a1,a1,a6
800091c2:	01156533          	or	a0,a0,a7
800091c6:	00b035b3          	snez	a1,a1
800091ca:	8d4d                	or	a0,a0,a1
800091cc:	00d7d7b3          	srl	a5,a5,a3
/home/hqfang/workspace/software/riscv-gnu-toolchain/riscv-gcc/libgcc/soft-fp/subdf3.c:46 (discriminator 126)
800091d0:	00c505b3          	add	a1,a0,a2
800091d4:	97ba                	add	a5,a5,a4
800091d6:	00c5b633          	sltu	a2,a1,a2
800091da:	97b2                	add	a5,a5,a2
/home/hqfang/workspace/software/riscv-gnu-toolchain/riscv-gcc/libgcc/soft-fp/subdf3.c:45 (discriminator 126)
800091dc:	841a                	mv	s0,t1
800091de:	bf31                	j	800090fa <__subdf3+0xe4>
/home/hqfang/workspace/software/riscv-gnu-toolchain/riscv-gcc/libgcc/soft-fp/subdf3.c:46 (discriminator 113)
800091e0:	fe068513          	addi	a0,a3,-32 # 7fffe0 <__stack_size+0x7ff7e0>
800091e4:	02000893          	li	a7,32
800091e8:	00a7d833          	srl	a6,a5,a0
800091ec:	4501                	li	a0,0
800091ee:	01168763          	beq	a3,a7,800091fc <__subdf3+0x1e6>
/home/hqfang/workspace/software/riscv-gnu-toolchain/riscv-gcc/libgcc/soft-fp/subdf3.c:46 (discriminator 120)
800091f2:	04000513          	li	a0,64
800091f6:	8d15                	sub	a0,a0,a3
800091f8:	00a79533          	sll	a0,a5,a0
/home/hqfang/workspace/software/riscv-gnu-toolchain/riscv-gcc/libgcc/soft-fp/subdf3.c:46 (discriminator 123)
800091fc:	8d4d                	or	a0,a0,a1
800091fe:	00a03533          	snez	a0,a0
80009202:	00a86533          	or	a0,a6,a0
/home/hqfang/workspace/software/riscv-gnu-toolchain/riscv-gcc/libgcc/soft-fp/subdf3.c:46 (discriminator 111)
80009206:	4781                	li	a5,0
80009208:	b7e1                	j	800091d0 <__subdf3+0x1ba>
8000920a:	00b7e533          	or	a0,a5,a1
8000920e:	00a03533          	snez	a0,a0
80009212:	bfd5                	j	80009206 <__subdf3+0x1f0>
/home/hqfang/workspace/software/riscv-gnu-toolchain/riscv-gcc/libgcc/soft-fp/subdf3.c:46 (discriminator 72)
80009214:	00140693          	addi	a3,s0,1 # 80001 <__stack_size+0x7f801>
80009218:	7fe6f513          	andi	a0,a3,2046
8000921c:	e13d                	bnez	a0,80009282 <__subdf3+0x26c>
/home/hqfang/workspace/software/riscv-gnu-toolchain/riscv-gcc/libgcc/soft-fp/subdf3.c:46 (discriminator 128)
8000921e:	00b7e6b3          	or	a3,a5,a1
80009222:	e429                	bnez	s0,8000926c <__subdf3+0x256>
/home/hqfang/workspace/software/riscv-gnu-toolchain/riscv-gcc/libgcc/soft-fp/subdf3.c:46 (discriminator 130)
80009224:	36068b63          	beqz	a3,8000959a <__subdf3+0x584>
/home/hqfang/workspace/software/riscv-gnu-toolchain/riscv-gcc/libgcc/soft-fp/subdf3.c:46 (discriminator 133)
80009228:	00c766b3          	or	a3,a4,a2
8000922c:	c285                	beqz	a3,8000924c <__subdf3+0x236>
/home/hqfang/workspace/software/riscv-gnu-toolchain/riscv-gcc/libgcc/soft-fp/subdf3.c:46 (discriminator 139)
8000922e:	962e                	add	a2,a2,a1
80009230:	97ba                	add	a5,a5,a4
80009232:	00b63533          	sltu	a0,a2,a1
80009236:	97aa                	add	a5,a5,a0
80009238:	00800737          	lui	a4,0x800
8000923c:	8f7d                	and	a4,a4,a5
8000923e:	85b2                	mv	a1,a2
80009240:	c711                	beqz	a4,8000924c <__subdf3+0x236>
/home/hqfang/workspace/software/riscv-gnu-toolchain/riscv-gcc/libgcc/soft-fp/subdf3.c:46 (discriminator 141)
80009242:	ff800737          	lui	a4,0xff800
80009246:	177d                	addi	a4,a4,-1
80009248:	8ff9                	and	a5,a5,a4
8000924a:	4405                	li	s0,1
/home/hqfang/workspace/software/riscv-gnu-toolchain/riscv-gcc/libgcc/soft-fp/subdf3.c:47 (discriminator 426)
8000924c:	0075f713          	andi	a4,a1,7
80009250:	34070c63          	beqz	a4,800095a8 <__subdf3+0x592>
/home/hqfang/workspace/software/riscv-gnu-toolchain/riscv-gcc/libgcc/soft-fp/subdf3.c:47 (discriminator 37)
80009254:	00f5f713          	andi	a4,a1,15
80009258:	4691                	li	a3,4
8000925a:	34d70763          	beq	a4,a3,800095a8 <__subdf3+0x592>
/home/hqfang/workspace/software/riscv-gnu-toolchain/riscv-gcc/libgcc/soft-fp/subdf3.c:47 (discriminator 44)
8000925e:	00458713          	addi	a4,a1,4
80009262:	00b73533          	sltu	a0,a4,a1
80009266:	97aa                	add	a5,a5,a0
80009268:	85ba                	mv	a1,a4
8000926a:	ae3d                	j	800095a8 <__subdf3+0x592>
/home/hqfang/workspace/software/riscv-gnu-toolchain/riscv-gcc/libgcc/soft-fp/subdf3.c:46 (discriminator 158)
8000926c:	de99                	beqz	a3,8000918a <__subdf3+0x174>
/home/hqfang/workspace/software/riscv-gnu-toolchain/riscv-gcc/libgcc/soft-fp/subdf3.c:46 (discriminator 160)
8000926e:	8e59                	or	a2,a2,a4
80009270:	e2060be3          	beqz	a2,800090a6 <__subdf3+0x90>
/home/hqfang/workspace/software/riscv-gnu-toolchain/riscv-gcc/libgcc/soft-fp/subdf3.c:46
80009274:	4481                	li	s1,0
80009276:	004007b7          	lui	a5,0x400
8000927a:	4581                	li	a1,0
8000927c:	7ff00413          	li	s0,2047
80009280:	a625                	j	800095a8 <__subdf3+0x592>
/home/hqfang/workspace/software/riscv-gnu-toolchain/riscv-gcc/libgcc/soft-fp/subdf3.c:46 (discriminator 129)
80009282:	7ff00513          	li	a0,2047
80009286:	30a68d63          	beq	a3,a0,800095a0 <__subdf3+0x58a>
/home/hqfang/workspace/software/riscv-gnu-toolchain/riscv-gcc/libgcc/soft-fp/subdf3.c:46
8000928a:	962e                	add	a2,a2,a1
8000928c:	00b63533          	sltu	a0,a2,a1
80009290:	97ba                	add	a5,a5,a4
80009292:	97aa                	add	a5,a5,a0
80009294:	01f79513          	slli	a0,a5,0x1f
80009298:	8205                	srli	a2,a2,0x1
8000929a:	00c565b3          	or	a1,a0,a2
8000929e:	8385                	srli	a5,a5,0x1
800092a0:	8436                	mv	s0,a3
800092a2:	b76d                	j	8000924c <__subdf3+0x236>
/home/hqfang/workspace/software/riscv-gnu-toolchain/riscv-gcc/libgcc/soft-fp/subdf3.c:46 (discriminator 13)
800092a4:	0d005663          	blez	a6,80009370 <__subdf3+0x35a>
/home/hqfang/workspace/software/riscv-gnu-toolchain/riscv-gcc/libgcc/soft-fp/subdf3.c:46 (discriminator 205)
800092a8:	08031163          	bnez	t1,8000932a <__subdf3+0x314>
/home/hqfang/workspace/software/riscv-gnu-toolchain/riscv-gcc/libgcc/soft-fp/subdf3.c:46 (discriminator 207)
800092ac:	00c766b3          	or	a3,a4,a2
800092b0:	34068d63          	beqz	a3,8000960a <__subdf3+0x5f4>
/home/hqfang/workspace/software/riscv-gnu-toolchain/riscv-gcc/libgcc/soft-fp/subdf3.c:46 (discriminator 210)
800092b4:	fff80513          	addi	a0,a6,-1
800092b8:	e911                	bnez	a0,800092cc <__subdf3+0x2b6>
/home/hqfang/workspace/software/riscv-gnu-toolchain/riscv-gcc/libgcc/soft-fp/subdf3.c:46 (discriminator 219)
800092ba:	40c58633          	sub	a2,a1,a2
800092be:	00c5b533          	sltu	a0,a1,a2
800092c2:	8f99                	sub	a5,a5,a4
800092c4:	8f89                	sub	a5,a5,a0
800092c6:	85b2                	mv	a1,a2
/home/hqfang/workspace/software/riscv-gnu-toolchain/riscv-gcc/libgcc/soft-fp/subdf3.c:45 (discriminator 276)
800092c8:	4405                	li	s0,1
/home/hqfang/workspace/software/riscv-gnu-toolchain/riscv-gcc/libgcc/soft-fp/subdf3.c:46 (discriminator 276)
800092ca:	a0b1                	j	80009316 <__subdf3+0x300>
/home/hqfang/workspace/software/riscv-gnu-toolchain/riscv-gcc/libgcc/soft-fp/subdf3.c:46 (discriminator 220)
800092cc:	7ff00693          	li	a3,2047
800092d0:	dcd80be3          	beq	a6,a3,800090a6 <__subdf3+0x90>
/home/hqfang/workspace/software/riscv-gnu-toolchain/riscv-gcc/libgcc/soft-fp/subdf3.c:46 (discriminator 243)
800092d4:	03800693          	li	a3,56
800092d8:	08a6c863          	blt	a3,a0,80009368 <__subdf3+0x352>
/home/hqfang/workspace/software/riscv-gnu-toolchain/riscv-gcc/libgcc/soft-fp/subdf3.c:46 (discriminator 244)
800092dc:	46fd                	li	a3,31
800092de:	04a6cf63          	blt	a3,a0,8000933c <__subdf3+0x326>
/home/hqfang/workspace/software/riscv-gnu-toolchain/riscv-gcc/libgcc/soft-fp/subdf3.c:46 (discriminator 246)
800092e2:	02000813          	li	a6,32
800092e6:	40a80833          	sub	a6,a6,a0
800092ea:	010716b3          	sll	a3,a4,a6
800092ee:	00a658b3          	srl	a7,a2,a0
800092f2:	01061633          	sll	a2,a2,a6
800092f6:	0116e6b3          	or	a3,a3,a7
800092fa:	00c03633          	snez	a2,a2
800092fe:	8e55                	or	a2,a2,a3
80009300:	00a75733          	srl	a4,a4,a0
/home/hqfang/workspace/software/riscv-gnu-toolchain/riscv-gcc/libgcc/soft-fp/subdf3.c:46 (discriminator 260)
80009304:	40c58633          	sub	a2,a1,a2
80009308:	00c5b533          	sltu	a0,a1,a2
8000930c:	40e78733          	sub	a4,a5,a4
80009310:	40a707b3          	sub	a5,a4,a0
80009314:	85b2                	mv	a1,a2
/home/hqfang/workspace/software/riscv-gnu-toolchain/riscv-gcc/libgcc/soft-fp/subdf3.c:46 (discriminator 318)
80009316:	00800937          	lui	s2,0x800
8000931a:	0127f733          	and	a4,a5,s2
8000931e:	d71d                	beqz	a4,8000924c <__subdf3+0x236>
/home/hqfang/workspace/software/riscv-gnu-toolchain/riscv-gcc/libgcc/soft-fp/subdf3.c:46 (discriminator 378)
80009320:	197d                	addi	s2,s2,-1
80009322:	0127f933          	and	s2,a5,s2
80009326:	89ae                	mv	s3,a1
80009328:	aa5d                	j	800094de <__subdf3+0x4c8>
/home/hqfang/workspace/software/riscv-gnu-toolchain/riscv-gcc/libgcc/soft-fp/subdf3.c:46 (discriminator 208)
8000932a:	7ff00693          	li	a3,2047
8000932e:	f0d40fe3          	beq	s0,a3,8000924c <__subdf3+0x236>
/home/hqfang/workspace/software/riscv-gnu-toolchain/riscv-gcc/libgcc/soft-fp/subdf3.c:46 (discriminator 234)
80009332:	008006b7          	lui	a3,0x800
80009336:	8f55                	or	a4,a4,a3
80009338:	8542                	mv	a0,a6
8000933a:	bf69                	j	800092d4 <__subdf3+0x2be>
/home/hqfang/workspace/software/riscv-gnu-toolchain/riscv-gcc/libgcc/soft-fp/subdf3.c:46 (discriminator 247)
8000933c:	fe050693          	addi	a3,a0,-32
80009340:	02000893          	li	a7,32
80009344:	00d756b3          	srl	a3,a4,a3
80009348:	4801                	li	a6,0
8000934a:	01150863          	beq	a0,a7,8000935a <__subdf3+0x344>
/home/hqfang/workspace/software/riscv-gnu-toolchain/riscv-gcc/libgcc/soft-fp/subdf3.c:46 (discriminator 254)
8000934e:	04000813          	li	a6,64
80009352:	40a80533          	sub	a0,a6,a0
80009356:	00a71833          	sll	a6,a4,a0
/home/hqfang/workspace/software/riscv-gnu-toolchain/riscv-gcc/libgcc/soft-fp/subdf3.c:46 (discriminator 257)
8000935a:	00c86633          	or	a2,a6,a2
8000935e:	00c03633          	snez	a2,a2
80009362:	8e55                	or	a2,a2,a3
/home/hqfang/workspace/software/riscv-gnu-toolchain/riscv-gcc/libgcc/soft-fp/subdf3.c:46 (discriminator 245)
80009364:	4701                	li	a4,0
80009366:	bf79                	j	80009304 <__subdf3+0x2ee>
80009368:	8e59                	or	a2,a2,a4
8000936a:	00c03633          	snez	a2,a2
8000936e:	bfdd                	j	80009364 <__subdf3+0x34e>
/home/hqfang/workspace/software/riscv-gnu-toolchain/riscv-gcc/libgcc/soft-fp/subdf3.c:46 (discriminator 206)
80009370:	0c080563          	beqz	a6,8000943a <__subdf3+0x424>
/home/hqfang/workspace/software/riscv-gnu-toolchain/riscv-gcc/libgcc/soft-fp/subdf3.c:46 (discriminator 262)
80009374:	40830533          	sub	a0,t1,s0
80009378:	e81d                	bnez	s0,800093ae <__subdf3+0x398>
/home/hqfang/workspace/software/riscv-gnu-toolchain/riscv-gcc/libgcc/soft-fp/subdf3.c:46 (discriminator 264)
8000937a:	00b7e833          	or	a6,a5,a1
8000937e:	28080863          	beqz	a6,8000960e <__subdf3+0x5f8>
/home/hqfang/workspace/software/riscv-gnu-toolchain/riscv-gcc/libgcc/soft-fp/subdf3.c:46 (discriminator 267)
80009382:	fff50813          	addi	a6,a0,-1
80009386:	00081b63          	bnez	a6,8000939c <__subdf3+0x386>
/home/hqfang/workspace/software/riscv-gnu-toolchain/riscv-gcc/libgcc/soft-fp/subdf3.c:46 (discriminator 276)
8000938a:	40b605b3          	sub	a1,a2,a1
8000938e:	40f707b3          	sub	a5,a4,a5
80009392:	00b63633          	sltu	a2,a2,a1
80009396:	8f91                	sub	a5,a5,a2
80009398:	84b6                	mv	s1,a3
8000939a:	b73d                	j	800092c8 <__subdf3+0x2b2>
/home/hqfang/workspace/software/riscv-gnu-toolchain/riscv-gcc/libgcc/soft-fp/subdf3.c:46 (discriminator 277)
8000939c:	7ff00893          	li	a7,2047
800093a0:	03151063          	bne	a0,a7,800093c0 <__subdf3+0x3aa>
/home/hqfang/workspace/software/riscv-gnu-toolchain/riscv-gcc/libgcc/soft-fp/subdf3.c:45
800093a4:	87ba                	mv	a5,a4
800093a6:	85b2                	mv	a1,a2
/home/hqfang/workspace/software/riscv-gnu-toolchain/riscv-gcc/libgcc/soft-fp/subdf3.c:46
800093a8:	7ff00413          	li	s0,2047
800093ac:	a07d                	j	8000945a <__subdf3+0x444>
/home/hqfang/workspace/software/riscv-gnu-toolchain/riscv-gcc/libgcc/soft-fp/subdf3.c:46 (discriminator 265)
800093ae:	7ff00813          	li	a6,2047
800093b2:	ff0309e3          	beq	t1,a6,800093a4 <__subdf3+0x38e>
/home/hqfang/workspace/software/riscv-gnu-toolchain/riscv-gcc/libgcc/soft-fp/subdf3.c:46 (discriminator 291)
800093b6:	00800837          	lui	a6,0x800
800093ba:	0107e7b3          	or	a5,a5,a6
800093be:	882a                	mv	a6,a0
/home/hqfang/workspace/software/riscv-gnu-toolchain/riscv-gcc/libgcc/soft-fp/subdf3.c:46 (discriminator 300)
800093c0:	03800513          	li	a0,56
800093c4:	07054663          	blt	a0,a6,80009430 <__subdf3+0x41a>
/home/hqfang/workspace/software/riscv-gnu-toolchain/riscv-gcc/libgcc/soft-fp/subdf3.c:46 (discriminator 301)
800093c8:	457d                	li	a0,31
800093ca:	03054d63          	blt	a0,a6,80009404 <__subdf3+0x3ee>
/home/hqfang/workspace/software/riscv-gnu-toolchain/riscv-gcc/libgcc/soft-fp/subdf3.c:46 (discriminator 303)
800093ce:	02000893          	li	a7,32
800093d2:	410888b3          	sub	a7,a7,a6
800093d6:	01179533          	sll	a0,a5,a7
800093da:	0105de33          	srl	t3,a1,a6
800093de:	011595b3          	sll	a1,a1,a7
800093e2:	01c56533          	or	a0,a0,t3
800093e6:	00b035b3          	snez	a1,a1
800093ea:	8d4d                	or	a0,a0,a1
800093ec:	0107d7b3          	srl	a5,a5,a6
/home/hqfang/workspace/software/riscv-gnu-toolchain/riscv-gcc/libgcc/soft-fp/subdf3.c:46 (discriminator 317)
800093f0:	40a605b3          	sub	a1,a2,a0
800093f4:	40f707b3          	sub	a5,a4,a5
800093f8:	00b63633          	sltu	a2,a2,a1
800093fc:	8f91                	sub	a5,a5,a2
/home/hqfang/workspace/software/riscv-gnu-toolchain/riscv-gcc/libgcc/soft-fp/subdf3.c:45 (discriminator 317)
800093fe:	841a                	mv	s0,t1
80009400:	84b6                	mv	s1,a3
80009402:	bf11                	j	80009316 <__subdf3+0x300>
/home/hqfang/workspace/software/riscv-gnu-toolchain/riscv-gcc/libgcc/soft-fp/subdf3.c:46 (discriminator 304)
80009404:	fe080513          	addi	a0,a6,-32 # 7fffe0 <__stack_size+0x7ff7e0>
80009408:	02000e13          	li	t3,32
8000940c:	00a7d8b3          	srl	a7,a5,a0
80009410:	4501                	li	a0,0
80009412:	01c80863          	beq	a6,t3,80009422 <__subdf3+0x40c>
/home/hqfang/workspace/software/riscv-gnu-toolchain/riscv-gcc/libgcc/soft-fp/subdf3.c:46 (discriminator 311)
80009416:	04000513          	li	a0,64
8000941a:	41050533          	sub	a0,a0,a6
8000941e:	00a79533          	sll	a0,a5,a0
/home/hqfang/workspace/software/riscv-gnu-toolchain/riscv-gcc/libgcc/soft-fp/subdf3.c:46 (discriminator 314)
80009422:	8d4d                	or	a0,a0,a1
80009424:	00a03533          	snez	a0,a0
80009428:	00a8e533          	or	a0,a7,a0
/home/hqfang/workspace/software/riscv-gnu-toolchain/riscv-gcc/libgcc/soft-fp/subdf3.c:46 (discriminator 302)
8000942c:	4781                	li	a5,0
8000942e:	b7c9                	j	800093f0 <__subdf3+0x3da>
80009430:	00b7e533          	or	a0,a5,a1
80009434:	00a03533          	snez	a0,a0
80009438:	bfd5                	j	8000942c <__subdf3+0x416>
/home/hqfang/workspace/software/riscv-gnu-toolchain/riscv-gcc/libgcc/soft-fp/subdf3.c:46 (discriminator 263)
8000943a:	00140513          	addi	a0,s0,1
8000943e:	7fe57513          	andi	a0,a0,2046
80009442:	e925                	bnez	a0,800094b2 <__subdf3+0x49c>
/home/hqfang/workspace/software/riscv-gnu-toolchain/riscv-gcc/libgcc/soft-fp/subdf3.c:46 (discriminator 319)
80009444:	00b7e833          	or	a6,a5,a1
80009448:	00c76533          	or	a0,a4,a2
8000944c:	e821                	bnez	s0,8000949c <__subdf3+0x486>
/home/hqfang/workspace/software/riscv-gnu-toolchain/riscv-gcc/libgcc/soft-fp/subdf3.c:46 (discriminator 321)
8000944e:	00081863          	bnez	a6,8000945e <__subdf3+0x448>
/home/hqfang/workspace/software/riscv-gnu-toolchain/riscv-gcc/libgcc/soft-fp/subdf3.c:46 (discriminator 323)
80009452:	1c050263          	beqz	a0,80009616 <__subdf3+0x600>
/home/hqfang/workspace/software/riscv-gnu-toolchain/riscv-gcc/libgcc/soft-fp/subdf3.c:45
80009456:	87ba                	mv	a5,a4
80009458:	85b2                	mv	a1,a2
8000945a:	84b6                	mv	s1,a3
8000945c:	bbc5                	j	8000924c <__subdf3+0x236>
/home/hqfang/workspace/software/riscv-gnu-toolchain/riscv-gcc/libgcc/soft-fp/subdf3.c:46 (discriminator 324)
8000945e:	de0507e3          	beqz	a0,8000924c <__subdf3+0x236>
/home/hqfang/workspace/software/riscv-gnu-toolchain/riscv-gcc/libgcc/soft-fp/subdf3.c:46 (discriminator 331)
80009462:	40c58833          	sub	a6,a1,a2
80009466:	0105b8b3          	sltu	a7,a1,a6
8000946a:	40e78533          	sub	a0,a5,a4
8000946e:	41150533          	sub	a0,a0,a7
80009472:	008008b7          	lui	a7,0x800
80009476:	011578b3          	and	a7,a0,a7
8000947a:	00088a63          	beqz	a7,8000948e <__subdf3+0x478>
/home/hqfang/workspace/software/riscv-gnu-toolchain/riscv-gcc/libgcc/soft-fp/subdf3.c:46 (discriminator 333)
8000947e:	40b605b3          	sub	a1,a2,a1
80009482:	40f707b3          	sub	a5,a4,a5
80009486:	00b63633          	sltu	a2,a2,a1
8000948a:	8f91                	sub	a5,a5,a2
8000948c:	b7f9                	j	8000945a <__subdf3+0x444>
/home/hqfang/workspace/software/riscv-gnu-toolchain/riscv-gcc/libgcc/soft-fp/subdf3.c:46 (discriminator 334)
8000948e:	00a865b3          	or	a1,a6,a0
80009492:	18058663          	beqz	a1,8000961e <__subdf3+0x608>
/home/hqfang/workspace/software/riscv-gnu-toolchain/riscv-gcc/libgcc/soft-fp/subdf3.c:46
80009496:	87aa                	mv	a5,a0
80009498:	85c2                	mv	a1,a6
8000949a:	bb4d                	j	8000924c <__subdf3+0x236>
/home/hqfang/workspace/software/riscv-gnu-toolchain/riscv-gcc/libgcc/soft-fp/subdf3.c:46 (discriminator 353)
8000949c:	00081863          	bnez	a6,800094ac <__subdf3+0x496>
/home/hqfang/workspace/software/riscv-gnu-toolchain/riscv-gcc/libgcc/soft-fp/subdf3.c:46 (discriminator 354)
800094a0:	18050163          	beqz	a0,80009622 <__subdf3+0x60c>
/home/hqfang/workspace/software/riscv-gnu-toolchain/riscv-gcc/libgcc/soft-fp/subdf3.c:45
800094a4:	87ba                	mv	a5,a4
800094a6:	85b2                	mv	a1,a2
/home/hqfang/workspace/software/riscv-gnu-toolchain/riscv-gcc/libgcc/soft-fp/subdf3.c:46
800094a8:	84b6                	mv	s1,a3
800094aa:	bef5                	j	800090a6 <__subdf3+0x90>
/home/hqfang/workspace/software/riscv-gnu-toolchain/riscv-gcc/libgcc/soft-fp/subdf3.c:46 (discriminator 355)
800094ac:	be050de3          	beqz	a0,800090a6 <__subdf3+0x90>
800094b0:	b3d1                	j	80009274 <__subdf3+0x25e>
/home/hqfang/workspace/software/riscv-gnu-toolchain/riscv-gcc/libgcc/soft-fp/subdf3.c:46 (discriminator 320)
800094b2:	40c589b3          	sub	s3,a1,a2
800094b6:	0135b533          	sltu	a0,a1,s3
800094ba:	40e78933          	sub	s2,a5,a4
800094be:	40a90933          	sub	s2,s2,a0
800094c2:	00800537          	lui	a0,0x800
800094c6:	00a97533          	and	a0,s2,a0
800094ca:	c925                	beqz	a0,8000953a <__subdf3+0x524>
/home/hqfang/workspace/software/riscv-gnu-toolchain/riscv-gcc/libgcc/soft-fp/subdf3.c:46 (discriminator 371)
800094cc:	40b609b3          	sub	s3,a2,a1
800094d0:	40f707b3          	sub	a5,a4,a5
800094d4:	01363633          	sltu	a2,a2,s3
800094d8:	40c78933          	sub	s2,a5,a2
800094dc:	84b6                	mv	s1,a3
/home/hqfang/workspace/software/riscv-gnu-toolchain/riscv-gcc/libgcc/soft-fp/subdf3.c:46 (discriminator 380)
800094de:	06090463          	beqz	s2,80009546 <__subdf3+0x530>
/home/hqfang/workspace/software/riscv-gnu-toolchain/riscv-gcc/libgcc/soft-fp/subdf3.c:46 (discriminator 383)
800094e2:	854a                	mv	a0,s2
800094e4:	ee2fb0ef          	jal	ra,80004bc6 <__clzsi2>
/home/hqfang/workspace/software/riscv-gnu-toolchain/riscv-gcc/libgcc/soft-fp/subdf3.c:46 (discriminator 397)
800094e8:	ff850713          	addi	a4,a0,-8 # 7ffff8 <__stack_size+0x7ff7f8>
800094ec:	47fd                	li	a5,31
800094ee:	06e7c263          	blt	a5,a4,80009552 <__subdf3+0x53c>
/home/hqfang/workspace/software/riscv-gnu-toolchain/riscv-gcc/libgcc/soft-fp/subdf3.c:46 (discriminator 403)
800094f2:	02000793          	li	a5,32
800094f6:	8f99                	sub	a5,a5,a4
800094f8:	00e91933          	sll	s2,s2,a4
800094fc:	00f9d7b3          	srl	a5,s3,a5
80009500:	0127e7b3          	or	a5,a5,s2
80009504:	00e995b3          	sll	a1,s3,a4
/home/hqfang/workspace/software/riscv-gnu-toolchain/riscv-gcc/libgcc/soft-fp/subdf3.c:46 (discriminator 407)
80009508:	06874f63          	blt	a4,s0,80009586 <__subdf3+0x570>
/home/hqfang/workspace/software/riscv-gnu-toolchain/riscv-gcc/libgcc/soft-fp/subdf3.c:46 (discriminator 408)
8000950c:	8f01                	sub	a4,a4,s0
8000950e:	00170693          	addi	a3,a4,1 # ff800001 <_sp+0x6f7f0001>
80009512:	467d                	li	a2,31
80009514:	04d64563          	blt	a2,a3,8000955e <__subdf3+0x548>
/home/hqfang/workspace/software/riscv-gnu-toolchain/riscv-gcc/libgcc/soft-fp/subdf3.c:46 (discriminator 410)
80009518:	02000713          	li	a4,32
8000951c:	8f15                	sub	a4,a4,a3
8000951e:	00e79633          	sll	a2,a5,a4
80009522:	00d5d533          	srl	a0,a1,a3
80009526:	00e595b3          	sll	a1,a1,a4
8000952a:	8e49                	or	a2,a2,a0
8000952c:	00b035b3          	snez	a1,a1
80009530:	8dd1                	or	a1,a1,a2
80009532:	00d7d7b3          	srl	a5,a5,a3
/home/hqfang/workspace/software/riscv-gnu-toolchain/riscv-gcc/libgcc/soft-fp/subdf3.c:46 (discriminator 422)
80009536:	4401                	li	s0,0
80009538:	bb11                	j	8000924c <__subdf3+0x236>
/home/hqfang/workspace/software/riscv-gnu-toolchain/riscv-gcc/libgcc/soft-fp/subdf3.c:46 (discriminator 372)
8000953a:	0129e5b3          	or	a1,s3,s2
8000953e:	f1c5                	bnez	a1,800094de <__subdf3+0x4c8>
80009540:	4781                	li	a5,0
/home/hqfang/workspace/software/riscv-gnu-toolchain/riscv-gcc/libgcc/soft-fp/subdf3.c:46
80009542:	4401                	li	s0,0
80009544:	a8d9                	j	8000961a <__subdf3+0x604>
/home/hqfang/workspace/software/riscv-gnu-toolchain/riscv-gcc/libgcc/soft-fp/subdf3.c:46 (discriminator 390)
80009546:	854e                	mv	a0,s3
80009548:	e7efb0ef          	jal	ra,80004bc6 <__clzsi2>
8000954c:	02050513          	addi	a0,a0,32
80009550:	bf61                	j	800094e8 <__subdf3+0x4d2>
/home/hqfang/workspace/software/riscv-gnu-toolchain/riscv-gcc/libgcc/soft-fp/subdf3.c:46 (discriminator 399)
80009552:	fd850793          	addi	a5,a0,-40
80009556:	00f997b3          	sll	a5,s3,a5
8000955a:	4581                	li	a1,0
8000955c:	b775                	j	80009508 <__subdf3+0x4f2>
/home/hqfang/workspace/software/riscv-gnu-toolchain/riscv-gcc/libgcc/soft-fp/subdf3.c:46 (discriminator 411)
8000955e:	1705                	addi	a4,a4,-31
80009560:	02000613          	li	a2,32
80009564:	00e7d733          	srl	a4,a5,a4
80009568:	4501                	li	a0,0
8000956a:	00c68763          	beq	a3,a2,80009578 <__subdf3+0x562>
/home/hqfang/workspace/software/riscv-gnu-toolchain/riscv-gcc/libgcc/soft-fp/subdf3.c:46 (discriminator 419)
8000956e:	04000513          	li	a0,64
80009572:	8d15                	sub	a0,a0,a3
80009574:	00a79533          	sll	a0,a5,a0
/home/hqfang/workspace/software/riscv-gnu-toolchain/riscv-gcc/libgcc/soft-fp/subdf3.c:46 (discriminator 422)
80009578:	8d4d                	or	a0,a0,a1
8000957a:	00a03533          	snez	a0,a0
8000957e:	00a765b3          	or	a1,a4,a0
80009582:	4781                	li	a5,0
80009584:	bf4d                	j	80009536 <__subdf3+0x520>
/home/hqfang/workspace/software/riscv-gnu-toolchain/riscv-gcc/libgcc/soft-fp/subdf3.c:46 (discriminator 409)
80009586:	8c19                	sub	s0,s0,a4
80009588:	ff800737          	lui	a4,0xff800
8000958c:	177d                	addi	a4,a4,-1
8000958e:	8ff9                	and	a5,a5,a4
80009590:	b975                	j	8000924c <__subdf3+0x236>
/home/hqfang/workspace/software/riscv-gnu-toolchain/riscv-gcc/libgcc/soft-fp/subdf3.c:45
80009592:	87ba                	mv	a5,a4
80009594:	85b2                	mv	a1,a2
/home/hqfang/workspace/software/riscv-gnu-toolchain/riscv-gcc/libgcc/soft-fp/subdf3.c:46
80009596:	842a                	mv	s0,a0
80009598:	b955                	j	8000924c <__subdf3+0x236>
/home/hqfang/workspace/software/riscv-gnu-toolchain/riscv-gcc/libgcc/soft-fp/subdf3.c:45
8000959a:	87ba                	mv	a5,a4
8000959c:	85b2                	mv	a1,a2
8000959e:	b17d                	j	8000924c <__subdf3+0x236>
800095a0:	7ff00413          	li	s0,2047
800095a4:	4781                	li	a5,0
800095a6:	4581                	li	a1,0
/home/hqfang/workspace/software/riscv-gnu-toolchain/riscv-gcc/libgcc/soft-fp/subdf3.c:47 (discriminator 47)
800095a8:	00800737          	lui	a4,0x800
800095ac:	8f7d                	and	a4,a4,a5
800095ae:	cb11                	beqz	a4,800095c2 <__subdf3+0x5ac>
/home/hqfang/workspace/software/riscv-gnu-toolchain/riscv-gcc/libgcc/soft-fp/subdf3.c:47 (discriminator 63)
800095b0:	0405                	addi	s0,s0,1
800095b2:	7ff00713          	li	a4,2047
800095b6:	06e40b63          	beq	s0,a4,8000962c <__subdf3+0x616>
/home/hqfang/workspace/software/riscv-gnu-toolchain/riscv-gcc/libgcc/soft-fp/subdf3.c:47
800095ba:	ff800737          	lui	a4,0xff800
800095be:	177d                	addi	a4,a4,-1
800095c0:	8ff9                	and	a5,a5,a4
/home/hqfang/workspace/software/riscv-gnu-toolchain/riscv-gcc/libgcc/soft-fp/subdf3.c:47 (discriminator 79)
800095c2:	01d79713          	slli	a4,a5,0x1d
800095c6:	0035d513          	srli	a0,a1,0x3
800095ca:	8d59                	or	a0,a0,a4
800095cc:	7ff00713          	li	a4,2047
800095d0:	838d                	srli	a5,a5,0x3
800095d2:	00e41963          	bne	s0,a4,800095e4 <__subdf3+0x5ce>
/home/hqfang/workspace/software/riscv-gnu-toolchain/riscv-gcc/libgcc/soft-fp/subdf3.c:47 (discriminator 80)
800095d6:	8d5d                	or	a0,a0,a5
800095d8:	4781                	li	a5,0
800095da:	c509                	beqz	a0,800095e4 <__subdf3+0x5ce>
/home/hqfang/workspace/software/riscv-gnu-toolchain/riscv-gcc/libgcc/soft-fp/subdf3.c:47
800095dc:	000807b7          	lui	a5,0x80
800095e0:	4501                	li	a0,0
800095e2:	4481                	li	s1,0
/home/hqfang/workspace/software/riscv-gnu-toolchain/riscv-gcc/libgcc/soft-fp/subdf3.c:47 (discriminator 90)
800095e4:	01441713          	slli	a4,s0,0x14
800095e8:	7ff006b7          	lui	a3,0x7ff00
800095ec:	07b2                	slli	a5,a5,0xc
/home/hqfang/workspace/software/riscv-gnu-toolchain/riscv-gcc/libgcc/soft-fp/subdf3.c:51 (discriminator 90)
800095ee:	40f2                	lw	ra,28(sp)
800095f0:	4462                	lw	s0,24(sp)
/home/hqfang/workspace/software/riscv-gnu-toolchain/riscv-gcc/libgcc/soft-fp/subdf3.c:47 (discriminator 90)
800095f2:	8f75                	and	a4,a4,a3
800095f4:	83b1                	srli	a5,a5,0xc
800095f6:	04fe                	slli	s1,s1,0x1f
800095f8:	8fd9                	or	a5,a5,a4
800095fa:	0097e733          	or	a4,a5,s1
/home/hqfang/workspace/software/riscv-gnu-toolchain/riscv-gcc/libgcc/soft-fp/subdf3.c:51 (discriminator 90)
800095fe:	4942                	lw	s2,16(sp)
80009600:	44d2                	lw	s1,20(sp)
80009602:	49b2                	lw	s3,12(sp)
80009604:	85ba                	mv	a1,a4
80009606:	6105                	addi	sp,sp,32
80009608:	8082                	ret
8000960a:	8442                	mv	s0,a6
8000960c:	b181                	j	8000924c <__subdf3+0x236>
/home/hqfang/workspace/software/riscv-gnu-toolchain/riscv-gcc/libgcc/soft-fp/subdf3.c:45
8000960e:	87ba                	mv	a5,a4
80009610:	85b2                	mv	a1,a2
/home/hqfang/workspace/software/riscv-gnu-toolchain/riscv-gcc/libgcc/soft-fp/subdf3.c:46
80009612:	842a                	mv	s0,a0
80009614:	b599                	j	8000945a <__subdf3+0x444>
80009616:	4781                	li	a5,0
80009618:	4581                	li	a1,0
8000961a:	4481                	li	s1,0
8000961c:	b771                	j	800095a8 <__subdf3+0x592>
8000961e:	4781                	li	a5,0
80009620:	bfed                	j	8000961a <__subdf3+0x604>
80009622:	4581                	li	a1,0
80009624:	4481                	li	s1,0
80009626:	004007b7          	lui	a5,0x400
8000962a:	b989                	j	8000927c <__subdf3+0x266>
8000962c:	4781                	li	a5,0
8000962e:	4581                	li	a1,0
80009630:	bf49                	j	800095c2 <__subdf3+0x5ac>

80009632 <__unorddf2>:
__unorddf2():
/home/hqfang/workspace/software/riscv-gnu-toolchain/riscv-gcc/libgcc/soft-fp/unorddf2.c:42
80009632:	00100737          	lui	a4,0x100
80009636:	fff70793          	addi	a5,a4,-1 # fffff <__stack_size+0xff7ff>
8000963a:	00b7f733          	and	a4,a5,a1
8000963e:	81d1                	srli	a1,a1,0x14
/home/hqfang/workspace/software/riscv-gnu-toolchain/riscv-gcc/libgcc/soft-fp/unorddf2.c:43
80009640:	8ff5                	and	a5,a5,a3
/home/hqfang/workspace/software/riscv-gnu-toolchain/riscv-gcc/libgcc/soft-fp/unorddf2.c:42
80009642:	7ff5f593          	andi	a1,a1,2047
/home/hqfang/workspace/software/riscv-gnu-toolchain/riscv-gcc/libgcc/soft-fp/unorddf2.c:43
80009646:	82d1                	srli	a3,a3,0x14
/home/hqfang/workspace/software/riscv-gnu-toolchain/riscv-gcc/libgcc/soft-fp/unorddf2.c:44
80009648:	7ff00813          	li	a6,2047
/home/hqfang/workspace/software/riscv-gnu-toolchain/riscv-gcc/libgcc/soft-fp/unorddf2.c:43
8000964c:	7ff6f693          	andi	a3,a3,2047
/home/hqfang/workspace/software/riscv-gnu-toolchain/riscv-gcc/libgcc/soft-fp/unorddf2.c:44
80009650:	01059563          	bne	a1,a6,8000965a <__unorddf2+0x28>
/home/hqfang/workspace/software/riscv-gnu-toolchain/riscv-gcc/libgcc/soft-fp/unorddf2.c:44 (discriminator 20)
80009654:	8f49                	or	a4,a4,a0
80009656:	4505                	li	a0,1
80009658:	eb09                	bnez	a4,8000966a <__unorddf2+0x38>
/home/hqfang/workspace/software/riscv-gnu-toolchain/riscv-gcc/libgcc/soft-fp/unorddf2.c:44 (discriminator 23)
8000965a:	7ff00713          	li	a4,2047
8000965e:	4501                	li	a0,0
80009660:	00e69563          	bne	a3,a4,8000966a <__unorddf2+0x38>
/home/hqfang/workspace/software/riscv-gnu-toolchain/riscv-gcc/libgcc/soft-fp/unorddf2.c:44 (discriminator 24)
80009664:	8fd1                	or	a5,a5,a2
80009666:	00f03533          	snez	a0,a5
/home/hqfang/workspace/software/riscv-gnu-toolchain/riscv-gcc/libgcc/soft-fp/unorddf2.c:48
8000966a:	8082                	ret

8000966c <__fixdfsi>:
__fixdfsi():
/home/hqfang/workspace/software/riscv-gnu-toolchain/riscv-gcc/libgcc/soft-fp/fixdfsi.c:42
8000966c:	0145d713          	srli	a4,a1,0x14
80009670:	001006b7          	lui	a3,0x100
80009674:	fff68793          	addi	a5,a3,-1 # fffff <__stack_size+0xff7ff>
80009678:	7ff77713          	andi	a4,a4,2047
/home/hqfang/workspace/software/riscv-gnu-toolchain/riscv-gcc/libgcc/soft-fp/fixdfsi.c:43
8000967c:	3fe00613          	li	a2,1022
/home/hqfang/workspace/software/riscv-gnu-toolchain/riscv-gcc/libgcc/soft-fp/fixdfsi.c:42
80009680:	8fed                	and	a5,a5,a1
80009682:	81fd                	srli	a1,a1,0x1f
/home/hqfang/workspace/software/riscv-gnu-toolchain/riscv-gcc/libgcc/soft-fp/fixdfsi.c:43
80009684:	04e65463          	bge	a2,a4,800096cc <__fixdfsi+0x60>
/home/hqfang/workspace/software/riscv-gnu-toolchain/riscv-gcc/libgcc/soft-fp/fixdfsi.c:43 (discriminator 10)
80009688:	41d00613          	li	a2,1053
8000968c:	00e65863          	bge	a2,a4,8000969c <__fixdfsi+0x30>
/home/hqfang/workspace/software/riscv-gnu-toolchain/riscv-gcc/libgcc/soft-fp/fixdfsi.c:43 (discriminator 14)
80009690:	80000537          	lui	a0,0x80000
80009694:	fff54513          	not	a0,a0
80009698:	952e                	add	a0,a0,a1
8000969a:	8082                	ret
/home/hqfang/workspace/software/riscv-gnu-toolchain/riscv-gcc/libgcc/soft-fp/fixdfsi.c:43 (discriminator 13)
8000969c:	8fd5                	or	a5,a5,a3
8000969e:	43300693          	li	a3,1075
800096a2:	8e99                	sub	a3,a3,a4
800096a4:	467d                	li	a2,31
800096a6:	00d64d63          	blt	a2,a3,800096c0 <__fixdfsi+0x54>
/home/hqfang/workspace/software/riscv-gnu-toolchain/riscv-gcc/libgcc/soft-fp/fixdfsi.c:43 (discriminator 30)
800096aa:	bed70713          	addi	a4,a4,-1043
800096ae:	00e797b3          	sll	a5,a5,a4
800096b2:	00d55533          	srl	a0,a0,a3
800096b6:	8d5d                	or	a0,a0,a5
/home/hqfang/workspace/software/riscv-gnu-toolchain/riscv-gcc/libgcc/soft-fp/fixdfsi.c:43 (discriminator 43)
800096b8:	c999                	beqz	a1,800096ce <__fixdfsi+0x62>
/home/hqfang/workspace/software/riscv-gnu-toolchain/riscv-gcc/libgcc/soft-fp/fixdfsi.c:43 (discriminator 45)
800096ba:	40a00533          	neg	a0,a0
800096be:	8082                	ret
/home/hqfang/workspace/software/riscv-gnu-toolchain/riscv-gcc/libgcc/soft-fp/fixdfsi.c:43 (discriminator 42)
800096c0:	41300513          	li	a0,1043
800096c4:	8d19                	sub	a0,a0,a4
800096c6:	00a7d533          	srl	a0,a5,a0
800096ca:	b7fd                	j	800096b8 <__fixdfsi+0x4c>
/home/hqfang/workspace/software/riscv-gnu-toolchain/riscv-gcc/libgcc/soft-fp/fixdfsi.c:43
800096cc:	4501                	li	a0,0
/home/hqfang/workspace/software/riscv-gnu-toolchain/riscv-gcc/libgcc/soft-fp/fixdfsi.c:47 (discriminator 59)
800096ce:	8082                	ret

800096d0 <__floatsidf>:
__floatsidf():
/home/hqfang/workspace/software/riscv-gnu-toolchain/riscv-gcc/libgcc/soft-fp/floatsidf.c:37
800096d0:	1141                	addi	sp,sp,-16
800096d2:	c606                	sw	ra,12(sp)
800096d4:	c422                	sw	s0,8(sp)
800096d6:	c226                	sw	s1,4(sp)
/home/hqfang/workspace/software/riscv-gnu-toolchain/riscv-gcc/libgcc/soft-fp/floatsidf.c:41
800096d8:	cd29                	beqz	a0,80009732 <__floatsidf+0x62>
/home/hqfang/workspace/software/riscv-gnu-toolchain/riscv-gcc/libgcc/soft-fp/floatsidf.c:41 (discriminator 1)
800096da:	41f55793          	srai	a5,a0,0x1f
800096de:	00a7c433          	xor	s0,a5,a0
800096e2:	8c1d                	sub	s0,s0,a5
800096e4:	01f55493          	srli	s1,a0,0x1f
800096e8:	8522                	mv	a0,s0
800096ea:	cdcfb0ef          	jal	ra,80004bc6 <__clzsi2>
800096ee:	41e00713          	li	a4,1054
800096f2:	47a9                	li	a5,10
800096f4:	8f09                	sub	a4,a4,a0
800096f6:	02a7c863          	blt	a5,a0,80009726 <__floatsidf+0x56>
/home/hqfang/workspace/software/riscv-gnu-toolchain/riscv-gcc/libgcc/soft-fp/floatsidf.c:41 (discriminator 23)
800096fa:	47ad                	li	a5,11
800096fc:	8f89                	sub	a5,a5,a0
800096fe:	0555                	addi	a0,a0,21
80009700:	00f457b3          	srl	a5,s0,a5
80009704:	00a41433          	sll	s0,s0,a0
80009708:	8526                	mv	a0,s1
/home/hqfang/workspace/software/riscv-gnu-toolchain/riscv-gcc/libgcc/soft-fp/floatsidf.c:42 (discriminator 126)
8000970a:	07b2                	slli	a5,a5,0xc
8000970c:	0752                	slli	a4,a4,0x14
8000970e:	83b1                	srli	a5,a5,0xc
80009710:	057e                	slli	a0,a0,0x1f
80009712:	8fd9                	or	a5,a5,a4
/home/hqfang/workspace/software/riscv-gnu-toolchain/riscv-gcc/libgcc/soft-fp/floatsidf.c:45 (discriminator 126)
80009714:	40b2                	lw	ra,12(sp)
/home/hqfang/workspace/software/riscv-gnu-toolchain/riscv-gcc/libgcc/soft-fp/floatsidf.c:42 (discriminator 126)
80009716:	00a7e733          	or	a4,a5,a0
/home/hqfang/workspace/software/riscv-gnu-toolchain/riscv-gcc/libgcc/soft-fp/floatsidf.c:45 (discriminator 126)
8000971a:	8522                	mv	a0,s0
8000971c:	4422                	lw	s0,8(sp)
8000971e:	4492                	lw	s1,4(sp)
80009720:	85ba                	mv	a1,a4
80009722:	0141                	addi	sp,sp,16
80009724:	8082                	ret
/home/hqfang/workspace/software/riscv-gnu-toolchain/riscv-gcc/libgcc/soft-fp/floatsidf.c:41 (discriminator 24)
80009726:	1555                	addi	a0,a0,-11
80009728:	00a417b3          	sll	a5,s0,a0
8000972c:	8526                	mv	a0,s1
/home/hqfang/workspace/software/riscv-gnu-toolchain/riscv-gcc/libgcc/soft-fp/floatsidf.c:41
8000972e:	4401                	li	s0,0
80009730:	bfe9                	j	8000970a <__floatsidf+0x3a>
80009732:	4701                	li	a4,0
80009734:	4781                	li	a5,0
80009736:	bfe5                	j	8000972e <__floatsidf+0x5e>

80009738 <__floatunsidf>:
__floatunsidf():
/home/hqfang/workspace/software/riscv-gnu-toolchain/riscv-gcc/libgcc/soft-fp/floatunsidf.c:37
80009738:	1141                	addi	sp,sp,-16
8000973a:	c422                	sw	s0,8(sp)
8000973c:	c606                	sw	ra,12(sp)
8000973e:	842a                	mv	s0,a0
/home/hqfang/workspace/software/riscv-gnu-toolchain/riscv-gcc/libgcc/soft-fp/floatunsidf.c:41
80009740:	c129                	beqz	a0,80009782 <__floatunsidf+0x4a>
/home/hqfang/workspace/software/riscv-gnu-toolchain/riscv-gcc/libgcc/soft-fp/floatunsidf.c:41 (discriminator 6)
80009742:	c84fb0ef          	jal	ra,80004bc6 <__clzsi2>
80009746:	41e00713          	li	a4,1054
8000974a:	47a9                	li	a5,10
8000974c:	8f09                	sub	a4,a4,a0
8000974e:	02a7c463          	blt	a5,a0,80009776 <__floatunsidf+0x3e>
/home/hqfang/workspace/software/riscv-gnu-toolchain/riscv-gcc/libgcc/soft-fp/floatunsidf.c:41 (discriminator 23)
80009752:	47ad                	li	a5,11
80009754:	8f89                	sub	a5,a5,a0
80009756:	0555                	addi	a0,a0,21
80009758:	00f457b3          	srl	a5,s0,a5
8000975c:	00a41433          	sll	s0,s0,a0
/home/hqfang/workspace/software/riscv-gnu-toolchain/riscv-gcc/libgcc/soft-fp/floatunsidf.c:45 (discriminator 126)
80009760:	40b2                	lw	ra,12(sp)
80009762:	8522                	mv	a0,s0
/home/hqfang/workspace/software/riscv-gnu-toolchain/riscv-gcc/libgcc/soft-fp/floatunsidf.c:42 (discriminator 126)
80009764:	07b2                	slli	a5,a5,0xc
/home/hqfang/workspace/software/riscv-gnu-toolchain/riscv-gcc/libgcc/soft-fp/floatunsidf.c:45 (discriminator 126)
80009766:	4422                	lw	s0,8(sp)
/home/hqfang/workspace/software/riscv-gnu-toolchain/riscv-gcc/libgcc/soft-fp/floatunsidf.c:42 (discriminator 126)
80009768:	0752                	slli	a4,a4,0x14
8000976a:	83b1                	srli	a5,a5,0xc
8000976c:	00f766b3          	or	a3,a4,a5
/home/hqfang/workspace/software/riscv-gnu-toolchain/riscv-gcc/libgcc/soft-fp/floatunsidf.c:45 (discriminator 126)
80009770:	85b6                	mv	a1,a3
80009772:	0141                	addi	sp,sp,16
80009774:	8082                	ret
/home/hqfang/workspace/software/riscv-gnu-toolchain/riscv-gcc/libgcc/soft-fp/floatunsidf.c:41 (discriminator 24)
80009776:	ff550793          	addi	a5,a0,-11 # 7ffffff5 <_sp+0xeffefff5>
8000977a:	00f417b3          	sll	a5,s0,a5
8000977e:	4401                	li	s0,0
80009780:	b7c5                	j	80009760 <__floatunsidf+0x28>
/home/hqfang/workspace/software/riscv-gnu-toolchain/riscv-gcc/libgcc/soft-fp/floatunsidf.c:41
80009782:	4781                	li	a5,0
80009784:	4701                	li	a4,0
80009786:	bfe9                	j	80009760 <__floatunsidf+0x28>

80009788 <__trunctfdf2>:
__trunctfdf2():
/home/hqfang/workspace/software/riscv-gnu-toolchain/riscv-gcc/libgcc/soft-fp/trunctfdf2.c:37
80009788:	7179                	addi	sp,sp,-48
8000978a:	451c                	lw	a5,8(a0)
8000978c:	d422                	sw	s0,40(sp)
8000978e:	4540                	lw	s0,12(a0)
80009790:	4158                	lw	a4,4(a0)
80009792:	4114                	lw	a3,0(a0)
/home/hqfang/workspace/software/riscv-gnu-toolchain/riscv-gcc/libgcc/soft-fp/trunctfdf2.c:44
80009794:	c43e                	sw	a5,8(sp)
80009796:	cc3e                	sw	a5,24(sp)
80009798:	01041793          	slli	a5,s0,0x10
8000979c:	c23a                	sw	a4,4(sp)
8000979e:	ca3a                	sw	a4,20(sp)
800097a0:	83c1                	srli	a5,a5,0x10
800097a2:	00141713          	slli	a4,s0,0x1
800097a6:	c622                	sw	s0,12(sp)
/home/hqfang/workspace/software/riscv-gnu-toolchain/riscv-gcc/libgcc/soft-fp/trunctfdf2.c:37
800097a8:	d606                	sw	ra,44(sp)
800097aa:	d226                	sw	s1,36(sp)
/home/hqfang/workspace/software/riscv-gnu-toolchain/riscv-gcc/libgcc/soft-fp/trunctfdf2.c:44
800097ac:	c036                	sw	a3,0(sp)
800097ae:	c836                	sw	a3,16(sp)
800097b0:	ce3e                	sw	a5,28(sp)
800097b2:	8345                	srli	a4,a4,0x11
800097b4:	807d                	srli	s0,s0,0x1f
800097b6:	0808                	addi	a0,sp,16
800097b8:	0870                	addi	a2,sp,28
/home/hqfang/workspace/software/riscv-gnu-toolchain/riscv-gcc/libgcc/soft-fp/trunctfdf2.c:44 (discriminator 8)
800097ba:	421c                	lw	a5,0(a2)
800097bc:	ffc62683          	lw	a3,-4(a2) # 7feffffc <__stack_size+0x7feff7fc>
800097c0:	1671                	addi	a2,a2,-4
800097c2:	078e                	slli	a5,a5,0x3
800097c4:	82f5                	srli	a3,a3,0x1d
800097c6:	8fd5                	or	a5,a5,a3
800097c8:	c25c                	sw	a5,4(a2)
800097ca:	fec518e3          	bne	a0,a2,800097ba <__trunctfdf2+0x32>
/home/hqfang/workspace/software/riscv-gnu-toolchain/riscv-gcc/libgcc/soft-fp/trunctfdf2.c:44 (discriminator 9)
800097ce:	46c2                	lw	a3,16(sp)
/home/hqfang/workspace/software/riscv-gnu-toolchain/riscv-gcc/libgcc/soft-fp/trunctfdf2.c:46 (discriminator 9)
800097d0:	00170793          	addi	a5,a4,1
/home/hqfang/workspace/software/riscv-gnu-toolchain/riscv-gcc/libgcc/soft-fp/trunctfdf2.c:44 (discriminator 9)
800097d4:	00369593          	slli	a1,a3,0x3
/home/hqfang/workspace/software/riscv-gnu-toolchain/riscv-gcc/libgcc/soft-fp/trunctfdf2.c:46 (discriminator 9)
800097d8:	66a1                	lui	a3,0x8
800097da:	16f9                	addi	a3,a3,-2
/home/hqfang/workspace/software/riscv-gnu-toolchain/riscv-gcc/libgcc/soft-fp/trunctfdf2.c:44 (discriminator 9)
800097dc:	c82e                	sw	a1,16(sp)
/home/hqfang/workspace/software/riscv-gnu-toolchain/riscv-gcc/libgcc/soft-fp/trunctfdf2.c:46 (discriminator 9)
800097de:	8ff5                	and	a5,a5,a3
800097e0:	12078f63          	beqz	a5,8000991e <__trunctfdf2+0x196>
/home/hqfang/workspace/software/riscv-gnu-toolchain/riscv-gcc/libgcc/soft-fp/trunctfdf2.c:46 (discriminator 1)
800097e4:	77f1                	lui	a5,0xffffc
800097e6:	40078793          	addi	a5,a5,1024 # ffffc400 <_sp+0x6ffec400>
800097ea:	973e                	add	a4,a4,a5
800097ec:	7fe00793          	li	a5,2046
800097f0:	16e7c363          	blt	a5,a4,80009956 <__trunctfdf2+0x1ce>
/home/hqfang/workspace/software/riscv-gnu-toolchain/riscv-gcc/libgcc/soft-fp/trunctfdf2.c:46 (discriminator 4)
800097f4:	04e05663          	blez	a4,80009840 <__trunctfdf2+0xb8>
/home/hqfang/workspace/software/riscv-gnu-toolchain/riscv-gcc/libgcc/soft-fp/trunctfdf2.c:46
800097f8:	4562                	lw	a0,24(sp)
800097fa:	4672                	lw	a2,28(sp)
800097fc:	47d2                	lw	a5,20(sp)
800097fe:	01c55693          	srli	a3,a0,0x1c
80009802:	0612                	slli	a2,a2,0x4
80009804:	8e55                	or	a2,a2,a3
80009806:	00479693          	slli	a3,a5,0x4
8000980a:	8ecd                	or	a3,a3,a1
8000980c:	83f1                	srli	a5,a5,0x1c
8000980e:	0512                	slli	a0,a0,0x4
80009810:	00d036b3          	snez	a3,a3
80009814:	8fc9                	or	a5,a5,a0
80009816:	8edd                	or	a3,a3,a5
80009818:	ca32                	sw	a2,20(sp)
8000981a:	c836                	sw	a3,16(sp)
/home/hqfang/workspace/software/riscv-gnu-toolchain/riscv-gcc/libgcc/soft-fp/trunctfdf2.c:46 (discriminator 59)
8000981c:	46c2                	lw	a3,16(sp)
8000981e:	47d2                	lw	a5,20(sp)
/home/hqfang/workspace/software/riscv-gnu-toolchain/riscv-gcc/libgcc/soft-fp/trunctfdf2.c:50 (discriminator 117)
80009820:	0076f613          	andi	a2,a3,7
80009824:	12060d63          	beqz	a2,8000995e <__trunctfdf2+0x1d6>
/home/hqfang/workspace/software/riscv-gnu-toolchain/riscv-gcc/libgcc/soft-fp/trunctfdf2.c:50 (discriminator 37)
80009828:	00f6f613          	andi	a2,a3,15
8000982c:	4591                	li	a1,4
8000982e:	12b60863          	beq	a2,a1,8000995e <__trunctfdf2+0x1d6>
/home/hqfang/workspace/software/riscv-gnu-toolchain/riscv-gcc/libgcc/soft-fp/trunctfdf2.c:50 (discriminator 44)
80009832:	00468613          	addi	a2,a3,4 # 8004 <__stack_size+0x7804>
80009836:	00d636b3          	sltu	a3,a2,a3
8000983a:	97b6                	add	a5,a5,a3
8000983c:	86b2                	mv	a3,a2
8000983e:	a205                	j	8000995e <__trunctfdf2+0x1d6>
/home/hqfang/workspace/software/riscv-gnu-toolchain/riscv-gcc/libgcc/soft-fp/trunctfdf2.c:46 (discriminator 18)
80009840:	fcc00793          	li	a5,-52
80009844:	00f75763          	bge	a4,a5,80009852 <__trunctfdf2+0xca>
/home/hqfang/workspace/software/riscv-gnu-toolchain/riscv-gcc/libgcc/soft-fp/trunctfdf2.c:46 (discriminator 20)
80009848:	ca02                	sw	zero,20(sp)
8000984a:	4785                	li	a5,1
/home/hqfang/workspace/software/riscv-gnu-toolchain/riscv-gcc/libgcc/soft-fp/trunctfdf2.c:46 (discriminator 37)
8000984c:	c83e                	sw	a5,16(sp)
8000984e:	4701                	li	a4,0
80009850:	b7f1                	j	8000981c <__trunctfdf2+0x94>
/home/hqfang/workspace/software/riscv-gnu-toolchain/riscv-gcc/libgcc/soft-fp/trunctfdf2.c:46 (discriminator 21)
80009852:	47f2                	lw	a5,28(sp)
80009854:	000808b7          	lui	a7,0x80
/home/hqfang/workspace/software/riscv-gnu-toolchain/riscv-gcc/libgcc/soft-fp/trunctfdf2.c:44 (discriminator 21)
80009858:	85aa                	mv	a1,a0
/home/hqfang/workspace/software/riscv-gnu-toolchain/riscv-gcc/libgcc/soft-fp/trunctfdf2.c:46 (discriminator 21)
8000985a:	00f8e8b3          	or	a7,a7,a5
8000985e:	03d00793          	li	a5,61
80009862:	40e78733          	sub	a4,a5,a4
80009866:	ce46                	sw	a7,28(sp)
80009868:	40575793          	srai	a5,a4,0x5
8000986c:	4681                	li	a3,0
8000986e:	4481                	li	s1,0
/home/hqfang/workspace/software/riscv-gnu-toolchain/riscv-gcc/libgcc/soft-fp/trunctfdf2.c:46 (discriminator 25)
80009870:	0005a803          	lw	a6,0(a1)
80009874:	0685                	addi	a3,a3,1
80009876:	0591                	addi	a1,a1,4
80009878:	0104e4b3          	or	s1,s1,a6
8000987c:	fed79ae3          	bne	a5,a3,80009870 <__trunctfdf2+0xe8>
/home/hqfang/workspace/software/riscv-gnu-toolchain/riscv-gcc/libgcc/soft-fp/trunctfdf2.c:46 (discriminator 26)
80009880:	8b7d                	andi	a4,a4,31
80009882:	00279693          	slli	a3,a5,0x2
80009886:	e30d                	bnez	a4,800098a8 <__trunctfdf2+0x120>
/home/hqfang/workspace/software/riscv-gnu-toolchain/riscv-gcc/libgcc/soft-fp/trunctfdf2.c:46
80009888:	458d                	li	a1,3
8000988a:	8d9d                	sub	a1,a1,a5
/home/hqfang/workspace/software/riscv-gnu-toolchain/riscv-gcc/libgcc/soft-fp/trunctfdf2.c:46 (discriminator 31)
8000988c:	00d60833          	add	a6,a2,a3
80009890:	00082803          	lw	a6,0(a6)
80009894:	0705                	addi	a4,a4,1
80009896:	01062023          	sw	a6,0(a2)
8000989a:	0611                	addi	a2,a2,4
8000989c:	fee5d8e3          	bge	a1,a4,8000988c <__trunctfdf2+0x104>
800098a0:	4711                	li	a4,4
800098a2:	40f707b3          	sub	a5,a4,a5
800098a6:	a83d                	j	800098e4 <__trunctfdf2+0x15c>
800098a8:	5e71                	li	t3,-4
800098aa:	03c78e33          	mul	t3,a5,t3
/home/hqfang/workspace/software/riscv-gnu-toolchain/riscv-gcc/libgcc/soft-fp/trunctfdf2.c:46 (discriminator 28)
800098ae:	1010                	addi	a2,sp,32
800098b0:	9636                	add	a2,a2,a3
800098b2:	ff062603          	lw	a2,-16(a2)
800098b6:	02000813          	li	a6,32
800098ba:	40e80833          	sub	a6,a6,a4
800098be:	01061633          	sll	a2,a2,a6
800098c2:	8cd1                	or	s1,s1,a2
800098c4:	460d                	li	a2,3
800098c6:	96aa                	add	a3,a3,a0
800098c8:	4301                	li	t1,0
800098ca:	8e1d                	sub	a2,a2,a5
/home/hqfang/workspace/software/riscv-gnu-toolchain/riscv-gcc/libgcc/soft-fp/trunctfdf2.c:46 (discriminator 32)
800098cc:	02c34963          	blt	t1,a2,800098fe <__trunctfdf2+0x176>
/home/hqfang/workspace/software/riscv-gnu-toolchain/riscv-gcc/libgcc/soft-fp/trunctfdf2.c:46 (discriminator 35)
800098d0:	4691                	li	a3,4
800098d2:	40f687b3          	sub	a5,a3,a5
800098d6:	060a                	slli	a2,a2,0x2
800098d8:	1014                	addi	a3,sp,32
800098da:	9636                	add	a2,a2,a3
800098dc:	00e8d733          	srl	a4,a7,a4
800098e0:	fee62823          	sw	a4,-16(a2)
/home/hqfang/workspace/software/riscv-gnu-toolchain/riscv-gcc/libgcc/soft-fp/trunctfdf2.c:46 (discriminator 37)
800098e4:	4611                	li	a2,4
800098e6:	8e1d                	sub	a2,a2,a5
800098e8:	078a                	slli	a5,a5,0x2
800098ea:	953e                	add	a0,a0,a5
800098ec:	060a                	slli	a2,a2,0x2
800098ee:	4581                	li	a1,0
800098f0:	d4efd0ef          	jal	ra,80006e3e <memset>
800098f4:	4742                	lw	a4,16(sp)
800098f6:	009037b3          	snez	a5,s1
800098fa:	8fd9                	or	a5,a5,a4
800098fc:	bf81                	j	8000984c <__trunctfdf2+0xc4>
/home/hqfang/workspace/software/riscv-gnu-toolchain/riscv-gcc/libgcc/soft-fp/trunctfdf2.c:46 (discriminator 34)
800098fe:	428c                	lw	a1,0(a3)
80009900:	0046ae83          	lw	t4,4(a3)
80009904:	01c68f33          	add	t5,a3,t3
80009908:	00e5d5b3          	srl	a1,a1,a4
8000990c:	010e9eb3          	sll	t4,t4,a6
80009910:	01d5e5b3          	or	a1,a1,t4
80009914:	00bf2023          	sw	a1,0(t5)
80009918:	0305                	addi	t1,t1,1
8000991a:	0691                	addi	a3,a3,4
8000991c:	bf45                	j	800098cc <__trunctfdf2+0x144>
/home/hqfang/workspace/software/riscv-gnu-toolchain/riscv-gcc/libgcc/soft-fp/trunctfdf2.c:46 (discriminator 2)
8000991e:	4652                	lw	a2,20(sp)
80009920:	47e2                	lw	a5,24(sp)
80009922:	4572                	lw	a0,28(sp)
80009924:	00f666b3          	or	a3,a2,a5
80009928:	8ec9                	or	a3,a3,a0
8000992a:	8ecd                	or	a3,a3,a1
8000992c:	e709                	bnez	a4,80009936 <__trunctfdf2+0x1ae>
/home/hqfang/workspace/software/riscv-gnu-toolchain/riscv-gcc/libgcc/soft-fp/trunctfdf2.c:46 (discriminator 65)
8000992e:	00d036b3          	snez	a3,a3
80009932:	4781                	li	a5,0
80009934:	b5f5                	j	80009820 <__trunctfdf2+0x98>
/home/hqfang/workspace/software/riscv-gnu-toolchain/riscv-gcc/libgcc/soft-fp/trunctfdf2.c:46 (discriminator 62)
80009936:	c2d1                	beqz	a3,800099ba <__trunctfdf2+0x232>
/home/hqfang/workspace/software/riscv-gnu-toolchain/riscv-gcc/libgcc/soft-fp/trunctfdf2.c:46
80009938:	01c65693          	srli	a3,a2,0x1c
8000993c:	0512                	slli	a0,a0,0x4
8000993e:	00479613          	slli	a2,a5,0x4
80009942:	83f1                	srli	a5,a5,0x1c
80009944:	00400737          	lui	a4,0x400
80009948:	8ed1                	or	a3,a3,a2
8000994a:	8fc9                	or	a5,a5,a0
8000994c:	8fd9                	or	a5,a5,a4
8000994e:	9ae1                	andi	a3,a3,-8
80009950:	7ff00713          	li	a4,2047
80009954:	b5f1                	j	80009820 <__trunctfdf2+0x98>
80009956:	4781                	li	a5,0
80009958:	4681                	li	a3,0
8000995a:	7ff00713          	li	a4,2047
/home/hqfang/workspace/software/riscv-gnu-toolchain/riscv-gcc/libgcc/soft-fp/trunctfdf2.c:50 (discriminator 47)
8000995e:	00800637          	lui	a2,0x800
80009962:	8e7d                	and	a2,a2,a5
80009964:	ca11                	beqz	a2,80009978 <__trunctfdf2+0x1f0>
/home/hqfang/workspace/software/riscv-gnu-toolchain/riscv-gcc/libgcc/soft-fp/trunctfdf2.c:50 (discriminator 63)
80009966:	0705                	addi	a4,a4,1
80009968:	7ff00613          	li	a2,2047
8000996c:	04c70963          	beq	a4,a2,800099be <__trunctfdf2+0x236>
/home/hqfang/workspace/software/riscv-gnu-toolchain/riscv-gcc/libgcc/soft-fp/trunctfdf2.c:50
80009970:	ff800637          	lui	a2,0xff800
80009974:	167d                	addi	a2,a2,-1
80009976:	8ff1                	and	a5,a5,a2
/home/hqfang/workspace/software/riscv-gnu-toolchain/riscv-gcc/libgcc/soft-fp/trunctfdf2.c:50 (discriminator 79)
80009978:	01d79613          	slli	a2,a5,0x1d
8000997c:	828d                	srli	a3,a3,0x3
8000997e:	8ed1                	or	a3,a3,a2
80009980:	7ff00613          	li	a2,2047
80009984:	838d                	srli	a5,a5,0x3
80009986:	00c71963          	bne	a4,a2,80009998 <__trunctfdf2+0x210>
/home/hqfang/workspace/software/riscv-gnu-toolchain/riscv-gcc/libgcc/soft-fp/trunctfdf2.c:50 (discriminator 80)
8000998a:	8edd                	or	a3,a3,a5
8000998c:	4781                	li	a5,0
8000998e:	c689                	beqz	a3,80009998 <__trunctfdf2+0x210>
/home/hqfang/workspace/software/riscv-gnu-toolchain/riscv-gcc/libgcc/soft-fp/trunctfdf2.c:50
80009990:	000807b7          	lui	a5,0x80
80009994:	4681                	li	a3,0
80009996:	4401                	li	s0,0
/home/hqfang/workspace/software/riscv-gnu-toolchain/riscv-gcc/libgcc/soft-fp/trunctfdf2.c:50 (discriminator 90)
80009998:	0752                	slli	a4,a4,0x14
8000999a:	7ff00637          	lui	a2,0x7ff00
8000999e:	07b2                	slli	a5,a5,0xc
800099a0:	8f71                	and	a4,a4,a2
800099a2:	83b1                	srli	a5,a5,0xc
800099a4:	047e                	slli	s0,s0,0x1f
800099a6:	8fd9                	or	a5,a5,a4
/home/hqfang/workspace/software/riscv-gnu-toolchain/riscv-gcc/libgcc/soft-fp/trunctfdf2.c:54 (discriminator 90)
800099a8:	50b2                	lw	ra,44(sp)
/home/hqfang/workspace/software/riscv-gnu-toolchain/riscv-gcc/libgcc/soft-fp/trunctfdf2.c:50 (discriminator 90)
800099aa:	0087e733          	or	a4,a5,s0
/home/hqfang/workspace/software/riscv-gnu-toolchain/riscv-gcc/libgcc/soft-fp/trunctfdf2.c:54 (discriminator 90)
800099ae:	5422                	lw	s0,40(sp)
800099b0:	5492                	lw	s1,36(sp)
800099b2:	8536                	mv	a0,a3
800099b4:	85ba                	mv	a1,a4
800099b6:	6145                	addi	sp,sp,48
800099b8:	8082                	ret
800099ba:	4781                	li	a5,0
800099bc:	bf79                	j	8000995a <__trunctfdf2+0x1d2>
800099be:	4781                	li	a5,0
800099c0:	4681                	li	a3,0
800099c2:	bf5d                	j	80009978 <__trunctfdf2+0x1f0>
