
whetstone.elf:     file format elf32-littleriscv
whetstone.elf
architecture: riscv:rv32, flags 0x00000112:
EXEC_P, HAS_SYMS, D_PAGED
start address 0x80000000

Program Header:
    LOAD off    0x00001000 vaddr 0x80000000 paddr 0x80000000 align 2**12
         filesz 0x0000e18c memsz 0x0000e18c flags r-x
    LOAD off    0x00010000 vaddr 0x90000000 paddr 0x8000e18c align 2**12
         filesz 0x000003ac memsz 0x000003ac flags rw-
    LOAD off    0x000003ac vaddr 0x900003ac paddr 0x900003ac align 2**12
         filesz 0x00000000 memsz 0x00000238 flags rw-
    LOAD off    0x00000800 vaddr 0x9000f800 paddr 0x900005e4 align 2**12
         filesz 0x00000000 memsz 0x00000800 flags rw-

Sections:
Idx Name              Size      VMA       LMA       File off  Algn  Flags
  0 .init             000000cc  80000000  80000000  00001000  2**0  CONTENTS, ALLOC, LOAD, READONLY, CODE
  1 .ilalign          00000000  800000cc  800000cc  000103ac  2**0  CONTENTS
  2 .text             0000d370  800000cc  800000cc  000010cc  2**2  CONTENTS, ALLOC, LOAD, READONLY, CODE
  3 .rodata           00000d4c  8000d440  8000d440  0000e440  2**3  CONTENTS, ALLOC, LOAD, READONLY, DATA
  4 .lalign           00000000  8000e18c  8000e18c  000103ac  2**0  CONTENTS
  5 .dalign           00000000  90000000  90000000  000103ac  2**0  CONTENTS
  6 .data             000003ac  90000000  8000e18c  00010000  2**3  CONTENTS, ALLOC, LOAD, DATA
  7 .bss              00000238  900003ac  900003ac  000103ac  2**2  ALLOC
  8 .stack            00000800  9000f800  900005e4  00010800  2**0  ALLOC
  9 .debug_info       0000c144  00000000  00000000  000103ac  2**0  CONTENTS, READONLY, DEBUGGING, OCTETS
 10 .debug_abbrev     00003ab6  00000000  00000000  0001c4f0  2**0  CONTENTS, READONLY, DEBUGGING, OCTETS
 11 .debug_loc        0000ef6c  00000000  00000000  0001ffa6  2**0  CONTENTS, READONLY, DEBUGGING, OCTETS
 12 .debug_aranges    00000780  00000000  00000000  0002ef18  2**3  CONTENTS, READONLY, DEBUGGING, OCTETS
 13 .debug_ranges     00002128  00000000  00000000  0002f698  2**0  CONTENTS, READONLY, DEBUGGING, OCTETS
 14 .debug_line       00015253  00000000  00000000  000317c0  2**0  CONTENTS, READONLY, DEBUGGING, OCTETS
 15 .debug_str        0000249e  00000000  00000000  00046a13  2**0  CONTENTS, READONLY, DEBUGGING, OCTETS
 16 .comment          00000012  00000000  00000000  00048eb1  2**0  CONTENTS, READONLY
 17 .riscv.attributes 00000025  00000000  00000000  00048ec3  2**0  CONTENTS, READONLY
 18 .debug_frame      00000d40  00000000  00000000  00048ee8  2**2  CONTENTS, READONLY, DEBUGGING, OCTETS
SYMBOL TABLE:
80000000 l    d  .init	00000000 .init
800000cc l    d  .ilalign	00000000 .ilalign
800000cc l    d  .text	00000000 .text
8000d440 l    d  .rodata	00000000 .rodata
8000e18c l    d  .lalign	00000000 .lalign
90000000 l    d  .dalign	00000000 .dalign
90000000 l    d  .data	00000000 .data
900003ac l    d  .bss	00000000 .bss
9000f800 l    d  .stack	00000000 .stack
00000000 l    d  .debug_info	00000000 .debug_info
00000000 l    d  .debug_abbrev	00000000 .debug_abbrev
00000000 l    d  .debug_loc	00000000 .debug_loc
00000000 l    d  .debug_aranges	00000000 .debug_aranges
00000000 l    d  .debug_ranges	00000000 .debug_ranges
00000000 l    d  .debug_line	00000000 .debug_line
00000000 l    d  .debug_str	00000000 .debug_str
00000000 l    d  .comment	00000000 .comment
00000000 l    d  .riscv.attributes	00000000 .riscv.attributes
00000000 l    d  .debug_frame	00000000 .debug_frame
00000000 l    df *ABS*	00000000 whets.c
80000e24 l     F .text	00001b0c whetstones.constprop.0
9000046c l     O .bss	000000a2 headings
90000510 l     O .bss	00000024 loop_time
90000534 l     O .bss	00000024 results
900003b8 l     O .bss	00000004 Check
900003bc l     O .bss	00000004 TimeUsed
900003c0 l     O .bss	00000004 mwips
00000000 l    df *ABS*	00000000 close.c
00000000 l    df *ABS*	00000000 exit.c
00000000 l    df *ABS*	00000000 fstat.c
00000000 l    df *ABS*	00000000 getpid.c
00000000 l    df *ABS*	00000000 isatty.c
00000000 l    df *ABS*	00000000 kill.c
00000000 l    df *ABS*	00000000 lseek.c
00000000 l    df *ABS*	00000000 read.c
00000000 l    df *ABS*	00000000 sbrk.c
900001d0 l     O .data	00000004 curbrk.0
00000000 l    df *ABS*	00000000 write.c
00000000 l    df *ABS*	00000000 hbirdv2_gpio.c
00000000 l    df *ABS*	00000000 hbirdv2_uart.c
00000000 l    df *ABS*	00000000 hbirdv2_common.c
00000000 l    df *ABS*	00000000 system_hbirdv2.c
8000088c l     F .text	00000050 system_default_exception_handler
800008dc l     F .text	00000058 system_default_interrupt_handler
900003d4 l     O .bss	00000028 SystemCoreInterruptHandlers
900003fc l     O .bss	0000002c SystemExceptionHandlers
90000428 l     O .bss	00000044 SystemExtInterruptHandlers
00000000 l    df *ABS*	00000000 cpuidc.c
00000000 l    df *ABS*	00000000 sf_atan.c
8000d774 l     O .rodata	00000010 atanhi
8000d784 l     O .rodata	00000010 atanlo
00000000 l    df *ABS*	00000000 sf_cos.c
00000000 l    df *ABS*	00000000 sf_fabs.c
00000000 l    df *ABS*	00000000 sf_sin.c
00000000 l    df *ABS*	00000000 wf_exp.c
00000000 l    df *ABS*	00000000 wf_log.c
00000000 l    df *ABS*	00000000 wf_sqrt.c
00000000 l    df *ABS*	00000000 ef_exp.c
90000390 l     O .data	00000008 halF
90000398 l     O .data	00000008 ln2HI
900003a0 l     O .data	00000008 ln2LO
00000000 l    df *ABS*	00000000 ef_log.c
00000000 l    df *ABS*	00000000 ef_rem_pio2.c
8000d794 l     O .rodata	00000080 npio2_hw
8000d814 l     O .rodata	00000318 two_over_pi
00000000 l    df *ABS*	00000000 ef_sqrt.c
00000000 l    df *ABS*	00000000 kf_cos.c
00000000 l    df *ABS*	00000000 kf_rem_pio2.c
8000db2c l     O .rodata	0000002c PIo2
8000db58 l     O .rodata	0000000c init_jk
00000000 l    df *ABS*	00000000 kf_sin.c
00000000 l    df *ABS*	00000000 sf_finite.c
00000000 l    df *ABS*	00000000 sf_floor.c
00000000 l    df *ABS*	00000000 sf_nan.c
00000000 l    df *ABS*	00000000 sf_scalbn.c
00000000 l    df *ABS*	00000000 libgcc2.c
00000000 l    df *ABS*	00000000 addsf3.c
00000000 l    df *ABS*	00000000 divsf3.c
00000000 l    df *ABS*	00000000 eqsf2.c
00000000 l    df *ABS*	00000000 gesf2.c
00000000 l    df *ABS*	00000000 lesf2.c
00000000 l    df *ABS*	00000000 mulsf3.c
00000000 l    df *ABS*	00000000 subsf3.c
00000000 l    df *ABS*	00000000 unordsf2.c
00000000 l    df *ABS*	00000000 fixsfsi.c
00000000 l    df *ABS*	00000000 floatsisf.c
00000000 l    df *ABS*	00000000 floatunsisf.c
00000000 l    df *ABS*	00000000 floatundisf.c
00000000 l    df *ABS*	00000000 extendsfdf2.c
00000000 l    df *ABS*	00000000 libgcc2.c
00000000 l    df *ABS*	00000000 libgcc2.c
00000000 l    df *ABS*	00000000 libgcc2.c
00000000 l    df *ABS*	00000000 atexit.c
00000000 l    df *ABS*	00000000 errno.c
00000000 l    df *ABS*	00000000 fini.c
00000000 l    df *ABS*	00000000 init.c
00000000 l    df *ABS*	00000000 nano-vfprintf_float.c
00000000 l    df *ABS*	00000000 nano-vfprintf_i.c
00000000 l    df *ABS*	00000000 printf.c
00000000 l    df *ABS*	00000000 putchar.c
00000000 l    df *ABS*	00000000 putc.c
00000000 l    df *ABS*	00000000 puts.c
00000000 l    df *ABS*	00000000 strlen.c
00000000 l    df *ABS*	00000000 sysisatty.c
00000000 l    df *ABS*	00000000 wbuf.c
00000000 l    df *ABS*	00000000 wsetup.c
00000000 l    df *ABS*	00000000 __atexit.c
90000558 l     O .bss	0000008c _global_atexit0
00000000 l    df *ABS*	00000000 dtoa.c
80007a4c l     F .text	000001cc quorem
00000000 l    df *ABS*	00000000 fflush.c
00000000 l    df *ABS*	00000000 findfp.c
800090a0 l     F .text	00000088 std
00000000 l    df *ABS*	00000000 fwalk.c
00000000 l    df *ABS*	00000000 localeconv.c
00000000 l    df *ABS*	00000000 makebuf.c
00000000 l    df *ABS*	00000000 malloc.c
00000000 l    df *ABS*	00000000 mbtowc_r.c
00000000 l    df *ABS*	00000000 memchr.c
00000000 l    df *ABS*	00000000 memcpy.c
00000000 l    df *ABS*	00000000 mprec.c
8000dfb0 l     O .rodata	0000000c p05.0
00000000 l    df *ABS*	00000000 nano-mallocr.c
00000000 l    df *ABS*	00000000 nano-mallocr.c
00000000 l    df *ABS*	00000000 nano-mallocr.c
00000000 l    df *ABS*	00000000 nano-vfprintf.c
8000a6b8 l     F .text	0000003c __sfputc_r
00000000 l    df *ABS*	00000000 sbrkr.c
00000000 l    df *ABS*	00000000 stdio.c
00000000 l    df *ABS*	00000000 wctomb_r.c
00000000 l    df *ABS*	00000000 writer.c
00000000 l    df *ABS*	00000000 assert.c
00000000 l    df *ABS*	00000000 closer.c
00000000 l    df *ABS*	00000000 fprintf.c
00000000 l    df *ABS*	00000000 fstatr.c
00000000 l    df *ABS*	00000000 isattyr.c
00000000 l    df *ABS*	00000000 lseekr.c
00000000 l    df *ABS*	00000000 mlock.c
00000000 l    df *ABS*	00000000 readr.c
00000000 l    df *ABS*	00000000 abort.c
00000000 l    df *ABS*	00000000 signal.c
00000000 l    df *ABS*	00000000 signalr.c
00000000 l    df *ABS*	00000000 adddf3.c
00000000 l    df *ABS*	00000000 divdf3.c
00000000 l    df *ABS*	00000000 eqdf2.c
00000000 l    df *ABS*	00000000 gedf2.c
00000000 l    df *ABS*	00000000 ledf2.c
00000000 l    df *ABS*	00000000 muldf3.c
00000000 l    df *ABS*	00000000 subdf3.c
00000000 l    df *ABS*	00000000 unorddf2.c
00000000 l    df *ABS*	00000000 fixdfsi.c
00000000 l    df *ABS*	00000000 floatsidf.c
00000000 l    df *ABS*	00000000 floatunsidf.c
00000000 l    df *ABS*	00000000 trunctfdf2.c
00000000 l    df *ABS*	00000000 libgcc2.c
00000000 l    df *ABS*	00000000 locale.c
00000000 l    df *ABS*	00000000 ctype_.c
00000000 l    df *ABS*	00000000 impure.c
90000000 l     O .data	00000060 impure_data
00000000 l    df *ABS*	00000000 s_lib_ver.c
00000000 l    df *ABS*	00000000 
8000e18c l       .rodata	00000000 __fini_array_end
8000e18c l       .rodata	00000000 __fini_array_start
8000e18c l       .rodata	00000000 __init_array_end
8000e18c l       .rodata	00000000 __preinit_array_end
8000e18c l       .rodata	00000000 __init_array_start
8000e18c l       .rodata	00000000 __preinit_array_start
800064f8 g     F .text	00000158 __cvt
80007468 g     F .text	00000048 putchar
8000ae2c g     F .text	00000040 _isatty_r
8000636c g     F .text	00000038 .hidden __ashldi3
80000500  w    F .text	00000008 _getpid
80007574 g     F .text	00000160 _puts_r
8000ae6c g     F .text	00000048 _lseek_r
8000bedc g     F .text	0000008c .hidden __eqdf2
8000afd8 g     F .text	00000044 _kill_r
800073fc g     F .text	0000006c printf
900009d0 g       .data	00000000 __global_pointer$
8000ac40 g     F .text	00000058 __sseek
800091a0 g     F .text	000000b0 __sinit
900003ac g     O .bss	00000004 secs
80007700 g     F .text	00000138 __swbuf_r
80009134 g     F .text	0000006c __sfmoreglue
8000aeb8 g     F .text	00000004 __malloc_unlock
8000520c g     F .text	00000338 .hidden __divsf3
800097e0 g     F .text	000000e0 _Balloc
80005ecc g     F .text	00000070 .hidden __fixsfsi
8000bf68 g     F .text	000000e4 .hidden __gtdf2
80006404 g     F .text	00000008 __errno
80003614 g     F .text	00000470 __ieee754_rem_pio2f
80002e50 g     F .text	000000b0 logf
8000ade8 g     F .text	00000044 _fstat_r
900003c4 g     O .bss	00000004 errno
00000800 g       *ABS*	00000000 __stack_size
80005a1c g     F .text	0000046c .hidden __subsf3
8000077c g     F .text	00000024 uart_write
8000e18c g       .rodata	00000000 __rt_init_start
80002f00 g     F .text	00000080 sqrtf
8000e18c g       .rodata	00000000 __fsymtab_end
800000cc g       .ilalign	00000000 _ilm_lma
80009600 g     F .text	00000104 memcpy
80009128 g     F .text	0000000c _cleanup_r
8000cfb4 g     F .text	000000a8 .hidden __floatsidf
8000c04c g     F .text	000000e4 .hidden __ltdf2
800076d4 g     F .text	0000000c puts
8000e18c g       .rodata	00000000 __rt_init_end
80003264 g     F .text	000003b0 __ieee754_logf
900001d4 g     O .data	00000004 SystemCoreClock
80009574 g     F .text	0000000c malloc
800076fc g     F .text	00000004 isatty
8000af1c g     F .text	000000b0 _raise_r
800004d4  w    F .text	0000002c _fstat
8000ad18 g     F .text	0000004c __assert_func
800007c4 g     F .text	000000c8 get_cpu_freq
8000dee8 g     O .rodata	000000c8 __mprec_tens
80005660 g     F .text	000000b4 .hidden __lesf2
8000b01c g     F .text	00000004 _getpid_r
800093e8 g     F .text	0000000c _localeconv_r
80009b78 g     F .text	00000054 __i2b
80004750 g     F .text	00000014 finitef
8000ab2c g     F .text	00000040 _sbrk_r
80002cf4 g     F .text	0000000c fabsf
8000aebc g     F .text	00000048 _read_r
8000e18c g       .rodata	00000000 _eilm
80006258 g     F .text	000000dc .hidden __extendsfdf2
8000b020 g     F .text	000007d8 .hidden __adddf3
80005544 g     F .text	00000068 .hidden __nesf2
9000f800 g       .stack	00000000 _heap_end
80000508  w    F .text	00000008 _isatty
900001d8 g     O .data	00000004 __fdlib_version
900003a8 g     O .data	00000004 _global_impure_ptr
80006464 g     F .text	00000094 __libc_init_array
800045c8 g     F .text	00000188 __kernel_sinf
8000497c g     F .text	00000434 .hidden __udivdi3
8000dec0 g     O .rodata	00000028 __mprec_bigtens
8000af04 g     F .text	00000018 abort
8000d05c g     F .text	00000080 .hidden __floatunsidf
80000564  w    F .text	0000003c _sbrk
8000a07c g     F .text	00000054 __mcmp
80000d9c g     F .text	00000004 _init
80002f80 g     F .text	000002e4 __ieee754_expf
80002c48 g     F .text	000000ac cosf
8000640c g     F .text	00000058 __libc_fini_array
80009a54 g     F .text	00000074 __hi0bits
800000cc g       .ilalign	00000000 _ilm
8000cf34 g     F .text	00000080 .hidden __fixdfsi
80003ba4 g     F .text	0000019c __kernel_cosf
800074b0 g     F .text	000000c4 _putc_r
800055ac g     F .text	000000b4 .hidden __gtsf2
80000a34 g     F .text	00000364 _premain_init
8000ada4 g     F .text	00000044 fprintf
80006334 g     F .text	00000038 .hidden __lshrdi3
8000c04c g     F .text	000000e4 .hidden __ledf2
80009dd4 g     F .text	00000124 __pow5mult
8000ddf0 g     O .rodata	00000020 __sf_fake_stderr
80000de0 g     F .text	00000044 end_time
80000948 g     F .text	000000ec core_trap_handler
900003b0 g     O .bss	00000004 startSecs
80000da4 g     F .text	0000003c start_time
800063a4 g     F .text	0000004c .hidden __clzsi2
8000a6f4 g     F .text	00000074 __sfputs_r
80000728 g     F .text	00000054 uart_init
800095dc g     F .text	00000024 memchr
80006710  w    F .text	00000798 _printf_float
8000a46c g     F .text	000000fc _free_r
900003c8 g     O .bss	00000004 _global_atexit
90010000 g       .stack	00000000 _sp
80000000 g     F .init	00000000 _start
80000520  w    F .text	00000008 _lseek
80009ef8 g     F .text	00000184 __lshift
80005f3c g     F .text	00000108 .hidden __floatsisf
800079ac g     F .text	000000a0 __register_exitproc
80009bcc g     F .text	00000208 __multiply
80005544 g     F .text	00000068 .hidden __eqsf2
8000a2cc g     F .text	0000015c __d2b
8000ad64 g     F .text	00000040 _close_r
80006120 g     F .text	00000138 .hidden __floatundisf
80007838 g     F .text	00000174 __swsetup_r
8000b7f8 g     F .text	000006e4 .hidden __divdf3
80009250 g     F .text	000000e8 __sfp
8000c130 g     F .text	000005cc .hidden __muldf3
8000ab6c g     F .text	00000050 __sread
8000aeb4 g     F .text	00000004 __malloc_lock
80004854 g     F .text	00000128 scalbnf
80009000 g     F .text	000000a0 _fflush_r
8000a428 g     F .text	00000044 _calloc_r
8000de10 g     O .rodata	00000020 __sf_fake_stdin
900003ac g       .bss	00000000 __bss_start
80009704 g     F .text	000000dc memset
80003a84 g     F .text	00000120 __ieee754_sqrtf
800000cc g     F .text	000003f0 main
80000634  w      .text	00000000 trap_entry
80005660 g     F .text	000000b4 .hidden __ltsf2
8000ac98 g     F .text	00000008 __sclose
80007c18 g     F .text	000011f4 _dtoa_r
8000a568 g     F .text	00000150 _malloc_r
8000aca0 g     F .text	00000030 __ascii_wctomb
8000e18c g       .rodata	00000000 __vsymtab_start
80005714 g     F .text	00000308 .hidden __mulsf3
80000934 g     F .text	00000014 SystemInit
8000bedc g     F .text	0000008c .hidden __nedf2
80000da0 g     F .text	00000004 _fini
800073fc g     F .text	0000006c iprintf
8000dbdc g     O .rodata	00000100 .hidden __clz_tab
80006650 g     F .text	000000c0 __exponent
800063f0 g     F .text	00000014 atexit
800055ac g     F .text	000000b4 .hidden __gesf2
8000acd0 g     F .text	00000048 _write_r
80004848 g     F .text	0000000c nanf
80006ea8 g     F .text	000001b0 _printf_common
900001dc g     O .data	00000004 _impure_ptr
80008e0c g     F .text	000001f4 __sflush_r
80009580 g     F .text	0000005c __ascii_mbtowc
90000000 g       .dalign	00000000 _data
8000e18c g       .rodata	00000000 __vsymtab_end
80002d00 g     F .text	000000b0 sinf
800093f4 g     F .text	00000090 __swhatbuf_r
800005a0  w    F .text	00000094 _write
900003ac g       .bss	00000000 _edata
80000d98 g     F .text	00000004 _postmain_fini
900005e8 g       .bss	00000000 _end
80005e88 g     F .text	00000044 .hidden __unordsf2
8000e18c g       .lalign	00000000 _data_lma
800007a0 g     F .text	00000024 uart_read
8000abbc g     F .text	00000084 __swrite
8000ada4 g     F .text	00000044 fiprintf
8000a768 g     F .text	000003c4 _vfiprintf_r
80009338 g     F .text	000000b0 _fwalk_reent
80006044 g     F .text	000000dc .hidden __floatunsisf
8000a0d0 g     F .text	000001fc __mdiff
80000510  w    F .text	00000010 _kill
80002930 g     F .text	00000318 atanf
8000de30 g     O .rodata	00000020 __sf_fake_stdout
8000e010 g     O .rodata	00000101 _ctype_
80000528  w    F .text	0000003c _read
8000cee8 g     F .text	0000004c .hidden __unorddf2
800004cc  w    F .text	00000008 _exit
80003d40 g     F .text	00000888 __kernel_rem_pio2f
80002db0 g     F .text	000000a0 expf
80009484 g     F .text	000000f0 __smakebuf_r
800076e0 g     F .text	0000001c strlen
80007058 g     F .text	000003a4 _printf_i
8000bf68 g     F .text	000000e4 .hidden __gedf2
900003d0 g     O .bss	00000004 __malloc_sbrk_start
80004764 g     F .text	000000e4 floorf
900003cc g     O .bss	00000004 __malloc_free_list
8000e18c g       .rodata	00000000 __fsymtab_start
8000c6fc g     F .text	000007ec .hidden __subdf3
8000a768 g     F .text	000003c4 _vfprintf_r
80009ac8 g     F .text	000000b0 __lo0bits
900003b4 g     O .bss	00000004 theseSecs
80004db0 g     F .text	0000045c .hidden __addsf3
90000060 g     O .data	0000016c __global_locale
80000704 g     F .text	00000024 gpio_iof_config
8000d0dc g     F .text	00000360 .hidden __trunctfdf2
8000afcc g     F .text	0000000c raise
800004bc  w    F .text	00000010 _close
80009934 g     F .text	00000120 __multadd
800098c0 g     F .text	00000074 _Bfree



Disassembly of section .init:

80000000 <_start>:
_start():
E:\VMshare\e203\zhengdian_E203\sdk\whetstone\Debug/../hbird_sdk/SoC/hbirdv2/Common/Source/GCC/startup_hbirdv2.S:40
 * Reset Handler called on controller reset
 */
_start:
    /* ===== Startup Stage 1 ===== */
    /* Disable Global Interrupt */
    csrc CSR_MSTATUS, MSTATUS_MIE
80000000:	30047073          	csrci	mstatus,8
E:\VMshare\e203\zhengdian_E203\sdk\whetstone\Debug/../hbird_sdk/SoC/hbirdv2/Common/Source/GCC/startup_hbirdv2.S:42
    /* Disable all interrupts controlled by CSR MIE */
    csrw CSR_MIE, 0x0
80000004:	30405073          	csrwi	mie,0
E:\VMshare\e203\zhengdian_E203\sdk\whetstone\Debug/../hbird_sdk/SoC/hbirdv2/Common/Source/GCC/startup_hbirdv2.S:47

    /* Initialize GP and Stack Pointer SP */
    .option push
    .option norelax
    la gp, __global_pointer$
80000008:	10001197          	auipc	gp,0x10001
8000000c:	9c818193          	addi	gp,gp,-1592 # 900009d0 <__global_pointer$>
E:\VMshare\e203\zhengdian_E203\sdk\whetstone\Debug/../hbird_sdk/SoC/hbirdv2/Common/Source/GCC/startup_hbirdv2.S:49
    .option pop
    la sp, _sp
80000010:	10010117          	auipc	sp,0x10010
80000014:	ff010113          	addi	sp,sp,-16 # 90010000 <_sp>
E:\VMshare\e203\zhengdian_E203\sdk\whetstone\Debug/../hbird_sdk/SoC/hbirdv2/Common/Source/GCC/startup_hbirdv2.S:54

    /*
     * Set Trap Entry MTVEC to trap_entry
     */
    la t0, trap_entry
80000018:	00000297          	auipc	t0,0x0
8000001c:	61c28293          	addi	t0,t0,1564 # 80000634 <trap_entry>
E:\VMshare\e203\zhengdian_E203\sdk\whetstone\Debug/../hbird_sdk/SoC/hbirdv2/Common/Source/GCC/startup_hbirdv2.S:55
    csrw CSR_MTVEC, t0
80000020:	30529073          	csrw	mtvec,t0
E:\VMshare\e203\zhengdian_E203\sdk\whetstone\Debug/../hbird_sdk/SoC/hbirdv2/Common/Source/GCC/startup_hbirdv2.S:58

    /* Direct Mode: All exceptions set pc to BASE. */
    csrc CSR_MTVEC, 0x3
80000024:	3051f073          	csrci	mtvec,3
E:\VMshare\e203\zhengdian_E203\sdk\whetstone\Debug/../hbird_sdk/SoC/hbirdv2/Common/Source/GCC/startup_hbirdv2.S:74
    /* ===== Startup Stage 3 ===== */
    /*
     * Load code section frm FLASH to ILM
     * when code LMA is different with VMA
     */
    la a0, _ilm_lma
80000028:	00000517          	auipc	a0,0x0
8000002c:	0a450513          	addi	a0,a0,164 # 800000cc <main>
E:\VMshare\e203\zhengdian_E203\sdk\whetstone\Debug/../hbird_sdk/SoC/hbirdv2/Common/Source/GCC/startup_hbirdv2.S:75
    la a1, _ilm
80000030:	00000597          	auipc	a1,0x0
80000034:	09c58593          	addi	a1,a1,156 # 800000cc <main>
E:\VMshare\e203\zhengdian_E203\sdk\whetstone\Debug/../hbird_sdk/SoC/hbirdv2/Common/Source/GCC/startup_hbirdv2.S:77
    /* If the ILM phy-address same as the logic-address, then quit */
    beq a0, a1, 2f
80000038:	02b50263          	beq	a0,a1,8000005c <_start+0x5c>
E:\VMshare\e203\zhengdian_E203\sdk\whetstone\Debug/../hbird_sdk/SoC/hbirdv2/Common/Source/GCC/startup_hbirdv2.S:78
    la a2, _eilm
8000003c:	0000e617          	auipc	a2,0xe
80000040:	15060613          	addi	a2,a2,336 # 8000e18c <__fsymtab_end>
E:\VMshare\e203\zhengdian_E203\sdk\whetstone\Debug/../hbird_sdk/SoC/hbirdv2/Common/Source/GCC/startup_hbirdv2.S:79
    bgeu a1, a2, 2f
80000044:	00c5fc63          	bgeu	a1,a2,8000005c <_start+0x5c>
E:\VMshare\e203\zhengdian_E203\sdk\whetstone\Debug/../hbird_sdk/SoC/hbirdv2/Common/Source/GCC/startup_hbirdv2.S:83

1:
    /* Load code section if necessary */
    lw t0, (a0)
80000048:	00052283          	lw	t0,0(a0)
E:\VMshare\e203\zhengdian_E203\sdk\whetstone\Debug/../hbird_sdk/SoC/hbirdv2/Common/Source/GCC/startup_hbirdv2.S:84
    sw t0, (a1)
8000004c:	0055a023          	sw	t0,0(a1)
E:\VMshare\e203\zhengdian_E203\sdk\whetstone\Debug/../hbird_sdk/SoC/hbirdv2/Common/Source/GCC/startup_hbirdv2.S:85
    addi a0, a0, 4
80000050:	00450513          	addi	a0,a0,4
E:\VMshare\e203\zhengdian_E203\sdk\whetstone\Debug/../hbird_sdk/SoC/hbirdv2/Common/Source/GCC/startup_hbirdv2.S:86
    addi a1, a1, 4
80000054:	00458593          	addi	a1,a1,4
E:\VMshare\e203\zhengdian_E203\sdk\whetstone\Debug/../hbird_sdk/SoC/hbirdv2/Common/Source/GCC/startup_hbirdv2.S:87
    bltu a1, a2, 1b
80000058:	fec5e8e3          	bltu	a1,a2,80000048 <_start+0x48>
E:\VMshare\e203\zhengdian_E203\sdk\whetstone\Debug/../hbird_sdk/SoC/hbirdv2/Common/Source/GCC/startup_hbirdv2.S:90
2:
    /* Load data section */
    la a0, _data_lma
8000005c:	0000e517          	auipc	a0,0xe
80000060:	13050513          	addi	a0,a0,304 # 8000e18c <__fsymtab_end>
E:\VMshare\e203\zhengdian_E203\sdk\whetstone\Debug/../hbird_sdk/SoC/hbirdv2/Common/Source/GCC/startup_hbirdv2.S:91
    la a1, _data
80000064:	10000597          	auipc	a1,0x10000
80000068:	f9c58593          	addi	a1,a1,-100 # 90000000 <impure_data>
E:\VMshare\e203\zhengdian_E203\sdk\whetstone\Debug/../hbird_sdk/SoC/hbirdv2/Common/Source/GCC/startup_hbirdv2.S:92
    la a2, _edata
8000006c:	9dc18613          	addi	a2,gp,-1572 # 900003ac <secs>
E:\VMshare\e203\zhengdian_E203\sdk\whetstone\Debug/../hbird_sdk/SoC/hbirdv2/Common/Source/GCC/startup_hbirdv2.S:93
    bgeu a1, a2, 2f
80000070:	00c5fc63          	bgeu	a1,a2,80000088 <_start+0x88>
E:\VMshare\e203\zhengdian_E203\sdk\whetstone\Debug/../hbird_sdk/SoC/hbirdv2/Common/Source/GCC/startup_hbirdv2.S:95
1:
    lw t0, (a0)
80000074:	00052283          	lw	t0,0(a0)
E:\VMshare\e203\zhengdian_E203\sdk\whetstone\Debug/../hbird_sdk/SoC/hbirdv2/Common/Source/GCC/startup_hbirdv2.S:96
    sw t0, (a1)
80000078:	0055a023          	sw	t0,0(a1)
E:\VMshare\e203\zhengdian_E203\sdk\whetstone\Debug/../hbird_sdk/SoC/hbirdv2/Common/Source/GCC/startup_hbirdv2.S:97
    addi a0, a0, 4
8000007c:	00450513          	addi	a0,a0,4
E:\VMshare\e203\zhengdian_E203\sdk\whetstone\Debug/../hbird_sdk/SoC/hbirdv2/Common/Source/GCC/startup_hbirdv2.S:98
    addi a1, a1, 4
80000080:	00458593          	addi	a1,a1,4
E:\VMshare\e203\zhengdian_E203\sdk\whetstone\Debug/../hbird_sdk/SoC/hbirdv2/Common/Source/GCC/startup_hbirdv2.S:99
    bltu a1, a2, 1b
80000084:	fec5e8e3          	bltu	a1,a2,80000074 <_start+0x74>
E:\VMshare\e203\zhengdian_E203\sdk\whetstone\Debug/../hbird_sdk/SoC/hbirdv2/Common/Source/GCC/startup_hbirdv2.S:102
2:
    /* Clear bss section */
    la a0, __bss_start
80000088:	9dc18513          	addi	a0,gp,-1572 # 900003ac <secs>
E:\VMshare\e203\zhengdian_E203\sdk\whetstone\Debug/../hbird_sdk/SoC/hbirdv2/Common/Source/GCC/startup_hbirdv2.S:103
    la a1, _end
8000008c:	c1818593          	addi	a1,gp,-1000 # 900005e8 <_end>
E:\VMshare\e203\zhengdian_E203\sdk\whetstone\Debug/../hbird_sdk/SoC/hbirdv2/Common/Source/GCC/startup_hbirdv2.S:104
    bgeu a0, a1, 2f
80000090:	00b57863          	bgeu	a0,a1,800000a0 <_start+0xa0>
E:\VMshare\e203\zhengdian_E203\sdk\whetstone\Debug/../hbird_sdk/SoC/hbirdv2/Common/Source/GCC/startup_hbirdv2.S:106
1:
    sw zero, (a0)
80000094:	00052023          	sw	zero,0(a0)
E:\VMshare\e203\zhengdian_E203\sdk\whetstone\Debug/../hbird_sdk/SoC/hbirdv2/Common/Source/GCC/startup_hbirdv2.S:107
    addi a0, a0, 4
80000098:	00450513          	addi	a0,a0,4
E:\VMshare\e203\zhengdian_E203\sdk\whetstone\Debug/../hbird_sdk/SoC/hbirdv2/Common/Source/GCC/startup_hbirdv2.S:108
    bltu a0, a1, 1b
8000009c:	feb56ce3          	bltu	a0,a1,80000094 <_start+0x94>
E:\VMshare\e203\zhengdian_E203\sdk\whetstone\Debug/../hbird_sdk/SoC/hbirdv2/Common/Source/GCC/startup_hbirdv2.S:115

    /*
     * Call vendor defined SystemInit to
     * initialize the micro-controller system
     */
    call SystemInit
800000a0:	095000ef          	jal	ra,80000934 <SystemInit>
E:\VMshare\e203\zhengdian_E203\sdk\whetstone\Debug/../hbird_sdk/SoC/hbirdv2/Common/Source/GCC/startup_hbirdv2.S:118

    /* Call global constructors */
    la a0, __libc_fini_array
800000a4:	00006517          	auipc	a0,0x6
800000a8:	36850513          	addi	a0,a0,872 # 8000640c <__libc_fini_array>
E:\VMshare\e203\zhengdian_E203\sdk\whetstone\Debug/../hbird_sdk/SoC/hbirdv2/Common/Source/GCC/startup_hbirdv2.S:119
    call atexit
800000ac:	344060ef          	jal	ra,800063f0 <atexit>
E:\VMshare\e203\zhengdian_E203\sdk\whetstone\Debug/../hbird_sdk/SoC/hbirdv2/Common/Source/GCC/startup_hbirdv2.S:121
    /* Call C/C++ constructor start up code */
    call __libc_init_array
800000b0:	3b4060ef          	jal	ra,80006464 <__libc_init_array>
E:\VMshare\e203\zhengdian_E203\sdk\whetstone\Debug/../hbird_sdk/SoC/hbirdv2/Common/Source/GCC/startup_hbirdv2.S:124

    /* do pre-init steps before main */
    call _premain_init
800000b4:	181000ef          	jal	ra,80000a34 <_premain_init>
E:\VMshare\e203\zhengdian_E203\sdk\whetstone\Debug/../hbird_sdk/SoC/hbirdv2/Common/Source/GCC/startup_hbirdv2.S:127
    /* ===== Call Main Function  ===== */
    /* argc = argv = 0 */
    li a0, 0
800000b8:	00000513          	li	a0,0
E:\VMshare\e203\zhengdian_E203\sdk\whetstone\Debug/../hbird_sdk/SoC/hbirdv2/Common/Source/GCC/startup_hbirdv2.S:128
    li a1, 0
800000bc:	00000593          	li	a1,0
E:\VMshare\e203\zhengdian_E203\sdk\whetstone\Debug/../hbird_sdk/SoC/hbirdv2/Common/Source/GCC/startup_hbirdv2.S:134

#ifdef RTOS_RTTHREAD
    // Call entry function when using RT-Thread
    call entry
#else
    call main
800000c0:	00c000ef          	jal	ra,800000cc <main>
E:\VMshare\e203\zhengdian_E203\sdk\whetstone\Debug/../hbird_sdk/SoC/hbirdv2/Common/Source/GCC/startup_hbirdv2.S:137
#endif
    /* do post-main steps after main */
    call _postmain_fini
800000c4:	4d5000ef          	jal	ra,80000d98 <_postmain_fini>
E:\VMshare\e203\zhengdian_E203\sdk\whetstone\Debug/../hbird_sdk/SoC/hbirdv2/Common/Source/GCC/startup_hbirdv2.S:140

1:
    j 1b
800000c8:	0000006f          	j	800000c8 <_start+0xc8>

Disassembly of section .text:

800000cc <main>:
main():
E:\VMshare\e203\zhengdian_E203\sdk\whetstone\Debug/../application/whets.c:207
static SPDP mwips;
static char headings[9][18];
static SPDP Check;
static SPDP results[9];
int main()
{
800000cc:	fd010113          	addi	sp,sp,-48
E:\VMshare\e203\zhengdian_E203\sdk\whetstone\Debug/../application/whets.c:218
    int duration = 1;
#else
    int duration = 10;
#endif

    printf("\n");
800000d0:	00a00513          	li	a0,10
E:\VMshare\e203\zhengdian_E203\sdk\whetstone\Debug/../application/whets.c:207
{
800000d4:	02112623          	sw	ra,44(sp)
800000d8:	02812423          	sw	s0,40(sp)
800000dc:	02912223          	sw	s1,36(sp)
800000e0:	03212023          	sw	s2,32(sp)
800000e4:	01512a23          	sw	s5,20(sp)
800000e8:	01612823          	sw	s6,16(sp)
800000ec:	01312e23          	sw	s3,28(sp)
800000f0:	01412c23          	sw	s4,24(sp)
800000f4:	01712623          	sw	s7,12(sp)
800000f8:	01812423          	sw	s8,8(sp)
E:\VMshare\e203\zhengdian_E203\sdk\whetstone\Debug/../application/whets.c:218
    printf("\n");
800000fc:	36c070ef          	jal	ra,80007468 <putchar>
E:\VMshare\e203\zhengdian_E203\sdk\whetstone\Debug/../application/whets.c:219
    printf("##########################################\n");
80000100:	0000d517          	auipc	a0,0xd
80000104:	44850513          	addi	a0,a0,1096 # 8000d548 <__trunctfdf2+0x46c>
80000108:	5cc070ef          	jal	ra,800076d4 <puts>
E:\VMshare\e203\zhengdian_E203\sdk\whetstone\Debug/../application/whets.c:220
    printf("%s Precision C Whetstone Benchmark %s \n", Precision, opt);
8000010c:	0000d617          	auipc	a2,0xd
80000110:	46860613          	addi	a2,a2,1128 # 8000d574 <__trunctfdf2+0x498>
80000114:	0000d597          	auipc	a1,0xd
80000118:	47058593          	addi	a1,a1,1136 # 8000d584 <__trunctfdf2+0x4a8>
8000011c:	0000d517          	auipc	a0,0xd
80000120:	47050513          	addi	a0,a0,1136 # 8000d58c <__trunctfdf2+0x4b0>
80000124:	2d8070ef          	jal	ra,800073fc <iprintf>
E:\VMshare\e203\zhengdian_E203\sdk\whetstone\Debug/../application/whets.c:222

    printf("Calibrate\n");
80000128:	0000d517          	auipc	a0,0xd
8000012c:	48c50513          	addi	a0,a0,1164 # 8000d5b4 <__trunctfdf2+0x4d8>
80000130:	5a4070ef          	jal	ra,800076d4 <puts>
E:\VMshare\e203\zhengdian_E203\sdk\whetstone\Debug/../application/whets.c:224
    do {
        TimeUsed = 0;
80000134:	00000793          	li	a5,0
80000138:	9ec18493          	addi	s1,gp,-1556 # 900003bc <TimeUsed>
E:\VMshare\e203\zhengdian_E203\sdk\whetstone\Debug/../application/whets.c:226

        whetstones(xtra, x100, calibrate);
8000013c:	00100593          	li	a1,1
80000140:	00100513          	li	a0,1
E:\VMshare\e203\zhengdian_E203\sdk\whetstone\Debug/../application/whets.c:224
        TimeUsed = 0;
80000144:	00f4a023          	sw	a5,0(s1)
80000148:	10000a97          	auipc	s5,0x10000
8000014c:	100aaa83          	lw	s5,256(s5) # 90000248 <_impure_ptr+0x6c>
E:\VMshare\e203\zhengdian_E203\sdk\whetstone\Debug/../application/whets.c:226
        whetstones(xtra, x100, calibrate);
80000150:	4d5000ef          	jal	ra,80000e24 <whetstones.constprop.0>
E:\VMshare\e203\zhengdian_E203\sdk\whetstone\Debug/../application/whets.c:228
        printf("%11.2f Seconds %10.0lf   Passes (x 100)\n", TimeUsed,
               (SPDP)(xtra));
80000154:	00100513          	li	a0,1
80000158:	5e5050ef          	jal	ra,80005f3c <__floatsisf>
E:\VMshare\e203\zhengdian_E203\sdk\whetstone\Debug/../application/whets.c:227
        printf("%11.2f Seconds %10.0lf   Passes (x 100)\n", TimeUsed,
8000015c:	0fc060ef          	jal	ra,80006258 <__extendsfdf2>
80000160:	00050913          	mv	s2,a0
80000164:	0004a503          	lw	a0,0(s1)
80000168:	00058413          	mv	s0,a1
8000016c:	0000db17          	auipc	s6,0xd
80000170:	454b0b13          	addi	s6,s6,1108 # 8000d5c0 <__trunctfdf2+0x4e4>
80000174:	0e4060ef          	jal	ra,80006258 <__extendsfdf2>
80000178:	00050613          	mv	a2,a0
8000017c:	00058693          	mv	a3,a1
80000180:	00090713          	mv	a4,s2
80000184:	00040793          	mv	a5,s0
80000188:	000b0513          	mv	a0,s6
8000018c:	270070ef          	jal	ra,800073fc <iprintf>
E:\VMshare\e203\zhengdian_E203\sdk\whetstone\Debug/../application/whets.c:235
        count--;

#if CFG_SIMU
        if (TimeUsed > 0.02)
#else
        if (TimeUsed > 2.0)
80000190:	0004a903          	lw	s2,0(s1)
80000194:	000a8593          	mv	a1,s5
80000198:	00100413          	li	s0,1
8000019c:	00090513          	mv	a0,s2
800001a0:	40c050ef          	jal	ra,800055ac <__gesf2>
800001a4:	14a04463          	bgtz	a0,800002ec <main+0x220>
800001a8:	00b00b93          	li	s7,11
800001ac:	00200993          	li	s3,2
E:\VMshare\e203\zhengdian_E203\sdk\whetstone\Debug/../application/whets.c:240
#endif
        {
            count = 0;
        } else {
            xtra = xtra * 5;
800001b0:	00500413          	li	s0,5
E:\VMshare\e203\zhengdian_E203\sdk\whetstone\Debug/../application/whets.c:226
        whetstones(xtra, x100, calibrate);
800001b4:	00098593          	mv	a1,s3
800001b8:	00040513          	mv	a0,s0
E:\VMshare\e203\zhengdian_E203\sdk\whetstone\Debug/../application/whets.c:224
        TimeUsed = 0;
800001bc:	00000c13          	li	s8,0
800001c0:	0184a023          	sw	s8,0(s1)
E:\VMshare\e203\zhengdian_E203\sdk\whetstone\Debug/../application/whets.c:226
        whetstones(xtra, x100, calibrate);
800001c4:	461000ef          	jal	ra,80000e24 <whetstones.constprop.0>
E:\VMshare\e203\zhengdian_E203\sdk\whetstone\Debug/../application/whets.c:228
               (SPDP)(xtra));
800001c8:	00040513          	mv	a0,s0
800001cc:	571050ef          	jal	ra,80005f3c <__floatsisf>
E:\VMshare\e203\zhengdian_E203\sdk\whetstone\Debug/../application/whets.c:227
        printf("%11.2f Seconds %10.0lf   Passes (x 100)\n", TimeUsed,
800001d0:	088060ef          	jal	ra,80006258 <__extendsfdf2>
800001d4:	00050a13          	mv	s4,a0
800001d8:	0004a503          	lw	a0,0(s1)
800001dc:	00058913          	mv	s2,a1
800001e0:	078060ef          	jal	ra,80006258 <__extendsfdf2>
800001e4:	00050613          	mv	a2,a0
800001e8:	00058693          	mv	a3,a1
800001ec:	000a0713          	mv	a4,s4
800001f0:	00090793          	mv	a5,s2
800001f4:	000b0513          	mv	a0,s6
800001f8:	204070ef          	jal	ra,800073fc <iprintf>
E:\VMshare\e203\zhengdian_E203\sdk\whetstone\Debug/../application/whets.c:235
        if (TimeUsed > 2.0)
800001fc:	0004a903          	lw	s2,0(s1)
80000200:	000a8593          	mv	a1,s5
E:\VMshare\e203\zhengdian_E203\sdk\whetstone\Debug/../application/whets.c:229
        calibrate++;
80000204:	00198a13          	addi	s4,s3,1
E:\VMshare\e203\zhengdian_E203\sdk\whetstone\Debug/../application/whets.c:235
        if (TimeUsed > 2.0)
80000208:	00090513          	mv	a0,s2
8000020c:	3a0050ef          	jal	ra,800055ac <__gesf2>
E:\VMshare\e203\zhengdian_E203\sdk\whetstone\Debug/../application/whets.c:240
            xtra = xtra * 5;
80000210:	00241293          	slli	t0,s0,0x2
E:\VMshare\e203\zhengdian_E203\sdk\whetstone\Debug/../application/whets.c:226
        whetstones(xtra, x100, calibrate);
80000214:	000a0593          	mv	a1,s4
E:\VMshare\e203\zhengdian_E203\sdk\whetstone\Debug/../application/whets.c:235
        if (TimeUsed > 2.0)
80000218:	0ca04a63          	bgtz	a0,800002ec <main+0x220>
E:\VMshare\e203\zhengdian_E203\sdk\whetstone\Debug/../application/whets.c:240
            xtra = xtra * 5;
8000021c:	00828433          	add	s0,t0,s0
E:\VMshare\e203\zhengdian_E203\sdk\whetstone\Debug/../application/whets.c:226
        whetstones(xtra, x100, calibrate);
80000220:	00040513          	mv	a0,s0
E:\VMshare\e203\zhengdian_E203\sdk\whetstone\Debug/../application/whets.c:224
        TimeUsed = 0;
80000224:	0184a023          	sw	s8,0(s1)
E:\VMshare\e203\zhengdian_E203\sdk\whetstone\Debug/../application/whets.c:226
        whetstones(xtra, x100, calibrate);
80000228:	3fd000ef          	jal	ra,80000e24 <whetstones.constprop.0>
E:\VMshare\e203\zhengdian_E203\sdk\whetstone\Debug/../application/whets.c:228
               (SPDP)(xtra));
8000022c:	00040513          	mv	a0,s0
80000230:	50d050ef          	jal	ra,80005f3c <__floatsisf>
E:\VMshare\e203\zhengdian_E203\sdk\whetstone\Debug/../application/whets.c:227
        printf("%11.2f Seconds %10.0lf   Passes (x 100)\n", TimeUsed,
80000234:	024060ef          	jal	ra,80006258 <__extendsfdf2>
80000238:	00050c13          	mv	s8,a0
8000023c:	0004a503          	lw	a0,0(s1)
80000240:	00058913          	mv	s2,a1
E:\VMshare\e203\zhengdian_E203\sdk\whetstone\Debug/../application/whets.c:229
        calibrate++;
80000244:	00298a13          	addi	s4,s3,2
E:\VMshare\e203\zhengdian_E203\sdk\whetstone\Debug/../application/whets.c:227
        printf("%11.2f Seconds %10.0lf   Passes (x 100)\n", TimeUsed,
80000248:	010060ef          	jal	ra,80006258 <__extendsfdf2>
8000024c:	00050613          	mv	a2,a0
80000250:	00058693          	mv	a3,a1
80000254:	00090793          	mv	a5,s2
80000258:	000c0713          	mv	a4,s8
8000025c:	000b0513          	mv	a0,s6
80000260:	19c070ef          	jal	ra,800073fc <iprintf>
E:\VMshare\e203\zhengdian_E203\sdk\whetstone\Debug/../application/whets.c:235
        if (TimeUsed > 2.0)
80000264:	0004a903          	lw	s2,0(s1)
80000268:	000a8593          	mv	a1,s5
8000026c:	00090513          	mv	a0,s2
80000270:	33c050ef          	jal	ra,800055ac <__gesf2>
E:\VMshare\e203\zhengdian_E203\sdk\whetstone\Debug/../application/whets.c:240
            xtra = xtra * 5;
80000274:	00241313          	slli	t1,s0,0x2
E:\VMshare\e203\zhengdian_E203\sdk\whetstone\Debug/../application/whets.c:226
        whetstones(xtra, x100, calibrate);
80000278:	000a0593          	mv	a1,s4
E:\VMshare\e203\zhengdian_E203\sdk\whetstone\Debug/../application/whets.c:235
        if (TimeUsed > 2.0)
8000027c:	06a04863          	bgtz	a0,800002ec <main+0x220>
E:\VMshare\e203\zhengdian_E203\sdk\whetstone\Debug/../application/whets.c:240
            xtra = xtra * 5;
80000280:	00830433          	add	s0,t1,s0
E:\VMshare\e203\zhengdian_E203\sdk\whetstone\Debug/../application/whets.c:224
        TimeUsed = 0;
80000284:	00000093          	li	ra,0
E:\VMshare\e203\zhengdian_E203\sdk\whetstone\Debug/../application/whets.c:226
        whetstones(xtra, x100, calibrate);
80000288:	00040513          	mv	a0,s0
E:\VMshare\e203\zhengdian_E203\sdk\whetstone\Debug/../application/whets.c:224
        TimeUsed = 0;
8000028c:	0014a023          	sw	ra,0(s1)
E:\VMshare\e203\zhengdian_E203\sdk\whetstone\Debug/../application/whets.c:226
        whetstones(xtra, x100, calibrate);
80000290:	395000ef          	jal	ra,80000e24 <whetstones.constprop.0>
E:\VMshare\e203\zhengdian_E203\sdk\whetstone\Debug/../application/whets.c:228
               (SPDP)(xtra));
80000294:	00040513          	mv	a0,s0
80000298:	4a5050ef          	jal	ra,80005f3c <__floatsisf>
E:\VMshare\e203\zhengdian_E203\sdk\whetstone\Debug/../application/whets.c:227
        printf("%11.2f Seconds %10.0lf   Passes (x 100)\n", TimeUsed,
8000029c:	7bd050ef          	jal	ra,80006258 <__extendsfdf2>
800002a0:	00050c13          	mv	s8,a0
800002a4:	0004a503          	lw	a0,0(s1)
800002a8:	00058913          	mv	s2,a1
E:\VMshare\e203\zhengdian_E203\sdk\whetstone\Debug/../application/whets.c:229
        calibrate++;
800002ac:	00398993          	addi	s3,s3,3
E:\VMshare\e203\zhengdian_E203\sdk\whetstone\Debug/../application/whets.c:227
        printf("%11.2f Seconds %10.0lf   Passes (x 100)\n", TimeUsed,
800002b0:	7a9050ef          	jal	ra,80006258 <__extendsfdf2>
800002b4:	00050613          	mv	a2,a0
800002b8:	00058693          	mv	a3,a1
800002bc:	00090793          	mv	a5,s2
800002c0:	000c0713          	mv	a4,s8
800002c4:	000b0513          	mv	a0,s6
800002c8:	134070ef          	jal	ra,800073fc <iprintf>
E:\VMshare\e203\zhengdian_E203\sdk\whetstone\Debug/../application/whets.c:235
        if (TimeUsed > 2.0)
800002cc:	0004a903          	lw	s2,0(s1)
800002d0:	000a8593          	mv	a1,s5
800002d4:	00090513          	mv	a0,s2
800002d8:	2d4050ef          	jal	ra,800055ac <__gesf2>
E:\VMshare\e203\zhengdian_E203\sdk\whetstone\Debug/../application/whets.c:240
            xtra = xtra * 5;
800002dc:	00241393          	slli	t2,s0,0x2
E:\VMshare\e203\zhengdian_E203\sdk\whetstone\Debug/../application/whets.c:235
        if (TimeUsed > 2.0)
800002e0:	00a04663          	bgtz	a0,800002ec <main+0x220>
E:\VMshare\e203\zhengdian_E203\sdk\whetstone\Debug/../application/whets.c:240
            xtra = xtra * 5;
800002e4:	00838433          	add	s0,t2,s0
E:\VMshare\e203\zhengdian_E203\sdk\whetstone\Debug/../application/whets.c:242
        }
    } while (count > 0);
800002e8:	ed7996e3          	bne	s3,s7,800001b4 <main+0xe8>
E:\VMshare\e203\zhengdian_E203\sdk\whetstone\Debug/../application/whets.c:244

    if (TimeUsed > 0)
800002ec:	00000593          	li	a1,0
800002f0:	00090513          	mv	a0,s2
800002f4:	2b8050ef          	jal	ra,800055ac <__gesf2>
800002f8:	02a05063          	blez	a0,80000318 <main+0x24c>
E:\VMshare\e203\zhengdian_E203\sdk\whetstone\Debug/../application/whets.c:245
        xtra = (long)((SPDP)(duration * xtra) / TimeUsed);
800002fc:	00a00513          	li	a0,10
80000300:	02a40533          	mul	a0,s0,a0
80000304:	439050ef          	jal	ra,80005f3c <__floatsisf>
80000308:	00090593          	mv	a1,s2
8000030c:	701040ef          	jal	ra,8000520c <__divsf3>
80000310:	3bd050ef          	jal	ra,80005ecc <__fixsfsi>
80000314:	00050413          	mv	s0,a0
E:\VMshare\e203\zhengdian_E203\sdk\whetstone\Debug/../application/whets.c:246
    if (xtra < 1)
80000318:	00804463          	bgtz	s0,80000320 <main+0x254>
8000031c:	00100413          	li	s0,1
E:\VMshare\e203\zhengdian_E203\sdk\whetstone\Debug/../application/whets.c:251
        xtra = 1;

    calibrate = 0;

    printf("\nUse %d  passes (x 100)\n", xtra);
80000320:	00040593          	mv	a1,s0
80000324:	0000d517          	auipc	a0,0xd
80000328:	2c850513          	addi	a0,a0,712 # 8000d5ec <__trunctfdf2+0x510>
8000032c:	0d0070ef          	jal	ra,800073fc <iprintf>
E:\VMshare\e203\zhengdian_E203\sdk\whetstone\Debug/../application/whets.c:252
    printf("\n          %s Precision C/C++ Whetstone Benchmark", Precision);
80000330:	0000d597          	auipc	a1,0xd
80000334:	25458593          	addi	a1,a1,596 # 8000d584 <__trunctfdf2+0x4a8>
80000338:	0000d517          	auipc	a0,0xd
8000033c:	2d050513          	addi	a0,a0,720 # 8000d608 <__trunctfdf2+0x52c>
80000340:	0bc070ef          	jal	ra,800073fc <iprintf>
E:\VMshare\e203\zhengdian_E203\sdk\whetstone\Debug/../application/whets.c:258

#ifdef PRECOMP
    printf("\n          Compiler  %s", precompiler);
    printf("\n          Options   %s\n", preoptions);
#else
    printf("\n");
80000344:	00a00513          	li	a0,10
80000348:	120070ef          	jal	ra,80007468 <putchar>
E:\VMshare\e203\zhengdian_E203\sdk\whetstone\Debug/../application/whets.c:261
#endif

    printf("\nLoop content                  Result              MFLOPS "
8000034c:	0000d517          	auipc	a0,0xd
80000350:	2f050513          	addi	a0,a0,752 # 8000d63c <__trunctfdf2+0x560>
80000354:	380070ef          	jal	ra,800076d4 <puts>
E:\VMshare\e203\zhengdian_E203\sdk\whetstone\Debug/../application/whets.c:265
           "     MOPS   Seconds\n\n");

    TimeUsed = 0;
    whetstones(xtra, x100, calibrate);
80000358:	00000593          	li	a1,0
E:\VMshare\e203\zhengdian_E203\sdk\whetstone\Debug/../application/whets.c:264
    TimeUsed = 0;
8000035c:	00000613          	li	a2,0
E:\VMshare\e203\zhengdian_E203\sdk\whetstone\Debug/../application/whets.c:265
    whetstones(xtra, x100, calibrate);
80000360:	00040513          	mv	a0,s0
E:\VMshare\e203\zhengdian_E203\sdk\whetstone\Debug/../application/whets.c:264
    TimeUsed = 0;
80000364:	00c4a023          	sw	a2,0(s1)
E:\VMshare\e203\zhengdian_E203\sdk\whetstone\Debug/../application/whets.c:265
    whetstones(xtra, x100, calibrate);
80000368:	2bd000ef          	jal	ra,80000e24 <whetstones.constprop.0>
E:\VMshare\e203\zhengdian_E203\sdk\whetstone\Debug/../application/whets.c:267

    printf("\nMWIPS            ");
8000036c:	0000d517          	auipc	a0,0xd
80000370:	32050513          	addi	a0,a0,800 # 8000d68c <__trunctfdf2+0x5b0>
80000374:	088070ef          	jal	ra,800073fc <iprintf>
E:\VMshare\e203\zhengdian_E203\sdk\whetstone\Debug/../application/whets.c:268
    if (TimeUsed > 0) {
80000378:	0004aa83          	lw	s5,0(s1)
8000037c:	00000593          	li	a1,0
80000380:	000a8513          	mv	a0,s5
80000384:	228050ef          	jal	ra,800055ac <__gesf2>
80000388:	10a05e63          	blez	a0,800004a4 <main+0x3d8>
E:\VMshare\e203\zhengdian_E203\sdk\whetstone\Debug/../application/whets.c:269
        mwips = (float)(xtra) * (float)(x100) / (10 * TimeUsed);
8000038c:	00040513          	mv	a0,s0
80000390:	3ad050ef          	jal	ra,80005f3c <__floatsisf>
80000394:	10000597          	auipc	a1,0x10000
80000398:	ef45a583          	lw	a1,-268(a1) # 90000288 <_impure_ptr+0xac>
8000039c:	378050ef          	jal	ra,80005714 <__mulsf3>
800003a0:	00050b93          	mv	s7,a0
800003a4:	10000597          	auipc	a1,0x10000
800003a8:	eac5a583          	lw	a1,-340(a1) # 90000250 <_impure_ptr+0x74>
800003ac:	000a8513          	mv	a0,s5
800003b0:	364050ef          	jal	ra,80005714 <__mulsf3>
800003b4:	00050593          	mv	a1,a0
800003b8:	000b8513          	mv	a0,s7
800003bc:	651040ef          	jal	ra,8000520c <__divsf3>
800003c0:	00050b13          	mv	s6,a0
800003c4:	9f018a13          	addi	s4,gp,-1552 # 900003c0 <mwips>
E:\VMshare\e203\zhengdian_E203\sdk\whetstone\Debug/../application/whets.c:274
    } else {
        mwips = 0;
    }

    printf("%39.3f%19.3f\n\n", mwips, TimeUsed);
800003c8:	000a8513          	mv	a0,s5
800003cc:	016a2023          	sw	s6,0(s4)
800003d0:	689050ef          	jal	ra,80006258 <__extendsfdf2>
800003d4:	00050c13          	mv	s8,a0
800003d8:	000b0513          	mv	a0,s6
800003dc:	00058913          	mv	s2,a1
800003e0:	679050ef          	jal	ra,80006258 <__extendsfdf2>
800003e4:	00050613          	mv	a2,a0
800003e8:	00058693          	mv	a3,a1
800003ec:	000c0713          	mv	a4,s8
800003f0:	00090793          	mv	a5,s2
800003f4:	0000d517          	auipc	a0,0xd
800003f8:	2ac50513          	addi	a0,a0,684 # 8000d6a0 <__trunctfdf2+0x5c4>
800003fc:	000070ef          	jal	ra,800073fc <iprintf>
E:\VMshare\e203\zhengdian_E203\sdk\whetstone\Debug/../application/whets.c:276

    printf("\nMWIPS/MHz        ");
80000400:	0000d517          	auipc	a0,0xd
80000404:	2b050513          	addi	a0,a0,688 # 8000d6b0 <__trunctfdf2+0x5d4>
80000408:	7f5060ef          	jal	ra,800073fc <iprintf>
E:\VMshare\e203\zhengdian_E203\sdk\whetstone\Debug/../application/whets.c:278

    printf("%39.3f%19.3f\n\n", mwips / SystemCoreClock * 1000000, TimeUsed);
8000040c:	0004a503          	lw	a0,0(s1)
80000410:	649050ef          	jal	ra,80006258 <__extendsfdf2>
80000414:	00050493          	mv	s1,a0
80000418:	10000517          	auipc	a0,0x10000
8000041c:	dbc52503          	lw	a0,-580(a0) # 900001d4 <SystemCoreClock>
80000420:	00058993          	mv	s3,a1
80000424:	421050ef          	jal	ra,80006044 <__floatunsisf>
80000428:	00050593          	mv	a1,a0
8000042c:	000a2503          	lw	a0,0(s4)
80000430:	5dd040ef          	jal	ra,8000520c <__divsf3>
80000434:	10000597          	auipc	a1,0x10000
80000438:	e245a583          	lw	a1,-476(a1) # 90000258 <_impure_ptr+0x7c>
8000043c:	2d8050ef          	jal	ra,80005714 <__mulsf3>
80000440:	619050ef          	jal	ra,80006258 <__extendsfdf2>
80000444:	00050613          	mv	a2,a0
80000448:	00058693          	mv	a3,a1
8000044c:	00048713          	mv	a4,s1
80000450:	00098793          	mv	a5,s3
80000454:	0000d517          	auipc	a0,0xd
80000458:	24c50513          	addi	a0,a0,588 # 8000d6a0 <__trunctfdf2+0x5c4>
8000045c:	7a1060ef          	jal	ra,800073fc <iprintf>
E:\VMshare\e203\zhengdian_E203\sdk\whetstone\Debug/../application/whets.c:279
    if (Check == 0)
80000460:	00000593          	li	a1,0
80000464:	9e81a503          	lw	a0,-1560(gp) # 900003b8 <Check>
80000468:	0dc050ef          	jal	ra,80005544 <__eqsf2>
8000046c:	04050063          	beqz	a0,800004ac <main+0x3e0>
E:\VMshare\e203\zhengdian_E203\sdk\whetstone\Debug/../application/whets.c:283
        printf("Wrong answer  ");

    return 0;
}
80000470:	02c12083          	lw	ra,44(sp)
80000474:	02812403          	lw	s0,40(sp)
80000478:	02412483          	lw	s1,36(sp)
8000047c:	02012903          	lw	s2,32(sp)
80000480:	01c12983          	lw	s3,28(sp)
80000484:	01812a03          	lw	s4,24(sp)
80000488:	01412a83          	lw	s5,20(sp)
8000048c:	01012b03          	lw	s6,16(sp)
80000490:	00c12b83          	lw	s7,12(sp)
80000494:	00812c03          	lw	s8,8(sp)
80000498:	00000513          	li	a0,0
8000049c:	03010113          	addi	sp,sp,48
800004a0:	00008067          	ret
E:\VMshare\e203\zhengdian_E203\sdk\whetstone\Debug/../application/whets.c:271
        mwips = 0;
800004a4:	00000b13          	li	s6,0
800004a8:	f1dff06f          	j	800003c4 <main+0x2f8>
E:\VMshare\e203\zhengdian_E203\sdk\whetstone\Debug/../application/whets.c:280
        printf("Wrong answer  ");
800004ac:	0000d517          	auipc	a0,0xd
800004b0:	21850513          	addi	a0,a0,536 # 8000d6c4 <__trunctfdf2+0x5e8>
800004b4:	749060ef          	jal	ra,800073fc <iprintf>
800004b8:	fb9ff06f          	j	80000470 <main+0x3a4>

800004bc <_close>:
_close():
E:\VMshare\e203\zhengdian_E203\sdk\whetstone\Debug/../hbird_sdk/SoC/hbirdv2/Common/Source/Stubs/close.c:10
#undef errno
extern int errno;

__WEAK int _close(int fd)
{
    errno = EBADF;
800004bc:	00900793          	li	a5,9
800004c0:	9ef1aa23          	sw	a5,-1548(gp) # 900003c4 <errno>
E:\VMshare\e203\zhengdian_E203\sdk\whetstone\Debug/../hbird_sdk/SoC/hbirdv2/Common/Source/Stubs/close.c:12
    return -1;
}
800004c4:	fff00513          	li	a0,-1
800004c8:	00008067          	ret

800004cc <_exit>:
__WFI():
E:\VMshare\e203\zhengdian_E203\sdk\whetstone\hbird_sdk\NMSIS\Core\Include/core_feature_base.h:598 (discriminator 1)
 * the hardware platform that suitable interrupts should
 * preferentially be routed to this hart.
 */
__STATIC_FORCEINLINE void __WFI(void)
{
    __ASM volatile("wfi");
800004cc:	10500073          	wfi
800004d0:	ffdff06f          	j	800004cc <_exit>

800004d4 <_fstat>:
_fstat():
E:\VMshare\e203\zhengdian_E203\sdk\whetstone\Debug/../hbird_sdk/SoC/hbirdv2/Common/Source/Stubs/fstat.c:12
#undef errno
extern int errno;

__WEAK int _fstat(int file, struct stat *st)
{
    if ((STDOUT_FILENO == file) || (STDERR_FILENO == file)) {
800004d4:	fff50513          	addi	a0,a0,-1
800004d8:	00100793          	li	a5,1
800004dc:	00a7ea63          	bltu	a5,a0,800004f0 <_fstat+0x1c>
E:\VMshare\e203\zhengdian_E203\sdk\whetstone\Debug/../hbird_sdk/SoC/hbirdv2/Common/Source/Stubs/fstat.c:13
        st->st_mode = S_IFCHR;
800004e0:	00002337          	lui	t1,0x2
800004e4:	0065a223          	sw	t1,4(a1)
E:\VMshare\e203\zhengdian_E203\sdk\whetstone\Debug/../hbird_sdk/SoC/hbirdv2/Common/Source/Stubs/fstat.c:14
        return 0;
800004e8:	00000513          	li	a0,0
800004ec:	00008067          	ret
E:\VMshare\e203\zhengdian_E203\sdk\whetstone\Debug/../hbird_sdk/SoC/hbirdv2/Common/Source/Stubs/fstat.c:16
    } else {
        errno = EBADF;
800004f0:	00900293          	li	t0,9
800004f4:	9e51aa23          	sw	t0,-1548(gp) # 900003c4 <errno>
E:\VMshare\e203\zhengdian_E203\sdk\whetstone\Debug/../hbird_sdk/SoC/hbirdv2/Common/Source/Stubs/fstat.c:17
        return -1;
800004f8:	fff00513          	li	a0,-1
E:\VMshare\e203\zhengdian_E203\sdk\whetstone\Debug/../hbird_sdk/SoC/hbirdv2/Common/Source/Stubs/fstat.c:19
    }
}
800004fc:	00008067          	ret

80000500 <_getpid>:
_getpid():
E:\VMshare\e203\zhengdian_E203\sdk\whetstone\Debug/../hbird_sdk/SoC/hbirdv2/Common/Source/Stubs/getpid.c:8
#include <errno.h>

__WEAK int _getpid(void)
{
    return 1;
}
80000500:	00100513          	li	a0,1
80000504:	00008067          	ret

80000508 <_isatty>:
_isatty():
E:\VMshare\e203\zhengdian_E203\sdk\whetstone\Debug/../hbird_sdk/SoC/hbirdv2/Common/Source/Stubs/isatty.c:8
#include <unistd.h>

__WEAK int _isatty(int fd)
{
    return 1;
}
80000508:	00100513          	li	a0,1
8000050c:	00008067          	ret

80000510 <_kill>:
_kill():
E:\VMshare\e203\zhengdian_E203\sdk\whetstone\Debug/../hbird_sdk/SoC/hbirdv2/Common/Source/Stubs/kill.c:9
#undef errno
extern int errno;

__WEAK int _kill(int pid, int sig)
{
    errno = EINVAL;
80000510:	01600793          	li	a5,22
80000514:	9ef1aa23          	sw	a5,-1548(gp) # 900003c4 <errno>
E:\VMshare\e203\zhengdian_E203\sdk\whetstone\Debug/../hbird_sdk/SoC/hbirdv2/Common/Source/Stubs/kill.c:11
    return -1;
}
80000518:	fff00513          	li	a0,-1
8000051c:	00008067          	ret

80000520 <_lseek>:
_lseek():
E:\VMshare\e203\zhengdian_E203\sdk\whetstone\Debug/../hbird_sdk/SoC/hbirdv2/Common/Source/Stubs/lseek.c:11
extern int errno;

__WEAK int _lseek(int file, int offset, int whence)
{
    return 0;
}
80000520:	00000513          	li	a0,0
80000524:	00008067          	ret

80000528 <_read>:
_read():
E:\VMshare\e203\zhengdian_E203\sdk\whetstone\Debug/../hbird_sdk/SoC/hbirdv2/Common/Source/Stubs/read.c:12

// #define UART_AUTO_ECHO

__WEAK ssize_t _read(int fd, void* ptr, size_t len)
{
    if (fd != STDIN_FILENO) {
80000528:	00050663          	beqz	a0,80000534 <_read+0xc>
E:\VMshare\e203\zhengdian_E203\sdk\whetstone\Debug/../hbird_sdk/SoC/hbirdv2/Common/Source/Stubs/read.c:13
        return -1;
8000052c:	fff00513          	li	a0,-1
E:\VMshare\e203\zhengdian_E203\sdk\whetstone\Debug/../hbird_sdk/SoC/hbirdv2/Common/Source/Stubs/read.c:22
    readbuf[0] = uart_read(SOC_DEBUG_UART);
#ifdef UART_AUTO_ECHO
    uart_write(SOC_DEBUG_UART, readbuf[0]);
#endif
    return 1;
}
80000530:	00008067          	ret
E:\VMshare\e203\zhengdian_E203\sdk\whetstone\Debug/../hbird_sdk/SoC/hbirdv2/Common/Source/Stubs/read.c:11
{
80000534:	ff010113          	addi	sp,sp,-16
E:\VMshare\e203\zhengdian_E203\sdk\whetstone\Debug/../hbird_sdk/SoC/hbirdv2/Common/Source/Stubs/read.c:17
    readbuf[0] = uart_read(SOC_DEBUG_UART);
80000538:	10013537          	lui	a0,0x10013
E:\VMshare\e203\zhengdian_E203\sdk\whetstone\Debug/../hbird_sdk/SoC/hbirdv2/Common/Source/Stubs/read.c:11
{
8000053c:	00812423          	sw	s0,8(sp)
80000540:	00112623          	sw	ra,12(sp)
80000544:	00058413          	mv	s0,a1
E:\VMshare\e203\zhengdian_E203\sdk\whetstone\Debug/../hbird_sdk/SoC/hbirdv2/Common/Source/Stubs/read.c:17
    readbuf[0] = uart_read(SOC_DEBUG_UART);
80000548:	258000ef          	jal	ra,800007a0 <uart_read>
8000054c:	00a40023          	sb	a0,0(s0)
E:\VMshare\e203\zhengdian_E203\sdk\whetstone\Debug/../hbird_sdk/SoC/hbirdv2/Common/Source/Stubs/read.c:22
}
80000550:	00c12083          	lw	ra,12(sp)
80000554:	00812403          	lw	s0,8(sp)
E:\VMshare\e203\zhengdian_E203\sdk\whetstone\Debug/../hbird_sdk/SoC/hbirdv2/Common/Source/Stubs/read.c:21
    return 1;
80000558:	00100513          	li	a0,1
E:\VMshare\e203\zhengdian_E203\sdk\whetstone\Debug/../hbird_sdk/SoC/hbirdv2/Common/Source/Stubs/read.c:22
}
8000055c:	01010113          	addi	sp,sp,16
80000560:	00008067          	ret

80000564 <_sbrk>:
_sbrk():
E:\VMshare\e203\zhengdian_E203\sdk\whetstone\Debug/../hbird_sdk/SoC/hbirdv2/Common/Source/Stubs/sbrk.c:13
{
    extern char _end[];
    extern char _heap_end[];
    static char *curbrk = _end;

    if ((curbrk + incr < _end) || (curbrk + incr > _heap_end)) {
80000564:	10000717          	auipc	a4,0x10000
80000568:	c6c70713          	addi	a4,a4,-916 # 900001d0 <curbrk.0>
8000056c:	00072783          	lw	a5,0(a4)
80000570:	c1818693          	addi	a3,gp,-1000 # 900005e8 <_end>
80000574:	00a78533          	add	a0,a5,a0
80000578:	00d56e63          	bltu	a0,a3,80000594 <_sbrk+0x30>
E:\VMshare\e203\zhengdian_E203\sdk\whetstone\Debug/../hbird_sdk/SoC/hbirdv2/Common/Source/Stubs/sbrk.c:13 (discriminator 1)
8000057c:	1000f297          	auipc	t0,0x1000f
80000580:	28428293          	addi	t0,t0,644 # 9000f800 <_heap_end>
80000584:	00a2e863          	bltu	t0,a0,80000594 <_sbrk+0x30>
E:\VMshare\e203\zhengdian_E203\sdk\whetstone\Debug/../hbird_sdk/SoC/hbirdv2/Common/Source/Stubs/sbrk.c:17
        return (void *)(-1);
    }

    curbrk += incr;
80000588:	00a72023          	sw	a0,0(a4)
E:\VMshare\e203\zhengdian_E203\sdk\whetstone\Debug/../hbird_sdk/SoC/hbirdv2/Common/Source/Stubs/sbrk.c:19
    return (void *)(curbrk - incr);
}
8000058c:	00078513          	mv	a0,a5
80000590:	00008067          	ret
E:\VMshare\e203\zhengdian_E203\sdk\whetstone\Debug/../hbird_sdk/SoC/hbirdv2/Common/Source/Stubs/sbrk.c:14
        return (void *)(-1);
80000594:	fff00793          	li	a5,-1
E:\VMshare\e203\zhengdian_E203\sdk\whetstone\Debug/../hbird_sdk/SoC/hbirdv2/Common/Source/Stubs/sbrk.c:19
}
80000598:	00078513          	mv	a0,a5
8000059c:	00008067          	ret

800005a0 <_write>:
_write():
E:\VMshare\e203\zhengdian_E203\sdk\whetstone\Debug/../hbird_sdk/SoC/hbirdv2/Common/Source/Stubs/write.c:9
#include <unistd.h>
#include <sys/types.h>
#include <hbird_sdk_hal.h>

__WEAK ssize_t _write(int fd, const void* ptr, size_t len)
{
800005a0:	fe010113          	addi	sp,sp,-32
800005a4:	00812c23          	sw	s0,24(sp)
800005a8:	01312623          	sw	s3,12(sp)
800005ac:	00112e23          	sw	ra,28(sp)
800005b0:	00912a23          	sw	s1,20(sp)
800005b4:	01212823          	sw	s2,16(sp)
800005b8:	00058413          	mv	s0,a1
800005bc:	00060993          	mv	s3,a2
E:\VMshare\e203\zhengdian_E203\sdk\whetstone\Debug/../hbird_sdk/SoC/hbirdv2/Common/Source/Stubs/write.c:10
    if (!isatty(fd)) {
800005c0:	13c070ef          	jal	ra,800076fc <isatty>
800005c4:	06050463          	beqz	a0,8000062c <_write+0x8c>
E:\VMshare\e203\zhengdian_E203\sdk\whetstone\Debug/../hbird_sdk/SoC/hbirdv2/Common/Source/Stubs/write.c:15
        return -1;
    }

    const uint8_t *writebuf = (const uint8_t *)ptr;
    for (size_t i = 0; i < len; i++) {
800005c8:	01340933          	add	s2,s0,s3
E:\VMshare\e203\zhengdian_E203\sdk\whetstone\Debug/../hbird_sdk/SoC/hbirdv2/Common/Source/Stubs/write.c:16
        if (writebuf[i] == '\n') {
800005cc:	00a00493          	li	s1,10
E:\VMshare\e203\zhengdian_E203\sdk\whetstone\Debug/../hbird_sdk/SoC/hbirdv2/Common/Source/Stubs/write.c:15
    for (size_t i = 0; i < len; i++) {
800005d0:	00098e63          	beqz	s3,800005ec <_write+0x4c>
E:\VMshare\e203\zhengdian_E203\sdk\whetstone\Debug/../hbird_sdk/SoC/hbirdv2/Common/Source/Stubs/write.c:16
        if (writebuf[i] == '\n') {
800005d4:	00044583          	lbu	a1,0(s0)
E:\VMshare\e203\zhengdian_E203\sdk\whetstone\Debug/../hbird_sdk/SoC/hbirdv2/Common/Source/Stubs/write.c:19
            uart_write(SOC_DEBUG_UART, '\r');
        }
        uart_write(SOC_DEBUG_UART, writebuf[i]);
800005d8:	10013537          	lui	a0,0x10013
E:\VMshare\e203\zhengdian_E203\sdk\whetstone\Debug/../hbird_sdk/SoC/hbirdv2/Common/Source/Stubs/write.c:16
        if (writebuf[i] == '\n') {
800005dc:	02958863          	beq	a1,s1,8000060c <_write+0x6c>
E:\VMshare\e203\zhengdian_E203\sdk\whetstone\Debug/../hbird_sdk/SoC/hbirdv2/Common/Source/Stubs/write.c:15 (discriminator 2)
    for (size_t i = 0; i < len; i++) {
800005e0:	00140413          	addi	s0,s0,1
E:\VMshare\e203\zhengdian_E203\sdk\whetstone\Debug/../hbird_sdk/SoC/hbirdv2/Common/Source/Stubs/write.c:19 (discriminator 2)
        uart_write(SOC_DEBUG_UART, writebuf[i]);
800005e4:	198000ef          	jal	ra,8000077c <uart_write>
E:\VMshare\e203\zhengdian_E203\sdk\whetstone\Debug/../hbird_sdk/SoC/hbirdv2/Common/Source/Stubs/write.c:15 (discriminator 2)
    for (size_t i = 0; i < len; i++) {
800005e8:	ff2416e3          	bne	s0,s2,800005d4 <_write+0x34>
E:\VMshare\e203\zhengdian_E203\sdk\whetstone\Debug/../hbird_sdk/SoC/hbirdv2/Common/Source/Stubs/write.c:21
    }
    return len;
800005ec:	00098513          	mv	a0,s3
E:\VMshare\e203\zhengdian_E203\sdk\whetstone\Debug/../hbird_sdk/SoC/hbirdv2/Common/Source/Stubs/write.c:22
}
800005f0:	01c12083          	lw	ra,28(sp)
800005f4:	01812403          	lw	s0,24(sp)
800005f8:	01412483          	lw	s1,20(sp)
800005fc:	01012903          	lw	s2,16(sp)
80000600:	00c12983          	lw	s3,12(sp)
80000604:	02010113          	addi	sp,sp,32
80000608:	00008067          	ret
E:\VMshare\e203\zhengdian_E203\sdk\whetstone\Debug/../hbird_sdk/SoC/hbirdv2/Common/Source/Stubs/write.c:17
            uart_write(SOC_DEBUG_UART, '\r');
8000060c:	00d00593          	li	a1,13
80000610:	16c000ef          	jal	ra,8000077c <uart_write>
E:\VMshare\e203\zhengdian_E203\sdk\whetstone\Debug/../hbird_sdk/SoC/hbirdv2/Common/Source/Stubs/write.c:19
        uart_write(SOC_DEBUG_UART, writebuf[i]);
80000614:	00044583          	lbu	a1,0(s0)
80000618:	10013537          	lui	a0,0x10013
E:\VMshare\e203\zhengdian_E203\sdk\whetstone\Debug/../hbird_sdk/SoC/hbirdv2/Common/Source/Stubs/write.c:15
    for (size_t i = 0; i < len; i++) {
8000061c:	00140413          	addi	s0,s0,1
E:\VMshare\e203\zhengdian_E203\sdk\whetstone\Debug/../hbird_sdk/SoC/hbirdv2/Common/Source/Stubs/write.c:19
        uart_write(SOC_DEBUG_UART, writebuf[i]);
80000620:	15c000ef          	jal	ra,8000077c <uart_write>
E:\VMshare\e203\zhengdian_E203\sdk\whetstone\Debug/../hbird_sdk/SoC/hbirdv2/Common/Source/Stubs/write.c:15
    for (size_t i = 0; i < len; i++) {
80000624:	fa8918e3          	bne	s2,s0,800005d4 <_write+0x34>
80000628:	fc5ff06f          	j	800005ec <_write+0x4c>
E:\VMshare\e203\zhengdian_E203\sdk\whetstone\Debug/../hbird_sdk/SoC/hbirdv2/Common/Source/Stubs/write.c:11
        return -1;
8000062c:	fff00513          	li	a0,-1
80000630:	fc1ff06f          	j	800005f0 <_write+0x50>

80000634 <trap_entry>:
trap_entry():
E:\VMshare\e203\zhengdian_E203\sdk\whetstone\Debug/../hbird_sdk/SoC/hbirdv2/Common/Source/GCC/intexc_hbirdv2.S:159
.align 2
.global trap_entry
.weak trap_entry
trap_entry:
    /* Save the caller saving registers (context) */
    SAVE_CONTEXT
80000634:	fb010113          	addi	sp,sp,-80
80000638:	00112023          	sw	ra,0(sp)
8000063c:	00412223          	sw	tp,4(sp)
80000640:	00512423          	sw	t0,8(sp)
80000644:	00612623          	sw	t1,12(sp)
80000648:	00712823          	sw	t2,16(sp)
8000064c:	00a12a23          	sw	a0,20(sp)
80000650:	00b12c23          	sw	a1,24(sp)
80000654:	00c12e23          	sw	a2,28(sp)
80000658:	02d12023          	sw	a3,32(sp)
8000065c:	02e12223          	sw	a4,36(sp)
80000660:	02f12423          	sw	a5,40(sp)
80000664:	03012c23          	sw	a6,56(sp)
80000668:	03112e23          	sw	a7,60(sp)
8000066c:	05c12023          	sw	t3,64(sp)
80000670:	05d12223          	sw	t4,68(sp)
80000674:	05e12423          	sw	t5,72(sp)
80000678:	05f12623          	sw	t6,76(sp)
E:\VMshare\e203\zhengdian_E203\sdk\whetstone\Debug/../hbird_sdk/SoC/hbirdv2/Common/Source/GCC/intexc_hbirdv2.S:161
    /* Save the necessary CSR registers */
    SAVE_CSR_CONTEXT
8000067c:	341022f3          	csrr	t0,mepc
80000680:	02512623          	sw	t0,44(sp)
80000684:	342022f3          	csrr	t0,mcause
80000688:	02512823          	sw	t0,48(sp)
8000068c:	300022f3          	csrr	t0,mstatus
80000690:	02512a23          	sw	t0,52(sp)
E:\VMshare\e203\zhengdian_E203\sdk\whetstone\Debug/../hbird_sdk/SoC/hbirdv2/Common/Source/GCC/intexc_hbirdv2.S:168
    /*
     * Set the exception handler function arguments
     * argument 1: mcause value
     * argument 2: current stack point(SP) value
     */
    csrr a0, mcause
80000694:	34202573          	csrr	a0,mcause
E:\VMshare\e203\zhengdian_E203\sdk\whetstone\Debug/../hbird_sdk/SoC/hbirdv2/Common/Source/GCC/intexc_hbirdv2.S:169
    mv a1, sp
80000698:	00010593          	mv	a1,sp
E:\VMshare\e203\zhengdian_E203\sdk\whetstone\Debug/../hbird_sdk/SoC/hbirdv2/Common/Source/GCC/intexc_hbirdv2.S:175
    /*
     * TODO: Call the trap handler function
     * By default, the function template is provided in
     * system_Device.c, you can adjust it as you want
     */
    call core_trap_handler
8000069c:	2ac000ef          	jal	ra,80000948 <core_trap_handler>
E:\VMshare\e203\zhengdian_E203\sdk\whetstone\Debug/../hbird_sdk/SoC/hbirdv2/Common/Source/GCC/intexc_hbirdv2.S:178

    /* Restore the necessary CSR registers */
    RESTORE_CSR_CONTEXT
800006a0:	02c12283          	lw	t0,44(sp)
800006a4:	34129073          	csrw	mepc,t0
800006a8:	03012283          	lw	t0,48(sp)
800006ac:	34229073          	csrw	mcause,t0
800006b0:	03412283          	lw	t0,52(sp)
800006b4:	30029073          	csrw	mstatus,t0
E:\VMshare\e203\zhengdian_E203\sdk\whetstone\Debug/../hbird_sdk/SoC/hbirdv2/Common/Source/GCC/intexc_hbirdv2.S:180
    /* Restore the caller saving registers (context) */
    RESTORE_CONTEXT
800006b8:	00012083          	lw	ra,0(sp)
800006bc:	00412203          	lw	tp,4(sp)
800006c0:	00812283          	lw	t0,8(sp)
800006c4:	00c12303          	lw	t1,12(sp)
800006c8:	01012383          	lw	t2,16(sp)
800006cc:	01412503          	lw	a0,20(sp)
800006d0:	01812583          	lw	a1,24(sp)
800006d4:	01c12603          	lw	a2,28(sp)
800006d8:	02012683          	lw	a3,32(sp)
800006dc:	02412703          	lw	a4,36(sp)
800006e0:	02812783          	lw	a5,40(sp)
800006e4:	03812803          	lw	a6,56(sp)
800006e8:	03c12883          	lw	a7,60(sp)
800006ec:	04012e03          	lw	t3,64(sp)
800006f0:	04412e83          	lw	t4,68(sp)
800006f4:	04812f03          	lw	t5,72(sp)
800006f8:	04c12f83          	lw	t6,76(sp)
800006fc:	05010113          	addi	sp,sp,80
E:\VMshare\e203\zhengdian_E203\sdk\whetstone\Debug/../hbird_sdk/SoC/hbirdv2/Common/Source/GCC/intexc_hbirdv2.S:183

    /* Return to regular code */
    mret
80000700:	30200073          	mret

80000704 <gpio_iof_config>:
gpio_iof_config():
E:\VMshare\e203\zhengdian_E203\sdk\whetstone\Debug/../hbird_sdk/SoC/hbirdv2/Common/Source/Drivers/hbirdv2_gpio.c:5
#include "hbirdv2.h"
#include "hbirdv2_gpio.h"

int32_t gpio_iof_config(GPIO_TypeDef *gpio, uint32_t mask)
{
80000704:	00050793          	mv	a5,a0
E:\VMshare\e203\zhengdian_E203\sdk\whetstone\Debug/../hbird_sdk/SoC/hbirdv2/Common/Source/Drivers/hbirdv2_gpio.c:6
    if (__RARELY(gpio == NULL)) {
80000708:	00050c63          	beqz	a0,80000720 <gpio_iof_config+0x1c>
E:\VMshare\e203\zhengdian_E203\sdk\whetstone\Debug/../hbird_sdk/SoC/hbirdv2/Common/Source/Drivers/hbirdv2_gpio.c:9
        return -1;
    }
    gpio->IOFCFG |= mask;
8000070c:	01c52703          	lw	a4,28(a0) # 1001301c <__stack_size+0x1001281c>
E:\VMshare\e203\zhengdian_E203\sdk\whetstone\Debug/../hbird_sdk/SoC/hbirdv2/Common/Source/Drivers/hbirdv2_gpio.c:11

    return 0;
80000710:	00000513          	li	a0,0
E:\VMshare\e203\zhengdian_E203\sdk\whetstone\Debug/../hbird_sdk/SoC/hbirdv2/Common/Source/Drivers/hbirdv2_gpio.c:9
    gpio->IOFCFG |= mask;
80000714:	00b765b3          	or	a1,a4,a1
80000718:	00b7ae23          	sw	a1,28(a5)
E:\VMshare\e203\zhengdian_E203\sdk\whetstone\Debug/../hbird_sdk/SoC/hbirdv2/Common/Source/Drivers/hbirdv2_gpio.c:11
    return 0;
8000071c:	00008067          	ret
E:\VMshare\e203\zhengdian_E203\sdk\whetstone\Debug/../hbird_sdk/SoC/hbirdv2/Common/Source/Drivers/hbirdv2_gpio.c:7
        return -1;
80000720:	fff00513          	li	a0,-1
E:\VMshare\e203\zhengdian_E203\sdk\whetstone\Debug/../hbird_sdk/SoC/hbirdv2/Common/Source/Drivers/hbirdv2_gpio.c:12
}
80000724:	00008067          	ret

80000728 <uart_init>:
uart_init():
E:\VMshare\e203\zhengdian_E203\sdk\whetstone\Debug/../hbird_sdk/SoC/hbirdv2/Common/Source/Drivers/hbirdv2_uart.c:5
#include "hbirdv2.h"
#include "hbirdv2_uart.h"

int32_t uart_init(UART_TypeDef *uart, uint32_t baudrate)
{
80000728:	00050793          	mv	a5,a0
E:\VMshare\e203\zhengdian_E203\sdk\whetstone\Debug/../hbird_sdk/SoC/hbirdv2/Common/Source/Drivers/hbirdv2_uart.c:6
    if (__RARELY(uart == NULL)) {
8000072c:	04050463          	beqz	a0,80000774 <uart_init+0x4c>
E:\VMshare\e203\zhengdian_E203\sdk\whetstone\Debug/../hbird_sdk/SoC/hbirdv2/Common/Source/Drivers/hbirdv2_uart.c:10
        return -1;
    }

    unsigned int uart_div = SystemCoreClock / baudrate - 1;
80000730:	10000717          	auipc	a4,0x10000
80000734:	aa472703          	lw	a4,-1372(a4) # 900001d4 <SystemCoreClock>
80000738:	02b755b3          	divu	a1,a4,a1
E:\VMshare\e203\zhengdian_E203\sdk\whetstone\Debug/../hbird_sdk/SoC/hbirdv2/Common/Source/Drivers/hbirdv2_uart.c:11
    uart->LCR = 0x80;
8000073c:	08000293          	li	t0,128
80000740:	00552623          	sw	t0,12(a0)
E:\VMshare\e203\zhengdian_E203\sdk\whetstone\Debug/../hbird_sdk/SoC/hbirdv2/Common/Source/Drivers/hbirdv2_uart.c:14
    uart->DLM = (uart_div >> 8) & 0xFF;
    uart->DLL = uart_div        & 0xFF;
    uart->FCR = 0xC6;
80000744:	0c600813          	li	a6,198
E:\VMshare\e203\zhengdian_E203\sdk\whetstone\Debug/../hbird_sdk/SoC/hbirdv2/Common/Source/Drivers/hbirdv2_uart.c:15
    uart->LCR = 0x03;
80000748:	00300893          	li	a7,3
E:\VMshare\e203\zhengdian_E203\sdk\whetstone\Debug/../hbird_sdk/SoC/hbirdv2/Common/Source/Drivers/hbirdv2_uart.c:17

    return 0;
8000074c:	00000513          	li	a0,0
E:\VMshare\e203\zhengdian_E203\sdk\whetstone\Debug/../hbird_sdk/SoC/hbirdv2/Common/Source/Drivers/hbirdv2_uart.c:10
    unsigned int uart_div = SystemCoreClock / baudrate - 1;
80000750:	fff58313          	addi	t1,a1,-1
E:\VMshare\e203\zhengdian_E203\sdk\whetstone\Debug/../hbird_sdk/SoC/hbirdv2/Common/Source/Drivers/hbirdv2_uart.c:12
    uart->DLM = (uart_div >> 8) & 0xFF;
80000754:	00835393          	srli	t2,t1,0x8
80000758:	0ff3f613          	andi	a2,t2,255
8000075c:	00c7a223          	sw	a2,4(a5)
E:\VMshare\e203\zhengdian_E203\sdk\whetstone\Debug/../hbird_sdk/SoC/hbirdv2/Common/Source/Drivers/hbirdv2_uart.c:13
    uart->DLL = uart_div        & 0xFF;
80000760:	0ff37693          	andi	a3,t1,255
80000764:	00d7a023          	sw	a3,0(a5)
E:\VMshare\e203\zhengdian_E203\sdk\whetstone\Debug/../hbird_sdk/SoC/hbirdv2/Common/Source/Drivers/hbirdv2_uart.c:14
    uart->FCR = 0xC6;
80000768:	0107a423          	sw	a6,8(a5)
E:\VMshare\e203\zhengdian_E203\sdk\whetstone\Debug/../hbird_sdk/SoC/hbirdv2/Common/Source/Drivers/hbirdv2_uart.c:15
    uart->LCR = 0x03;
8000076c:	0117a623          	sw	a7,12(a5)
E:\VMshare\e203\zhengdian_E203\sdk\whetstone\Debug/../hbird_sdk/SoC/hbirdv2/Common/Source/Drivers/hbirdv2_uart.c:17
    return 0;
80000770:	00008067          	ret
E:\VMshare\e203\zhengdian_E203\sdk\whetstone\Debug/../hbird_sdk/SoC/hbirdv2/Common/Source/Drivers/hbirdv2_uart.c:7
        return -1;
80000774:	fff00513          	li	a0,-1
E:\VMshare\e203\zhengdian_E203\sdk\whetstone\Debug/../hbird_sdk/SoC/hbirdv2/Common/Source/Drivers/hbirdv2_uart.c:18
}
80000778:	00008067          	ret

8000077c <uart_write>:
uart_write():
E:\VMshare\e203\zhengdian_E203\sdk\whetstone\Debug/../hbird_sdk/SoC/hbirdv2/Common/Source/Drivers/hbirdv2_uart.c:68
    return 0;
}

int32_t uart_write(UART_TypeDef *uart, uint8_t val)
{
    if (__RARELY(uart == NULL)) {
8000077c:	00050e63          	beqz	a0,80000798 <uart_write+0x1c>
E:\VMshare\e203\zhengdian_E203\sdk\whetstone\Debug/../hbird_sdk/SoC/hbirdv2/Common/Source/Drivers/hbirdv2_uart.c:73 (discriminator 1)
        return -1;
    }
#ifndef SIMULATION_SPIKE
#ifndef SIMULATION_XLSPIKE
    while ((uart->LSR & 0x20) == 0);
80000780:	01452783          	lw	a5,20(a0)
80000784:	0207f293          	andi	t0,a5,32
80000788:	fe028ce3          	beqz	t0,80000780 <uart_write+0x4>
E:\VMshare\e203\zhengdian_E203\sdk\whetstone\Debug/../hbird_sdk/SoC/hbirdv2/Common/Source/Drivers/hbirdv2_uart.c:75
#endif
    uart->THR = val;
8000078c:	00b52023          	sw	a1,0(a0)
E:\VMshare\e203\zhengdian_E203\sdk\whetstone\Debug/../hbird_sdk/SoC/hbirdv2/Common/Source/Drivers/hbirdv2_uart.c:80
#else
    extern void htif_putc(char ch);
    htif_putc(val);
#endif
    return 0;
80000790:	00000513          	li	a0,0
80000794:	00008067          	ret
E:\VMshare\e203\zhengdian_E203\sdk\whetstone\Debug/../hbird_sdk/SoC/hbirdv2/Common/Source/Drivers/hbirdv2_uart.c:69
        return -1;
80000798:	fff00513          	li	a0,-1
E:\VMshare\e203\zhengdian_E203\sdk\whetstone\Debug/../hbird_sdk/SoC/hbirdv2/Common/Source/Drivers/hbirdv2_uart.c:81
}
8000079c:	00008067          	ret

800007a0 <uart_read>:
uart_read():
E:\VMshare\e203\zhengdian_E203\sdk\whetstone\Debug/../hbird_sdk/SoC/hbirdv2/Common/Source/Drivers/hbirdv2_uart.c:86

uint8_t uart_read(UART_TypeDef *uart)
{
    uint32_t reg;
    if (__RARELY(uart == NULL)) {
800007a0:	00050e63          	beqz	a0,800007bc <uart_read+0x1c>
E:\VMshare\e203\zhengdian_E203\sdk\whetstone\Debug/../hbird_sdk/SoC/hbirdv2/Common/Source/Drivers/hbirdv2_uart.c:90 (discriminator 1)
        return -1;
    }
    
    while ((uart->LSR & 0x1) == 0);
800007a4:	01452783          	lw	a5,20(a0)
800007a8:	0017f293          	andi	t0,a5,1
800007ac:	fe028ce3          	beqz	t0,800007a4 <uart_read+0x4>
E:\VMshare\e203\zhengdian_E203\sdk\whetstone\Debug/../hbird_sdk/SoC/hbirdv2/Common/Source/Drivers/hbirdv2_uart.c:91
    reg = uart->RBR;
800007b0:	00052503          	lw	a0,0(a0)
E:\VMshare\e203\zhengdian_E203\sdk\whetstone\Debug/../hbird_sdk/SoC/hbirdv2/Common/Source/Drivers/hbirdv2_uart.c:93
    
    return (uint8_t)(reg & 0xFF);
800007b4:	0ff57513          	andi	a0,a0,255
800007b8:	00008067          	ret
E:\VMshare\e203\zhengdian_E203\sdk\whetstone\Debug/../hbird_sdk/SoC/hbirdv2/Common/Source/Drivers/hbirdv2_uart.c:87
        return -1;
800007bc:	0ff00513          	li	a0,255
E:\VMshare\e203\zhengdian_E203\sdk\whetstone\Debug/../hbird_sdk/SoC/hbirdv2/Common/Source/Drivers/hbirdv2_uart.c:94
}
800007c0:	00008067          	ret

800007c4 <get_cpu_freq>:
SysTimer_GetLoadValue():
E:\VMshare\e203\zhengdian_E203\sdk\whetstone\hbird_sdk\NMSIS\Core\Include/core_feature_timer.h:106
 * - Load value is 64bits wide.
 * - \ref SysTimer_SetLoadValue
 */
__STATIC_FORCEINLINE uint64_t SysTimer_GetLoadValue(void)
{
    return SysTimer->MTIME;
800007c4:	0200c7b7          	lui	a5,0x200c
800007c8:	ff87a683          	lw	a3,-8(a5) # 200bff8 <__stack_size+0x200b7f8>
800007cc:	ffc7a783          	lw	a5,-4(a5)
get_cpu_freq():
E:\VMshare\e203\zhengdian_E203\sdk\whetstone\Debug/../hbird_sdk/SoC/hbirdv2/Common/Source/hbirdv2_common.c:31
    return (delta_mcycle / delta_mtime) * mtime_freq
           + ((delta_mcycle % delta_mtime) * mtime_freq) / delta_mtime;
}

uint32_t get_cpu_freq(void)
{
800007d0:	ff010113          	addi	sp,sp,-16
800007d4:	00112623          	sw	ra,12(sp)
800007d8:	00812423          	sw	s0,8(sp)
800007dc:	00912223          	sw	s1,4(sp)
SysTimer_GetLoadValue():
E:\VMshare\e203\zhengdian_E203\sdk\whetstone\hbird_sdk\NMSIS\Core\Include/core_feature_timer.h:106
800007e0:	0200c637          	lui	a2,0x200c
measure_cpu_freq():
E:\VMshare\e203\zhengdian_E203\sdk\whetstone\Debug/../hbird_sdk/SoC/hbirdv2/Common/Source/hbirdv2_common.c:15
    uint32_t tmp = (uint32_t)SysTimer_GetLoadValue();
800007e4:	00068093          	mv	ra,a3
SysTimer_GetLoadValue():
E:\VMshare\e203\zhengdian_E203\sdk\whetstone\hbird_sdk\NMSIS\Core\Include/core_feature_timer.h:106
800007e8:	ff862703          	lw	a4,-8(a2) # 200bff8 <__stack_size+0x200b7f8>
800007ec:	ffc62783          	lw	a5,-4(a2)
measure_cpu_freq():
E:\VMshare\e203\zhengdian_E203\sdk\whetstone\Debug/../hbird_sdk/SoC/hbirdv2/Common/Source/hbirdv2_common.c:17
        start_mtime = (uint32_t)SysTimer_GetLoadValue();
800007f0:	00070293          	mv	t0,a4
E:\VMshare\e203\zhengdian_E203\sdk\whetstone\Debug/../hbird_sdk/SoC/hbirdv2/Common/Source/hbirdv2_common.c:18
        start_mcycle = __RV_CSR_READ(CSR_MCYCLE);
800007f4:	b0002773          	csrr	a4,mcycle
E:\VMshare\e203\zhengdian_E203\sdk\whetstone\Debug/../hbird_sdk/SoC/hbirdv2/Common/Source/hbirdv2_common.c:19
    } while (start_mtime == tmp);
800007f8:	fe5088e3          	beq	ra,t0,800007e8 <get_cpu_freq+0x24>
SysTimer_GetLoadValue():
E:\VMshare\e203\zhengdian_E203\sdk\whetstone\hbird_sdk\NMSIS\Core\Include/core_feature_timer.h:106
800007fc:	0200c337          	lui	t1,0x200c
80000800:	ff832383          	lw	t2,-8(t1) # 200bff8 <__stack_size+0x200b7f8>
80000804:	ffc32683          	lw	a3,-4(t1)
measure_cpu_freq():
E:\VMshare\e203\zhengdian_E203\sdk\whetstone\Debug/../hbird_sdk/SoC/hbirdv2/Common/Source/hbirdv2_common.c:23
        delta_mcycle = __RV_CSR_READ(CSR_MCYCLE) - start_mcycle;
80000808:	b00025f3          	csrr	a1,mcycle
E:\VMshare\e203\zhengdian_E203\sdk\whetstone\Debug/../hbird_sdk/SoC/hbirdv2/Common/Source/hbirdv2_common.c:24
    } while (delta_mtime < n);
8000080c:	fe728ae3          	beq	t0,t2,80000800 <get_cpu_freq+0x3c>
SysTimer_GetLoadValue():
E:\VMshare\e203\zhengdian_E203\sdk\whetstone\hbird_sdk\NMSIS\Core\Include/core_feature_timer.h:106
80000810:	ffc32783          	lw	a5,-4(t1)
80000814:	ff832683          	lw	a3,-8(t1)
80000818:	0200c437          	lui	s0,0x200c
measure_cpu_freq():
E:\VMshare\e203\zhengdian_E203\sdk\whetstone\Debug/../hbird_sdk/SoC/hbirdv2/Common/Source/hbirdv2_common.c:15
    uint32_t tmp = (uint32_t)SysTimer_GetLoadValue();
8000081c:	00068493          	mv	s1,a3
SysTimer_GetLoadValue():
E:\VMshare\e203\zhengdian_E203\sdk\whetstone\hbird_sdk\NMSIS\Core\Include/core_feature_timer.h:106
80000820:	ff842503          	lw	a0,-8(s0) # 200bff8 <__stack_size+0x200b7f8>
80000824:	ffc42783          	lw	a5,-4(s0)
measure_cpu_freq():
E:\VMshare\e203\zhengdian_E203\sdk\whetstone\Debug/../hbird_sdk/SoC/hbirdv2/Common/Source/hbirdv2_common.c:17
        start_mtime = (uint32_t)SysTimer_GetLoadValue();
80000828:	00050593          	mv	a1,a0
E:\VMshare\e203\zhengdian_E203\sdk\whetstone\Debug/../hbird_sdk/SoC/hbirdv2/Common/Source/hbirdv2_common.c:18
        start_mcycle = __RV_CSR_READ(CSR_MCYCLE);
8000082c:	b0002873          	csrr	a6,mcycle
E:\VMshare\e203\zhengdian_E203\sdk\whetstone\Debug/../hbird_sdk/SoC/hbirdv2/Common/Source/hbirdv2_common.c:19
    } while (start_mtime == tmp);
80000830:	fea488e3          	beq	s1,a0,80000820 <get_cpu_freq+0x5c>
SysTimer_GetLoadValue():
E:\VMshare\e203\zhengdian_E203\sdk\whetstone\hbird_sdk\NMSIS\Core\Include/core_feature_timer.h:106
80000834:	0200c8b7          	lui	a7,0x200c
measure_cpu_freq():
E:\VMshare\e203\zhengdian_E203\sdk\whetstone\Debug/../hbird_sdk/SoC/hbirdv2/Common/Source/hbirdv2_common.c:24
    } while (delta_mtime < n);
80000838:	06300e13          	li	t3,99
SysTimer_GetLoadValue():
E:\VMshare\e203\zhengdian_E203\sdk\whetstone\hbird_sdk\NMSIS\Core\Include/core_feature_timer.h:106
8000083c:	ff88ae83          	lw	t4,-8(a7) # 200bff8 <__stack_size+0x200b7f8>
80000840:	ffc8a483          	lw	s1,-4(a7)
measure_cpu_freq():
E:\VMshare\e203\zhengdian_E203\sdk\whetstone\Debug/../hbird_sdk/SoC/hbirdv2/Common/Source/hbirdv2_common.c:22
        delta_mtime = (uint32_t)SysTimer_GetLoadValue() - start_mtime;
80000844:	40be8433          	sub	s0,t4,a1
E:\VMshare\e203\zhengdian_E203\sdk\whetstone\Debug/../hbird_sdk/SoC/hbirdv2/Common/Source/hbirdv2_common.c:23
        delta_mcycle = __RV_CSR_READ(CSR_MCYCLE) - start_mcycle;
80000848:	b0002f73          	csrr	t5,mcycle
E:\VMshare\e203\zhengdian_E203\sdk\whetstone\Debug/../hbird_sdk/SoC/hbirdv2/Common/Source/hbirdv2_common.c:24
    } while (delta_mtime < n);
8000084c:	fe8e78e3          	bgeu	t3,s0,8000083c <get_cpu_freq+0x78>
E:\VMshare\e203\zhengdian_E203\sdk\whetstone\Debug/../hbird_sdk/SoC/hbirdv2/Common/Source/hbirdv2_common.c:23
        delta_mcycle = __RV_CSR_READ(CSR_MCYCLE) - start_mcycle;
80000850:	410f04b3          	sub	s1,t5,a6
E:\VMshare\e203\zhengdian_E203\sdk\whetstone\Debug/../hbird_sdk/SoC/hbirdv2/Common/Source/hbirdv2_common.c:27
           + ((delta_mcycle % delta_mtime) * mtime_freq) / delta_mtime;
80000854:	0284ffb3          	remu	t6,s1,s0
80000858:	00040613          	mv	a2,s0
8000085c:	00000693          	li	a3,0
80000860:	00ff9513          	slli	a0,t6,0xf
80000864:	011fd593          	srli	a1,t6,0x11
80000868:	114040ef          	jal	ra,8000497c <__udivdi3>
E:\VMshare\e203\zhengdian_E203\sdk\whetstone\Debug/../hbird_sdk/SoC/hbirdv2/Common/Source/hbirdv2_common.c:26
    return (delta_mcycle / delta_mtime) * mtime_freq
8000086c:	0284d7b3          	divu	a5,s1,s0
get_cpu_freq():
E:\VMshare\e203\zhengdian_E203\sdk\whetstone\Debug/../hbird_sdk/SoC/hbirdv2/Common/Source/hbirdv2_common.c:40
    measure_cpu_freq(1);
    // measure for real
    cpu_freq = measure_cpu_freq(100);

    return cpu_freq;
}
80000870:	00c12083          	lw	ra,12(sp)
80000874:	00812403          	lw	s0,8(sp)
80000878:	00412483          	lw	s1,4(sp)
8000087c:	01010113          	addi	sp,sp,16
measure_cpu_freq():
E:\VMshare\e203\zhengdian_E203\sdk\whetstone\Debug/../hbird_sdk/SoC/hbirdv2/Common/Source/hbirdv2_common.c:27
           + ((delta_mcycle % delta_mtime) * mtime_freq) / delta_mtime;
80000880:	00f79613          	slli	a2,a5,0xf
get_cpu_freq():
E:\VMshare\e203\zhengdian_E203\sdk\whetstone\Debug/../hbird_sdk/SoC/hbirdv2/Common/Source/hbirdv2_common.c:40
}
80000884:	00a60533          	add	a0,a2,a0
80000888:	00008067          	ret

8000088c <system_default_exception_handler>:
system_default_exception_handler():
E:\VMshare\e203\zhengdian_E203\sdk\whetstone\Debug/../hbird_sdk/SoC/hbirdv2/Common/Source/system_hbirdv2.c:168
 * \details
 * This function provided a default exception handling code for all exception ids.
 * By default, It will just print some information for debug, Vendor can customize it according to its requirements.
 */
static void system_default_exception_handler(unsigned long mcause, unsigned long sp)
{
8000088c:	ff010113          	addi	sp,sp,-16
80000890:	00812423          	sw	s0,8(sp)
80000894:	00050413          	mv	s0,a0
E:\VMshare\e203\zhengdian_E203\sdk\whetstone\Debug/../hbird_sdk/SoC/hbirdv2/Common/Source/system_hbirdv2.c:170
    /* TODO: Uncomment this if you have implement printf function */
    printf("Trap in Exception\r\n");
80000898:	0000d517          	auipc	a0,0xd
8000089c:	ba850513          	addi	a0,a0,-1112 # 8000d440 <__trunctfdf2+0x364>
E:\VMshare\e203\zhengdian_E203\sdk\whetstone\Debug/../hbird_sdk/SoC/hbirdv2/Common/Source/system_hbirdv2.c:168
{
800008a0:	00112623          	sw	ra,12(sp)
E:\VMshare\e203\zhengdian_E203\sdk\whetstone\Debug/../hbird_sdk/SoC/hbirdv2/Common/Source/system_hbirdv2.c:170
    printf("Trap in Exception\r\n");
800008a4:	631060ef          	jal	ra,800076d4 <puts>
E:\VMshare\e203\zhengdian_E203\sdk\whetstone\Debug/../hbird_sdk/SoC/hbirdv2/Common/Source/system_hbirdv2.c:171
    printf("MCAUSE: 0x%lx\r\n", mcause);
800008a8:	00040593          	mv	a1,s0
800008ac:	0000d517          	auipc	a0,0xd
800008b0:	ba850513          	addi	a0,a0,-1112 # 8000d454 <__trunctfdf2+0x378>
800008b4:	349060ef          	jal	ra,800073fc <iprintf>
E:\VMshare\e203\zhengdian_E203\sdk\whetstone\Debug/../hbird_sdk/SoC/hbirdv2/Common/Source/system_hbirdv2.c:172
    printf("MEPC  : 0x%lx\r\n", __RV_CSR_READ(CSR_MEPC));
800008b8:	341025f3          	csrr	a1,mepc
800008bc:	0000d517          	auipc	a0,0xd
800008c0:	ba850513          	addi	a0,a0,-1112 # 8000d464 <__trunctfdf2+0x388>
800008c4:	339060ef          	jal	ra,800073fc <iprintf>
E:\VMshare\e203\zhengdian_E203\sdk\whetstone\Debug/../hbird_sdk/SoC/hbirdv2/Common/Source/system_hbirdv2.c:173
    printf("MTVAL : 0x%lx\r\n", __RV_CSR_READ(CSR_MBADADDR));
800008c8:	343025f3          	csrr	a1,mtval
800008cc:	0000d517          	auipc	a0,0xd
800008d0:	ba850513          	addi	a0,a0,-1112 # 8000d474 <__trunctfdf2+0x398>
800008d4:	329060ef          	jal	ra,800073fc <iprintf>
E:\VMshare\e203\zhengdian_E203\sdk\whetstone\Debug/../hbird_sdk/SoC/hbirdv2/Common/Source/system_hbirdv2.c:174 (discriminator 1)
    while(1);
800008d8:	0000006f          	j	800008d8 <system_default_exception_handler+0x4c>

800008dc <system_default_interrupt_handler>:
system_default_interrupt_handler():
E:\VMshare\e203\zhengdian_E203\sdk\whetstone\Debug/../hbird_sdk/SoC/hbirdv2/Common/Source/system_hbirdv2.c:183
 * \brief      System Default Interrupt Handler
 * \details
 * This function provided a default interrupt handling code for all interrupt ids.
 */
static void system_default_interrupt_handler(unsigned long mcause, unsigned long sp)
{
800008dc:	ff010113          	addi	sp,sp,-16
800008e0:	00812423          	sw	s0,8(sp)
800008e4:	00050413          	mv	s0,a0
E:\VMshare\e203\zhengdian_E203\sdk\whetstone\Debug/../hbird_sdk/SoC/hbirdv2/Common/Source/system_hbirdv2.c:185
    /* TODO: Uncomment this if you have implement printf function */
    printf("Trap in Interrupt\r\n");
800008e8:	0000d517          	auipc	a0,0xd
800008ec:	b9c50513          	addi	a0,a0,-1124 # 8000d484 <__trunctfdf2+0x3a8>
E:\VMshare\e203\zhengdian_E203\sdk\whetstone\Debug/../hbird_sdk/SoC/hbirdv2/Common/Source/system_hbirdv2.c:183
{
800008f0:	00112623          	sw	ra,12(sp)
E:\VMshare\e203\zhengdian_E203\sdk\whetstone\Debug/../hbird_sdk/SoC/hbirdv2/Common/Source/system_hbirdv2.c:185
    printf("Trap in Interrupt\r\n");
800008f4:	5e1060ef          	jal	ra,800076d4 <puts>
E:\VMshare\e203\zhengdian_E203\sdk\whetstone\Debug/../hbird_sdk/SoC/hbirdv2/Common/Source/system_hbirdv2.c:186
    printf("MCAUSE: 0x%lx\r\n", mcause);
800008f8:	00040593          	mv	a1,s0
800008fc:	0000d517          	auipc	a0,0xd
80000900:	b5850513          	addi	a0,a0,-1192 # 8000d454 <__trunctfdf2+0x378>
80000904:	2f9060ef          	jal	ra,800073fc <iprintf>
E:\VMshare\e203\zhengdian_E203\sdk\whetstone\Debug/../hbird_sdk/SoC/hbirdv2/Common/Source/system_hbirdv2.c:187
    printf("MEPC  : 0x%lx\r\n", __RV_CSR_READ(CSR_MEPC));
80000908:	341025f3          	csrr	a1,mepc
8000090c:	0000d517          	auipc	a0,0xd
80000910:	b5850513          	addi	a0,a0,-1192 # 8000d464 <__trunctfdf2+0x388>
80000914:	2e9060ef          	jal	ra,800073fc <iprintf>
E:\VMshare\e203\zhengdian_E203\sdk\whetstone\Debug/../hbird_sdk/SoC/hbirdv2/Common/Source/system_hbirdv2.c:188
    printf("MTVAL : 0x%lx\r\n", __RV_CSR_READ(CSR_MBADADDR));
80000918:	343025f3          	csrr	a1,mtval
E:\VMshare\e203\zhengdian_E203\sdk\whetstone\Debug/../hbird_sdk/SoC/hbirdv2/Common/Source/system_hbirdv2.c:189
}
8000091c:	00812403          	lw	s0,8(sp)
80000920:	00c12083          	lw	ra,12(sp)
E:\VMshare\e203\zhengdian_E203\sdk\whetstone\Debug/../hbird_sdk/SoC/hbirdv2/Common/Source/system_hbirdv2.c:188
    printf("MTVAL : 0x%lx\r\n", __RV_CSR_READ(CSR_MBADADDR));
80000924:	0000d517          	auipc	a0,0xd
80000928:	b5050513          	addi	a0,a0,-1200 # 8000d474 <__trunctfdf2+0x398>
E:\VMshare\e203\zhengdian_E203\sdk\whetstone\Debug/../hbird_sdk/SoC/hbirdv2/Common/Source/system_hbirdv2.c:189
}
8000092c:	01010113          	addi	sp,sp,16
E:\VMshare\e203\zhengdian_E203\sdk\whetstone\Debug/../hbird_sdk/SoC/hbirdv2/Common/Source/system_hbirdv2.c:188
    printf("MTVAL : 0x%lx\r\n", __RV_CSR_READ(CSR_MBADADDR));
80000930:	2cd0606f          	j	800073fc <iprintf>

80000934 <SystemInit>:
SystemInit():
E:\VMshare\e203\zhengdian_E203\sdk\whetstone\Debug/../hbird_sdk/SoC/hbirdv2/Common/Source/system_hbirdv2.c:125
    SystemCoreClock = SYSTEM_CLOCK;
80000934:	04c4b7b7          	lui	a5,0x4c4b
80000938:	40078293          	addi	t0,a5,1024 # 4c4b400 <__stack_size+0x4c4ac00>
8000093c:	10000717          	auipc	a4,0x10000
80000940:	88572c23          	sw	t0,-1896(a4) # 900001d4 <SystemCoreClock>
E:\VMshare\e203\zhengdian_E203\sdk\whetstone\Debug/../hbird_sdk/SoC/hbirdv2/Common/Source/system_hbirdv2.c:126
}
80000944:	00008067          	ret

80000948 <core_trap_handler>:
core_trap_handler():
E:\VMshare\e203\zhengdian_E203\sdk\whetstone\Debug/../hbird_sdk/SoC/hbirdv2/Common/Source/system_hbirdv2.c:322
 * - If you want to register core exception handler, please use \ref Exception_Register_EXC
 * - If you want to register core interrupt handler, please use \ref Interrupt_Register_CoreIRQ
 * - If you want to register external interrupt handler, please use \ref Interrupt_Register_ExtIRQ
 */
uint32_t core_trap_handler(unsigned long mcause, unsigned long sp)
{
80000948:	ff010113          	addi	sp,sp,-16
8000094c:	00112623          	sw	ra,12(sp)
E:\VMshare\e203\zhengdian_E203\sdk\whetstone\Debug/../hbird_sdk/SoC/hbirdv2/Common/Source/system_hbirdv2.c:325
    if (mcause & MCAUSE_INTERRUPT) {
        INT_HANDLER int_handler = NULL;
        uint32_t irqn = (uint32_t)(mcause & 0X00000fff);
80000950:	01451793          	slli	a5,a0,0x14
E:\VMshare\e203\zhengdian_E203\sdk\whetstone\Debug/../hbird_sdk/SoC/hbirdv2/Common/Source/system_hbirdv2.c:322
{
80000954:	00812423          	sw	s0,8(sp)
E:\VMshare\e203\zhengdian_E203\sdk\whetstone\Debug/../hbird_sdk/SoC/hbirdv2/Common/Source/system_hbirdv2.c:325
        uint32_t irqn = (uint32_t)(mcause & 0X00000fff);
80000958:	0147d093          	srli	ra,a5,0x14
E:\VMshare\e203\zhengdian_E203\sdk\whetstone\Debug/../hbird_sdk/SoC/hbirdv2/Common/Source/system_hbirdv2.c:323
    if (mcause & MCAUSE_INTERRUPT) {
8000095c:	06054263          	bltz	a0,800009c0 <core_trap_handler+0x78>
core_exception_handler():
E:\VMshare\e203\zhengdian_E203\sdk\whetstone\Debug/../hbird_sdk/SoC/hbirdv2/Common/Source/system_hbirdv2.c:365
static uint32_t core_exception_handler(unsigned long mcause, unsigned long sp)
{
    uint32_t EXCn = (uint32_t)(mcause & 0X00000fff);
    EXC_HANDLER exc_handler;

    if ((EXCn < MAX_SYSTEM_EXCEPTION_NUM) && (EXCn >= 0)) {
80000960:	00a00613          	li	a2,10
80000964:	00050713          	mv	a4,a0
80000968:	00058693          	mv	a3,a1
8000096c:	02167663          	bgeu	a2,ra,80000998 <core_trap_handler+0x50>
E:\VMshare\e203\zhengdian_E203\sdk\whetstone\Debug/../hbird_sdk/SoC/hbirdv2/Common/Source/system_hbirdv2.c:368
        exc_handler = (EXC_HANDLER)SystemExceptionHandlers[EXCn];
    } else {
        exc_handler = (EXC_HANDLER)system_default_exception_handler;
80000970:	00000317          	auipc	t1,0x0
80000974:	f1c30313          	addi	t1,t1,-228 # 8000088c <system_default_exception_handler>
E:\VMshare\e203\zhengdian_E203\sdk\whetstone\Debug/../hbird_sdk/SoC/hbirdv2/Common/Source/system_hbirdv2.c:371
    }
    if (exc_handler != NULL) {
        exc_handler(mcause, sp);
80000978:	00068593          	mv	a1,a3
8000097c:	00070513          	mv	a0,a4
80000980:	000300e7          	jalr	t1
core_trap_handler():
E:\VMshare\e203\zhengdian_E203\sdk\whetstone\Debug/../hbird_sdk/SoC/hbirdv2/Common/Source/system_hbirdv2.c:347
}
80000984:	00c12083          	lw	ra,12(sp)
80000988:	00812403          	lw	s0,8(sp)
8000098c:	00000513          	li	a0,0
80000990:	01010113          	addi	sp,sp,16
80000994:	00008067          	ret
core_exception_handler():
E:\VMshare\e203\zhengdian_E203\sdk\whetstone\Debug/../hbird_sdk/SoC/hbirdv2/Common/Source/system_hbirdv2.c:366
        exc_handler = (EXC_HANDLER)SystemExceptionHandlers[EXCn];
80000998:	00209293          	slli	t0,ra,0x2
8000099c:	a2c18393          	addi	t2,gp,-1492 # 900003fc <SystemExceptionHandlers>
800009a0:	00538433          	add	s0,t2,t0
800009a4:	00042303          	lw	t1,0(s0)
E:\VMshare\e203\zhengdian_E203\sdk\whetstone\Debug/../hbird_sdk/SoC/hbirdv2/Common/Source/system_hbirdv2.c:370
    if (exc_handler != NULL) {
800009a8:	fc0318e3          	bnez	t1,80000978 <core_trap_handler+0x30>
core_trap_handler():
E:\VMshare\e203\zhengdian_E203\sdk\whetstone\Debug/../hbird_sdk/SoC/hbirdv2/Common/Source/system_hbirdv2.c:347
}
800009ac:	00c12083          	lw	ra,12(sp)
800009b0:	00812403          	lw	s0,8(sp)
800009b4:	00000513          	li	a0,0
800009b8:	01010113          	addi	sp,sp,16
800009bc:	00008067          	ret
E:\VMshare\e203\zhengdian_E203\sdk\whetstone\Debug/../hbird_sdk/SoC/hbirdv2/Common/Source/system_hbirdv2.c:326
        if (irqn == IRQ_M_EXT) {
800009c0:	00b00813          	li	a6,11
800009c4:	01008e63          	beq	ra,a6,800009e0 <core_trap_handler+0x98>
E:\VMshare\e203\zhengdian_E203\sdk\whetstone\Debug/../hbird_sdk/SoC/hbirdv2/Common/Source/system_hbirdv2.c:338
            int_handler = (INT_HANDLER)(SystemCoreInterruptHandlers[irqn]);
800009c8:	00209893          	slli	a7,ra,0x2
800009cc:	a0418e13          	addi	t3,gp,-1532 # 900003d4 <SystemCoreInterruptHandlers>
800009d0:	011e0eb3          	add	t4,t3,a7
800009d4:	000ea303          	lw	t1,0(t4)
E:\VMshare\e203\zhengdian_E203\sdk\whetstone\Debug/../hbird_sdk/SoC/hbirdv2/Common/Source/system_hbirdv2.c:339
            if (int_handler != NULL) {
800009d8:	fa0314e3          	bnez	t1,80000980 <core_trap_handler+0x38>
800009dc:	fa9ff06f          	j	80000984 <core_trap_handler+0x3c>
PLIC_ClaimInterrupt():
E:\VMshare\e203\zhengdian_E203\sdk\whetstone\hbird_sdk\NMSIS\Core\Include/core_feature_plic.h:273
 * \sa
 * - \ref PLIC_CompleteInterrupt
 */
__STATIC_FORCEINLINE uint32_t PLIC_ClaimInterrupt(void)
{
    uint32_t hartid = __RV_CSR_READ(CSR_MHARTID);
800009e0:	f1402f73          	csrr	t5,mhartid
E:\VMshare\e203\zhengdian_E203\sdk\whetstone\hbird_sdk\NMSIS\Core\Include/core_feature_plic.h:274
    volatile uint32_t *claim_reg = (uint32_t *)((PLIC_BASE) + PLIC_CLAIM_OFFSET + \
800009e4:	0c2007b7          	lui	a5,0xc200
E:\VMshare\e203\zhengdian_E203\sdk\whetstone\hbird_sdk\NMSIS\Core\Include/core_feature_plic.h:275
                    + (hartid << PLIC_CLAIM_SHIFT_PER_TARGET));
800009e8:	00cf1f93          	slli	t6,t5,0xc
E:\VMshare\e203\zhengdian_E203\sdk\whetstone\hbird_sdk\NMSIS\Core\Include/core_feature_plic.h:274
    volatile uint32_t *claim_reg = (uint32_t *)((PLIC_BASE) + PLIC_CLAIM_OFFSET + \
800009ec:	00478093          	addi	ra,a5,4 # c200004 <__stack_size+0xc1ff804>
800009f0:	001f8733          	add	a4,t6,ra
E:\VMshare\e203\zhengdian_E203\sdk\whetstone\hbird_sdk\NMSIS\Core\Include/core_feature_plic.h:277

    return (*claim_reg);
800009f4:	00072403          	lw	s0,0(a4)
core_trap_handler():
E:\VMshare\e203\zhengdian_E203\sdk\whetstone\Debug/../hbird_sdk/SoC/hbirdv2/Common/Source/system_hbirdv2.c:329
            if (irqn < __PLIC_INTNUM) {
800009f8:	01000693          	li	a3,16
800009fc:	f886e4e3          	bltu	a3,s0,80000984 <core_trap_handler+0x3c>
E:\VMshare\e203\zhengdian_E203\sdk\whetstone\Debug/../hbird_sdk/SoC/hbirdv2/Common/Source/system_hbirdv2.c:330
                int_handler = (INT_HANDLER)(SystemExtInterruptHandlers[irqn]);
80000a00:	00241613          	slli	a2,s0,0x2
80000a04:	a5818313          	addi	t1,gp,-1448 # 90000428 <SystemExtInterruptHandlers>
80000a08:	00c302b3          	add	t0,t1,a2
80000a0c:	0002a383          	lw	t2,0(t0)
E:\VMshare\e203\zhengdian_E203\sdk\whetstone\Debug/../hbird_sdk/SoC/hbirdv2/Common/Source/system_hbirdv2.c:331
                if (int_handler != NULL) {
80000a10:	00038463          	beqz	t2,80000a18 <core_trap_handler+0xd0>
E:\VMshare\e203\zhengdian_E203\sdk\whetstone\Debug/../hbird_sdk/SoC/hbirdv2/Common/Source/system_hbirdv2.c:332
                    int_handler(mcause, sp);
80000a14:	000380e7          	jalr	t2
PLIC_CompleteInterrupt():
E:\VMshare\e203\zhengdian_E203\sdk\whetstone\hbird_sdk\NMSIS\Core\Include/core_feature_plic.h:298
 * \sa
 * - \ref PLIC_ClaimInterrupt
 */
__STATIC_FORCEINLINE void PLIC_CompleteInterrupt(uint32_t source)
{
    uint32_t hartid = __RV_CSR_READ(CSR_MHARTID);
80000a18:	f1402573          	csrr	a0,mhartid
E:\VMshare\e203\zhengdian_E203\sdk\whetstone\hbird_sdk\NMSIS\Core\Include/core_feature_plic.h:299
    volatile uint32_t *complete_reg = (uint32_t *)((PLIC_BASE) + PLIC_CLAIM_OFFSET + \
80000a1c:	0c200837          	lui	a6,0xc200
E:\VMshare\e203\zhengdian_E203\sdk\whetstone\hbird_sdk\NMSIS\Core\Include/core_feature_plic.h:300
                    + (hartid << PLIC_CLAIM_SHIFT_PER_TARGET));
80000a20:	00c51593          	slli	a1,a0,0xc
E:\VMshare\e203\zhengdian_E203\sdk\whetstone\hbird_sdk\NMSIS\Core\Include/core_feature_plic.h:299
    volatile uint32_t *complete_reg = (uint32_t *)((PLIC_BASE) + PLIC_CLAIM_OFFSET + \
80000a24:	00480893          	addi	a7,a6,4 # c200004 <__stack_size+0xc1ff804>
80000a28:	01158e33          	add	t3,a1,a7
E:\VMshare\e203\zhengdian_E203\sdk\whetstone\hbird_sdk\NMSIS\Core\Include/core_feature_plic.h:302

    *complete_reg = source;
80000a2c:	008e2023          	sw	s0,0(t3)
E:\VMshare\e203\zhengdian_E203\sdk\whetstone\hbird_sdk\NMSIS\Core\Include/core_feature_plic.h:303
}
80000a30:	f55ff06f          	j	80000984 <core_trap_handler+0x3c>

80000a34 <_premain_init>:
_premain_init():
E:\VMshare\e203\zhengdian_E203\sdk\whetstone\Debug/../hbird_sdk/SoC/hbirdv2/Common/Source/system_hbirdv2.c:464
 * For RISC-V gnu toolchain, _init function might not be called
 * by __libc_init_array function, so we defined a new function
 * to do initialization
 */
void _premain_init(void)
{
80000a34:	ff010113          	addi	sp,sp,-16
80000a38:	00112623          	sw	ra,12(sp)
80000a3c:	00812423          	sw	s0,8(sp)
E:\VMshare\e203\zhengdian_E203\sdk\whetstone\Debug/../hbird_sdk/SoC/hbirdv2/Common/Source/system_hbirdv2.c:466
    /* TODO: Add your own initialization code here, called before main */
    SystemCoreClock = get_cpu_freq();
80000a40:	d85ff0ef          	jal	ra,800007c4 <get_cpu_freq>
80000a44:	00050793          	mv	a5,a0
80000a48:	0ffff417          	auipc	s0,0xffff
80000a4c:	78c40413          	addi	s0,s0,1932 # 900001d4 <SystemCoreClock>
E:\VMshare\e203\zhengdian_E203\sdk\whetstone\Debug/../hbird_sdk/SoC/hbirdv2/Common/Source/system_hbirdv2.c:468
#if ! defined(SIMULATION_SPIKE) && ! defined(SIMULATION_XLSPIKE)
    gpio_iof_config(GPIOA, IOF_UART_MASK);
80000a50:	000305b7          	lui	a1,0x30
80000a54:	10012537          	lui	a0,0x10012
E:\VMshare\e203\zhengdian_E203\sdk\whetstone\Debug/../hbird_sdk/SoC/hbirdv2/Common/Source/system_hbirdv2.c:466
    SystemCoreClock = get_cpu_freq();
80000a58:	00f42023          	sw	a5,0(s0)
E:\VMshare\e203\zhengdian_E203\sdk\whetstone\Debug/../hbird_sdk/SoC/hbirdv2/Common/Source/system_hbirdv2.c:468
    gpio_iof_config(GPIOA, IOF_UART_MASK);
80000a5c:	ca9ff0ef          	jal	ra,80000704 <gpio_iof_config>
E:\VMshare\e203\zhengdian_E203\sdk\whetstone\Debug/../hbird_sdk/SoC/hbirdv2/Common/Source/system_hbirdv2.c:469
    uart_init(SOC_DEBUG_UART, 115200);
80000a60:	0001c5b7          	lui	a1,0x1c
80000a64:	20058593          	addi	a1,a1,512 # 1c200 <__stack_size+0x1ba00>
80000a68:	10013537          	lui	a0,0x10013
80000a6c:	cbdff0ef          	jal	ra,80000728 <uart_init>
SystemBannerPrint():
E:\VMshare\e203\zhengdian_E203\sdk\whetstone\Debug/../hbird_sdk/SoC/hbirdv2/Common/Source/system_hbirdv2.c:381
    printf("HummingBird SDK Build Time: %s, %s\r\n", __DATE__, __TIME__);
80000a70:	0000d617          	auipc	a2,0xd
80000a74:	a2860613          	addi	a2,a2,-1496 # 8000d498 <__trunctfdf2+0x3bc>
80000a78:	0000d597          	auipc	a1,0xd
80000a7c:	a2c58593          	addi	a1,a1,-1492 # 8000d4a4 <__trunctfdf2+0x3c8>
80000a80:	0000d517          	auipc	a0,0xd
80000a84:	a3050513          	addi	a0,a0,-1488 # 8000d4b0 <__trunctfdf2+0x3d4>
80000a88:	175060ef          	jal	ra,800073fc <iprintf>
E:\VMshare\e203\zhengdian_E203\sdk\whetstone\Debug/../hbird_sdk/SoC/hbirdv2/Common/Source/system_hbirdv2.c:383
    printf("Download Mode: %s\r\n", DOWNLOAD_MODE_STRING);
80000a8c:	0000d597          	auipc	a1,0xd
80000a90:	a4c58593          	addi	a1,a1,-1460 # 8000d4d8 <__trunctfdf2+0x3fc>
80000a94:	0000d517          	auipc	a0,0xd
80000a98:	a4850513          	addi	a0,a0,-1464 # 8000d4dc <__trunctfdf2+0x400>
80000a9c:	161060ef          	jal	ra,800073fc <iprintf>
E:\VMshare\e203\zhengdian_E203\sdk\whetstone\Debug/../hbird_sdk/SoC/hbirdv2/Common/Source/system_hbirdv2.c:385
    printf("CPU Frequency %lu Hz\r\n", SystemCoreClock);
80000aa0:	00042583          	lw	a1,0(s0)
80000aa4:	0000d517          	auipc	a0,0xd
80000aa8:	a4c50513          	addi	a0,a0,-1460 # 8000d4f0 <__trunctfdf2+0x414>
80000aac:	151060ef          	jal	ra,800073fc <iprintf>
Interrupt_Init():
E:\VMshare\e203\zhengdian_E203\sdk\whetstone\Debug/../hbird_sdk/SoC/hbirdv2/Common/Source/system_hbirdv2.c:216
        SystemExtInterruptHandlers[i] = (unsigned long)system_default_interrupt_handler;
80000ab0:	00000297          	auipc	t0,0x0
80000ab4:	e2c28293          	addi	t0,t0,-468 # 800008dc <system_default_interrupt_handler>
80000ab8:	a5818713          	addi	a4,gp,-1448 # 90000428 <SystemExtInterruptHandlers>
Exception_Init():
E:\VMshare\e203\zhengdian_E203\sdk\whetstone\Debug/../hbird_sdk/SoC/hbirdv2/Common/Source/system_hbirdv2.c:201
        SystemExceptionHandlers[i] = (unsigned long)system_default_exception_handler;
80000abc:	00000617          	auipc	a2,0x0
80000ac0:	dd060613          	addi	a2,a2,-560 # 8000088c <system_default_exception_handler>
80000ac4:	a2c18693          	addi	a3,gp,-1492 # 900003fc <SystemExceptionHandlers>
Interrupt_Init():
E:\VMshare\e203\zhengdian_E203\sdk\whetstone\Debug/../hbird_sdk/SoC/hbirdv2/Common/Source/system_hbirdv2.c:219
        SystemCoreInterruptHandlers[i] = (unsigned long)system_default_interrupt_handler;
80000ac8:	a0418313          	addi	t1,gp,-1532 # 900003d4 <SystemCoreInterruptHandlers>
Exception_Init():
E:\VMshare\e203\zhengdian_E203\sdk\whetstone\Debug/../hbird_sdk/SoC/hbirdv2/Common/Source/system_hbirdv2.c:201
        SystemExceptionHandlers[i] = (unsigned long)system_default_exception_handler;
80000acc:	00c6a023          	sw	a2,0(a3)
80000ad0:	00c6a223          	sw	a2,4(a3)
80000ad4:	00c6a423          	sw	a2,8(a3)
80000ad8:	00c6a623          	sw	a2,12(a3)
80000adc:	00c6a823          	sw	a2,16(a3)
80000ae0:	00c6aa23          	sw	a2,20(a3)
80000ae4:	00c6ac23          	sw	a2,24(a3)
80000ae8:	00c6ae23          	sw	a2,28(a3)
80000aec:	02c6a023          	sw	a2,32(a3)
80000af0:	02c6a223          	sw	a2,36(a3)
80000af4:	02c6a423          	sw	a2,40(a3)
Interrupt_Init():
E:\VMshare\e203\zhengdian_E203\sdk\whetstone\Debug/../hbird_sdk/SoC/hbirdv2/Common/Source/system_hbirdv2.c:216
        SystemExtInterruptHandlers[i] = (unsigned long)system_default_interrupt_handler;
80000af8:	00572023          	sw	t0,0(a4)
80000afc:	00572223          	sw	t0,4(a4)
80000b00:	00572423          	sw	t0,8(a4)
80000b04:	00572623          	sw	t0,12(a4)
80000b08:	00572823          	sw	t0,16(a4)
80000b0c:	00572a23          	sw	t0,20(a4)
80000b10:	00572c23          	sw	t0,24(a4)
80000b14:	00572e23          	sw	t0,28(a4)
80000b18:	02572023          	sw	t0,32(a4)
80000b1c:	02572223          	sw	t0,36(a4)
80000b20:	02572423          	sw	t0,40(a4)
80000b24:	02572623          	sw	t0,44(a4)
80000b28:	02572823          	sw	t0,48(a4)
80000b2c:	02572a23          	sw	t0,52(a4)
80000b30:	02572c23          	sw	t0,56(a4)
80000b34:	02572e23          	sw	t0,60(a4)
80000b38:	04572023          	sw	t0,64(a4)
E:\VMshare\e203\zhengdian_E203\sdk\whetstone\Debug/../hbird_sdk/SoC/hbirdv2/Common/Source/system_hbirdv2.c:219
        SystemCoreInterruptHandlers[i] = (unsigned long)system_default_interrupt_handler;
80000b3c:	00532023          	sw	t0,0(t1)
80000b40:	00532223          	sw	t0,4(t1)
80000b44:	00532423          	sw	t0,8(t1)
80000b48:	00532623          	sw	t0,12(t1)
80000b4c:	00532823          	sw	t0,16(t1)
80000b50:	00532a23          	sw	t0,20(t1)
80000b54:	00532c23          	sw	t0,24(t1)
80000b58:	00532e23          	sw	t0,28(t1)
80000b5c:	02532023          	sw	t0,32(t1)
80000b60:	02532223          	sw	t0,36(t1)
PLIC_DisableInterrupt():
E:\VMshare\e203\zhengdian_E203\sdk\whetstone\hbird_sdk\NMSIS\Core\Include/core_feature_plic.h:191
    uint32_t hartid = __RV_CSR_READ(CSR_MHARTID);
80000b64:	f14023f3          	csrr	t2,mhartid
E:\VMshare\e203\zhengdian_E203\sdk\whetstone\hbird_sdk\NMSIS\Core\Include/core_feature_plic.h:193
                    (hartid << PLIC_ENABLE_SHIFT_PER_TARGET) + (source >> 5) * 4);
80000b68:	0c002837          	lui	a6,0xc002
80000b6c:	00739513          	slli	a0,t2,0x7
80000b70:	010508b3          	add	a7,a0,a6
E:\VMshare\e203\zhengdian_E203\sdk\whetstone\hbird_sdk\NMSIS\Core\Include/core_feature_plic.h:195
    uint32_t current = *enable_reg;
80000b74:	0008ae03          	lw	t3,0(a7)
PLIC_SetPriority():
E:\VMshare\e203\zhengdian_E203\sdk\whetstone\hbird_sdk\NMSIS\Core\Include/core_feature_plic.h:237
    *priority_reg = priority;
80000b78:	0c000eb7          	lui	t4,0xc000
PLIC_DisableInterrupt():
E:\VMshare\e203\zhengdian_E203\sdk\whetstone\hbird_sdk\NMSIS\Core\Include/core_feature_plic.h:196
    current = current & (~(1<<(source&0x1F)));
80000b7c:	ffee7f13          	andi	t5,t3,-2
E:\VMshare\e203\zhengdian_E203\sdk\whetstone\hbird_sdk\NMSIS\Core\Include/core_feature_plic.h:197
    *enable_reg = current;
80000b80:	01e8a023          	sw	t5,0(a7)
PLIC_SetPriority():
E:\VMshare\e203\zhengdian_E203\sdk\whetstone\hbird_sdk\NMSIS\Core\Include/core_feature_plic.h:237
    *priority_reg = priority;
80000b84:	000ea023          	sw	zero,0(t4) # c000000 <__stack_size+0xbfff800>
PLIC_DisableInterrupt():
E:\VMshare\e203\zhengdian_E203\sdk\whetstone\hbird_sdk\NMSIS\Core\Include/core_feature_plic.h:191
    uint32_t hartid = __RV_CSR_READ(CSR_MHARTID);
80000b88:	f1402ff3          	csrr	t6,mhartid
E:\VMshare\e203\zhengdian_E203\sdk\whetstone\hbird_sdk\NMSIS\Core\Include/core_feature_plic.h:193
                    (hartid << PLIC_ENABLE_SHIFT_PER_TARGET) + (source >> 5) * 4);
80000b8c:	007f9793          	slli	a5,t6,0x7
80000b90:	01078433          	add	s0,a5,a6
E:\VMshare\e203\zhengdian_E203\sdk\whetstone\hbird_sdk\NMSIS\Core\Include/core_feature_plic.h:195
    uint32_t current = *enable_reg;
80000b94:	00042583          	lw	a1,0(s0)
E:\VMshare\e203\zhengdian_E203\sdk\whetstone\hbird_sdk\NMSIS\Core\Include/core_feature_plic.h:196
    current = current & (~(1<<(source&0x1F)));
80000b98:	ffd5f293          	andi	t0,a1,-3
E:\VMshare\e203\zhengdian_E203\sdk\whetstone\hbird_sdk\NMSIS\Core\Include/core_feature_plic.h:197
    *enable_reg = current;
80000b9c:	00542023          	sw	t0,0(s0)
PLIC_SetPriority():
E:\VMshare\e203\zhengdian_E203\sdk\whetstone\hbird_sdk\NMSIS\Core\Include/core_feature_plic.h:237
    *priority_reg = priority;
80000ba0:	000ea223          	sw	zero,4(t4)
PLIC_DisableInterrupt():
E:\VMshare\e203\zhengdian_E203\sdk\whetstone\hbird_sdk\NMSIS\Core\Include/core_feature_plic.h:191
    uint32_t hartid = __RV_CSR_READ(CSR_MHARTID);
80000ba4:	f1402773          	csrr	a4,mhartid
E:\VMshare\e203\zhengdian_E203\sdk\whetstone\hbird_sdk\NMSIS\Core\Include/core_feature_plic.h:193
                    (hartid << PLIC_ENABLE_SHIFT_PER_TARGET) + (source >> 5) * 4);
80000ba8:	00771613          	slli	a2,a4,0x7
80000bac:	010606b3          	add	a3,a2,a6
E:\VMshare\e203\zhengdian_E203\sdk\whetstone\hbird_sdk\NMSIS\Core\Include/core_feature_plic.h:195
    uint32_t current = *enable_reg;
80000bb0:	0006a303          	lw	t1,0(a3)
E:\VMshare\e203\zhengdian_E203\sdk\whetstone\hbird_sdk\NMSIS\Core\Include/core_feature_plic.h:196
    current = current & (~(1<<(source&0x1F)));
80000bb4:	ffb37393          	andi	t2,t1,-5
E:\VMshare\e203\zhengdian_E203\sdk\whetstone\hbird_sdk\NMSIS\Core\Include/core_feature_plic.h:197
    *enable_reg = current;
80000bb8:	0076a023          	sw	t2,0(a3)
PLIC_SetPriority():
E:\VMshare\e203\zhengdian_E203\sdk\whetstone\hbird_sdk\NMSIS\Core\Include/core_feature_plic.h:237
    *priority_reg = priority;
80000bbc:	000ea423          	sw	zero,8(t4)
PLIC_DisableInterrupt():
E:\VMshare\e203\zhengdian_E203\sdk\whetstone\hbird_sdk\NMSIS\Core\Include/core_feature_plic.h:191
    uint32_t hartid = __RV_CSR_READ(CSR_MHARTID);
80000bc0:	f1402573          	csrr	a0,mhartid
E:\VMshare\e203\zhengdian_E203\sdk\whetstone\hbird_sdk\NMSIS\Core\Include/core_feature_plic.h:193
                    (hartid << PLIC_ENABLE_SHIFT_PER_TARGET) + (source >> 5) * 4);
80000bc4:	00751893          	slli	a7,a0,0x7
80000bc8:	01088e33          	add	t3,a7,a6
E:\VMshare\e203\zhengdian_E203\sdk\whetstone\hbird_sdk\NMSIS\Core\Include/core_feature_plic.h:195
    uint32_t current = *enable_reg;
80000bcc:	000e2f03          	lw	t5,0(t3)
E:\VMshare\e203\zhengdian_E203\sdk\whetstone\hbird_sdk\NMSIS\Core\Include/core_feature_plic.h:196
    current = current & (~(1<<(source&0x1F)));
80000bd0:	ff7f7f93          	andi	t6,t5,-9
E:\VMshare\e203\zhengdian_E203\sdk\whetstone\hbird_sdk\NMSIS\Core\Include/core_feature_plic.h:197
    *enable_reg = current;
80000bd4:	01fe2023          	sw	t6,0(t3)
PLIC_SetPriority():
E:\VMshare\e203\zhengdian_E203\sdk\whetstone\hbird_sdk\NMSIS\Core\Include/core_feature_plic.h:237
    *priority_reg = priority;
80000bd8:	000ea623          	sw	zero,12(t4)
PLIC_DisableInterrupt():
E:\VMshare\e203\zhengdian_E203\sdk\whetstone\hbird_sdk\NMSIS\Core\Include/core_feature_plic.h:191
    uint32_t hartid = __RV_CSR_READ(CSR_MHARTID);
80000bdc:	f14027f3          	csrr	a5,mhartid
E:\VMshare\e203\zhengdian_E203\sdk\whetstone\hbird_sdk\NMSIS\Core\Include/core_feature_plic.h:193
                    (hartid << PLIC_ENABLE_SHIFT_PER_TARGET) + (source >> 5) * 4);
80000be0:	00779413          	slli	s0,a5,0x7
80000be4:	010405b3          	add	a1,s0,a6
E:\VMshare\e203\zhengdian_E203\sdk\whetstone\hbird_sdk\NMSIS\Core\Include/core_feature_plic.h:195
    uint32_t current = *enable_reg;
80000be8:	0005a283          	lw	t0,0(a1)
E:\VMshare\e203\zhengdian_E203\sdk\whetstone\hbird_sdk\NMSIS\Core\Include/core_feature_plic.h:196
    current = current & (~(1<<(source&0x1F)));
80000bec:	fef2f713          	andi	a4,t0,-17
E:\VMshare\e203\zhengdian_E203\sdk\whetstone\hbird_sdk\NMSIS\Core\Include/core_feature_plic.h:197
    *enable_reg = current;
80000bf0:	00e5a023          	sw	a4,0(a1)
PLIC_SetPriority():
E:\VMshare\e203\zhengdian_E203\sdk\whetstone\hbird_sdk\NMSIS\Core\Include/core_feature_plic.h:237
    *priority_reg = priority;
80000bf4:	000ea823          	sw	zero,16(t4)
PLIC_DisableInterrupt():
E:\VMshare\e203\zhengdian_E203\sdk\whetstone\hbird_sdk\NMSIS\Core\Include/core_feature_plic.h:191
    uint32_t hartid = __RV_CSR_READ(CSR_MHARTID);
80000bf8:	f1402673          	csrr	a2,mhartid
E:\VMshare\e203\zhengdian_E203\sdk\whetstone\hbird_sdk\NMSIS\Core\Include/core_feature_plic.h:193
                    (hartid << PLIC_ENABLE_SHIFT_PER_TARGET) + (source >> 5) * 4);
80000bfc:	00761693          	slli	a3,a2,0x7
80000c00:	01068333          	add	t1,a3,a6
E:\VMshare\e203\zhengdian_E203\sdk\whetstone\hbird_sdk\NMSIS\Core\Include/core_feature_plic.h:195
    uint32_t current = *enable_reg;
80000c04:	00032383          	lw	t2,0(t1)
E:\VMshare\e203\zhengdian_E203\sdk\whetstone\hbird_sdk\NMSIS\Core\Include/core_feature_plic.h:196
    current = current & (~(1<<(source&0x1F)));
80000c08:	fdf3f513          	andi	a0,t2,-33
E:\VMshare\e203\zhengdian_E203\sdk\whetstone\hbird_sdk\NMSIS\Core\Include/core_feature_plic.h:197
    *enable_reg = current;
80000c0c:	00a32023          	sw	a0,0(t1)
PLIC_SetPriority():
E:\VMshare\e203\zhengdian_E203\sdk\whetstone\hbird_sdk\NMSIS\Core\Include/core_feature_plic.h:237
    *priority_reg = priority;
80000c10:	000eaa23          	sw	zero,20(t4)
PLIC_DisableInterrupt():
E:\VMshare\e203\zhengdian_E203\sdk\whetstone\hbird_sdk\NMSIS\Core\Include/core_feature_plic.h:191
    uint32_t hartid = __RV_CSR_READ(CSR_MHARTID);
80000c14:	f14028f3          	csrr	a7,mhartid
E:\VMshare\e203\zhengdian_E203\sdk\whetstone\hbird_sdk\NMSIS\Core\Include/core_feature_plic.h:193
                    (hartid << PLIC_ENABLE_SHIFT_PER_TARGET) + (source >> 5) * 4);
80000c18:	00789e13          	slli	t3,a7,0x7
80000c1c:	010e0f33          	add	t5,t3,a6
E:\VMshare\e203\zhengdian_E203\sdk\whetstone\hbird_sdk\NMSIS\Core\Include/core_feature_plic.h:195
    uint32_t current = *enable_reg;
80000c20:	000f2f83          	lw	t6,0(t5)
E:\VMshare\e203\zhengdian_E203\sdk\whetstone\hbird_sdk\NMSIS\Core\Include/core_feature_plic.h:196
    current = current & (~(1<<(source&0x1F)));
80000c24:	fbfff793          	andi	a5,t6,-65
E:\VMshare\e203\zhengdian_E203\sdk\whetstone\hbird_sdk\NMSIS\Core\Include/core_feature_plic.h:197
    *enable_reg = current;
80000c28:	00ff2023          	sw	a5,0(t5)
PLIC_SetPriority():
E:\VMshare\e203\zhengdian_E203\sdk\whetstone\hbird_sdk\NMSIS\Core\Include/core_feature_plic.h:237
    *priority_reg = priority;
80000c2c:	000eac23          	sw	zero,24(t4)
PLIC_DisableInterrupt():
E:\VMshare\e203\zhengdian_E203\sdk\whetstone\hbird_sdk\NMSIS\Core\Include/core_feature_plic.h:191
    uint32_t hartid = __RV_CSR_READ(CSR_MHARTID);
80000c30:	f1402473          	csrr	s0,mhartid
E:\VMshare\e203\zhengdian_E203\sdk\whetstone\hbird_sdk\NMSIS\Core\Include/core_feature_plic.h:193
                    (hartid << PLIC_ENABLE_SHIFT_PER_TARGET) + (source >> 5) * 4);
80000c34:	00741593          	slli	a1,s0,0x7
80000c38:	010582b3          	add	t0,a1,a6
E:\VMshare\e203\zhengdian_E203\sdk\whetstone\hbird_sdk\NMSIS\Core\Include/core_feature_plic.h:195
    uint32_t current = *enable_reg;
80000c3c:	0002a703          	lw	a4,0(t0)
E:\VMshare\e203\zhengdian_E203\sdk\whetstone\hbird_sdk\NMSIS\Core\Include/core_feature_plic.h:196
    current = current & (~(1<<(source&0x1F)));
80000c40:	f7f77613          	andi	a2,a4,-129
E:\VMshare\e203\zhengdian_E203\sdk\whetstone\hbird_sdk\NMSIS\Core\Include/core_feature_plic.h:197
    *enable_reg = current;
80000c44:	00c2a023          	sw	a2,0(t0)
PLIC_SetPriority():
E:\VMshare\e203\zhengdian_E203\sdk\whetstone\hbird_sdk\NMSIS\Core\Include/core_feature_plic.h:237
    *priority_reg = priority;
80000c48:	000eae23          	sw	zero,28(t4)
PLIC_DisableInterrupt():
E:\VMshare\e203\zhengdian_E203\sdk\whetstone\hbird_sdk\NMSIS\Core\Include/core_feature_plic.h:191
    uint32_t hartid = __RV_CSR_READ(CSR_MHARTID);
80000c4c:	f14026f3          	csrr	a3,mhartid
E:\VMshare\e203\zhengdian_E203\sdk\whetstone\hbird_sdk\NMSIS\Core\Include/core_feature_plic.h:193
                    (hartid << PLIC_ENABLE_SHIFT_PER_TARGET) + (source >> 5) * 4);
80000c50:	00769313          	slli	t1,a3,0x7
80000c54:	010303b3          	add	t2,t1,a6
E:\VMshare\e203\zhengdian_E203\sdk\whetstone\hbird_sdk\NMSIS\Core\Include/core_feature_plic.h:195
    uint32_t current = *enable_reg;
80000c58:	0003a503          	lw	a0,0(t2)
E:\VMshare\e203\zhengdian_E203\sdk\whetstone\hbird_sdk\NMSIS\Core\Include/core_feature_plic.h:196
    current = current & (~(1<<(source&0x1F)));
80000c5c:	eff57893          	andi	a7,a0,-257
E:\VMshare\e203\zhengdian_E203\sdk\whetstone\hbird_sdk\NMSIS\Core\Include/core_feature_plic.h:197
    *enable_reg = current;
80000c60:	0113a023          	sw	a7,0(t2)
PLIC_SetPriority():
E:\VMshare\e203\zhengdian_E203\sdk\whetstone\hbird_sdk\NMSIS\Core\Include/core_feature_plic.h:237
    *priority_reg = priority;
80000c64:	020ea023          	sw	zero,32(t4)
PLIC_DisableInterrupt():
E:\VMshare\e203\zhengdian_E203\sdk\whetstone\hbird_sdk\NMSIS\Core\Include/core_feature_plic.h:191
    uint32_t hartid = __RV_CSR_READ(CSR_MHARTID);
80000c68:	f1402e73          	csrr	t3,mhartid
E:\VMshare\e203\zhengdian_E203\sdk\whetstone\hbird_sdk\NMSIS\Core\Include/core_feature_plic.h:193
                    (hartid << PLIC_ENABLE_SHIFT_PER_TARGET) + (source >> 5) * 4);
80000c6c:	007e1f13          	slli	t5,t3,0x7
80000c70:	010f0fb3          	add	t6,t5,a6
E:\VMshare\e203\zhengdian_E203\sdk\whetstone\hbird_sdk\NMSIS\Core\Include/core_feature_plic.h:195
    uint32_t current = *enable_reg;
80000c74:	000fa783          	lw	a5,0(t6)
E:\VMshare\e203\zhengdian_E203\sdk\whetstone\hbird_sdk\NMSIS\Core\Include/core_feature_plic.h:196
    current = current & (~(1<<(source&0x1F)));
80000c78:	dff7f413          	andi	s0,a5,-513
E:\VMshare\e203\zhengdian_E203\sdk\whetstone\hbird_sdk\NMSIS\Core\Include/core_feature_plic.h:197
    *enable_reg = current;
80000c7c:	008fa023          	sw	s0,0(t6)
PLIC_SetPriority():
E:\VMshare\e203\zhengdian_E203\sdk\whetstone\hbird_sdk\NMSIS\Core\Include/core_feature_plic.h:237
    *priority_reg = priority;
80000c80:	020ea223          	sw	zero,36(t4)
PLIC_DisableInterrupt():
E:\VMshare\e203\zhengdian_E203\sdk\whetstone\hbird_sdk\NMSIS\Core\Include/core_feature_plic.h:191
    uint32_t hartid = __RV_CSR_READ(CSR_MHARTID);
80000c84:	f14025f3          	csrr	a1,mhartid
E:\VMshare\e203\zhengdian_E203\sdk\whetstone\hbird_sdk\NMSIS\Core\Include/core_feature_plic.h:193
                    (hartid << PLIC_ENABLE_SHIFT_PER_TARGET) + (source >> 5) * 4);
80000c88:	00759293          	slli	t0,a1,0x7
80000c8c:	01028733          	add	a4,t0,a6
E:\VMshare\e203\zhengdian_E203\sdk\whetstone\hbird_sdk\NMSIS\Core\Include/core_feature_plic.h:195
    uint32_t current = *enable_reg;
80000c90:	00072603          	lw	a2,0(a4)
E:\VMshare\e203\zhengdian_E203\sdk\whetstone\hbird_sdk\NMSIS\Core\Include/core_feature_plic.h:196
    current = current & (~(1<<(source&0x1F)));
80000c94:	bff67693          	andi	a3,a2,-1025
E:\VMshare\e203\zhengdian_E203\sdk\whetstone\hbird_sdk\NMSIS\Core\Include/core_feature_plic.h:197
    *enable_reg = current;
80000c98:	00d72023          	sw	a3,0(a4)
PLIC_SetPriority():
E:\VMshare\e203\zhengdian_E203\sdk\whetstone\hbird_sdk\NMSIS\Core\Include/core_feature_plic.h:237
    *priority_reg = priority;
80000c9c:	020ea423          	sw	zero,40(t4)
PLIC_DisableInterrupt():
E:\VMshare\e203\zhengdian_E203\sdk\whetstone\hbird_sdk\NMSIS\Core\Include/core_feature_plic.h:191
    uint32_t hartid = __RV_CSR_READ(CSR_MHARTID);
80000ca0:	f1402373          	csrr	t1,mhartid
E:\VMshare\e203\zhengdian_E203\sdk\whetstone\hbird_sdk\NMSIS\Core\Include/core_feature_plic.h:193
                    (hartid << PLIC_ENABLE_SHIFT_PER_TARGET) + (source >> 5) * 4);
80000ca4:	00731393          	slli	t2,t1,0x7
80000ca8:	010388b3          	add	a7,t2,a6
E:\VMshare\e203\zhengdian_E203\sdk\whetstone\hbird_sdk\NMSIS\Core\Include/core_feature_plic.h:195
    uint32_t current = *enable_reg;
80000cac:	0008ae03          	lw	t3,0(a7)
E:\VMshare\e203\zhengdian_E203\sdk\whetstone\hbird_sdk\NMSIS\Core\Include/core_feature_plic.h:196
    current = current & (~(1<<(source&0x1F)));
80000cb0:	ffffff37          	lui	t5,0xfffff
80000cb4:	7fff0513          	addi	a0,t5,2047 # fffff7ff <_sp+0x6ffef7ff>
80000cb8:	00ae7fb3          	and	t6,t3,a0
E:\VMshare\e203\zhengdian_E203\sdk\whetstone\hbird_sdk\NMSIS\Core\Include/core_feature_plic.h:197
    *enable_reg = current;
80000cbc:	01f8a023          	sw	t6,0(a7)
PLIC_SetPriority():
E:\VMshare\e203\zhengdian_E203\sdk\whetstone\hbird_sdk\NMSIS\Core\Include/core_feature_plic.h:237
    *priority_reg = priority;
80000cc0:	020ea623          	sw	zero,44(t4)
PLIC_DisableInterrupt():
E:\VMshare\e203\zhengdian_E203\sdk\whetstone\hbird_sdk\NMSIS\Core\Include/core_feature_plic.h:191
    uint32_t hartid = __RV_CSR_READ(CSR_MHARTID);
80000cc4:	f14027f3          	csrr	a5,mhartid
E:\VMshare\e203\zhengdian_E203\sdk\whetstone\hbird_sdk\NMSIS\Core\Include/core_feature_plic.h:193
                    (hartid << PLIC_ENABLE_SHIFT_PER_TARGET) + (source >> 5) * 4);
80000cc8:	00779413          	slli	s0,a5,0x7
80000ccc:	010402b3          	add	t0,s0,a6
E:\VMshare\e203\zhengdian_E203\sdk\whetstone\hbird_sdk\NMSIS\Core\Include/core_feature_plic.h:195
    uint32_t current = *enable_reg;
80000cd0:	0002a583          	lw	a1,0(t0)
E:\VMshare\e203\zhengdian_E203\sdk\whetstone\hbird_sdk\NMSIS\Core\Include/core_feature_plic.h:196
    current = current & (~(1<<(source&0x1F)));
80000cd4:	ffff0713          	addi	a4,t5,-1
80000cd8:	00e5f633          	and	a2,a1,a4
E:\VMshare\e203\zhengdian_E203\sdk\whetstone\hbird_sdk\NMSIS\Core\Include/core_feature_plic.h:197
    *enable_reg = current;
80000cdc:	00c2a023          	sw	a2,0(t0)
PLIC_SetPriority():
E:\VMshare\e203\zhengdian_E203\sdk\whetstone\hbird_sdk\NMSIS\Core\Include/core_feature_plic.h:237
    *priority_reg = priority;
80000ce0:	020ea823          	sw	zero,48(t4)
PLIC_DisableInterrupt():
E:\VMshare\e203\zhengdian_E203\sdk\whetstone\hbird_sdk\NMSIS\Core\Include/core_feature_plic.h:191
    uint32_t hartid = __RV_CSR_READ(CSR_MHARTID);
80000ce4:	f14026f3          	csrr	a3,mhartid
E:\VMshare\e203\zhengdian_E203\sdk\whetstone\hbird_sdk\NMSIS\Core\Include/core_feature_plic.h:193
                    (hartid << PLIC_ENABLE_SHIFT_PER_TARGET) + (source >> 5) * 4);
80000ce8:	00769313          	slli	t1,a3,0x7
80000cec:	010303b3          	add	t2,t1,a6
E:\VMshare\e203\zhengdian_E203\sdk\whetstone\hbird_sdk\NMSIS\Core\Include/core_feature_plic.h:195
    uint32_t current = *enable_reg;
80000cf0:	0003a883          	lw	a7,0(t2)
E:\VMshare\e203\zhengdian_E203\sdk\whetstone\hbird_sdk\NMSIS\Core\Include/core_feature_plic.h:196
    current = current & (~(1<<(source&0x1F)));
80000cf4:	ffffee37          	lui	t3,0xffffe
80000cf8:	fffe0f13          	addi	t5,t3,-1 # ffffdfff <_sp+0x6ffedfff>
80000cfc:	01e8f533          	and	a0,a7,t5
E:\VMshare\e203\zhengdian_E203\sdk\whetstone\hbird_sdk\NMSIS\Core\Include/core_feature_plic.h:197
    *enable_reg = current;
80000d00:	00a3a023          	sw	a0,0(t2)
PLIC_SetPriority():
E:\VMshare\e203\zhengdian_E203\sdk\whetstone\hbird_sdk\NMSIS\Core\Include/core_feature_plic.h:237
    *priority_reg = priority;
80000d04:	020eaa23          	sw	zero,52(t4)
PLIC_DisableInterrupt():
E:\VMshare\e203\zhengdian_E203\sdk\whetstone\hbird_sdk\NMSIS\Core\Include/core_feature_plic.h:191
    uint32_t hartid = __RV_CSR_READ(CSR_MHARTID);
80000d08:	f1402ff3          	csrr	t6,mhartid
E:\VMshare\e203\zhengdian_E203\sdk\whetstone\hbird_sdk\NMSIS\Core\Include/core_feature_plic.h:193
                    (hartid << PLIC_ENABLE_SHIFT_PER_TARGET) + (source >> 5) * 4);
80000d0c:	007f9793          	slli	a5,t6,0x7
80000d10:	01078433          	add	s0,a5,a6
E:\VMshare\e203\zhengdian_E203\sdk\whetstone\hbird_sdk\NMSIS\Core\Include/core_feature_plic.h:195
    uint32_t current = *enable_reg;
80000d14:	00042283          	lw	t0,0(s0)
E:\VMshare\e203\zhengdian_E203\sdk\whetstone\hbird_sdk\NMSIS\Core\Include/core_feature_plic.h:196
    current = current & (~(1<<(source&0x1F)));
80000d18:	ffffc5b7          	lui	a1,0xffffc
80000d1c:	fff58713          	addi	a4,a1,-1 # ffffbfff <_sp+0x6ffebfff>
80000d20:	00e2f633          	and	a2,t0,a4
E:\VMshare\e203\zhengdian_E203\sdk\whetstone\hbird_sdk\NMSIS\Core\Include/core_feature_plic.h:197
    *enable_reg = current;
80000d24:	00c42023          	sw	a2,0(s0)
PLIC_SetPriority():
E:\VMshare\e203\zhengdian_E203\sdk\whetstone\hbird_sdk\NMSIS\Core\Include/core_feature_plic.h:237
    *priority_reg = priority;
80000d28:	020eac23          	sw	zero,56(t4)
PLIC_DisableInterrupt():
E:\VMshare\e203\zhengdian_E203\sdk\whetstone\hbird_sdk\NMSIS\Core\Include/core_feature_plic.h:191
    uint32_t hartid = __RV_CSR_READ(CSR_MHARTID);
80000d2c:	f14026f3          	csrr	a3,mhartid
E:\VMshare\e203\zhengdian_E203\sdk\whetstone\hbird_sdk\NMSIS\Core\Include/core_feature_plic.h:193
                    (hartid << PLIC_ENABLE_SHIFT_PER_TARGET) + (source >> 5) * 4);
80000d30:	00769313          	slli	t1,a3,0x7
80000d34:	010303b3          	add	t2,t1,a6
E:\VMshare\e203\zhengdian_E203\sdk\whetstone\hbird_sdk\NMSIS\Core\Include/core_feature_plic.h:195
    uint32_t current = *enable_reg;
80000d38:	0003a883          	lw	a7,0(t2)
E:\VMshare\e203\zhengdian_E203\sdk\whetstone\hbird_sdk\NMSIS\Core\Include/core_feature_plic.h:196
    current = current & (~(1<<(source&0x1F)));
80000d3c:	ffff8e37          	lui	t3,0xffff8
80000d40:	fffe0f13          	addi	t5,t3,-1 # ffff7fff <_sp+0x6ffe7fff>
80000d44:	01e8f533          	and	a0,a7,t5
E:\VMshare\e203\zhengdian_E203\sdk\whetstone\hbird_sdk\NMSIS\Core\Include/core_feature_plic.h:197
    *enable_reg = current;
80000d48:	00a3a023          	sw	a0,0(t2)
PLIC_SetPriority():
E:\VMshare\e203\zhengdian_E203\sdk\whetstone\hbird_sdk\NMSIS\Core\Include/core_feature_plic.h:237
    *priority_reg = priority;
80000d4c:	020eae23          	sw	zero,60(t4)
PLIC_DisableInterrupt():
E:\VMshare\e203\zhengdian_E203\sdk\whetstone\hbird_sdk\NMSIS\Core\Include/core_feature_plic.h:191
    uint32_t hartid = __RV_CSR_READ(CSR_MHARTID);
80000d50:	f1402ff3          	csrr	t6,mhartid
E:\VMshare\e203\zhengdian_E203\sdk\whetstone\hbird_sdk\NMSIS\Core\Include/core_feature_plic.h:193
                    (hartid << PLIC_ENABLE_SHIFT_PER_TARGET) + (source >> 5) * 4);
80000d54:	007f9793          	slli	a5,t6,0x7
80000d58:	01078833          	add	a6,a5,a6
E:\VMshare\e203\zhengdian_E203\sdk\whetstone\hbird_sdk\NMSIS\Core\Include/core_feature_plic.h:195
    uint32_t current = *enable_reg;
80000d5c:	00082403          	lw	s0,0(a6) # c002000 <__stack_size+0xc001800>
E:\VMshare\e203\zhengdian_E203\sdk\whetstone\hbird_sdk\NMSIS\Core\Include/core_feature_plic.h:196
    current = current & (~(1<<(source&0x1F)));
80000d60:	ffff02b7          	lui	t0,0xffff0
80000d64:	fff28593          	addi	a1,t0,-1 # fffeffff <_sp+0x6ffdffff>
80000d68:	00b47733          	and	a4,s0,a1
E:\VMshare\e203\zhengdian_E203\sdk\whetstone\hbird_sdk\NMSIS\Core\Include/core_feature_plic.h:197
    *enable_reg = current;
80000d6c:	00e82023          	sw	a4,0(a6)
PLIC_SetPriority():
E:\VMshare\e203\zhengdian_E203\sdk\whetstone\hbird_sdk\NMSIS\Core\Include/core_feature_plic.h:237
    *priority_reg = priority;
80000d70:	040ea023          	sw	zero,64(t4)
PLIC_SetThreshold():
E:\VMshare\e203\zhengdian_E203\sdk\whetstone\hbird_sdk\NMSIS\Core\Include/core_feature_plic.h:135
    uint32_t hartid = __RV_CSR_READ(CSR_MHARTID);
80000d74:	f1402ef3          	csrr	t4,mhartid
E:\VMshare\e203\zhengdian_E203\sdk\whetstone\hbird_sdk\NMSIS\Core\Include/core_feature_plic.h:137
                    PLIC_THRESHOLD_OFFSET + (hartid << PLIC_THRESHOLD_SHIFT_PER_TARGET));
80000d78:	0c2006b7          	lui	a3,0xc200
_premain_init():
E:\VMshare\e203\zhengdian_E203\sdk\whetstone\Debug/../hbird_sdk/SoC/hbirdv2/Common/Source/system_hbirdv2.c:481
    Interrupt_Init();
#if defined(__PLIC_PRESENT) && __PLIC_PRESENT == 1
    /* PLIC initilization */
    PLIC_Init(__PLIC_INTNUM);
#endif
}
80000d7c:	00c12083          	lw	ra,12(sp)
80000d80:	00812403          	lw	s0,8(sp)
PLIC_SetThreshold():
E:\VMshare\e203\zhengdian_E203\sdk\whetstone\hbird_sdk\NMSIS\Core\Include/core_feature_plic.h:137
80000d84:	00ce9613          	slli	a2,t4,0xc
80000d88:	00d60333          	add	t1,a2,a3
E:\VMshare\e203\zhengdian_E203\sdk\whetstone\hbird_sdk\NMSIS\Core\Include/core_feature_plic.h:139
    *thresh_reg = thresh;
80000d8c:	00032023          	sw	zero,0(t1)
_premain_init():
E:\VMshare\e203\zhengdian_E203\sdk\whetstone\Debug/../hbird_sdk/SoC/hbirdv2/Common/Source/system_hbirdv2.c:481
80000d90:	01010113          	addi	sp,sp,16
80000d94:	00008067          	ret

80000d98 <_postmain_fini>:
_postmain_fini():
E:\VMshare\e203\zhengdian_E203\sdk\whetstone\Debug/../hbird_sdk/SoC/hbirdv2/Common/Source/system_hbirdv2.c:507
#ifdef SIMULATION_RTL
extern void rtlsim_exit(int status);
    rtlsim_exit(status);
#endif

}
80000d98:	00008067          	ret

80000d9c <_init>:
_init():
E:\VMshare\e203\zhengdian_E203\sdk\whetstone\Debug/../hbird_sdk/SoC/hbirdv2/Common/Source/system_hbirdv2.c:521
 * Please use \ref _premain_init function now
 */
void _init(void)
{
    /* Don't put any code here, please use _premain_init now */
}
80000d9c:	00008067          	ret

80000da0 <_fini>:
_fini():
80000da0:	00008067          	ret

80000da4 <start_time>:
SysTimer_GetLoadValue():
E:\VMshare\e203\zhengdian_E203\sdk\whetstone\hbird_sdk\NMSIS\Core\Include/core_feature_timer.h:106
80000da4:	0200c7b7          	lui	a5,0x200c
80000da8:	ff87a503          	lw	a0,-8(a5) # 200bff8 <__stack_size+0x200b7f8>
80000dac:	ffc7a583          	lw	a1,-4(a5)
start_time():
E:\VMshare\e203\zhengdian_E203\sdk\whetstone\Debug/../application/cpuidc.c:22
	theseSecs = time() ;
	return;
}

void start_time()
{
80000db0:	ff010113          	addi	sp,sp,-16
80000db4:	00112623          	sw	ra,12(sp)
time():
E:\VMshare\e203\zhengdian_E203\sdk\whetstone\Debug/../application/cpuidc.c:12
    return (SPDP) SysTimer_GetLoadValue() / SOC_TIMER_FREQ;
80000db8:	368050ef          	jal	ra,80006120 <__floatundisf>
80000dbc:	0ffff597          	auipc	a1,0xffff
80000dc0:	4745a583          	lw	a1,1140(a1) # 90000230 <_impure_ptr+0x54>
80000dc4:	151040ef          	jal	ra,80005714 <__mulsf3>
getSecs():
E:\VMshare\e203\zhengdian_E203\sdk\whetstone\Debug/../application/cpuidc.c:17
	theseSecs = time() ;
80000dc8:	9ea1a223          	sw	a0,-1564(gp) # 900003b4 <theseSecs>
start_time():
E:\VMshare\e203\zhengdian_E203\sdk\whetstone\Debug/../application/cpuidc.c:26
	getSecs();
	startSecs = theseSecs;
	return;
}
80000dcc:	00c12083          	lw	ra,12(sp)
E:\VMshare\e203\zhengdian_E203\sdk\whetstone\Debug/../application/cpuidc.c:24
	startSecs = theseSecs;
80000dd0:	9e41a283          	lw	t0,-1564(gp) # 900003b4 <theseSecs>
80000dd4:	9e51a023          	sw	t0,-1568(gp) # 900003b0 <startSecs>
E:\VMshare\e203\zhengdian_E203\sdk\whetstone\Debug/../application/cpuidc.c:26
}
80000dd8:	01010113          	addi	sp,sp,16
80000ddc:	00008067          	ret

80000de0 <end_time>:
SysTimer_GetLoadValue():
E:\VMshare\e203\zhengdian_E203\sdk\whetstone\hbird_sdk\NMSIS\Core\Include/core_feature_timer.h:106
80000de0:	0200c7b7          	lui	a5,0x200c
80000de4:	ff87a503          	lw	a0,-8(a5) # 200bff8 <__stack_size+0x200b7f8>
80000de8:	ffc7a583          	lw	a1,-4(a5)
end_time():
E:\VMshare\e203\zhengdian_E203\sdk\whetstone\Debug/../application/cpuidc.c:29

void end_time()
{
80000dec:	ff010113          	addi	sp,sp,-16
80000df0:	00112623          	sw	ra,12(sp)
time():
E:\VMshare\e203\zhengdian_E203\sdk\whetstone\Debug/../application/cpuidc.c:12
    return (SPDP) SysTimer_GetLoadValue() / SOC_TIMER_FREQ;
80000df4:	32c050ef          	jal	ra,80006120 <__floatundisf>
80000df8:	0ffff597          	auipc	a1,0xffff
80000dfc:	4385a583          	lw	a1,1080(a1) # 90000230 <_impure_ptr+0x54>
80000e00:	115040ef          	jal	ra,80005714 <__mulsf3>
getSecs():
E:\VMshare\e203\zhengdian_E203\sdk\whetstone\Debug/../application/cpuidc.c:17
	theseSecs = time() ;
80000e04:	9ea1a223          	sw	a0,-1564(gp) # 900003b4 <theseSecs>
end_time():
E:\VMshare\e203\zhengdian_E203\sdk\whetstone\Debug/../application/cpuidc.c:31
	getSecs();
	secs = theseSecs - startSecs;
80000e08:	9e41a503          	lw	a0,-1564(gp) # 900003b4 <theseSecs>
80000e0c:	9e01a583          	lw	a1,-1568(gp) # 900003b0 <startSecs>
80000e10:	40d040ef          	jal	ra,80005a1c <__subsf3>
E:\VMshare\e203\zhengdian_E203\sdk\whetstone\Debug/../application/cpuidc.c:33
	return;
}
80000e14:	00c12083          	lw	ra,12(sp)
E:\VMshare\e203\zhengdian_E203\sdk\whetstone\Debug/../application/cpuidc.c:31
	secs = theseSecs - startSecs;
80000e18:	9ca1ae23          	sw	a0,-1572(gp) # 900003ac <secs>
E:\VMshare\e203\zhengdian_E203\sdk\whetstone\Debug/../application/cpuidc.c:33
}
80000e1c:	01010113          	addi	sp,sp,16
80000e20:	00008067          	ret

80000e24 <whetstones.constprop.0>:
whetstones():
E:\VMshare\e203\zhengdian_E203\sdk\whetstone\Debug/../application/whets.c:285

void whetstones(long xtra, long x100, int calibrate)
80000e24:	fa010113          	addi	sp,sp,-96
80000e28:	04912a23          	sw	s1,84(sp)
80000e2c:	05412423          	sw	s4,72(sp)
80000e30:	04112e23          	sw	ra,92(sp)
80000e34:	04812c23          	sw	s0,88(sp)
80000e38:	05212823          	sw	s2,80(sp)
80000e3c:	05312623          	sw	s3,76(sp)
80000e40:	05512223          	sw	s5,68(sp)
80000e44:	05612023          	sw	s6,64(sp)
80000e48:	03712e23          	sw	s7,60(sp)
80000e4c:	03812c23          	sw	s8,56(sp)
80000e50:	03912a23          	sw	s9,52(sp)
80000e54:	03a12823          	sw	s10,48(sp)
80000e58:	03b12623          	sw	s11,44(sp)
E:\VMshare\e203\zhengdian_E203\sdk\whetstone\Debug/../application/whets.c:298
    SPDP t = 0.49999975;
    SPDP t0 = t;
    SPDP t1 = 0.50000025;
    SPDP t2 = 2.0;

    Check = 0.0;
80000e5c:	9e818793          	addi	a5,gp,-1560 # 900003b8 <Check>
80000e60:	00000713          	li	a4,0
E:\VMshare\e203\zhengdian_E203\sdk\whetstone\Debug/../application/whets.c:285
void whetstones(long xtra, long x100, int calibrate)
80000e64:	00050a13          	mv	s4,a0
80000e68:	00b12a23          	sw	a1,20(sp)
E:\VMshare\e203\zhengdian_E203\sdk\whetstone\Debug/../application/whets.c:298
    Check = 0.0;
80000e6c:	00e7a023          	sw	a4,0(a5)
E:\VMshare\e203\zhengdian_E203\sdk\whetstone\Debug/../application/whets.c:316

    e1[0] = 1.0;
    e1[1] = -1.0;
    e1[2] = -1.0;
    e1[3] = -1.0;
    start_time();
80000e70:	f35ff0ef          	jal	ra,80000da4 <start_time>
E:\VMshare\e203\zhengdian_E203\sdk\whetstone\Debug/../application/whets.c:312
    e1[0] = 1.0;
80000e74:	0ffff297          	auipc	t0,0xffff
80000e78:	3c42a283          	lw	t0,964(t0) # 90000238 <_impure_ptr+0x5c>
E:\VMshare\e203\zhengdian_E203\sdk\whetstone\Debug/../application/whets.c:315
    e1[3] = -1.0;
80000e7c:	0ffff497          	auipc	s1,0xffff
80000e80:	3b84a483          	lw	s1,952(s1) # 90000234 <_impure_ptr+0x58>
E:\VMshare\e203\zhengdian_E203\sdk\whetstone\Debug/../application/whets.c:318
    {
        for (ix = 0; ix < xtra; ix++) {
80000e84:	01404463          	bgtz	s4,80000e8c <whetstones.constprop.0+0x68>
80000e88:	1150106f          	j	8000279c <whetstones.constprop.0+0x1978>
E:\VMshare\e203\zhengdian_E203\sdk\whetstone\Debug/../application/whets.c:312
    e1[0] = 1.0;
80000e8c:	00028a93          	mv	s5,t0
80000e90:	00512e23          	sw	t0,28(sp)
E:\VMshare\e203\zhengdian_E203\sdk\whetstone\Debug/../application/whets.c:314
    e1[2] = -1.0;
80000e94:	00048913          	mv	s2,s1
E:\VMshare\e203\zhengdian_E203\sdk\whetstone\Debug/../application/whets.c:313
    e1[1] = -1.0;
80000e98:	00048d93          	mv	s11,s1
E:\VMshare\e203\zhengdian_E203\sdk\whetstone\Debug/../application/whets.c:312
    e1[0] = 1.0;
80000e9c:	00028d13          	mv	s10,t0
E:\VMshare\e203\zhengdian_E203\sdk\whetstone\Debug/../application/whets.c:318
        for (ix = 0; ix < xtra; ix++) {
80000ea0:	00000993          	li	s3,0
E:\VMshare\e203\zhengdian_E203\sdk\whetstone\Debug/../application/whets.c:293
    SPDP t = 0.49999975;
80000ea4:	0ffff417          	auipc	s0,0xffff
80000ea8:	39842403          	lw	s0,920(s0) # 9000023c <_impure_ptr+0x60>
80000eac:	00003b37          	lui	s6,0x3
80000eb0:	ee0b0b93          	addi	s7,s6,-288 # 2ee0 <__stack_size+0x26e0>
E:\VMshare\e203\zhengdian_E203\sdk\whetstone\Debug/../application/whets.c:320
            for (i = 0; i < n1 * n1mult; i++) {
                e1[0] = (e1[0] + e1[1] + e1[2] - e1[3]) * t;
80000eb4:	000d0593          	mv	a1,s10
80000eb8:	000d8513          	mv	a0,s11
80000ebc:	6f5030ef          	jal	ra,80004db0 <__addsf3>
80000ec0:	00090593          	mv	a1,s2
80000ec4:	6ed030ef          	jal	ra,80004db0 <__addsf3>
80000ec8:	00048593          	mv	a1,s1
80000ecc:	351040ef          	jal	ra,80005a1c <__subsf3>
80000ed0:	00040593          	mv	a1,s0
80000ed4:	041040ef          	jal	ra,80005714 <__mulsf3>
E:\VMshare\e203\zhengdian_E203\sdk\whetstone\Debug/../application/whets.c:321
                e1[1] = (e1[0] + e1[1] - e1[2] + e1[3]) * t;
80000ed8:	000d8593          	mv	a1,s11
E:\VMshare\e203\zhengdian_E203\sdk\whetstone\Debug/../application/whets.c:320
                e1[0] = (e1[0] + e1[1] + e1[2] - e1[3]) * t;
80000edc:	00050d13          	mv	s10,a0
E:\VMshare\e203\zhengdian_E203\sdk\whetstone\Debug/../application/whets.c:321
                e1[1] = (e1[0] + e1[1] - e1[2] + e1[3]) * t;
80000ee0:	6d1030ef          	jal	ra,80004db0 <__addsf3>
80000ee4:	00090593          	mv	a1,s2
80000ee8:	335040ef          	jal	ra,80005a1c <__subsf3>
80000eec:	00048593          	mv	a1,s1
80000ef0:	6c1030ef          	jal	ra,80004db0 <__addsf3>
80000ef4:	00040593          	mv	a1,s0
80000ef8:	01d040ef          	jal	ra,80005714 <__mulsf3>
E:\VMshare\e203\zhengdian_E203\sdk\whetstone\Debug/../application/whets.c:322
                e1[2] = (e1[0] - e1[1] + e1[2] + e1[3]) * t;
80000efc:	00050593          	mv	a1,a0
E:\VMshare\e203\zhengdian_E203\sdk\whetstone\Debug/../application/whets.c:321
                e1[1] = (e1[0] + e1[1] - e1[2] + e1[3]) * t;
80000f00:	00050d93          	mv	s11,a0
E:\VMshare\e203\zhengdian_E203\sdk\whetstone\Debug/../application/whets.c:322
                e1[2] = (e1[0] - e1[1] + e1[2] + e1[3]) * t;
80000f04:	000d0513          	mv	a0,s10
80000f08:	315040ef          	jal	ra,80005a1c <__subsf3>
80000f0c:	00090593          	mv	a1,s2
80000f10:	6a1030ef          	jal	ra,80004db0 <__addsf3>
80000f14:	00048593          	mv	a1,s1
80000f18:	699030ef          	jal	ra,80004db0 <__addsf3>
80000f1c:	00040593          	mv	a1,s0
80000f20:	7f4040ef          	jal	ra,80005714 <__mulsf3>
80000f24:	00050913          	mv	s2,a0
E:\VMshare\e203\zhengdian_E203\sdk\whetstone\Debug/../application/whets.c:323
                e1[3] = (-e1[0] + e1[1] + e1[2] + e1[3]) * t;
80000f28:	000d0593          	mv	a1,s10
80000f2c:	000d8513          	mv	a0,s11
80000f30:	2ed040ef          	jal	ra,80005a1c <__subsf3>
80000f34:	00090593          	mv	a1,s2
80000f38:	679030ef          	jal	ra,80004db0 <__addsf3>
80000f3c:	00048593          	mv	a1,s1
80000f40:	671030ef          	jal	ra,80004db0 <__addsf3>
80000f44:	00040593          	mv	a1,s0
80000f48:	7cc040ef          	jal	ra,80005714 <__mulsf3>
E:\VMshare\e203\zhengdian_E203\sdk\whetstone\Debug/../application/whets.c:319
            for (i = 0; i < n1 * n1mult; i++) {
80000f4c:	fffb8b93          	addi	s7,s7,-1
E:\VMshare\e203\zhengdian_E203\sdk\whetstone\Debug/../application/whets.c:323
                e1[3] = (-e1[0] + e1[1] + e1[2] + e1[3]) * t;
80000f50:	00050493          	mv	s1,a0
E:\VMshare\e203\zhengdian_E203\sdk\whetstone\Debug/../application/whets.c:319
            for (i = 0; i < n1 * n1mult; i++) {
80000f54:	f60b90e3          	bnez	s7,80000eb4 <whetstones.constprop.0+0x90>
E:\VMshare\e203\zhengdian_E203\sdk\whetstone\Debug/../application/whets.c:325
            }
            t = 1.0 - t;
80000f58:	00040593          	mv	a1,s0
80000f5c:	000a8513          	mv	a0,s5
80000f60:	2bd040ef          	jal	ra,80005a1c <__subsf3>
E:\VMshare\e203\zhengdian_E203\sdk\whetstone\Debug/../application/whets.c:318
        for (ix = 0; ix < xtra; ix++) {
80000f64:	00198993          	addi	s3,s3,1
E:\VMshare\e203\zhengdian_E203\sdk\whetstone\Debug/../application/whets.c:325
            t = 1.0 - t;
80000f68:	00050413          	mv	s0,a0
E:\VMshare\e203\zhengdian_E203\sdk\whetstone\Debug/../application/whets.c:318
        for (ix = 0; ix < xtra; ix++) {
80000f6c:	f54992e3          	bne	s3,s4,80000eb0 <whetstones.constprop.0+0x8c>
E:\VMshare\e203\zhengdian_E203\sdk\whetstone\Debug/../application/whets.c:329
        }
        t = t0;
    }
    end_time();
80000f70:	e71ff0ef          	jal	ra,80000de0 <end_time>
E:\VMshare\e203\zhengdian_E203\sdk\whetstone\Debug/../application/whets.c:330
    secs = secs / (SPDP)(n1mult);
80000f74:	0ffff597          	auipc	a1,0xffff
80000f78:	2dc5a583          	lw	a1,732(a1) # 90000250 <_impure_ptr+0x74>
80000f7c:	9dc1a503          	lw	a0,-1572(gp) # 900003ac <secs>
80000f80:	28c040ef          	jal	ra,8000520c <__divsf3>
80000f84:	00050313          	mv	t1,a0
E:\VMshare\e203\zhengdian_E203\sdk\whetstone\Debug/../application/whets.c:331
    pout("N1 floating point\0", (float)(n1 * 16) * (float)(xtra), 1, e1[3],
80000f88:	000a0513          	mv	a0,s4
E:\VMshare\e203\zhengdian_E203\sdk\whetstone\Debug/../application/whets.c:330
    secs = secs / (SPDP)(n1mult);
80000f8c:	9c61ae23          	sw	t1,-1572(gp) # 900003ac <secs>
pout():
E:\VMshare\e203\zhengdian_E203\sdk\whetstone\Debug/../application/whets.c:508
void pout(char title[18], float ops, int type, SPDP checknum, SPDP time,
          int calibrate, int section)
{
    SPDP mops, mflops;

    Check = Check + checknum;
80000f90:	9e818c13          	addi	s8,gp,-1560 # 900003b8 <Check>
whetstones():
E:\VMshare\e203\zhengdian_E203\sdk\whetstone\Debug/../application/whets.c:331
    pout("N1 floating point\0", (float)(n1 * 16) * (float)(xtra), 1, e1[3],
80000f94:	7a9040ef          	jal	ra,80005f3c <__floatsisf>
80000f98:	00050393          	mv	t2,a0
pout():
E:\VMshare\e203\zhengdian_E203\sdk\whetstone\Debug/../application/whets.c:508
    Check = Check + checknum;
80000f9c:	000c2503          	lw	a0,0(s8)
whetstones():
E:\VMshare\e203\zhengdian_E203\sdk\whetstone\Debug/../application/whets.c:331
    pout("N1 floating point\0", (float)(n1 * 16) * (float)(xtra), 1, e1[3],
80000fa0:	9dc18613          	addi	a2,gp,-1572 # 900003ac <secs>
pout():
E:\VMshare\e203\zhengdian_E203\sdk\whetstone\Debug/../application/whets.c:508
    Check = Check + checknum;
80000fa4:	00048593          	mv	a1,s1
E:\VMshare\e203\zhengdian_E203\sdk\whetstone\Debug/../application/whets.c:510
    loop_time[section] = time;
    strcpy(headings[section], title);
80000fa8:	0000cb17          	auipc	s6,0xc
80000fac:	72cb0b13          	addi	s6,s6,1836 # 8000d6d4 <__trunctfdf2+0x5f8>
whetstones():
E:\VMshare\e203\zhengdian_E203\sdk\whetstone\Debug/../application/whets.c:331
    pout("N1 floating point\0", (float)(n1 * 16) * (float)(xtra), 1, e1[3],
80000fb0:	00062c83          	lw	s9,0(a2)
80000fb4:	00712c23          	sw	t2,24(sp)
pout():
E:\VMshare\e203\zhengdian_E203\sdk\whetstone\Debug/../application/whets.c:508
    Check = Check + checknum;
80000fb8:	5f9030ef          	jal	ra,80004db0 <__addsf3>
E:\VMshare\e203\zhengdian_E203\sdk\whetstone\Debug/../application/whets.c:510
    strcpy(headings[section], title);
80000fbc:	000b5f03          	lhu	t5,0(s6)
80000fc0:	002b5e83          	lhu	t4,2(s6)
80000fc4:	004b5e03          	lhu	t3,4(s6)
80000fc8:	006b5283          	lhu	t0,6(s6)
80000fcc:	008b5883          	lhu	a7,8(s6)
80000fd0:	00cb5683          	lhu	a3,12(s6)
80000fd4:	00eb5703          	lhu	a4,14(s6)
80000fd8:	010b5783          	lhu	a5,16(s6)
E:\VMshare\e203\zhengdian_E203\sdk\whetstone\Debug/../application/whets.c:511
    TimeUsed = TimeUsed + time;
80000fdc:	9ec18a93          	addi	s5,gp,-1556 # 900003bc <TimeUsed>
E:\VMshare\e203\zhengdian_E203\sdk\whetstone\Debug/../application/whets.c:510
    strcpy(headings[section], title);
80000fe0:	00ab5b83          	lhu	s7,10(s6)
E:\VMshare\e203\zhengdian_E203\sdk\whetstone\Debug/../application/whets.c:508
    Check = Check + checknum;
80000fe4:	00050f93          	mv	t6,a0
E:\VMshare\e203\zhengdian_E203\sdk\whetstone\Debug/../application/whets.c:511
    TimeUsed = TimeUsed + time;
80000fe8:	000aa503          	lw	a0,0(s5)
E:\VMshare\e203\zhengdian_E203\sdk\whetstone\Debug/../application/whets.c:510
    strcpy(headings[section], title);
80000fec:	a9c18993          	addi	s3,gp,-1380 # 9000046c <headings>
E:\VMshare\e203\zhengdian_E203\sdk\whetstone\Debug/../application/whets.c:509
    loop_time[section] = time;
80000ff0:	b4018813          	addi	a6,gp,-1216 # 90000510 <loop_time>
E:\VMshare\e203\zhengdian_E203\sdk\whetstone\Debug/../application/whets.c:511
    TimeUsed = TimeUsed + time;
80000ff4:	000c8593          	mv	a1,s9
E:\VMshare\e203\zhengdian_E203\sdk\whetstone\Debug/../application/whets.c:508
    Check = Check + checknum;
80000ff8:	01fc2023          	sw	t6,0(s8)
E:\VMshare\e203\zhengdian_E203\sdk\whetstone\Debug/../application/whets.c:509
    loop_time[section] = time;
80000ffc:	01982223          	sw	s9,4(a6)
E:\VMshare\e203\zhengdian_E203\sdk\whetstone\Debug/../application/whets.c:510
    strcpy(headings[section], title);
80001000:	01e99923          	sh	t5,18(s3)
80001004:	01d99a23          	sh	t4,20(s3)
80001008:	01c99b23          	sh	t3,22(s3)
8000100c:	00599c23          	sh	t0,24(s3)
80001010:	01199d23          	sh	a7,26(s3)
80001014:	01799e23          	sh	s7,28(s3)
80001018:	00d99f23          	sh	a3,30(s3)
8000101c:	02e99023          	sh	a4,32(s3)
80001020:	02f99123          	sh	a5,34(s3)
E:\VMshare\e203\zhengdian_E203\sdk\whetstone\Debug/../application/whets.c:511
    TimeUsed = TimeUsed + time;
80001024:	58d030ef          	jal	ra,80004db0 <__addsf3>
E:\VMshare\e203\zhengdian_E203\sdk\whetstone\Debug/../application/whets.c:512
    if (calibrate == 1)
80001028:	01412583          	lw	a1,20(sp)
E:\VMshare\e203\zhengdian_E203\sdk\whetstone\Debug/../application/whets.c:511
    TimeUsed = TimeUsed + time;
8000102c:	00aaa023          	sw	a0,0(s5)
E:\VMshare\e203\zhengdian_E203\sdk\whetstone\Debug/../application/whets.c:512
    if (calibrate == 1)
80001030:	00100513          	li	a0,1
80001034:	00a59463          	bne	a1,a0,8000103c <whetstones.constprop.0+0x218>
80001038:	3380106f          	j	80002370 <whetstones.constprop.0+0x154c>
E:\VMshare\e203\zhengdian_E203\sdk\whetstone\Debug/../application/whets.c:517

    {
        results[section] = checknum;
    }
    if (calibrate == 0) {
8000103c:	08059e63          	bnez	a1,800010d8 <whetstones.constprop.0+0x2b4>
E:\VMshare\e203\zhengdian_E203\sdk\whetstone\Debug/../application/whets.c:518
        printf("%s %20.17f    ", headings[section], results[section]);
80001040:	b681a503          	lw	a0,-1176(gp) # 90000538 <results+0x4>
80001044:	214050ef          	jal	ra,80006258 <__extendsfdf2>
80001048:	00050613          	mv	a2,a0
8000104c:	00058693          	mv	a3,a1
80001050:	0000c517          	auipc	a0,0xc
80001054:	4b850513          	addi	a0,a0,1208 # 8000d508 <__trunctfdf2+0x42c>
80001058:	aae18593          	addi	a1,gp,-1362 # 9000047e <headings+0x12>
8000105c:	3a0060ef          	jal	ra,800073fc <iprintf>
E:\VMshare\e203\zhengdian_E203\sdk\whetstone\Debug/../application/whets.c:521

        if (type == 1) {
            if (time > 0) {
80001060:	00000593          	li	a1,0
80001064:	000c8513          	mv	a0,s9
80001068:	544040ef          	jal	ra,800055ac <__gesf2>
8000106c:	00a04463          	bgtz	a0,80001074 <whetstones.constprop.0+0x250>
80001070:	6cc0106f          	j	8000273c <whetstones.constprop.0+0x1918>
whetstones():
E:\VMshare\e203\zhengdian_E203\sdk\whetstone\Debug/../application/whets.c:331
    pout("N1 floating point\0", (float)(n1 * 16) * (float)(xtra), 1, e1[3],
80001074:	01812503          	lw	a0,24(sp)
80001078:	0ffff597          	auipc	a1,0xffff
8000107c:	1dc5a583          	lw	a1,476(a1) # 90000254 <_impure_ptr+0x78>
80001080:	694040ef          	jal	ra,80005714 <__mulsf3>
80001084:	00050a93          	mv	s5,a0
pout():
E:\VMshare\e203\zhengdian_E203\sdk\whetstone\Debug/../application/whets.c:522
                mflops = ops / (1000000L * time);
80001088:	0ffff597          	auipc	a1,0xffff
8000108c:	1d05a583          	lw	a1,464(a1) # 90000258 <_impure_ptr+0x7c>
80001090:	000c8513          	mv	a0,s9
80001094:	680040ef          	jal	ra,80005714 <__mulsf3>
80001098:	00050593          	mv	a1,a0
8000109c:	000a8513          	mv	a0,s5
800010a0:	16c040ef          	jal	ra,8000520c <__divsf3>
E:\VMshare\e203\zhengdian_E203\sdk\whetstone\Debug/../application/whets.c:528
            } else {
                mflops = 0;
            }
            loop_mops[section] = 99999;
            loop_mflops[section] = mflops;
            printf(" %9.3f          %9.3f\n", loop_mflops[section],
800010a4:	1b4050ef          	jal	ra,80006258 <__extendsfdf2>
800010a8:	00050c13          	mv	s8,a0
800010ac:	00058413          	mv	s0,a1
800010b0:	b4018093          	addi	ra,gp,-1216 # 90000510 <loop_time>
800010b4:	0040a503          	lw	a0,4(ra)
800010b8:	1a0050ef          	jal	ra,80006258 <__extendsfdf2>
800010bc:	00050713          	mv	a4,a0
800010c0:	00058793          	mv	a5,a1
800010c4:	000c0613          	mv	a2,s8
800010c8:	00040693          	mv	a3,s0
800010cc:	0000c517          	auipc	a0,0xc
800010d0:	44c50513          	addi	a0,a0,1100 # 8000d518 <__trunctfdf2+0x43c>
800010d4:	328060ef          	jal	ra,800073fc <iprintf>
whetstones():
E:\VMshare\e203\zhengdian_E203\sdk\whetstone\Debug/../application/whets.c:336
    start_time();
800010d8:	ccdff0ef          	jal	ra,80000da4 <start_time>
E:\VMshare\e203\zhengdian_E203\sdk\whetstone\Debug/../application/whets.c:338
        for (ix = 0; ix < xtra; ix++) {
800010dc:	3f405e63          	blez	s4,800014d8 <whetstones.constprop.0+0x6b4>
800010e0:	00000b93          	li	s7,0
E:\VMshare\e203\zhengdian_E203\sdk\whetstone\Debug/../application/whets.c:327
        t = t0;
800010e4:	0ffff417          	auipc	s0,0xffff
800010e8:	15842403          	lw	s0,344(s0) # 9000023c <_impure_ptr+0x60>
pa():
E:\VMshare\e203\zhengdian_E203\sdk\whetstone\Debug/../application/whets.c:479
        e[3] = (-e[0] + e[1] + e[2] + e[3]) / t2;
800010ec:	0ffff997          	auipc	s3,0xffff
800010f0:	1709a983          	lw	s3,368(s3) # 9000025c <_impure_ptr+0x80>
whetstones():
E:\VMshare\e203\zhengdian_E203\sdk\whetstone\Debug/../application/whets.c:342
            t = 1.0 - t;
800010f4:	0ffffc97          	auipc	s9,0xffff
800010f8:	144cac83          	lw	s9,324(s9) # 90000238 <_impure_ptr+0x5c>
E:\VMshare\e203\zhengdian_E203\sdk\whetstone\Debug/../application/whets.c:327
        t = t0;
800010fc:	57800a93          	li	s5,1400
pa():
E:\VMshare\e203\zhengdian_E203\sdk\whetstone\Debug/../application/whets.c:476
        e[0] = (e[0] + e[1] + e[2] - e[3]) * t;
80001100:	000d0593          	mv	a1,s10
80001104:	000d8513          	mv	a0,s11
80001108:	4a9030ef          	jal	ra,80004db0 <__addsf3>
8000110c:	00090593          	mv	a1,s2
80001110:	4a1030ef          	jal	ra,80004db0 <__addsf3>
80001114:	00048593          	mv	a1,s1
80001118:	105040ef          	jal	ra,80005a1c <__subsf3>
8000111c:	00040593          	mv	a1,s0
80001120:	5f4040ef          	jal	ra,80005714 <__mulsf3>
80001124:	00050d13          	mv	s10,a0
E:\VMshare\e203\zhengdian_E203\sdk\whetstone\Debug/../application/whets.c:477
        e[1] = (e[0] + e[1] - e[2] + e[3]) * t;
80001128:	000d0593          	mv	a1,s10
8000112c:	000d8513          	mv	a0,s11
80001130:	481030ef          	jal	ra,80004db0 <__addsf3>
80001134:	00090593          	mv	a1,s2
80001138:	0e5040ef          	jal	ra,80005a1c <__subsf3>
8000113c:	00048593          	mv	a1,s1
80001140:	471030ef          	jal	ra,80004db0 <__addsf3>
80001144:	00040593          	mv	a1,s0
80001148:	5cc040ef          	jal	ra,80005714 <__mulsf3>
8000114c:	00050d93          	mv	s11,a0
E:\VMshare\e203\zhengdian_E203\sdk\whetstone\Debug/../application/whets.c:478
        e[2] = (e[0] - e[1] + e[2] + e[3]) * t;
80001150:	00050593          	mv	a1,a0
80001154:	000d0513          	mv	a0,s10
80001158:	0c5040ef          	jal	ra,80005a1c <__subsf3>
8000115c:	00090593          	mv	a1,s2
80001160:	451030ef          	jal	ra,80004db0 <__addsf3>
80001164:	00048593          	mv	a1,s1
80001168:	449030ef          	jal	ra,80004db0 <__addsf3>
8000116c:	00040593          	mv	a1,s0
80001170:	5a4040ef          	jal	ra,80005714 <__mulsf3>
80001174:	00050913          	mv	s2,a0
E:\VMshare\e203\zhengdian_E203\sdk\whetstone\Debug/../application/whets.c:479
        e[3] = (-e[0] + e[1] + e[2] + e[3]) / t2;
80001178:	000d0593          	mv	a1,s10
8000117c:	000d8513          	mv	a0,s11
80001180:	09d040ef          	jal	ra,80005a1c <__subsf3>
80001184:	00090593          	mv	a1,s2
80001188:	429030ef          	jal	ra,80004db0 <__addsf3>
8000118c:	00048593          	mv	a1,s1
80001190:	421030ef          	jal	ra,80004db0 <__addsf3>
80001194:	00098593          	mv	a1,s3
80001198:	57c040ef          	jal	ra,80005714 <__mulsf3>
8000119c:	00050493          	mv	s1,a0
E:\VMshare\e203\zhengdian_E203\sdk\whetstone\Debug/../application/whets.c:476
        e[0] = (e[0] + e[1] + e[2] - e[3]) * t;
800011a0:	000d0593          	mv	a1,s10
800011a4:	000d8513          	mv	a0,s11
800011a8:	409030ef          	jal	ra,80004db0 <__addsf3>
800011ac:	00090593          	mv	a1,s2
800011b0:	401030ef          	jal	ra,80004db0 <__addsf3>
800011b4:	00048593          	mv	a1,s1
800011b8:	065040ef          	jal	ra,80005a1c <__subsf3>
800011bc:	00040593          	mv	a1,s0
800011c0:	554040ef          	jal	ra,80005714 <__mulsf3>
800011c4:	00050c13          	mv	s8,a0
E:\VMshare\e203\zhengdian_E203\sdk\whetstone\Debug/../application/whets.c:477
        e[1] = (e[0] + e[1] - e[2] + e[3]) * t;
800011c8:	00050593          	mv	a1,a0
800011cc:	000d8513          	mv	a0,s11
800011d0:	3e1030ef          	jal	ra,80004db0 <__addsf3>
800011d4:	00090593          	mv	a1,s2
800011d8:	045040ef          	jal	ra,80005a1c <__subsf3>
800011dc:	00048593          	mv	a1,s1
800011e0:	3d1030ef          	jal	ra,80004db0 <__addsf3>
800011e4:	00040593          	mv	a1,s0
800011e8:	52c040ef          	jal	ra,80005714 <__mulsf3>
800011ec:	00050d13          	mv	s10,a0
E:\VMshare\e203\zhengdian_E203\sdk\whetstone\Debug/../application/whets.c:478
        e[2] = (e[0] - e[1] + e[2] + e[3]) * t;
800011f0:	00050593          	mv	a1,a0
800011f4:	000c0513          	mv	a0,s8
800011f8:	025040ef          	jal	ra,80005a1c <__subsf3>
800011fc:	00090593          	mv	a1,s2
80001200:	3b1030ef          	jal	ra,80004db0 <__addsf3>
80001204:	00048593          	mv	a1,s1
80001208:	3a9030ef          	jal	ra,80004db0 <__addsf3>
8000120c:	00040593          	mv	a1,s0
80001210:	504040ef          	jal	ra,80005714 <__mulsf3>
80001214:	00050913          	mv	s2,a0
E:\VMshare\e203\zhengdian_E203\sdk\whetstone\Debug/../application/whets.c:479
        e[3] = (-e[0] + e[1] + e[2] + e[3]) / t2;
80001218:	000c0593          	mv	a1,s8
8000121c:	000d0513          	mv	a0,s10
80001220:	7fc040ef          	jal	ra,80005a1c <__subsf3>
80001224:	00090593          	mv	a1,s2
80001228:	389030ef          	jal	ra,80004db0 <__addsf3>
8000122c:	00048593          	mv	a1,s1
80001230:	381030ef          	jal	ra,80004db0 <__addsf3>
80001234:	00098593          	mv	a1,s3
80001238:	4dc040ef          	jal	ra,80005714 <__mulsf3>
8000123c:	00050493          	mv	s1,a0
E:\VMshare\e203\zhengdian_E203\sdk\whetstone\Debug/../application/whets.c:476
        e[0] = (e[0] + e[1] + e[2] - e[3]) * t;
80001240:	000d0593          	mv	a1,s10
80001244:	000c0513          	mv	a0,s8
80001248:	369030ef          	jal	ra,80004db0 <__addsf3>
8000124c:	00090593          	mv	a1,s2
80001250:	361030ef          	jal	ra,80004db0 <__addsf3>
80001254:	00048593          	mv	a1,s1
80001258:	7c4040ef          	jal	ra,80005a1c <__subsf3>
8000125c:	00040593          	mv	a1,s0
80001260:	4b4040ef          	jal	ra,80005714 <__mulsf3>
E:\VMshare\e203\zhengdian_E203\sdk\whetstone\Debug/../application/whets.c:477
        e[1] = (e[0] + e[1] - e[2] + e[3]) * t;
80001264:	000d0593          	mv	a1,s10
E:\VMshare\e203\zhengdian_E203\sdk\whetstone\Debug/../application/whets.c:476
        e[0] = (e[0] + e[1] + e[2] - e[3]) * t;
80001268:	00050d93          	mv	s11,a0
E:\VMshare\e203\zhengdian_E203\sdk\whetstone\Debug/../application/whets.c:477
        e[1] = (e[0] + e[1] - e[2] + e[3]) * t;
8000126c:	345030ef          	jal	ra,80004db0 <__addsf3>
80001270:	00090593          	mv	a1,s2
80001274:	7a8040ef          	jal	ra,80005a1c <__subsf3>
80001278:	00048593          	mv	a1,s1
8000127c:	335030ef          	jal	ra,80004db0 <__addsf3>
80001280:	00040593          	mv	a1,s0
80001284:	490040ef          	jal	ra,80005714 <__mulsf3>
80001288:	00050c13          	mv	s8,a0
E:\VMshare\e203\zhengdian_E203\sdk\whetstone\Debug/../application/whets.c:478
        e[2] = (e[0] - e[1] + e[2] + e[3]) * t;
8000128c:	00050593          	mv	a1,a0
80001290:	000d8513          	mv	a0,s11
80001294:	788040ef          	jal	ra,80005a1c <__subsf3>
80001298:	00090593          	mv	a1,s2
8000129c:	315030ef          	jal	ra,80004db0 <__addsf3>
800012a0:	00048593          	mv	a1,s1
800012a4:	30d030ef          	jal	ra,80004db0 <__addsf3>
800012a8:	00040593          	mv	a1,s0
800012ac:	468040ef          	jal	ra,80005714 <__mulsf3>
800012b0:	00050913          	mv	s2,a0
E:\VMshare\e203\zhengdian_E203\sdk\whetstone\Debug/../application/whets.c:479
        e[3] = (-e[0] + e[1] + e[2] + e[3]) / t2;
800012b4:	000d8593          	mv	a1,s11
800012b8:	000c0513          	mv	a0,s8
800012bc:	760040ef          	jal	ra,80005a1c <__subsf3>
800012c0:	00090593          	mv	a1,s2
800012c4:	2ed030ef          	jal	ra,80004db0 <__addsf3>
800012c8:	00048593          	mv	a1,s1
800012cc:	2e5030ef          	jal	ra,80004db0 <__addsf3>
800012d0:	00098593          	mv	a1,s3
800012d4:	440040ef          	jal	ra,80005714 <__mulsf3>
800012d8:	00050493          	mv	s1,a0
E:\VMshare\e203\zhengdian_E203\sdk\whetstone\Debug/../application/whets.c:476
        e[0] = (e[0] + e[1] + e[2] - e[3]) * t;
800012dc:	000d8593          	mv	a1,s11
800012e0:	000c0513          	mv	a0,s8
800012e4:	2cd030ef          	jal	ra,80004db0 <__addsf3>
800012e8:	00090593          	mv	a1,s2
800012ec:	2c5030ef          	jal	ra,80004db0 <__addsf3>
800012f0:	00048593          	mv	a1,s1
800012f4:	728040ef          	jal	ra,80005a1c <__subsf3>
800012f8:	00040593          	mv	a1,s0
800012fc:	418040ef          	jal	ra,80005714 <__mulsf3>
E:\VMshare\e203\zhengdian_E203\sdk\whetstone\Debug/../application/whets.c:477
        e[1] = (e[0] + e[1] - e[2] + e[3]) * t;
80001300:	000c0593          	mv	a1,s8
E:\VMshare\e203\zhengdian_E203\sdk\whetstone\Debug/../application/whets.c:476
        e[0] = (e[0] + e[1] + e[2] - e[3]) * t;
80001304:	00050d93          	mv	s11,a0
E:\VMshare\e203\zhengdian_E203\sdk\whetstone\Debug/../application/whets.c:477
        e[1] = (e[0] + e[1] - e[2] + e[3]) * t;
80001308:	2a9030ef          	jal	ra,80004db0 <__addsf3>
8000130c:	00090593          	mv	a1,s2
80001310:	70c040ef          	jal	ra,80005a1c <__subsf3>
80001314:	00048593          	mv	a1,s1
80001318:	299030ef          	jal	ra,80004db0 <__addsf3>
8000131c:	00040593          	mv	a1,s0
80001320:	3f4040ef          	jal	ra,80005714 <__mulsf3>
80001324:	00050d13          	mv	s10,a0
E:\VMshare\e203\zhengdian_E203\sdk\whetstone\Debug/../application/whets.c:478
        e[2] = (e[0] - e[1] + e[2] + e[3]) * t;
80001328:	00050593          	mv	a1,a0
8000132c:	000d8513          	mv	a0,s11
80001330:	6ec040ef          	jal	ra,80005a1c <__subsf3>
80001334:	00090593          	mv	a1,s2
80001338:	279030ef          	jal	ra,80004db0 <__addsf3>
8000133c:	00048593          	mv	a1,s1
80001340:	271030ef          	jal	ra,80004db0 <__addsf3>
80001344:	00040593          	mv	a1,s0
80001348:	3cc040ef          	jal	ra,80005714 <__mulsf3>
8000134c:	00050913          	mv	s2,a0
E:\VMshare\e203\zhengdian_E203\sdk\whetstone\Debug/../application/whets.c:479
        e[3] = (-e[0] + e[1] + e[2] + e[3]) / t2;
80001350:	000d8593          	mv	a1,s11
80001354:	000d0513          	mv	a0,s10
80001358:	6c4040ef          	jal	ra,80005a1c <__subsf3>
8000135c:	00090593          	mv	a1,s2
80001360:	251030ef          	jal	ra,80004db0 <__addsf3>
80001364:	00048593          	mv	a1,s1
80001368:	249030ef          	jal	ra,80004db0 <__addsf3>
8000136c:	00098593          	mv	a1,s3
80001370:	3a4040ef          	jal	ra,80005714 <__mulsf3>
80001374:	00050493          	mv	s1,a0
E:\VMshare\e203\zhengdian_E203\sdk\whetstone\Debug/../application/whets.c:476
        e[0] = (e[0] + e[1] + e[2] - e[3]) * t;
80001378:	000d0593          	mv	a1,s10
8000137c:	000d8513          	mv	a0,s11
80001380:	231030ef          	jal	ra,80004db0 <__addsf3>
80001384:	00090593          	mv	a1,s2
80001388:	229030ef          	jal	ra,80004db0 <__addsf3>
8000138c:	00048593          	mv	a1,s1
80001390:	68c040ef          	jal	ra,80005a1c <__subsf3>
80001394:	00040593          	mv	a1,s0
80001398:	37c040ef          	jal	ra,80005714 <__mulsf3>
8000139c:	00050c13          	mv	s8,a0
E:\VMshare\e203\zhengdian_E203\sdk\whetstone\Debug/../application/whets.c:477
        e[1] = (e[0] + e[1] - e[2] + e[3]) * t;
800013a0:	00050593          	mv	a1,a0
800013a4:	000d0513          	mv	a0,s10
800013a8:	209030ef          	jal	ra,80004db0 <__addsf3>
800013ac:	00090593          	mv	a1,s2
800013b0:	66c040ef          	jal	ra,80005a1c <__subsf3>
800013b4:	00048593          	mv	a1,s1
800013b8:	1f9030ef          	jal	ra,80004db0 <__addsf3>
800013bc:	00040593          	mv	a1,s0
800013c0:	354040ef          	jal	ra,80005714 <__mulsf3>
800013c4:	00050d93          	mv	s11,a0
E:\VMshare\e203\zhengdian_E203\sdk\whetstone\Debug/../application/whets.c:478
        e[2] = (e[0] - e[1] + e[2] + e[3]) * t;
800013c8:	00050593          	mv	a1,a0
800013cc:	000c0513          	mv	a0,s8
800013d0:	64c040ef          	jal	ra,80005a1c <__subsf3>
800013d4:	00090593          	mv	a1,s2
800013d8:	1d9030ef          	jal	ra,80004db0 <__addsf3>
800013dc:	00048593          	mv	a1,s1
800013e0:	1d1030ef          	jal	ra,80004db0 <__addsf3>
800013e4:	00040593          	mv	a1,s0
800013e8:	32c040ef          	jal	ra,80005714 <__mulsf3>
800013ec:	00050913          	mv	s2,a0
E:\VMshare\e203\zhengdian_E203\sdk\whetstone\Debug/../application/whets.c:479
        e[3] = (-e[0] + e[1] + e[2] + e[3]) / t2;
800013f0:	000c0593          	mv	a1,s8
800013f4:	000d8513          	mv	a0,s11
800013f8:	624040ef          	jal	ra,80005a1c <__subsf3>
800013fc:	00090593          	mv	a1,s2
80001400:	1b1030ef          	jal	ra,80004db0 <__addsf3>
80001404:	00048593          	mv	a1,s1
80001408:	1a9030ef          	jal	ra,80004db0 <__addsf3>
8000140c:	00098593          	mv	a1,s3
80001410:	304040ef          	jal	ra,80005714 <__mulsf3>
80001414:	00050493          	mv	s1,a0
E:\VMshare\e203\zhengdian_E203\sdk\whetstone\Debug/../application/whets.c:476
        e[0] = (e[0] + e[1] + e[2] - e[3]) * t;
80001418:	000d8593          	mv	a1,s11
8000141c:	000c0513          	mv	a0,s8
80001420:	191030ef          	jal	ra,80004db0 <__addsf3>
80001424:	00090593          	mv	a1,s2
80001428:	189030ef          	jal	ra,80004db0 <__addsf3>
8000142c:	00048593          	mv	a1,s1
80001430:	5ec040ef          	jal	ra,80005a1c <__subsf3>
80001434:	00040593          	mv	a1,s0
80001438:	2dc040ef          	jal	ra,80005714 <__mulsf3>
8000143c:	00050d13          	mv	s10,a0
E:\VMshare\e203\zhengdian_E203\sdk\whetstone\Debug/../application/whets.c:477
        e[1] = (e[0] + e[1] - e[2] + e[3]) * t;
80001440:	00050593          	mv	a1,a0
80001444:	000d8513          	mv	a0,s11
80001448:	169030ef          	jal	ra,80004db0 <__addsf3>
8000144c:	00090593          	mv	a1,s2
80001450:	5cc040ef          	jal	ra,80005a1c <__subsf3>
80001454:	00048593          	mv	a1,s1
80001458:	159030ef          	jal	ra,80004db0 <__addsf3>
8000145c:	00040593          	mv	a1,s0
80001460:	2b4040ef          	jal	ra,80005714 <__mulsf3>
E:\VMshare\e203\zhengdian_E203\sdk\whetstone\Debug/../application/whets.c:478
        e[2] = (e[0] - e[1] + e[2] + e[3]) * t;
80001464:	00050593          	mv	a1,a0
E:\VMshare\e203\zhengdian_E203\sdk\whetstone\Debug/../application/whets.c:477
        e[1] = (e[0] + e[1] - e[2] + e[3]) * t;
80001468:	00050d93          	mv	s11,a0
E:\VMshare\e203\zhengdian_E203\sdk\whetstone\Debug/../application/whets.c:478
        e[2] = (e[0] - e[1] + e[2] + e[3]) * t;
8000146c:	000d0513          	mv	a0,s10
80001470:	5ac040ef          	jal	ra,80005a1c <__subsf3>
80001474:	00090593          	mv	a1,s2
80001478:	139030ef          	jal	ra,80004db0 <__addsf3>
8000147c:	00048593          	mv	a1,s1
80001480:	131030ef          	jal	ra,80004db0 <__addsf3>
80001484:	00040593          	mv	a1,s0
80001488:	28c040ef          	jal	ra,80005714 <__mulsf3>
8000148c:	00050913          	mv	s2,a0
E:\VMshare\e203\zhengdian_E203\sdk\whetstone\Debug/../application/whets.c:479
        e[3] = (-e[0] + e[1] + e[2] + e[3]) / t2;
80001490:	000d0593          	mv	a1,s10
80001494:	000d8513          	mv	a0,s11
80001498:	584040ef          	jal	ra,80005a1c <__subsf3>
8000149c:	00090593          	mv	a1,s2
800014a0:	111030ef          	jal	ra,80004db0 <__addsf3>
800014a4:	00048593          	mv	a1,s1
800014a8:	109030ef          	jal	ra,80004db0 <__addsf3>
800014ac:	00098593          	mv	a1,s3
800014b0:	264040ef          	jal	ra,80005714 <__mulsf3>
whetstones():
E:\VMshare\e203\zhengdian_E203\sdk\whetstone\Debug/../application/whets.c:339
            for (i = 0; i < n2; i++) {
800014b4:	fffa8a93          	addi	s5,s5,-1
pa():
E:\VMshare\e203\zhengdian_E203\sdk\whetstone\Debug/../application/whets.c:479
        e[3] = (-e[0] + e[1] + e[2] + e[3]) / t2;
800014b8:	00050493          	mv	s1,a0
whetstones():
E:\VMshare\e203\zhengdian_E203\sdk\whetstone\Debug/../application/whets.c:339
            for (i = 0; i < n2; i++) {
800014bc:	c40a92e3          	bnez	s5,80001100 <whetstones.constprop.0+0x2dc>
E:\VMshare\e203\zhengdian_E203\sdk\whetstone\Debug/../application/whets.c:342
            t = 1.0 - t;
800014c0:	00040593          	mv	a1,s0
800014c4:	000c8513          	mv	a0,s9
800014c8:	554040ef          	jal	ra,80005a1c <__subsf3>
E:\VMshare\e203\zhengdian_E203\sdk\whetstone\Debug/../application/whets.c:338
        for (ix = 0; ix < xtra; ix++) {
800014cc:	001b8b93          	addi	s7,s7,1
E:\VMshare\e203\zhengdian_E203\sdk\whetstone\Debug/../application/whets.c:342
            t = 1.0 - t;
800014d0:	00050413          	mv	s0,a0
E:\VMshare\e203\zhengdian_E203\sdk\whetstone\Debug/../application/whets.c:338
        for (ix = 0; ix < xtra; ix++) {
800014d4:	c37a14e3          	bne	s4,s7,800010fc <whetstones.constprop.0+0x2d8>
E:\VMshare\e203\zhengdian_E203\sdk\whetstone\Debug/../application/whets.c:346
    end_time();
800014d8:	909ff0ef          	jal	ra,80000de0 <end_time>
pout():
E:\VMshare\e203\zhengdian_E203\sdk\whetstone\Debug/../application/whets.c:508
    Check = Check + checknum;
800014dc:	9e818c93          	addi	s9,gp,-1560 # 900003b8 <Check>
800014e0:	000ca503          	lw	a0,0(s9)
whetstones():
E:\VMshare\e203\zhengdian_E203\sdk\whetstone\Debug/../application/whets.c:347
    pout("N2 floating point\0", (float)(n2 * 96) * (float)(xtra), 1, e1[3],
800014e4:	9dc18313          	addi	t1,gp,-1572 # 900003ac <secs>
pout():
E:\VMshare\e203\zhengdian_E203\sdk\whetstone\Debug/../application/whets.c:508
    Check = Check + checknum;
800014e8:	00048593          	mv	a1,s1
whetstones():
E:\VMshare\e203\zhengdian_E203\sdk\whetstone\Debug/../application/whets.c:347
    pout("N2 floating point\0", (float)(n2 * 96) * (float)(xtra), 1, e1[3],
800014ec:	00032c03          	lw	s8,0(t1)
pout():
E:\VMshare\e203\zhengdian_E203\sdk\whetstone\Debug/../application/whets.c:508
    Check = Check + checknum;
800014f0:	0c1030ef          	jal	ra,80004db0 <__addsf3>
E:\VMshare\e203\zhengdian_E203\sdk\whetstone\Debug/../application/whets.c:510
    strcpy(headings[section], title);
800014f4:	014b2f83          	lw	t6,20(s6)
800014f8:	018b2603          	lw	a2,24(s6)
800014fc:	01cb2f03          	lw	t5,28(s6)
80001500:	020b2e83          	lw	t4,32(s6)
80001504:	024b5e03          	lhu	t3,36(s6)
E:\VMshare\e203\zhengdian_E203\sdk\whetstone\Debug/../application/whets.c:511
    TimeUsed = TimeUsed + time;
80001508:	9ec18993          	addi	s3,gp,-1556 # 900003bc <TimeUsed>
E:\VMshare\e203\zhengdian_E203\sdk\whetstone\Debug/../application/whets.c:508
    Check = Check + checknum;
8000150c:	00050393          	mv	t2,a0
E:\VMshare\e203\zhengdian_E203\sdk\whetstone\Debug/../application/whets.c:511
    TimeUsed = TimeUsed + time;
80001510:	0009a503          	lw	a0,0(s3)
E:\VMshare\e203\zhengdian_E203\sdk\whetstone\Debug/../application/whets.c:510
    strcpy(headings[section], title);
80001514:	a9c18893          	addi	a7,gp,-1380 # 9000046c <headings>
E:\VMshare\e203\zhengdian_E203\sdk\whetstone\Debug/../application/whets.c:509
    loop_time[section] = time;
80001518:	b4018293          	addi	t0,gp,-1216 # 90000510 <loop_time>
E:\VMshare\e203\zhengdian_E203\sdk\whetstone\Debug/../application/whets.c:511
    TimeUsed = TimeUsed + time;
8000151c:	000c0593          	mv	a1,s8
E:\VMshare\e203\zhengdian_E203\sdk\whetstone\Debug/../application/whets.c:508
    Check = Check + checknum;
80001520:	007ca023          	sw	t2,0(s9)
E:\VMshare\e203\zhengdian_E203\sdk\whetstone\Debug/../application/whets.c:509
    loop_time[section] = time;
80001524:	0182a423          	sw	s8,8(t0)
E:\VMshare\e203\zhengdian_E203\sdk\whetstone\Debug/../application/whets.c:510
    strcpy(headings[section], title);
80001528:	03f8a223          	sw	t6,36(a7)
8000152c:	02c8a423          	sw	a2,40(a7)
80001530:	03e8a623          	sw	t5,44(a7)
80001534:	03d8a823          	sw	t4,48(a7)
80001538:	03c89a23          	sh	t3,52(a7)
E:\VMshare\e203\zhengdian_E203\sdk\whetstone\Debug/../application/whets.c:511
    TimeUsed = TimeUsed + time;
8000153c:	075030ef          	jal	ra,80004db0 <__addsf3>
E:\VMshare\e203\zhengdian_E203\sdk\whetstone\Debug/../application/whets.c:512
    if (calibrate == 1)
80001540:	01412783          	lw	a5,20(sp)
E:\VMshare\e203\zhengdian_E203\sdk\whetstone\Debug/../application/whets.c:511
    TimeUsed = TimeUsed + time;
80001544:	00a9a023          	sw	a0,0(s3)
E:\VMshare\e203\zhengdian_E203\sdk\whetstone\Debug/../application/whets.c:512
    if (calibrate == 1)
80001548:	00100693          	li	a3,1
8000154c:	00d79463          	bne	a5,a3,80001554 <whetstones.constprop.0+0x730>
80001550:	6190006f          	j	80002368 <whetstones.constprop.0+0x1544>
E:\VMshare\e203\zhengdian_E203\sdk\whetstone\Debug/../application/whets.c:517
    if (calibrate == 0) {
80001554:	08079e63          	bnez	a5,800015f0 <whetstones.constprop.0+0x7cc>
E:\VMshare\e203\zhengdian_E203\sdk\whetstone\Debug/../application/whets.c:518
        printf("%s %20.17f    ", headings[section], results[section]);
80001558:	b6c1a503          	lw	a0,-1172(gp) # 9000053c <results+0x8>
8000155c:	4fd040ef          	jal	ra,80006258 <__extendsfdf2>
80001560:	00050613          	mv	a2,a0
80001564:	00058693          	mv	a3,a1
80001568:	0000c517          	auipc	a0,0xc
8000156c:	fa050513          	addi	a0,a0,-96 # 8000d508 <__trunctfdf2+0x42c>
80001570:	ac018593          	addi	a1,gp,-1344 # 90000490 <headings+0x24>
80001574:	689050ef          	jal	ra,800073fc <iprintf>
E:\VMshare\e203\zhengdian_E203\sdk\whetstone\Debug/../application/whets.c:521
            if (time > 0) {
80001578:	00000593          	li	a1,0
8000157c:	000c0513          	mv	a0,s8
80001580:	02c040ef          	jal	ra,800055ac <__gesf2>
80001584:	00a04463          	bgtz	a0,8000158c <whetstones.constprop.0+0x768>
80001588:	1c00106f          	j	80002748 <whetstones.constprop.0+0x1924>
whetstones():
E:\VMshare\e203\zhengdian_E203\sdk\whetstone\Debug/../application/whets.c:347
    pout("N2 floating point\0", (float)(n2 * 96) * (float)(xtra), 1, e1[3],
8000158c:	01812503          	lw	a0,24(sp)
80001590:	0ffff597          	auipc	a1,0xffff
80001594:	cd05a583          	lw	a1,-816(a1) # 90000260 <_impure_ptr+0x84>
80001598:	17c040ef          	jal	ra,80005714 <__mulsf3>
8000159c:	00050913          	mv	s2,a0
pout():
E:\VMshare\e203\zhengdian_E203\sdk\whetstone\Debug/../application/whets.c:522
                mflops = ops / (1000000L * time);
800015a0:	0ffff597          	auipc	a1,0xffff
800015a4:	cb85a583          	lw	a1,-840(a1) # 90000258 <_impure_ptr+0x7c>
800015a8:	000c0513          	mv	a0,s8
800015ac:	168040ef          	jal	ra,80005714 <__mulsf3>
800015b0:	00050593          	mv	a1,a0
800015b4:	00090513          	mv	a0,s2
800015b8:	455030ef          	jal	ra,8000520c <__divsf3>
E:\VMshare\e203\zhengdian_E203\sdk\whetstone\Debug/../application/whets.c:528
            printf(" %9.3f          %9.3f\n", loop_mflops[section],
800015bc:	49d040ef          	jal	ra,80006258 <__extendsfdf2>
800015c0:	00050d13          	mv	s10,a0
800015c4:	00058d93          	mv	s11,a1
800015c8:	b4018813          	addi	a6,gp,-1216 # 90000510 <loop_time>
800015cc:	00882503          	lw	a0,8(a6)
800015d0:	489040ef          	jal	ra,80006258 <__extendsfdf2>
800015d4:	00050713          	mv	a4,a0
800015d8:	00058793          	mv	a5,a1
800015dc:	000d0613          	mv	a2,s10
800015e0:	000d8693          	mv	a3,s11
800015e4:	0000c517          	auipc	a0,0xc
800015e8:	f3450513          	addi	a0,a0,-204 # 8000d518 <__trunctfdf2+0x43c>
800015ec:	611050ef          	jal	ra,800073fc <iprintf>
whetstones():
E:\VMshare\e203\zhengdian_E203\sdk\whetstone\Debug/../application/whets.c:352
    start_time();
800015f0:	fb4ff0ef          	jal	ra,80000da4 <start_time>
pout():
E:\VMshare\e203\zhengdian_E203\sdk\whetstone\Debug/../application/whets.c:508
    Check = Check + checknum;
800015f4:	9e818a93          	addi	s5,gp,-1560 # 900003b8 <Check>
whetstones():
E:\VMshare\e203\zhengdian_E203\sdk\whetstone\Debug/../application/whets.c:371
    end_time();
800015f8:	fe8ff0ef          	jal	ra,80000de0 <end_time>
pout():
E:\VMshare\e203\zhengdian_E203\sdk\whetstone\Debug/../application/whets.c:508
    Check = Check + checknum;
800015fc:	000aa503          	lw	a0,0(s5)
80001600:	0ffff597          	auipc	a1,0xffff
80001604:	c385a583          	lw	a1,-968(a1) # 90000238 <_impure_ptr+0x5c>
whetstones():
E:\VMshare\e203\zhengdian_E203\sdk\whetstone\Debug/../application/whets.c:372
    pout("N3 if then else  \0", (float)(n3 * 3) * (float)(xtra), 2, (SPDP)(j),
80001608:	9dc18493          	addi	s1,gp,-1572 # 900003ac <secs>
pout():
E:\VMshare\e203\zhengdian_E203\sdk\whetstone\Debug/../application/whets.c:508
    Check = Check + checknum;
8000160c:	7a4030ef          	jal	ra,80004db0 <__addsf3>
whetstones():
E:\VMshare\e203\zhengdian_E203\sdk\whetstone\Debug/../application/whets.c:372
    pout("N3 if then else  \0", (float)(n3 * 3) * (float)(xtra), 2, (SPDP)(j),
80001610:	0004ab83          	lw	s7,0(s1)
pout():
E:\VMshare\e203\zhengdian_E203\sdk\whetstone\Debug/../application/whets.c:510
    strcpy(headings[section], title);
80001614:	02ab5383          	lhu	t2,42(s6)
80001618:	02cb5303          	lhu	t1,44(s6)
8000161c:	02eb5f83          	lhu	t6,46(s6)
80001620:	032b5603          	lhu	a2,50(s6)
80001624:	034b5e83          	lhu	t4,52(s6)
80001628:	036b5e03          	lhu	t3,54(s6)
8000162c:	038b5283          	lhu	t0,56(s6)
E:\VMshare\e203\zhengdian_E203\sdk\whetstone\Debug/../application/whets.c:511
    TimeUsed = TimeUsed + time;
80001630:	9ec18c13          	addi	s8,gp,-1556 # 900003bc <TimeUsed>
E:\VMshare\e203\zhengdian_E203\sdk\whetstone\Debug/../application/whets.c:510
    strcpy(headings[section], title);
80001634:	028b5c83          	lhu	s9,40(s6)
80001638:	030b5983          	lhu	s3,48(s6)
E:\VMshare\e203\zhengdian_E203\sdk\whetstone\Debug/../application/whets.c:508
    Check = Check + checknum;
8000163c:	00050413          	mv	s0,a0
E:\VMshare\e203\zhengdian_E203\sdk\whetstone\Debug/../application/whets.c:511
    TimeUsed = TimeUsed + time;
80001640:	000c2503          	lw	a0,0(s8)
E:\VMshare\e203\zhengdian_E203\sdk\whetstone\Debug/../application/whets.c:510
    strcpy(headings[section], title);
80001644:	a9c18893          	addi	a7,gp,-1380 # 9000046c <headings>
E:\VMshare\e203\zhengdian_E203\sdk\whetstone\Debug/../application/whets.c:509
    loop_time[section] = time;
80001648:	b4018f13          	addi	t5,gp,-1216 # 90000510 <loop_time>
E:\VMshare\e203\zhengdian_E203\sdk\whetstone\Debug/../application/whets.c:511
    TimeUsed = TimeUsed + time;
8000164c:	000b8593          	mv	a1,s7
E:\VMshare\e203\zhengdian_E203\sdk\whetstone\Debug/../application/whets.c:508
    Check = Check + checknum;
80001650:	008aa023          	sw	s0,0(s5)
E:\VMshare\e203\zhengdian_E203\sdk\whetstone\Debug/../application/whets.c:509
    loop_time[section] = time;
80001654:	017f2623          	sw	s7,12(t5)
E:\VMshare\e203\zhengdian_E203\sdk\whetstone\Debug/../application/whets.c:510
    strcpy(headings[section], title);
80001658:	03989b23          	sh	s9,54(a7)
8000165c:	02789c23          	sh	t2,56(a7)
80001660:	02689d23          	sh	t1,58(a7)
80001664:	03f89e23          	sh	t6,60(a7)
80001668:	03389f23          	sh	s3,62(a7)
8000166c:	04c89023          	sh	a2,64(a7)
80001670:	05d89123          	sh	t4,66(a7)
80001674:	05c89223          	sh	t3,68(a7)
80001678:	04589323          	sh	t0,70(a7)
E:\VMshare\e203\zhengdian_E203\sdk\whetstone\Debug/../application/whets.c:511
    TimeUsed = TimeUsed + time;
8000167c:	734030ef          	jal	ra,80004db0 <__addsf3>
E:\VMshare\e203\zhengdian_E203\sdk\whetstone\Debug/../application/whets.c:512
    if (calibrate == 1)
80001680:	01412583          	lw	a1,20(sp)
E:\VMshare\e203\zhengdian_E203\sdk\whetstone\Debug/../application/whets.c:511
    TimeUsed = TimeUsed + time;
80001684:	00ac2023          	sw	a0,0(s8)
E:\VMshare\e203\zhengdian_E203\sdk\whetstone\Debug/../application/whets.c:512
    if (calibrate == 1)
80001688:	00100513          	li	a0,1
8000168c:	00a59463          	bne	a1,a0,80001694 <whetstones.constprop.0+0x870>
80001690:	4cd0006f          	j	8000235c <whetstones.constprop.0+0x1538>
E:\VMshare\e203\zhengdian_E203\sdk\whetstone\Debug/../application/whets.c:517
    if (calibrate == 0) {
80001694:	08059e63          	bnez	a1,80001730 <whetstones.constprop.0+0x90c>
E:\VMshare\e203\zhengdian_E203\sdk\whetstone\Debug/../application/whets.c:518
        printf("%s %20.17f    ", headings[section], results[section]);
80001698:	b701a503          	lw	a0,-1168(gp) # 90000540 <results+0xc>
8000169c:	3bd040ef          	jal	ra,80006258 <__extendsfdf2>
800016a0:	00050613          	mv	a2,a0
800016a4:	00058693          	mv	a3,a1
800016a8:	0000c517          	auipc	a0,0xc
800016ac:	e6050513          	addi	a0,a0,-416 # 8000d508 <__trunctfdf2+0x42c>
800016b0:	ad218593          	addi	a1,gp,-1326 # 900004a2 <headings+0x36>
800016b4:	549050ef          	jal	ra,800073fc <iprintf>
E:\VMshare\e203\zhengdian_E203\sdk\whetstone\Debug/../application/whets.c:531
                   loop_time[section]);
        } else {
            if (time > 0) {
800016b8:	00000593          	li	a1,0
800016bc:	000b8513          	mv	a0,s7
800016c0:	6ed030ef          	jal	ra,800055ac <__gesf2>
800016c4:	00a04463          	bgtz	a0,800016cc <whetstones.constprop.0+0x8a8>
800016c8:	0b00106f          	j	80002778 <whetstones.constprop.0+0x1954>
whetstones():
E:\VMshare\e203\zhengdian_E203\sdk\whetstone\Debug/../application/whets.c:372
    pout("N3 if then else  \0", (float)(n3 * 3) * (float)(xtra), 2, (SPDP)(j),
800016cc:	01812503          	lw	a0,24(sp)
800016d0:	0ffff597          	auipc	a1,0xffff
800016d4:	b945a583          	lw	a1,-1132(a1) # 90000264 <_impure_ptr+0x88>
800016d8:	03c040ef          	jal	ra,80005714 <__mulsf3>
800016dc:	00050913          	mv	s2,a0
pout():
E:\VMshare\e203\zhengdian_E203\sdk\whetstone\Debug/../application/whets.c:532
                mops = ops / (1000000L * time);
800016e0:	0ffff597          	auipc	a1,0xffff
800016e4:	b785a583          	lw	a1,-1160(a1) # 90000258 <_impure_ptr+0x7c>
800016e8:	000b8513          	mv	a0,s7
800016ec:	028040ef          	jal	ra,80005714 <__mulsf3>
800016f0:	00050593          	mv	a1,a0
800016f4:	00090513          	mv	a0,s2
800016f8:	315030ef          	jal	ra,8000520c <__divsf3>
E:\VMshare\e203\zhengdian_E203\sdk\whetstone\Debug/../application/whets.c:538
            } else {
                mops = 0;
            }
            loop_mops[section] = mops;
            loop_mflops[section] = 0;
            printf("           %9.3f%9.3f\n", loop_mops[section],
800016fc:	35d040ef          	jal	ra,80006258 <__extendsfdf2>
80001700:	00050d13          	mv	s10,a0
80001704:	00058d93          	mv	s11,a1
80001708:	b4018093          	addi	ra,gp,-1216 # 90000510 <loop_time>
8000170c:	00c0a503          	lw	a0,12(ra)
80001710:	349040ef          	jal	ra,80006258 <__extendsfdf2>
80001714:	00050713          	mv	a4,a0
80001718:	00058793          	mv	a5,a1
8000171c:	000d0613          	mv	a2,s10
80001720:	000d8693          	mv	a3,s11
80001724:	0000c517          	auipc	a0,0xc
80001728:	e0c50513          	addi	a0,a0,-500 # 8000d530 <__trunctfdf2+0x454>
8000172c:	4d1050ef          	jal	ra,800073fc <iprintf>
whetstones():
E:\VMshare\e203\zhengdian_E203\sdk\whetstone\Debug/../application/whets.c:380
    e1[1] = 0.0;
80001730:	00000d13          	li	s10,0
E:\VMshare\e203\zhengdian_E203\sdk\whetstone\Debug/../application/whets.c:381
    start_time();
80001734:	e70ff0ef          	jal	ra,80000da4 <start_time>
E:\VMshare\e203\zhengdian_E203\sdk\whetstone\Debug/../application/whets.c:379
    e1[0] = 0.0;
80001738:	000d0a93          	mv	s5,s10
E:\VMshare\e203\zhengdian_E203\sdk\whetstone\Debug/../application/whets.c:383
        for (ix = 0; ix < xtra; ix++) {
8000173c:	13405863          	blez	s4,8000186c <whetstones.constprop.0+0xa48>
80001740:	00000d93          	li	s11,0
E:\VMshare\e203\zhengdian_E203\sdk\whetstone\Debug/../application/whets.c:388
                e1[l - 2] = e1[l - 2] + j + k + l;
80001744:	0ffff997          	auipc	s3,0xffff
80001748:	af49a983          	lw	s3,-1292(s3) # 90000238 <_impure_ptr+0x5c>
8000174c:	0ffff917          	auipc	s2,0xffff
80001750:	afc92903          	lw	s2,-1284(s2) # 90000248 <_impure_ptr+0x6c>
80001754:	0ffff497          	auipc	s1,0xffff
80001758:	af04a483          	lw	s1,-1296(s1) # 90000244 <_impure_ptr+0x68>
E:\VMshare\e203\zhengdian_E203\sdk\whetstone\Debug/../application/whets.c:389
                e1[k - 2] = e1[k - 2] + j * k * l;
8000175c:	0ffff417          	auipc	s0,0xffff
80001760:	b0c42403          	lw	s0,-1268(s0) # 90000268 <_impure_ptr+0x8c>
E:\VMshare\e203\zhengdian_E203\sdk\whetstone\Debug/../application/whets.c:383
        for (ix = 0; ix < xtra; ix++) {
80001764:	000057b7          	lui	a5,0x5
80001768:	20878b93          	addi	s7,a5,520 # 5208 <__stack_size+0x4a08>
E:\VMshare\e203\zhengdian_E203\sdk\whetstone\Debug/../application/whets.c:388
                e1[l - 2] = e1[l - 2] + j + k + l;
8000176c:	000d0513          	mv	a0,s10
80001770:	00098593          	mv	a1,s3
80001774:	63c030ef          	jal	ra,80004db0 <__addsf3>
80001778:	00090593          	mv	a1,s2
8000177c:	634030ef          	jal	ra,80004db0 <__addsf3>
80001780:	00048593          	mv	a1,s1
80001784:	62c030ef          	jal	ra,80004db0 <__addsf3>
80001788:	00050c13          	mv	s8,a0
E:\VMshare\e203\zhengdian_E203\sdk\whetstone\Debug/../application/whets.c:389
                e1[k - 2] = e1[k - 2] + j * k * l;
8000178c:	00040593          	mv	a1,s0
80001790:	000a8513          	mv	a0,s5
80001794:	61c030ef          	jal	ra,80004db0 <__addsf3>
80001798:	00050a93          	mv	s5,a0
E:\VMshare\e203\zhengdian_E203\sdk\whetstone\Debug/../application/whets.c:388
                e1[l - 2] = e1[l - 2] + j + k + l;
8000179c:	00098593          	mv	a1,s3
800017a0:	000c0513          	mv	a0,s8
800017a4:	60c030ef          	jal	ra,80004db0 <__addsf3>
800017a8:	00090593          	mv	a1,s2
800017ac:	604030ef          	jal	ra,80004db0 <__addsf3>
800017b0:	00048593          	mv	a1,s1
800017b4:	5fc030ef          	jal	ra,80004db0 <__addsf3>
800017b8:	00050c93          	mv	s9,a0
E:\VMshare\e203\zhengdian_E203\sdk\whetstone\Debug/../application/whets.c:389
                e1[k - 2] = e1[k - 2] + j * k * l;
800017bc:	00040593          	mv	a1,s0
800017c0:	000a8513          	mv	a0,s5
800017c4:	5ec030ef          	jal	ra,80004db0 <__addsf3>
800017c8:	00050d13          	mv	s10,a0
E:\VMshare\e203\zhengdian_E203\sdk\whetstone\Debug/../application/whets.c:388
                e1[l - 2] = e1[l - 2] + j + k + l;
800017cc:	00098593          	mv	a1,s3
800017d0:	000c8513          	mv	a0,s9
800017d4:	5dc030ef          	jal	ra,80004db0 <__addsf3>
800017d8:	00090593          	mv	a1,s2
800017dc:	5d4030ef          	jal	ra,80004db0 <__addsf3>
800017e0:	00048593          	mv	a1,s1
800017e4:	5cc030ef          	jal	ra,80004db0 <__addsf3>
800017e8:	00050c13          	mv	s8,a0
E:\VMshare\e203\zhengdian_E203\sdk\whetstone\Debug/../application/whets.c:389
                e1[k - 2] = e1[k - 2] + j * k * l;
800017ec:	00040593          	mv	a1,s0
800017f0:	000d0513          	mv	a0,s10
800017f4:	5bc030ef          	jal	ra,80004db0 <__addsf3>
800017f8:	00050a93          	mv	s5,a0
E:\VMshare\e203\zhengdian_E203\sdk\whetstone\Debug/../application/whets.c:388
                e1[l - 2] = e1[l - 2] + j + k + l;
800017fc:	00098593          	mv	a1,s3
80001800:	000c0513          	mv	a0,s8
80001804:	5ac030ef          	jal	ra,80004db0 <__addsf3>
80001808:	00090593          	mv	a1,s2
8000180c:	5a4030ef          	jal	ra,80004db0 <__addsf3>
80001810:	00048593          	mv	a1,s1
80001814:	59c030ef          	jal	ra,80004db0 <__addsf3>
80001818:	00050c93          	mv	s9,a0
E:\VMshare\e203\zhengdian_E203\sdk\whetstone\Debug/../application/whets.c:389
                e1[k - 2] = e1[k - 2] + j * k * l;
8000181c:	00040593          	mv	a1,s0
80001820:	000a8513          	mv	a0,s5
80001824:	58c030ef          	jal	ra,80004db0 <__addsf3>
80001828:	00050c13          	mv	s8,a0
E:\VMshare\e203\zhengdian_E203\sdk\whetstone\Debug/../application/whets.c:388
                e1[l - 2] = e1[l - 2] + j + k + l;
8000182c:	00098593          	mv	a1,s3
80001830:	000c8513          	mv	a0,s9
80001834:	57c030ef          	jal	ra,80004db0 <__addsf3>
80001838:	00090593          	mv	a1,s2
8000183c:	574030ef          	jal	ra,80004db0 <__addsf3>
80001840:	00048593          	mv	a1,s1
80001844:	56c030ef          	jal	ra,80004db0 <__addsf3>
80001848:	00050d13          	mv	s10,a0
E:\VMshare\e203\zhengdian_E203\sdk\whetstone\Debug/../application/whets.c:389
                e1[k - 2] = e1[k - 2] + j * k * l;
8000184c:	00040593          	mv	a1,s0
80001850:	000c0513          	mv	a0,s8
80001854:	55c030ef          	jal	ra,80004db0 <__addsf3>
E:\VMshare\e203\zhengdian_E203\sdk\whetstone\Debug/../application/whets.c:384
            for (i = 0; i < n4; i++) {
80001858:	ffbb8b93          	addi	s7,s7,-5
E:\VMshare\e203\zhengdian_E203\sdk\whetstone\Debug/../application/whets.c:389
                e1[k - 2] = e1[k - 2] + j * k * l;
8000185c:	00050a93          	mv	s5,a0
E:\VMshare\e203\zhengdian_E203\sdk\whetstone\Debug/../application/whets.c:384
            for (i = 0; i < n4; i++) {
80001860:	f00b96e3          	bnez	s7,8000176c <whetstones.constprop.0+0x948>
E:\VMshare\e203\zhengdian_E203\sdk\whetstone\Debug/../application/whets.c:383
        for (ix = 0; ix < xtra; ix++) {
80001864:	001d8d93          	addi	s11,s11,1
80001868:	efba1ee3          	bne	s4,s11,80001764 <whetstones.constprop.0+0x940>
E:\VMshare\e203\zhengdian_E203\sdk\whetstone\Debug/../application/whets.c:394
    end_time();
8000186c:	d74ff0ef          	jal	ra,80000de0 <end_time>
E:\VMshare\e203\zhengdian_E203\sdk\whetstone\Debug/../application/whets.c:395
    x = (e1[0] + e1[1]) / (SPDP)n4 / (SPDP)xtra; // was x = e1[0]+e1[1];
80001870:	000a8593          	mv	a1,s5
80001874:	000d0513          	mv	a0,s10
80001878:	538030ef          	jal	ra,80004db0 <__addsf3>
8000187c:	0ffff597          	auipc	a1,0xffff
80001880:	9f05a583          	lw	a1,-1552(a1) # 9000026c <_impure_ptr+0x90>
80001884:	189030ef          	jal	ra,8000520c <__divsf3>
80001888:	01812583          	lw	a1,24(sp)
pout():
E:\VMshare\e203\zhengdian_E203\sdk\whetstone\Debug/../application/whets.c:508
    Check = Check + checknum;
8000188c:	9e818913          	addi	s2,gp,-1560 # 900003b8 <Check>
E:\VMshare\e203\zhengdian_E203\sdk\whetstone\Debug/../application/whets.c:511
    TimeUsed = TimeUsed + time;
80001890:	9ec18993          	addi	s3,gp,-1556 # 900003bc <TimeUsed>
whetstones():
E:\VMshare\e203\zhengdian_E203\sdk\whetstone\Debug/../application/whets.c:395
    x = (e1[0] + e1[1]) / (SPDP)n4 / (SPDP)xtra; // was x = e1[0]+e1[1];
80001894:	179030ef          	jal	ra,8000520c <__divsf3>
80001898:	00050413          	mv	s0,a0
pout():
E:\VMshare\e203\zhengdian_E203\sdk\whetstone\Debug/../application/whets.c:508
    Check = Check + checknum;
8000189c:	00092503          	lw	a0,0(s2)
800018a0:	00040593          	mv	a1,s0
800018a4:	50c030ef          	jal	ra,80004db0 <__addsf3>
whetstones():
E:\VMshare\e203\zhengdian_E203\sdk\whetstone\Debug/../application/whets.c:396
    pout("N4 fixed point   \0", (float)(n4 * 15) * (float)(xtra), 2, x, secs,
800018a8:	9dc18813          	addi	a6,gp,-1572 # 900003ac <secs>
800018ac:	00082483          	lw	s1,0(a6)
pout():
E:\VMshare\e203\zhengdian_E203\sdk\whetstone\Debug/../application/whets.c:510
    strcpy(headings[section], title);
800018b0:	03cb2303          	lw	t1,60(s6)
800018b4:	040b2f83          	lw	t6,64(s6)
800018b8:	044b2603          	lw	a2,68(s6)
800018bc:	048b2e83          	lw	t4,72(s6)
800018c0:	04cb5e03          	lhu	t3,76(s6)
E:\VMshare\e203\zhengdian_E203\sdk\whetstone\Debug/../application/whets.c:508
    Check = Check + checknum;
800018c4:	00050393          	mv	t2,a0
E:\VMshare\e203\zhengdian_E203\sdk\whetstone\Debug/../application/whets.c:511
    TimeUsed = TimeUsed + time;
800018c8:	0009a503          	lw	a0,0(s3)
E:\VMshare\e203\zhengdian_E203\sdk\whetstone\Debug/../application/whets.c:510
    strcpy(headings[section], title);
800018cc:	a9c18f13          	addi	t5,gp,-1380 # 9000046c <headings>
E:\VMshare\e203\zhengdian_E203\sdk\whetstone\Debug/../application/whets.c:509
    loop_time[section] = time;
800018d0:	b4018293          	addi	t0,gp,-1216 # 90000510 <loop_time>
E:\VMshare\e203\zhengdian_E203\sdk\whetstone\Debug/../application/whets.c:511
    TimeUsed = TimeUsed + time;
800018d4:	00048593          	mv	a1,s1
E:\VMshare\e203\zhengdian_E203\sdk\whetstone\Debug/../application/whets.c:508
    Check = Check + checknum;
800018d8:	00792023          	sw	t2,0(s2)
E:\VMshare\e203\zhengdian_E203\sdk\whetstone\Debug/../application/whets.c:509
    loop_time[section] = time;
800018dc:	0092a823          	sw	s1,16(t0)
E:\VMshare\e203\zhengdian_E203\sdk\whetstone\Debug/../application/whets.c:510
    strcpy(headings[section], title);
800018e0:	046f2423          	sw	t1,72(t5)
800018e4:	05ff2623          	sw	t6,76(t5)
800018e8:	04cf2823          	sw	a2,80(t5)
800018ec:	05df2a23          	sw	t4,84(t5)
800018f0:	05cf1c23          	sh	t3,88(t5)
E:\VMshare\e203\zhengdian_E203\sdk\whetstone\Debug/../application/whets.c:511
    TimeUsed = TimeUsed + time;
800018f4:	4bc030ef          	jal	ra,80004db0 <__addsf3>
800018f8:	00a9a023          	sw	a0,0(s3)
E:\VMshare\e203\zhengdian_E203\sdk\whetstone\Debug/../application/whets.c:512
    if (calibrate == 1)
800018fc:	01412503          	lw	a0,20(sp)
80001900:	00100893          	li	a7,1
80001904:	291500e3          	beq	a0,a7,80002384 <whetstones.constprop.0+0x1560>
E:\VMshare\e203\zhengdian_E203\sdk\whetstone\Debug/../application/whets.c:517
    if (calibrate == 0) {
80001908:	08051e63          	bnez	a0,800019a4 <whetstones.constprop.0+0xb80>
E:\VMshare\e203\zhengdian_E203\sdk\whetstone\Debug/../application/whets.c:518
        printf("%s %20.17f    ", headings[section], results[section]);
8000190c:	b741a503          	lw	a0,-1164(gp) # 90000544 <results+0x10>
80001910:	149040ef          	jal	ra,80006258 <__extendsfdf2>
80001914:	00050613          	mv	a2,a0
80001918:	00058693          	mv	a3,a1
8000191c:	0000c517          	auipc	a0,0xc
80001920:	bec50513          	addi	a0,a0,-1044 # 8000d508 <__trunctfdf2+0x42c>
80001924:	ae418593          	addi	a1,gp,-1308 # 900004b4 <headings+0x48>
80001928:	2d5050ef          	jal	ra,800073fc <iprintf>
E:\VMshare\e203\zhengdian_E203\sdk\whetstone\Debug/../application/whets.c:531
            if (time > 0) {
8000192c:	00000593          	li	a1,0
80001930:	00048513          	mv	a0,s1
80001934:	479030ef          	jal	ra,800055ac <__gesf2>
80001938:	00a04463          	bgtz	a0,80001940 <whetstones.constprop.0+0xb1c>
8000193c:	6250006f          	j	80002760 <whetstones.constprop.0+0x193c>
whetstones():
E:\VMshare\e203\zhengdian_E203\sdk\whetstone\Debug/../application/whets.c:396
    pout("N4 fixed point   \0", (float)(n4 * 15) * (float)(xtra), 2, x, secs,
80001940:	01812503          	lw	a0,24(sp)
80001944:	0ffff597          	auipc	a1,0xffff
80001948:	92c5a583          	lw	a1,-1748(a1) # 90000270 <_impure_ptr+0x94>
8000194c:	5c9030ef          	jal	ra,80005714 <__mulsf3>
80001950:	00050d13          	mv	s10,a0
pout():
E:\VMshare\e203\zhengdian_E203\sdk\whetstone\Debug/../application/whets.c:532
                mops = ops / (1000000L * time);
80001954:	0ffff597          	auipc	a1,0xffff
80001958:	9045a583          	lw	a1,-1788(a1) # 90000258 <_impure_ptr+0x7c>
8000195c:	00048513          	mv	a0,s1
80001960:	5b5030ef          	jal	ra,80005714 <__mulsf3>
80001964:	00050593          	mv	a1,a0
80001968:	000d0513          	mv	a0,s10
8000196c:	0a1030ef          	jal	ra,8000520c <__divsf3>
E:\VMshare\e203\zhengdian_E203\sdk\whetstone\Debug/../application/whets.c:538
            printf("           %9.3f%9.3f\n", loop_mops[section],
80001970:	0e9040ef          	jal	ra,80006258 <__extendsfdf2>
80001974:	00050c93          	mv	s9,a0
80001978:	00058c13          	mv	s8,a1
8000197c:	b4018593          	addi	a1,gp,-1216 # 90000510 <loop_time>
80001980:	0105a503          	lw	a0,16(a1)
80001984:	0d5040ef          	jal	ra,80006258 <__extendsfdf2>
80001988:	00050713          	mv	a4,a0
8000198c:	00058793          	mv	a5,a1
80001990:	000c8613          	mv	a2,s9
80001994:	000c0693          	mv	a3,s8
80001998:	0000c517          	auipc	a0,0xc
8000199c:	b9850513          	addi	a0,a0,-1128 # 8000d530 <__trunctfdf2+0x454>
800019a0:	25d050ef          	jal	ra,800073fc <iprintf>
whetstones():
E:\VMshare\e203\zhengdian_E203\sdk\whetstone\Debug/../application/whets.c:402
    start_time();
800019a4:	c00ff0ef          	jal	ra,80000da4 <start_time>
E:\VMshare\e203\zhengdian_E203\sdk\whetstone\Debug/../application/whets.c:404
        for (ix = 0; ix < xtra; ix++) {
800019a8:	1f4054e3          	blez	s4,80002390 <whetstones.constprop.0+0x156c>
800019ac:	01c12983          	lw	s3,28(sp)
800019b0:	0ffffa97          	auipc	s5,0xffff
800019b4:	890aaa83          	lw	s5,-1904(s5) # 90000240 <_impure_ptr+0x64>
800019b8:	00012423          	sw	zero,8(sp)
800019bc:	00098c13          	mv	s8,s3
E:\VMshare\e203\zhengdian_E203\sdk\whetstone\Debug/../application/whets.c:344
        t = t0;
800019c0:	0ffff917          	auipc	s2,0xffff
800019c4:	87c92903          	lw	s2,-1924(s2) # 9000023c <_impure_ptr+0x60>
E:\VMshare\e203\zhengdian_E203\sdk\whetstone\Debug/../application/whets.c:407
                             (cos(x + y) + cos(x - y) - 1.0));
800019c8:	00098b93          	mv	s7,s3
E:\VMshare\e203\zhengdian_E203\sdk\whetstone\Debug/../application/whets.c:406
                x = t * atan(t2 * sin(x) * cos(x) /
800019cc:	000c0593          	mv	a1,s8
800019d0:	00090513          	mv	a0,s2
800019d4:	541030ef          	jal	ra,80005714 <__mulsf3>
800019d8:	00050493          	mv	s1,a0
E:\VMshare\e203\zhengdian_E203\sdk\whetstone\Debug/../application/whets.c:408
                y = t * atan(t2 * sin(y) * cos(y) /
800019dc:	000a8593          	mv	a1,s5
800019e0:	00090513          	mv	a0,s2
800019e4:	531030ef          	jal	ra,80005714 <__mulsf3>
800019e8:	00050413          	mv	s0,a0
E:\VMshare\e203\zhengdian_E203\sdk\whetstone\Debug/../application/whets.c:405
            for (i = 1; i < n5; i++) {
800019ec:	00001537          	lui	a0,0x1
800019f0:	c7e50c93          	addi	s9,a0,-898 # c7e <__stack_size+0x47e>
E:\VMshare\e203\zhengdian_E203\sdk\whetstone\Debug/../application/whets.c:406
                x = t * atan(t2 * sin(x) * cos(x) /
800019f4:	00048513          	mv	a0,s1
800019f8:	308010ef          	jal	ra,80002d00 <sinf>
800019fc:	00050d93          	mv	s11,a0
80001a00:	00048513          	mv	a0,s1
80001a04:	244010ef          	jal	ra,80002c48 <cosf>
E:\VMshare\e203\zhengdian_E203\sdk\whetstone\Debug/../application/whets.c:407
                             (cos(x + y) + cos(x - y) - 1.0));
80001a08:	00048593          	mv	a1,s1
E:\VMshare\e203\zhengdian_E203\sdk\whetstone\Debug/../application/whets.c:406
                x = t * atan(t2 * sin(x) * cos(x) /
80001a0c:	00050d13          	mv	s10,a0
E:\VMshare\e203\zhengdian_E203\sdk\whetstone\Debug/../application/whets.c:407
                             (cos(x + y) + cos(x - y) - 1.0));
80001a10:	00040513          	mv	a0,s0
80001a14:	39c030ef          	jal	ra,80004db0 <__addsf3>
80001a18:	230010ef          	jal	ra,80002c48 <cosf>
80001a1c:	00040593          	mv	a1,s0
80001a20:	00050a93          	mv	s5,a0
80001a24:	00048513          	mv	a0,s1
80001a28:	7f5030ef          	jal	ra,80005a1c <__subsf3>
80001a2c:	21c010ef          	jal	ra,80002c48 <cosf>
80001a30:	00050c13          	mv	s8,a0
E:\VMshare\e203\zhengdian_E203\sdk\whetstone\Debug/../application/whets.c:406
                x = t * atan(t2 * sin(x) * cos(x) /
80001a34:	000d8593          	mv	a1,s11
80001a38:	000d8513          	mv	a0,s11
80001a3c:	374030ef          	jal	ra,80004db0 <__addsf3>
80001a40:	000d0593          	mv	a1,s10
80001a44:	4d1030ef          	jal	ra,80005714 <__mulsf3>
80001a48:	00050493          	mv	s1,a0
E:\VMshare\e203\zhengdian_E203\sdk\whetstone\Debug/../application/whets.c:407
                             (cos(x + y) + cos(x - y) - 1.0));
80001a4c:	000c0593          	mv	a1,s8
80001a50:	000a8513          	mv	a0,s5
80001a54:	35c030ef          	jal	ra,80004db0 <__addsf3>
80001a58:	000b8593          	mv	a1,s7
80001a5c:	7c1030ef          	jal	ra,80005a1c <__subsf3>
80001a60:	00050593          	mv	a1,a0
E:\VMshare\e203\zhengdian_E203\sdk\whetstone\Debug/../application/whets.c:406
                x = t * atan(t2 * sin(x) * cos(x) /
80001a64:	00048513          	mv	a0,s1
80001a68:	7a4030ef          	jal	ra,8000520c <__divsf3>
80001a6c:	6c5000ef          	jal	ra,80002930 <atanf>
80001a70:	00050d13          	mv	s10,a0
E:\VMshare\e203\zhengdian_E203\sdk\whetstone\Debug/../application/whets.c:408
                y = t * atan(t2 * sin(y) * cos(y) /
80001a74:	00040513          	mv	a0,s0
80001a78:	288010ef          	jal	ra,80002d00 <sinf>
80001a7c:	00050a93          	mv	s5,a0
80001a80:	00040513          	mv	a0,s0
80001a84:	1c4010ef          	jal	ra,80002c48 <cosf>
E:\VMshare\e203\zhengdian_E203\sdk\whetstone\Debug/../application/whets.c:406
                x = t * atan(t2 * sin(x) * cos(x) /
80001a88:	000d0593          	mv	a1,s10
E:\VMshare\e203\zhengdian_E203\sdk\whetstone\Debug/../application/whets.c:408
                y = t * atan(t2 * sin(y) * cos(y) /
80001a8c:	00050d93          	mv	s11,a0
E:\VMshare\e203\zhengdian_E203\sdk\whetstone\Debug/../application/whets.c:406
                x = t * atan(t2 * sin(x) * cos(x) /
80001a90:	00090513          	mv	a0,s2
80001a94:	481030ef          	jal	ra,80005714 <__mulsf3>
E:\VMshare\e203\zhengdian_E203\sdk\whetstone\Debug/../application/whets.c:409
                             (cos(x + y) + cos(x - y) - 1.0));
80001a98:	00040593          	mv	a1,s0
E:\VMshare\e203\zhengdian_E203\sdk\whetstone\Debug/../application/whets.c:406
                x = t * atan(t2 * sin(x) * cos(x) /
80001a9c:	00050493          	mv	s1,a0
E:\VMshare\e203\zhengdian_E203\sdk\whetstone\Debug/../application/whets.c:409
                             (cos(x + y) + cos(x - y) - 1.0));
80001aa0:	310030ef          	jal	ra,80004db0 <__addsf3>
80001aa4:	1a4010ef          	jal	ra,80002c48 <cosf>
80001aa8:	00040593          	mv	a1,s0
80001aac:	00050d13          	mv	s10,a0
80001ab0:	00048513          	mv	a0,s1
80001ab4:	769030ef          	jal	ra,80005a1c <__subsf3>
80001ab8:	190010ef          	jal	ra,80002c48 <cosf>
80001abc:	00050c13          	mv	s8,a0
E:\VMshare\e203\zhengdian_E203\sdk\whetstone\Debug/../application/whets.c:408
                y = t * atan(t2 * sin(y) * cos(y) /
80001ac0:	000a8593          	mv	a1,s5
80001ac4:	000a8513          	mv	a0,s5
80001ac8:	2e8030ef          	jal	ra,80004db0 <__addsf3>
80001acc:	000d8593          	mv	a1,s11
80001ad0:	445030ef          	jal	ra,80005714 <__mulsf3>
80001ad4:	00050413          	mv	s0,a0
E:\VMshare\e203\zhengdian_E203\sdk\whetstone\Debug/../application/whets.c:409
                             (cos(x + y) + cos(x - y) - 1.0));
80001ad8:	000c0593          	mv	a1,s8
80001adc:	000d0513          	mv	a0,s10
80001ae0:	2d0030ef          	jal	ra,80004db0 <__addsf3>
80001ae4:	00098593          	mv	a1,s3
80001ae8:	735030ef          	jal	ra,80005a1c <__subsf3>
80001aec:	00050593          	mv	a1,a0
E:\VMshare\e203\zhengdian_E203\sdk\whetstone\Debug/../application/whets.c:408
                y = t * atan(t2 * sin(y) * cos(y) /
80001af0:	00040513          	mv	a0,s0
80001af4:	718030ef          	jal	ra,8000520c <__divsf3>
80001af8:	639000ef          	jal	ra,80002930 <atanf>
80001afc:	00050593          	mv	a1,a0
80001b00:	00090513          	mv	a0,s2
80001b04:	411030ef          	jal	ra,80005714 <__mulsf3>
E:\VMshare\e203\zhengdian_E203\sdk\whetstone\Debug/../application/whets.c:405
            for (i = 1; i < n5; i++) {
80001b08:	fffc8c93          	addi	s9,s9,-1
E:\VMshare\e203\zhengdian_E203\sdk\whetstone\Debug/../application/whets.c:408
                y = t * atan(t2 * sin(y) * cos(y) /
80001b0c:	00050413          	mv	s0,a0
E:\VMshare\e203\zhengdian_E203\sdk\whetstone\Debug/../application/whets.c:405
            for (i = 1; i < n5; i++) {
80001b10:	ee0c92e3          	bnez	s9,800019f4 <whetstones.constprop.0+0xbd0>
E:\VMshare\e203\zhengdian_E203\sdk\whetstone\Debug/../application/whets.c:411
            t = 1.0 - t;
80001b14:	0fffea97          	auipc	s5,0xfffe
80001b18:	724a8a93          	addi	s5,s5,1828 # 90000238 <_impure_ptr+0x5c>
80001b1c:	000aa503          	lw	a0,0(s5)
80001b20:	00090593          	mv	a1,s2
80001b24:	6f9030ef          	jal	ra,80005a1c <__subsf3>
E:\VMshare\e203\zhengdian_E203\sdk\whetstone\Debug/../application/whets.c:404
        for (ix = 0; ix < xtra; ix++) {
80001b28:	00812583          	lw	a1,8(sp)
E:\VMshare\e203\zhengdian_E203\sdk\whetstone\Debug/../application/whets.c:411
            t = 1.0 - t;
80001b2c:	00050913          	mv	s2,a0
E:\VMshare\e203\zhengdian_E203\sdk\whetstone\Debug/../application/whets.c:404
        for (ix = 0; ix < xtra; ix++) {
80001b30:	00158813          	addi	a6,a1,1
80001b34:	01012423          	sw	a6,8(sp)
80001b38:	130a0463          	beq	s4,a6,80001c60 <whetstones.constprop.0+0xe3c>
E:\VMshare\e203\zhengdian_E203\sdk\whetstone\Debug/../application/whets.c:406
                x = t * atan(t2 * sin(x) * cos(x) /
80001b3c:	00048513          	mv	a0,s1
80001b40:	1c0010ef          	jal	ra,80002d00 <sinf>
80001b44:	00050613          	mv	a2,a0
80001b48:	00048513          	mv	a0,s1
80001b4c:	00c12823          	sw	a2,16(sp)
80001b50:	0f8010ef          	jal	ra,80002c48 <cosf>
E:\VMshare\e203\zhengdian_E203\sdk\whetstone\Debug/../application/whets.c:407
                             (cos(x + y) + cos(x - y) - 1.0));
80001b54:	00048593          	mv	a1,s1
E:\VMshare\e203\zhengdian_E203\sdk\whetstone\Debug/../application/whets.c:406
                x = t * atan(t2 * sin(x) * cos(x) /
80001b58:	00050d13          	mv	s10,a0
E:\VMshare\e203\zhengdian_E203\sdk\whetstone\Debug/../application/whets.c:407
                             (cos(x + y) + cos(x - y) - 1.0));
80001b5c:	00040513          	mv	a0,s0
E:\VMshare\e203\zhengdian_E203\sdk\whetstone\Debug/../application/whets.c:406
                x = t * atan(t2 * sin(x) * cos(x) /
80001b60:	01a12623          	sw	s10,12(sp)
E:\VMshare\e203\zhengdian_E203\sdk\whetstone\Debug/../application/whets.c:407
                             (cos(x + y) + cos(x - y) - 1.0));
80001b64:	24c030ef          	jal	ra,80004db0 <__addsf3>
80001b68:	0e0010ef          	jal	ra,80002c48 <cosf>
80001b6c:	00040593          	mv	a1,s0
80001b70:	00050c13          	mv	s8,a0
80001b74:	00048513          	mv	a0,s1
80001b78:	6a5030ef          	jal	ra,80005a1c <__subsf3>
80001b7c:	0cc010ef          	jal	ra,80002c48 <cosf>
E:\VMshare\e203\zhengdian_E203\sdk\whetstone\Debug/../application/whets.c:406
                x = t * atan(t2 * sin(x) * cos(x) /
80001b80:	01012583          	lw	a1,16(sp)
E:\VMshare\e203\zhengdian_E203\sdk\whetstone\Debug/../application/whets.c:407
                             (cos(x + y) + cos(x - y) - 1.0));
80001b84:	00050d93          	mv	s11,a0
E:\VMshare\e203\zhengdian_E203\sdk\whetstone\Debug/../application/whets.c:406
                x = t * atan(t2 * sin(x) * cos(x) /
80001b88:	00058513          	mv	a0,a1
80001b8c:	224030ef          	jal	ra,80004db0 <__addsf3>
80001b90:	00c12583          	lw	a1,12(sp)
80001b94:	381030ef          	jal	ra,80005714 <__mulsf3>
E:\VMshare\e203\zhengdian_E203\sdk\whetstone\Debug/../application/whets.c:407
                             (cos(x + y) + cos(x - y) - 1.0));
80001b98:	000d8593          	mv	a1,s11
E:\VMshare\e203\zhengdian_E203\sdk\whetstone\Debug/../application/whets.c:406
                x = t * atan(t2 * sin(x) * cos(x) /
80001b9c:	00050493          	mv	s1,a0
E:\VMshare\e203\zhengdian_E203\sdk\whetstone\Debug/../application/whets.c:407
                             (cos(x + y) + cos(x - y) - 1.0));
80001ba0:	000c0513          	mv	a0,s8
80001ba4:	20c030ef          	jal	ra,80004db0 <__addsf3>
80001ba8:	000aa583          	lw	a1,0(s5)
80001bac:	671030ef          	jal	ra,80005a1c <__subsf3>
80001bb0:	00050593          	mv	a1,a0
E:\VMshare\e203\zhengdian_E203\sdk\whetstone\Debug/../application/whets.c:406
                x = t * atan(t2 * sin(x) * cos(x) /
80001bb4:	00048513          	mv	a0,s1
80001bb8:	654030ef          	jal	ra,8000520c <__divsf3>
80001bbc:	575000ef          	jal	ra,80002930 <atanf>
80001bc0:	00050593          	mv	a1,a0
80001bc4:	00050c13          	mv	s8,a0
80001bc8:	00090513          	mv	a0,s2
80001bcc:	349030ef          	jal	ra,80005714 <__mulsf3>
80001bd0:	00050d13          	mv	s10,a0
E:\VMshare\e203\zhengdian_E203\sdk\whetstone\Debug/../application/whets.c:408
                y = t * atan(t2 * sin(y) * cos(y) /
80001bd4:	00040513          	mv	a0,s0
80001bd8:	128010ef          	jal	ra,80002d00 <sinf>
80001bdc:	00050893          	mv	a7,a0
80001be0:	00040513          	mv	a0,s0
80001be4:	01112823          	sw	a7,16(sp)
80001be8:	060010ef          	jal	ra,80002c48 <cosf>
80001bec:	00050813          	mv	a6,a0
E:\VMshare\e203\zhengdian_E203\sdk\whetstone\Debug/../application/whets.c:409
                             (cos(x + y) + cos(x - y) - 1.0));
80001bf0:	000d0593          	mv	a1,s10
80001bf4:	00040513          	mv	a0,s0
E:\VMshare\e203\zhengdian_E203\sdk\whetstone\Debug/../application/whets.c:408
                y = t * atan(t2 * sin(y) * cos(y) /
80001bf8:	01012623          	sw	a6,12(sp)
E:\VMshare\e203\zhengdian_E203\sdk\whetstone\Debug/../application/whets.c:409
                             (cos(x + y) + cos(x - y) - 1.0));
80001bfc:	1b4030ef          	jal	ra,80004db0 <__addsf3>
80001c00:	048010ef          	jal	ra,80002c48 <cosf>
80001c04:	00040593          	mv	a1,s0
80001c08:	00050c93          	mv	s9,a0
80001c0c:	000d0513          	mv	a0,s10
80001c10:	60d030ef          	jal	ra,80005a1c <__subsf3>
80001c14:	034010ef          	jal	ra,80002c48 <cosf>
E:\VMshare\e203\zhengdian_E203\sdk\whetstone\Debug/../application/whets.c:408
                y = t * atan(t2 * sin(y) * cos(y) /
80001c18:	01012583          	lw	a1,16(sp)
E:\VMshare\e203\zhengdian_E203\sdk\whetstone\Debug/../application/whets.c:409
                             (cos(x + y) + cos(x - y) - 1.0));
80001c1c:	00050d93          	mv	s11,a0
E:\VMshare\e203\zhengdian_E203\sdk\whetstone\Debug/../application/whets.c:408
                y = t * atan(t2 * sin(y) * cos(y) /
80001c20:	00058513          	mv	a0,a1
80001c24:	18c030ef          	jal	ra,80004db0 <__addsf3>
80001c28:	00c12583          	lw	a1,12(sp)
80001c2c:	2e9030ef          	jal	ra,80005714 <__mulsf3>
80001c30:	00050413          	mv	s0,a0
E:\VMshare\e203\zhengdian_E203\sdk\whetstone\Debug/../application/whets.c:409
                             (cos(x + y) + cos(x - y) - 1.0));
80001c34:	000d8593          	mv	a1,s11
80001c38:	000c8513          	mv	a0,s9
80001c3c:	174030ef          	jal	ra,80004db0 <__addsf3>
80001c40:	000aa583          	lw	a1,0(s5)
80001c44:	5d9030ef          	jal	ra,80005a1c <__subsf3>
80001c48:	00050593          	mv	a1,a0
E:\VMshare\e203\zhengdian_E203\sdk\whetstone\Debug/../application/whets.c:408
                y = t * atan(t2 * sin(y) * cos(y) /
80001c4c:	00040513          	mv	a0,s0
80001c50:	5bc030ef          	jal	ra,8000520c <__divsf3>
80001c54:	4dd000ef          	jal	ra,80002930 <atanf>
80001c58:	00050a93          	mv	s5,a0
80001c5c:	d71ff06f          	j	800019cc <whetstones.constprop.0+0xba8>
E:\VMshare\e203\zhengdian_E203\sdk\whetstone\Debug/../application/whets.c:415
    end_time();
80001c60:	980ff0ef          	jal	ra,80000de0 <end_time>
pout():
E:\VMshare\e203\zhengdian_E203\sdk\whetstone\Debug/../application/whets.c:508
    Check = Check + checknum;
80001c64:	9e818b93          	addi	s7,gp,-1560 # 900003b8 <Check>
80001c68:	000ba503          	lw	a0,0(s7)
whetstones():
E:\VMshare\e203\zhengdian_E203\sdk\whetstone\Debug/../application/whets.c:416
    pout("N5 sin,cos etc.  \0", (float)(n5 * 26) * (float)(xtra), 2, y, secs,
80001c6c:	9dc18313          	addi	t1,gp,-1572 # 900003ac <secs>
pout():
E:\VMshare\e203\zhengdian_E203\sdk\whetstone\Debug/../application/whets.c:508
    Check = Check + checknum;
80001c70:	00040593          	mv	a1,s0
whetstones():
E:\VMshare\e203\zhengdian_E203\sdk\whetstone\Debug/../application/whets.c:416
    pout("N5 sin,cos etc.  \0", (float)(n5 * 26) * (float)(xtra), 2, y, secs,
80001c74:	00032483          	lw	s1,0(t1)
pout():
E:\VMshare\e203\zhengdian_E203\sdk\whetstone\Debug/../application/whets.c:508
    Check = Check + checknum;
80001c78:	138030ef          	jal	ra,80004db0 <__addsf3>
E:\VMshare\e203\zhengdian_E203\sdk\whetstone\Debug/../application/whets.c:510
    strcpy(headings[section], title);
80001c7c:	08cb5e83          	lhu	t4,140(s6)
80001c80:	08eb5e03          	lhu	t3,142(s6)
80001c84:	090b5283          	lhu	t0,144(s6)
80001c88:	092b5883          	lhu	a7,146(s6)
80001c8c:	094b5383          	lhu	t2,148(s6)
80001c90:	096b5603          	lhu	a2,150(s6)
80001c94:	098b5683          	lhu	a3,152(s6)
80001c98:	09ab5703          	lhu	a4,154(s6)
80001c9c:	09cb5783          	lhu	a5,156(s6)
E:\VMshare\e203\zhengdian_E203\sdk\whetstone\Debug/../application/whets.c:511
    TimeUsed = TimeUsed + time;
80001ca0:	9ec18993          	addi	s3,gp,-1556 # 900003bc <TimeUsed>
E:\VMshare\e203\zhengdian_E203\sdk\whetstone\Debug/../application/whets.c:508
    Check = Check + checknum;
80001ca4:	00050f93          	mv	t6,a0
E:\VMshare\e203\zhengdian_E203\sdk\whetstone\Debug/../application/whets.c:511
    TimeUsed = TimeUsed + time;
80001ca8:	0009a503          	lw	a0,0(s3)
E:\VMshare\e203\zhengdian_E203\sdk\whetstone\Debug/../application/whets.c:510
    strcpy(headings[section], title);
80001cac:	a9c18d93          	addi	s11,gp,-1380 # 9000046c <headings>
E:\VMshare\e203\zhengdian_E203\sdk\whetstone\Debug/../application/whets.c:509
    loop_time[section] = time;
80001cb0:	b4018f13          	addi	t5,gp,-1216 # 90000510 <loop_time>
E:\VMshare\e203\zhengdian_E203\sdk\whetstone\Debug/../application/whets.c:511
    TimeUsed = TimeUsed + time;
80001cb4:	00048593          	mv	a1,s1
E:\VMshare\e203\zhengdian_E203\sdk\whetstone\Debug/../application/whets.c:508
    Check = Check + checknum;
80001cb8:	01fba023          	sw	t6,0(s7)
E:\VMshare\e203\zhengdian_E203\sdk\whetstone\Debug/../application/whets.c:509
    loop_time[section] = time;
80001cbc:	009f2a23          	sw	s1,20(t5)
E:\VMshare\e203\zhengdian_E203\sdk\whetstone\Debug/../application/whets.c:510
    strcpy(headings[section], title);
80001cc0:	05dd9d23          	sh	t4,90(s11)
80001cc4:	05cd9e23          	sh	t3,92(s11)
80001cc8:	045d9f23          	sh	t0,94(s11)
80001ccc:	071d9023          	sh	a7,96(s11)
80001cd0:	067d9123          	sh	t2,98(s11)
80001cd4:	06cd9223          	sh	a2,100(s11)
80001cd8:	06dd9323          	sh	a3,102(s11)
80001cdc:	06ed9423          	sh	a4,104(s11)
80001ce0:	06fd9523          	sh	a5,106(s11)
E:\VMshare\e203\zhengdian_E203\sdk\whetstone\Debug/../application/whets.c:511
    TimeUsed = TimeUsed + time;
80001ce4:	0cc030ef          	jal	ra,80004db0 <__addsf3>
E:\VMshare\e203\zhengdian_E203\sdk\whetstone\Debug/../application/whets.c:512
    if (calibrate == 1)
80001ce8:	01412d03          	lw	s10,20(sp)
E:\VMshare\e203\zhengdian_E203\sdk\whetstone\Debug/../application/whets.c:511
    TimeUsed = TimeUsed + time;
80001cec:	00a9a023          	sw	a0,0(s3)
E:\VMshare\e203\zhengdian_E203\sdk\whetstone\Debug/../application/whets.c:512
    if (calibrate == 1)
80001cf0:	00100513          	li	a0,1
80001cf4:	68ad0263          	beq	s10,a0,80002378 <whetstones.constprop.0+0x1554>
E:\VMshare\e203\zhengdian_E203\sdk\whetstone\Debug/../application/whets.c:517
    if (calibrate == 0) {
80001cf8:	01412083          	lw	ra,20(sp)
80001cfc:	10009c63          	bnez	ra,80001e14 <whetstones.constprop.0+0xff0>
E:\VMshare\e203\zhengdian_E203\sdk\whetstone\Debug/../application/whets.c:518
        printf("%s %20.17f    ", headings[section], results[section]);
80001d00:	b6418d93          	addi	s11,gp,-1180 # 90000534 <results>
80001d04:	014da503          	lw	a0,20(s11)
80001d08:	550040ef          	jal	ra,80006258 <__extendsfdf2>
80001d0c:	00050613          	mv	a2,a0
80001d10:	00058693          	mv	a3,a1
80001d14:	0000b517          	auipc	a0,0xb
80001d18:	7f450513          	addi	a0,a0,2036 # 8000d508 <__trunctfdf2+0x42c>
80001d1c:	af618593          	addi	a1,gp,-1290 # 900004c6 <headings+0x5a>
80001d20:	6dc050ef          	jal	ra,800073fc <iprintf>
E:\VMshare\e203\zhengdian_E203\sdk\whetstone\Debug/../application/whets.c:531
            if (time > 0) {
80001d24:	00000593          	li	a1,0
80001d28:	00048513          	mv	a0,s1
80001d2c:	081030ef          	jal	ra,800055ac <__gesf2>
80001d30:	24a05ae3          	blez	a0,80002784 <whetstones.constprop.0+0x1960>
whetstones():
E:\VMshare\e203\zhengdian_E203\sdk\whetstone\Debug/../application/whets.c:416
    pout("N5 sin,cos etc.  \0", (float)(n5 * 26) * (float)(xtra), 2, y, secs,
80001d34:	01812503          	lw	a0,24(sp)
80001d38:	0fffe597          	auipc	a1,0xfffe
80001d3c:	53c5a583          	lw	a1,1340(a1) # 90000274 <_impure_ptr+0x98>
80001d40:	1d5030ef          	jal	ra,80005714 <__mulsf3>
80001d44:	00050c93          	mv	s9,a0
pout():
E:\VMshare\e203\zhengdian_E203\sdk\whetstone\Debug/../application/whets.c:532
                mops = ops / (1000000L * time);
80001d48:	0fffe597          	auipc	a1,0xfffe
80001d4c:	5105a583          	lw	a1,1296(a1) # 90000258 <_impure_ptr+0x7c>
80001d50:	00048513          	mv	a0,s1
80001d54:	1c1030ef          	jal	ra,80005714 <__mulsf3>
80001d58:	00050593          	mv	a1,a0
80001d5c:	000c8513          	mv	a0,s9
80001d60:	4ac030ef          	jal	ra,8000520c <__divsf3>
E:\VMshare\e203\zhengdian_E203\sdk\whetstone\Debug/../application/whets.c:538
            printf("           %9.3f%9.3f\n", loop_mops[section],
80001d64:	4f4040ef          	jal	ra,80006258 <__extendsfdf2>
80001d68:	00050d13          	mv	s10,a0
80001d6c:	00058c13          	mv	s8,a1
80001d70:	b4018593          	addi	a1,gp,-1216 # 90000510 <loop_time>
80001d74:	0145a503          	lw	a0,20(a1)
80001d78:	4e0040ef          	jal	ra,80006258 <__extendsfdf2>
80001d7c:	00050713          	mv	a4,a0
80001d80:	00058793          	mv	a5,a1
80001d84:	000d0613          	mv	a2,s10
80001d88:	000c0693          	mv	a3,s8
80001d8c:	0000b517          	auipc	a0,0xb
80001d90:	7a450513          	addi	a0,a0,1956 # 8000d530 <__trunctfdf2+0x454>
80001d94:	668050ef          	jal	ra,800073fc <iprintf>
whetstones():
E:\VMshare\e203\zhengdian_E203\sdk\whetstone\Debug/../application/whets.c:424
    start_time();
80001d98:	80cff0ef          	jal	ra,80000da4 <start_time>
E:\VMshare\e203\zhengdian_E203\sdk\whetstone\Debug/../application/whets.c:426
        for (ix = 0; ix < xtra; ix++) {
80001d9c:	09404063          	bgtz	s4,80001e1c <whetstones.constprop.0+0xff8>
E:\VMshare\e203\zhengdian_E203\sdk\whetstone\Debug/../application/whets.c:432
    end_time();
80001da0:	840ff0ef          	jal	ra,80000de0 <end_time>
pout():
E:\VMshare\e203\zhengdian_E203\sdk\whetstone\Debug/../application/whets.c:508
    Check = Check + checknum;
80001da4:	9e818413          	addi	s0,gp,-1560 # 900003b8 <Check>
80001da8:	00042503          	lw	a0,0(s0)
whetstones():
E:\VMshare\e203\zhengdian_E203\sdk\whetstone\Debug/../application/whets.c:433
    pout("N6 floating point\0", (float)(n6 * 6) * (float)(xtra), 1, z, secs,
80001dac:	9dc18e13          	addi	t3,gp,-1572 # 900003ac <secs>
pout():
E:\VMshare\e203\zhengdian_E203\sdk\whetstone\Debug/../application/whets.c:508
    Check = Check + checknum;
80001db0:	0fffe597          	auipc	a1,0xfffe
80001db4:	4885a583          	lw	a1,1160(a1) # 90000238 <_impure_ptr+0x5c>
whetstones():
E:\VMshare\e203\zhengdian_E203\sdk\whetstone\Debug/../application/whets.c:433
    pout("N6 floating point\0", (float)(n6 * 6) * (float)(xtra), 1, z, secs,
80001db8:	000e2a83          	lw	s5,0(t3)
pout():
E:\VMshare\e203\zhengdian_E203\sdk\whetstone\Debug/../application/whets.c:508
    Check = Check + checknum;
80001dbc:	7f5020ef          	jal	ra,80004db0 <__addsf3>
E:\VMshare\e203\zhengdian_E203\sdk\whetstone\Debug/../application/whets.c:510
    strcpy(headings[section], title);
80001dc0:	050b2383          	lw	t2,80(s6)
80001dc4:	054b2603          	lw	a2,84(s6)
80001dc8:	058b2683          	lw	a3,88(s6)
80001dcc:	05cb2703          	lw	a4,92(s6)
80001dd0:	060b5783          	lhu	a5,96(s6)
E:\VMshare\e203\zhengdian_E203\sdk\whetstone\Debug/../application/whets.c:511
    TimeUsed = TimeUsed + time;
80001dd4:	9ec18913          	addi	s2,gp,-1556 # 900003bc <TimeUsed>
E:\VMshare\e203\zhengdian_E203\sdk\whetstone\Debug/../application/whets.c:508
    Check = Check + checknum;
80001dd8:	00050293          	mv	t0,a0
E:\VMshare\e203\zhengdian_E203\sdk\whetstone\Debug/../application/whets.c:511
    TimeUsed = TimeUsed + time;
80001ddc:	00092503          	lw	a0,0(s2)
E:\VMshare\e203\zhengdian_E203\sdk\whetstone\Debug/../application/whets.c:510
    strcpy(headings[section], title);
80001de0:	a9c18f13          	addi	t5,gp,-1380 # 9000046c <headings>
E:\VMshare\e203\zhengdian_E203\sdk\whetstone\Debug/../application/whets.c:509
    loop_time[section] = time;
80001de4:	b4018893          	addi	a7,gp,-1216 # 90000510 <loop_time>
E:\VMshare\e203\zhengdian_E203\sdk\whetstone\Debug/../application/whets.c:511
    TimeUsed = TimeUsed + time;
80001de8:	000a8593          	mv	a1,s5
E:\VMshare\e203\zhengdian_E203\sdk\whetstone\Debug/../application/whets.c:508
    Check = Check + checknum;
80001dec:	00542023          	sw	t0,0(s0)
E:\VMshare\e203\zhengdian_E203\sdk\whetstone\Debug/../application/whets.c:509
    loop_time[section] = time;
80001df0:	0158ac23          	sw	s5,24(a7)
E:\VMshare\e203\zhengdian_E203\sdk\whetstone\Debug/../application/whets.c:510
    strcpy(headings[section], title);
80001df4:	067f2623          	sw	t2,108(t5)
80001df8:	06cf2823          	sw	a2,112(t5)
80001dfc:	06df2a23          	sw	a3,116(t5)
80001e00:	06ef2c23          	sw	a4,120(t5)
80001e04:	06ff1e23          	sh	a5,124(t5)
E:\VMshare\e203\zhengdian_E203\sdk\whetstone\Debug/../application/whets.c:511
    TimeUsed = TimeUsed + time;
80001e08:	7a9020ef          	jal	ra,80004db0 <__addsf3>
80001e0c:	00a92023          	sw	a0,0(s2)
E:\VMshare\e203\zhengdian_E203\sdk\whetstone\Debug/../application/whets.c:517
    if (calibrate == 0) {
80001e10:	0950006f          	j	800026a4 <whetstones.constprop.0+0x1880>
whetstones():
E:\VMshare\e203\zhengdian_E203\sdk\whetstone\Debug/../application/whets.c:424
    start_time();
80001e14:	f91fe0ef          	jal	ra,80000da4 <start_time>
E:\VMshare\e203\zhengdian_E203\sdk\whetstone\Debug/../application/whets.c:426
        for (ix = 0; ix < xtra; ix++) {
80001e18:	2b4052e3          	blez	s4,800028bc <whetstones.constprop.0+0x1a98>
E:\VMshare\e203\zhengdian_E203\sdk\whetstone\Debug/../application/whets.c:423
    z = 1.0;
80001e1c:	01c12c03          	lw	s8,28(sp)
E:\VMshare\e203\zhengdian_E203\sdk\whetstone\Debug/../application/whets.c:426
        for (ix = 0; ix < xtra; ix++) {
80001e20:	00000993          	li	s3,0
80001e24:	00016ab7          	lui	s5,0x16
E:\VMshare\e203\zhengdian_E203\sdk\whetstone\Debug/../application/whets.c:422
    y = 1.0;
80001e28:	000c0913          	mv	s2,s8
p3():
E:\VMshare\e203\zhengdian_E203\sdk\whetstone\Debug/../application/whets.c:497
    *x = t * (*x + *y);
80001e2c:	0fffed17          	auipc	s10,0xfffe
80001e30:	410d2d03          	lw	s10,1040(s10) # 9000023c <_impure_ptr+0x60>
E:\VMshare\e203\zhengdian_E203\sdk\whetstone\Debug/../application/whets.c:498
    *y = t1 * (*x + *y);
80001e34:	0fffe497          	auipc	s1,0xfffe
80001e38:	4444a483          	lw	s1,1092(s1) # 90000278 <_impure_ptr+0x9c>
E:\VMshare\e203\zhengdian_E203\sdk\whetstone\Debug/../application/whets.c:499
    *z = (*x + *y) / t2;
80001e3c:	0fffe417          	auipc	s0,0xfffe
80001e40:	42042403          	lw	s0,1056(s0) # 9000025c <_impure_ptr+0x80>
whetstones():
E:\VMshare\e203\zhengdian_E203\sdk\whetstone\Debug/../application/whets.c:426
        for (ix = 0; ix < xtra; ix++) {
80001e44:	f2ca8c93          	addi	s9,s5,-212 # 15f2c <__stack_size+0x1572c>
p3():
E:\VMshare\e203\zhengdian_E203\sdk\whetstone\Debug/../application/whets.c:497
    *x = t * (*x + *y);
80001e48:	000c0593          	mv	a1,s8
80001e4c:	00090513          	mv	a0,s2
80001e50:	761020ef          	jal	ra,80004db0 <__addsf3>
80001e54:	000d0593          	mv	a1,s10
80001e58:	0bd030ef          	jal	ra,80005714 <__mulsf3>
E:\VMshare\e203\zhengdian_E203\sdk\whetstone\Debug/../application/whets.c:498
    *y = t1 * (*x + *y);
80001e5c:	000c0593          	mv	a1,s8
E:\VMshare\e203\zhengdian_E203\sdk\whetstone\Debug/../application/whets.c:497
    *x = t * (*x + *y);
80001e60:	00050d93          	mv	s11,a0
E:\VMshare\e203\zhengdian_E203\sdk\whetstone\Debug/../application/whets.c:498
    *y = t1 * (*x + *y);
80001e64:	74d020ef          	jal	ra,80004db0 <__addsf3>
80001e68:	00048593          	mv	a1,s1
80001e6c:	0a9030ef          	jal	ra,80005714 <__mulsf3>
80001e70:	00050b93          	mv	s7,a0
E:\VMshare\e203\zhengdian_E203\sdk\whetstone\Debug/../application/whets.c:499
    *z = (*x + *y) / t2;
80001e74:	00050593          	mv	a1,a0
80001e78:	000d8513          	mv	a0,s11
80001e7c:	735020ef          	jal	ra,80004db0 <__addsf3>
80001e80:	00040593          	mv	a1,s0
80001e84:	091030ef          	jal	ra,80005714 <__mulsf3>
80001e88:	00050c13          	mv	s8,a0
E:\VMshare\e203\zhengdian_E203\sdk\whetstone\Debug/../application/whets.c:497
    *x = t * (*x + *y);
80001e8c:	00050593          	mv	a1,a0
80001e90:	000b8513          	mv	a0,s7
80001e94:	71d020ef          	jal	ra,80004db0 <__addsf3>
80001e98:	000d0593          	mv	a1,s10
80001e9c:	079030ef          	jal	ra,80005714 <__mulsf3>
E:\VMshare\e203\zhengdian_E203\sdk\whetstone\Debug/../application/whets.c:498
    *y = t1 * (*x + *y);
80001ea0:	000c0593          	mv	a1,s8
E:\VMshare\e203\zhengdian_E203\sdk\whetstone\Debug/../application/whets.c:497
    *x = t * (*x + *y);
80001ea4:	00050913          	mv	s2,a0
E:\VMshare\e203\zhengdian_E203\sdk\whetstone\Debug/../application/whets.c:498
    *y = t1 * (*x + *y);
80001ea8:	709020ef          	jal	ra,80004db0 <__addsf3>
80001eac:	00048593          	mv	a1,s1
80001eb0:	065030ef          	jal	ra,80005714 <__mulsf3>
80001eb4:	00050b93          	mv	s7,a0
E:\VMshare\e203\zhengdian_E203\sdk\whetstone\Debug/../application/whets.c:499
    *z = (*x + *y) / t2;
80001eb8:	00050593          	mv	a1,a0
80001ebc:	00090513          	mv	a0,s2
80001ec0:	6f1020ef          	jal	ra,80004db0 <__addsf3>
80001ec4:	00040593          	mv	a1,s0
80001ec8:	04d030ef          	jal	ra,80005714 <__mulsf3>
80001ecc:	00050d93          	mv	s11,a0
E:\VMshare\e203\zhengdian_E203\sdk\whetstone\Debug/../application/whets.c:497
    *x = t * (*x + *y);
80001ed0:	00050593          	mv	a1,a0
80001ed4:	000b8513          	mv	a0,s7
80001ed8:	6d9020ef          	jal	ra,80004db0 <__addsf3>
80001edc:	000d0593          	mv	a1,s10
80001ee0:	035030ef          	jal	ra,80005714 <__mulsf3>
E:\VMshare\e203\zhengdian_E203\sdk\whetstone\Debug/../application/whets.c:498
    *y = t1 * (*x + *y);
80001ee4:	000d8593          	mv	a1,s11
E:\VMshare\e203\zhengdian_E203\sdk\whetstone\Debug/../application/whets.c:497
    *x = t * (*x + *y);
80001ee8:	00050c13          	mv	s8,a0
E:\VMshare\e203\zhengdian_E203\sdk\whetstone\Debug/../application/whets.c:498
    *y = t1 * (*x + *y);
80001eec:	6c5020ef          	jal	ra,80004db0 <__addsf3>
80001ef0:	00048593          	mv	a1,s1
80001ef4:	021030ef          	jal	ra,80005714 <__mulsf3>
80001ef8:	00050913          	mv	s2,a0
E:\VMshare\e203\zhengdian_E203\sdk\whetstone\Debug/../application/whets.c:499
    *z = (*x + *y) / t2;
80001efc:	00050593          	mv	a1,a0
80001f00:	000c0513          	mv	a0,s8
80001f04:	6ad020ef          	jal	ra,80004db0 <__addsf3>
80001f08:	00040593          	mv	a1,s0
80001f0c:	009030ef          	jal	ra,80005714 <__mulsf3>
E:\VMshare\e203\zhengdian_E203\sdk\whetstone\Debug/../application/whets.c:497
    *x = t * (*x + *y);
80001f10:	00050593          	mv	a1,a0
E:\VMshare\e203\zhengdian_E203\sdk\whetstone\Debug/../application/whets.c:499
    *z = (*x + *y) / t2;
80001f14:	00050b93          	mv	s7,a0
E:\VMshare\e203\zhengdian_E203\sdk\whetstone\Debug/../application/whets.c:497
    *x = t * (*x + *y);
80001f18:	00090513          	mv	a0,s2
80001f1c:	695020ef          	jal	ra,80004db0 <__addsf3>
80001f20:	000d0593          	mv	a1,s10
80001f24:	7f0030ef          	jal	ra,80005714 <__mulsf3>
E:\VMshare\e203\zhengdian_E203\sdk\whetstone\Debug/../application/whets.c:498
    *y = t1 * (*x + *y);
80001f28:	000b8593          	mv	a1,s7
E:\VMshare\e203\zhengdian_E203\sdk\whetstone\Debug/../application/whets.c:497
    *x = t * (*x + *y);
80001f2c:	00050d93          	mv	s11,a0
E:\VMshare\e203\zhengdian_E203\sdk\whetstone\Debug/../application/whets.c:498
    *y = t1 * (*x + *y);
80001f30:	681020ef          	jal	ra,80004db0 <__addsf3>
80001f34:	00048593          	mv	a1,s1
80001f38:	7dc030ef          	jal	ra,80005714 <__mulsf3>
E:\VMshare\e203\zhengdian_E203\sdk\whetstone\Debug/../application/whets.c:499
    *z = (*x + *y) / t2;
80001f3c:	00050593          	mv	a1,a0
E:\VMshare\e203\zhengdian_E203\sdk\whetstone\Debug/../application/whets.c:498
    *y = t1 * (*x + *y);
80001f40:	00050913          	mv	s2,a0
E:\VMshare\e203\zhengdian_E203\sdk\whetstone\Debug/../application/whets.c:499
    *z = (*x + *y) / t2;
80001f44:	000d8513          	mv	a0,s11
80001f48:	669020ef          	jal	ra,80004db0 <__addsf3>
80001f4c:	00040593          	mv	a1,s0
80001f50:	7c4030ef          	jal	ra,80005714 <__mulsf3>
whetstones():
E:\VMshare\e203\zhengdian_E203\sdk\whetstone\Debug/../application/whets.c:427
            for (i = 0; i < n6; i++) {
80001f54:	ffcc8c93          	addi	s9,s9,-4
p3():
E:\VMshare\e203\zhengdian_E203\sdk\whetstone\Debug/../application/whets.c:499
    *z = (*x + *y) / t2;
80001f58:	00050c13          	mv	s8,a0
whetstones():
E:\VMshare\e203\zhengdian_E203\sdk\whetstone\Debug/../application/whets.c:427
            for (i = 0; i < n6; i++) {
80001f5c:	ee0c96e3          	bnez	s9,80001e48 <whetstones.constprop.0+0x1024>
E:\VMshare\e203\zhengdian_E203\sdk\whetstone\Debug/../application/whets.c:426
        for (ix = 0; ix < xtra; ix++) {
80001f60:	00198993          	addi	s3,s3,1
80001f64:	ef3a10e3          	bne	s4,s3,80001e44 <whetstones.constprop.0+0x1020>
E:\VMshare\e203\zhengdian_E203\sdk\whetstone\Debug/../application/whets.c:432
    end_time();
80001f68:	e79fe0ef          	jal	ra,80000de0 <end_time>
pout():
E:\VMshare\e203\zhengdian_E203\sdk\whetstone\Debug/../application/whets.c:508
    Check = Check + checknum;
80001f6c:	9e818d13          	addi	s10,gp,-1560 # 900003b8 <Check>
80001f70:	000d2503          	lw	a0,0(s10)
whetstones():
E:\VMshare\e203\zhengdian_E203\sdk\whetstone\Debug/../application/whets.c:433
    pout("N6 floating point\0", (float)(n6 * 6) * (float)(xtra), 1, z, secs,
80001f74:	9dc18813          	addi	a6,gp,-1572 # 900003ac <secs>
pout():
E:\VMshare\e203\zhengdian_E203\sdk\whetstone\Debug/../application/whets.c:508
    Check = Check + checknum;
80001f78:	000c0593          	mv	a1,s8
whetstones():
E:\VMshare\e203\zhengdian_E203\sdk\whetstone\Debug/../application/whets.c:433
    pout("N6 floating point\0", (float)(n6 * 6) * (float)(xtra), 1, z, secs,
80001f7c:	00082a83          	lw	s5,0(a6)
pout():
E:\VMshare\e203\zhengdian_E203\sdk\whetstone\Debug/../application/whets.c:508
    Check = Check + checknum;
80001f80:	631020ef          	jal	ra,80004db0 <__addsf3>
E:\VMshare\e203\zhengdian_E203\sdk\whetstone\Debug/../application/whets.c:510
    strcpy(headings[section], title);
80001f84:	050b2f83          	lw	t6,80(s6)
80001f88:	054b2e83          	lw	t4,84(s6)
80001f8c:	058b2e03          	lw	t3,88(s6)
80001f90:	05cb2283          	lw	t0,92(s6)
80001f94:	060b5383          	lhu	t2,96(s6)
E:\VMshare\e203\zhengdian_E203\sdk\whetstone\Debug/../application/whets.c:511
    TimeUsed = TimeUsed + time;
80001f98:	9ec18493          	addi	s1,gp,-1556 # 900003bc <TimeUsed>
E:\VMshare\e203\zhengdian_E203\sdk\whetstone\Debug/../application/whets.c:508
    Check = Check + checknum;
80001f9c:	00050313          	mv	t1,a0
E:\VMshare\e203\zhengdian_E203\sdk\whetstone\Debug/../application/whets.c:511
    TimeUsed = TimeUsed + time;
80001fa0:	0004a503          	lw	a0,0(s1)
E:\VMshare\e203\zhengdian_E203\sdk\whetstone\Debug/../application/whets.c:510
    strcpy(headings[section], title);
80001fa4:	a9c18693          	addi	a3,gp,-1380 # 9000046c <headings>
E:\VMshare\e203\zhengdian_E203\sdk\whetstone\Debug/../application/whets.c:509
    loop_time[section] = time;
80001fa8:	b4018613          	addi	a2,gp,-1216 # 90000510 <loop_time>
E:\VMshare\e203\zhengdian_E203\sdk\whetstone\Debug/../application/whets.c:511
    TimeUsed = TimeUsed + time;
80001fac:	000a8593          	mv	a1,s5
E:\VMshare\e203\zhengdian_E203\sdk\whetstone\Debug/../application/whets.c:508
    Check = Check + checknum;
80001fb0:	006d2023          	sw	t1,0(s10)
E:\VMshare\e203\zhengdian_E203\sdk\whetstone\Debug/../application/whets.c:509
    loop_time[section] = time;
80001fb4:	01562c23          	sw	s5,24(a2)
E:\VMshare\e203\zhengdian_E203\sdk\whetstone\Debug/../application/whets.c:510
    strcpy(headings[section], title);
80001fb8:	07f6a623          	sw	t6,108(a3) # c20006c <__stack_size+0xc1ff86c>
80001fbc:	07d6a823          	sw	t4,112(a3)
80001fc0:	07c6aa23          	sw	t3,116(a3)
80001fc4:	0656ac23          	sw	t0,120(a3)
80001fc8:	06769e23          	sh	t2,124(a3)
E:\VMshare\e203\zhengdian_E203\sdk\whetstone\Debug/../application/whets.c:511
    TimeUsed = TimeUsed + time;
80001fcc:	5e5020ef          	jal	ra,80004db0 <__addsf3>
E:\VMshare\e203\zhengdian_E203\sdk\whetstone\Debug/../application/whets.c:512
    if (calibrate == 1)
80001fd0:	01412583          	lw	a1,20(sp)
E:\VMshare\e203\zhengdian_E203\sdk\whetstone\Debug/../application/whets.c:511
    TimeUsed = TimeUsed + time;
80001fd4:	00a4a023          	sw	a0,0(s1)
E:\VMshare\e203\zhengdian_E203\sdk\whetstone\Debug/../application/whets.c:512
    if (calibrate == 1)
80001fd8:	00100513          	li	a0,1
80001fdc:	6aa58c63          	beq	a1,a0,80002694 <whetstones.constprop.0+0x1870>
E:\VMshare\e203\zhengdian_E203\sdk\whetstone\Debug/../application/whets.c:517
    if (calibrate == 0) {
80001fe0:	01412083          	lw	ra,20(sp)
80001fe4:	6a008e63          	beqz	ra,800026a0 <whetstones.constprop.0+0x187c>
whetstones():
E:\VMshare\e203\zhengdian_E203\sdk\whetstone\Debug/../application/whets.c:443
    start_time();
80001fe8:	dbdfe0ef          	jal	ra,80000da4 <start_time>
E:\VMshare\e203\zhengdian_E203\sdk\whetstone\Debug/../application/whets.c:445
        for (ix = 0; ix < xtra; ix++) {
80001fec:	4d405a63          	blez	s4,800024c0 <whetstones.constprop.0+0x169c>
E:\VMshare\e203\zhengdian_E203\sdk\whetstone\Debug/../application/whets.c:442
    e1[2] = 3.0;
80001ff0:	0fffe417          	auipc	s0,0xfffe
80001ff4:	25442403          	lw	s0,596(s0) # 90000244 <_impure_ptr+0x68>
E:\VMshare\e203\zhengdian_E203\sdk\whetstone\Debug/../application/whets.c:441
    e1[1] = 2.0;
80001ff8:	0fffef17          	auipc	t5,0xfffe
80001ffc:	250f2f03          	lw	t5,592(t5) # 90000248 <_impure_ptr+0x6c>
E:\VMshare\e203\zhengdian_E203\sdk\whetstone\Debug/../application/whets.c:445
        for (ix = 0; ix < xtra; ix++) {
80002000:	00000c13          	li	s8,0
80002004:	0000f3b7          	lui	t2,0xf
E:\VMshare\e203\zhengdian_E203\sdk\whetstone\Debug/../application/whets.c:446
            for (i = 0; i < n7; i++) {
80002008:	09d38913          	addi	s2,t2,157 # f09d <__stack_size+0xe89d>
8000200c:	0100006f          	j	8000201c <whetstones.constprop.0+0x11f8>
80002010:	000f0413          	mv	s0,t5
80002014:	ff790913          	addi	s2,s2,-9
80002018:	00060f13          	mv	t5,a2
8000201c:	fff90093          	addi	ra,s2,-1
80002020:	00040613          	mv	a2,s0
80002024:	fe0096e3          	bnez	ra,80002010 <whetstones.constprop.0+0x11ec>
E:\VMshare\e203\zhengdian_E203\sdk\whetstone\Debug/../application/whets.c:445
        for (ix = 0; ix < xtra; ix++) {
80002028:	001c0c13          	addi	s8,s8,1
8000202c:	fd8a1ee3          	bne	s4,s8,80002008 <whetstones.constprop.0+0x11e4>
E:\VMshare\e203\zhengdian_E203\sdk\whetstone\Debug/../application/whets.c:451
    end_time();
80002030:	db1fe0ef          	jal	ra,80000de0 <end_time>
pout():
E:\VMshare\e203\zhengdian_E203\sdk\whetstone\Debug/../application/whets.c:508
    Check = Check + checknum;
80002034:	9e818b93          	addi	s7,gp,-1560 # 900003b8 <Check>
80002038:	000ba503          	lw	a0,0(s7)
whetstones():
E:\VMshare\e203\zhengdian_E203\sdk\whetstone\Debug/../application/whets.c:452
    pout("N7 assignments   \0", (float)(n7 * 3) * (float)(xtra), 2, e1[2], secs,
8000203c:	9dc18713          	addi	a4,gp,-1572 # 900003ac <secs>
pout():
E:\VMshare\e203\zhengdian_E203\sdk\whetstone\Debug/../application/whets.c:508
    Check = Check + checknum;
80002040:	00040593          	mv	a1,s0
whetstones():
E:\VMshare\e203\zhengdian_E203\sdk\whetstone\Debug/../application/whets.c:452
    pout("N7 assignments   \0", (float)(n7 * 3) * (float)(xtra), 2, e1[2], secs,
80002044:	00072483          	lw	s1,0(a4)
pout():
E:\VMshare\e203\zhengdian_E203\sdk\whetstone\Debug/../application/whets.c:508
    Check = Check + checknum;
80002048:	569020ef          	jal	ra,80004db0 <__addsf3>
E:\VMshare\e203\zhengdian_E203\sdk\whetstone\Debug/../application/whets.c:510
    strcpy(headings[section], title);
8000204c:	080b5883          	lhu	a7,128(s6)
80002050:	082b5803          	lhu	a6,130(s6)
80002054:	084b5683          	lhu	a3,132(s6)
80002058:	086b5303          	lhu	t1,134(s6)
8000205c:	088b5783          	lhu	a5,136(s6)
E:\VMshare\e203\zhengdian_E203\sdk\whetstone\Debug/../application/whets.c:511
    TimeUsed = TimeUsed + time;
80002060:	9ec18913          	addi	s2,gp,-1556 # 900003bc <TimeUsed>
E:\VMshare\e203\zhengdian_E203\sdk\whetstone\Debug/../application/whets.c:510
    strcpy(headings[section], title);
80002064:	078b5d83          	lhu	s11,120(s6)
80002068:	07ab5c83          	lhu	s9,122(s6)
8000206c:	07cb5d03          	lhu	s10,124(s6)
80002070:	07eb5983          	lhu	s3,126(s6)
E:\VMshare\e203\zhengdian_E203\sdk\whetstone\Debug/../application/whets.c:508
    Check = Check + checknum;
80002074:	00050f13          	mv	t5,a0
E:\VMshare\e203\zhengdian_E203\sdk\whetstone\Debug/../application/whets.c:511
    TimeUsed = TimeUsed + time;
80002078:	00092503          	lw	a0,0(s2)
E:\VMshare\e203\zhengdian_E203\sdk\whetstone\Debug/../application/whets.c:510
    strcpy(headings[section], title);
8000207c:	a9c18e93          	addi	t4,gp,-1380 # 9000046c <headings>
E:\VMshare\e203\zhengdian_E203\sdk\whetstone\Debug/../application/whets.c:509
    loop_time[section] = time;
80002080:	b4018f93          	addi	t6,gp,-1216 # 90000510 <loop_time>
E:\VMshare\e203\zhengdian_E203\sdk\whetstone\Debug/../application/whets.c:511
    TimeUsed = TimeUsed + time;
80002084:	00048593          	mv	a1,s1
E:\VMshare\e203\zhengdian_E203\sdk\whetstone\Debug/../application/whets.c:508
    Check = Check + checknum;
80002088:	01eba023          	sw	t5,0(s7)
E:\VMshare\e203\zhengdian_E203\sdk\whetstone\Debug/../application/whets.c:509
    loop_time[section] = time;
8000208c:	009fae23          	sw	s1,28(t6)
E:\VMshare\e203\zhengdian_E203\sdk\whetstone\Debug/../application/whets.c:510
    strcpy(headings[section], title);
80002090:	07be9f23          	sh	s11,126(t4)
80002094:	099e9023          	sh	s9,128(t4)
80002098:	09ae9123          	sh	s10,130(t4)
8000209c:	093e9223          	sh	s3,132(t4)
800020a0:	091e9323          	sh	a7,134(t4)
800020a4:	090e9423          	sh	a6,136(t4)
800020a8:	08de9523          	sh	a3,138(t4)
800020ac:	086e9623          	sh	t1,140(t4)
800020b0:	08fe9723          	sh	a5,142(t4)
E:\VMshare\e203\zhengdian_E203\sdk\whetstone\Debug/../application/whets.c:511
    TimeUsed = TimeUsed + time;
800020b4:	4fd020ef          	jal	ra,80004db0 <__addsf3>
800020b8:	00a92023          	sw	a0,0(s2)
E:\VMshare\e203\zhengdian_E203\sdk\whetstone\Debug/../application/whets.c:512
    if (calibrate == 1)
800020bc:	01412503          	lw	a0,20(sp)
800020c0:	00100593          	li	a1,1
800020c4:	5cb50263          	beq	a0,a1,80002688 <whetstones.constprop.0+0x1864>
E:\VMshare\e203\zhengdian_E203\sdk\whetstone\Debug/../application/whets.c:517
    if (calibrate == 0) {
800020c8:	48050c63          	beqz	a0,80002560 <whetstones.constprop.0+0x173c>
whetstones():
E:\VMshare\e203\zhengdian_E203\sdk\whetstone\Debug/../application/whets.c:457
    start_time();
800020cc:	cd9fe0ef          	jal	ra,80000da4 <start_time>
E:\VMshare\e203\zhengdian_E203\sdk\whetstone\Debug/../application/whets.c:456
    x = 0.75;
800020d0:	0fffea97          	auipc	s5,0xfffe
800020d4:	17caaa83          	lw	s5,380(s5) # 9000024c <_impure_ptr+0x70>
E:\VMshare\e203\zhengdian_E203\sdk\whetstone\Debug/../application/whets.c:459
        for (ix = 0; ix < xtra; ix++) {
800020d8:	00000b93          	li	s7,0
800020dc:	00002c37          	lui	s8,0x2
E:\VMshare\e203\zhengdian_E203\sdk\whetstone\Debug/../application/whets.c:461
                x = sqrt(exp(log(x) / t1));
800020e0:	0fffe417          	auipc	s0,0xfffe
800020e4:	19842403          	lw	s0,408(s0) # 90000278 <_impure_ptr+0x9c>
E:\VMshare\e203\zhengdian_E203\sdk\whetstone\Debug/../application/whets.c:459
        for (ix = 0; ix < xtra; ix++) {
800020e8:	454c0493          	addi	s1,s8,1108 # 2454 <__stack_size+0x1c54>
E:\VMshare\e203\zhengdian_E203\sdk\whetstone\Debug/../application/whets.c:461
                x = sqrt(exp(log(x) / t1));
800020ec:	000a8513          	mv	a0,s5
800020f0:	561000ef          	jal	ra,80002e50 <logf>
800020f4:	00040593          	mv	a1,s0
800020f8:	114030ef          	jal	ra,8000520c <__divsf3>
800020fc:	4b5000ef          	jal	ra,80002db0 <expf>
80002100:	601000ef          	jal	ra,80002f00 <sqrtf>
80002104:	54d000ef          	jal	ra,80002e50 <logf>
80002108:	00040593          	mv	a1,s0
8000210c:	100030ef          	jal	ra,8000520c <__divsf3>
80002110:	4a1000ef          	jal	ra,80002db0 <expf>
80002114:	5ed000ef          	jal	ra,80002f00 <sqrtf>
80002118:	539000ef          	jal	ra,80002e50 <logf>
8000211c:	00040593          	mv	a1,s0
80002120:	0ec030ef          	jal	ra,8000520c <__divsf3>
80002124:	48d000ef          	jal	ra,80002db0 <expf>
80002128:	5d9000ef          	jal	ra,80002f00 <sqrtf>
8000212c:	525000ef          	jal	ra,80002e50 <logf>
80002130:	00040593          	mv	a1,s0
80002134:	0d8030ef          	jal	ra,8000520c <__divsf3>
80002138:	479000ef          	jal	ra,80002db0 <expf>
8000213c:	5c5000ef          	jal	ra,80002f00 <sqrtf>
80002140:	511000ef          	jal	ra,80002e50 <logf>
80002144:	00040593          	mv	a1,s0
80002148:	0c4030ef          	jal	ra,8000520c <__divsf3>
8000214c:	465000ef          	jal	ra,80002db0 <expf>
80002150:	5b1000ef          	jal	ra,80002f00 <sqrtf>
80002154:	4fd000ef          	jal	ra,80002e50 <logf>
80002158:	00040593          	mv	a1,s0
8000215c:	0b0030ef          	jal	ra,8000520c <__divsf3>
80002160:	451000ef          	jal	ra,80002db0 <expf>
80002164:	59d000ef          	jal	ra,80002f00 <sqrtf>
80002168:	4e9000ef          	jal	ra,80002e50 <logf>
8000216c:	00040593          	mv	a1,s0
80002170:	09c030ef          	jal	ra,8000520c <__divsf3>
80002174:	43d000ef          	jal	ra,80002db0 <expf>
80002178:	589000ef          	jal	ra,80002f00 <sqrtf>
8000217c:	4d5000ef          	jal	ra,80002e50 <logf>
80002180:	00040593          	mv	a1,s0
80002184:	088030ef          	jal	ra,8000520c <__divsf3>
80002188:	429000ef          	jal	ra,80002db0 <expf>
8000218c:	575000ef          	jal	ra,80002f00 <sqrtf>
80002190:	4c1000ef          	jal	ra,80002e50 <logf>
80002194:	00040593          	mv	a1,s0
80002198:	074030ef          	jal	ra,8000520c <__divsf3>
8000219c:	415000ef          	jal	ra,80002db0 <expf>
800021a0:	561000ef          	jal	ra,80002f00 <sqrtf>
800021a4:	4ad000ef          	jal	ra,80002e50 <logf>
800021a8:	00040593          	mv	a1,s0
800021ac:	060030ef          	jal	ra,8000520c <__divsf3>
800021b0:	401000ef          	jal	ra,80002db0 <expf>
800021b4:	54d000ef          	jal	ra,80002f00 <sqrtf>
E:\VMshare\e203\zhengdian_E203\sdk\whetstone\Debug/../application/whets.c:460
            for (i = 0; i < n8; i++) {
800021b8:	ff648493          	addi	s1,s1,-10
E:\VMshare\e203\zhengdian_E203\sdk\whetstone\Debug/../application/whets.c:461
                x = sqrt(exp(log(x) / t1));
800021bc:	00050a93          	mv	s5,a0
E:\VMshare\e203\zhengdian_E203\sdk\whetstone\Debug/../application/whets.c:460
            for (i = 0; i < n8; i++) {
800021c0:	f20496e3          	bnez	s1,800020ec <whetstones.constprop.0+0x12c8>
E:\VMshare\e203\zhengdian_E203\sdk\whetstone\Debug/../application/whets.c:459
        for (ix = 0; ix < xtra; ix++) {
800021c4:	001b8b93          	addi	s7,s7,1
800021c8:	f34bc0e3          	blt	s7,s4,800020e8 <whetstones.constprop.0+0x12c4>
E:\VMshare\e203\zhengdian_E203\sdk\whetstone\Debug/../application/whets.c:465
    end_time();
800021cc:	c15fe0ef          	jal	ra,80000de0 <end_time>
pout():
E:\VMshare\e203\zhengdian_E203\sdk\whetstone\Debug/../application/whets.c:508
    Check = Check + checknum;
800021d0:	9e818d93          	addi	s11,gp,-1560 # 900003b8 <Check>
800021d4:	000da503          	lw	a0,0(s11)
whetstones():
E:\VMshare\e203\zhengdian_E203\sdk\whetstone\Debug/../application/whets.c:466
    pout("N8 exp,sqrt etc. \0", (float)(n8 * 4) * (float)(xtra), 2, x, secs,
800021d8:	9dc18813          	addi	a6,gp,-1572 # 900003ac <secs>
pout():
E:\VMshare\e203\zhengdian_E203\sdk\whetstone\Debug/../application/whets.c:508
    Check = Check + checknum;
800021dc:	000a8593          	mv	a1,s5
whetstones():
E:\VMshare\e203\zhengdian_E203\sdk\whetstone\Debug/../application/whets.c:466
    pout("N8 exp,sqrt etc. \0", (float)(n8 * 4) * (float)(xtra), 2, x, secs,
800021e0:	00082c83          	lw	s9,0(a6)
pout():
E:\VMshare\e203\zhengdian_E203\sdk\whetstone\Debug/../application/whets.c:508
    Check = Check + checknum;
800021e4:	3cd020ef          	jal	ra,80004db0 <__addsf3>
E:\VMshare\e203\zhengdian_E203\sdk\whetstone\Debug/../application/whets.c:510
    strcpy(headings[section], title);
800021e8:	064b2f83          	lw	t6,100(s6)
800021ec:	068b2e83          	lw	t4,104(s6)
800021f0:	06cb2683          	lw	a3,108(s6)
800021f4:	070b2703          	lw	a4,112(s6)
800021f8:	074b5783          	lhu	a5,116(s6)
E:\VMshare\e203\zhengdian_E203\sdk\whetstone\Debug/../application/whets.c:511
    TimeUsed = TimeUsed + time;
800021fc:	9ec18a13          	addi	s4,gp,-1556 # 900003bc <TimeUsed>
E:\VMshare\e203\zhengdian_E203\sdk\whetstone\Debug/../application/whets.c:508
    Check = Check + checknum;
80002200:	00050313          	mv	t1,a0
E:\VMshare\e203\zhengdian_E203\sdk\whetstone\Debug/../application/whets.c:511
    TimeUsed = TimeUsed + time;
80002204:	000a2503          	lw	a0,0(s4)
E:\VMshare\e203\zhengdian_E203\sdk\whetstone\Debug/../application/whets.c:510
    strcpy(headings[section], title);
80002208:	a9c18293          	addi	t0,gp,-1380 # 9000046c <headings>
E:\VMshare\e203\zhengdian_E203\sdk\whetstone\Debug/../application/whets.c:509
    loop_time[section] = time;
8000220c:	b4018e13          	addi	t3,gp,-1216 # 90000510 <loop_time>
E:\VMshare\e203\zhengdian_E203\sdk\whetstone\Debug/../application/whets.c:511
    TimeUsed = TimeUsed + time;
80002210:	000c8593          	mv	a1,s9
E:\VMshare\e203\zhengdian_E203\sdk\whetstone\Debug/../application/whets.c:508
    Check = Check + checknum;
80002214:	006da023          	sw	t1,0(s11)
E:\VMshare\e203\zhengdian_E203\sdk\whetstone\Debug/../application/whets.c:509
    loop_time[section] = time;
80002218:	039e2023          	sw	s9,32(t3)
E:\VMshare\e203\zhengdian_E203\sdk\whetstone\Debug/../application/whets.c:510
    strcpy(headings[section], title);
8000221c:	09f2a823          	sw	t6,144(t0)
80002220:	09d2aa23          	sw	t4,148(t0)
80002224:	08d2ac23          	sw	a3,152(t0)
80002228:	08e2ae23          	sw	a4,156(t0)
8000222c:	0af29023          	sh	a5,160(t0)
E:\VMshare\e203\zhengdian_E203\sdk\whetstone\Debug/../application/whets.c:511
    TimeUsed = TimeUsed + time;
80002230:	381020ef          	jal	ra,80004db0 <__addsf3>
80002234:	00aa2023          	sw	a0,0(s4)
E:\VMshare\e203\zhengdian_E203\sdk\whetstone\Debug/../application/whets.c:512
    if (calibrate == 1)
80002238:	01412503          	lw	a0,20(sp)
8000223c:	00100593          	li	a1,1
80002240:	0cb50c63          	beq	a0,a1,80002318 <whetstones.constprop.0+0x14f4>
E:\VMshare\e203\zhengdian_E203\sdk\whetstone\Debug/../application/whets.c:517
    if (calibrate == 0) {
80002244:	0c051e63          	bnez	a0,80002320 <whetstones.constprop.0+0x14fc>
whetstones():
E:\VMshare\e203\zhengdian_E203\sdk\whetstone\Debug/../application/whets.c:466
    pout("N8 exp,sqrt etc. \0", (float)(n8 * 4) * (float)(xtra), 2, x, secs,
80002248:	01812503          	lw	a0,24(sp)
8000224c:	0fffe597          	auipc	a1,0xfffe
80002250:	0385a583          	lw	a1,56(a1) # 90000284 <_impure_ptr+0xa8>
80002254:	b6418a93          	addi	s5,gp,-1180 # 90000534 <results>
80002258:	4bc030ef          	jal	ra,80005714 <__mulsf3>
8000225c:	00050493          	mv	s1,a0
pout():
E:\VMshare\e203\zhengdian_E203\sdk\whetstone\Debug/../application/whets.c:518
        printf("%s %20.17f    ", headings[section], results[section]);
80002260:	020aa503          	lw	a0,32(s5)
80002264:	7f5030ef          	jal	ra,80006258 <__extendsfdf2>
80002268:	00050613          	mv	a2,a0
8000226c:	00058693          	mv	a3,a1
80002270:	0000b517          	auipc	a0,0xb
80002274:	29850513          	addi	a0,a0,664 # 8000d508 <__trunctfdf2+0x42c>
80002278:	b2c18593          	addi	a1,gp,-1236 # 900004fc <headings+0x90>
8000227c:	180050ef          	jal	ra,800073fc <iprintf>
E:\VMshare\e203\zhengdian_E203\sdk\whetstone\Debug/../application/whets.c:531
            if (time > 0) {
80002280:	00000593          	li	a1,0
80002284:	000c8513          	mv	a0,s9
80002288:	324030ef          	jal	ra,800055ac <__gesf2>
8000228c:	4ea05063          	blez	a0,8000276c <whetstones.constprop.0+0x1948>
E:\VMshare\e203\zhengdian_E203\sdk\whetstone\Debug/../application/whets.c:532
                mops = ops / (1000000L * time);
80002290:	0fffe597          	auipc	a1,0xfffe
80002294:	fc85a583          	lw	a1,-56(a1) # 90000258 <_impure_ptr+0x7c>
80002298:	000c8513          	mv	a0,s9
8000229c:	478030ef          	jal	ra,80005714 <__mulsf3>
800022a0:	00050593          	mv	a1,a0
800022a4:	00048513          	mv	a0,s1
800022a8:	765020ef          	jal	ra,8000520c <__divsf3>
E:\VMshare\e203\zhengdian_E203\sdk\whetstone\Debug/../application/whets.c:538
            printf("           %9.3f%9.3f\n", loop_mops[section],
800022ac:	7ad030ef          	jal	ra,80006258 <__extendsfdf2>
800022b0:	00050a93          	mv	s5,a0
800022b4:	00058c93          	mv	s9,a1
800022b8:	b4018093          	addi	ra,gp,-1216 # 90000510 <loop_time>
800022bc:	0200a503          	lw	a0,32(ra)
800022c0:	799030ef          	jal	ra,80006258 <__extendsfdf2>
whetstones():
E:\VMshare\e203\zhengdian_E203\sdk\whetstone\Debug/../application/whets.c:470
}
800022c4:	05812403          	lw	s0,88(sp)
800022c8:	05c12083          	lw	ra,92(sp)
800022cc:	05412483          	lw	s1,84(sp)
800022d0:	05012903          	lw	s2,80(sp)
800022d4:	04c12983          	lw	s3,76(sp)
800022d8:	04812a03          	lw	s4,72(sp)
800022dc:	04012b03          	lw	s6,64(sp)
800022e0:	03c12b83          	lw	s7,60(sp)
800022e4:	03812c03          	lw	s8,56(sp)
800022e8:	03012d03          	lw	s10,48(sp)
800022ec:	02c12d83          	lw	s11,44(sp)
pout():
E:\VMshare\e203\zhengdian_E203\sdk\whetstone\Debug/../application/whets.c:538
            printf("           %9.3f%9.3f\n", loop_mops[section],
800022f0:	000a8613          	mv	a2,s5
800022f4:	000c8693          	mv	a3,s9
whetstones():
E:\VMshare\e203\zhengdian_E203\sdk\whetstone\Debug/../application/whets.c:470
}
800022f8:	04412a83          	lw	s5,68(sp)
800022fc:	03412c83          	lw	s9,52(sp)
pout():
E:\VMshare\e203\zhengdian_E203\sdk\whetstone\Debug/../application/whets.c:538
            printf("           %9.3f%9.3f\n", loop_mops[section],
80002300:	00050713          	mv	a4,a0
80002304:	00058793          	mv	a5,a1
80002308:	0000b517          	auipc	a0,0xb
8000230c:	22850513          	addi	a0,a0,552 # 8000d530 <__trunctfdf2+0x454>
whetstones():
E:\VMshare\e203\zhengdian_E203\sdk\whetstone\Debug/../application/whets.c:470
}
80002310:	06010113          	addi	sp,sp,96
pout():
E:\VMshare\e203\zhengdian_E203\sdk\whetstone\Debug/../application/whets.c:538
            printf("           %9.3f%9.3f\n", loop_mops[section],
80002314:	0e80506f          	j	800073fc <iprintf>
80002318:	b6418c93          	addi	s9,gp,-1180 # 90000534 <results>
E:\VMshare\e203\zhengdian_E203\sdk\whetstone\Debug/../application/whets.c:515
        results[section] = checknum;
8000231c:	035ca023          	sw	s5,32(s9)
whetstones():
E:\VMshare\e203\zhengdian_E203\sdk\whetstone\Debug/../application/whets.c:470
}
80002320:	05c12083          	lw	ra,92(sp)
80002324:	05812403          	lw	s0,88(sp)
80002328:	05412483          	lw	s1,84(sp)
8000232c:	05012903          	lw	s2,80(sp)
80002330:	04c12983          	lw	s3,76(sp)
80002334:	04812a03          	lw	s4,72(sp)
80002338:	04412a83          	lw	s5,68(sp)
8000233c:	04012b03          	lw	s6,64(sp)
80002340:	03c12b83          	lw	s7,60(sp)
80002344:	03812c03          	lw	s8,56(sp)
80002348:	03412c83          	lw	s9,52(sp)
8000234c:	03012d03          	lw	s10,48(sp)
80002350:	02c12d83          	lw	s11,44(sp)
80002354:	06010113          	addi	sp,sp,96
80002358:	00008067          	ret
pout():
E:\VMshare\e203\zhengdian_E203\sdk\whetstone\Debug/../application/whets.c:515
        results[section] = checknum;
8000235c:	01c12683          	lw	a3,28(sp)
80002360:	b6d1a823          	sw	a3,-1168(gp) # 90000540 <results+0xc>
E:\VMshare\e203\zhengdian_E203\sdk\whetstone\Debug/../application/whets.c:517
    if (calibrate == 0) {
80002364:	bccff06f          	j	80001730 <whetstones.constprop.0+0x90c>
E:\VMshare\e203\zhengdian_E203\sdk\whetstone\Debug/../application/whets.c:515
        results[section] = checknum;
80002368:	b691a623          	sw	s1,-1172(gp) # 9000053c <results+0x8>
E:\VMshare\e203\zhengdian_E203\sdk\whetstone\Debug/../application/whets.c:517
    if (calibrate == 0) {
8000236c:	a84ff06f          	j	800015f0 <whetstones.constprop.0+0x7cc>
E:\VMshare\e203\zhengdian_E203\sdk\whetstone\Debug/../application/whets.c:515
        results[section] = checknum;
80002370:	b691a423          	sw	s1,-1176(gp) # 90000538 <results+0x4>
E:\VMshare\e203\zhengdian_E203\sdk\whetstone\Debug/../application/whets.c:517
    if (calibrate == 0) {
80002374:	d65fe06f          	j	800010d8 <whetstones.constprop.0+0x2b4>
E:\VMshare\e203\zhengdian_E203\sdk\whetstone\Debug/../application/whets.c:515
        results[section] = checknum;
80002378:	b681ac23          	sw	s0,-1160(gp) # 90000548 <results+0x14>
whetstones():
E:\VMshare\e203\zhengdian_E203\sdk\whetstone\Debug/../application/whets.c:424
    start_time();
8000237c:	a29fe0ef          	jal	ra,80000da4 <start_time>
E:\VMshare\e203\zhengdian_E203\sdk\whetstone\Debug/../application/whets.c:426
        for (ix = 0; ix < xtra; ix++) {
80002380:	a9dff06f          	j	80001e1c <whetstones.constprop.0+0xff8>
pout():
E:\VMshare\e203\zhengdian_E203\sdk\whetstone\Debug/../application/whets.c:515
        results[section] = checknum;
80002384:	b681aa23          	sw	s0,-1164(gp) # 90000544 <results+0x10>
whetstones():
E:\VMshare\e203\zhengdian_E203\sdk\whetstone\Debug/../application/whets.c:402
    start_time();
80002388:	a1dfe0ef          	jal	ra,80000da4 <start_time>
E:\VMshare\e203\zhengdian_E203\sdk\whetstone\Debug/../application/whets.c:404
        for (ix = 0; ix < xtra; ix++) {
8000238c:	e3404063          	bgtz	s4,800019ac <whetstones.constprop.0+0xb88>
E:\VMshare\e203\zhengdian_E203\sdk\whetstone\Debug/../application/whets.c:415
    end_time();
80002390:	a51fe0ef          	jal	ra,80000de0 <end_time>
pout():
E:\VMshare\e203\zhengdian_E203\sdk\whetstone\Debug/../application/whets.c:508
    Check = Check + checknum;
80002394:	9e818b93          	addi	s7,gp,-1560 # 900003b8 <Check>
80002398:	000ba503          	lw	a0,0(s7)
whetstones():
E:\VMshare\e203\zhengdian_E203\sdk\whetstone\Debug/../application/whets.c:416
    pout("N5 sin,cos etc.  \0", (float)(n5 * 26) * (float)(xtra), 2, y, secs,
8000239c:	9dc18693          	addi	a3,gp,-1572 # 900003ac <secs>
pout():
E:\VMshare\e203\zhengdian_E203\sdk\whetstone\Debug/../application/whets.c:508
    Check = Check + checknum;
800023a0:	0fffe597          	auipc	a1,0xfffe
800023a4:	ebc5a583          	lw	a1,-324(a1) # 9000025c <_impure_ptr+0x80>
whetstones():
E:\VMshare\e203\zhengdian_E203\sdk\whetstone\Debug/../application/whets.c:416
    pout("N5 sin,cos etc.  \0", (float)(n5 * 26) * (float)(xtra), 2, y, secs,
800023a8:	0006a483          	lw	s1,0(a3)
pout():
E:\VMshare\e203\zhengdian_E203\sdk\whetstone\Debug/../application/whets.c:508
    Check = Check + checknum;
800023ac:	205020ef          	jal	ra,80004db0 <__addsf3>
E:\VMshare\e203\zhengdian_E203\sdk\whetstone\Debug/../application/whets.c:510
    strcpy(headings[section], title);
800023b0:	090b5383          	lhu	t2,144(s6)
800023b4:	094b5803          	lhu	a6,148(s6)
800023b8:	096b5303          	lhu	t1,150(s6)
800023bc:	098b5f83          	lhu	t6,152(s6)
800023c0:	09ab5603          	lhu	a2,154(s6)
800023c4:	09cb5783          	lhu	a5,156(s6)
E:\VMshare\e203\zhengdian_E203\sdk\whetstone\Debug/../application/whets.c:511
    TimeUsed = TimeUsed + time;
800023c8:	9ec18413          	addi	s0,gp,-1556 # 900003bc <TimeUsed>
E:\VMshare\e203\zhengdian_E203\sdk\whetstone\Debug/../application/whets.c:510
    strcpy(headings[section], title);
800023cc:	08cb5d83          	lhu	s11,140(s6)
800023d0:	08eb5903          	lhu	s2,142(s6)
800023d4:	092b5983          	lhu	s3,146(s6)
E:\VMshare\e203\zhengdian_E203\sdk\whetstone\Debug/../application/whets.c:508
    Check = Check + checknum;
800023d8:	00050a93          	mv	s5,a0
E:\VMshare\e203\zhengdian_E203\sdk\whetstone\Debug/../application/whets.c:511
    TimeUsed = TimeUsed + time;
800023dc:	00042503          	lw	a0,0(s0)
E:\VMshare\e203\zhengdian_E203\sdk\whetstone\Debug/../application/whets.c:510
    strcpy(headings[section], title);
800023e0:	a9c18e13          	addi	t3,gp,-1380 # 9000046c <headings>
E:\VMshare\e203\zhengdian_E203\sdk\whetstone\Debug/../application/whets.c:509
    loop_time[section] = time;
800023e4:	b4018e93          	addi	t4,gp,-1216 # 90000510 <loop_time>
E:\VMshare\e203\zhengdian_E203\sdk\whetstone\Debug/../application/whets.c:511
    TimeUsed = TimeUsed + time;
800023e8:	00048593          	mv	a1,s1
E:\VMshare\e203\zhengdian_E203\sdk\whetstone\Debug/../application/whets.c:508
    Check = Check + checknum;
800023ec:	015ba023          	sw	s5,0(s7)
E:\VMshare\e203\zhengdian_E203\sdk\whetstone\Debug/../application/whets.c:509
    loop_time[section] = time;
800023f0:	009eaa23          	sw	s1,20(t4)
E:\VMshare\e203\zhengdian_E203\sdk\whetstone\Debug/../application/whets.c:510
    strcpy(headings[section], title);
800023f4:	05be1d23          	sh	s11,90(t3)
800023f8:	052e1e23          	sh	s2,92(t3)
800023fc:	047e1f23          	sh	t2,94(t3)
80002400:	073e1023          	sh	s3,96(t3)
80002404:	070e1123          	sh	a6,98(t3)
80002408:	066e1223          	sh	t1,100(t3)
8000240c:	07fe1323          	sh	t6,102(t3)
80002410:	06ce1423          	sh	a2,104(t3)
80002414:	06fe1523          	sh	a5,106(t3)
E:\VMshare\e203\zhengdian_E203\sdk\whetstone\Debug/../application/whets.c:511
    TimeUsed = TimeUsed + time;
80002418:	199020ef          	jal	ra,80004db0 <__addsf3>
E:\VMshare\e203\zhengdian_E203\sdk\whetstone\Debug/../application/whets.c:512
    if (calibrate == 1)
8000241c:	01412f03          	lw	t5,20(sp)
E:\VMshare\e203\zhengdian_E203\sdk\whetstone\Debug/../application/whets.c:511
    TimeUsed = TimeUsed + time;
80002420:	00a42023          	sw	a0,0(s0)
E:\VMshare\e203\zhengdian_E203\sdk\whetstone\Debug/../application/whets.c:512
    if (calibrate == 1)
80002424:	00100293          	li	t0,1
80002428:	8c5f18e3          	bne	t5,t0,80001cf8 <whetstones.constprop.0+0xed4>
E:\VMshare\e203\zhengdian_E203\sdk\whetstone\Debug/../application/whets.c:515
        results[section] = checknum;
8000242c:	0fffe097          	auipc	ra,0xfffe
80002430:	e300a083          	lw	ra,-464(ra) # 9000025c <_impure_ptr+0x80>
80002434:	b6418c93          	addi	s9,gp,-1180 # 90000534 <results>
80002438:	001caa23          	sw	ra,20(s9)
E:\VMshare\e203\zhengdian_E203\sdk\whetstone\Debug/../application/whets.c:508
    Check = Check + checknum;
8000243c:	9e818c13          	addi	s8,gp,-1560 # 900003b8 <Check>
whetstones():
E:\VMshare\e203\zhengdian_E203\sdk\whetstone\Debug/../application/whets.c:424
    start_time();
80002440:	965fe0ef          	jal	ra,80000da4 <start_time>
E:\VMshare\e203\zhengdian_E203\sdk\whetstone\Debug/../application/whets.c:432
    end_time();
80002444:	99dfe0ef          	jal	ra,80000de0 <end_time>
pout():
E:\VMshare\e203\zhengdian_E203\sdk\whetstone\Debug/../application/whets.c:508
    Check = Check + checknum;
80002448:	000c2503          	lw	a0,0(s8)
8000244c:	0fffe597          	auipc	a1,0xfffe
80002450:	dec5a583          	lw	a1,-532(a1) # 90000238 <_impure_ptr+0x5c>
whetstones():
E:\VMshare\e203\zhengdian_E203\sdk\whetstone\Debug/../application/whets.c:433
    pout("N6 floating point\0", (float)(n6 * 6) * (float)(xtra), 1, z, secs,
80002454:	9dc18493          	addi	s1,gp,-1572 # 900003ac <secs>
pout():
E:\VMshare\e203\zhengdian_E203\sdk\whetstone\Debug/../application/whets.c:508
    Check = Check + checknum;
80002458:	159020ef          	jal	ra,80004db0 <__addsf3>
whetstones():
E:\VMshare\e203\zhengdian_E203\sdk\whetstone\Debug/../application/whets.c:433
    pout("N6 floating point\0", (float)(n6 * 6) * (float)(xtra), 1, z, secs,
8000245c:	0004ad03          	lw	s10,0(s1)
pout():
E:\VMshare\e203\zhengdian_E203\sdk\whetstone\Debug/../application/whets.c:510
    strcpy(headings[section], title);
80002460:	058b2683          	lw	a3,88(s6)
80002464:	05cb2703          	lw	a4,92(s6)
E:\VMshare\e203\zhengdian_E203\sdk\whetstone\Debug/../application/whets.c:511
    TimeUsed = TimeUsed + time;
80002468:	9ec18a93          	addi	s5,gp,-1556 # 900003bc <TimeUsed>
E:\VMshare\e203\zhengdian_E203\sdk\whetstone\Debug/../application/whets.c:510
    strcpy(headings[section], title);
8000246c:	050b2b83          	lw	s7,80(s6)
80002470:	054b2d83          	lw	s11,84(s6)
80002474:	060b5403          	lhu	s0,96(s6)
E:\VMshare\e203\zhengdian_E203\sdk\whetstone\Debug/../application/whets.c:508
    Check = Check + checknum;
80002478:	00050893          	mv	a7,a0
E:\VMshare\e203\zhengdian_E203\sdk\whetstone\Debug/../application/whets.c:511
    TimeUsed = TimeUsed + time;
8000247c:	000aa503          	lw	a0,0(s5)
E:\VMshare\e203\zhengdian_E203\sdk\whetstone\Debug/../application/whets.c:510
    strcpy(headings[section], title);
80002480:	a9c18393          	addi	t2,gp,-1380 # 9000046c <headings>
E:\VMshare\e203\zhengdian_E203\sdk\whetstone\Debug/../application/whets.c:509
    loop_time[section] = time;
80002484:	b4018913          	addi	s2,gp,-1216 # 90000510 <loop_time>
E:\VMshare\e203\zhengdian_E203\sdk\whetstone\Debug/../application/whets.c:508
    Check = Check + checknum;
80002488:	011c2023          	sw	a7,0(s8)
E:\VMshare\e203\zhengdian_E203\sdk\whetstone\Debug/../application/whets.c:511
    TimeUsed = TimeUsed + time;
8000248c:	000d0593          	mv	a1,s10
E:\VMshare\e203\zhengdian_E203\sdk\whetstone\Debug/../application/whets.c:509
    loop_time[section] = time;
80002490:	01a92c23          	sw	s10,24(s2)
E:\VMshare\e203\zhengdian_E203\sdk\whetstone\Debug/../application/whets.c:510
    strcpy(headings[section], title);
80002494:	0773a623          	sw	s7,108(t2)
80002498:	07b3a823          	sw	s11,112(t2)
8000249c:	06d3aa23          	sw	a3,116(t2)
800024a0:	06e3ac23          	sw	a4,120(t2)
800024a4:	06839e23          	sh	s0,124(t2)
E:\VMshare\e203\zhengdian_E203\sdk\whetstone\Debug/../application/whets.c:511
    TimeUsed = TimeUsed + time;
800024a8:	109020ef          	jal	ra,80004db0 <__addsf3>
whetstones():
E:\VMshare\e203\zhengdian_E203\sdk\whetstone\Debug/../application/whets.c:423
    z = 1.0;
800024ac:	01c12c03          	lw	s8,28(sp)
pout():
E:\VMshare\e203\zhengdian_E203\sdk\whetstone\Debug/../application/whets.c:511
    TimeUsed = TimeUsed + time;
800024b0:	00aaa023          	sw	a0,0(s5)
E:\VMshare\e203\zhengdian_E203\sdk\whetstone\Debug/../application/whets.c:515
        results[section] = checknum;
800024b4:	018cac23          	sw	s8,24(s9)
whetstones():
E:\VMshare\e203\zhengdian_E203\sdk\whetstone\Debug/../application/whets.c:443
    start_time();
800024b8:	8edfe0ef          	jal	ra,80000da4 <start_time>
E:\VMshare\e203\zhengdian_E203\sdk\whetstone\Debug/../application/whets.c:445
        for (ix = 0; ix < xtra; ix++) {
800024bc:	b3404ae3          	bgtz	s4,80001ff0 <whetstones.constprop.0+0x11cc>
E:\VMshare\e203\zhengdian_E203\sdk\whetstone\Debug/../application/whets.c:451
    end_time();
800024c0:	921fe0ef          	jal	ra,80000de0 <end_time>
pout():
E:\VMshare\e203\zhengdian_E203\sdk\whetstone\Debug/../application/whets.c:508
    Check = Check + checknum;
800024c4:	9e818b93          	addi	s7,gp,-1560 # 900003b8 <Check>
800024c8:	000ba503          	lw	a0,0(s7)
whetstones():
E:\VMshare\e203\zhengdian_E203\sdk\whetstone\Debug/../application/whets.c:452
    pout("N7 assignments   \0", (float)(n7 * 3) * (float)(xtra), 2, e1[2], secs,
800024cc:	9dc18793          	addi	a5,gp,-1572 # 900003ac <secs>
pout():
E:\VMshare\e203\zhengdian_E203\sdk\whetstone\Debug/../application/whets.c:508
    Check = Check + checknum;
800024d0:	0fffe597          	auipc	a1,0xfffe
800024d4:	d745a583          	lw	a1,-652(a1) # 90000244 <_impure_ptr+0x68>
whetstones():
E:\VMshare\e203\zhengdian_E203\sdk\whetstone\Debug/../application/whets.c:452
    pout("N7 assignments   \0", (float)(n7 * 3) * (float)(xtra), 2, e1[2], secs,
800024d8:	0007a483          	lw	s1,0(a5)
pout():
E:\VMshare\e203\zhengdian_E203\sdk\whetstone\Debug/../application/whets.c:508
    Check = Check + checknum;
800024dc:	0d5020ef          	jal	ra,80004db0 <__addsf3>
E:\VMshare\e203\zhengdian_E203\sdk\whetstone\Debug/../application/whets.c:510
    strcpy(headings[section], title);
800024e0:	07eb5883          	lhu	a7,126(s6)
800024e4:	082b5803          	lhu	a6,130(s6)
800024e8:	084b5303          	lhu	t1,132(s6)
800024ec:	086b5f83          	lhu	t6,134(s6)
800024f0:	088b5e83          	lhu	t4,136(s6)
E:\VMshare\e203\zhengdian_E203\sdk\whetstone\Debug/../application/whets.c:511
    TimeUsed = TimeUsed + time;
800024f4:	9ec18913          	addi	s2,gp,-1556 # 900003bc <TimeUsed>
E:\VMshare\e203\zhengdian_E203\sdk\whetstone\Debug/../application/whets.c:510
    strcpy(headings[section], title);
800024f8:	078b5d83          	lhu	s11,120(s6)
800024fc:	07ab5c83          	lhu	s9,122(s6)
80002500:	07cb5983          	lhu	s3,124(s6)
80002504:	080b5d03          	lhu	s10,128(s6)
E:\VMshare\e203\zhengdian_E203\sdk\whetstone\Debug/../application/whets.c:508
    Check = Check + checknum;
80002508:	00050f13          	mv	t5,a0
E:\VMshare\e203\zhengdian_E203\sdk\whetstone\Debug/../application/whets.c:511
    TimeUsed = TimeUsed + time;
8000250c:	00092503          	lw	a0,0(s2)
E:\VMshare\e203\zhengdian_E203\sdk\whetstone\Debug/../application/whets.c:510
    strcpy(headings[section], title);
80002510:	a9c18293          	addi	t0,gp,-1380 # 9000046c <headings>
E:\VMshare\e203\zhengdian_E203\sdk\whetstone\Debug/../application/whets.c:509
    loop_time[section] = time;
80002514:	b4018e13          	addi	t3,gp,-1216 # 90000510 <loop_time>
E:\VMshare\e203\zhengdian_E203\sdk\whetstone\Debug/../application/whets.c:511
    TimeUsed = TimeUsed + time;
80002518:	00048593          	mv	a1,s1
E:\VMshare\e203\zhengdian_E203\sdk\whetstone\Debug/../application/whets.c:508
    Check = Check + checknum;
8000251c:	01eba023          	sw	t5,0(s7)
E:\VMshare\e203\zhengdian_E203\sdk\whetstone\Debug/../application/whets.c:509
    loop_time[section] = time;
80002520:	009e2e23          	sw	s1,28(t3)
E:\VMshare\e203\zhengdian_E203\sdk\whetstone\Debug/../application/whets.c:510
    strcpy(headings[section], title);
80002524:	07b29f23          	sh	s11,126(t0)
80002528:	09929023          	sh	s9,128(t0)
8000252c:	09329123          	sh	s3,130(t0)
80002530:	09129223          	sh	a7,132(t0)
80002534:	09a29323          	sh	s10,134(t0)
80002538:	09029423          	sh	a6,136(t0)
8000253c:	08629523          	sh	t1,138(t0)
80002540:	09f29623          	sh	t6,140(t0)
80002544:	09d29723          	sh	t4,142(t0)
E:\VMshare\e203\zhengdian_E203\sdk\whetstone\Debug/../application/whets.c:511
    TimeUsed = TimeUsed + time;
80002548:	069020ef          	jal	ra,80004db0 <__addsf3>
E:\VMshare\e203\zhengdian_E203\sdk\whetstone\Debug/../application/whets.c:512
    if (calibrate == 1)
8000254c:	01412603          	lw	a2,20(sp)
E:\VMshare\e203\zhengdian_E203\sdk\whetstone\Debug/../application/whets.c:511
    TimeUsed = TimeUsed + time;
80002550:	00a92023          	sw	a0,0(s2)
E:\VMshare\e203\zhengdian_E203\sdk\whetstone\Debug/../application/whets.c:512
    if (calibrate == 1)
80002554:	00100393          	li	t2,1
80002558:	2c760863          	beq	a2,t2,80002828 <whetstones.constprop.0+0x1a04>
E:\VMshare\e203\zhengdian_E203\sdk\whetstone\Debug/../application/whets.c:517
    if (calibrate == 0) {
8000255c:	24061a63          	bnez	a2,800027b0 <whetstones.constprop.0+0x198c>
E:\VMshare\e203\zhengdian_E203\sdk\whetstone\Debug/../application/whets.c:518
        printf("%s %20.17f    ", headings[section], results[section]);
80002560:	b6418a93          	addi	s5,gp,-1180 # 90000534 <results>
80002564:	01caa503          	lw	a0,28(s5)
80002568:	4f1030ef          	jal	ra,80006258 <__extendsfdf2>
8000256c:	00050613          	mv	a2,a0
80002570:	00058693          	mv	a3,a1
80002574:	0000b517          	auipc	a0,0xb
80002578:	f9450513          	addi	a0,a0,-108 # 8000d508 <__trunctfdf2+0x42c>
8000257c:	b1a18593          	addi	a1,gp,-1254 # 900004ea <headings+0x7e>
80002580:	67d040ef          	jal	ra,800073fc <iprintf>
E:\VMshare\e203\zhengdian_E203\sdk\whetstone\Debug/../application/whets.c:531
            if (time > 0) {
80002584:	00000593          	li	a1,0
80002588:	00048513          	mv	a0,s1
8000258c:	020030ef          	jal	ra,800055ac <__gesf2>
80002590:	1ca05263          	blez	a0,80002754 <whetstones.constprop.0+0x1930>
whetstones():
E:\VMshare\e203\zhengdian_E203\sdk\whetstone\Debug/../application/whets.c:452
    pout("N7 assignments   \0", (float)(n7 * 3) * (float)(xtra), 2, e1[2], secs,
80002594:	01812503          	lw	a0,24(sp)
80002598:	0fffe597          	auipc	a1,0xfffe
8000259c:	ce85a583          	lw	a1,-792(a1) # 90000280 <_impure_ptr+0xa4>
800025a0:	174030ef          	jal	ra,80005714 <__mulsf3>
800025a4:	00050b93          	mv	s7,a0
pout():
E:\VMshare\e203\zhengdian_E203\sdk\whetstone\Debug/../application/whets.c:532
                mops = ops / (1000000L * time);
800025a8:	0fffe597          	auipc	a1,0xfffe
800025ac:	cb05a583          	lw	a1,-848(a1) # 90000258 <_impure_ptr+0x7c>
800025b0:	00048513          	mv	a0,s1
800025b4:	160030ef          	jal	ra,80005714 <__mulsf3>
800025b8:	00050593          	mv	a1,a0
800025bc:	000b8513          	mv	a0,s7
800025c0:	44d020ef          	jal	ra,8000520c <__divsf3>
E:\VMshare\e203\zhengdian_E203\sdk\whetstone\Debug/../application/whets.c:538
            printf("           %9.3f%9.3f\n", loop_mops[section],
800025c4:	495030ef          	jal	ra,80006258 <__extendsfdf2>
800025c8:	00050c13          	mv	s8,a0
800025cc:	00058413          	mv	s0,a1
800025d0:	b4018e13          	addi	t3,gp,-1216 # 90000510 <loop_time>
800025d4:	01ce2503          	lw	a0,28(t3)
800025d8:	481030ef          	jal	ra,80006258 <__extendsfdf2>
800025dc:	00050713          	mv	a4,a0
800025e0:	00058793          	mv	a5,a1
800025e4:	000c0613          	mv	a2,s8
800025e8:	00040693          	mv	a3,s0
800025ec:	0000b517          	auipc	a0,0xb
800025f0:	f4450513          	addi	a0,a0,-188 # 8000d530 <__trunctfdf2+0x454>
800025f4:	609040ef          	jal	ra,800073fc <iprintf>
whetstones():
E:\VMshare\e203\zhengdian_E203\sdk\whetstone\Debug/../application/whets.c:457
    start_time();
800025f8:	facfe0ef          	jal	ra,80000da4 <start_time>
E:\VMshare\e203\zhengdian_E203\sdk\whetstone\Debug/../application/whets.c:459
        for (ix = 0; ix < xtra; ix++) {
800025fc:	ad404ae3          	bgtz	s4,800020d0 <whetstones.constprop.0+0x12ac>
E:\VMshare\e203\zhengdian_E203\sdk\whetstone\Debug/../application/whets.c:465
    end_time();
80002600:	fe0fe0ef          	jal	ra,80000de0 <end_time>
E:\VMshare\e203\zhengdian_E203\sdk\whetstone\Debug/../application/whets.c:466
    pout("N8 exp,sqrt etc. \0", (float)(n8 * 4) * (float)(xtra), 2, x, secs,
80002604:	01812503          	lw	a0,24(sp)
80002608:	0fffe597          	auipc	a1,0xfffe
8000260c:	c7c5a583          	lw	a1,-900(a1) # 90000284 <_impure_ptr+0xa8>
pout():
E:\VMshare\e203\zhengdian_E203\sdk\whetstone\Debug/../application/whets.c:508
    Check = Check + checknum;
80002610:	9e818d93          	addi	s11,gp,-1560 # 900003b8 <Check>
whetstones():
E:\VMshare\e203\zhengdian_E203\sdk\whetstone\Debug/../application/whets.c:466
    pout("N8 exp,sqrt etc. \0", (float)(n8 * 4) * (float)(xtra), 2, x, secs,
80002614:	100030ef          	jal	ra,80005714 <__mulsf3>
80002618:	00050493          	mv	s1,a0
pout():
E:\VMshare\e203\zhengdian_E203\sdk\whetstone\Debug/../application/whets.c:508
    Check = Check + checknum;
8000261c:	000da503          	lw	a0,0(s11)
80002620:	0fffe597          	auipc	a1,0xfffe
80002624:	c2c5a583          	lw	a1,-980(a1) # 9000024c <_impure_ptr+0x70>
whetstones():
E:\VMshare\e203\zhengdian_E203\sdk\whetstone\Debug/../application/whets.c:466
    pout("N8 exp,sqrt etc. \0", (float)(n8 * 4) * (float)(xtra), 2, x, secs,
80002628:	9dc18a13          	addi	s4,gp,-1572 # 900003ac <secs>
pout():
E:\VMshare\e203\zhengdian_E203\sdk\whetstone\Debug/../application/whets.c:508
    Check = Check + checknum;
8000262c:	784020ef          	jal	ra,80004db0 <__addsf3>
E:\VMshare\e203\zhengdian_E203\sdk\whetstone\Debug/../application/whets.c:510
    strcpy(headings[section], title);
80002630:	064b2383          	lw	t2,100(s6)
80002634:	068b2603          	lw	a2,104(s6)
80002638:	06cb2f03          	lw	t5,108(s6)
whetstones():
E:\VMshare\e203\zhengdian_E203\sdk\whetstone\Debug/../application/whets.c:466
    pout("N8 exp,sqrt etc. \0", (float)(n8 * 4) * (float)(xtra), 2, x, secs,
8000263c:	000a2c83          	lw	s9,0(s4)
pout():
E:\VMshare\e203\zhengdian_E203\sdk\whetstone\Debug/../application/whets.c:510
    strcpy(headings[section], title);
80002640:	070b2d03          	lw	s10,112(s6)
E:\VMshare\e203\zhengdian_E203\sdk\whetstone\Debug/../application/whets.c:511
    TimeUsed = TimeUsed + time;
80002644:	9ec18913          	addi	s2,gp,-1556 # 900003bc <TimeUsed>
E:\VMshare\e203\zhengdian_E203\sdk\whetstone\Debug/../application/whets.c:510
    strcpy(headings[section], title);
80002648:	074b5b03          	lhu	s6,116(s6)
E:\VMshare\e203\zhengdian_E203\sdk\whetstone\Debug/../application/whets.c:508
    Check = Check + checknum;
8000264c:	00050293          	mv	t0,a0
E:\VMshare\e203\zhengdian_E203\sdk\whetstone\Debug/../application/whets.c:511
    TimeUsed = TimeUsed + time;
80002650:	00092503          	lw	a0,0(s2)
E:\VMshare\e203\zhengdian_E203\sdk\whetstone\Debug/../application/whets.c:510
    strcpy(headings[section], title);
80002654:	a9c18893          	addi	a7,gp,-1380 # 9000046c <headings>
E:\VMshare\e203\zhengdian_E203\sdk\whetstone\Debug/../application/whets.c:509
    loop_time[section] = time;
80002658:	b4018993          	addi	s3,gp,-1216 # 90000510 <loop_time>
E:\VMshare\e203\zhengdian_E203\sdk\whetstone\Debug/../application/whets.c:511
    TimeUsed = TimeUsed + time;
8000265c:	000c8593          	mv	a1,s9
E:\VMshare\e203\zhengdian_E203\sdk\whetstone\Debug/../application/whets.c:508
    Check = Check + checknum;
80002660:	005da023          	sw	t0,0(s11)
E:\VMshare\e203\zhengdian_E203\sdk\whetstone\Debug/../application/whets.c:509
    loop_time[section] = time;
80002664:	0399a023          	sw	s9,32(s3)
E:\VMshare\e203\zhengdian_E203\sdk\whetstone\Debug/../application/whets.c:510
    strcpy(headings[section], title);
80002668:	0878a823          	sw	t2,144(a7)
8000266c:	08c8aa23          	sw	a2,148(a7)
80002670:	09e8ac23          	sw	t5,152(a7)
80002674:	09a8ae23          	sw	s10,156(a7)
80002678:	0b689023          	sh	s6,160(a7)
E:\VMshare\e203\zhengdian_E203\sdk\whetstone\Debug/../application/whets.c:511
    TimeUsed = TimeUsed + time;
8000267c:	734020ef          	jal	ra,80004db0 <__addsf3>
80002680:	00a92023          	sw	a0,0(s2)
E:\VMshare\e203\zhengdian_E203\sdk\whetstone\Debug/../application/whets.c:517
    if (calibrate == 0) {
80002684:	bddff06f          	j	80002260 <whetstones.constprop.0+0x143c>
E:\VMshare\e203\zhengdian_E203\sdk\whetstone\Debug/../application/whets.c:515
        results[section] = checknum;
80002688:	b881a023          	sw	s0,-1152(gp) # 90000550 <results+0x1c>
whetstones():
E:\VMshare\e203\zhengdian_E203\sdk\whetstone\Debug/../application/whets.c:457
    start_time();
8000268c:	f18fe0ef          	jal	ra,80000da4 <start_time>
E:\VMshare\e203\zhengdian_E203\sdk\whetstone\Debug/../application/whets.c:459
        for (ix = 0; ix < xtra; ix++) {
80002690:	a41ff06f          	j	800020d0 <whetstones.constprop.0+0x12ac>
80002694:	b6418c93          	addi	s9,gp,-1180 # 90000534 <results>
pout():
E:\VMshare\e203\zhengdian_E203\sdk\whetstone\Debug/../application/whets.c:515
        results[section] = checknum;
80002698:	018cac23          	sw	s8,24(s9)
E:\VMshare\e203\zhengdian_E203\sdk\whetstone\Debug/../application/whets.c:517
    if (calibrate == 0) {
8000269c:	e1dff06f          	j	800024b8 <whetstones.constprop.0+0x1694>
800026a0:	b6418d93          	addi	s11,gp,-1180 # 90000534 <results>
E:\VMshare\e203\zhengdian_E203\sdk\whetstone\Debug/../application/whets.c:518
        printf("%s %20.17f    ", headings[section], results[section]);
800026a4:	018da503          	lw	a0,24(s11)
800026a8:	3b1030ef          	jal	ra,80006258 <__extendsfdf2>
800026ac:	00050613          	mv	a2,a0
800026b0:	00058693          	mv	a3,a1
800026b4:	0000b517          	auipc	a0,0xb
800026b8:	e5450513          	addi	a0,a0,-428 # 8000d508 <__trunctfdf2+0x42c>
800026bc:	b0818593          	addi	a1,gp,-1272 # 900004d8 <headings+0x6c>
800026c0:	53d040ef          	jal	ra,800073fc <iprintf>
E:\VMshare\e203\zhengdian_E203\sdk\whetstone\Debug/../application/whets.c:521
            if (time > 0) {
800026c4:	00000593          	li	a1,0
800026c8:	000a8513          	mv	a0,s5
800026cc:	6e1020ef          	jal	ra,800055ac <__gesf2>
800026d0:	0ca05063          	blez	a0,80002790 <whetstones.constprop.0+0x196c>
whetstones():
E:\VMshare\e203\zhengdian_E203\sdk\whetstone\Debug/../application/whets.c:433
    pout("N6 floating point\0", (float)(n6 * 6) * (float)(xtra), 1, z, secs,
800026d4:	01812503          	lw	a0,24(sp)
800026d8:	0fffe597          	auipc	a1,0xfffe
800026dc:	ba45a583          	lw	a1,-1116(a1) # 9000027c <_impure_ptr+0xa0>
800026e0:	034030ef          	jal	ra,80005714 <__mulsf3>
800026e4:	00050c13          	mv	s8,a0
pout():
E:\VMshare\e203\zhengdian_E203\sdk\whetstone\Debug/../application/whets.c:522
                mflops = ops / (1000000L * time);
800026e8:	0fffe597          	auipc	a1,0xfffe
800026ec:	b705a583          	lw	a1,-1168(a1) # 90000258 <_impure_ptr+0x7c>
800026f0:	000a8513          	mv	a0,s5
800026f4:	020030ef          	jal	ra,80005714 <__mulsf3>
800026f8:	00050593          	mv	a1,a0
800026fc:	000c0513          	mv	a0,s8
80002700:	30d020ef          	jal	ra,8000520c <__divsf3>
E:\VMshare\e203\zhengdian_E203\sdk\whetstone\Debug/../application/whets.c:528
            printf(" %9.3f          %9.3f\n", loop_mflops[section],
80002704:	355030ef          	jal	ra,80006258 <__extendsfdf2>
80002708:	00050a93          	mv	s5,a0
8000270c:	00058413          	mv	s0,a1
80002710:	b4018713          	addi	a4,gp,-1216 # 90000510 <loop_time>
80002714:	01872503          	lw	a0,24(a4)
80002718:	341030ef          	jal	ra,80006258 <__extendsfdf2>
8000271c:	00050713          	mv	a4,a0
80002720:	00058793          	mv	a5,a1
80002724:	000a8613          	mv	a2,s5
80002728:	00040693          	mv	a3,s0
8000272c:	0000b517          	auipc	a0,0xb
80002730:	dec50513          	addi	a0,a0,-532 # 8000d518 <__trunctfdf2+0x43c>
80002734:	4c9040ef          	jal	ra,800073fc <iprintf>
80002738:	8b1ff06f          	j	80001fe8 <whetstones.constprop.0+0x11c4>
8000273c:	00000c13          	li	s8,0
80002740:	00000413          	li	s0,0
80002744:	96dfe06f          	j	800010b0 <whetstones.constprop.0+0x28c>
80002748:	00000d13          	li	s10,0
8000274c:	00000d93          	li	s11,0
80002750:	e79fe06f          	j	800015c8 <whetstones.constprop.0+0x7a4>
80002754:	00000c13          	li	s8,0
80002758:	00000413          	li	s0,0
8000275c:	e75ff06f          	j	800025d0 <whetstones.constprop.0+0x17ac>
80002760:	00000c93          	li	s9,0
80002764:	00000c13          	li	s8,0
80002768:	a14ff06f          	j	8000197c <whetstones.constprop.0+0xb58>
8000276c:	00000a93          	li	s5,0
80002770:	00000c93          	li	s9,0
80002774:	b45ff06f          	j	800022b8 <whetstones.constprop.0+0x1494>
80002778:	00000d13          	li	s10,0
8000277c:	00000d93          	li	s11,0
80002780:	f89fe06f          	j	80001708 <whetstones.constprop.0+0x8e4>
80002784:	00000d13          	li	s10,0
80002788:	00000c13          	li	s8,0
8000278c:	de4ff06f          	j	80001d70 <whetstones.constprop.0+0xf4c>
80002790:	00000a93          	li	s5,0
80002794:	00000413          	li	s0,0
80002798:	f79ff06f          	j	80002710 <whetstones.constprop.0+0x18ec>
whetstones():
E:\VMshare\e203\zhengdian_E203\sdk\whetstone\Debug/../application/whets.c:312
    e1[0] = 1.0;
8000279c:	00512e23          	sw	t0,28(sp)
E:\VMshare\e203\zhengdian_E203\sdk\whetstone\Debug/../application/whets.c:314
    e1[2] = -1.0;
800027a0:	00048913          	mv	s2,s1
E:\VMshare\e203\zhengdian_E203\sdk\whetstone\Debug/../application/whets.c:313
    e1[1] = -1.0;
800027a4:	00048d93          	mv	s11,s1
E:\VMshare\e203\zhengdian_E203\sdk\whetstone\Debug/../application/whets.c:312
    e1[0] = 1.0;
800027a8:	00028d13          	mv	s10,t0
800027ac:	fc4fe06f          	j	80000f70 <whetstones.constprop.0+0x14c>
E:\VMshare\e203\zhengdian_E203\sdk\whetstone\Debug/../application/whets.c:457
    start_time();
800027b0:	df4fe0ef          	jal	ra,80000da4 <start_time>
pout():
E:\VMshare\e203\zhengdian_E203\sdk\whetstone\Debug/../application/whets.c:508
    Check = Check + checknum;
800027b4:	9e818a13          	addi	s4,gp,-1560 # 900003b8 <Check>
whetstones():
E:\VMshare\e203\zhengdian_E203\sdk\whetstone\Debug/../application/whets.c:465
    end_time();
800027b8:	e28fe0ef          	jal	ra,80000de0 <end_time>
pout():
E:\VMshare\e203\zhengdian_E203\sdk\whetstone\Debug/../application/whets.c:508
    Check = Check + checknum;
800027bc:	000a2503          	lw	a0,0(s4)
800027c0:	0fffe597          	auipc	a1,0xfffe
800027c4:	a8c5a583          	lw	a1,-1396(a1) # 9000024c <_impure_ptr+0x70>
whetstones():
E:\VMshare\e203\zhengdian_E203\sdk\whetstone\Debug/../application/whets.c:466
    pout("N8 exp,sqrt etc. \0", (float)(n8 * 4) * (float)(xtra), 2, x, secs,
800027c8:	9dc18493          	addi	s1,gp,-1572 # 900003ac <secs>
pout():
E:\VMshare\e203\zhengdian_E203\sdk\whetstone\Debug/../application/whets.c:508
    Check = Check + checknum;
800027cc:	5e4020ef          	jal	ra,80004db0 <__addsf3>
E:\VMshare\e203\zhengdian_E203\sdk\whetstone\Debug/../application/whets.c:510
    strcpy(headings[section], title);
800027d0:	068b2f03          	lw	t5,104(s6)
800027d4:	06cb2683          	lw	a3,108(s6)
whetstones():
E:\VMshare\e203\zhengdian_E203\sdk\whetstone\Debug/../application/whets.c:466
    pout("N8 exp,sqrt etc. \0", (float)(n8 * 4) * (float)(xtra), 2, x, secs,
800027d8:	0004aa83          	lw	s5,0(s1)
pout():
E:\VMshare\e203\zhengdian_E203\sdk\whetstone\Debug/../application/whets.c:510
    strcpy(headings[section], title);
800027dc:	064b2c03          	lw	s8,100(s6)
800027e0:	070b2d83          	lw	s11,112(s6)
E:\VMshare\e203\zhengdian_E203\sdk\whetstone\Debug/../application/whets.c:511
    TimeUsed = TimeUsed + time;
800027e4:	9ec18b93          	addi	s7,gp,-1556 # 900003bc <TimeUsed>
E:\VMshare\e203\zhengdian_E203\sdk\whetstone\Debug/../application/whets.c:510
    strcpy(headings[section], title);
800027e8:	074b5b03          	lhu	s6,116(s6)
E:\VMshare\e203\zhengdian_E203\sdk\whetstone\Debug/../application/whets.c:508
    Check = Check + checknum;
800027ec:	00050413          	mv	s0,a0
E:\VMshare\e203\zhengdian_E203\sdk\whetstone\Debug/../application/whets.c:511
    TimeUsed = TimeUsed + time;
800027f0:	000ba503          	lw	a0,0(s7)
E:\VMshare\e203\zhengdian_E203\sdk\whetstone\Debug/../application/whets.c:510
    strcpy(headings[section], title);
800027f4:	a9c18913          	addi	s2,gp,-1380 # 9000046c <headings>
E:\VMshare\e203\zhengdian_E203\sdk\whetstone\Debug/../application/whets.c:509
    loop_time[section] = time;
800027f8:	b4018793          	addi	a5,gp,-1216 # 90000510 <loop_time>
E:\VMshare\e203\zhengdian_E203\sdk\whetstone\Debug/../application/whets.c:511
    TimeUsed = TimeUsed + time;
800027fc:	000a8593          	mv	a1,s5
E:\VMshare\e203\zhengdian_E203\sdk\whetstone\Debug/../application/whets.c:508
    Check = Check + checknum;
80002800:	008a2023          	sw	s0,0(s4)
E:\VMshare\e203\zhengdian_E203\sdk\whetstone\Debug/../application/whets.c:509
    loop_time[section] = time;
80002804:	0357a023          	sw	s5,32(a5)
E:\VMshare\e203\zhengdian_E203\sdk\whetstone\Debug/../application/whets.c:510
    strcpy(headings[section], title);
80002808:	09892823          	sw	s8,144(s2)
8000280c:	09e92a23          	sw	t5,148(s2)
80002810:	08d92c23          	sw	a3,152(s2)
80002814:	09b92e23          	sw	s11,156(s2)
80002818:	0b691023          	sh	s6,160(s2)
E:\VMshare\e203\zhengdian_E203\sdk\whetstone\Debug/../application/whets.c:511
    TimeUsed = TimeUsed + time;
8000281c:	594020ef          	jal	ra,80004db0 <__addsf3>
80002820:	00aba023          	sw	a0,0(s7)
E:\VMshare\e203\zhengdian_E203\sdk\whetstone\Debug/../application/whets.c:512
    if (calibrate == 1)
80002824:	afdff06f          	j	80002320 <whetstones.constprop.0+0x14fc>
E:\VMshare\e203\zhengdian_E203\sdk\whetstone\Debug/../application/whets.c:515
        results[section] = checknum;
80002828:	0fffe517          	auipc	a0,0xfffe
8000282c:	a1c52503          	lw	a0,-1508(a0) # 90000244 <_impure_ptr+0x68>
80002830:	b6418c93          	addi	s9,gp,-1180 # 90000534 <results>
80002834:	00acae23          	sw	a0,28(s9)
E:\VMshare\e203\zhengdian_E203\sdk\whetstone\Debug/../application/whets.c:508
    Check = Check + checknum;
80002838:	9e818d13          	addi	s10,gp,-1560 # 900003b8 <Check>
whetstones():
E:\VMshare\e203\zhengdian_E203\sdk\whetstone\Debug/../application/whets.c:457
    start_time();
8000283c:	d68fe0ef          	jal	ra,80000da4 <start_time>
E:\VMshare\e203\zhengdian_E203\sdk\whetstone\Debug/../application/whets.c:465
    end_time();
80002840:	da0fe0ef          	jal	ra,80000de0 <end_time>
pout():
E:\VMshare\e203\zhengdian_E203\sdk\whetstone\Debug/../application/whets.c:508
    Check = Check + checknum;
80002844:	000d2503          	lw	a0,0(s10)
80002848:	0fffe597          	auipc	a1,0xfffe
8000284c:	a045a583          	lw	a1,-1532(a1) # 9000024c <_impure_ptr+0x70>
whetstones():
E:\VMshare\e203\zhengdian_E203\sdk\whetstone\Debug/../application/whets.c:466
    pout("N8 exp,sqrt etc. \0", (float)(n8 * 4) * (float)(xtra), 2, x, secs,
80002850:	9dc18993          	addi	s3,gp,-1572 # 900003ac <secs>
pout():
E:\VMshare\e203\zhengdian_E203\sdk\whetstone\Debug/../application/whets.c:508
    Check = Check + checknum;
80002854:	55c020ef          	jal	ra,80004db0 <__addsf3>
whetstones():
E:\VMshare\e203\zhengdian_E203\sdk\whetstone\Debug/../application/whets.c:466
    pout("N8 exp,sqrt etc. \0", (float)(n8 * 4) * (float)(xtra), 2, x, secs,
80002858:	0009aa03          	lw	s4,0(s3)
pout():
E:\VMshare\e203\zhengdian_E203\sdk\whetstone\Debug/../application/whets.c:510
    strcpy(headings[section], title);
8000285c:	064b2803          	lw	a6,100(s6)
80002860:	068b2303          	lw	t1,104(s6)
80002864:	06cb2f83          	lw	t6,108(s6)
80002868:	070b2e83          	lw	t4,112(s6)
8000286c:	074b5e03          	lhu	t3,116(s6)
E:\VMshare\e203\zhengdian_E203\sdk\whetstone\Debug/../application/whets.c:511
    TimeUsed = TimeUsed + time;
80002870:	9ec18493          	addi	s1,gp,-1556 # 900003bc <TimeUsed>
E:\VMshare\e203\zhengdian_E203\sdk\whetstone\Debug/../application/whets.c:508
    Check = Check + checknum;
80002874:	00050893          	mv	a7,a0
E:\VMshare\e203\zhengdian_E203\sdk\whetstone\Debug/../application/whets.c:511
    TimeUsed = TimeUsed + time;
80002878:	0004a503          	lw	a0,0(s1)
E:\VMshare\e203\zhengdian_E203\sdk\whetstone\Debug/../application/whets.c:510
    strcpy(headings[section], title);
8000287c:	a9c18393          	addi	t2,gp,-1380 # 9000046c <headings>
E:\VMshare\e203\zhengdian_E203\sdk\whetstone\Debug/../application/whets.c:509
    loop_time[section] = time;
80002880:	b4018293          	addi	t0,gp,-1216 # 90000510 <loop_time>
E:\VMshare\e203\zhengdian_E203\sdk\whetstone\Debug/../application/whets.c:511
    TimeUsed = TimeUsed + time;
80002884:	000a0593          	mv	a1,s4
E:\VMshare\e203\zhengdian_E203\sdk\whetstone\Debug/../application/whets.c:508
    Check = Check + checknum;
80002888:	011d2023          	sw	a7,0(s10)
E:\VMshare\e203\zhengdian_E203\sdk\whetstone\Debug/../application/whets.c:509
    loop_time[section] = time;
8000288c:	0342a023          	sw	s4,32(t0)
E:\VMshare\e203\zhengdian_E203\sdk\whetstone\Debug/../application/whets.c:510
    strcpy(headings[section], title);
80002890:	0903a823          	sw	a6,144(t2)
80002894:	0863aa23          	sw	t1,148(t2)
80002898:	09f3ac23          	sw	t6,152(t2)
8000289c:	09d3ae23          	sw	t4,156(t2)
800028a0:	0bc39023          	sh	t3,160(t2)
E:\VMshare\e203\zhengdian_E203\sdk\whetstone\Debug/../application/whets.c:511
    TimeUsed = TimeUsed + time;
800028a4:	50c020ef          	jal	ra,80004db0 <__addsf3>
whetstones():
E:\VMshare\e203\zhengdian_E203\sdk\whetstone\Debug/../application/whets.c:456
    x = 0.75;
800028a8:	0fffea97          	auipc	s5,0xfffe
800028ac:	9a4aaa83          	lw	s5,-1628(s5) # 9000024c <_impure_ptr+0x70>
pout():
E:\VMshare\e203\zhengdian_E203\sdk\whetstone\Debug/../application/whets.c:511
    TimeUsed = TimeUsed + time;
800028b0:	00a4a023          	sw	a0,0(s1)
E:\VMshare\e203\zhengdian_E203\sdk\whetstone\Debug/../application/whets.c:515
        results[section] = checknum;
800028b4:	035ca023          	sw	s5,32(s9)
E:\VMshare\e203\zhengdian_E203\sdk\whetstone\Debug/../application/whets.c:517
    if (calibrate == 0) {
800028b8:	a69ff06f          	j	80002320 <whetstones.constprop.0+0x14fc>
whetstones():
E:\VMshare\e203\zhengdian_E203\sdk\whetstone\Debug/../application/whets.c:432
    end_time();
800028bc:	d24fe0ef          	jal	ra,80000de0 <end_time>
pout():
E:\VMshare\e203\zhengdian_E203\sdk\whetstone\Debug/../application/whets.c:508
    Check = Check + checknum;
800028c0:	9e818c13          	addi	s8,gp,-1560 # 900003b8 <Check>
800028c4:	000c2503          	lw	a0,0(s8)
800028c8:	0fffe597          	auipc	a1,0xfffe
800028cc:	9705a583          	lw	a1,-1680(a1) # 90000238 <_impure_ptr+0x5c>
whetstones():
E:\VMshare\e203\zhengdian_E203\sdk\whetstone\Debug/../application/whets.c:433
    pout("N6 floating point\0", (float)(n6 * 6) * (float)(xtra), 1, z, secs,
800028d0:	9dc18c93          	addi	s9,gp,-1572 # 900003ac <secs>
pout():
E:\VMshare\e203\zhengdian_E203\sdk\whetstone\Debug/../application/whets.c:508
    Check = Check + checknum;
800028d4:	4dc020ef          	jal	ra,80004db0 <__addsf3>
whetstones():
E:\VMshare\e203\zhengdian_E203\sdk\whetstone\Debug/../application/whets.c:433
    pout("N6 floating point\0", (float)(n6 * 6) * (float)(xtra), 1, z, secs,
800028d8:	000caa83          	lw	s5,0(s9)
pout():
E:\VMshare\e203\zhengdian_E203\sdk\whetstone\Debug/../application/whets.c:510
    strcpy(headings[section], title);
800028dc:	050b2803          	lw	a6,80(s6)
800028e0:	058b2303          	lw	t1,88(s6)
800028e4:	060b5f83          	lhu	t6,96(s6)
E:\VMshare\e203\zhengdian_E203\sdk\whetstone\Debug/../application/whets.c:511
    TimeUsed = TimeUsed + time;
800028e8:	9ec18913          	addi	s2,gp,-1556 # 900003bc <TimeUsed>
E:\VMshare\e203\zhengdian_E203\sdk\whetstone\Debug/../application/whets.c:510
    strcpy(headings[section], title);
800028ec:	054b2b83          	lw	s7,84(s6)
800028f0:	05cb2483          	lw	s1,92(s6)
E:\VMshare\e203\zhengdian_E203\sdk\whetstone\Debug/../application/whets.c:508
    Check = Check + checknum;
800028f4:	00050413          	mv	s0,a0
E:\VMshare\e203\zhengdian_E203\sdk\whetstone\Debug/../application/whets.c:511
    TimeUsed = TimeUsed + time;
800028f8:	00092503          	lw	a0,0(s2)
E:\VMshare\e203\zhengdian_E203\sdk\whetstone\Debug/../application/whets.c:510
    strcpy(headings[section], title);
800028fc:	a9c18993          	addi	s3,gp,-1380 # 9000046c <headings>
E:\VMshare\e203\zhengdian_E203\sdk\whetstone\Debug/../application/whets.c:509
    loop_time[section] = time;
80002900:	b4018e93          	addi	t4,gp,-1216 # 90000510 <loop_time>
E:\VMshare\e203\zhengdian_E203\sdk\whetstone\Debug/../application/whets.c:511
    TimeUsed = TimeUsed + time;
80002904:	000a8593          	mv	a1,s5
E:\VMshare\e203\zhengdian_E203\sdk\whetstone\Debug/../application/whets.c:508
    Check = Check + checknum;
80002908:	008c2023          	sw	s0,0(s8)
E:\VMshare\e203\zhengdian_E203\sdk\whetstone\Debug/../application/whets.c:509
    loop_time[section] = time;
8000290c:	015eac23          	sw	s5,24(t4)
E:\VMshare\e203\zhengdian_E203\sdk\whetstone\Debug/../application/whets.c:510
    strcpy(headings[section], title);
80002910:	0709a623          	sw	a6,108(s3)
80002914:	0779a823          	sw	s7,112(s3)
80002918:	0669aa23          	sw	t1,116(s3)
8000291c:	0699ac23          	sw	s1,120(s3)
80002920:	07f99e23          	sh	t6,124(s3)
E:\VMshare\e203\zhengdian_E203\sdk\whetstone\Debug/../application/whets.c:511
    TimeUsed = TimeUsed + time;
80002924:	48c020ef          	jal	ra,80004db0 <__addsf3>
80002928:	00a92023          	sw	a0,0(s2)
E:\VMshare\e203\zhengdian_E203\sdk\whetstone\Debug/../application/whets.c:512
    if (calibrate == 1)
8000292c:	eb4ff06f          	j	80001fe0 <whetstones.constprop.0+0x11bc>

80002930 <atanf>:
atanf():
80002930:	fe010113          	addi	sp,sp,-32
80002934:	00912a23          	sw	s1,20(sp)
80002938:	00151493          	slli	s1,a0,0x1
8000293c:	00812c23          	sw	s0,24(sp)
80002940:	01412423          	sw	s4,8(sp)
80002944:	00112e23          	sw	ra,28(sp)
80002948:	01212823          	sw	s2,16(sp)
8000294c:	01312623          	sw	s3,12(sp)
80002950:	0014d493          	srli	s1,s1,0x1
80002954:	508007b7          	lui	a5,0x50800
80002958:	00050413          	mv	s0,a0
8000295c:	00050a13          	mv	s4,a0
80002960:	04f4c663          	blt	s1,a5,800029ac <atanf+0x7c>
80002964:	7f8007b7          	lui	a5,0x7f800
80002968:	0097da63          	bge	a5,s1,8000297c <atanf+0x4c>
8000296c:	00050593          	mv	a1,a0
80002970:	440020ef          	jal	ra,80004db0 <__addsf3>
80002974:	00050413          	mv	s0,a0
80002978:	0100006f          	j	80002988 <atanf+0x58>
8000297c:	2ca04063          	bgtz	a0,80002c3c <atanf+0x30c>
80002980:	0fffe417          	auipc	s0,0xfffe
80002984:	91042403          	lw	s0,-1776(s0) # 90000290 <_impure_ptr+0xb4>
80002988:	01c12083          	lw	ra,28(sp)
8000298c:	00040513          	mv	a0,s0
80002990:	01812403          	lw	s0,24(sp)
80002994:	01412483          	lw	s1,20(sp)
80002998:	01012903          	lw	s2,16(sp)
8000299c:	00c12983          	lw	s3,12(sp)
800029a0:	00812a03          	lw	s4,8(sp)
800029a4:	02010113          	addi	sp,sp,32
800029a8:	00008067          	ret
800029ac:	3ee007b7          	lui	a5,0x3ee00
800029b0:	02f4d863          	bge	s1,a5,800029e0 <atanf+0xb0>
800029b4:	310007b7          	lui	a5,0x31000
800029b8:	02f4d063          	bge	s1,a5,800029d8 <atanf+0xa8>
800029bc:	0fffe597          	auipc	a1,0xfffe
800029c0:	8d85a583          	lw	a1,-1832(a1) # 90000294 <_impure_ptr+0xb8>
800029c4:	3ec020ef          	jal	ra,80004db0 <__addsf3>
800029c8:	0fffe597          	auipc	a1,0xfffe
800029cc:	8705a583          	lw	a1,-1936(a1) # 90000238 <_impure_ptr+0x5c>
800029d0:	3dd020ef          	jal	ra,800055ac <__gesf2>
800029d4:	faa04ae3          	bgtz	a0,80002988 <atanf+0x58>
800029d8:	fff00913          	li	s2,-1
800029dc:	0580006f          	j	80002a34 <atanf+0x104>
800029e0:	314000ef          	jal	ra,80002cf4 <fabsf>
800029e4:	3f9807b7          	lui	a5,0x3f980
800029e8:	00050413          	mv	s0,a0
800029ec:	18f4de63          	bge	s1,a5,80002b88 <atanf+0x258>
800029f0:	3f3007b7          	lui	a5,0x3f300
800029f4:	14f4de63          	bge	s1,a5,80002b50 <atanf+0x220>
800029f8:	00050593          	mv	a1,a0
800029fc:	3b4020ef          	jal	ra,80004db0 <__addsf3>
80002a00:	0fffe597          	auipc	a1,0xfffe
80002a04:	8385a583          	lw	a1,-1992(a1) # 90000238 <_impure_ptr+0x5c>
80002a08:	014030ef          	jal	ra,80005a1c <__subsf3>
80002a0c:	00050493          	mv	s1,a0
80002a10:	0fffe597          	auipc	a1,0xfffe
80002a14:	8385a583          	lw	a1,-1992(a1) # 90000248 <_impure_ptr+0x6c>
80002a18:	00040513          	mv	a0,s0
80002a1c:	394020ef          	jal	ra,80004db0 <__addsf3>
80002a20:	00050593          	mv	a1,a0
80002a24:	00048513          	mv	a0,s1
80002a28:	7e4020ef          	jal	ra,8000520c <__divsf3>
80002a2c:	00050413          	mv	s0,a0
80002a30:	00000913          	li	s2,0
80002a34:	00040593          	mv	a1,s0
80002a38:	00040513          	mv	a0,s0
80002a3c:	4d9020ef          	jal	ra,80005714 <__mulsf3>
80002a40:	00050593          	mv	a1,a0
80002a44:	00050993          	mv	s3,a0
80002a48:	4cd020ef          	jal	ra,80005714 <__mulsf3>
80002a4c:	0fffe597          	auipc	a1,0xfffe
80002a50:	8505a583          	lw	a1,-1968(a1) # 9000029c <_impure_ptr+0xc0>
80002a54:	00050493          	mv	s1,a0
80002a58:	4bd020ef          	jal	ra,80005714 <__mulsf3>
80002a5c:	0fffe597          	auipc	a1,0xfffe
80002a60:	8445a583          	lw	a1,-1980(a1) # 900002a0 <_impure_ptr+0xc4>
80002a64:	34c020ef          	jal	ra,80004db0 <__addsf3>
80002a68:	00048593          	mv	a1,s1
80002a6c:	4a9020ef          	jal	ra,80005714 <__mulsf3>
80002a70:	0fffe597          	auipc	a1,0xfffe
80002a74:	8345a583          	lw	a1,-1996(a1) # 900002a4 <_impure_ptr+0xc8>
80002a78:	338020ef          	jal	ra,80004db0 <__addsf3>
80002a7c:	00048593          	mv	a1,s1
80002a80:	495020ef          	jal	ra,80005714 <__mulsf3>
80002a84:	0fffe597          	auipc	a1,0xfffe
80002a88:	8245a583          	lw	a1,-2012(a1) # 900002a8 <_impure_ptr+0xcc>
80002a8c:	324020ef          	jal	ra,80004db0 <__addsf3>
80002a90:	00048593          	mv	a1,s1
80002a94:	481020ef          	jal	ra,80005714 <__mulsf3>
80002a98:	0fffe597          	auipc	a1,0xfffe
80002a9c:	8145a583          	lw	a1,-2028(a1) # 900002ac <_impure_ptr+0xd0>
80002aa0:	310020ef          	jal	ra,80004db0 <__addsf3>
80002aa4:	00048593          	mv	a1,s1
80002aa8:	46d020ef          	jal	ra,80005714 <__mulsf3>
80002aac:	0fffe597          	auipc	a1,0xfffe
80002ab0:	8045a583          	lw	a1,-2044(a1) # 900002b0 <_impure_ptr+0xd4>
80002ab4:	2fc020ef          	jal	ra,80004db0 <__addsf3>
80002ab8:	00098593          	mv	a1,s3
80002abc:	459020ef          	jal	ra,80005714 <__mulsf3>
80002ac0:	0fffd597          	auipc	a1,0xfffd
80002ac4:	7f45a583          	lw	a1,2036(a1) # 900002b4 <_impure_ptr+0xd8>
80002ac8:	00050993          	mv	s3,a0
80002acc:	00048513          	mv	a0,s1
80002ad0:	445020ef          	jal	ra,80005714 <__mulsf3>
80002ad4:	0fffd597          	auipc	a1,0xfffd
80002ad8:	7e45a583          	lw	a1,2020(a1) # 900002b8 <_impure_ptr+0xdc>
80002adc:	741020ef          	jal	ra,80005a1c <__subsf3>
80002ae0:	00048593          	mv	a1,s1
80002ae4:	431020ef          	jal	ra,80005714 <__mulsf3>
80002ae8:	0fffd597          	auipc	a1,0xfffd
80002aec:	7d45a583          	lw	a1,2004(a1) # 900002bc <_impure_ptr+0xe0>
80002af0:	72d020ef          	jal	ra,80005a1c <__subsf3>
80002af4:	00048593          	mv	a1,s1
80002af8:	41d020ef          	jal	ra,80005714 <__mulsf3>
80002afc:	0fffd597          	auipc	a1,0xfffd
80002b00:	7c45a583          	lw	a1,1988(a1) # 900002c0 <_impure_ptr+0xe4>
80002b04:	719020ef          	jal	ra,80005a1c <__subsf3>
80002b08:	00048593          	mv	a1,s1
80002b0c:	409020ef          	jal	ra,80005714 <__mulsf3>
80002b10:	0fffd597          	auipc	a1,0xfffd
80002b14:	7b45a583          	lw	a1,1972(a1) # 900002c4 <_impure_ptr+0xe8>
80002b18:	705020ef          	jal	ra,80005a1c <__subsf3>
80002b1c:	00048593          	mv	a1,s1
80002b20:	3f5020ef          	jal	ra,80005714 <__mulsf3>
80002b24:	00050593          	mv	a1,a0
80002b28:	00098513          	mv	a0,s3
80002b2c:	284020ef          	jal	ra,80004db0 <__addsf3>
80002b30:	00040593          	mv	a1,s0
80002b34:	3e1020ef          	jal	ra,80005714 <__mulsf3>
80002b38:	fff00793          	li	a5,-1
80002b3c:	00050593          	mv	a1,a0
80002b40:	0af91863          	bne	s2,a5,80002bf0 <atanf+0x2c0>
80002b44:	00040513          	mv	a0,s0
80002b48:	6d5020ef          	jal	ra,80005a1c <__subsf3>
80002b4c:	e29ff06f          	j	80002974 <atanf+0x44>
80002b50:	0fffd597          	auipc	a1,0xfffd
80002b54:	6e85a583          	lw	a1,1768(a1) # 90000238 <_impure_ptr+0x5c>
80002b58:	6c5020ef          	jal	ra,80005a1c <__subsf3>
80002b5c:	00050493          	mv	s1,a0
80002b60:	0fffd597          	auipc	a1,0xfffd
80002b64:	6d85a583          	lw	a1,1752(a1) # 90000238 <_impure_ptr+0x5c>
80002b68:	00040513          	mv	a0,s0
80002b6c:	244020ef          	jal	ra,80004db0 <__addsf3>
80002b70:	00050593          	mv	a1,a0
80002b74:	00048513          	mv	a0,s1
80002b78:	694020ef          	jal	ra,8000520c <__divsf3>
80002b7c:	00050413          	mv	s0,a0
80002b80:	00100913          	li	s2,1
80002b84:	eb1ff06f          	j	80002a34 <atanf+0x104>
80002b88:	401c07b7          	lui	a5,0x401c0
80002b8c:	04f4d463          	bge	s1,a5,80002bd4 <atanf+0x2a4>
80002b90:	0fffd597          	auipc	a1,0xfffd
80002b94:	7085a583          	lw	a1,1800(a1) # 90000298 <_impure_ptr+0xbc>
80002b98:	685020ef          	jal	ra,80005a1c <__subsf3>
80002b9c:	00050493          	mv	s1,a0
80002ba0:	0fffd597          	auipc	a1,0xfffd
80002ba4:	6f85a583          	lw	a1,1784(a1) # 90000298 <_impure_ptr+0xbc>
80002ba8:	00040513          	mv	a0,s0
80002bac:	369020ef          	jal	ra,80005714 <__mulsf3>
80002bb0:	0fffd597          	auipc	a1,0xfffd
80002bb4:	6885a583          	lw	a1,1672(a1) # 90000238 <_impure_ptr+0x5c>
80002bb8:	1f8020ef          	jal	ra,80004db0 <__addsf3>
80002bbc:	00050593          	mv	a1,a0
80002bc0:	00048513          	mv	a0,s1
80002bc4:	648020ef          	jal	ra,8000520c <__divsf3>
80002bc8:	00050413          	mv	s0,a0
80002bcc:	00200913          	li	s2,2
80002bd0:	e65ff06f          	j	80002a34 <atanf+0x104>
80002bd4:	00050593          	mv	a1,a0
80002bd8:	0fffd517          	auipc	a0,0xfffd
80002bdc:	65c52503          	lw	a0,1628(a0) # 90000234 <_impure_ptr+0x58>
80002be0:	62c020ef          	jal	ra,8000520c <__divsf3>
80002be4:	00050413          	mv	s0,a0
80002be8:	00300913          	li	s2,3
80002bec:	e49ff06f          	j	80002a34 <atanf+0x104>
80002bf0:	0000b797          	auipc	a5,0xb
80002bf4:	b9478793          	addi	a5,a5,-1132 # 8000d784 <atanlo>
80002bf8:	00291913          	slli	s2,s2,0x2
80002bfc:	0000b497          	auipc	s1,0xb
80002c00:	b7848493          	addi	s1,s1,-1160 # 8000d774 <atanhi>
80002c04:	012484b3          	add	s1,s1,s2
80002c08:	01278933          	add	s2,a5,s2
80002c0c:	00092583          	lw	a1,0(s2)
80002c10:	60d020ef          	jal	ra,80005a1c <__subsf3>
80002c14:	00040593          	mv	a1,s0
80002c18:	605020ef          	jal	ra,80005a1c <__subsf3>
80002c1c:	00050593          	mv	a1,a0
80002c20:	0004a503          	lw	a0,0(s1)
80002c24:	5f9020ef          	jal	ra,80005a1c <__subsf3>
80002c28:	00050413          	mv	s0,a0
80002c2c:	d40a5ee3          	bgez	s4,80002988 <atanf+0x58>
80002c30:	800007b7          	lui	a5,0x80000
80002c34:	00a7c433          	xor	s0,a5,a0
80002c38:	d51ff06f          	j	80002988 <atanf+0x58>
80002c3c:	0fffd417          	auipc	s0,0xfffd
80002c40:	65042403          	lw	s0,1616(s0) # 9000028c <_impure_ptr+0xb0>
80002c44:	d45ff06f          	j	80002988 <atanf+0x58>

80002c48 <cosf>:
cosf():
80002c48:	fe010113          	addi	sp,sp,-32
80002c4c:	00812c23          	sw	s0,24(sp)
80002c50:	80000437          	lui	s0,0x80000
80002c54:	fff44793          	not	a5,s0
80002c58:	3f491737          	lui	a4,0x3f491
80002c5c:	00112e23          	sw	ra,28(sp)
80002c60:	00a7f7b3          	and	a5,a5,a0
80002c64:	fd870713          	addi	a4,a4,-40 # 3f490fd8 <__stack_size+0x3f4907d8>
80002c68:	00f74c63          	blt	a4,a5,80002c80 <cosf+0x38>
80002c6c:	01812403          	lw	s0,24(sp)
80002c70:	01c12083          	lw	ra,28(sp)
80002c74:	00000593          	li	a1,0
80002c78:	02010113          	addi	sp,sp,32
80002c7c:	7290006f          	j	80003ba4 <__kernel_cosf>
80002c80:	7f800737          	lui	a4,0x7f800
80002c84:	00e7ce63          	blt	a5,a4,80002ca0 <cosf+0x58>
80002c88:	00050593          	mv	a1,a0
80002c8c:	591020ef          	jal	ra,80005a1c <__subsf3>
80002c90:	01c12083          	lw	ra,28(sp)
80002c94:	01812403          	lw	s0,24(sp)
80002c98:	02010113          	addi	sp,sp,32
80002c9c:	00008067          	ret
80002ca0:	00810593          	addi	a1,sp,8
80002ca4:	171000ef          	jal	ra,80003614 <__ieee754_rem_pio2f>
80002ca8:	00357793          	andi	a5,a0,3
80002cac:	00100713          	li	a4,1
80002cb0:	00c12583          	lw	a1,12(sp)
80002cb4:	00812503          	lw	a0,8(sp)
80002cb8:	00e78c63          	beq	a5,a4,80002cd0 <cosf+0x88>
80002cbc:	00200713          	li	a4,2
80002cc0:	02e78063          	beq	a5,a4,80002ce0 <cosf+0x98>
80002cc4:	02079263          	bnez	a5,80002ce8 <cosf+0xa0>
80002cc8:	6dd000ef          	jal	ra,80003ba4 <__kernel_cosf>
80002ccc:	fc5ff06f          	j	80002c90 <cosf+0x48>
80002cd0:	00100613          	li	a2,1
80002cd4:	0f5010ef          	jal	ra,800045c8 <__kernel_sinf>
80002cd8:	00a44533          	xor	a0,s0,a0
80002cdc:	fb5ff06f          	j	80002c90 <cosf+0x48>
80002ce0:	6c5000ef          	jal	ra,80003ba4 <__kernel_cosf>
80002ce4:	ff5ff06f          	j	80002cd8 <cosf+0x90>
80002ce8:	00100613          	li	a2,1
80002cec:	0dd010ef          	jal	ra,800045c8 <__kernel_sinf>
80002cf0:	fa1ff06f          	j	80002c90 <cosf+0x48>

80002cf4 <fabsf>:
fabsf():
80002cf4:	00151513          	slli	a0,a0,0x1
80002cf8:	00155513          	srli	a0,a0,0x1
80002cfc:	00008067          	ret

80002d00 <sinf>:
sinf():
80002d00:	fe010113          	addi	sp,sp,-32
80002d04:	00812c23          	sw	s0,24(sp)
80002d08:	80000437          	lui	s0,0x80000
80002d0c:	fff44793          	not	a5,s0
80002d10:	3f491737          	lui	a4,0x3f491
80002d14:	00112e23          	sw	ra,28(sp)
80002d18:	00a7f7b3          	and	a5,a5,a0
80002d1c:	fd870713          	addi	a4,a4,-40 # 3f490fd8 <__stack_size+0x3f4907d8>
80002d20:	00f74e63          	blt	a4,a5,80002d3c <sinf+0x3c>
80002d24:	01812403          	lw	s0,24(sp)
80002d28:	01c12083          	lw	ra,28(sp)
80002d2c:	00000613          	li	a2,0
80002d30:	00000593          	li	a1,0
80002d34:	02010113          	addi	sp,sp,32
80002d38:	0910106f          	j	800045c8 <__kernel_sinf>
80002d3c:	7f800737          	lui	a4,0x7f800
80002d40:	00e7ce63          	blt	a5,a4,80002d5c <sinf+0x5c>
80002d44:	00050593          	mv	a1,a0
80002d48:	4d5020ef          	jal	ra,80005a1c <__subsf3>
80002d4c:	01c12083          	lw	ra,28(sp)
80002d50:	01812403          	lw	s0,24(sp)
80002d54:	02010113          	addi	sp,sp,32
80002d58:	00008067          	ret
80002d5c:	00810593          	addi	a1,sp,8
80002d60:	0b5000ef          	jal	ra,80003614 <__ieee754_rem_pio2f>
80002d64:	00357793          	andi	a5,a0,3
80002d68:	00100713          	li	a4,1
80002d6c:	00c12583          	lw	a1,12(sp)
80002d70:	00812503          	lw	a0,8(sp)
80002d74:	00e78e63          	beq	a5,a4,80002d90 <sinf+0x90>
80002d78:	00200713          	li	a4,2
80002d7c:	00e78e63          	beq	a5,a4,80002d98 <sinf+0x98>
80002d80:	02079463          	bnez	a5,80002da8 <sinf+0xa8>
80002d84:	00100613          	li	a2,1
80002d88:	041010ef          	jal	ra,800045c8 <__kernel_sinf>
80002d8c:	fc1ff06f          	j	80002d4c <sinf+0x4c>
80002d90:	615000ef          	jal	ra,80003ba4 <__kernel_cosf>
80002d94:	fb9ff06f          	j	80002d4c <sinf+0x4c>
80002d98:	00100613          	li	a2,1
80002d9c:	02d010ef          	jal	ra,800045c8 <__kernel_sinf>
80002da0:	00a44533          	xor	a0,s0,a0
80002da4:	fa9ff06f          	j	80002d4c <sinf+0x4c>
80002da8:	5fd000ef          	jal	ra,80003ba4 <__kernel_cosf>
80002dac:	ff5ff06f          	j	80002da0 <sinf+0xa0>

80002db0 <expf>:
expf():
80002db0:	ff010113          	addi	sp,sp,-16
80002db4:	00812423          	sw	s0,8(sp)
80002db8:	00912223          	sw	s1,4(sp)
80002dbc:	00112623          	sw	ra,12(sp)
80002dc0:	00050493          	mv	s1,a0
80002dc4:	1bc000ef          	jal	ra,80002f80 <__ieee754_expf>
80002dc8:	0fffd717          	auipc	a4,0xfffd
80002dcc:	41072703          	lw	a4,1040(a4) # 900001d8 <__fdlib_version>
80002dd0:	fff00793          	li	a5,-1
80002dd4:	00050413          	mv	s0,a0
80002dd8:	02f70c63          	beq	a4,a5,80002e10 <expf+0x60>
80002ddc:	00048513          	mv	a0,s1
80002de0:	171010ef          	jal	ra,80004750 <finitef>
80002de4:	02050663          	beqz	a0,80002e10 <expf+0x60>
80002de8:	0fffd597          	auipc	a1,0xfffd
80002dec:	4e45a583          	lw	a1,1252(a1) # 900002cc <_impure_ptr+0xf0>
80002df0:	00048513          	mv	a0,s1
80002df4:	7b8020ef          	jal	ra,800055ac <__gesf2>
80002df8:	02a05863          	blez	a0,80002e28 <expf+0x78>
80002dfc:	608030ef          	jal	ra,80006404 <__errno>
80002e00:	02200793          	li	a5,34
80002e04:	00f52023          	sw	a5,0(a0)
80002e08:	0fffd417          	auipc	s0,0xfffd
80002e0c:	4c042403          	lw	s0,1216(s0) # 900002c8 <_impure_ptr+0xec>
80002e10:	00c12083          	lw	ra,12(sp)
80002e14:	00040513          	mv	a0,s0
80002e18:	00812403          	lw	s0,8(sp)
80002e1c:	00412483          	lw	s1,4(sp)
80002e20:	01010113          	addi	sp,sp,16
80002e24:	00008067          	ret
80002e28:	0fffd597          	auipc	a1,0xfffd
80002e2c:	4a85a583          	lw	a1,1192(a1) # 900002d0 <_impure_ptr+0xf4>
80002e30:	00048513          	mv	a0,s1
80002e34:	02d020ef          	jal	ra,80005660 <__lesf2>
80002e38:	fc055ce3          	bgez	a0,80002e10 <expf+0x60>
80002e3c:	5c8030ef          	jal	ra,80006404 <__errno>
80002e40:	02200793          	li	a5,34
80002e44:	00f52023          	sw	a5,0(a0)
80002e48:	00000413          	li	s0,0
80002e4c:	fc5ff06f          	j	80002e10 <expf+0x60>

80002e50 <logf>:
logf():
80002e50:	ff010113          	addi	sp,sp,-16
80002e54:	00812423          	sw	s0,8(sp)
80002e58:	00912223          	sw	s1,4(sp)
80002e5c:	00112623          	sw	ra,12(sp)
80002e60:	00050413          	mv	s0,a0
80002e64:	400000ef          	jal	ra,80003264 <__ieee754_logf>
80002e68:	0fffd717          	auipc	a4,0xfffd
80002e6c:	37072703          	lw	a4,880(a4) # 900001d8 <__fdlib_version>
80002e70:	fff00793          	li	a5,-1
80002e74:	00050493          	mv	s1,a0
80002e78:	04f70463          	beq	a4,a5,80002ec0 <logf+0x70>
80002e7c:	00040593          	mv	a1,s0
80002e80:	00040513          	mv	a0,s0
80002e84:	004030ef          	jal	ra,80005e88 <__unordsf2>
80002e88:	02051c63          	bnez	a0,80002ec0 <logf+0x70>
80002e8c:	00000593          	li	a1,0
80002e90:	00040513          	mv	a0,s0
80002e94:	718020ef          	jal	ra,800055ac <__gesf2>
80002e98:	02a04463          	bgtz	a0,80002ec0 <logf+0x70>
80002e9c:	00000593          	li	a1,0
80002ea0:	00040513          	mv	a0,s0
80002ea4:	6a0020ef          	jal	ra,80005544 <__eqsf2>
80002ea8:	02051863          	bnez	a0,80002ed8 <logf+0x88>
80002eac:	558030ef          	jal	ra,80006404 <__errno>
80002eb0:	02200793          	li	a5,34
80002eb4:	00f52023          	sw	a5,0(a0)
80002eb8:	0fffd497          	auipc	s1,0xfffd
80002ebc:	41c4a483          	lw	s1,1052(s1) # 900002d4 <_impure_ptr+0xf8>
80002ec0:	00c12083          	lw	ra,12(sp)
80002ec4:	00812403          	lw	s0,8(sp)
80002ec8:	00048513          	mv	a0,s1
80002ecc:	00412483          	lw	s1,4(sp)
80002ed0:	01010113          	addi	sp,sp,16
80002ed4:	00008067          	ret
80002ed8:	52c030ef          	jal	ra,80006404 <__errno>
80002edc:	00812403          	lw	s0,8(sp)
80002ee0:	00c12083          	lw	ra,12(sp)
80002ee4:	00412483          	lw	s1,4(sp)
80002ee8:	02100793          	li	a5,33
80002eec:	00f52023          	sw	a5,0(a0)
80002ef0:	0000a517          	auipc	a0,0xa
80002ef4:	5e450513          	addi	a0,a0,1508 # 8000d4d4 <__trunctfdf2+0x3f8>
80002ef8:	01010113          	addi	sp,sp,16
80002efc:	14d0106f          	j	80004848 <nanf>

80002f00 <sqrtf>:
sqrtf():
80002f00:	ff010113          	addi	sp,sp,-16
80002f04:	00812423          	sw	s0,8(sp)
80002f08:	00912223          	sw	s1,4(sp)
80002f0c:	00112623          	sw	ra,12(sp)
80002f10:	00050493          	mv	s1,a0
80002f14:	371000ef          	jal	ra,80003a84 <__ieee754_sqrtf>
80002f18:	0fffd717          	auipc	a4,0xfffd
80002f1c:	2c072703          	lw	a4,704(a4) # 900001d8 <__fdlib_version>
80002f20:	fff00793          	li	a5,-1
80002f24:	00050413          	mv	s0,a0
80002f28:	04f70063          	beq	a4,a5,80002f68 <sqrtf+0x68>
80002f2c:	00048593          	mv	a1,s1
80002f30:	00048513          	mv	a0,s1
80002f34:	755020ef          	jal	ra,80005e88 <__unordsf2>
80002f38:	02051863          	bnez	a0,80002f68 <sqrtf+0x68>
80002f3c:	00000593          	li	a1,0
80002f40:	00048513          	mv	a0,s1
80002f44:	71c020ef          	jal	ra,80005660 <__lesf2>
80002f48:	02055063          	bgez	a0,80002f68 <sqrtf+0x68>
80002f4c:	4b8030ef          	jal	ra,80006404 <__errno>
80002f50:	02100793          	li	a5,33
80002f54:	00000593          	li	a1,0
80002f58:	00f52023          	sw	a5,0(a0)
80002f5c:	00058513          	mv	a0,a1
80002f60:	2ac020ef          	jal	ra,8000520c <__divsf3>
80002f64:	00050413          	mv	s0,a0
80002f68:	00c12083          	lw	ra,12(sp)
80002f6c:	00040513          	mv	a0,s0
80002f70:	00812403          	lw	s0,8(sp)
80002f74:	00412483          	lw	s1,4(sp)
80002f78:	01010113          	addi	sp,sp,16
80002f7c:	00008067          	ret

80002f80 <__ieee754_expf>:
__ieee754_expf():
80002f80:	fe010113          	addi	sp,sp,-32
80002f84:	00151793          	slli	a5,a0,0x1
80002f88:	00812c23          	sw	s0,24(sp)
80002f8c:	00112e23          	sw	ra,28(sp)
80002f90:	00912a23          	sw	s1,20(sp)
80002f94:	01212823          	sw	s2,16(sp)
80002f98:	01312623          	sw	s3,12(sp)
80002f9c:	01412423          	sw	s4,8(sp)
80002fa0:	01512223          	sw	s5,4(sp)
80002fa4:	0017d793          	srli	a5,a5,0x1
80002fa8:	7f800737          	lui	a4,0x7f800
80002fac:	00050413          	mv	s0,a0
80002fb0:	00050593          	mv	a1,a0
80002fb4:	22f76463          	bltu	a4,a5,800031dc <__ieee754_expf+0x25c>
80002fb8:	01f55913          	srli	s2,a0,0x1f
80002fbc:	02e79863          	bne	a5,a4,80002fec <__ieee754_expf+0x6c>
80002fc0:	28091e63          	bnez	s2,8000325c <__ieee754_expf+0x2dc>
80002fc4:	01c12083          	lw	ra,28(sp)
80002fc8:	00040513          	mv	a0,s0
80002fcc:	01812403          	lw	s0,24(sp)
80002fd0:	01412483          	lw	s1,20(sp)
80002fd4:	01012903          	lw	s2,16(sp)
80002fd8:	00c12983          	lw	s3,12(sp)
80002fdc:	00812a03          	lw	s4,8(sp)
80002fe0:	00412a83          	lw	s5,4(sp)
80002fe4:	02010113          	addi	sp,sp,32
80002fe8:	00008067          	ret
80002fec:	42b17737          	lui	a4,0x42b17
80002ff0:	21770713          	addi	a4,a4,535 # 42b17217 <__stack_size+0x42b16a17>
80002ff4:	00a75c63          	bge	a4,a0,8000300c <__ieee754_expf+0x8c>
80002ff8:	0fffd597          	auipc	a1,0xfffd
80002ffc:	29c5a583          	lw	a1,668(a1) # 90000294 <_impure_ptr+0xb8>
80003000:	00058513          	mv	a0,a1
80003004:	710020ef          	jal	ra,80005714 <__mulsf3>
80003008:	1d80006f          	j	800031e0 <__ieee754_expf+0x260>
8000300c:	00055863          	bgez	a0,8000301c <__ieee754_expf+0x9c>
80003010:	42cff737          	lui	a4,0x42cff
80003014:	1b570713          	addi	a4,a4,437 # 42cff1b5 <__stack_size+0x42cfe9b5>
80003018:	24f76263          	bltu	a4,a5,8000325c <__ieee754_expf+0x2dc>
8000301c:	3eb17737          	lui	a4,0x3eb17
80003020:	21870713          	addi	a4,a4,536 # 3eb17218 <__stack_size+0x3eb16a18>
80003024:	18f77063          	bgeu	a4,a5,800031a4 <__ieee754_expf+0x224>
80003028:	3f851737          	lui	a4,0x3f851
8000302c:	59170713          	addi	a4,a4,1425 # 3f851591 <__stack_size+0x3f850d91>
80003030:	00291493          	slli	s1,s2,0x2
80003034:	10f76663          	bltu	a4,a5,80003140 <__ieee754_expf+0x1c0>
80003038:	9c818793          	addi	a5,gp,-1592 # 90000398 <ln2HI>
8000303c:	009787b3          	add	a5,a5,s1
80003040:	0007a583          	lw	a1,0(a5) # 80000000 <_sp+0xefff0000>
80003044:	00040513          	mv	a0,s0
80003048:	1d5020ef          	jal	ra,80005a1c <__subsf3>
8000304c:	9d018793          	addi	a5,gp,-1584 # 900003a0 <ln2LO>
80003050:	009787b3          	add	a5,a5,s1
80003054:	0007aa03          	lw	s4,0(a5)
80003058:	00100493          	li	s1,1
8000305c:	412484b3          	sub	s1,s1,s2
80003060:	00050993          	mv	s3,a0
80003064:	412484b3          	sub	s1,s1,s2
80003068:	000a0593          	mv	a1,s4
8000306c:	00098513          	mv	a0,s3
80003070:	1ad020ef          	jal	ra,80005a1c <__subsf3>
80003074:	00050413          	mv	s0,a0
80003078:	00040593          	mv	a1,s0
8000307c:	00040513          	mv	a0,s0
80003080:	694020ef          	jal	ra,80005714 <__mulsf3>
80003084:	0fffd597          	auipc	a1,0xfffd
80003088:	2605a583          	lw	a1,608(a1) # 900002e4 <_impure_ptr+0x108>
8000308c:	00050913          	mv	s2,a0
80003090:	684020ef          	jal	ra,80005714 <__mulsf3>
80003094:	0fffd597          	auipc	a1,0xfffd
80003098:	2545a583          	lw	a1,596(a1) # 900002e8 <_impure_ptr+0x10c>
8000309c:	181020ef          	jal	ra,80005a1c <__subsf3>
800030a0:	00090593          	mv	a1,s2
800030a4:	670020ef          	jal	ra,80005714 <__mulsf3>
800030a8:	0fffd597          	auipc	a1,0xfffd
800030ac:	2445a583          	lw	a1,580(a1) # 900002ec <_impure_ptr+0x110>
800030b0:	501010ef          	jal	ra,80004db0 <__addsf3>
800030b4:	00090593          	mv	a1,s2
800030b8:	65c020ef          	jal	ra,80005714 <__mulsf3>
800030bc:	0fffd597          	auipc	a1,0xfffd
800030c0:	2345a583          	lw	a1,564(a1) # 900002f0 <_impure_ptr+0x114>
800030c4:	159020ef          	jal	ra,80005a1c <__subsf3>
800030c8:	00090593          	mv	a1,s2
800030cc:	648020ef          	jal	ra,80005714 <__mulsf3>
800030d0:	0fffd597          	auipc	a1,0xfffd
800030d4:	2245a583          	lw	a1,548(a1) # 900002f4 <_impure_ptr+0x118>
800030d8:	4d9010ef          	jal	ra,80004db0 <__addsf3>
800030dc:	00090593          	mv	a1,s2
800030e0:	634020ef          	jal	ra,80005714 <__mulsf3>
800030e4:	00050593          	mv	a1,a0
800030e8:	00040513          	mv	a0,s0
800030ec:	131020ef          	jal	ra,80005a1c <__subsf3>
800030f0:	00050593          	mv	a1,a0
800030f4:	00050913          	mv	s2,a0
800030f8:	00040513          	mv	a0,s0
800030fc:	618020ef          	jal	ra,80005714 <__mulsf3>
80003100:	00050a93          	mv	s5,a0
80003104:	0e049663          	bnez	s1,800031f0 <__ieee754_expf+0x270>
80003108:	0fffd597          	auipc	a1,0xfffd
8000310c:	1405a583          	lw	a1,320(a1) # 90000248 <_impure_ptr+0x6c>
80003110:	00090513          	mv	a0,s2
80003114:	109020ef          	jal	ra,80005a1c <__subsf3>
80003118:	00050593          	mv	a1,a0
8000311c:	000a8513          	mv	a0,s5
80003120:	0ec020ef          	jal	ra,8000520c <__divsf3>
80003124:	00040593          	mv	a1,s0
80003128:	0f5020ef          	jal	ra,80005a1c <__subsf3>
8000312c:	00050593          	mv	a1,a0
80003130:	0fffd517          	auipc	a0,0xfffd
80003134:	10852503          	lw	a0,264(a0) # 90000238 <_impure_ptr+0x5c>
80003138:	0e5020ef          	jal	ra,80005a1c <__subsf3>
8000313c:	0a40006f          	j	800031e0 <__ieee754_expf+0x260>
80003140:	0fffd597          	auipc	a1,0xfffd
80003144:	1985a583          	lw	a1,408(a1) # 900002d8 <_impure_ptr+0xfc>
80003148:	00040513          	mv	a0,s0
8000314c:	5c8020ef          	jal	ra,80005714 <__mulsf3>
80003150:	9c018793          	addi	a5,gp,-1600 # 90000390 <halF>
80003154:	009787b3          	add	a5,a5,s1
80003158:	0007a583          	lw	a1,0(a5)
8000315c:	455010ef          	jal	ra,80004db0 <__addsf3>
80003160:	56d020ef          	jal	ra,80005ecc <__fixsfsi>
80003164:	00050493          	mv	s1,a0
80003168:	5d5020ef          	jal	ra,80005f3c <__floatsisf>
8000316c:	0fffd597          	auipc	a1,0xfffd
80003170:	1705a583          	lw	a1,368(a1) # 900002dc <_impure_ptr+0x100>
80003174:	00050913          	mv	s2,a0
80003178:	59c020ef          	jal	ra,80005714 <__mulsf3>
8000317c:	00050593          	mv	a1,a0
80003180:	00040513          	mv	a0,s0
80003184:	099020ef          	jal	ra,80005a1c <__subsf3>
80003188:	00050993          	mv	s3,a0
8000318c:	0fffd597          	auipc	a1,0xfffd
80003190:	1545a583          	lw	a1,340(a1) # 900002e0 <_impure_ptr+0x104>
80003194:	00090513          	mv	a0,s2
80003198:	57c020ef          	jal	ra,80005714 <__mulsf3>
8000319c:	00050a13          	mv	s4,a0
800031a0:	ec9ff06f          	j	80003068 <__ieee754_expf+0xe8>
800031a4:	31800737          	lui	a4,0x31800
800031a8:	04e7f063          	bgeu	a5,a4,800031e8 <__ieee754_expf+0x268>
800031ac:	0fffd597          	auipc	a1,0xfffd
800031b0:	0e85a583          	lw	a1,232(a1) # 90000294 <_impure_ptr+0xb8>
800031b4:	00040513          	mv	a0,s0
800031b8:	3f9010ef          	jal	ra,80004db0 <__addsf3>
800031bc:	0fffd597          	auipc	a1,0xfffd
800031c0:	07c5a583          	lw	a1,124(a1) # 90000238 <_impure_ptr+0x5c>
800031c4:	3e8020ef          	jal	ra,800055ac <__gesf2>
800031c8:	02a05063          	blez	a0,800031e8 <__ieee754_expf+0x268>
800031cc:	0fffd797          	auipc	a5,0xfffd
800031d0:	06c78793          	addi	a5,a5,108 # 90000238 <_impure_ptr+0x5c>
800031d4:	0007a583          	lw	a1,0(a5)
800031d8:	00040513          	mv	a0,s0
800031dc:	3d5010ef          	jal	ra,80004db0 <__addsf3>
800031e0:	00050413          	mv	s0,a0
800031e4:	de1ff06f          	j	80002fc4 <__ieee754_expf+0x44>
800031e8:	00000493          	li	s1,0
800031ec:	e8dff06f          	j	80003078 <__ieee754_expf+0xf8>
800031f0:	00090593          	mv	a1,s2
800031f4:	0fffd517          	auipc	a0,0xfffd
800031f8:	05452503          	lw	a0,84(a0) # 90000248 <_impure_ptr+0x6c>
800031fc:	021020ef          	jal	ra,80005a1c <__subsf3>
80003200:	00050593          	mv	a1,a0
80003204:	000a8513          	mv	a0,s5
80003208:	004020ef          	jal	ra,8000520c <__divsf3>
8000320c:	00050593          	mv	a1,a0
80003210:	000a0513          	mv	a0,s4
80003214:	009020ef          	jal	ra,80005a1c <__subsf3>
80003218:	00098593          	mv	a1,s3
8000321c:	001020ef          	jal	ra,80005a1c <__subsf3>
80003220:	00050593          	mv	a1,a0
80003224:	0fffd517          	auipc	a0,0xfffd
80003228:	01452503          	lw	a0,20(a0) # 90000238 <_impure_ptr+0x5c>
8000322c:	7f0020ef          	jal	ra,80005a1c <__subsf3>
80003230:	f8300793          	li	a5,-125
80003234:	00f4c863          	blt	s1,a5,80003244 <__ieee754_expf+0x2c4>
80003238:	01749493          	slli	s1,s1,0x17
8000323c:	00a48433          	add	s0,s1,a0
80003240:	d85ff06f          	j	80002fc4 <__ieee754_expf+0x44>
80003244:	06448493          	addi	s1,s1,100
80003248:	01749493          	slli	s1,s1,0x17
8000324c:	0fffd597          	auipc	a1,0xfffd
80003250:	0ac5a583          	lw	a1,172(a1) # 900002f8 <_impure_ptr+0x11c>
80003254:	00a48533          	add	a0,s1,a0
80003258:	dadff06f          	j	80003004 <__ieee754_expf+0x84>
8000325c:	00000413          	li	s0,0
80003260:	d65ff06f          	j	80002fc4 <__ieee754_expf+0x44>

80003264 <__ieee754_logf>:
__ieee754_logf():
80003264:	fd010113          	addi	sp,sp,-48
80003268:	02112623          	sw	ra,44(sp)
8000326c:	02812423          	sw	s0,40(sp)
80003270:	02912223          	sw	s1,36(sp)
80003274:	03212023          	sw	s2,32(sp)
80003278:	01312e23          	sw	s3,28(sp)
8000327c:	01412c23          	sw	s4,24(sp)
80003280:	01512a23          	sw	s5,20(sp)
80003284:	01612823          	sw	s6,16(sp)
80003288:	01712623          	sw	s7,12(sp)
8000328c:	00151713          	slli	a4,a0,0x1
80003290:	04071063          	bnez	a4,800032d0 <__ieee754_logf+0x6c>
80003294:	00000593          	li	a1,0
80003298:	0fffd517          	auipc	a0,0xfffd
8000329c:	06452503          	lw	a0,100(a0) # 900002fc <_impure_ptr+0x120>
800032a0:	76d010ef          	jal	ra,8000520c <__divsf3>
800032a4:	02c12083          	lw	ra,44(sp)
800032a8:	02812403          	lw	s0,40(sp)
800032ac:	02412483          	lw	s1,36(sp)
800032b0:	02012903          	lw	s2,32(sp)
800032b4:	01c12983          	lw	s3,28(sp)
800032b8:	01812a03          	lw	s4,24(sp)
800032bc:	01412a83          	lw	s5,20(sp)
800032c0:	01012b03          	lw	s6,16(sp)
800032c4:	00c12b83          	lw	s7,12(sp)
800032c8:	03010113          	addi	sp,sp,48
800032cc:	00008067          	ret
800032d0:	00050593          	mv	a1,a0
800032d4:	00050793          	mv	a5,a0
800032d8:	00055863          	bgez	a0,800032e8 <__ieee754_logf+0x84>
800032dc:	740020ef          	jal	ra,80005a1c <__subsf3>
800032e0:	00000593          	li	a1,0
800032e4:	fbdff06f          	j	800032a0 <__ieee754_logf+0x3c>
800032e8:	7f800737          	lui	a4,0x7f800
800032ec:	00e54663          	blt	a0,a4,800032f8 <__ieee754_logf+0x94>
800032f0:	2c1010ef          	jal	ra,80004db0 <__addsf3>
800032f4:	fb1ff06f          	j	800032a4 <__ieee754_logf+0x40>
800032f8:	008006b7          	lui	a3,0x800
800032fc:	00000713          	li	a4,0
80003300:	00d55c63          	bge	a0,a3,80003318 <__ieee754_logf+0xb4>
80003304:	0fffd597          	auipc	a1,0xfffd
80003308:	ffc5a583          	lw	a1,-4(a1) # 90000300 <_impure_ptr+0x124>
8000330c:	408020ef          	jal	ra,80005714 <__mulsf3>
80003310:	00050793          	mv	a5,a0
80003314:	fe700713          	li	a4,-25
80003318:	008009b7          	lui	s3,0x800
8000331c:	fff98493          	addi	s1,s3,-1 # 7fffff <__stack_size+0x7ff7ff>
80003320:	0097f4b3          	and	s1,a5,s1
80003324:	4177d913          	srai	s2,a5,0x17
80003328:	004b07b7          	lui	a5,0x4b0
8000332c:	b2078793          	addi	a5,a5,-1248 # 4afb20 <__stack_size+0x4af320>
80003330:	00f487b3          	add	a5,s1,a5
80003334:	0137f7b3          	and	a5,a5,s3
80003338:	3f800537          	lui	a0,0x3f800
8000333c:	00a7c533          	xor	a0,a5,a0
80003340:	f8190913          	addi	s2,s2,-127
80003344:	00e90733          	add	a4,s2,a4
80003348:	0fffd597          	auipc	a1,0xfffd
8000334c:	ef05a583          	lw	a1,-272(a1) # 90000238 <_impure_ptr+0x5c>
80003350:	4177d913          	srai	s2,a5,0x17
80003354:	00956533          	or	a0,a0,s1
80003358:	00e90933          	add	s2,s2,a4
8000335c:	6c0020ef          	jal	ra,80005a1c <__subsf3>
80003360:	00f48793          	addi	a5,s1,15
80003364:	ff098993          	addi	s3,s3,-16
80003368:	0137f9b3          	and	s3,a5,s3
8000336c:	00050413          	mv	s0,a0
80003370:	0c099663          	bnez	s3,8000343c <__ieee754_logf+0x1d8>
80003374:	00000593          	li	a1,0
80003378:	1cc020ef          	jal	ra,80005544 <__eqsf2>
8000337c:	04051263          	bnez	a0,800033c0 <__ieee754_logf+0x15c>
80003380:	00000513          	li	a0,0
80003384:	f20900e3          	beqz	s2,800032a4 <__ieee754_logf+0x40>
80003388:	00090513          	mv	a0,s2
8000338c:	3b1020ef          	jal	ra,80005f3c <__floatsisf>
80003390:	0fffd597          	auipc	a1,0xfffd
80003394:	f4c5a583          	lw	a1,-180(a1) # 900002dc <_impure_ptr+0x100>
80003398:	00050493          	mv	s1,a0
8000339c:	378020ef          	jal	ra,80005714 <__mulsf3>
800033a0:	00050413          	mv	s0,a0
800033a4:	0fffd597          	auipc	a1,0xfffd
800033a8:	f3c5a583          	lw	a1,-196(a1) # 900002e0 <_impure_ptr+0x104>
800033ac:	00048513          	mv	a0,s1
800033b0:	364020ef          	jal	ra,80005714 <__mulsf3>
800033b4:	00050593          	mv	a1,a0
800033b8:	00040513          	mv	a0,s0
800033bc:	f35ff06f          	j	800032f0 <__ieee754_logf+0x8c>
800033c0:	0fffd597          	auipc	a1,0xfffd
800033c4:	ef05a583          	lw	a1,-272(a1) # 900002b0 <_impure_ptr+0xd4>
800033c8:	00040513          	mv	a0,s0
800033cc:	348020ef          	jal	ra,80005714 <__mulsf3>
800033d0:	00050593          	mv	a1,a0
800033d4:	0fffd517          	auipc	a0,0xfffd
800033d8:	e8852503          	lw	a0,-376(a0) # 9000025c <_impure_ptr+0x80>
800033dc:	640020ef          	jal	ra,80005a1c <__subsf3>
800033e0:	00050493          	mv	s1,a0
800033e4:	00040593          	mv	a1,s0
800033e8:	00040513          	mv	a0,s0
800033ec:	328020ef          	jal	ra,80005714 <__mulsf3>
800033f0:	00050593          	mv	a1,a0
800033f4:	00048513          	mv	a0,s1
800033f8:	31c020ef          	jal	ra,80005714 <__mulsf3>
800033fc:	00050493          	mv	s1,a0
80003400:	00091663          	bnez	s2,8000340c <__ieee754_logf+0x1a8>
80003404:	00048593          	mv	a1,s1
80003408:	1740006f          	j	8000357c <__ieee754_logf+0x318>
8000340c:	00090513          	mv	a0,s2
80003410:	32d020ef          	jal	ra,80005f3c <__floatsisf>
80003414:	0fffd597          	auipc	a1,0xfffd
80003418:	ec85a583          	lw	a1,-312(a1) # 900002dc <_impure_ptr+0x100>
8000341c:	00050993          	mv	s3,a0
80003420:	2f4020ef          	jal	ra,80005714 <__mulsf3>
80003424:	00050913          	mv	s2,a0
80003428:	0fffd597          	auipc	a1,0xfffd
8000342c:	eb85a583          	lw	a1,-328(a1) # 900002e0 <_impure_ptr+0x104>
80003430:	00098513          	mv	a0,s3
80003434:	2e0020ef          	jal	ra,80005714 <__mulsf3>
80003438:	17c0006f          	j	800035b4 <__ieee754_logf+0x350>
8000343c:	0fffd597          	auipc	a1,0xfffd
80003440:	e0c5a583          	lw	a1,-500(a1) # 90000248 <_impure_ptr+0x6c>
80003444:	16d010ef          	jal	ra,80004db0 <__addsf3>
80003448:	00050593          	mv	a1,a0
8000344c:	00040513          	mv	a0,s0
80003450:	5bd010ef          	jal	ra,8000520c <__divsf3>
80003454:	00050a93          	mv	s5,a0
80003458:	00090513          	mv	a0,s2
8000345c:	2e1020ef          	jal	ra,80005f3c <__floatsisf>
80003460:	000a8593          	mv	a1,s5
80003464:	00050a13          	mv	s4,a0
80003468:	000a8513          	mv	a0,s5
8000346c:	2a8020ef          	jal	ra,80005714 <__mulsf3>
80003470:	ffcf67b7          	lui	a5,0xffcf6
80003474:	c3078793          	addi	a5,a5,-976 # ffcf5c30 <_sp+0x6fce5c30>
80003478:	00050593          	mv	a1,a0
8000347c:	00f48b33          	add	s6,s1,a5
80003480:	00050b93          	mv	s7,a0
80003484:	290020ef          	jal	ra,80005714 <__mulsf3>
80003488:	0fffd597          	auipc	a1,0xfffd
8000348c:	e7c5a583          	lw	a1,-388(a1) # 90000304 <_impure_ptr+0x128>
80003490:	00050993          	mv	s3,a0
80003494:	280020ef          	jal	ra,80005714 <__mulsf3>
80003498:	0fffd597          	auipc	a1,0xfffd
8000349c:	e705a583          	lw	a1,-400(a1) # 90000308 <_impure_ptr+0x12c>
800034a0:	111010ef          	jal	ra,80004db0 <__addsf3>
800034a4:	00098593          	mv	a1,s3
800034a8:	26c020ef          	jal	ra,80005714 <__mulsf3>
800034ac:	0fffd597          	auipc	a1,0xfffd
800034b0:	e605a583          	lw	a1,-416(a1) # 9000030c <_impure_ptr+0x130>
800034b4:	0fd010ef          	jal	ra,80004db0 <__addsf3>
800034b8:	00098593          	mv	a1,s3
800034bc:	258020ef          	jal	ra,80005714 <__mulsf3>
800034c0:	0fffd597          	auipc	a1,0xfffd
800034c4:	e505a583          	lw	a1,-432(a1) # 90000310 <_impure_ptr+0x134>
800034c8:	0e9010ef          	jal	ra,80004db0 <__addsf3>
800034cc:	000b8593          	mv	a1,s7
800034d0:	244020ef          	jal	ra,80005714 <__mulsf3>
800034d4:	00050b93          	mv	s7,a0
800034d8:	0fffd597          	auipc	a1,0xfffd
800034dc:	e3c5a583          	lw	a1,-452(a1) # 90000314 <_impure_ptr+0x138>
800034e0:	00098513          	mv	a0,s3
800034e4:	230020ef          	jal	ra,80005714 <__mulsf3>
800034e8:	0fffd597          	auipc	a1,0xfffd
800034ec:	e305a583          	lw	a1,-464(a1) # 90000318 <_impure_ptr+0x13c>
800034f0:	0c1010ef          	jal	ra,80004db0 <__addsf3>
800034f4:	00098593          	mv	a1,s3
800034f8:	21c020ef          	jal	ra,80005714 <__mulsf3>
800034fc:	0fffd597          	auipc	a1,0xfffd
80003500:	e205a583          	lw	a1,-480(a1) # 9000031c <_impure_ptr+0x140>
80003504:	0ad010ef          	jal	ra,80004db0 <__addsf3>
80003508:	00098593          	mv	a1,s3
8000350c:	208020ef          	jal	ra,80005714 <__mulsf3>
80003510:	00050593          	mv	a1,a0
80003514:	000b8513          	mv	a0,s7
80003518:	099010ef          	jal	ra,80004db0 <__addsf3>
8000351c:	0035c7b7          	lui	a5,0x35c
80003520:	28878793          	addi	a5,a5,648 # 35c288 <__stack_size+0x35ba88>
80003524:	409787b3          	sub	a5,a5,s1
80003528:	0167e7b3          	or	a5,a5,s6
8000352c:	00050993          	mv	s3,a0
80003530:	0af05263          	blez	a5,800035d4 <__ieee754_logf+0x370>
80003534:	0fffd597          	auipc	a1,0xfffd
80003538:	d285a583          	lw	a1,-728(a1) # 9000025c <_impure_ptr+0x80>
8000353c:	00040513          	mv	a0,s0
80003540:	1d4020ef          	jal	ra,80005714 <__mulsf3>
80003544:	00040593          	mv	a1,s0
80003548:	1cc020ef          	jal	ra,80005714 <__mulsf3>
8000354c:	00050593          	mv	a1,a0
80003550:	00050493          	mv	s1,a0
80003554:	00098513          	mv	a0,s3
80003558:	059010ef          	jal	ra,80004db0 <__addsf3>
8000355c:	000a8593          	mv	a1,s5
80003560:	1b4020ef          	jal	ra,80005714 <__mulsf3>
80003564:	00050993          	mv	s3,a0
80003568:	02091063          	bnez	s2,80003588 <__ieee754_logf+0x324>
8000356c:	00050593          	mv	a1,a0
80003570:	00048513          	mv	a0,s1
80003574:	4a8020ef          	jal	ra,80005a1c <__subsf3>
80003578:	00050593          	mv	a1,a0
8000357c:	00040513          	mv	a0,s0
80003580:	49c020ef          	jal	ra,80005a1c <__subsf3>
80003584:	d21ff06f          	j	800032a4 <__ieee754_logf+0x40>
80003588:	0fffd597          	auipc	a1,0xfffd
8000358c:	d545a583          	lw	a1,-684(a1) # 900002dc <_impure_ptr+0x100>
80003590:	000a0513          	mv	a0,s4
80003594:	180020ef          	jal	ra,80005714 <__mulsf3>
80003598:	0fffd597          	auipc	a1,0xfffd
8000359c:	d485a583          	lw	a1,-696(a1) # 900002e0 <_impure_ptr+0x104>
800035a0:	00050913          	mv	s2,a0
800035a4:	000a0513          	mv	a0,s4
800035a8:	16c020ef          	jal	ra,80005714 <__mulsf3>
800035ac:	00098593          	mv	a1,s3
800035b0:	001010ef          	jal	ra,80004db0 <__addsf3>
800035b4:	00050593          	mv	a1,a0
800035b8:	00048513          	mv	a0,s1
800035bc:	460020ef          	jal	ra,80005a1c <__subsf3>
800035c0:	00040593          	mv	a1,s0
800035c4:	458020ef          	jal	ra,80005a1c <__subsf3>
800035c8:	00050593          	mv	a1,a0
800035cc:	00090513          	mv	a0,s2
800035d0:	fb1ff06f          	j	80003580 <__ieee754_logf+0x31c>
800035d4:	00050593          	mv	a1,a0
800035d8:	00040513          	mv	a0,s0
800035dc:	440020ef          	jal	ra,80005a1c <__subsf3>
800035e0:	000a8593          	mv	a1,s5
800035e4:	130020ef          	jal	ra,80005714 <__mulsf3>
800035e8:	00050493          	mv	s1,a0
800035ec:	e0090ce3          	beqz	s2,80003404 <__ieee754_logf+0x1a0>
800035f0:	0fffd597          	auipc	a1,0xfffd
800035f4:	cec5a583          	lw	a1,-788(a1) # 900002dc <_impure_ptr+0x100>
800035f8:	000a0513          	mv	a0,s4
800035fc:	118020ef          	jal	ra,80005714 <__mulsf3>
80003600:	00050913          	mv	s2,a0
80003604:	0fffd597          	auipc	a1,0xfffd
80003608:	cdc5a583          	lw	a1,-804(a1) # 900002e0 <_impure_ptr+0x104>
8000360c:	000a0513          	mv	a0,s4
80003610:	e25ff06f          	j	80003434 <__ieee754_logf+0x1d0>

80003614 <__ieee754_rem_pio2f>:
__ieee754_rem_pio2f():
80003614:	fc010113          	addi	sp,sp,-64
80003618:	02912a23          	sw	s1,52(sp)
8000361c:	3f491737          	lui	a4,0x3f491
80003620:	00151493          	slli	s1,a0,0x1
80003624:	02812c23          	sw	s0,56(sp)
80003628:	02112e23          	sw	ra,60(sp)
8000362c:	03212823          	sw	s2,48(sp)
80003630:	03312623          	sw	s3,44(sp)
80003634:	03412423          	sw	s4,40(sp)
80003638:	03512223          	sw	s5,36(sp)
8000363c:	03612023          	sw	s6,32(sp)
80003640:	01712e23          	sw	s7,28(sp)
80003644:	0014d493          	srli	s1,s1,0x1
80003648:	fd870713          	addi	a4,a4,-40 # 3f490fd8 <__stack_size+0x3f4907d8>
8000364c:	00058413          	mv	s0,a1
80003650:	00974c63          	blt	a4,s1,80003668 <__ieee754_rem_pio2f+0x54>
80003654:	00a42023          	sw	a0,0(s0)
80003658:	00000793          	li	a5,0
8000365c:	00f5a223          	sw	a5,4(a1)
80003660:	00000b93          	li	s7,0
80003664:	0680006f          	j	800036cc <__ieee754_rem_pio2f+0xb8>
80003668:	4016d737          	lui	a4,0x4016d
8000366c:	be370713          	addi	a4,a4,-1053 # 4016cbe3 <__stack_size+0x4016c3e3>
80003670:	00050913          	mv	s2,a0
80003674:	14974063          	blt	a4,s1,800037b4 <__ieee754_rem_pio2f+0x1a0>
80003678:	ff04f493          	andi	s1,s1,-16
8000367c:	0fffd597          	auipc	a1,0xfffd
80003680:	ca45a583          	lw	a1,-860(a1) # 90000320 <_impure_ptr+0x144>
80003684:	0aa05863          	blez	a0,80003734 <__ieee754_rem_pio2f+0x120>
80003688:	394020ef          	jal	ra,80005a1c <__subsf3>
8000368c:	3fc917b7          	lui	a5,0x3fc91
80003690:	fd078793          	addi	a5,a5,-48 # 3fc90fd0 <__stack_size+0x3fc907d0>
80003694:	00050913          	mv	s2,a0
80003698:	06f48263          	beq	s1,a5,800036fc <__ieee754_rem_pio2f+0xe8>
8000369c:	0fffd597          	auipc	a1,0xfffd
800036a0:	c885a583          	lw	a1,-888(a1) # 90000324 <_impure_ptr+0x148>
800036a4:	378020ef          	jal	ra,80005a1c <__subsf3>
800036a8:	00050593          	mv	a1,a0
800036ac:	00a42023          	sw	a0,0(s0)
800036b0:	00090513          	mv	a0,s2
800036b4:	368020ef          	jal	ra,80005a1c <__subsf3>
800036b8:	0fffd597          	auipc	a1,0xfffd
800036bc:	c6c5a583          	lw	a1,-916(a1) # 90000324 <_impure_ptr+0x148>
800036c0:	35c020ef          	jal	ra,80005a1c <__subsf3>
800036c4:	00a42223          	sw	a0,4(s0)
800036c8:	00100b93          	li	s7,1
800036cc:	03c12083          	lw	ra,60(sp)
800036d0:	03812403          	lw	s0,56(sp)
800036d4:	03412483          	lw	s1,52(sp)
800036d8:	03012903          	lw	s2,48(sp)
800036dc:	02c12983          	lw	s3,44(sp)
800036e0:	02812a03          	lw	s4,40(sp)
800036e4:	02412a83          	lw	s5,36(sp)
800036e8:	02012b03          	lw	s6,32(sp)
800036ec:	000b8513          	mv	a0,s7
800036f0:	01c12b83          	lw	s7,28(sp)
800036f4:	04010113          	addi	sp,sp,64
800036f8:	00008067          	ret
800036fc:	0fffd597          	auipc	a1,0xfffd
80003700:	c2c5a583          	lw	a1,-980(a1) # 90000328 <_impure_ptr+0x14c>
80003704:	318020ef          	jal	ra,80005a1c <__subsf3>
80003708:	0fffd597          	auipc	a1,0xfffd
8000370c:	c245a583          	lw	a1,-988(a1) # 9000032c <_impure_ptr+0x150>
80003710:	00050493          	mv	s1,a0
80003714:	308020ef          	jal	ra,80005a1c <__subsf3>
80003718:	00050593          	mv	a1,a0
8000371c:	00a42023          	sw	a0,0(s0)
80003720:	00048513          	mv	a0,s1
80003724:	2f8020ef          	jal	ra,80005a1c <__subsf3>
80003728:	0fffd597          	auipc	a1,0xfffd
8000372c:	c045a583          	lw	a1,-1020(a1) # 9000032c <_impure_ptr+0x150>
80003730:	f91ff06f          	j	800036c0 <__ieee754_rem_pio2f+0xac>
80003734:	67c010ef          	jal	ra,80004db0 <__addsf3>
80003738:	3fc917b7          	lui	a5,0x3fc91
8000373c:	fd078793          	addi	a5,a5,-48 # 3fc90fd0 <__stack_size+0x3fc907d0>
80003740:	00050913          	mv	s2,a0
80003744:	02f48c63          	beq	s1,a5,8000377c <__ieee754_rem_pio2f+0x168>
80003748:	0fffd597          	auipc	a1,0xfffd
8000374c:	bdc5a583          	lw	a1,-1060(a1) # 90000324 <_impure_ptr+0x148>
80003750:	660010ef          	jal	ra,80004db0 <__addsf3>
80003754:	00050593          	mv	a1,a0
80003758:	00a42023          	sw	a0,0(s0)
8000375c:	00090513          	mv	a0,s2
80003760:	2bc020ef          	jal	ra,80005a1c <__subsf3>
80003764:	0fffd597          	auipc	a1,0xfffd
80003768:	bc05a583          	lw	a1,-1088(a1) # 90000324 <_impure_ptr+0x148>
8000376c:	644010ef          	jal	ra,80004db0 <__addsf3>
80003770:	00a42223          	sw	a0,4(s0)
80003774:	fff00b93          	li	s7,-1
80003778:	f55ff06f          	j	800036cc <__ieee754_rem_pio2f+0xb8>
8000377c:	0fffd597          	auipc	a1,0xfffd
80003780:	bac5a583          	lw	a1,-1108(a1) # 90000328 <_impure_ptr+0x14c>
80003784:	62c010ef          	jal	ra,80004db0 <__addsf3>
80003788:	0fffd597          	auipc	a1,0xfffd
8000378c:	ba45a583          	lw	a1,-1116(a1) # 9000032c <_impure_ptr+0x150>
80003790:	00050493          	mv	s1,a0
80003794:	61c010ef          	jal	ra,80004db0 <__addsf3>
80003798:	00050593          	mv	a1,a0
8000379c:	00a42023          	sw	a0,0(s0)
800037a0:	00048513          	mv	a0,s1
800037a4:	278020ef          	jal	ra,80005a1c <__subsf3>
800037a8:	0fffd597          	auipc	a1,0xfffd
800037ac:	b845a583          	lw	a1,-1148(a1) # 9000032c <_impure_ptr+0x150>
800037b0:	fbdff06f          	j	8000376c <__ieee754_rem_pio2f+0x158>
800037b4:	43491737          	lui	a4,0x43491
800037b8:	f8070713          	addi	a4,a4,-128 # 43490f80 <__stack_size+0x43490780>
800037bc:	1e974063          	blt	a4,s1,8000399c <__ieee754_rem_pio2f+0x388>
800037c0:	d34ff0ef          	jal	ra,80002cf4 <fabsf>
800037c4:	0fffd597          	auipc	a1,0xfffd
800037c8:	b6c5a583          	lw	a1,-1172(a1) # 90000330 <_impure_ptr+0x154>
800037cc:	00050a13          	mv	s4,a0
800037d0:	745010ef          	jal	ra,80005714 <__mulsf3>
800037d4:	0fffd597          	auipc	a1,0xfffd
800037d8:	a885a583          	lw	a1,-1400(a1) # 9000025c <_impure_ptr+0x80>
800037dc:	5d4010ef          	jal	ra,80004db0 <__addsf3>
800037e0:	6ec020ef          	jal	ra,80005ecc <__fixsfsi>
800037e4:	00050b93          	mv	s7,a0
800037e8:	754020ef          	jal	ra,80005f3c <__floatsisf>
800037ec:	0fffd597          	auipc	a1,0xfffd
800037f0:	b345a583          	lw	a1,-1228(a1) # 90000320 <_impure_ptr+0x144>
800037f4:	00050993          	mv	s3,a0
800037f8:	71d010ef          	jal	ra,80005714 <__mulsf3>
800037fc:	00050593          	mv	a1,a0
80003800:	000a0513          	mv	a0,s4
80003804:	218020ef          	jal	ra,80005a1c <__subsf3>
80003808:	00050a93          	mv	s5,a0
8000380c:	0fffd597          	auipc	a1,0xfffd
80003810:	b185a583          	lw	a1,-1256(a1) # 90000324 <_impure_ptr+0x148>
80003814:	00098513          	mv	a0,s3
80003818:	6fd010ef          	jal	ra,80005714 <__mulsf3>
8000381c:	01f00793          	li	a5,31
80003820:	00050a13          	mv	s4,a0
80003824:	00050593          	mv	a1,a0
80003828:	000a8513          	mv	a0,s5
8000382c:	0377c663          	blt	a5,s7,80003858 <__ieee754_rem_pio2f+0x244>
80003830:	fffb8713          	addi	a4,s7,-1
80003834:	00271693          	slli	a3,a4,0x2
80003838:	0000a717          	auipc	a4,0xa
8000383c:	f5c70713          	addi	a4,a4,-164 # 8000d794 <npio2_hw>
80003840:	00d70733          	add	a4,a4,a3
80003844:	00072703          	lw	a4,0(a4)
80003848:	f004f793          	andi	a5,s1,-256
8000384c:	00e78663          	beq	a5,a4,80003858 <__ieee754_rem_pio2f+0x244>
80003850:	1cc020ef          	jal	ra,80005a1c <__subsf3>
80003854:	0200006f          	j	80003874 <__ieee754_rem_pio2f+0x260>
80003858:	1c4020ef          	jal	ra,80005a1c <__subsf3>
8000385c:	01755793          	srli	a5,a0,0x17
80003860:	4174d493          	srai	s1,s1,0x17
80003864:	0ff7f793          	andi	a5,a5,255
80003868:	40f487b3          	sub	a5,s1,a5
8000386c:	00800713          	li	a4,8
80003870:	00f74663          	blt	a4,a5,8000387c <__ieee754_rem_pio2f+0x268>
80003874:	00a42023          	sw	a0,0(s0)
80003878:	0840006f          	j	800038fc <__ieee754_rem_pio2f+0x2e8>
8000387c:	0fffd597          	auipc	a1,0xfffd
80003880:	aac5a583          	lw	a1,-1364(a1) # 90000328 <_impure_ptr+0x14c>
80003884:	00098513          	mv	a0,s3
80003888:	68d010ef          	jal	ra,80005714 <__mulsf3>
8000388c:	00050a13          	mv	s4,a0
80003890:	00050593          	mv	a1,a0
80003894:	000a8513          	mv	a0,s5
80003898:	184020ef          	jal	ra,80005a1c <__subsf3>
8000389c:	00050593          	mv	a1,a0
800038a0:	00050b13          	mv	s6,a0
800038a4:	000a8513          	mv	a0,s5
800038a8:	174020ef          	jal	ra,80005a1c <__subsf3>
800038ac:	000a0593          	mv	a1,s4
800038b0:	16c020ef          	jal	ra,80005a1c <__subsf3>
800038b4:	00050a13          	mv	s4,a0
800038b8:	0fffd597          	auipc	a1,0xfffd
800038bc:	a745a583          	lw	a1,-1420(a1) # 9000032c <_impure_ptr+0x150>
800038c0:	00098513          	mv	a0,s3
800038c4:	651010ef          	jal	ra,80005714 <__mulsf3>
800038c8:	000a0593          	mv	a1,s4
800038cc:	150020ef          	jal	ra,80005a1c <__subsf3>
800038d0:	00050593          	mv	a1,a0
800038d4:	00050a13          	mv	s4,a0
800038d8:	000b0513          	mv	a0,s6
800038dc:	140020ef          	jal	ra,80005a1c <__subsf3>
800038e0:	01755713          	srli	a4,a0,0x17
800038e4:	0ff77713          	andi	a4,a4,255
800038e8:	40e484b3          	sub	s1,s1,a4
800038ec:	01900713          	li	a4,25
800038f0:	04974463          	blt	a4,s1,80003938 <__ieee754_rem_pio2f+0x324>
800038f4:	00a42023          	sw	a0,0(s0)
800038f8:	000b0a93          	mv	s5,s6
800038fc:	00042483          	lw	s1,0(s0)
80003900:	000a8513          	mv	a0,s5
80003904:	00048593          	mv	a1,s1
80003908:	114020ef          	jal	ra,80005a1c <__subsf3>
8000390c:	000a0593          	mv	a1,s4
80003910:	10c020ef          	jal	ra,80005a1c <__subsf3>
80003914:	00a42223          	sw	a0,4(s0)
80003918:	da095ae3          	bgez	s2,800036cc <__ieee754_rem_pio2f+0xb8>
8000391c:	800007b7          	lui	a5,0x80000
80003920:	0097c4b3          	xor	s1,a5,s1
80003924:	00942023          	sw	s1,0(s0)
80003928:	00a7c7b3          	xor	a5,a5,a0
8000392c:	00f42223          	sw	a5,4(s0)
80003930:	41700bb3          	neg	s7,s7
80003934:	d99ff06f          	j	800036cc <__ieee754_rem_pio2f+0xb8>
80003938:	0fffd597          	auipc	a1,0xfffd
8000393c:	9fc5a583          	lw	a1,-1540(a1) # 90000334 <_impure_ptr+0x158>
80003940:	00098513          	mv	a0,s3
80003944:	5d1010ef          	jal	ra,80005714 <__mulsf3>
80003948:	00050493          	mv	s1,a0
8000394c:	00050593          	mv	a1,a0
80003950:	000b0513          	mv	a0,s6
80003954:	0c8020ef          	jal	ra,80005a1c <__subsf3>
80003958:	00050593          	mv	a1,a0
8000395c:	00050a93          	mv	s5,a0
80003960:	000b0513          	mv	a0,s6
80003964:	0b8020ef          	jal	ra,80005a1c <__subsf3>
80003968:	00048593          	mv	a1,s1
8000396c:	0b0020ef          	jal	ra,80005a1c <__subsf3>
80003970:	00050493          	mv	s1,a0
80003974:	0fffd597          	auipc	a1,0xfffd
80003978:	9c45a583          	lw	a1,-1596(a1) # 90000338 <_impure_ptr+0x15c>
8000397c:	00098513          	mv	a0,s3
80003980:	595010ef          	jal	ra,80005714 <__mulsf3>
80003984:	00048593          	mv	a1,s1
80003988:	094020ef          	jal	ra,80005a1c <__subsf3>
8000398c:	00050a13          	mv	s4,a0
80003990:	00050593          	mv	a1,a0
80003994:	000a8513          	mv	a0,s5
80003998:	eb9ff06f          	j	80003850 <__ieee754_rem_pio2f+0x23c>
8000399c:	7f800737          	lui	a4,0x7f800
800039a0:	00e4cc63          	blt	s1,a4,800039b8 <__ieee754_rem_pio2f+0x3a4>
800039a4:	00050593          	mv	a1,a0
800039a8:	074020ef          	jal	ra,80005a1c <__subsf3>
800039ac:	00a42223          	sw	a0,4(s0)
800039b0:	00a42023          	sw	a0,0(s0)
800039b4:	cadff06f          	j	80003660 <__ieee754_rem_pio2f+0x4c>
800039b8:	4174da13          	srai	s4,s1,0x17
800039bc:	f7aa0a13          	addi	s4,s4,-134
800039c0:	017a1793          	slli	a5,s4,0x17
800039c4:	40f484b3          	sub	s1,s1,a5
800039c8:	00048513          	mv	a0,s1
800039cc:	500020ef          	jal	ra,80005ecc <__fixsfsi>
800039d0:	56c020ef          	jal	ra,80005f3c <__floatsisf>
800039d4:	00050593          	mv	a1,a0
800039d8:	00a12223          	sw	a0,4(sp)
800039dc:	00048513          	mv	a0,s1
800039e0:	03c020ef          	jal	ra,80005a1c <__subsf3>
800039e4:	0fffd597          	auipc	a1,0xfffd
800039e8:	9585a583          	lw	a1,-1704(a1) # 9000033c <_impure_ptr+0x160>
800039ec:	529010ef          	jal	ra,80005714 <__mulsf3>
800039f0:	00050993          	mv	s3,a0
800039f4:	4d8020ef          	jal	ra,80005ecc <__fixsfsi>
800039f8:	544020ef          	jal	ra,80005f3c <__floatsisf>
800039fc:	00050593          	mv	a1,a0
80003a00:	00a12423          	sw	a0,8(sp)
80003a04:	00050493          	mv	s1,a0
80003a08:	00098513          	mv	a0,s3
80003a0c:	010020ef          	jal	ra,80005a1c <__subsf3>
80003a10:	0fffd597          	auipc	a1,0xfffd
80003a14:	92c5a583          	lw	a1,-1748(a1) # 9000033c <_impure_ptr+0x160>
80003a18:	4fd010ef          	jal	ra,80005714 <__mulsf3>
80003a1c:	00000593          	li	a1,0
80003a20:	00a12623          	sw	a0,12(sp)
80003a24:	321010ef          	jal	ra,80005544 <__eqsf2>
80003a28:	00300693          	li	a3,3
80003a2c:	00051c63          	bnez	a0,80003a44 <__ieee754_rem_pio2f+0x430>
80003a30:	00000593          	li	a1,0
80003a34:	00048513          	mv	a0,s1
80003a38:	30d010ef          	jal	ra,80005544 <__eqsf2>
80003a3c:	00a036b3          	snez	a3,a0
80003a40:	00168693          	addi	a3,a3,1 # 800001 <__stack_size+0x7ff801>
80003a44:	0000a797          	auipc	a5,0xa
80003a48:	dd078793          	addi	a5,a5,-560 # 8000d814 <two_over_pi>
80003a4c:	00200713          	li	a4,2
80003a50:	000a0613          	mv	a2,s4
80003a54:	00040593          	mv	a1,s0
80003a58:	00410513          	addi	a0,sp,4
80003a5c:	2e4000ef          	jal	ra,80003d40 <__kernel_rem_pio2f>
80003a60:	00050b93          	mv	s7,a0
80003a64:	c60954e3          	bgez	s2,800036cc <__ieee754_rem_pio2f+0xb8>
80003a68:	00042703          	lw	a4,0(s0)
80003a6c:	00442783          	lw	a5,4(s0)
80003a70:	800006b7          	lui	a3,0x80000
80003a74:	00d74733          	xor	a4,a4,a3
80003a78:	00e42023          	sw	a4,0(s0)
80003a7c:	00d7c7b3          	xor	a5,a5,a3
80003a80:	eadff06f          	j	8000392c <__ieee754_rem_pio2f+0x318>

80003a84 <__ieee754_sqrtf>:
__ieee754_sqrtf():
80003a84:	ff010113          	addi	sp,sp,-16
80003a88:	00151713          	slli	a4,a0,0x1
80003a8c:	00812423          	sw	s0,8(sp)
80003a90:	00112623          	sw	ra,12(sp)
80003a94:	00175713          	srli	a4,a4,0x1
80003a98:	7f8007b7          	lui	a5,0x7f800
80003a9c:	00050413          	mv	s0,a0
80003aa0:	02f76863          	bltu	a4,a5,80003ad0 <__ieee754_sqrtf+0x4c>
80003aa4:	00050593          	mv	a1,a0
80003aa8:	46d010ef          	jal	ra,80005714 <__mulsf3>
80003aac:	00050593          	mv	a1,a0
80003ab0:	00040513          	mv	a0,s0
80003ab4:	2fc010ef          	jal	ra,80004db0 <__addsf3>
80003ab8:	00050413          	mv	s0,a0
80003abc:	00c12083          	lw	ra,12(sp)
80003ac0:	00040513          	mv	a0,s0
80003ac4:	00812403          	lw	s0,8(sp)
80003ac8:	01010113          	addi	sp,sp,16
80003acc:	00008067          	ret
80003ad0:	fe0706e3          	beqz	a4,80003abc <__ieee754_sqrtf+0x38>
80003ad4:	00050713          	mv	a4,a0
80003ad8:	00055c63          	bgez	a0,80003af0 <__ieee754_sqrtf+0x6c>
80003adc:	00050593          	mv	a1,a0
80003ae0:	73d010ef          	jal	ra,80005a1c <__subsf3>
80003ae4:	00050593          	mv	a1,a0
80003ae8:	724010ef          	jal	ra,8000520c <__divsf3>
80003aec:	fcdff06f          	j	80003ab8 <__ieee754_sqrtf+0x34>
80003af0:	00a7f7b3          	and	a5,a5,a0
80003af4:	41755693          	srai	a3,a0,0x17
80003af8:	0a078063          	beqz	a5,80003b98 <__ieee754_sqrtf+0x114>
80003afc:	f8168413          	addi	s0,a3,-127 # 7fffff81 <_sp+0xeffeff81>
80003b00:	008006b7          	lui	a3,0x800
80003b04:	fff68793          	addi	a5,a3,-1 # 7fffff <__stack_size+0x7ff7ff>
80003b08:	00f777b3          	and	a5,a4,a5
80003b0c:	00147713          	andi	a4,s0,1
80003b10:	00d7e7b3          	or	a5,a5,a3
80003b14:	00070463          	beqz	a4,80003b1c <__ieee754_sqrtf+0x98>
80003b18:	00179793          	slli	a5,a5,0x1
80003b1c:	40145413          	srai	s0,s0,0x1
80003b20:	00179793          	slli	a5,a5,0x1
80003b24:	01900693          	li	a3,25
80003b28:	00000513          	li	a0,0
80003b2c:	00000593          	li	a1,0
80003b30:	01000737          	lui	a4,0x1000
80003b34:	00e58633          	add	a2,a1,a4
80003b38:	00c7c863          	blt	a5,a2,80003b48 <__ieee754_sqrtf+0xc4>
80003b3c:	00e605b3          	add	a1,a2,a4
80003b40:	40c787b3          	sub	a5,a5,a2
80003b44:	00e50533          	add	a0,a0,a4
80003b48:	fff68693          	addi	a3,a3,-1
80003b4c:	00179793          	slli	a5,a5,0x1
80003b50:	00175713          	srli	a4,a4,0x1
80003b54:	fe0690e3          	bnez	a3,80003b34 <__ieee754_sqrtf+0xb0>
80003b58:	00078663          	beqz	a5,80003b64 <__ieee754_sqrtf+0xe0>
80003b5c:	00150513          	addi	a0,a0,1
80003b60:	ffe57513          	andi	a0,a0,-2
80003b64:	40155513          	srai	a0,a0,0x1
80003b68:	3f0007b7          	lui	a5,0x3f000
80003b6c:	00f50533          	add	a0,a0,a5
80003b70:	01741413          	slli	s0,s0,0x17
80003b74:	00a40433          	add	s0,s0,a0
80003b78:	f45ff06f          	j	80003abc <__ieee754_sqrtf+0x38>
80003b7c:	00171713          	slli	a4,a4,0x1
80003b80:	00178793          	addi	a5,a5,1 # 3f000001 <__stack_size+0x3efff801>
80003b84:	00b77633          	and	a2,a4,a1
80003b88:	fe060ae3          	beqz	a2,80003b7c <__ieee754_sqrtf+0xf8>
80003b8c:	fff78793          	addi	a5,a5,-1
80003b90:	40f686b3          	sub	a3,a3,a5
80003b94:	f69ff06f          	j	80003afc <__ieee754_sqrtf+0x78>
80003b98:	00000793          	li	a5,0
80003b9c:	008005b7          	lui	a1,0x800
80003ba0:	fe5ff06f          	j	80003b84 <__ieee754_sqrtf+0x100>

80003ba4 <__kernel_cosf>:
__kernel_cosf():
80003ba4:	fd010113          	addi	sp,sp,-48
80003ba8:	02812423          	sw	s0,40(sp)
80003bac:	00151413          	slli	s0,a0,0x1
80003bb0:	03212023          	sw	s2,32(sp)
80003bb4:	01412c23          	sw	s4,24(sp)
80003bb8:	02112623          	sw	ra,44(sp)
80003bbc:	02912223          	sw	s1,36(sp)
80003bc0:	01312e23          	sw	s3,28(sp)
80003bc4:	00145413          	srli	s0,s0,0x1
80003bc8:	320007b7          	lui	a5,0x32000
80003bcc:	00050913          	mv	s2,a0
80003bd0:	00058a13          	mv	s4,a1
80003bd4:	00f45663          	bge	s0,a5,80003be0 <__kernel_cosf+0x3c>
80003bd8:	2f4020ef          	jal	ra,80005ecc <__fixsfsi>
80003bdc:	14050c63          	beqz	a0,80003d34 <__kernel_cosf+0x190>
80003be0:	00090593          	mv	a1,s2
80003be4:	00090513          	mv	a0,s2
80003be8:	32d010ef          	jal	ra,80005714 <__mulsf3>
80003bec:	0fffc597          	auipc	a1,0xfffc
80003bf0:	6705a583          	lw	a1,1648(a1) # 9000025c <_impure_ptr+0x80>
80003bf4:	00050493          	mv	s1,a0
80003bf8:	31d010ef          	jal	ra,80005714 <__mulsf3>
80003bfc:	0fffc597          	auipc	a1,0xfffc
80003c00:	7485a583          	lw	a1,1864(a1) # 90000344 <_impure_ptr+0x168>
80003c04:	00050993          	mv	s3,a0
80003c08:	00048513          	mv	a0,s1
80003c0c:	309010ef          	jal	ra,80005714 <__mulsf3>
80003c10:	0fffc597          	auipc	a1,0xfffc
80003c14:	7385a583          	lw	a1,1848(a1) # 90000348 <_impure_ptr+0x16c>
80003c18:	198010ef          	jal	ra,80004db0 <__addsf3>
80003c1c:	00048593          	mv	a1,s1
80003c20:	2f5010ef          	jal	ra,80005714 <__mulsf3>
80003c24:	0fffc597          	auipc	a1,0xfffc
80003c28:	7285a583          	lw	a1,1832(a1) # 9000034c <_impure_ptr+0x170>
80003c2c:	5f1010ef          	jal	ra,80005a1c <__subsf3>
80003c30:	00048593          	mv	a1,s1
80003c34:	2e1010ef          	jal	ra,80005714 <__mulsf3>
80003c38:	0fffc597          	auipc	a1,0xfffc
80003c3c:	7185a583          	lw	a1,1816(a1) # 90000350 <_impure_ptr+0x174>
80003c40:	170010ef          	jal	ra,80004db0 <__addsf3>
80003c44:	00048593          	mv	a1,s1
80003c48:	2cd010ef          	jal	ra,80005714 <__mulsf3>
80003c4c:	0fffc597          	auipc	a1,0xfffc
80003c50:	7085a583          	lw	a1,1800(a1) # 90000354 <_impure_ptr+0x178>
80003c54:	5c9010ef          	jal	ra,80005a1c <__subsf3>
80003c58:	00048593          	mv	a1,s1
80003c5c:	2b9010ef          	jal	ra,80005714 <__mulsf3>
80003c60:	0fffc597          	auipc	a1,0xfffc
80003c64:	6f85a583          	lw	a1,1784(a1) # 90000358 <_impure_ptr+0x17c>
80003c68:	148010ef          	jal	ra,80004db0 <__addsf3>
80003c6c:	00048593          	mv	a1,s1
80003c70:	2a5010ef          	jal	ra,80005714 <__mulsf3>
80003c74:	00048593          	mv	a1,s1
80003c78:	29d010ef          	jal	ra,80005714 <__mulsf3>
80003c7c:	00050493          	mv	s1,a0
80003c80:	000a0593          	mv	a1,s4
80003c84:	00090513          	mv	a0,s2
80003c88:	28d010ef          	jal	ra,80005714 <__mulsf3>
80003c8c:	00050593          	mv	a1,a0
80003c90:	00048513          	mv	a0,s1
80003c94:	589010ef          	jal	ra,80005a1c <__subsf3>
80003c98:	3e99a7b7          	lui	a5,0x3e99a
80003c9c:	99978793          	addi	a5,a5,-1639 # 3e999999 <__stack_size+0x3e999199>
80003ca0:	00050493          	mv	s1,a0
80003ca4:	0487c063          	blt	a5,s0,80003ce4 <__kernel_cosf+0x140>
80003ca8:	00050593          	mv	a1,a0
80003cac:	00098513          	mv	a0,s3
80003cb0:	56d010ef          	jal	ra,80005a1c <__subsf3>
80003cb4:	00050593          	mv	a1,a0
80003cb8:	0fffc517          	auipc	a0,0xfffc
80003cbc:	58052503          	lw	a0,1408(a0) # 90000238 <_impure_ptr+0x5c>
80003cc0:	55d010ef          	jal	ra,80005a1c <__subsf3>
80003cc4:	02c12083          	lw	ra,44(sp)
80003cc8:	02812403          	lw	s0,40(sp)
80003ccc:	02412483          	lw	s1,36(sp)
80003cd0:	02012903          	lw	s2,32(sp)
80003cd4:	01c12983          	lw	s3,28(sp)
80003cd8:	01812a03          	lw	s4,24(sp)
80003cdc:	03010113          	addi	sp,sp,48
80003ce0:	00008067          	ret
80003ce4:	3f4807b7          	lui	a5,0x3f480
80003ce8:	0487c063          	blt	a5,s0,80003d28 <__kernel_cosf+0x184>
80003cec:	ff0005b7          	lui	a1,0xff000
80003cf0:	00b405b3          	add	a1,s0,a1
80003cf4:	0fffc517          	auipc	a0,0xfffc
80003cf8:	54452503          	lw	a0,1348(a0) # 90000238 <_impure_ptr+0x5c>
80003cfc:	00b12623          	sw	a1,12(sp)
80003d00:	51d010ef          	jal	ra,80005a1c <__subsf3>
80003d04:	00c12583          	lw	a1,12(sp)
80003d08:	00050413          	mv	s0,a0
80003d0c:	00098513          	mv	a0,s3
80003d10:	50d010ef          	jal	ra,80005a1c <__subsf3>
80003d14:	00048593          	mv	a1,s1
80003d18:	505010ef          	jal	ra,80005a1c <__subsf3>
80003d1c:	00050593          	mv	a1,a0
80003d20:	00040513          	mv	a0,s0
80003d24:	f9dff06f          	j	80003cc0 <__kernel_cosf+0x11c>
80003d28:	0fffc597          	auipc	a1,0xfffc
80003d2c:	6185a583          	lw	a1,1560(a1) # 90000340 <_impure_ptr+0x164>
80003d30:	fc5ff06f          	j	80003cf4 <__kernel_cosf+0x150>
80003d34:	0fffc517          	auipc	a0,0xfffc
80003d38:	50452503          	lw	a0,1284(a0) # 90000238 <_impure_ptr+0x5c>
80003d3c:	f89ff06f          	j	80003cc4 <__kernel_cosf+0x120>

80003d40 <__kernel_rem_pio2f>:
__kernel_rem_pio2f():
80003d40:	e6010113          	addi	sp,sp,-416
80003d44:	19512223          	sw	s5,388(sp)
80003d48:	00f12623          	sw	a5,12(sp)
80003d4c:	00070a93          	mv	s5,a4
80003d50:	0000a797          	auipc	a5,0xa
80003d54:	e0878793          	addi	a5,a5,-504 # 8000db58 <init_jk>
80003d58:	00271713          	slli	a4,a4,0x2
80003d5c:	00e787b3          	add	a5,a5,a4
80003d60:	19312623          	sw	s3,396(sp)
80003d64:	17712e23          	sw	s7,380(sp)
80003d68:	17812c23          	sw	s8,376(sp)
80003d6c:	17912a23          	sw	s9,372(sp)
80003d70:	17a12823          	sw	s10,368(sp)
80003d74:	17b12623          	sw	s11,364(sp)
80003d78:	18112e23          	sw	ra,412(sp)
80003d7c:	18812c23          	sw	s0,408(sp)
80003d80:	18912a23          	sw	s1,404(sp)
80003d84:	19212823          	sw	s2,400(sp)
80003d88:	19412423          	sw	s4,392(sp)
80003d8c:	19612023          	sw	s6,384(sp)
80003d90:	00a12423          	sw	a0,8(sp)
80003d94:	ffc00713          	li	a4,-4
80003d98:	0007ab83          	lw	s7,0(a5)
80003d9c:	00058993          	mv	s3,a1
80003da0:	00060c13          	mv	s8,a2
80003da4:	00068c93          	mv	s9,a3
80003da8:	fff68d93          	addi	s11,a3,-1
80003dac:	00000d13          	li	s10,0
80003db0:	00e64863          	blt	a2,a4,80003dc0 <__kernel_rem_pio2f+0x80>
80003db4:	ffd60713          	addi	a4,a2,-3
80003db8:	00800793          	li	a5,8
80003dbc:	02f74d33          	div	s10,a4,a5
80003dc0:	001d0793          	addi	a5,s10,1
80003dc4:	00379793          	slli	a5,a5,0x3
80003dc8:	41bd0a33          	sub	s4,s10,s11
80003dcc:	00f12223          	sw	a5,4(sp)
80003dd0:	40fc04b3          	sub	s1,s8,a5
80003dd4:	01bb8b33          	add	s6,s7,s11
80003dd8:	07010913          	addi	s2,sp,112
80003ddc:	000a0413          	mv	s0,s4
80003de0:	41440733          	sub	a4,s0,s4
80003de4:	02eb5663          	bge	s6,a4,80003e10 <__kernel_rem_pio2f+0xd0>
80003de8:	000c8b13          	mv	s6,s9
80003dec:	11010713          	addi	a4,sp,272
80003df0:	419b06b3          	sub	a3,s6,s9
80003df4:	08dbca63          	blt	s7,a3,80003e88 <__kernel_rem_pio2f+0x148>
80003df8:	002b1913          	slli	s2,s6,0x2
80003dfc:	07010793          	addi	a5,sp,112
80003e00:	00f90933          	add	s2,s2,a5
80003e04:	00000413          	li	s0,0
80003e08:	00000a13          	li	s4,0
80003e0c:	0640006f          	j	80003e70 <__kernel_rem_pio2f+0x130>
80003e10:	00000513          	li	a0,0
80003e14:	00044c63          	bltz	s0,80003e2c <__kernel_rem_pio2f+0xec>
80003e18:	00c12783          	lw	a5,12(sp)
80003e1c:	00241713          	slli	a4,s0,0x2
80003e20:	00e78733          	add	a4,a5,a4
80003e24:	00072503          	lw	a0,0(a4) # 1000000 <__stack_size+0xfff800>
80003e28:	114020ef          	jal	ra,80005f3c <__floatsisf>
80003e2c:	00a92023          	sw	a0,0(s2)
80003e30:	00140413          	addi	s0,s0,1
80003e34:	00490913          	addi	s2,s2,4
80003e38:	fa9ff06f          	j	80003de0 <__kernel_rem_pio2f+0xa0>
80003e3c:	00812783          	lw	a5,8(sp)
80003e40:	002a1693          	slli	a3,s4,0x2
80003e44:	00092583          	lw	a1,0(s2)
80003e48:	00d786b3          	add	a3,a5,a3
80003e4c:	0006a503          	lw	a0,0(a3)
80003e50:	00e12823          	sw	a4,16(sp)
80003e54:	001a0a13          	addi	s4,s4,1
80003e58:	0bd010ef          	jal	ra,80005714 <__mulsf3>
80003e5c:	00050593          	mv	a1,a0
80003e60:	00040513          	mv	a0,s0
80003e64:	74d000ef          	jal	ra,80004db0 <__addsf3>
80003e68:	01012703          	lw	a4,16(sp)
80003e6c:	00050413          	mv	s0,a0
80003e70:	ffc90913          	addi	s2,s2,-4
80003e74:	fd4dd4e3          	bge	s11,s4,80003e3c <__kernel_rem_pio2f+0xfc>
80003e78:	00872023          	sw	s0,0(a4)
80003e7c:	001b0b13          	addi	s6,s6,1
80003e80:	00470713          	addi	a4,a4,4
80003e84:	f6dff06f          	j	80003df0 <__kernel_rem_pio2f+0xb0>
80003e88:	002b9713          	slli	a4,s7,0x2
80003e8c:	02010793          	addi	a5,sp,32
80003e90:	00e787b3          	add	a5,a5,a4
80003e94:	00f12c23          	sw	a5,24(sp)
80003e98:	002d1793          	slli	a5,s10,0x2
80003e9c:	00f12a23          	sw	a5,20(sp)
80003ea0:	000b8913          	mv	s2,s7
80003ea4:	00291793          	slli	a5,s2,0x2
80003ea8:	00f12823          	sw	a5,16(sp)
80003eac:	00291713          	slli	a4,s2,0x2
80003eb0:	16010793          	addi	a5,sp,352
80003eb4:	00e787b3          	add	a5,a5,a4
80003eb8:	fb07a403          	lw	s0,-80(a5)
80003ebc:	02010b13          	addi	s6,sp,32
80003ec0:	000b0d13          	mv	s10,s6
80003ec4:	00090a13          	mv	s4,s2
80003ec8:	1b404863          	bgtz	s4,80004078 <__kernel_rem_pio2f+0x338>
80003ecc:	00048593          	mv	a1,s1
80003ed0:	00040513          	mv	a0,s0
80003ed4:	181000ef          	jal	ra,80004854 <scalbnf>
80003ed8:	0fffc797          	auipc	a5,0xfffc
80003edc:	48878793          	addi	a5,a5,1160 # 90000360 <_impure_ptr+0x184>
80003ee0:	0007a583          	lw	a1,0(a5)
80003ee4:	00050413          	mv	s0,a0
80003ee8:	02d010ef          	jal	ra,80005714 <__mulsf3>
80003eec:	079000ef          	jal	ra,80004764 <floorf>
80003ef0:	0fffc797          	auipc	a5,0xfffc
80003ef4:	47478793          	addi	a5,a5,1140 # 90000364 <_impure_ptr+0x188>
80003ef8:	0007a583          	lw	a1,0(a5)
80003efc:	019010ef          	jal	ra,80005714 <__mulsf3>
80003f00:	00050593          	mv	a1,a0
80003f04:	00040513          	mv	a0,s0
80003f08:	315010ef          	jal	ra,80005a1c <__subsf3>
80003f0c:	00050413          	mv	s0,a0
80003f10:	7bd010ef          	jal	ra,80005ecc <__fixsfsi>
80003f14:	00050a13          	mv	s4,a0
80003f18:	024020ef          	jal	ra,80005f3c <__floatsisf>
80003f1c:	00050593          	mv	a1,a0
80003f20:	00040513          	mv	a0,s0
80003f24:	2f9010ef          	jal	ra,80005a1c <__subsf3>
80003f28:	00050d13          	mv	s10,a0
80003f2c:	1a905e63          	blez	s1,800040e8 <__kernel_rem_pio2f+0x3a8>
80003f30:	fff90713          	addi	a4,s2,-1
80003f34:	00271713          	slli	a4,a4,0x2
80003f38:	16010793          	addi	a5,sp,352
80003f3c:	00e78733          	add	a4,a5,a4
80003f40:	ec072403          	lw	s0,-320(a4)
80003f44:	00800613          	li	a2,8
80003f48:	409605b3          	sub	a1,a2,s1
80003f4c:	40b45633          	sra	a2,s0,a1
80003f50:	00ca0a33          	add	s4,s4,a2
80003f54:	00b61633          	sll	a2,a2,a1
80003f58:	40c40433          	sub	s0,s0,a2
80003f5c:	ec872023          	sw	s0,-320(a4)
80003f60:	00700713          	li	a4,7
80003f64:	40970733          	sub	a4,a4,s1
80003f68:	40e45433          	sra	s0,s0,a4
80003f6c:	08805063          	blez	s0,80003fec <__kernel_rem_pio2f+0x2ac>
80003f70:	001a0a13          	addi	s4,s4,1
80003f74:	00000593          	li	a1,0
80003f78:	00000613          	li	a2,0
80003f7c:	0ff00513          	li	a0,255
80003f80:	10000813          	li	a6,256
80003f84:	1b25c263          	blt	a1,s2,80004128 <__kernel_rem_pio2f+0x3e8>
80003f88:	00905a63          	blez	s1,80003f9c <__kernel_rem_pio2f+0x25c>
80003f8c:	00100713          	li	a4,1
80003f90:	1ce48863          	beq	s1,a4,80004160 <__kernel_rem_pio2f+0x420>
80003f94:	00200713          	li	a4,2
80003f98:	1ee48463          	beq	s1,a4,80004180 <__kernel_rem_pio2f+0x440>
80003f9c:	00200713          	li	a4,2
80003fa0:	04e41663          	bne	s0,a4,80003fec <__kernel_rem_pio2f+0x2ac>
80003fa4:	0fffc797          	auipc	a5,0xfffc
80003fa8:	29478793          	addi	a5,a5,660 # 90000238 <_impure_ptr+0x5c>
80003fac:	0007a503          	lw	a0,0(a5)
80003fb0:	000d0593          	mv	a1,s10
80003fb4:	00c12e23          	sw	a2,28(sp)
80003fb8:	265010ef          	jal	ra,80005a1c <__subsf3>
80003fbc:	01c12603          	lw	a2,28(sp)
80003fc0:	00050d13          	mv	s10,a0
80003fc4:	02060463          	beqz	a2,80003fec <__kernel_rem_pio2f+0x2ac>
80003fc8:	0fffc797          	auipc	a5,0xfffc
80003fcc:	27078793          	addi	a5,a5,624 # 90000238 <_impure_ptr+0x5c>
80003fd0:	0007a503          	lw	a0,0(a5)
80003fd4:	00048593          	mv	a1,s1
80003fd8:	07d000ef          	jal	ra,80004854 <scalbnf>
80003fdc:	00050593          	mv	a1,a0
80003fe0:	000d0513          	mv	a0,s10
80003fe4:	239010ef          	jal	ra,80005a1c <__subsf3>
80003fe8:	00050d13          	mv	s10,a0
80003fec:	00000593          	li	a1,0
80003ff0:	000d0513          	mv	a0,s10
80003ff4:	550010ef          	jal	ra,80005544 <__eqsf2>
80003ff8:	28051663          	bnez	a0,80004284 <__kernel_rem_pio2f+0x544>
80003ffc:	fff90b13          	addi	s6,s2,-1
80004000:	000b0793          	mv	a5,s6
80004004:	00000713          	li	a4,0
80004008:	1977da63          	bge	a5,s7,8000419c <__kernel_rem_pio2f+0x45c>
8000400c:	22070063          	beqz	a4,8000422c <__kernel_rem_pio2f+0x4ec>
80004010:	002b1793          	slli	a5,s6,0x2
80004014:	02010713          	addi	a4,sp,32
80004018:	00f707b3          	add	a5,a4,a5
8000401c:	0007a783          	lw	a5,0(a5)
80004020:	ff848493          	addi	s1,s1,-8
80004024:	24078c63          	beqz	a5,8000427c <__kernel_rem_pio2f+0x53c>
80004028:	00048593          	mv	a1,s1
8000402c:	0fffc517          	auipc	a0,0xfffc
80004030:	20c52503          	lw	a0,524(a0) # 90000238 <_impure_ptr+0x5c>
80004034:	021000ef          	jal	ra,80004854 <scalbnf>
80004038:	00050493          	mv	s1,a0
8000403c:	000b0913          	mv	s2,s6
80004040:	0fffcc17          	auipc	s8,0xfffc
80004044:	31cc2c03          	lw	s8,796(s8) # 9000035c <_impure_ptr+0x180>
80004048:	2e095663          	bgez	s2,80004334 <__kernel_rem_pio2f+0x5f4>
8000404c:	000b0913          	mv	s2,s6
80004050:	36094663          	bltz	s2,800043bc <__kernel_rem_pio2f+0x67c>
80004054:	00291c93          	slli	s9,s2,0x2
80004058:	11010793          	addi	a5,sp,272
8000405c:	0000ad97          	auipc	s11,0xa
80004060:	ad0d8d93          	addi	s11,s11,-1328 # 8000db2c <PIo2>
80004064:	00fc8cb3          	add	s9,s9,a5
80004068:	00000c13          	li	s8,0
8000406c:	00000d13          	li	s10,0
80004070:	412b04b3          	sub	s1,s6,s2
80004074:	3280006f          	j	8000439c <__kernel_rem_pio2f+0x65c>
80004078:	0fffc797          	auipc	a5,0xfffc
8000407c:	2e478793          	addi	a5,a5,740 # 9000035c <_impure_ptr+0x180>
80004080:	0007a583          	lw	a1,0(a5)
80004084:	00040513          	mv	a0,s0
80004088:	fffa0a13          	addi	s4,s4,-1
8000408c:	688010ef          	jal	ra,80005714 <__mulsf3>
80004090:	63d010ef          	jal	ra,80005ecc <__fixsfsi>
80004094:	6a9010ef          	jal	ra,80005f3c <__floatsisf>
80004098:	0fffc797          	auipc	a5,0xfffc
8000409c:	2a478793          	addi	a5,a5,676 # 9000033c <_impure_ptr+0x160>
800040a0:	0007a583          	lw	a1,0(a5)
800040a4:	00a12e23          	sw	a0,28(sp)
800040a8:	004d0d13          	addi	s10,s10,4
800040ac:	668010ef          	jal	ra,80005714 <__mulsf3>
800040b0:	00050593          	mv	a1,a0
800040b4:	00040513          	mv	a0,s0
800040b8:	165010ef          	jal	ra,80005a1c <__subsf3>
800040bc:	611010ef          	jal	ra,80005ecc <__fixsfsi>
800040c0:	11010793          	addi	a5,sp,272
800040c4:	002a1613          	slli	a2,s4,0x2
800040c8:	01c12703          	lw	a4,28(sp)
800040cc:	00c78633          	add	a2,a5,a2
800040d0:	00062583          	lw	a1,0(a2)
800040d4:	fead2e23          	sw	a0,-4(s10)
800040d8:	00070513          	mv	a0,a4
800040dc:	4d5000ef          	jal	ra,80004db0 <__addsf3>
800040e0:	00050413          	mv	s0,a0
800040e4:	de5ff06f          	j	80003ec8 <__kernel_rem_pio2f+0x188>
800040e8:	02049063          	bnez	s1,80004108 <__kernel_rem_pio2f+0x3c8>
800040ec:	fff90713          	addi	a4,s2,-1
800040f0:	00271713          	slli	a4,a4,0x2
800040f4:	16010793          	addi	a5,sp,352
800040f8:	00e78733          	add	a4,a5,a4
800040fc:	ec072403          	lw	s0,-320(a4)
80004100:	40845413          	srai	s0,s0,0x8
80004104:	e69ff06f          	j	80003f6c <__kernel_rem_pio2f+0x22c>
80004108:	0fffc797          	auipc	a5,0xfffc
8000410c:	15478793          	addi	a5,a5,340 # 9000025c <_impure_ptr+0x80>
80004110:	0007a583          	lw	a1,0(a5)
80004114:	00000413          	li	s0,0
80004118:	494010ef          	jal	ra,800055ac <__gesf2>
8000411c:	ec0548e3          	bltz	a0,80003fec <__kernel_rem_pio2f+0x2ac>
80004120:	00200413          	li	s0,2
80004124:	e4dff06f          	j	80003f70 <__kernel_rem_pio2f+0x230>
80004128:	000b2703          	lw	a4,0(s6)
8000412c:	02061263          	bnez	a2,80004150 <__kernel_rem_pio2f+0x410>
80004130:	00070863          	beqz	a4,80004140 <__kernel_rem_pio2f+0x400>
80004134:	40e80733          	sub	a4,a6,a4
80004138:	00eb2023          	sw	a4,0(s6)
8000413c:	00100713          	li	a4,1
80004140:	00158593          	addi	a1,a1,1
80004144:	004b0b13          	addi	s6,s6,4
80004148:	00070613          	mv	a2,a4
8000414c:	e39ff06f          	j	80003f84 <__kernel_rem_pio2f+0x244>
80004150:	40e50733          	sub	a4,a0,a4
80004154:	00eb2023          	sw	a4,0(s6)
80004158:	00060713          	mv	a4,a2
8000415c:	fe5ff06f          	j	80004140 <__kernel_rem_pio2f+0x400>
80004160:	fff90713          	addi	a4,s2,-1
80004164:	00271713          	slli	a4,a4,0x2
80004168:	16010793          	addi	a5,sp,352
8000416c:	00e78733          	add	a4,a5,a4
80004170:	ec072683          	lw	a3,-320(a4)
80004174:	07f6f693          	andi	a3,a3,127
80004178:	ecd72023          	sw	a3,-320(a4)
8000417c:	e21ff06f          	j	80003f9c <__kernel_rem_pio2f+0x25c>
80004180:	fff90713          	addi	a4,s2,-1
80004184:	00271713          	slli	a4,a4,0x2
80004188:	16010793          	addi	a5,sp,352
8000418c:	00e78733          	add	a4,a5,a4
80004190:	ec072683          	lw	a3,-320(a4)
80004194:	03f6f693          	andi	a3,a3,63
80004198:	fe1ff06f          	j	80004178 <__kernel_rem_pio2f+0x438>
8000419c:	00279693          	slli	a3,a5,0x2
800041a0:	02010613          	addi	a2,sp,32
800041a4:	00d606b3          	add	a3,a2,a3
800041a8:	0006a683          	lw	a3,0(a3)
800041ac:	fff78793          	addi	a5,a5,-1
800041b0:	00d76733          	or	a4,a4,a3
800041b4:	e55ff06f          	j	80004008 <__kernel_rem_pio2f+0x2c8>
800041b8:	00178793          	addi	a5,a5,1
800041bc:	ffc72683          	lw	a3,-4(a4)
800041c0:	ffc70713          	addi	a4,a4,-4
800041c4:	fe068ae3          	beqz	a3,800041b8 <__kernel_rem_pio2f+0x478>
800041c8:	01990a33          	add	s4,s2,s9
800041cc:	002a1a13          	slli	s4,s4,0x2
800041d0:	07010713          	addi	a4,sp,112
800041d4:	00190d13          	addi	s10,s2,1
800041d8:	01470a33          	add	s4,a4,s4
800041dc:	00f90933          	add	s2,s2,a5
800041e0:	cda942e3          	blt	s2,s10,80003ea4 <__kernel_rem_pio2f+0x164>
800041e4:	01412783          	lw	a5,20(sp)
800041e8:	00c12703          	lw	a4,12(sp)
800041ec:	002d1413          	slli	s0,s10,0x2
800041f0:	008787b3          	add	a5,a5,s0
800041f4:	00f707b3          	add	a5,a4,a5
800041f8:	0007a503          	lw	a0,0(a5)
800041fc:	00000b13          	li	s6,0
80004200:	53d010ef          	jal	ra,80005f3c <__floatsisf>
80004204:	00aa2023          	sw	a0,0(s4)
80004208:	000a0713          	mv	a4,s4
8000420c:	00000793          	li	a5,0
80004210:	02fdd463          	bge	s11,a5,80004238 <__kernel_rem_pio2f+0x4f8>
80004214:	11010793          	addi	a5,sp,272
80004218:	00878433          	add	s0,a5,s0
8000421c:	01642023          	sw	s6,0(s0)
80004220:	001d0d13          	addi	s10,s10,1
80004224:	004a0a13          	addi	s4,s4,4
80004228:	fb9ff06f          	j	800041e0 <__kernel_rem_pio2f+0x4a0>
8000422c:	01812703          	lw	a4,24(sp)
80004230:	00100793          	li	a5,1
80004234:	f89ff06f          	j	800041bc <__kernel_rem_pio2f+0x47c>
80004238:	00279693          	slli	a3,a5,0x2
8000423c:	00f12e23          	sw	a5,28(sp)
80004240:	00812783          	lw	a5,8(sp)
80004244:	00072583          	lw	a1,0(a4)
80004248:	00e12823          	sw	a4,16(sp)
8000424c:	00d786b3          	add	a3,a5,a3
80004250:	0006a503          	lw	a0,0(a3)
80004254:	4c0010ef          	jal	ra,80005714 <__mulsf3>
80004258:	00050593          	mv	a1,a0
8000425c:	000b0513          	mv	a0,s6
80004260:	351000ef          	jal	ra,80004db0 <__addsf3>
80004264:	01c12783          	lw	a5,28(sp)
80004268:	01012703          	lw	a4,16(sp)
8000426c:	00050b13          	mv	s6,a0
80004270:	00178793          	addi	a5,a5,1
80004274:	ffc70713          	addi	a4,a4,-4
80004278:	f99ff06f          	j	80004210 <__kernel_rem_pio2f+0x4d0>
8000427c:	fffb0b13          	addi	s6,s6,-1
80004280:	d91ff06f          	j	80004010 <__kernel_rem_pio2f+0x2d0>
80004284:	00412783          	lw	a5,4(sp)
80004288:	000d0513          	mv	a0,s10
8000428c:	418785b3          	sub	a1,a5,s8
80004290:	5c4000ef          	jal	ra,80004854 <scalbnf>
80004294:	0fffcd17          	auipc	s10,0xfffc
80004298:	0a8d2d03          	lw	s10,168(s10) # 9000033c <_impure_ptr+0x160>
8000429c:	000d0593          	mv	a1,s10
800042a0:	00050c13          	mv	s8,a0
800042a4:	308010ef          	jal	ra,800055ac <__gesf2>
800042a8:	06054663          	bltz	a0,80004314 <__kernel_rem_pio2f+0x5d4>
800042ac:	0fffc597          	auipc	a1,0xfffc
800042b0:	0b05a583          	lw	a1,176(a1) # 9000035c <_impure_ptr+0x180>
800042b4:	000c0513          	mv	a0,s8
800042b8:	45c010ef          	jal	ra,80005714 <__mulsf3>
800042bc:	411010ef          	jal	ra,80005ecc <__fixsfsi>
800042c0:	47d010ef          	jal	ra,80005f3c <__floatsisf>
800042c4:	01012703          	lw	a4,16(sp)
800042c8:	16010793          	addi	a5,sp,352
800042cc:	000d0593          	mv	a1,s10
800042d0:	00e78b33          	add	s6,a5,a4
800042d4:	00050c93          	mv	s9,a0
800042d8:	43c010ef          	jal	ra,80005714 <__mulsf3>
800042dc:	00050593          	mv	a1,a0
800042e0:	000c0513          	mv	a0,s8
800042e4:	738010ef          	jal	ra,80005a1c <__subsf3>
800042e8:	3e5010ef          	jal	ra,80005ecc <__fixsfsi>
800042ec:	ecab2023          	sw	a0,-320(s6)
800042f0:	00190b13          	addi	s6,s2,1
800042f4:	16010793          	addi	a5,sp,352
800042f8:	002b1913          	slli	s2,s6,0x2
800042fc:	000c8513          	mv	a0,s9
80004300:	01278933          	add	s2,a5,s2
80004304:	3c9010ef          	jal	ra,80005ecc <__fixsfsi>
80004308:	00848493          	addi	s1,s1,8
8000430c:	eca92023          	sw	a0,-320(s2)
80004310:	d19ff06f          	j	80004028 <__kernel_rem_pio2f+0x2e8>
80004314:	01012703          	lw	a4,16(sp)
80004318:	16010793          	addi	a5,sp,352
8000431c:	000c0513          	mv	a0,s8
80004320:	00e78b33          	add	s6,a5,a4
80004324:	3a9010ef          	jal	ra,80005ecc <__fixsfsi>
80004328:	ecab2023          	sw	a0,-320(s6)
8000432c:	00090b13          	mv	s6,s2
80004330:	cf9ff06f          	j	80004028 <__kernel_rem_pio2f+0x2e8>
80004334:	00291793          	slli	a5,s2,0x2
80004338:	11010713          	addi	a4,sp,272
8000433c:	00f70cb3          	add	s9,a4,a5
80004340:	02010713          	addi	a4,sp,32
80004344:	00f707b3          	add	a5,a4,a5
80004348:	0007a503          	lw	a0,0(a5)
8000434c:	fff90913          	addi	s2,s2,-1
80004350:	3ed010ef          	jal	ra,80005f3c <__floatsisf>
80004354:	00048593          	mv	a1,s1
80004358:	3bc010ef          	jal	ra,80005714 <__mulsf3>
8000435c:	00aca023          	sw	a0,0(s9)
80004360:	000c0593          	mv	a1,s8
80004364:	00048513          	mv	a0,s1
80004368:	3ac010ef          	jal	ra,80005714 <__mulsf3>
8000436c:	00050493          	mv	s1,a0
80004370:	cd9ff06f          	j	80004048 <__kernel_rem_pio2f+0x308>
80004374:	000ca583          	lw	a1,0(s9)
80004378:	000da503          	lw	a0,0(s11)
8000437c:	001d0d13          	addi	s10,s10,1
80004380:	004d8d93          	addi	s11,s11,4
80004384:	390010ef          	jal	ra,80005714 <__mulsf3>
80004388:	00050593          	mv	a1,a0
8000438c:	000c0513          	mv	a0,s8
80004390:	221000ef          	jal	ra,80004db0 <__addsf3>
80004394:	00050c13          	mv	s8,a0
80004398:	004c8c93          	addi	s9,s9,4
8000439c:	01abc463          	blt	s7,s10,800043a4 <__kernel_rem_pio2f+0x664>
800043a0:	fda4dae3          	bge	s1,s10,80004374 <__kernel_rem_pio2f+0x634>
800043a4:	00249493          	slli	s1,s1,0x2
800043a8:	16010793          	addi	a5,sp,352
800043ac:	009784b3          	add	s1,a5,s1
800043b0:	f784a023          	sw	s8,-160(s1)
800043b4:	fff90913          	addi	s2,s2,-1
800043b8:	c99ff06f          	j	80004050 <__kernel_rem_pio2f+0x310>
800043bc:	00200793          	li	a5,2
800043c0:	0557c863          	blt	a5,s5,80004410 <__kernel_rem_pio2f+0x6d0>
800043c4:	13504c63          	bgtz	s5,800044fc <__kernel_rem_pio2f+0x7bc>
800043c8:	00000513          	li	a0,0
800043cc:	0a0a8c63          	beqz	s5,80004484 <__kernel_rem_pio2f+0x744>
800043d0:	19c12083          	lw	ra,412(sp)
800043d4:	19812403          	lw	s0,408(sp)
800043d8:	19412483          	lw	s1,404(sp)
800043dc:	19012903          	lw	s2,400(sp)
800043e0:	18c12983          	lw	s3,396(sp)
800043e4:	18412a83          	lw	s5,388(sp)
800043e8:	18012b03          	lw	s6,384(sp)
800043ec:	17c12b83          	lw	s7,380(sp)
800043f0:	17812c03          	lw	s8,376(sp)
800043f4:	17412c83          	lw	s9,372(sp)
800043f8:	17012d03          	lw	s10,368(sp)
800043fc:	16c12d83          	lw	s11,364(sp)
80004400:	007a7513          	andi	a0,s4,7
80004404:	18812a03          	lw	s4,392(sp)
80004408:	1a010113          	addi	sp,sp,416
8000440c:	00008067          	ret
80004410:	00300793          	li	a5,3
80004414:	fafa9ee3          	bne	s5,a5,800043d0 <__kernel_rem_pio2f+0x690>
80004418:	002b1493          	slli	s1,s6,0x2
8000441c:	0c010793          	addi	a5,sp,192
80004420:	009784b3          	add	s1,a5,s1
80004424:	00048913          	mv	s2,s1
80004428:	000b0b93          	mv	s7,s6
8000442c:	ffc90913          	addi	s2,s2,-4
80004430:	0f704463          	bgtz	s7,80004518 <__kernel_rem_pio2f+0x7d8>
80004434:	000b0a93          	mv	s5,s6
80004438:	00100c93          	li	s9,1
8000443c:	ffc48493          	addi	s1,s1,-4
80004440:	115cca63          	blt	s9,s5,80004554 <__kernel_rem_pio2f+0x814>
80004444:	00000513          	li	a0,0
80004448:	00100493          	li	s1,1
8000444c:	1564c263          	blt	s1,s6,80004590 <__kernel_rem_pio2f+0x850>
80004450:	0c012683          	lw	a3,192(sp)
80004454:	0c412703          	lw	a4,196(sp)
80004458:	14041a63          	bnez	s0,800045ac <__kernel_rem_pio2f+0x86c>
8000445c:	00d9a023          	sw	a3,0(s3)
80004460:	00e9a223          	sw	a4,4(s3)
80004464:	00a9a423          	sw	a0,8(s3)
80004468:	f69ff06f          	j	800043d0 <__kernel_rem_pio2f+0x690>
8000446c:	002b1793          	slli	a5,s6,0x2
80004470:	0c010713          	addi	a4,sp,192
80004474:	00f707b3          	add	a5,a4,a5
80004478:	0007a583          	lw	a1,0(a5)
8000447c:	fffb0b13          	addi	s6,s6,-1
80004480:	131000ef          	jal	ra,80004db0 <__addsf3>
80004484:	fe0b54e3          	bgez	s6,8000446c <__kernel_rem_pio2f+0x72c>
80004488:	00040663          	beqz	s0,80004494 <__kernel_rem_pio2f+0x754>
8000448c:	800007b7          	lui	a5,0x80000
80004490:	00a7c533          	xor	a0,a5,a0
80004494:	00a9a023          	sw	a0,0(s3)
80004498:	f39ff06f          	j	800043d0 <__kernel_rem_pio2f+0x690>
8000449c:	00249793          	slli	a5,s1,0x2
800044a0:	0c010713          	addi	a4,sp,192
800044a4:	00f707b3          	add	a5,a4,a5
800044a8:	0007a583          	lw	a1,0(a5) # 80000000 <_sp+0xefff0000>
800044ac:	fff48493          	addi	s1,s1,-1
800044b0:	101000ef          	jal	ra,80004db0 <__addsf3>
800044b4:	fe04d4e3          	bgez	s1,8000449c <__kernel_rem_pio2f+0x75c>
800044b8:	00050793          	mv	a5,a0
800044bc:	00040663          	beqz	s0,800044c8 <__kernel_rem_pio2f+0x788>
800044c0:	800007b7          	lui	a5,0x80000
800044c4:	00a7c7b3          	xor	a5,a5,a0
800044c8:	00050593          	mv	a1,a0
800044cc:	0c012503          	lw	a0,192(sp)
800044d0:	00f9a023          	sw	a5,0(s3)
800044d4:	0c010493          	addi	s1,sp,192
800044d8:	544010ef          	jal	ra,80005a1c <__subsf3>
800044dc:	00100913          	li	s2,1
800044e0:	00448493          	addi	s1,s1,4
800044e4:	032b5263          	bge	s6,s2,80004508 <__kernel_rem_pio2f+0x7c8>
800044e8:	00040663          	beqz	s0,800044f4 <__kernel_rem_pio2f+0x7b4>
800044ec:	800007b7          	lui	a5,0x80000
800044f0:	00a7c533          	xor	a0,a5,a0
800044f4:	00a9a223          	sw	a0,4(s3)
800044f8:	ed9ff06f          	j	800043d0 <__kernel_rem_pio2f+0x690>
800044fc:	000b0493          	mv	s1,s6
80004500:	00000513          	li	a0,0
80004504:	fb1ff06f          	j	800044b4 <__kernel_rem_pio2f+0x774>
80004508:	0004a583          	lw	a1,0(s1)
8000450c:	00190913          	addi	s2,s2,1
80004510:	0a1000ef          	jal	ra,80004db0 <__addsf3>
80004514:	fcdff06f          	j	800044e0 <__kernel_rem_pio2f+0x7a0>
80004518:	00092c83          	lw	s9,0(s2)
8000451c:	00492c03          	lw	s8,4(s2)
80004520:	fffb8b93          	addi	s7,s7,-1
80004524:	000c8513          	mv	a0,s9
80004528:	000c0593          	mv	a1,s8
8000452c:	085000ef          	jal	ra,80004db0 <__addsf3>
80004530:	00050593          	mv	a1,a0
80004534:	00050a93          	mv	s5,a0
80004538:	000c8513          	mv	a0,s9
8000453c:	4e0010ef          	jal	ra,80005a1c <__subsf3>
80004540:	000c0593          	mv	a1,s8
80004544:	06d000ef          	jal	ra,80004db0 <__addsf3>
80004548:	00a92223          	sw	a0,4(s2)
8000454c:	01592023          	sw	s5,0(s2)
80004550:	eddff06f          	j	8000442c <__kernel_rem_pio2f+0x6ec>
80004554:	0004ac03          	lw	s8,0(s1)
80004558:	0044ab83          	lw	s7,4(s1)
8000455c:	fffa8a93          	addi	s5,s5,-1
80004560:	000c0513          	mv	a0,s8
80004564:	000b8593          	mv	a1,s7
80004568:	049000ef          	jal	ra,80004db0 <__addsf3>
8000456c:	00050593          	mv	a1,a0
80004570:	00050913          	mv	s2,a0
80004574:	000c0513          	mv	a0,s8
80004578:	4a4010ef          	jal	ra,80005a1c <__subsf3>
8000457c:	000b8593          	mv	a1,s7
80004580:	031000ef          	jal	ra,80004db0 <__addsf3>
80004584:	00a4a223          	sw	a0,4(s1)
80004588:	0124a023          	sw	s2,0(s1)
8000458c:	eb1ff06f          	j	8000443c <__kernel_rem_pio2f+0x6fc>
80004590:	002b1793          	slli	a5,s6,0x2
80004594:	0c010713          	addi	a4,sp,192
80004598:	00f707b3          	add	a5,a4,a5
8000459c:	0007a583          	lw	a1,0(a5) # 80000000 <_sp+0xefff0000>
800045a0:	fffb0b13          	addi	s6,s6,-1
800045a4:	00d000ef          	jal	ra,80004db0 <__addsf3>
800045a8:	ea5ff06f          	j	8000444c <__kernel_rem_pio2f+0x70c>
800045ac:	800007b7          	lui	a5,0x80000
800045b0:	00d7c6b3          	xor	a3,a5,a3
800045b4:	00e7c733          	xor	a4,a5,a4
800045b8:	00d9a023          	sw	a3,0(s3)
800045bc:	00e9a223          	sw	a4,4(s3)
800045c0:	00a7c533          	xor	a0,a5,a0
800045c4:	ea1ff06f          	j	80004464 <__kernel_rem_pio2f+0x724>

800045c8 <__kernel_sinf>:
__kernel_sinf():
800045c8:	fe010113          	addi	sp,sp,-32
800045cc:	00151793          	slli	a5,a0,0x1
800045d0:	00812c23          	sw	s0,24(sp)
800045d4:	01312623          	sw	s3,12(sp)
800045d8:	01512223          	sw	s5,4(sp)
800045dc:	00112e23          	sw	ra,28(sp)
800045e0:	00912a23          	sw	s1,20(sp)
800045e4:	01212823          	sw	s2,16(sp)
800045e8:	01412423          	sw	s4,8(sp)
800045ec:	0017d793          	srli	a5,a5,0x1
800045f0:	32000737          	lui	a4,0x32000
800045f4:	00050413          	mv	s0,a0
800045f8:	00058993          	mv	s3,a1
800045fc:	00060a93          	mv	s5,a2
80004600:	00e7d663          	bge	a5,a4,8000460c <__kernel_sinf+0x44>
80004604:	0c9010ef          	jal	ra,80005ecc <__fixsfsi>
80004608:	0a050a63          	beqz	a0,800046bc <__kernel_sinf+0xf4>
8000460c:	00040593          	mv	a1,s0
80004610:	00040513          	mv	a0,s0
80004614:	100010ef          	jal	ra,80005714 <__mulsf3>
80004618:	00050493          	mv	s1,a0
8000461c:	00050593          	mv	a1,a0
80004620:	00040513          	mv	a0,s0
80004624:	0f0010ef          	jal	ra,80005714 <__mulsf3>
80004628:	0fffc597          	auipc	a1,0xfffc
8000462c:	d405a583          	lw	a1,-704(a1) # 90000368 <_impure_ptr+0x18c>
80004630:	00050913          	mv	s2,a0
80004634:	00048513          	mv	a0,s1
80004638:	0dc010ef          	jal	ra,80005714 <__mulsf3>
8000463c:	0fffc597          	auipc	a1,0xfffc
80004640:	d305a583          	lw	a1,-720(a1) # 9000036c <_impure_ptr+0x190>
80004644:	3d8010ef          	jal	ra,80005a1c <__subsf3>
80004648:	00048593          	mv	a1,s1
8000464c:	0c8010ef          	jal	ra,80005714 <__mulsf3>
80004650:	0fffc597          	auipc	a1,0xfffc
80004654:	d205a583          	lw	a1,-736(a1) # 90000370 <_impure_ptr+0x194>
80004658:	758000ef          	jal	ra,80004db0 <__addsf3>
8000465c:	00048593          	mv	a1,s1
80004660:	0b4010ef          	jal	ra,80005714 <__mulsf3>
80004664:	0fffc597          	auipc	a1,0xfffc
80004668:	d105a583          	lw	a1,-752(a1) # 90000374 <_impure_ptr+0x198>
8000466c:	3b0010ef          	jal	ra,80005a1c <__subsf3>
80004670:	00048593          	mv	a1,s1
80004674:	0a0010ef          	jal	ra,80005714 <__mulsf3>
80004678:	0fffc597          	auipc	a1,0xfffc
8000467c:	d005a583          	lw	a1,-768(a1) # 90000378 <_impure_ptr+0x19c>
80004680:	730000ef          	jal	ra,80004db0 <__addsf3>
80004684:	00050a13          	mv	s4,a0
80004688:	040a9e63          	bnez	s5,800046e4 <__kernel_sinf+0x11c>
8000468c:	00050593          	mv	a1,a0
80004690:	00048513          	mv	a0,s1
80004694:	080010ef          	jal	ra,80005714 <__mulsf3>
80004698:	0fffc597          	auipc	a1,0xfffc
8000469c:	c5c5a583          	lw	a1,-932(a1) # 900002f4 <_impure_ptr+0x118>
800046a0:	37c010ef          	jal	ra,80005a1c <__subsf3>
800046a4:	00090593          	mv	a1,s2
800046a8:	06c010ef          	jal	ra,80005714 <__mulsf3>
800046ac:	00050593          	mv	a1,a0
800046b0:	00040513          	mv	a0,s0
800046b4:	6fc000ef          	jal	ra,80004db0 <__addsf3>
800046b8:	00050413          	mv	s0,a0
800046bc:	01c12083          	lw	ra,28(sp)
800046c0:	00040513          	mv	a0,s0
800046c4:	01812403          	lw	s0,24(sp)
800046c8:	01412483          	lw	s1,20(sp)
800046cc:	01012903          	lw	s2,16(sp)
800046d0:	00c12983          	lw	s3,12(sp)
800046d4:	00812a03          	lw	s4,8(sp)
800046d8:	00412a83          	lw	s5,4(sp)
800046dc:	02010113          	addi	sp,sp,32
800046e0:	00008067          	ret
800046e4:	0fffc597          	auipc	a1,0xfffc
800046e8:	b785a583          	lw	a1,-1160(a1) # 9000025c <_impure_ptr+0x80>
800046ec:	00098513          	mv	a0,s3
800046f0:	024010ef          	jal	ra,80005714 <__mulsf3>
800046f4:	00050a93          	mv	s5,a0
800046f8:	000a0593          	mv	a1,s4
800046fc:	00090513          	mv	a0,s2
80004700:	014010ef          	jal	ra,80005714 <__mulsf3>
80004704:	00050593          	mv	a1,a0
80004708:	000a8513          	mv	a0,s5
8000470c:	310010ef          	jal	ra,80005a1c <__subsf3>
80004710:	00048593          	mv	a1,s1
80004714:	000010ef          	jal	ra,80005714 <__mulsf3>
80004718:	00098593          	mv	a1,s3
8000471c:	300010ef          	jal	ra,80005a1c <__subsf3>
80004720:	00050493          	mv	s1,a0
80004724:	0fffc597          	auipc	a1,0xfffc
80004728:	bd05a583          	lw	a1,-1072(a1) # 900002f4 <_impure_ptr+0x118>
8000472c:	00090513          	mv	a0,s2
80004730:	7e5000ef          	jal	ra,80005714 <__mulsf3>
80004734:	00050593          	mv	a1,a0
80004738:	00048513          	mv	a0,s1
8000473c:	674000ef          	jal	ra,80004db0 <__addsf3>
80004740:	00050593          	mv	a1,a0
80004744:	00040513          	mv	a0,s0
80004748:	2d4010ef          	jal	ra,80005a1c <__subsf3>
8000474c:	f6dff06f          	j	800046b8 <__kernel_sinf+0xf0>

80004750 <finitef>:
finitef():
80004750:	00151513          	slli	a0,a0,0x1
80004754:	7f8007b7          	lui	a5,0x7f800
80004758:	00155513          	srli	a0,a0,0x1
8000475c:	00f52533          	slt	a0,a0,a5
80004760:	00008067          	ret

80004764 <floorf>:
floorf():
80004764:	fe010113          	addi	sp,sp,-32
80004768:	00912a23          	sw	s1,20(sp)
8000476c:	00151493          	slli	s1,a0,0x1
80004770:	01212823          	sw	s2,16(sp)
80004774:	0014d913          	srli	s2,s1,0x1
80004778:	0184d493          	srli	s1,s1,0x18
8000477c:	00112e23          	sw	ra,28(sp)
80004780:	00812c23          	sw	s0,24(sp)
80004784:	01312623          	sw	s3,12(sp)
80004788:	f8148493          	addi	s1,s1,-127
8000478c:	01600793          	li	a5,22
80004790:	00050593          	mv	a1,a0
80004794:	0697ce63          	blt	a5,s1,80004810 <floorf+0xac>
80004798:	00050413          	mv	s0,a0
8000479c:	0204d863          	bgez	s1,800047cc <floorf+0x68>
800047a0:	0fffc597          	auipc	a1,0xfffc
800047a4:	af45a583          	lw	a1,-1292(a1) # 90000294 <_impure_ptr+0xb8>
800047a8:	608000ef          	jal	ra,80004db0 <__addsf3>
800047ac:	00000593          	li	a1,0
800047b0:	5fd000ef          	jal	ra,800055ac <__gesf2>
800047b4:	00a05863          	blez	a0,800047c4 <floorf+0x60>
800047b8:	08045463          	bgez	s0,80004840 <floorf+0xdc>
800047bc:	00090463          	beqz	s2,800047c4 <floorf+0x60>
800047c0:	bf800437          	lui	s0,0xbf800
800047c4:	00040593          	mv	a1,s0
800047c8:	0580006f          	j	80004820 <floorf+0xbc>
800047cc:	008009b7          	lui	s3,0x800
800047d0:	fff98913          	addi	s2,s3,-1 # 7fffff <__stack_size+0x7ff7ff>
800047d4:	40995933          	sra	s2,s2,s1
800047d8:	00a977b3          	and	a5,s2,a0
800047dc:	04078263          	beqz	a5,80004820 <floorf+0xbc>
800047e0:	0fffc597          	auipc	a1,0xfffc
800047e4:	ab45a583          	lw	a1,-1356(a1) # 90000294 <_impure_ptr+0xb8>
800047e8:	5c8000ef          	jal	ra,80004db0 <__addsf3>
800047ec:	00000593          	li	a1,0
800047f0:	5bd000ef          	jal	ra,800055ac <__gesf2>
800047f4:	fca058e3          	blez	a0,800047c4 <floorf+0x60>
800047f8:	00045663          	bgez	s0,80004804 <floorf+0xa0>
800047fc:	4099d4b3          	sra	s1,s3,s1
80004800:	00940433          	add	s0,s0,s1
80004804:	fff94913          	not	s2,s2
80004808:	00897433          	and	s0,s2,s0
8000480c:	fb9ff06f          	j	800047c4 <floorf+0x60>
80004810:	7f8007b7          	lui	a5,0x7f800
80004814:	00f96663          	bltu	s2,a5,80004820 <floorf+0xbc>
80004818:	598000ef          	jal	ra,80004db0 <__addsf3>
8000481c:	00050593          	mv	a1,a0
80004820:	01c12083          	lw	ra,28(sp)
80004824:	01812403          	lw	s0,24(sp)
80004828:	01412483          	lw	s1,20(sp)
8000482c:	01012903          	lw	s2,16(sp)
80004830:	00c12983          	lw	s3,12(sp)
80004834:	00058513          	mv	a0,a1
80004838:	02010113          	addi	sp,sp,32
8000483c:	00008067          	ret
80004840:	00000413          	li	s0,0
80004844:	f81ff06f          	j	800047c4 <floorf+0x60>

80004848 <nanf>:
nanf():
80004848:	0fffc517          	auipc	a0,0xfffc
8000484c:	b3452503          	lw	a0,-1228(a0) # 9000037c <_impure_ptr+0x1a0>
80004850:	00008067          	ret

80004854 <scalbnf>:
scalbnf():
80004854:	00151613          	slli	a2,a0,0x1
80004858:	00050793          	mv	a5,a0
8000485c:	10060e63          	beqz	a2,80004978 <scalbnf+0x124>
80004860:	ff010113          	addi	sp,sp,-16
80004864:	00165713          	srli	a4,a2,0x1
80004868:	00112623          	sw	ra,12(sp)
8000486c:	00812423          	sw	s0,8(sp)
80004870:	7f800637          	lui	a2,0x7f800
80004874:	00c76a63          	bltu	a4,a2,80004888 <scalbnf+0x34>
80004878:	00050593          	mv	a1,a0
8000487c:	534000ef          	jal	ra,80004db0 <__addsf3>
80004880:	00050793          	mv	a5,a0
80004884:	0880006f          	j	8000490c <scalbnf+0xb8>
80004888:	00c576b3          	and	a3,a0,a2
8000488c:	00058413          	mv	s0,a1
80004890:	04069e63          	bnez	a3,800048ec <scalbnf+0x98>
80004894:	0fffc597          	auipc	a1,0xfffc
80004898:	a6c5a583          	lw	a1,-1428(a1) # 90000300 <_impure_ptr+0x124>
8000489c:	679000ef          	jal	ra,80005714 <__mulsf3>
800048a0:	ffff4737          	lui	a4,0xffff4
800048a4:	cb070713          	addi	a4,a4,-848 # ffff3cb0 <_sp+0x6ffe3cb0>
800048a8:	00050793          	mv	a5,a0
800048ac:	08e44e63          	blt	s0,a4,80004948 <scalbnf+0xf4>
800048b0:	41755713          	srai	a4,a0,0x17
800048b4:	0ff77713          	andi	a4,a4,255
800048b8:	fe770713          	addi	a4,a4,-25
800048bc:	00870733          	add	a4,a4,s0
800048c0:	0fe00693          	li	a3,254
800048c4:	02e6d863          	bge	a3,a4,800048f4 <scalbnf+0xa0>
800048c8:	0fffc517          	auipc	a0,0xfffc
800048cc:	9cc52503          	lw	a0,-1588(a0) # 90000294 <_impure_ptr+0xb8>
800048d0:	0007d663          	bgez	a5,800048dc <scalbnf+0x88>
800048d4:	0fffc517          	auipc	a0,0xfffc
800048d8:	ab052503          	lw	a0,-1360(a0) # 90000384 <_impure_ptr+0x1a8>
800048dc:	0fffc597          	auipc	a1,0xfffc
800048e0:	9b85a583          	lw	a1,-1608(a1) # 90000294 <_impure_ptr+0xb8>
800048e4:	631000ef          	jal	ra,80005714 <__mulsf3>
800048e8:	f99ff06f          	j	80004880 <scalbnf+0x2c>
800048ec:	01775713          	srli	a4,a4,0x17
800048f0:	fcdff06f          	j	800048bc <scalbnf+0x68>
800048f4:	02e05663          	blez	a4,80004920 <scalbnf+0xcc>
800048f8:	808007b7          	lui	a5,0x80800
800048fc:	fff78793          	addi	a5,a5,-1 # 807fffff <_sp+0xf07effff>
80004900:	00f577b3          	and	a5,a0,a5
80004904:	01771513          	slli	a0,a4,0x17
80004908:	00a7e7b3          	or	a5,a5,a0
8000490c:	00c12083          	lw	ra,12(sp)
80004910:	00812403          	lw	s0,8(sp)
80004914:	00078513          	mv	a0,a5
80004918:	01010113          	addi	sp,sp,16
8000491c:	00008067          	ret
80004920:	fea00693          	li	a3,-22
80004924:	02d75863          	bge	a4,a3,80004954 <scalbnf+0x100>
80004928:	0000c737          	lui	a4,0xc
8000492c:	35070713          	addi	a4,a4,848 # c350 <__stack_size+0xbb50>
80004930:	f8874ce3          	blt	a4,s0,800048c8 <scalbnf+0x74>
80004934:	0fffc517          	auipc	a0,0xfffc
80004938:	a4c52503          	lw	a0,-1460(a0) # 90000380 <_impure_ptr+0x1a4>
8000493c:	0007d663          	bgez	a5,80004948 <scalbnf+0xf4>
80004940:	0fffc517          	auipc	a0,0xfffc
80004944:	a4852503          	lw	a0,-1464(a0) # 90000388 <_impure_ptr+0x1ac>
80004948:	0fffc597          	auipc	a1,0xfffc
8000494c:	a385a583          	lw	a1,-1480(a1) # 90000380 <_impure_ptr+0x1a4>
80004950:	f95ff06f          	j	800048e4 <scalbnf+0x90>
80004954:	808007b7          	lui	a5,0x80800
80004958:	01970713          	addi	a4,a4,25
8000495c:	fff78793          	addi	a5,a5,-1 # 807fffff <_sp+0xf07effff>
80004960:	01771713          	slli	a4,a4,0x17
80004964:	00f57533          	and	a0,a0,a5
80004968:	0fffc597          	auipc	a1,0xfffc
8000496c:	a245a583          	lw	a1,-1500(a1) # 9000038c <_impure_ptr+0x1b0>
80004970:	00a76533          	or	a0,a4,a0
80004974:	f71ff06f          	j	800048e4 <scalbnf+0x90>
80004978:	00008067          	ret

8000497c <__udivdi3>:
__udivdi3():
/home/hqfang/workspace/software/riscv-gnu-toolchain/riscv-gcc/libgcc/libgcc2.c:1319
8000497c:	00050893          	mv	a7,a0
80004980:	00058793          	mv	a5,a1
__udivmoddi4():
/home/hqfang/workspace/software/riscv-gnu-toolchain/riscv-gcc/libgcc/libgcc2.c:1024
80004984:	00060813          	mv	a6,a2
/home/hqfang/workspace/software/riscv-gnu-toolchain/riscv-gcc/libgcc/libgcc2.c:1025
80004988:	00068513          	mv	a0,a3
/home/hqfang/workspace/software/riscv-gnu-toolchain/riscv-gcc/libgcc/libgcc2.c:1026
8000498c:	00088313          	mv	t1,a7
/home/hqfang/workspace/software/riscv-gnu-toolchain/riscv-gcc/libgcc/libgcc2.c:1064
80004990:	28069463          	bnez	a3,80004c18 <__udivdi3+0x29c>
/home/hqfang/workspace/software/riscv-gnu-toolchain/riscv-gcc/libgcc/libgcc2.c:1066
80004994:	00009697          	auipc	a3,0x9
80004998:	24868693          	addi	a3,a3,584 # 8000dbdc <__clz_tab>
8000499c:	0ec5f663          	bgeu	a1,a2,80004a88 <__udivdi3+0x10c>
/home/hqfang/workspace/software/riscv-gnu-toolchain/riscv-gcc/libgcc/libgcc2.c:1070
800049a0:	00010737          	lui	a4,0x10
800049a4:	0ce67863          	bgeu	a2,a4,80004a74 <__udivdi3+0xf8>
800049a8:	0ff00713          	li	a4,255
800049ac:	00c73733          	sltu	a4,a4,a2
800049b0:	00371713          	slli	a4,a4,0x3
800049b4:	00e65533          	srl	a0,a2,a4
800049b8:	00a686b3          	add	a3,a3,a0
800049bc:	0006c683          	lbu	a3,0(a3)
800049c0:	02000513          	li	a0,32
800049c4:	00e68733          	add	a4,a3,a4
800049c8:	40e506b3          	sub	a3,a0,a4
/home/hqfang/workspace/software/riscv-gnu-toolchain/riscv-gcc/libgcc/libgcc2.c:1072
800049cc:	00e50c63          	beq	a0,a4,800049e4 <__udivdi3+0x68>
/home/hqfang/workspace/software/riscv-gnu-toolchain/riscv-gcc/libgcc/libgcc2.c:1078
800049d0:	00d795b3          	sll	a1,a5,a3
800049d4:	00e8d733          	srl	a4,a7,a4
/home/hqfang/workspace/software/riscv-gnu-toolchain/riscv-gcc/libgcc/libgcc2.c:1077
800049d8:	00d61833          	sll	a6,a2,a3
/home/hqfang/workspace/software/riscv-gnu-toolchain/riscv-gcc/libgcc/libgcc2.c:1078
800049dc:	00b765b3          	or	a1,a4,a1
/home/hqfang/workspace/software/riscv-gnu-toolchain/riscv-gcc/libgcc/libgcc2.c:1079
800049e0:	00d89333          	sll	t1,a7,a3
/home/hqfang/workspace/software/riscv-gnu-toolchain/riscv-gcc/libgcc/libgcc2.c:1082
800049e4:	01085893          	srli	a7,a6,0x10
800049e8:	0315d6b3          	divu	a3,a1,a7
800049ec:	01081613          	slli	a2,a6,0x10
800049f0:	01065613          	srli	a2,a2,0x10
800049f4:	01035793          	srli	a5,t1,0x10
800049f8:	0315f733          	remu	a4,a1,a7
800049fc:	00068513          	mv	a0,a3
80004a00:	02d605b3          	mul	a1,a2,a3
80004a04:	01071713          	slli	a4,a4,0x10
80004a08:	00f767b3          	or	a5,a4,a5
80004a0c:	00b7fe63          	bgeu	a5,a1,80004a28 <__udivdi3+0xac>
80004a10:	010787b3          	add	a5,a5,a6
80004a14:	fff68513          	addi	a0,a3,-1
80004a18:	0107e863          	bltu	a5,a6,80004a28 <__udivdi3+0xac>
80004a1c:	00b7f663          	bgeu	a5,a1,80004a28 <__udivdi3+0xac>
80004a20:	ffe68513          	addi	a0,a3,-2
80004a24:	010787b3          	add	a5,a5,a6
80004a28:	40b787b3          	sub	a5,a5,a1
80004a2c:	0317f733          	remu	a4,a5,a7
80004a30:	01031313          	slli	t1,t1,0x10
80004a34:	01035313          	srli	t1,t1,0x10
80004a38:	0317d7b3          	divu	a5,a5,a7
80004a3c:	01071713          	slli	a4,a4,0x10
80004a40:	00676333          	or	t1,a4,t1
80004a44:	02f606b3          	mul	a3,a2,a5
80004a48:	00078613          	mv	a2,a5
80004a4c:	00d37c63          	bgeu	t1,a3,80004a64 <__udivdi3+0xe8>
80004a50:	00680333          	add	t1,a6,t1
80004a54:	fff78613          	addi	a2,a5,-1
80004a58:	01036663          	bltu	t1,a6,80004a64 <__udivdi3+0xe8>
80004a5c:	00d37463          	bgeu	t1,a3,80004a64 <__udivdi3+0xe8>
80004a60:	ffe78613          	addi	a2,a5,-2
80004a64:	01051513          	slli	a0,a0,0x10
80004a68:	00c56533          	or	a0,a0,a2
/home/hqfang/workspace/software/riscv-gnu-toolchain/riscv-gcc/libgcc/libgcc2.c:1209
80004a6c:	00000593          	li	a1,0
80004a70:	0e40006f          	j	80004b54 <__udivdi3+0x1d8>
/home/hqfang/workspace/software/riscv-gnu-toolchain/riscv-gcc/libgcc/libgcc2.c:1070
80004a74:	01000537          	lui	a0,0x1000
80004a78:	01000713          	li	a4,16
80004a7c:	f2a66ce3          	bltu	a2,a0,800049b4 <__udivdi3+0x38>
80004a80:	01800713          	li	a4,24
80004a84:	f31ff06f          	j	800049b4 <__udivdi3+0x38>
/home/hqfang/workspace/software/riscv-gnu-toolchain/riscv-gcc/libgcc/libgcc2.c:1091
80004a88:	00061663          	bnez	a2,80004a94 <__udivdi3+0x118>
/home/hqfang/workspace/software/riscv-gnu-toolchain/riscv-gcc/libgcc/libgcc2.c:1092
80004a8c:	00100713          	li	a4,1
80004a90:	02c75833          	divu	a6,a4,a2
/home/hqfang/workspace/software/riscv-gnu-toolchain/riscv-gcc/libgcc/libgcc2.c:1094
80004a94:	00010737          	lui	a4,0x10
80004a98:	0ce87063          	bgeu	a6,a4,80004b58 <__udivdi3+0x1dc>
80004a9c:	0ff00713          	li	a4,255
80004aa0:	01077463          	bgeu	a4,a6,80004aa8 <__udivdi3+0x12c>
80004aa4:	00800513          	li	a0,8
80004aa8:	00a85733          	srl	a4,a6,a0
80004aac:	00e686b3          	add	a3,a3,a4
80004ab0:	0006c703          	lbu	a4,0(a3)
80004ab4:	02000613          	li	a2,32
80004ab8:	00a70733          	add	a4,a4,a0
80004abc:	40e606b3          	sub	a3,a2,a4
/home/hqfang/workspace/software/riscv-gnu-toolchain/riscv-gcc/libgcc/libgcc2.c:1096
80004ac0:	0ae61663          	bne	a2,a4,80004b6c <__udivdi3+0x1f0>
/home/hqfang/workspace/software/riscv-gnu-toolchain/riscv-gcc/libgcc/libgcc2.c:1105
80004ac4:	410787b3          	sub	a5,a5,a6
/home/hqfang/workspace/software/riscv-gnu-toolchain/riscv-gcc/libgcc/libgcc2.c:1106
80004ac8:	00100593          	li	a1,1
/home/hqfang/workspace/software/riscv-gnu-toolchain/riscv-gcc/libgcc/libgcc2.c:1124
80004acc:	01085893          	srli	a7,a6,0x10
80004ad0:	01081613          	slli	a2,a6,0x10
80004ad4:	01065613          	srli	a2,a2,0x10
80004ad8:	01035713          	srli	a4,t1,0x10
80004adc:	0317f6b3          	remu	a3,a5,a7
80004ae0:	0317d7b3          	divu	a5,a5,a7
80004ae4:	01069693          	slli	a3,a3,0x10
80004ae8:	00e6e733          	or	a4,a3,a4
80004aec:	02f60e33          	mul	t3,a2,a5
80004af0:	00078513          	mv	a0,a5
80004af4:	01c77e63          	bgeu	a4,t3,80004b10 <__udivdi3+0x194>
80004af8:	01070733          	add	a4,a4,a6
80004afc:	fff78513          	addi	a0,a5,-1
80004b00:	01076863          	bltu	a4,a6,80004b10 <__udivdi3+0x194>
80004b04:	01c77663          	bgeu	a4,t3,80004b10 <__udivdi3+0x194>
80004b08:	ffe78513          	addi	a0,a5,-2
80004b0c:	01070733          	add	a4,a4,a6
80004b10:	41c70733          	sub	a4,a4,t3
80004b14:	031777b3          	remu	a5,a4,a7
80004b18:	01031313          	slli	t1,t1,0x10
80004b1c:	01035313          	srli	t1,t1,0x10
80004b20:	03175733          	divu	a4,a4,a7
80004b24:	01079793          	slli	a5,a5,0x10
80004b28:	0067e333          	or	t1,a5,t1
80004b2c:	02e606b3          	mul	a3,a2,a4
80004b30:	00070613          	mv	a2,a4
80004b34:	00d37c63          	bgeu	t1,a3,80004b4c <__udivdi3+0x1d0>
80004b38:	00680333          	add	t1,a6,t1
80004b3c:	fff70613          	addi	a2,a4,-1 # ffff <__stack_size+0xf7ff>
80004b40:	01036663          	bltu	t1,a6,80004b4c <__udivdi3+0x1d0>
80004b44:	00d37463          	bgeu	t1,a3,80004b4c <__udivdi3+0x1d0>
80004b48:	ffe70613          	addi	a2,a4,-2
80004b4c:	01051513          	slli	a0,a0,0x10
80004b50:	00c56533          	or	a0,a0,a2
__udivdi3():
/home/hqfang/workspace/software/riscv-gnu-toolchain/riscv-gcc/libgcc/libgcc2.c:1321
80004b54:	00008067          	ret
__udivmoddi4():
/home/hqfang/workspace/software/riscv-gnu-toolchain/riscv-gcc/libgcc/libgcc2.c:1094
80004b58:	01000737          	lui	a4,0x1000
80004b5c:	01000513          	li	a0,16
80004b60:	f4e864e3          	bltu	a6,a4,80004aa8 <__udivdi3+0x12c>
80004b64:	01800513          	li	a0,24
80004b68:	f41ff06f          	j	80004aa8 <__udivdi3+0x12c>
/home/hqfang/workspace/software/riscv-gnu-toolchain/riscv-gcc/libgcc/libgcc2.c:1114
80004b6c:	00d81833          	sll	a6,a6,a3
/home/hqfang/workspace/software/riscv-gnu-toolchain/riscv-gcc/libgcc/libgcc2.c:1115
80004b70:	00e7d533          	srl	a0,a5,a4
/home/hqfang/workspace/software/riscv-gnu-toolchain/riscv-gcc/libgcc/libgcc2.c:1117
80004b74:	00d89333          	sll	t1,a7,a3
/home/hqfang/workspace/software/riscv-gnu-toolchain/riscv-gcc/libgcc/libgcc2.c:1116
80004b78:	00d797b3          	sll	a5,a5,a3
80004b7c:	00e8d733          	srl	a4,a7,a4
/home/hqfang/workspace/software/riscv-gnu-toolchain/riscv-gcc/libgcc/libgcc2.c:1119
80004b80:	01085893          	srli	a7,a6,0x10
/home/hqfang/workspace/software/riscv-gnu-toolchain/riscv-gcc/libgcc/libgcc2.c:1116
80004b84:	00f76633          	or	a2,a4,a5
/home/hqfang/workspace/software/riscv-gnu-toolchain/riscv-gcc/libgcc/libgcc2.c:1119
80004b88:	03157733          	remu	a4,a0,a7
80004b8c:	01081793          	slli	a5,a6,0x10
80004b90:	0107d793          	srli	a5,a5,0x10
80004b94:	01065593          	srli	a1,a2,0x10
80004b98:	03155533          	divu	a0,a0,a7
80004b9c:	01071713          	slli	a4,a4,0x10
80004ba0:	00b76733          	or	a4,a4,a1
80004ba4:	02a786b3          	mul	a3,a5,a0
80004ba8:	00050593          	mv	a1,a0
80004bac:	00d77e63          	bgeu	a4,a3,80004bc8 <__udivdi3+0x24c>
80004bb0:	01070733          	add	a4,a4,a6
80004bb4:	fff50593          	addi	a1,a0,-1 # ffffff <__stack_size+0xfff7ff>
80004bb8:	01076863          	bltu	a4,a6,80004bc8 <__udivdi3+0x24c>
80004bbc:	00d77663          	bgeu	a4,a3,80004bc8 <__udivdi3+0x24c>
80004bc0:	ffe50593          	addi	a1,a0,-2
80004bc4:	01070733          	add	a4,a4,a6
80004bc8:	40d706b3          	sub	a3,a4,a3
80004bcc:	0316f733          	remu	a4,a3,a7
80004bd0:	01061613          	slli	a2,a2,0x10
80004bd4:	01065613          	srli	a2,a2,0x10
80004bd8:	0316d6b3          	divu	a3,a3,a7
80004bdc:	01071713          	slli	a4,a4,0x10
80004be0:	02d78533          	mul	a0,a5,a3
80004be4:	00c767b3          	or	a5,a4,a2
80004be8:	00068713          	mv	a4,a3
80004bec:	00a7fe63          	bgeu	a5,a0,80004c08 <__udivdi3+0x28c>
80004bf0:	010787b3          	add	a5,a5,a6
80004bf4:	fff68713          	addi	a4,a3,-1
80004bf8:	0107e863          	bltu	a5,a6,80004c08 <__udivdi3+0x28c>
80004bfc:	00a7f663          	bgeu	a5,a0,80004c08 <__udivdi3+0x28c>
80004c00:	ffe68713          	addi	a4,a3,-2
80004c04:	010787b3          	add	a5,a5,a6
80004c08:	01059593          	slli	a1,a1,0x10
80004c0c:	40a787b3          	sub	a5,a5,a0
80004c10:	00e5e5b3          	or	a1,a1,a4
80004c14:	eb9ff06f          	j	80004acc <__udivdi3+0x150>
/home/hqfang/workspace/software/riscv-gnu-toolchain/riscv-gcc/libgcc/libgcc2.c:1140
80004c18:	18d5e663          	bltu	a1,a3,80004da4 <__udivdi3+0x428>
/home/hqfang/workspace/software/riscv-gnu-toolchain/riscv-gcc/libgcc/libgcc2.c:1159
80004c1c:	00010737          	lui	a4,0x10
80004c20:	04e6f463          	bgeu	a3,a4,80004c68 <__udivdi3+0x2ec>
80004c24:	0ff00713          	li	a4,255
80004c28:	00d735b3          	sltu	a1,a4,a3
80004c2c:	00359593          	slli	a1,a1,0x3
80004c30:	00b6d533          	srl	a0,a3,a1
80004c34:	00009717          	auipc	a4,0x9
80004c38:	fa870713          	addi	a4,a4,-88 # 8000dbdc <__clz_tab>
80004c3c:	00a70733          	add	a4,a4,a0
80004c40:	00074703          	lbu	a4,0(a4)
80004c44:	02000513          	li	a0,32
80004c48:	00b70733          	add	a4,a4,a1
80004c4c:	40e505b3          	sub	a1,a0,a4
/home/hqfang/workspace/software/riscv-gnu-toolchain/riscv-gcc/libgcc/libgcc2.c:1160
80004c50:	02e51663          	bne	a0,a4,80004c7c <__udivdi3+0x300>
/home/hqfang/workspace/software/riscv-gnu-toolchain/riscv-gcc/libgcc/libgcc2.c:1172
80004c54:	00100513          	li	a0,1
/home/hqfang/workspace/software/riscv-gnu-toolchain/riscv-gcc/libgcc/libgcc2.c:1170
80004c58:	eef6eee3          	bltu	a3,a5,80004b54 <__udivdi3+0x1d8>
80004c5c:	00c8b533          	sltu	a0,a7,a2
80004c60:	00154513          	xori	a0,a0,1
80004c64:	ef1ff06f          	j	80004b54 <__udivdi3+0x1d8>
/home/hqfang/workspace/software/riscv-gnu-toolchain/riscv-gcc/libgcc/libgcc2.c:1159
80004c68:	01000737          	lui	a4,0x1000
80004c6c:	01000593          	li	a1,16
80004c70:	fce6e0e3          	bltu	a3,a4,80004c30 <__udivdi3+0x2b4>
80004c74:	01800593          	li	a1,24
80004c78:	fb9ff06f          	j	80004c30 <__udivdi3+0x2b4>
/home/hqfang/workspace/software/riscv-gnu-toolchain/riscv-gcc/libgcc/libgcc2.c:1194
80004c7c:	00e65833          	srl	a6,a2,a4
80004c80:	00b696b3          	sll	a3,a3,a1
80004c84:	00d86833          	or	a6,a6,a3
/home/hqfang/workspace/software/riscv-gnu-toolchain/riscv-gcc/libgcc/libgcc2.c:1196
80004c88:	00e7d333          	srl	t1,a5,a4
/home/hqfang/workspace/software/riscv-gnu-toolchain/riscv-gcc/libgcc/libgcc2.c:1200
80004c8c:	01085e93          	srli	t4,a6,0x10
80004c90:	03d376b3          	remu	a3,t1,t4
/home/hqfang/workspace/software/riscv-gnu-toolchain/riscv-gcc/libgcc/libgcc2.c:1197
80004c94:	00b797b3          	sll	a5,a5,a1
80004c98:	00e8d733          	srl	a4,a7,a4
/home/hqfang/workspace/software/riscv-gnu-toolchain/riscv-gcc/libgcc/libgcc2.c:1195
80004c9c:	00b61e33          	sll	t3,a2,a1
/home/hqfang/workspace/software/riscv-gnu-toolchain/riscv-gcc/libgcc/libgcc2.c:1197
80004ca0:	00f76633          	or	a2,a4,a5
/home/hqfang/workspace/software/riscv-gnu-toolchain/riscv-gcc/libgcc/libgcc2.c:1200
80004ca4:	01081793          	slli	a5,a6,0x10
80004ca8:	0107d793          	srli	a5,a5,0x10
80004cac:	01065713          	srli	a4,a2,0x10
80004cb0:	03d35333          	divu	t1,t1,t4
80004cb4:	01069693          	slli	a3,a3,0x10
80004cb8:	00e6e733          	or	a4,a3,a4
80004cbc:	02678f33          	mul	t5,a5,t1
80004cc0:	00030513          	mv	a0,t1
80004cc4:	01e77e63          	bgeu	a4,t5,80004ce0 <__udivdi3+0x364>
80004cc8:	01070733          	add	a4,a4,a6
80004ccc:	fff30513          	addi	a0,t1,-1
80004cd0:	01076863          	bltu	a4,a6,80004ce0 <__udivdi3+0x364>
80004cd4:	01e77663          	bgeu	a4,t5,80004ce0 <__udivdi3+0x364>
80004cd8:	ffe30513          	addi	a0,t1,-2
80004cdc:	01070733          	add	a4,a4,a6
80004ce0:	41e70733          	sub	a4,a4,t5
80004ce4:	03d776b3          	remu	a3,a4,t4
80004ce8:	03d75733          	divu	a4,a4,t4
80004cec:	01069693          	slli	a3,a3,0x10
80004cf0:	02e78333          	mul	t1,a5,a4
80004cf4:	01061793          	slli	a5,a2,0x10
80004cf8:	0107d793          	srli	a5,a5,0x10
80004cfc:	00f6e7b3          	or	a5,a3,a5
80004d00:	00070613          	mv	a2,a4
80004d04:	0067fe63          	bgeu	a5,t1,80004d20 <__udivdi3+0x3a4>
80004d08:	010787b3          	add	a5,a5,a6
80004d0c:	fff70613          	addi	a2,a4,-1 # ffffff <__stack_size+0xfff7ff>
80004d10:	0107e863          	bltu	a5,a6,80004d20 <__udivdi3+0x3a4>
80004d14:	0067f663          	bgeu	a5,t1,80004d20 <__udivdi3+0x3a4>
80004d18:	ffe70613          	addi	a2,a4,-2
80004d1c:	010787b3          	add	a5,a5,a6
80004d20:	01051513          	slli	a0,a0,0x10
/home/hqfang/workspace/software/riscv-gnu-toolchain/riscv-gcc/libgcc/libgcc2.c:1201
80004d24:	00010eb7          	lui	t4,0x10
/home/hqfang/workspace/software/riscv-gnu-toolchain/riscv-gcc/libgcc/libgcc2.c:1200
80004d28:	00c56533          	or	a0,a0,a2
/home/hqfang/workspace/software/riscv-gnu-toolchain/riscv-gcc/libgcc/libgcc2.c:1201
80004d2c:	fffe8693          	addi	a3,t4,-1 # ffff <__stack_size+0xf7ff>
80004d30:	010e5613          	srli	a2,t3,0x10
80004d34:	01055813          	srli	a6,a0,0x10
/home/hqfang/workspace/software/riscv-gnu-toolchain/riscv-gcc/libgcc/libgcc2.c:1200
80004d38:	406787b3          	sub	a5,a5,t1
/home/hqfang/workspace/software/riscv-gnu-toolchain/riscv-gcc/libgcc/libgcc2.c:1201
80004d3c:	00d57333          	and	t1,a0,a3
80004d40:	00de76b3          	and	a3,t3,a3
80004d44:	02d30e33          	mul	t3,t1,a3
80004d48:	02d806b3          	mul	a3,a6,a3
80004d4c:	010e5713          	srli	a4,t3,0x10
80004d50:	02c30333          	mul	t1,t1,a2
80004d54:	00d30333          	add	t1,t1,a3
80004d58:	00670733          	add	a4,a4,t1
80004d5c:	02c80833          	mul	a6,a6,a2
80004d60:	00d77463          	bgeu	a4,a3,80004d68 <__udivdi3+0x3ec>
80004d64:	01d80833          	add	a6,a6,t4
80004d68:	01075693          	srli	a3,a4,0x10
80004d6c:	01068833          	add	a6,a3,a6
/home/hqfang/workspace/software/riscv-gnu-toolchain/riscv-gcc/libgcc/libgcc2.c:1203
80004d70:	0307e663          	bltu	a5,a6,80004d9c <__udivdi3+0x420>
80004d74:	cf079ce3          	bne	a5,a6,80004a6c <__udivdi3+0xf0>
/home/hqfang/workspace/software/riscv-gnu-toolchain/riscv-gcc/libgcc/libgcc2.c:1201
80004d78:	000107b7          	lui	a5,0x10
80004d7c:	fff78793          	addi	a5,a5,-1 # ffff <__stack_size+0xf7ff>
80004d80:	00f77733          	and	a4,a4,a5
80004d84:	01071713          	slli	a4,a4,0x10
80004d88:	00fe7e33          	and	t3,t3,a5
/home/hqfang/workspace/software/riscv-gnu-toolchain/riscv-gcc/libgcc/libgcc2.c:1198
80004d8c:	00b898b3          	sll	a7,a7,a1
/home/hqfang/workspace/software/riscv-gnu-toolchain/riscv-gcc/libgcc/libgcc2.c:1201
80004d90:	01c70733          	add	a4,a4,t3
/home/hqfang/workspace/software/riscv-gnu-toolchain/riscv-gcc/libgcc/libgcc2.c:1209
80004d94:	00000593          	li	a1,0
/home/hqfang/workspace/software/riscv-gnu-toolchain/riscv-gcc/libgcc/libgcc2.c:1203
80004d98:	dae8fee3          	bgeu	a7,a4,80004b54 <__udivdi3+0x1d8>
/home/hqfang/workspace/software/riscv-gnu-toolchain/riscv-gcc/libgcc/libgcc2.c:1205
80004d9c:	fff50513          	addi	a0,a0,-1
__udivdi3():
/home/hqfang/workspace/software/riscv-gnu-toolchain/riscv-gcc/libgcc/libgcc2.c:1206
80004da0:	ccdff06f          	j	80004a6c <__udivdi3+0xf0>
__udivmoddi4():
/home/hqfang/workspace/software/riscv-gnu-toolchain/riscv-gcc/libgcc/libgcc2.c:1145
80004da4:	00000593          	li	a1,0
/home/hqfang/workspace/software/riscv-gnu-toolchain/riscv-gcc/libgcc/libgcc2.c:1144
80004da8:	00000513          	li	a0,0
80004dac:	da9ff06f          	j	80004b54 <__udivdi3+0x1d8>

80004db0 <__addsf3>:
__addsf3():
/home/hqfang/workspace/software/riscv-gnu-toolchain/riscv-gcc/libgcc/soft-fp/addsf3.c:44
80004db0:	00800737          	lui	a4,0x800
/home/hqfang/workspace/software/riscv-gnu-toolchain/riscv-gcc/libgcc/soft-fp/addsf3.c:36
80004db4:	ff010113          	addi	sp,sp,-16
/home/hqfang/workspace/software/riscv-gnu-toolchain/riscv-gcc/libgcc/soft-fp/addsf3.c:44
80004db8:	fff70713          	addi	a4,a4,-1 # 7fffff <__stack_size+0x7ff7ff>
80004dbc:	00a777b3          	and	a5,a4,a0
/home/hqfang/workspace/software/riscv-gnu-toolchain/riscv-gcc/libgcc/soft-fp/addsf3.c:36
80004dc0:	00812423          	sw	s0,8(sp)
80004dc4:	00912223          	sw	s1,4(sp)
/home/hqfang/workspace/software/riscv-gnu-toolchain/riscv-gcc/libgcc/soft-fp/addsf3.c:44
80004dc8:	01755413          	srli	s0,a0,0x17
80004dcc:	01f55493          	srli	s1,a0,0x1f
/home/hqfang/workspace/software/riscv-gnu-toolchain/riscv-gcc/libgcc/soft-fp/addsf3.c:45
80004dd0:	0175d513          	srli	a0,a1,0x17
80004dd4:	00b77733          	and	a4,a4,a1
/home/hqfang/workspace/software/riscv-gnu-toolchain/riscv-gcc/libgcc/soft-fp/addsf3.c:44
80004dd8:	0ff47413          	andi	s0,s0,255
/home/hqfang/workspace/software/riscv-gnu-toolchain/riscv-gcc/libgcc/soft-fp/addsf3.c:45
80004ddc:	0ff57513          	andi	a0,a0,255
/home/hqfang/workspace/software/riscv-gnu-toolchain/riscv-gcc/libgcc/soft-fp/addsf3.c:36
80004de0:	00112623          	sw	ra,12(sp)
80004de4:	01212023          	sw	s2,0(sp)
/home/hqfang/workspace/software/riscv-gnu-toolchain/riscv-gcc/libgcc/soft-fp/addsf3.c:45
80004de8:	01f5d593          	srli	a1,a1,0x1f
/home/hqfang/workspace/software/riscv-gnu-toolchain/riscv-gcc/libgcc/soft-fp/addsf3.c:44
80004dec:	00379793          	slli	a5,a5,0x3
/home/hqfang/workspace/software/riscv-gnu-toolchain/riscv-gcc/libgcc/soft-fp/addsf3.c:45
80004df0:	00371713          	slli	a4,a4,0x3
/home/hqfang/workspace/software/riscv-gnu-toolchain/riscv-gcc/libgcc/soft-fp/addsf3.c:46
80004df4:	40a406b3          	sub	a3,s0,a0
80004df8:	18b49a63          	bne	s1,a1,80004f8c <__addsf3+0x1dc>
/home/hqfang/workspace/software/riscv-gnu-toolchain/riscv-gcc/libgcc/soft-fp/addsf3.c:46 (discriminator 7)
80004dfc:	0ad05063          	blez	a3,80004e9c <__addsf3+0xec>
/home/hqfang/workspace/software/riscv-gnu-toolchain/riscv-gcc/libgcc/soft-fp/addsf3.c:46 (discriminator 9)
80004e00:	02051663          	bnez	a0,80004e2c <__addsf3+0x7c>
/home/hqfang/workspace/software/riscv-gnu-toolchain/riscv-gcc/libgcc/soft-fp/addsf3.c:46 (discriminator 11)
80004e04:	18070063          	beqz	a4,80004f84 <__addsf3+0x1d4>
/home/hqfang/workspace/software/riscv-gnu-toolchain/riscv-gcc/libgcc/soft-fp/addsf3.c:46 (discriminator 14)
80004e08:	fff68613          	addi	a2,a3,-1
80004e0c:	00061863          	bnez	a2,80004e1c <__addsf3+0x6c>
/home/hqfang/workspace/software/riscv-gnu-toolchain/riscv-gcc/libgcc/soft-fp/addsf3.c:46 (discriminator 75)
80004e10:	00e787b3          	add	a5,a5,a4
/home/hqfang/workspace/software/riscv-gnu-toolchain/riscv-gcc/libgcc/soft-fp/addsf3.c:45 (discriminator 75)
80004e14:	00100413          	li	s0,1
/home/hqfang/workspace/software/riscv-gnu-toolchain/riscv-gcc/libgcc/soft-fp/addsf3.c:46 (discriminator 75)
80004e18:	0500006f          	j	80004e68 <__addsf3+0xb8>
/home/hqfang/workspace/software/riscv-gnu-toolchain/riscv-gcc/libgcc/soft-fp/addsf3.c:46 (discriminator 24)
80004e1c:	0ff00593          	li	a1,255
80004e20:	02b69063          	bne	a3,a1,80004e40 <__addsf3+0x90>
/home/hqfang/workspace/software/riscv-gnu-toolchain/riscv-gcc/libgcc/soft-fp/addsf3.c:46
80004e24:	0ff00413          	li	s0,255
80004e28:	1180006f          	j	80004f40 <__addsf3+0x190>
/home/hqfang/workspace/software/riscv-gnu-toolchain/riscv-gcc/libgcc/soft-fp/addsf3.c:46 (discriminator 12)
80004e2c:	0ff00613          	li	a2,255
80004e30:	10c40863          	beq	s0,a2,80004f40 <__addsf3+0x190>
/home/hqfang/workspace/software/riscv-gnu-toolchain/riscv-gcc/libgcc/soft-fp/addsf3.c:46 (discriminator 38)
80004e34:	04000637          	lui	a2,0x4000
80004e38:	00c76733          	or	a4,a4,a2
80004e3c:	00068613          	mv	a2,a3
/home/hqfang/workspace/software/riscv-gnu-toolchain/riscv-gcc/libgcc/soft-fp/addsf3.c:46 (discriminator 47)
80004e40:	01b00593          	li	a1,27
80004e44:	00100693          	li	a3,1
80004e48:	00c5ce63          	blt	a1,a2,80004e64 <__addsf3+0xb4>
/home/hqfang/workspace/software/riscv-gnu-toolchain/riscv-gcc/libgcc/soft-fp/addsf3.c:46 (discriminator 48)
80004e4c:	02000693          	li	a3,32
80004e50:	40c686b3          	sub	a3,a3,a2
80004e54:	00c755b3          	srl	a1,a4,a2
80004e58:	00d71733          	sll	a4,a4,a3
80004e5c:	00e03733          	snez	a4,a4
80004e60:	00e5e6b3          	or	a3,a1,a4
/home/hqfang/workspace/software/riscv-gnu-toolchain/riscv-gcc/libgcc/soft-fp/addsf3.c:46 (discriminator 59)
80004e64:	00d787b3          	add	a5,a5,a3
/home/hqfang/workspace/software/riscv-gnu-toolchain/riscv-gcc/libgcc/soft-fp/addsf3.c:46 (discriminator 112)
80004e68:	04000737          	lui	a4,0x4000
80004e6c:	00e7f733          	and	a4,a5,a4
80004e70:	0c070863          	beqz	a4,80004f40 <__addsf3+0x190>
/home/hqfang/workspace/software/riscv-gnu-toolchain/riscv-gcc/libgcc/soft-fp/addsf3.c:46 (discriminator 171)
80004e74:	00140413          	addi	s0,s0,1 # bf800001 <_sp+0x2f7f0001>
80004e78:	0ff00713          	li	a4,255
80004e7c:	30e40263          	beq	s0,a4,80005180 <__addsf3+0x3d0>
/home/hqfang/workspace/software/riscv-gnu-toolchain/riscv-gcc/libgcc/soft-fp/addsf3.c:46
80004e80:	7e000737          	lui	a4,0x7e000
80004e84:	0017f693          	andi	a3,a5,1
80004e88:	fff70713          	addi	a4,a4,-1 # 7dffffff <__stack_size+0x7dfff7ff>
80004e8c:	0017d793          	srli	a5,a5,0x1
80004e90:	00e7f7b3          	and	a5,a5,a4
80004e94:	00d7e7b3          	or	a5,a5,a3
80004e98:	0a80006f          	j	80004f40 <__addsf3+0x190>
/home/hqfang/workspace/software/riscv-gnu-toolchain/riscv-gcc/libgcc/soft-fp/addsf3.c:46 (discriminator 10)
80004e9c:	06068663          	beqz	a3,80004f08 <__addsf3+0x158>
/home/hqfang/workspace/software/riscv-gnu-toolchain/riscv-gcc/libgcc/soft-fp/addsf3.c:46 (discriminator 61)
80004ea0:	408506b3          	sub	a3,a0,s0
80004ea4:	02041063          	bnez	s0,80004ec4 <__addsf3+0x114>
/home/hqfang/workspace/software/riscv-gnu-toolchain/riscv-gcc/libgcc/soft-fp/addsf3.c:46 (discriminator 63)
80004ea8:	2c078263          	beqz	a5,8000516c <__addsf3+0x3bc>
/home/hqfang/workspace/software/riscv-gnu-toolchain/riscv-gcc/libgcc/soft-fp/addsf3.c:46 (discriminator 66)
80004eac:	fff68613          	addi	a2,a3,-1
80004eb0:	f60600e3          	beqz	a2,80004e10 <__addsf3+0x60>
/home/hqfang/workspace/software/riscv-gnu-toolchain/riscv-gcc/libgcc/soft-fp/addsf3.c:46 (discriminator 76)
80004eb4:	0ff00593          	li	a1,255
80004eb8:	02b69063          	bne	a3,a1,80004ed8 <__addsf3+0x128>
/home/hqfang/workspace/software/riscv-gnu-toolchain/riscv-gcc/libgcc/soft-fp/addsf3.c:45
80004ebc:	00070793          	mv	a5,a4
80004ec0:	f65ff06f          	j	80004e24 <__addsf3+0x74>
/home/hqfang/workspace/software/riscv-gnu-toolchain/riscv-gcc/libgcc/soft-fp/addsf3.c:46 (discriminator 64)
80004ec4:	0ff00613          	li	a2,255
80004ec8:	fec50ae3          	beq	a0,a2,80004ebc <__addsf3+0x10c>
/home/hqfang/workspace/software/riscv-gnu-toolchain/riscv-gcc/libgcc/soft-fp/addsf3.c:46 (discriminator 90)
80004ecc:	04000637          	lui	a2,0x4000
80004ed0:	00c7e7b3          	or	a5,a5,a2
80004ed4:	00068613          	mv	a2,a3
/home/hqfang/workspace/software/riscv-gnu-toolchain/riscv-gcc/libgcc/soft-fp/addsf3.c:46 (discriminator 99)
80004ed8:	01b00593          	li	a1,27
80004edc:	00100693          	li	a3,1
80004ee0:	00c5ce63          	blt	a1,a2,80004efc <__addsf3+0x14c>
/home/hqfang/workspace/software/riscv-gnu-toolchain/riscv-gcc/libgcc/soft-fp/addsf3.c:46 (discriminator 100)
80004ee4:	02000693          	li	a3,32
80004ee8:	40c686b3          	sub	a3,a3,a2
80004eec:	00c7d5b3          	srl	a1,a5,a2
80004ef0:	00d797b3          	sll	a5,a5,a3
80004ef4:	00f037b3          	snez	a5,a5
80004ef8:	00f5e6b3          	or	a3,a1,a5
/home/hqfang/workspace/software/riscv-gnu-toolchain/riscv-gcc/libgcc/soft-fp/addsf3.c:46 (discriminator 111)
80004efc:	00e687b3          	add	a5,a3,a4
/home/hqfang/workspace/software/riscv-gnu-toolchain/riscv-gcc/libgcc/soft-fp/addsf3.c:45 (discriminator 111)
80004f00:	00050413          	mv	s0,a0
80004f04:	f65ff06f          	j	80004e68 <__addsf3+0xb8>
/home/hqfang/workspace/software/riscv-gnu-toolchain/riscv-gcc/libgcc/soft-fp/addsf3.c:46 (discriminator 62)
80004f08:	00140693          	addi	a3,s0,1
80004f0c:	0fe6f613          	andi	a2,a3,254
80004f10:	06061263          	bnez	a2,80004f74 <__addsf3+0x1c4>
/home/hqfang/workspace/software/riscv-gnu-toolchain/riscv-gcc/libgcc/soft-fp/addsf3.c:46 (discriminator 113)
80004f14:	04041463          	bnez	s0,80004f5c <__addsf3+0x1ac>
/home/hqfang/workspace/software/riscv-gnu-toolchain/riscv-gcc/libgcc/soft-fp/addsf3.c:46 (discriminator 115)
80004f18:	24078e63          	beqz	a5,80005174 <__addsf3+0x3c4>
/home/hqfang/workspace/software/riscv-gnu-toolchain/riscv-gcc/libgcc/soft-fp/addsf3.c:46 (discriminator 118)
80004f1c:	02070263          	beqz	a4,80004f40 <__addsf3+0x190>
/home/hqfang/workspace/software/riscv-gnu-toolchain/riscv-gcc/libgcc/soft-fp/addsf3.c:46 (discriminator 124)
80004f20:	00e787b3          	add	a5,a5,a4
80004f24:	04000737          	lui	a4,0x4000
80004f28:	00e7f733          	and	a4,a5,a4
80004f2c:	00070a63          	beqz	a4,80004f40 <__addsf3+0x190>
/home/hqfang/workspace/software/riscv-gnu-toolchain/riscv-gcc/libgcc/soft-fp/addsf3.c:46 (discriminator 126)
80004f30:	fc000737          	lui	a4,0xfc000
80004f34:	fff70713          	addi	a4,a4,-1 # fbffffff <_sp+0x6bfeffff>
80004f38:	00e7f7b3          	and	a5,a5,a4
80004f3c:	00100413          	li	s0,1
/home/hqfang/workspace/software/riscv-gnu-toolchain/riscv-gcc/libgcc/soft-fp/addsf3.c:47 (discriminator 377)
80004f40:	0077f713          	andi	a4,a5,7
80004f44:	24070063          	beqz	a4,80005184 <__addsf3+0x3d4>
/home/hqfang/workspace/software/riscv-gnu-toolchain/riscv-gcc/libgcc/soft-fp/addsf3.c:47 (discriminator 37)
80004f48:	00f7f713          	andi	a4,a5,15
80004f4c:	00400693          	li	a3,4
80004f50:	22d70a63          	beq	a4,a3,80005184 <__addsf3+0x3d4>
/home/hqfang/workspace/software/riscv-gnu-toolchain/riscv-gcc/libgcc/soft-fp/addsf3.c:47 (discriminator 44)
80004f54:	00478793          	addi	a5,a5,4
80004f58:	22c0006f          	j	80005184 <__addsf3+0x3d4>
/home/hqfang/workspace/software/riscv-gnu-toolchain/riscv-gcc/libgcc/soft-fp/addsf3.c:46 (discriminator 143)
80004f5c:	f60780e3          	beqz	a5,80004ebc <__addsf3+0x10c>
/home/hqfang/workspace/software/riscv-gnu-toolchain/riscv-gcc/libgcc/soft-fp/addsf3.c:46 (discriminator 329)
80004f60:	ec0702e3          	beqz	a4,80004e24 <__addsf3+0x74>
/home/hqfang/workspace/software/riscv-gnu-toolchain/riscv-gcc/libgcc/soft-fp/addsf3.c:46
80004f64:	00000493          	li	s1,0
80004f68:	020007b7          	lui	a5,0x2000
80004f6c:	0ff00413          	li	s0,255
80004f70:	2140006f          	j	80005184 <__addsf3+0x3d4>
/home/hqfang/workspace/software/riscv-gnu-toolchain/riscv-gcc/libgcc/soft-fp/addsf3.c:46 (discriminator 114)
80004f74:	0ff00613          	li	a2,255
80004f78:	20c68263          	beq	a3,a2,8000517c <__addsf3+0x3cc>
/home/hqfang/workspace/software/riscv-gnu-toolchain/riscv-gcc/libgcc/soft-fp/addsf3.c:46
80004f7c:	00e787b3          	add	a5,a5,a4
80004f80:	0017d793          	srli	a5,a5,0x1
80004f84:	00068413          	mv	s0,a3
80004f88:	fb9ff06f          	j	80004f40 <__addsf3+0x190>
/home/hqfang/workspace/software/riscv-gnu-toolchain/riscv-gcc/libgcc/soft-fp/addsf3.c:46 (discriminator 8)
80004f8c:	08d05063          	blez	a3,8000500c <__addsf3+0x25c>
/home/hqfang/workspace/software/riscv-gnu-toolchain/riscv-gcc/libgcc/soft-fp/addsf3.c:46 (discriminator 189)
80004f90:	06051263          	bnez	a0,80004ff4 <__addsf3+0x244>
/home/hqfang/workspace/software/riscv-gnu-toolchain/riscv-gcc/libgcc/soft-fp/addsf3.c:46 (discriminator 191)
80004f94:	fe0708e3          	beqz	a4,80004f84 <__addsf3+0x1d4>
/home/hqfang/workspace/software/riscv-gnu-toolchain/riscv-gcc/libgcc/soft-fp/addsf3.c:46 (discriminator 194)
80004f98:	fff68613          	addi	a2,a3,-1
80004f9c:	00061863          	bnez	a2,80004fac <__addsf3+0x1fc>
/home/hqfang/workspace/software/riscv-gnu-toolchain/riscv-gcc/libgcc/soft-fp/addsf3.c:46 (discriminator 203)
80004fa0:	40e787b3          	sub	a5,a5,a4
/home/hqfang/workspace/software/riscv-gnu-toolchain/riscv-gcc/libgcc/soft-fp/addsf3.c:45 (discriminator 255)
80004fa4:	00100413          	li	s0,1
/home/hqfang/workspace/software/riscv-gnu-toolchain/riscv-gcc/libgcc/soft-fp/addsf3.c:46 (discriminator 255)
80004fa8:	0340006f          	j	80004fdc <__addsf3+0x22c>
/home/hqfang/workspace/software/riscv-gnu-toolchain/riscv-gcc/libgcc/soft-fp/addsf3.c:46 (discriminator 204)
80004fac:	0ff00593          	li	a1,255
80004fb0:	e6b68ae3          	beq	a3,a1,80004e24 <__addsf3+0x74>
/home/hqfang/workspace/software/riscv-gnu-toolchain/riscv-gcc/libgcc/soft-fp/addsf3.c:46 (discriminator 227)
80004fb4:	01b00593          	li	a1,27
80004fb8:	00100693          	li	a3,1
80004fbc:	00c5ce63          	blt	a1,a2,80004fd8 <__addsf3+0x228>
/home/hqfang/workspace/software/riscv-gnu-toolchain/riscv-gcc/libgcc/soft-fp/addsf3.c:46 (discriminator 228)
80004fc0:	02000693          	li	a3,32
80004fc4:	40c686b3          	sub	a3,a3,a2
80004fc8:	00c755b3          	srl	a1,a4,a2
80004fcc:	00d71733          	sll	a4,a4,a3
80004fd0:	00e03733          	snez	a4,a4
80004fd4:	00e5e6b3          	or	a3,a1,a4
/home/hqfang/workspace/software/riscv-gnu-toolchain/riscv-gcc/libgcc/soft-fp/addsf3.c:46 (discriminator 239)
80004fd8:	40d787b3          	sub	a5,a5,a3
/home/hqfang/workspace/software/riscv-gnu-toolchain/riscv-gcc/libgcc/soft-fp/addsf3.c:46 (discriminator 292)
80004fdc:	04000937          	lui	s2,0x4000
80004fe0:	0127f733          	and	a4,a5,s2
80004fe4:	f4070ee3          	beqz	a4,80004f40 <__addsf3+0x190>
/home/hqfang/workspace/software/riscv-gnu-toolchain/riscv-gcc/libgcc/soft-fp/addsf3.c:46 (discriminator 351)
80004fe8:	fff90913          	addi	s2,s2,-1 # 3ffffff <__stack_size+0x3fff7ff>
80004fec:	0127f933          	and	s2,a5,s2
80004ff0:	1180006f          	j	80005108 <__addsf3+0x358>
/home/hqfang/workspace/software/riscv-gnu-toolchain/riscv-gcc/libgcc/soft-fp/addsf3.c:46 (discriminator 192)
80004ff4:	0ff00613          	li	a2,255
80004ff8:	f4c404e3          	beq	s0,a2,80004f40 <__addsf3+0x190>
/home/hqfang/workspace/software/riscv-gnu-toolchain/riscv-gcc/libgcc/soft-fp/addsf3.c:46 (discriminator 218)
80004ffc:	04000637          	lui	a2,0x4000
80005000:	00c76733          	or	a4,a4,a2
80005004:	00068613          	mv	a2,a3
80005008:	fadff06f          	j	80004fb4 <__addsf3+0x204>
/home/hqfang/workspace/software/riscv-gnu-toolchain/riscv-gcc/libgcc/soft-fp/addsf3.c:46 (discriminator 190)
8000500c:	08068063          	beqz	a3,8000508c <__addsf3+0x2dc>
/home/hqfang/workspace/software/riscv-gnu-toolchain/riscv-gcc/libgcc/soft-fp/addsf3.c:46 (discriminator 241)
80005010:	408506b3          	sub	a3,a0,s0
80005014:	02041863          	bnez	s0,80005044 <__addsf3+0x294>
/home/hqfang/workspace/software/riscv-gnu-toolchain/riscv-gcc/libgcc/soft-fp/addsf3.c:46 (discriminator 243)
80005018:	1e078063          	beqz	a5,800051f8 <__addsf3+0x448>
/home/hqfang/workspace/software/riscv-gnu-toolchain/riscv-gcc/libgcc/soft-fp/addsf3.c:46 (discriminator 246)
8000501c:	fff68613          	addi	a2,a3,-1
80005020:	00061863          	bnez	a2,80005030 <__addsf3+0x280>
/home/hqfang/workspace/software/riscv-gnu-toolchain/riscv-gcc/libgcc/soft-fp/addsf3.c:46 (discriminator 255)
80005024:	40f707b3          	sub	a5,a4,a5
80005028:	00058493          	mv	s1,a1
8000502c:	f79ff06f          	j	80004fa4 <__addsf3+0x1f4>
/home/hqfang/workspace/software/riscv-gnu-toolchain/riscv-gcc/libgcc/soft-fp/addsf3.c:46 (discriminator 256)
80005030:	0ff00813          	li	a6,255
80005034:	03069263          	bne	a3,a6,80005058 <__addsf3+0x2a8>
/home/hqfang/workspace/software/riscv-gnu-toolchain/riscv-gcc/libgcc/soft-fp/addsf3.c:45
80005038:	00070793          	mv	a5,a4
/home/hqfang/workspace/software/riscv-gnu-toolchain/riscv-gcc/libgcc/soft-fp/addsf3.c:46
8000503c:	0ff00413          	li	s0,255
80005040:	06c0006f          	j	800050ac <__addsf3+0x2fc>
/home/hqfang/workspace/software/riscv-gnu-toolchain/riscv-gcc/libgcc/soft-fp/addsf3.c:46 (discriminator 244)
80005044:	0ff00613          	li	a2,255
80005048:	fec508e3          	beq	a0,a2,80005038 <__addsf3+0x288>
/home/hqfang/workspace/software/riscv-gnu-toolchain/riscv-gcc/libgcc/soft-fp/addsf3.c:46 (discriminator 270)
8000504c:	04000637          	lui	a2,0x4000
80005050:	00c7e7b3          	or	a5,a5,a2
80005054:	00068613          	mv	a2,a3
/home/hqfang/workspace/software/riscv-gnu-toolchain/riscv-gcc/libgcc/soft-fp/addsf3.c:46 (discriminator 279)
80005058:	01b00813          	li	a6,27
8000505c:	00100693          	li	a3,1
80005060:	00c84e63          	blt	a6,a2,8000507c <__addsf3+0x2cc>
/home/hqfang/workspace/software/riscv-gnu-toolchain/riscv-gcc/libgcc/soft-fp/addsf3.c:46 (discriminator 280)
80005064:	02000693          	li	a3,32
80005068:	40c686b3          	sub	a3,a3,a2
8000506c:	00c7d833          	srl	a6,a5,a2
80005070:	00d797b3          	sll	a5,a5,a3
80005074:	00f037b3          	snez	a5,a5
80005078:	00f866b3          	or	a3,a6,a5
/home/hqfang/workspace/software/riscv-gnu-toolchain/riscv-gcc/libgcc/soft-fp/addsf3.c:46 (discriminator 291)
8000507c:	40d707b3          	sub	a5,a4,a3
/home/hqfang/workspace/software/riscv-gnu-toolchain/riscv-gcc/libgcc/soft-fp/addsf3.c:45 (discriminator 291)
80005080:	00050413          	mv	s0,a0
80005084:	00058493          	mv	s1,a1
80005088:	f55ff06f          	j	80004fdc <__addsf3+0x22c>
/home/hqfang/workspace/software/riscv-gnu-toolchain/riscv-gcc/libgcc/soft-fp/addsf3.c:46 (discriminator 242)
8000508c:	00140693          	addi	a3,s0,1
80005090:	0fe6f693          	andi	a3,a3,254
80005094:	04069e63          	bnez	a3,800050f0 <__addsf3+0x340>
/home/hqfang/workspace/software/riscv-gnu-toolchain/riscv-gcc/libgcc/soft-fp/addsf3.c:46 (discriminator 293)
80005098:	04041263          	bnez	s0,800050dc <__addsf3+0x32c>
/home/hqfang/workspace/software/riscv-gnu-toolchain/riscv-gcc/libgcc/soft-fp/addsf3.c:46 (discriminator 295)
8000509c:	00079c63          	bnez	a5,800050b4 <__addsf3+0x304>
/home/hqfang/workspace/software/riscv-gnu-toolchain/riscv-gcc/libgcc/soft-fp/addsf3.c:46 (discriminator 297)
800050a0:	00000493          	li	s1,0
800050a4:	0e070063          	beqz	a4,80005184 <__addsf3+0x3d4>
/home/hqfang/workspace/software/riscv-gnu-toolchain/riscv-gcc/libgcc/soft-fp/addsf3.c:46
800050a8:	00070793          	mv	a5,a4
800050ac:	00058493          	mv	s1,a1
800050b0:	e91ff06f          	j	80004f40 <__addsf3+0x190>
/home/hqfang/workspace/software/riscv-gnu-toolchain/riscv-gcc/libgcc/soft-fp/addsf3.c:46 (discriminator 298)
800050b4:	e80706e3          	beqz	a4,80004f40 <__addsf3+0x190>
/home/hqfang/workspace/software/riscv-gnu-toolchain/riscv-gcc/libgcc/soft-fp/addsf3.c:46 (discriminator 305)
800050b8:	40e786b3          	sub	a3,a5,a4
800050bc:	04000637          	lui	a2,0x4000
800050c0:	00c6f633          	and	a2,a3,a2
800050c4:	40f707b3          	sub	a5,a4,a5
800050c8:	fe0612e3          	bnez	a2,800050ac <__addsf3+0x2fc>
/home/hqfang/workspace/software/riscv-gnu-toolchain/riscv-gcc/libgcc/soft-fp/addsf3.c:46 (discriminator 308)
800050cc:	00000793          	li	a5,0
800050d0:	08068063          	beqz	a3,80005150 <__addsf3+0x3a0>
800050d4:	00068793          	mv	a5,a3
800050d8:	e69ff06f          	j	80004f40 <__addsf3+0x190>
/home/hqfang/workspace/software/riscv-gnu-toolchain/riscv-gcc/libgcc/soft-fp/addsf3.c:46 (discriminator 327)
800050dc:	e80792e3          	bnez	a5,80004f60 <__addsf3+0x1b0>
/home/hqfang/workspace/software/riscv-gnu-toolchain/riscv-gcc/libgcc/soft-fp/addsf3.c:46 (discriminator 328)
800050e0:	e80702e3          	beqz	a4,80004f64 <__addsf3+0x1b4>
/home/hqfang/workspace/software/riscv-gnu-toolchain/riscv-gcc/libgcc/soft-fp/addsf3.c:46
800050e4:	00070793          	mv	a5,a4
800050e8:	00058493          	mv	s1,a1
800050ec:	d39ff06f          	j	80004e24 <__addsf3+0x74>
/home/hqfang/workspace/software/riscv-gnu-toolchain/riscv-gcc/libgcc/soft-fp/addsf3.c:46 (discriminator 294)
800050f0:	40e78933          	sub	s2,a5,a4
800050f4:	040006b7          	lui	a3,0x4000
800050f8:	00d976b3          	and	a3,s2,a3
800050fc:	04068463          	beqz	a3,80005144 <__addsf3+0x394>
/home/hqfang/workspace/software/riscv-gnu-toolchain/riscv-gcc/libgcc/soft-fp/addsf3.c:46 (discriminator 344)
80005100:	40f70933          	sub	s2,a4,a5
80005104:	00058493          	mv	s1,a1
/home/hqfang/workspace/software/riscv-gnu-toolchain/riscv-gcc/libgcc/soft-fp/addsf3.c:46 (discriminator 354)
80005108:	00090513          	mv	a0,s2
8000510c:	298010ef          	jal	ra,800063a4 <__clzsi2>
80005110:	ffb50513          	addi	a0,a0,-5
80005114:	00a91933          	sll	s2,s2,a0
80005118:	04854063          	blt	a0,s0,80005158 <__addsf3+0x3a8>
/home/hqfang/workspace/software/riscv-gnu-toolchain/riscv-gcc/libgcc/soft-fp/addsf3.c:46 (discriminator 367)
8000511c:	40850533          	sub	a0,a0,s0
80005120:	00150513          	addi	a0,a0,1
80005124:	02000413          	li	s0,32
80005128:	00a957b3          	srl	a5,s2,a0
8000512c:	40a40533          	sub	a0,s0,a0
80005130:	00a91933          	sll	s2,s2,a0
80005134:	01203933          	snez	s2,s2
80005138:	0127e7b3          	or	a5,a5,s2
8000513c:	00000413          	li	s0,0
80005140:	e01ff06f          	j	80004f40 <__addsf3+0x190>
/home/hqfang/workspace/software/riscv-gnu-toolchain/riscv-gcc/libgcc/soft-fp/addsf3.c:46 (discriminator 345)
80005144:	fc0912e3          	bnez	s2,80005108 <__addsf3+0x358>
/home/hqfang/workspace/software/riscv-gnu-toolchain/riscv-gcc/libgcc/soft-fp/addsf3.c:46
80005148:	00000793          	li	a5,0
8000514c:	00000413          	li	s0,0
80005150:	00000493          	li	s1,0
80005154:	0300006f          	j	80005184 <__addsf3+0x3d4>
/home/hqfang/workspace/software/riscv-gnu-toolchain/riscv-gcc/libgcc/soft-fp/addsf3.c:46 (discriminator 368)
80005158:	fc0007b7          	lui	a5,0xfc000
8000515c:	fff78793          	addi	a5,a5,-1 # fbffffff <_sp+0x6bfeffff>
80005160:	40a40433          	sub	s0,s0,a0
80005164:	00f977b3          	and	a5,s2,a5
80005168:	dd9ff06f          	j	80004f40 <__addsf3+0x190>
/home/hqfang/workspace/software/riscv-gnu-toolchain/riscv-gcc/libgcc/soft-fp/addsf3.c:45
8000516c:	00070793          	mv	a5,a4
80005170:	e15ff06f          	j	80004f84 <__addsf3+0x1d4>
80005174:	00070793          	mv	a5,a4
80005178:	dc9ff06f          	j	80004f40 <__addsf3+0x190>
8000517c:	0ff00413          	li	s0,255
80005180:	00000793          	li	a5,0
/home/hqfang/workspace/software/riscv-gnu-toolchain/riscv-gcc/libgcc/soft-fp/addsf3.c:47 (discriminator 47)
80005184:	04000737          	lui	a4,0x4000
80005188:	00e7f733          	and	a4,a5,a4
8000518c:	00070e63          	beqz	a4,800051a8 <__addsf3+0x3f8>
/home/hqfang/workspace/software/riscv-gnu-toolchain/riscv-gcc/libgcc/soft-fp/addsf3.c:47 (discriminator 63)
80005190:	00140413          	addi	s0,s0,1
80005194:	0ff00713          	li	a4,255
80005198:	06e40663          	beq	s0,a4,80005204 <__addsf3+0x454>
/home/hqfang/workspace/software/riscv-gnu-toolchain/riscv-gcc/libgcc/soft-fp/addsf3.c:47
8000519c:	fc000737          	lui	a4,0xfc000
800051a0:	fff70713          	addi	a4,a4,-1 # fbffffff <_sp+0x6bfeffff>
800051a4:	00e7f7b3          	and	a5,a5,a4
/home/hqfang/workspace/software/riscv-gnu-toolchain/riscv-gcc/libgcc/soft-fp/addsf3.c:47 (discriminator 79)
800051a8:	0ff00713          	li	a4,255
800051ac:	0037d793          	srli	a5,a5,0x3
800051b0:	00e41863          	bne	s0,a4,800051c0 <__addsf3+0x410>
/home/hqfang/workspace/software/riscv-gnu-toolchain/riscv-gcc/libgcc/soft-fp/addsf3.c:47 (discriminator 80)
800051b4:	00078663          	beqz	a5,800051c0 <__addsf3+0x410>
/home/hqfang/workspace/software/riscv-gnu-toolchain/riscv-gcc/libgcc/soft-fp/addsf3.c:47
800051b8:	004007b7          	lui	a5,0x400
800051bc:	00000493          	li	s1,0
/home/hqfang/workspace/software/riscv-gnu-toolchain/riscv-gcc/libgcc/soft-fp/addsf3.c:47 (discriminator 90)
800051c0:	7f800537          	lui	a0,0x7f800
800051c4:	01741413          	slli	s0,s0,0x17
800051c8:	00979793          	slli	a5,a5,0x9
800051cc:	00a47433          	and	s0,s0,a0
800051d0:	0097d793          	srli	a5,a5,0x9
/home/hqfang/workspace/software/riscv-gnu-toolchain/riscv-gcc/libgcc/soft-fp/addsf3.c:51 (discriminator 90)
800051d4:	00c12083          	lw	ra,12(sp)
/home/hqfang/workspace/software/riscv-gnu-toolchain/riscv-gcc/libgcc/soft-fp/addsf3.c:47 (discriminator 90)
800051d8:	00f467b3          	or	a5,s0,a5
/home/hqfang/workspace/software/riscv-gnu-toolchain/riscv-gcc/libgcc/soft-fp/addsf3.c:51 (discriminator 90)
800051dc:	00812403          	lw	s0,8(sp)
/home/hqfang/workspace/software/riscv-gnu-toolchain/riscv-gcc/libgcc/soft-fp/addsf3.c:47 (discriminator 90)
800051e0:	01f49513          	slli	a0,s1,0x1f
/home/hqfang/workspace/software/riscv-gnu-toolchain/riscv-gcc/libgcc/soft-fp/addsf3.c:51 (discriminator 90)
800051e4:	00012903          	lw	s2,0(sp)
800051e8:	00412483          	lw	s1,4(sp)
800051ec:	00a7e533          	or	a0,a5,a0
800051f0:	01010113          	addi	sp,sp,16
800051f4:	00008067          	ret
/home/hqfang/workspace/software/riscv-gnu-toolchain/riscv-gcc/libgcc/soft-fp/addsf3.c:45
800051f8:	00070793          	mv	a5,a4
/home/hqfang/workspace/software/riscv-gnu-toolchain/riscv-gcc/libgcc/soft-fp/addsf3.c:46
800051fc:	00068413          	mv	s0,a3
80005200:	eadff06f          	j	800050ac <__addsf3+0x2fc>
80005204:	00000793          	li	a5,0
80005208:	fa1ff06f          	j	800051a8 <__addsf3+0x3f8>

8000520c <__divsf3>:
__divsf3():
/home/hqfang/workspace/software/riscv-gnu-toolchain/riscv-gcc/libgcc/soft-fp/divsf3.c:36
8000520c:	fe010113          	addi	sp,sp,-32
80005210:	00912a23          	sw	s1,20(sp)
80005214:	01755493          	srli	s1,a0,0x17
80005218:	01212823          	sw	s2,16(sp)
8000521c:	01312623          	sw	s3,12(sp)
80005220:	01412423          	sw	s4,8(sp)
/home/hqfang/workspace/software/riscv-gnu-toolchain/riscv-gcc/libgcc/soft-fp/divsf3.c:44
80005224:	00951993          	slli	s3,a0,0x9
/home/hqfang/workspace/software/riscv-gnu-toolchain/riscv-gcc/libgcc/soft-fp/divsf3.c:36
80005228:	00112e23          	sw	ra,28(sp)
8000522c:	00812c23          	sw	s0,24(sp)
80005230:	01512223          	sw	s5,4(sp)
80005234:	0ff4f493          	andi	s1,s1,255
80005238:	00058a13          	mv	s4,a1
/home/hqfang/workspace/software/riscv-gnu-toolchain/riscv-gcc/libgcc/soft-fp/divsf3.c:44
8000523c:	0099d993          	srli	s3,s3,0x9
80005240:	01f55913          	srli	s2,a0,0x1f
80005244:	08048663          	beqz	s1,800052d0 <__divsf3+0xc4>
80005248:	0ff00793          	li	a5,255
8000524c:	0af48263          	beq	s1,a5,800052f0 <__divsf3+0xe4>
/home/hqfang/workspace/software/riscv-gnu-toolchain/riscv-gcc/libgcc/soft-fp/divsf3.c:44 (discriminator 1)
80005250:	00399993          	slli	s3,s3,0x3
80005254:	040007b7          	lui	a5,0x4000
80005258:	00f9e9b3          	or	s3,s3,a5
8000525c:	f8148493          	addi	s1,s1,-127
/home/hqfang/workspace/software/riscv-gnu-toolchain/riscv-gcc/libgcc/soft-fp/divsf3.c:44 (discriminator 15)
80005260:	00000a93          	li	s5,0
/home/hqfang/workspace/software/riscv-gnu-toolchain/riscv-gcc/libgcc/soft-fp/divsf3.c:45 (discriminator 8)
80005264:	017a5513          	srli	a0,s4,0x17
80005268:	009a1413          	slli	s0,s4,0x9
8000526c:	0ff57513          	andi	a0,a0,255
80005270:	00945413          	srli	s0,s0,0x9
80005274:	01fa5a13          	srli	s4,s4,0x1f
80005278:	08050c63          	beqz	a0,80005310 <__divsf3+0x104>
/home/hqfang/workspace/software/riscv-gnu-toolchain/riscv-gcc/libgcc/soft-fp/divsf3.c:45
8000527c:	0ff00793          	li	a5,255
80005280:	0af50863          	beq	a0,a5,80005330 <__divsf3+0x124>
/home/hqfang/workspace/software/riscv-gnu-toolchain/riscv-gcc/libgcc/soft-fp/divsf3.c:45 (discriminator 1)
80005284:	00341413          	slli	s0,s0,0x3
80005288:	040007b7          	lui	a5,0x4000
8000528c:	00f46433          	or	s0,s0,a5
80005290:	f8150513          	addi	a0,a0,-127 # 7f7fff81 <__stack_size+0x7f7ff781>
/home/hqfang/workspace/software/riscv-gnu-toolchain/riscv-gcc/libgcc/soft-fp/divsf3.c:45 (discriminator 15)
80005294:	00000793          	li	a5,0
/home/hqfang/workspace/software/riscv-gnu-toolchain/riscv-gcc/libgcc/soft-fp/divsf3.c:46 (discriminator 8)
80005298:	002a9693          	slli	a3,s5,0x2
8000529c:	00f6e6b3          	or	a3,a3,a5
800052a0:	fff68693          	addi	a3,a3,-1 # 3ffffff <__stack_size+0x3fff7ff>
800052a4:	00e00713          	li	a4,14
800052a8:	01494633          	xor	a2,s2,s4
800052ac:	40a48533          	sub	a0,s1,a0
800052b0:	0ad76063          	bltu	a4,a3,80005350 <__divsf3+0x144>
800052b4:	00009597          	auipc	a1,0x9
800052b8:	8b058593          	addi	a1,a1,-1872 # 8000db64 <init_jk+0xc>
800052bc:	00269693          	slli	a3,a3,0x2
800052c0:	00b686b3          	add	a3,a3,a1
800052c4:	0006a703          	lw	a4,0(a3)
800052c8:	00b70733          	add	a4,a4,a1
800052cc:	00070067          	jr	a4
/home/hqfang/workspace/software/riscv-gnu-toolchain/riscv-gcc/libgcc/soft-fp/divsf3.c:44 (discriminator 2)
800052d0:	02098a63          	beqz	s3,80005304 <__divsf3+0xf8>
/home/hqfang/workspace/software/riscv-gnu-toolchain/riscv-gcc/libgcc/soft-fp/divsf3.c:44 (discriminator 15)
800052d4:	00098513          	mv	a0,s3
800052d8:	0cc010ef          	jal	ra,800063a4 <__clzsi2>
800052dc:	ffb50793          	addi	a5,a0,-5
800052e0:	f8a00493          	li	s1,-118
800052e4:	00f999b3          	sll	s3,s3,a5
800052e8:	40a484b3          	sub	s1,s1,a0
800052ec:	f75ff06f          	j	80005260 <__divsf3+0x54>
/home/hqfang/workspace/software/riscv-gnu-toolchain/riscv-gcc/libgcc/soft-fp/divsf3.c:44 (discriminator 3)
800052f0:	0ff00493          	li	s1,255
800052f4:	00200a93          	li	s5,2
800052f8:	f60986e3          	beqz	s3,80005264 <__divsf3+0x58>
/home/hqfang/workspace/software/riscv-gnu-toolchain/riscv-gcc/libgcc/soft-fp/divsf3.c:44
800052fc:	00300a93          	li	s5,3
80005300:	f65ff06f          	j	80005264 <__divsf3+0x58>
80005304:	00000493          	li	s1,0
80005308:	00100a93          	li	s5,1
8000530c:	f59ff06f          	j	80005264 <__divsf3+0x58>
/home/hqfang/workspace/software/riscv-gnu-toolchain/riscv-gcc/libgcc/soft-fp/divsf3.c:45 (discriminator 2)
80005310:	02040a63          	beqz	s0,80005344 <__divsf3+0x138>
/home/hqfang/workspace/software/riscv-gnu-toolchain/riscv-gcc/libgcc/soft-fp/divsf3.c:45 (discriminator 15)
80005314:	00040513          	mv	a0,s0
80005318:	08c010ef          	jal	ra,800063a4 <__clzsi2>
8000531c:	ffb50793          	addi	a5,a0,-5
80005320:	00f41433          	sll	s0,s0,a5
80005324:	f8a00793          	li	a5,-118
80005328:	40a78533          	sub	a0,a5,a0
8000532c:	f69ff06f          	j	80005294 <__divsf3+0x88>
/home/hqfang/workspace/software/riscv-gnu-toolchain/riscv-gcc/libgcc/soft-fp/divsf3.c:45 (discriminator 3)
80005330:	0ff00513          	li	a0,255
80005334:	00200793          	li	a5,2
80005338:	f60400e3          	beqz	s0,80005298 <__divsf3+0x8c>
/home/hqfang/workspace/software/riscv-gnu-toolchain/riscv-gcc/libgcc/soft-fp/divsf3.c:45
8000533c:	00300793          	li	a5,3
80005340:	f59ff06f          	j	80005298 <__divsf3+0x8c>
80005344:	00000513          	li	a0,0
80005348:	00100793          	li	a5,1
8000534c:	f4dff06f          	j	80005298 <__divsf3+0x8c>
/home/hqfang/workspace/software/riscv-gnu-toolchain/riscv-gcc/libgcc/soft-fp/divsf3.c:46 (discriminator 2)
80005350:	00541813          	slli	a6,s0,0x5
80005354:	1289f463          	bgeu	s3,s0,8000547c <__divsf3+0x270>
/home/hqfang/workspace/software/riscv-gnu-toolchain/riscv-gcc/libgcc/soft-fp/divsf3.c:46 (discriminator 10)
80005358:	fff50513          	addi	a0,a0,-1
8000535c:	00000693          	li	a3,0
/home/hqfang/workspace/software/riscv-gnu-toolchain/riscv-gcc/libgcc/soft-fp/divsf3.c:46 (discriminator 13)
80005360:	01085413          	srli	s0,a6,0x10
80005364:	0289d333          	divu	t1,s3,s0
80005368:	000107b7          	lui	a5,0x10
8000536c:	fff78793          	addi	a5,a5,-1 # ffff <__stack_size+0xf7ff>
80005370:	00f877b3          	and	a5,a6,a5
80005374:	0106d693          	srli	a3,a3,0x10
80005378:	0289f733          	remu	a4,s3,s0
8000537c:	00030593          	mv	a1,t1
80005380:	026788b3          	mul	a7,a5,t1
80005384:	01071713          	slli	a4,a4,0x10
80005388:	00e6e733          	or	a4,a3,a4
8000538c:	01177e63          	bgeu	a4,a7,800053a8 <__divsf3+0x19c>
/home/hqfang/workspace/software/riscv-gnu-toolchain/riscv-gcc/libgcc/soft-fp/divsf3.c:46 (discriminator 14)
80005390:	01070733          	add	a4,a4,a6
80005394:	fff30593          	addi	a1,t1,-1
80005398:	01076863          	bltu	a4,a6,800053a8 <__divsf3+0x19c>
/home/hqfang/workspace/software/riscv-gnu-toolchain/riscv-gcc/libgcc/soft-fp/divsf3.c:46 (discriminator 16)
8000539c:	01177663          	bgeu	a4,a7,800053a8 <__divsf3+0x19c>
/home/hqfang/workspace/software/riscv-gnu-toolchain/riscv-gcc/libgcc/soft-fp/divsf3.c:46 (discriminator 18)
800053a0:	ffe30593          	addi	a1,t1,-2
800053a4:	01070733          	add	a4,a4,a6
/home/hqfang/workspace/software/riscv-gnu-toolchain/riscv-gcc/libgcc/soft-fp/divsf3.c:46 (discriminator 20)
800053a8:	41170733          	sub	a4,a4,a7
800053ac:	028758b3          	divu	a7,a4,s0
800053b0:	02877733          	remu	a4,a4,s0
800053b4:	031786b3          	mul	a3,a5,a7
800053b8:	01071793          	slli	a5,a4,0x10
800053bc:	00088713          	mv	a4,a7
800053c0:	00d7fe63          	bgeu	a5,a3,800053dc <__divsf3+0x1d0>
/home/hqfang/workspace/software/riscv-gnu-toolchain/riscv-gcc/libgcc/soft-fp/divsf3.c:46 (discriminator 21)
800053c4:	010787b3          	add	a5,a5,a6
800053c8:	fff88713          	addi	a4,a7,-1
800053cc:	0107e863          	bltu	a5,a6,800053dc <__divsf3+0x1d0>
/home/hqfang/workspace/software/riscv-gnu-toolchain/riscv-gcc/libgcc/soft-fp/divsf3.c:46 (discriminator 23)
800053d0:	00d7f663          	bgeu	a5,a3,800053dc <__divsf3+0x1d0>
/home/hqfang/workspace/software/riscv-gnu-toolchain/riscv-gcc/libgcc/soft-fp/divsf3.c:46 (discriminator 25)
800053d4:	ffe88713          	addi	a4,a7,-2
800053d8:	010787b3          	add	a5,a5,a6
/home/hqfang/workspace/software/riscv-gnu-toolchain/riscv-gcc/libgcc/soft-fp/divsf3.c:46 (discriminator 27)
800053dc:	01059413          	slli	s0,a1,0x10
800053e0:	40d787b3          	sub	a5,a5,a3
800053e4:	00e46433          	or	s0,s0,a4
800053e8:	00f037b3          	snez	a5,a5
800053ec:	00f46433          	or	s0,s0,a5
/home/hqfang/workspace/software/riscv-gnu-toolchain/riscv-gcc/libgcc/soft-fp/divsf3.c:47 (discriminator 2)
800053f0:	07f50713          	addi	a4,a0,127
800053f4:	0ce05e63          	blez	a4,800054d0 <__divsf3+0x2c4>
/home/hqfang/workspace/software/riscv-gnu-toolchain/riscv-gcc/libgcc/soft-fp/divsf3.c:47 (discriminator 6)
800053f8:	00747793          	andi	a5,s0,7
800053fc:	00078a63          	beqz	a5,80005410 <__divsf3+0x204>
/home/hqfang/workspace/software/riscv-gnu-toolchain/riscv-gcc/libgcc/soft-fp/divsf3.c:47 (discriminator 8)
80005400:	00f47793          	andi	a5,s0,15
80005404:	00400693          	li	a3,4
80005408:	00d78463          	beq	a5,a3,80005410 <__divsf3+0x204>
/home/hqfang/workspace/software/riscv-gnu-toolchain/riscv-gcc/libgcc/soft-fp/divsf3.c:47 (discriminator 10)
8000540c:	00440413          	addi	s0,s0,4
/home/hqfang/workspace/software/riscv-gnu-toolchain/riscv-gcc/libgcc/soft-fp/divsf3.c:47 (discriminator 9)
80005410:	080007b7          	lui	a5,0x8000
80005414:	00f477b3          	and	a5,s0,a5
80005418:	00078a63          	beqz	a5,8000542c <__divsf3+0x220>
/home/hqfang/workspace/software/riscv-gnu-toolchain/riscv-gcc/libgcc/soft-fp/divsf3.c:47 (discriminator 24)
8000541c:	f80007b7          	lui	a5,0xf8000
80005420:	fff78793          	addi	a5,a5,-1 # f7ffffff <_sp+0x67feffff>
80005424:	00f47433          	and	s0,s0,a5
80005428:	08050713          	addi	a4,a0,128
/home/hqfang/workspace/software/riscv-gnu-toolchain/riscv-gcc/libgcc/soft-fp/divsf3.c:47 (discriminator 26)
8000542c:	0fe00793          	li	a5,254
80005430:	00345413          	srli	s0,s0,0x3
80005434:	06e7cc63          	blt	a5,a4,800054ac <__divsf3+0x2a0>
/home/hqfang/workspace/software/riscv-gnu-toolchain/riscv-gcc/libgcc/soft-fp/divsf3.c:47 (discriminator 111)
80005438:	01771793          	slli	a5,a4,0x17
8000543c:	00941413          	slli	s0,s0,0x9
80005440:	7f800737          	lui	a4,0x7f800
80005444:	00e7f7b3          	and	a5,a5,a4
80005448:	00945413          	srli	s0,s0,0x9
8000544c:	0087e433          	or	s0,a5,s0
80005450:	01f61513          	slli	a0,a2,0x1f
/home/hqfang/workspace/software/riscv-gnu-toolchain/riscv-gcc/libgcc/soft-fp/divsf3.c:51 (discriminator 111)
80005454:	01c12083          	lw	ra,28(sp)
80005458:	00a46533          	or	a0,s0,a0
8000545c:	01812403          	lw	s0,24(sp)
80005460:	01412483          	lw	s1,20(sp)
80005464:	01012903          	lw	s2,16(sp)
80005468:	00c12983          	lw	s3,12(sp)
8000546c:	00812a03          	lw	s4,8(sp)
80005470:	00412a83          	lw	s5,4(sp)
80005474:	02010113          	addi	sp,sp,32
80005478:	00008067          	ret
/home/hqfang/workspace/software/riscv-gnu-toolchain/riscv-gcc/libgcc/soft-fp/divsf3.c:46 (discriminator 11)
8000547c:	01f99693          	slli	a3,s3,0x1f
80005480:	0019d993          	srli	s3,s3,0x1
80005484:	eddff06f          	j	80005360 <__divsf3+0x154>
/home/hqfang/workspace/software/riscv-gnu-toolchain/riscv-gcc/libgcc/soft-fp/divsf3.c:44 (discriminator 8)
80005488:	00090613          	mv	a2,s2
/home/hqfang/workspace/software/riscv-gnu-toolchain/riscv-gcc/libgcc/soft-fp/divsf3.c:46 (discriminator 8)
8000548c:	00098413          	mv	s0,s3
80005490:	000a8793          	mv	a5,s5
/home/hqfang/workspace/software/riscv-gnu-toolchain/riscv-gcc/libgcc/soft-fp/divsf3.c:47 (discriminator 35)
80005494:	00300713          	li	a4,3
80005498:	08e78863          	beq	a5,a4,80005528 <__divsf3+0x31c>
/home/hqfang/workspace/software/riscv-gnu-toolchain/riscv-gcc/libgcc/soft-fp/divsf3.c:47
8000549c:	00100713          	li	a4,1
800054a0:	08e78c63          	beq	a5,a4,80005538 <__divsf3+0x32c>
800054a4:	00200713          	li	a4,2
800054a8:	f4e794e3          	bne	a5,a4,800053f0 <__divsf3+0x1e4>
800054ac:	00000413          	li	s0,0
800054b0:	0ff00713          	li	a4,255
800054b4:	f85ff06f          	j	80005438 <__divsf3+0x22c>
/home/hqfang/workspace/software/riscv-gnu-toolchain/riscv-gcc/libgcc/soft-fp/divsf3.c:45 (discriminator 5)
800054b8:	000a0613          	mv	a2,s4
/home/hqfang/workspace/software/riscv-gnu-toolchain/riscv-gcc/libgcc/soft-fp/divsf3.c:46 (discriminator 5)
800054bc:	fd9ff06f          	j	80005494 <__divsf3+0x288>
/home/hqfang/workspace/software/riscv-gnu-toolchain/riscv-gcc/libgcc/soft-fp/divsf3.c:46
800054c0:	00400437          	lui	s0,0x400
800054c4:	00000613          	li	a2,0
800054c8:	00300793          	li	a5,3
800054cc:	fc9ff06f          	j	80005494 <__divsf3+0x288>
/home/hqfang/workspace/software/riscv-gnu-toolchain/riscv-gcc/libgcc/soft-fp/divsf3.c:47 (discriminator 59)
800054d0:	00100793          	li	a5,1
800054d4:	40e787b3          	sub	a5,a5,a4
800054d8:	01b00713          	li	a4,27
800054dc:	04f74e63          	blt	a4,a5,80005538 <__divsf3+0x32c>
/home/hqfang/workspace/software/riscv-gnu-toolchain/riscv-gcc/libgcc/soft-fp/divsf3.c:47 (discriminator 60)
800054e0:	09e50513          	addi	a0,a0,158
800054e4:	00f457b3          	srl	a5,s0,a5
800054e8:	00a41433          	sll	s0,s0,a0
800054ec:	00803433          	snez	s0,s0
800054f0:	0087e433          	or	s0,a5,s0
800054f4:	00747793          	andi	a5,s0,7
800054f8:	00078a63          	beqz	a5,8000550c <__divsf3+0x300>
/home/hqfang/workspace/software/riscv-gnu-toolchain/riscv-gcc/libgcc/soft-fp/divsf3.c:47 (discriminator 68)
800054fc:	00f47793          	andi	a5,s0,15
80005500:	00400713          	li	a4,4
80005504:	00e78463          	beq	a5,a4,8000550c <__divsf3+0x300>
/home/hqfang/workspace/software/riscv-gnu-toolchain/riscv-gcc/libgcc/soft-fp/divsf3.c:47 (discriminator 70)
80005508:	00440413          	addi	s0,s0,4 # 400004 <__stack_size+0x3ff804>
/home/hqfang/workspace/software/riscv-gnu-toolchain/riscv-gcc/libgcc/soft-fp/divsf3.c:47 (discriminator 69)
8000550c:	040007b7          	lui	a5,0x4000
80005510:	00f477b3          	and	a5,s0,a5
80005514:	00345413          	srli	s0,s0,0x3
80005518:	02078263          	beqz	a5,8000553c <__divsf3+0x330>
/home/hqfang/workspace/software/riscv-gnu-toolchain/riscv-gcc/libgcc/soft-fp/divsf3.c:47
8000551c:	00000413          	li	s0,0
80005520:	00100713          	li	a4,1
80005524:	f15ff06f          	j	80005438 <__divsf3+0x22c>
80005528:	00400437          	lui	s0,0x400
8000552c:	0ff00713          	li	a4,255
80005530:	00000613          	li	a2,0
80005534:	f05ff06f          	j	80005438 <__divsf3+0x22c>
80005538:	00000413          	li	s0,0
8000553c:	00000713          	li	a4,0
80005540:	ef9ff06f          	j	80005438 <__divsf3+0x22c>

80005544 <__eqsf2>:
__eqsf2():
/home/hqfang/workspace/software/riscv-gnu-toolchain/riscv-gcc/libgcc/soft-fp/eqsf2.c:43
80005544:	01755693          	srli	a3,a0,0x17
80005548:	008007b7          	lui	a5,0x800
8000554c:	fff78793          	addi	a5,a5,-1 # 7fffff <__stack_size+0x7ff7ff>
/home/hqfang/workspace/software/riscv-gnu-toolchain/riscv-gcc/libgcc/soft-fp/eqsf2.c:44
80005550:	0175d613          	srli	a2,a1,0x17
/home/hqfang/workspace/software/riscv-gnu-toolchain/riscv-gcc/libgcc/soft-fp/eqsf2.c:43
80005554:	0ff6f693          	andi	a3,a3,255
/home/hqfang/workspace/software/riscv-gnu-toolchain/riscv-gcc/libgcc/soft-fp/eqsf2.c:45
80005558:	0ff00893          	li	a7,255
/home/hqfang/workspace/software/riscv-gnu-toolchain/riscv-gcc/libgcc/soft-fp/eqsf2.c:43
8000555c:	00a7f833          	and	a6,a5,a0
80005560:	01f55713          	srli	a4,a0,0x1f
/home/hqfang/workspace/software/riscv-gnu-toolchain/riscv-gcc/libgcc/soft-fp/eqsf2.c:44
80005564:	00b7f7b3          	and	a5,a5,a1
80005568:	0ff67613          	andi	a2,a2,255
8000556c:	01f5d593          	srli	a1,a1,0x1f
/home/hqfang/workspace/software/riscv-gnu-toolchain/riscv-gcc/libgcc/soft-fp/eqsf2.c:45
80005570:	00100513          	li	a0,1
80005574:	01169a63          	bne	a3,a7,80005588 <__eqsf2+0x44>
/home/hqfang/workspace/software/riscv-gnu-toolchain/riscv-gcc/libgcc/soft-fp/eqsf2.c:45 (discriminator 20)
80005578:	00081663          	bnez	a6,80005584 <__eqsf2+0x40>
/home/hqfang/workspace/software/riscv-gnu-toolchain/riscv-gcc/libgcc/soft-fp/eqsf2.c:45
8000557c:	00d61463          	bne	a2,a3,80005584 <__eqsf2+0x40>
80005580:	00078a63          	beqz	a5,80005594 <__eqsf2+0x50>
/home/hqfang/workspace/software/riscv-gnu-toolchain/riscv-gcc/libgcc/soft-fp/eqsf2.c:49
80005584:	00008067          	ret
/home/hqfang/workspace/software/riscv-gnu-toolchain/riscv-gcc/libgcc/soft-fp/eqsf2.c:45 (discriminator 23)
80005588:	ff160ee3          	beq	a2,a7,80005584 <__eqsf2+0x40>
/home/hqfang/workspace/software/riscv-gnu-toolchain/riscv-gcc/libgcc/soft-fp/eqsf2.c:45 (discriminator 78)
8000558c:	fec69ce3          	bne	a3,a2,80005584 <__eqsf2+0x40>
/home/hqfang/workspace/software/riscv-gnu-toolchain/riscv-gcc/libgcc/soft-fp/eqsf2.c:45 (discriminator 80)
80005590:	fef81ae3          	bne	a6,a5,80005584 <__eqsf2+0x40>
/home/hqfang/workspace/software/riscv-gnu-toolchain/riscv-gcc/libgcc/soft-fp/eqsf2.c:45 (discriminator 82)
80005594:	00000513          	li	a0,0
80005598:	feb706e3          	beq	a4,a1,80005584 <__eqsf2+0x40>
/home/hqfang/workspace/software/riscv-gnu-toolchain/riscv-gcc/libgcc/soft-fp/eqsf2.c:45 (discriminator 83)
8000559c:	00100513          	li	a0,1
800055a0:	fe0692e3          	bnez	a3,80005584 <__eqsf2+0x40>
/home/hqfang/workspace/software/riscv-gnu-toolchain/riscv-gcc/libgcc/soft-fp/eqsf2.c:45 (discriminator 86)
800055a4:	01003533          	snez	a0,a6
800055a8:	00008067          	ret

800055ac <__gesf2>:
__gesf2():
/home/hqfang/workspace/software/riscv-gnu-toolchain/riscv-gcc/libgcc/soft-fp/gesf2.c:43
800055ac:	01755693          	srli	a3,a0,0x17
800055b0:	008007b7          	lui	a5,0x800
800055b4:	fff78793          	addi	a5,a5,-1 # 7fffff <__stack_size+0x7ff7ff>
/home/hqfang/workspace/software/riscv-gnu-toolchain/riscv-gcc/libgcc/soft-fp/gesf2.c:44
800055b8:	0175d713          	srli	a4,a1,0x17
/home/hqfang/workspace/software/riscv-gnu-toolchain/riscv-gcc/libgcc/soft-fp/gesf2.c:43
800055bc:	0ff6f693          	andi	a3,a3,255
/home/hqfang/workspace/software/riscv-gnu-toolchain/riscv-gcc/libgcc/soft-fp/gesf2.c:45
800055c0:	0ff00813          	li	a6,255
/home/hqfang/workspace/software/riscv-gnu-toolchain/riscv-gcc/libgcc/soft-fp/gesf2.c:43
800055c4:	00a7f633          	and	a2,a5,a0
/home/hqfang/workspace/software/riscv-gnu-toolchain/riscv-gcc/libgcc/soft-fp/gesf2.c:44
800055c8:	0ff77713          	andi	a4,a4,255
800055cc:	00b7f7b3          	and	a5,a5,a1
/home/hqfang/workspace/software/riscv-gnu-toolchain/riscv-gcc/libgcc/soft-fp/gesf2.c:43
800055d0:	01f55513          	srli	a0,a0,0x1f
/home/hqfang/workspace/software/riscv-gnu-toolchain/riscv-gcc/libgcc/soft-fp/gesf2.c:44
800055d4:	01f5d593          	srli	a1,a1,0x1f
/home/hqfang/workspace/software/riscv-gnu-toolchain/riscv-gcc/libgcc/soft-fp/gesf2.c:45
800055d8:	01069863          	bne	a3,a6,800055e8 <__gesf2+0x3c>
/home/hqfang/workspace/software/riscv-gnu-toolchain/riscv-gcc/libgcc/soft-fp/gesf2.c:45 (discriminator 20)
800055dc:	06060a63          	beqz	a2,80005650 <__gesf2+0xa4>
/home/hqfang/workspace/software/riscv-gnu-toolchain/riscv-gcc/libgcc/soft-fp/gesf2.c:45
800055e0:	ffe00513          	li	a0,-2
800055e4:	00008067          	ret
/home/hqfang/workspace/software/riscv-gnu-toolchain/riscv-gcc/libgcc/soft-fp/gesf2.c:45 (discriminator 23)
800055e8:	01071463          	bne	a4,a6,800055f0 <__gesf2+0x44>
/home/hqfang/workspace/software/riscv-gnu-toolchain/riscv-gcc/libgcc/soft-fp/gesf2.c:45 (discriminator 24)
800055ec:	fe079ae3          	bnez	a5,800055e0 <__gesf2+0x34>
/home/hqfang/workspace/software/riscv-gnu-toolchain/riscv-gcc/libgcc/soft-fp/gesf2.c:45 (discriminator 62)
800055f0:	06069263          	bnez	a3,80005654 <__gesf2+0xa8>
/home/hqfang/workspace/software/riscv-gnu-toolchain/riscv-gcc/libgcc/soft-fp/gesf2.c:45 (discriminator 63)
800055f4:	00071463          	bnez	a4,800055fc <__gesf2+0x50>
/home/hqfang/workspace/software/riscv-gnu-toolchain/riscv-gcc/libgcc/soft-fp/gesf2.c:45 (discriminator 69)
800055f8:	04078863          	beqz	a5,80005648 <__gesf2+0x9c>
/home/hqfang/workspace/software/riscv-gnu-toolchain/riscv-gcc/libgcc/soft-fp/gesf2.c:45
800055fc:	00060c63          	beqz	a2,80005614 <__gesf2+0x68>
80005600:	00b51463          	bne	a0,a1,80005608 <__gesf2+0x5c>
/home/hqfang/workspace/software/riscv-gnu-toolchain/riscv-gcc/libgcc/soft-fp/gesf2.c:45 (discriminator 95)
80005604:	02d75063          	bge	a4,a3,80005624 <__gesf2+0x78>
/home/hqfang/workspace/software/riscv-gnu-toolchain/riscv-gcc/libgcc/soft-fp/gesf2.c:45 (discriminator 115)
80005608:	02050c63          	beqz	a0,80005640 <__gesf2+0x94>
/home/hqfang/workspace/software/riscv-gnu-toolchain/riscv-gcc/libgcc/soft-fp/gesf2.c:45
8000560c:	fff00513          	li	a0,-1
80005610:	00008067          	ret
/home/hqfang/workspace/software/riscv-gnu-toolchain/riscv-gcc/libgcc/soft-fp/gesf2.c:45 (discriminator 80)
80005614:	fff00513          	li	a0,-1
80005618:	00058a63          	beqz	a1,8000562c <__gesf2+0x80>
/home/hqfang/workspace/software/riscv-gnu-toolchain/riscv-gcc/libgcc/soft-fp/gesf2.c:45
8000561c:	00058513          	mv	a0,a1
80005620:	00008067          	ret
/home/hqfang/workspace/software/riscv-gnu-toolchain/riscv-gcc/libgcc/soft-fp/gesf2.c:45 (discriminator 102)
80005624:	00e6d663          	bge	a3,a4,80005630 <__gesf2+0x84>
/home/hqfang/workspace/software/riscv-gnu-toolchain/riscv-gcc/libgcc/soft-fp/gesf2.c:45 (discriminator 122)
80005628:	fe0502e3          	beqz	a0,8000560c <__gesf2+0x60>
/home/hqfang/workspace/software/riscv-gnu-toolchain/riscv-gcc/libgcc/soft-fp/gesf2.c:49
8000562c:	00008067          	ret
/home/hqfang/workspace/software/riscv-gnu-toolchain/riscv-gcc/libgcc/soft-fp/gesf2.c:45 (discriminator 109)
80005630:	fcc7ece3          	bltu	a5,a2,80005608 <__gesf2+0x5c>
/home/hqfang/workspace/software/riscv-gnu-toolchain/riscv-gcc/libgcc/soft-fp/gesf2.c:45 (discriminator 116)
80005634:	fef66ae3          	bltu	a2,a5,80005628 <__gesf2+0x7c>
/home/hqfang/workspace/software/riscv-gnu-toolchain/riscv-gcc/libgcc/soft-fp/gesf2.c:45
80005638:	00000513          	li	a0,0
/home/hqfang/workspace/software/riscv-gnu-toolchain/riscv-gcc/libgcc/soft-fp/gesf2.c:48
8000563c:	00008067          	ret
/home/hqfang/workspace/software/riscv-gnu-toolchain/riscv-gcc/libgcc/soft-fp/gesf2.c:45
80005640:	00100513          	li	a0,1
80005644:	00008067          	ret
80005648:	fe0608e3          	beqz	a2,80005638 <__gesf2+0x8c>
8000564c:	fbdff06f          	j	80005608 <__gesf2+0x5c>
80005650:	f8d70ee3          	beq	a4,a3,800055ec <__gesf2+0x40>
80005654:	fa0716e3          	bnez	a4,80005600 <__gesf2+0x54>
80005658:	fa0788e3          	beqz	a5,80005608 <__gesf2+0x5c>
8000565c:	fa5ff06f          	j	80005600 <__gesf2+0x54>

80005660 <__lesf2>:
__lesf2():
/home/hqfang/workspace/software/riscv-gnu-toolchain/riscv-gcc/libgcc/soft-fp/lesf2.c:43
80005660:	01755693          	srli	a3,a0,0x17
80005664:	008007b7          	lui	a5,0x800
80005668:	fff78793          	addi	a5,a5,-1 # 7fffff <__stack_size+0x7ff7ff>
/home/hqfang/workspace/software/riscv-gnu-toolchain/riscv-gcc/libgcc/soft-fp/lesf2.c:44
8000566c:	0175d713          	srli	a4,a1,0x17
/home/hqfang/workspace/software/riscv-gnu-toolchain/riscv-gcc/libgcc/soft-fp/lesf2.c:43
80005670:	0ff6f693          	andi	a3,a3,255
/home/hqfang/workspace/software/riscv-gnu-toolchain/riscv-gcc/libgcc/soft-fp/lesf2.c:45
80005674:	0ff00813          	li	a6,255
/home/hqfang/workspace/software/riscv-gnu-toolchain/riscv-gcc/libgcc/soft-fp/lesf2.c:43
80005678:	00a7f633          	and	a2,a5,a0
/home/hqfang/workspace/software/riscv-gnu-toolchain/riscv-gcc/libgcc/soft-fp/lesf2.c:44
8000567c:	0ff77713          	andi	a4,a4,255
80005680:	00b7f7b3          	and	a5,a5,a1
/home/hqfang/workspace/software/riscv-gnu-toolchain/riscv-gcc/libgcc/soft-fp/lesf2.c:43
80005684:	01f55513          	srli	a0,a0,0x1f
/home/hqfang/workspace/software/riscv-gnu-toolchain/riscv-gcc/libgcc/soft-fp/lesf2.c:44
80005688:	01f5d593          	srli	a1,a1,0x1f
/home/hqfang/workspace/software/riscv-gnu-toolchain/riscv-gcc/libgcc/soft-fp/lesf2.c:45
8000568c:	01069863          	bne	a3,a6,8000569c <__lesf2+0x3c>
/home/hqfang/workspace/software/riscv-gnu-toolchain/riscv-gcc/libgcc/soft-fp/lesf2.c:45 (discriminator 20)
80005690:	06060a63          	beqz	a2,80005704 <__lesf2+0xa4>
/home/hqfang/workspace/software/riscv-gnu-toolchain/riscv-gcc/libgcc/soft-fp/lesf2.c:45
80005694:	00200513          	li	a0,2
80005698:	00008067          	ret
/home/hqfang/workspace/software/riscv-gnu-toolchain/riscv-gcc/libgcc/soft-fp/lesf2.c:45 (discriminator 23)
8000569c:	01071463          	bne	a4,a6,800056a4 <__lesf2+0x44>
/home/hqfang/workspace/software/riscv-gnu-toolchain/riscv-gcc/libgcc/soft-fp/lesf2.c:45 (discriminator 24)
800056a0:	fe079ae3          	bnez	a5,80005694 <__lesf2+0x34>
/home/hqfang/workspace/software/riscv-gnu-toolchain/riscv-gcc/libgcc/soft-fp/lesf2.c:45 (discriminator 62)
800056a4:	06069263          	bnez	a3,80005708 <__lesf2+0xa8>
/home/hqfang/workspace/software/riscv-gnu-toolchain/riscv-gcc/libgcc/soft-fp/lesf2.c:45 (discriminator 63)
800056a8:	00071463          	bnez	a4,800056b0 <__lesf2+0x50>
/home/hqfang/workspace/software/riscv-gnu-toolchain/riscv-gcc/libgcc/soft-fp/lesf2.c:45 (discriminator 69)
800056ac:	04078863          	beqz	a5,800056fc <__lesf2+0x9c>
/home/hqfang/workspace/software/riscv-gnu-toolchain/riscv-gcc/libgcc/soft-fp/lesf2.c:45
800056b0:	00060c63          	beqz	a2,800056c8 <__lesf2+0x68>
800056b4:	00b51463          	bne	a0,a1,800056bc <__lesf2+0x5c>
/home/hqfang/workspace/software/riscv-gnu-toolchain/riscv-gcc/libgcc/soft-fp/lesf2.c:45 (discriminator 95)
800056b8:	02d75063          	bge	a4,a3,800056d8 <__lesf2+0x78>
/home/hqfang/workspace/software/riscv-gnu-toolchain/riscv-gcc/libgcc/soft-fp/lesf2.c:45 (discriminator 115)
800056bc:	02050c63          	beqz	a0,800056f4 <__lesf2+0x94>
/home/hqfang/workspace/software/riscv-gnu-toolchain/riscv-gcc/libgcc/soft-fp/lesf2.c:45
800056c0:	fff00513          	li	a0,-1
800056c4:	00008067          	ret
/home/hqfang/workspace/software/riscv-gnu-toolchain/riscv-gcc/libgcc/soft-fp/lesf2.c:45 (discriminator 80)
800056c8:	fff00513          	li	a0,-1
800056cc:	00058a63          	beqz	a1,800056e0 <__lesf2+0x80>
/home/hqfang/workspace/software/riscv-gnu-toolchain/riscv-gcc/libgcc/soft-fp/lesf2.c:45
800056d0:	00058513          	mv	a0,a1
800056d4:	00008067          	ret
/home/hqfang/workspace/software/riscv-gnu-toolchain/riscv-gcc/libgcc/soft-fp/lesf2.c:45 (discriminator 102)
800056d8:	00e6d663          	bge	a3,a4,800056e4 <__lesf2+0x84>
/home/hqfang/workspace/software/riscv-gnu-toolchain/riscv-gcc/libgcc/soft-fp/lesf2.c:45 (discriminator 122)
800056dc:	fe0502e3          	beqz	a0,800056c0 <__lesf2+0x60>
/home/hqfang/workspace/software/riscv-gnu-toolchain/riscv-gcc/libgcc/soft-fp/lesf2.c:49
800056e0:	00008067          	ret
/home/hqfang/workspace/software/riscv-gnu-toolchain/riscv-gcc/libgcc/soft-fp/lesf2.c:45 (discriminator 109)
800056e4:	fcc7ece3          	bltu	a5,a2,800056bc <__lesf2+0x5c>
/home/hqfang/workspace/software/riscv-gnu-toolchain/riscv-gcc/libgcc/soft-fp/lesf2.c:45 (discriminator 116)
800056e8:	fef66ae3          	bltu	a2,a5,800056dc <__lesf2+0x7c>
/home/hqfang/workspace/software/riscv-gnu-toolchain/riscv-gcc/libgcc/soft-fp/lesf2.c:45
800056ec:	00000513          	li	a0,0
/home/hqfang/workspace/software/riscv-gnu-toolchain/riscv-gcc/libgcc/soft-fp/lesf2.c:48
800056f0:	00008067          	ret
/home/hqfang/workspace/software/riscv-gnu-toolchain/riscv-gcc/libgcc/soft-fp/lesf2.c:45
800056f4:	00100513          	li	a0,1
800056f8:	00008067          	ret
800056fc:	fe0608e3          	beqz	a2,800056ec <__lesf2+0x8c>
80005700:	fbdff06f          	j	800056bc <__lesf2+0x5c>
80005704:	f8d70ee3          	beq	a4,a3,800056a0 <__lesf2+0x40>
80005708:	fa0716e3          	bnez	a4,800056b4 <__lesf2+0x54>
8000570c:	fa0788e3          	beqz	a5,800056bc <__lesf2+0x5c>
80005710:	fa5ff06f          	j	800056b4 <__lesf2+0x54>

80005714 <__mulsf3>:
__mulsf3():
/home/hqfang/workspace/software/riscv-gnu-toolchain/riscv-gcc/libgcc/soft-fp/mulsf3.c:36
80005714:	fe010113          	addi	sp,sp,-32
80005718:	01212823          	sw	s2,16(sp)
8000571c:	01755913          	srli	s2,a0,0x17
80005720:	00912a23          	sw	s1,20(sp)
80005724:	01312623          	sw	s3,12(sp)
80005728:	01412423          	sw	s4,8(sp)
/home/hqfang/workspace/software/riscv-gnu-toolchain/riscv-gcc/libgcc/soft-fp/mulsf3.c:44
8000572c:	00951493          	slli	s1,a0,0x9
/home/hqfang/workspace/software/riscv-gnu-toolchain/riscv-gcc/libgcc/soft-fp/mulsf3.c:36
80005730:	00112e23          	sw	ra,28(sp)
80005734:	00812c23          	sw	s0,24(sp)
80005738:	01512223          	sw	s5,4(sp)
8000573c:	0ff97913          	andi	s2,s2,255
80005740:	00058a13          	mv	s4,a1
/home/hqfang/workspace/software/riscv-gnu-toolchain/riscv-gcc/libgcc/soft-fp/mulsf3.c:44
80005744:	0094d493          	srli	s1,s1,0x9
80005748:	01f55993          	srli	s3,a0,0x1f
8000574c:	08090863          	beqz	s2,800057dc <__mulsf3+0xc8>
80005750:	0ff00793          	li	a5,255
80005754:	0af90463          	beq	s2,a5,800057fc <__mulsf3+0xe8>
/home/hqfang/workspace/software/riscv-gnu-toolchain/riscv-gcc/libgcc/soft-fp/mulsf3.c:44 (discriminator 1)
80005758:	00349493          	slli	s1,s1,0x3
8000575c:	040007b7          	lui	a5,0x4000
80005760:	00f4e4b3          	or	s1,s1,a5
80005764:	f8190913          	addi	s2,s2,-127
/home/hqfang/workspace/software/riscv-gnu-toolchain/riscv-gcc/libgcc/soft-fp/mulsf3.c:44 (discriminator 15)
80005768:	00000a93          	li	s5,0
/home/hqfang/workspace/software/riscv-gnu-toolchain/riscv-gcc/libgcc/soft-fp/mulsf3.c:45 (discriminator 8)
8000576c:	017a5513          	srli	a0,s4,0x17
80005770:	009a1413          	slli	s0,s4,0x9
80005774:	0ff57513          	andi	a0,a0,255
80005778:	00945413          	srli	s0,s0,0x9
8000577c:	01fa5a13          	srli	s4,s4,0x1f
80005780:	08050e63          	beqz	a0,8000581c <__mulsf3+0x108>
/home/hqfang/workspace/software/riscv-gnu-toolchain/riscv-gcc/libgcc/soft-fp/mulsf3.c:45
80005784:	0ff00793          	li	a5,255
80005788:	0af50a63          	beq	a0,a5,8000583c <__mulsf3+0x128>
/home/hqfang/workspace/software/riscv-gnu-toolchain/riscv-gcc/libgcc/soft-fp/mulsf3.c:45 (discriminator 1)
8000578c:	00341413          	slli	s0,s0,0x3
80005790:	040007b7          	lui	a5,0x4000
80005794:	00f46433          	or	s0,s0,a5
80005798:	f8150513          	addi	a0,a0,-127
/home/hqfang/workspace/software/riscv-gnu-toolchain/riscv-gcc/libgcc/soft-fp/mulsf3.c:45 (discriminator 15)
8000579c:	00000793          	li	a5,0
/home/hqfang/workspace/software/riscv-gnu-toolchain/riscv-gcc/libgcc/soft-fp/mulsf3.c:46 (discriminator 8)
800057a0:	002a9713          	slli	a4,s5,0x2
800057a4:	00f76733          	or	a4,a4,a5
800057a8:	00a90533          	add	a0,s2,a0
800057ac:	fff70713          	addi	a4,a4,-1 # 7f7fffff <__stack_size+0x7f7ff7ff>
800057b0:	00e00593          	li	a1,14
800057b4:	0149c6b3          	xor	a3,s3,s4
800057b8:	00150613          	addi	a2,a0,1
800057bc:	0ae5e063          	bltu	a1,a4,8000585c <__mulsf3+0x148>
800057c0:	00008597          	auipc	a1,0x8
800057c4:	3e058593          	addi	a1,a1,992 # 8000dba0 <init_jk+0x48>
800057c8:	00271713          	slli	a4,a4,0x2
800057cc:	00b70733          	add	a4,a4,a1
800057d0:	00072703          	lw	a4,0(a4)
800057d4:	00b70733          	add	a4,a4,a1
800057d8:	00070067          	jr	a4
/home/hqfang/workspace/software/riscv-gnu-toolchain/riscv-gcc/libgcc/soft-fp/mulsf3.c:44 (discriminator 2)
800057dc:	02048a63          	beqz	s1,80005810 <__mulsf3+0xfc>
/home/hqfang/workspace/software/riscv-gnu-toolchain/riscv-gcc/libgcc/soft-fp/mulsf3.c:44 (discriminator 15)
800057e0:	00048513          	mv	a0,s1
800057e4:	3c1000ef          	jal	ra,800063a4 <__clzsi2>
800057e8:	ffb50793          	addi	a5,a0,-5
800057ec:	f8a00913          	li	s2,-118
800057f0:	00f494b3          	sll	s1,s1,a5
800057f4:	40a90933          	sub	s2,s2,a0
800057f8:	f71ff06f          	j	80005768 <__mulsf3+0x54>
/home/hqfang/workspace/software/riscv-gnu-toolchain/riscv-gcc/libgcc/soft-fp/mulsf3.c:44 (discriminator 3)
800057fc:	0ff00913          	li	s2,255
80005800:	00200a93          	li	s5,2
80005804:	f60484e3          	beqz	s1,8000576c <__mulsf3+0x58>
/home/hqfang/workspace/software/riscv-gnu-toolchain/riscv-gcc/libgcc/soft-fp/mulsf3.c:44
80005808:	00300a93          	li	s5,3
8000580c:	f61ff06f          	j	8000576c <__mulsf3+0x58>
80005810:	00000913          	li	s2,0
80005814:	00100a93          	li	s5,1
80005818:	f55ff06f          	j	8000576c <__mulsf3+0x58>
/home/hqfang/workspace/software/riscv-gnu-toolchain/riscv-gcc/libgcc/soft-fp/mulsf3.c:45 (discriminator 2)
8000581c:	02040a63          	beqz	s0,80005850 <__mulsf3+0x13c>
/home/hqfang/workspace/software/riscv-gnu-toolchain/riscv-gcc/libgcc/soft-fp/mulsf3.c:45 (discriminator 15)
80005820:	00040513          	mv	a0,s0
80005824:	381000ef          	jal	ra,800063a4 <__clzsi2>
80005828:	ffb50793          	addi	a5,a0,-5
8000582c:	00f41433          	sll	s0,s0,a5
80005830:	f8a00793          	li	a5,-118
80005834:	40a78533          	sub	a0,a5,a0
80005838:	f65ff06f          	j	8000579c <__mulsf3+0x88>
/home/hqfang/workspace/software/riscv-gnu-toolchain/riscv-gcc/libgcc/soft-fp/mulsf3.c:45 (discriminator 3)
8000583c:	0ff00513          	li	a0,255
80005840:	00200793          	li	a5,2
80005844:	f4040ee3          	beqz	s0,800057a0 <__mulsf3+0x8c>
/home/hqfang/workspace/software/riscv-gnu-toolchain/riscv-gcc/libgcc/soft-fp/mulsf3.c:45
80005848:	00300793          	li	a5,3
8000584c:	f55ff06f          	j	800057a0 <__mulsf3+0x8c>
80005850:	00000513          	li	a0,0
80005854:	00100793          	li	a5,1
80005858:	f49ff06f          	j	800057a0 <__mulsf3+0x8c>
/home/hqfang/workspace/software/riscv-gnu-toolchain/riscv-gcc/libgcc/soft-fp/mulsf3.c:46 (discriminator 2)
8000585c:	000107b7          	lui	a5,0x10
80005860:	fff78313          	addi	t1,a5,-1 # ffff <__stack_size+0xf7ff>
80005864:	0104d713          	srli	a4,s1,0x10
80005868:	01045593          	srli	a1,s0,0x10
8000586c:	0064f4b3          	and	s1,s1,t1
80005870:	00647433          	and	s0,s0,t1
80005874:	029408b3          	mul	a7,s0,s1
80005878:	02870833          	mul	a6,a4,s0
8000587c:	02b70433          	mul	s0,a4,a1
80005880:	029585b3          	mul	a1,a1,s1
80005884:	0108d493          	srli	s1,a7,0x10
80005888:	010585b3          	add	a1,a1,a6
8000588c:	00b484b3          	add	s1,s1,a1
80005890:	0104f463          	bgeu	s1,a6,80005898 <__mulsf3+0x184>
/home/hqfang/workspace/software/riscv-gnu-toolchain/riscv-gcc/libgcc/soft-fp/mulsf3.c:46 (discriminator 9)
80005894:	00f40433          	add	s0,s0,a5
/home/hqfang/workspace/software/riscv-gnu-toolchain/riscv-gcc/libgcc/soft-fp/mulsf3.c:46 (discriminator 11)
80005898:	0064f7b3          	and	a5,s1,t1
8000589c:	01079793          	slli	a5,a5,0x10
800058a0:	0068f8b3          	and	a7,a7,t1
800058a4:	011787b3          	add	a5,a5,a7
800058a8:	00679713          	slli	a4,a5,0x6
800058ac:	0104d493          	srli	s1,s1,0x10
800058b0:	00e03733          	snez	a4,a4
800058b4:	01a7d793          	srli	a5,a5,0x1a
800058b8:	00848433          	add	s0,s1,s0
800058bc:	00f767b3          	or	a5,a4,a5
800058c0:	00641413          	slli	s0,s0,0x6
800058c4:	00f46433          	or	s0,s0,a5
800058c8:	080007b7          	lui	a5,0x8000
800058cc:	00f477b3          	and	a5,s0,a5
800058d0:	08078e63          	beqz	a5,8000596c <__mulsf3+0x258>
/home/hqfang/workspace/software/riscv-gnu-toolchain/riscv-gcc/libgcc/soft-fp/mulsf3.c:46 (discriminator 12)
800058d4:	00145793          	srli	a5,s0,0x1
800058d8:	00147413          	andi	s0,s0,1
800058dc:	0087e433          	or	s0,a5,s0
/home/hqfang/workspace/software/riscv-gnu-toolchain/riscv-gcc/libgcc/soft-fp/mulsf3.c:47 (discriminator 2)
800058e0:	07f60713          	addi	a4,a2,127 # 400007f <__stack_size+0x3fff87f>
800058e4:	08e05863          	blez	a4,80005974 <__mulsf3+0x260>
/home/hqfang/workspace/software/riscv-gnu-toolchain/riscv-gcc/libgcc/soft-fp/mulsf3.c:47 (discriminator 6)
800058e8:	00747793          	andi	a5,s0,7
800058ec:	00078a63          	beqz	a5,80005900 <__mulsf3+0x1ec>
/home/hqfang/workspace/software/riscv-gnu-toolchain/riscv-gcc/libgcc/soft-fp/mulsf3.c:47 (discriminator 8)
800058f0:	00f47793          	andi	a5,s0,15
800058f4:	00400593          	li	a1,4
800058f8:	00b78463          	beq	a5,a1,80005900 <__mulsf3+0x1ec>
/home/hqfang/workspace/software/riscv-gnu-toolchain/riscv-gcc/libgcc/soft-fp/mulsf3.c:47 (discriminator 10)
800058fc:	00440413          	addi	s0,s0,4 # 400004 <__stack_size+0x3ff804>
/home/hqfang/workspace/software/riscv-gnu-toolchain/riscv-gcc/libgcc/soft-fp/mulsf3.c:47 (discriminator 9)
80005900:	080007b7          	lui	a5,0x8000
80005904:	00f477b3          	and	a5,s0,a5
80005908:	00078a63          	beqz	a5,8000591c <__mulsf3+0x208>
/home/hqfang/workspace/software/riscv-gnu-toolchain/riscv-gcc/libgcc/soft-fp/mulsf3.c:47 (discriminator 24)
8000590c:	f80007b7          	lui	a5,0xf8000
80005910:	fff78793          	addi	a5,a5,-1 # f7ffffff <_sp+0x67feffff>
80005914:	00f47433          	and	s0,s0,a5
80005918:	08060713          	addi	a4,a2,128
/home/hqfang/workspace/software/riscv-gnu-toolchain/riscv-gcc/libgcc/soft-fp/mulsf3.c:47 (discriminator 26)
8000591c:	0fe00793          	li	a5,254
80005920:	00345413          	srli	s0,s0,0x3
80005924:	0ae7da63          	bge	a5,a4,800059d8 <__mulsf3+0x2c4>
80005928:	00000413          	li	s0,0
8000592c:	0ff00713          	li	a4,255
80005930:	0a80006f          	j	800059d8 <__mulsf3+0x2c4>
/home/hqfang/workspace/software/riscv-gnu-toolchain/riscv-gcc/libgcc/soft-fp/mulsf3.c:44 (discriminator 7)
80005934:	00098693          	mv	a3,s3
/home/hqfang/workspace/software/riscv-gnu-toolchain/riscv-gcc/libgcc/soft-fp/mulsf3.c:46 (discriminator 7)
80005938:	00048413          	mv	s0,s1
8000593c:	000a8793          	mv	a5,s5
/home/hqfang/workspace/software/riscv-gnu-toolchain/riscv-gcc/libgcc/soft-fp/mulsf3.c:47 (discriminator 21)
80005940:	00200713          	li	a4,2
80005944:	fee782e3          	beq	a5,a4,80005928 <__mulsf3+0x214>
/home/hqfang/workspace/software/riscv-gnu-toolchain/riscv-gcc/libgcc/soft-fp/mulsf3.c:47
80005948:	00300713          	li	a4,3
8000594c:	08e78063          	beq	a5,a4,800059cc <__mulsf3+0x2b8>
80005950:	00100713          	li	a4,1
80005954:	f8e796e3          	bne	a5,a4,800058e0 <__mulsf3+0x1cc>
80005958:	00000413          	li	s0,0
8000595c:	00000713          	li	a4,0
80005960:	0780006f          	j	800059d8 <__mulsf3+0x2c4>
/home/hqfang/workspace/software/riscv-gnu-toolchain/riscv-gcc/libgcc/soft-fp/mulsf3.c:45 (discriminator 4)
80005964:	000a0693          	mv	a3,s4
/home/hqfang/workspace/software/riscv-gnu-toolchain/riscv-gcc/libgcc/soft-fp/mulsf3.c:46 (discriminator 4)
80005968:	fd9ff06f          	j	80005940 <__mulsf3+0x22c>
/home/hqfang/workspace/software/riscv-gnu-toolchain/riscv-gcc/libgcc/soft-fp/mulsf3.c:46
8000596c:	00050613          	mv	a2,a0
80005970:	f71ff06f          	j	800058e0 <__mulsf3+0x1cc>
/home/hqfang/workspace/software/riscv-gnu-toolchain/riscv-gcc/libgcc/soft-fp/mulsf3.c:47 (discriminator 59)
80005974:	00100793          	li	a5,1
80005978:	40e787b3          	sub	a5,a5,a4
8000597c:	01b00713          	li	a4,27
80005980:	fcf74ce3          	blt	a4,a5,80005958 <__mulsf3+0x244>
/home/hqfang/workspace/software/riscv-gnu-toolchain/riscv-gcc/libgcc/soft-fp/mulsf3.c:47 (discriminator 60)
80005984:	09e60613          	addi	a2,a2,158
80005988:	00f457b3          	srl	a5,s0,a5
8000598c:	00c41433          	sll	s0,s0,a2
80005990:	00803433          	snez	s0,s0
80005994:	0087e433          	or	s0,a5,s0
80005998:	00747793          	andi	a5,s0,7
8000599c:	00078a63          	beqz	a5,800059b0 <__mulsf3+0x29c>
/home/hqfang/workspace/software/riscv-gnu-toolchain/riscv-gcc/libgcc/soft-fp/mulsf3.c:47 (discriminator 68)
800059a0:	00f47793          	andi	a5,s0,15
800059a4:	00400713          	li	a4,4
800059a8:	00e78463          	beq	a5,a4,800059b0 <__mulsf3+0x29c>
/home/hqfang/workspace/software/riscv-gnu-toolchain/riscv-gcc/libgcc/soft-fp/mulsf3.c:47 (discriminator 70)
800059ac:	00440413          	addi	s0,s0,4
/home/hqfang/workspace/software/riscv-gnu-toolchain/riscv-gcc/libgcc/soft-fp/mulsf3.c:47 (discriminator 69)
800059b0:	040007b7          	lui	a5,0x4000
800059b4:	00f477b3          	and	a5,s0,a5
800059b8:	00345413          	srli	s0,s0,0x3
800059bc:	fa0780e3          	beqz	a5,8000595c <__mulsf3+0x248>
/home/hqfang/workspace/software/riscv-gnu-toolchain/riscv-gcc/libgcc/soft-fp/mulsf3.c:47
800059c0:	00000413          	li	s0,0
800059c4:	00100713          	li	a4,1
800059c8:	0100006f          	j	800059d8 <__mulsf3+0x2c4>
800059cc:	00400437          	lui	s0,0x400
800059d0:	0ff00713          	li	a4,255
800059d4:	00000693          	li	a3,0
/home/hqfang/workspace/software/riscv-gnu-toolchain/riscv-gcc/libgcc/soft-fp/mulsf3.c:47 (discriminator 111)
800059d8:	01771793          	slli	a5,a4,0x17
800059dc:	00941413          	slli	s0,s0,0x9
800059e0:	7f800737          	lui	a4,0x7f800
800059e4:	00e7f7b3          	and	a5,a5,a4
800059e8:	00945413          	srli	s0,s0,0x9
800059ec:	0087e433          	or	s0,a5,s0
800059f0:	01f69513          	slli	a0,a3,0x1f
/home/hqfang/workspace/software/riscv-gnu-toolchain/riscv-gcc/libgcc/soft-fp/mulsf3.c:51 (discriminator 111)
800059f4:	01c12083          	lw	ra,28(sp)
800059f8:	00a46533          	or	a0,s0,a0
800059fc:	01812403          	lw	s0,24(sp)
80005a00:	01412483          	lw	s1,20(sp)
80005a04:	01012903          	lw	s2,16(sp)
80005a08:	00c12983          	lw	s3,12(sp)
80005a0c:	00812a03          	lw	s4,8(sp)
80005a10:	00412a83          	lw	s5,4(sp)
80005a14:	02010113          	addi	sp,sp,32
80005a18:	00008067          	ret

80005a1c <__subsf3>:
__subsf3():
/home/hqfang/workspace/software/riscv-gnu-toolchain/riscv-gcc/libgcc/soft-fp/subsf3.c:44
80005a1c:	00800737          	lui	a4,0x800
/home/hqfang/workspace/software/riscv-gnu-toolchain/riscv-gcc/libgcc/soft-fp/subsf3.c:36
80005a20:	ff010113          	addi	sp,sp,-16
/home/hqfang/workspace/software/riscv-gnu-toolchain/riscv-gcc/libgcc/soft-fp/subsf3.c:44
80005a24:	fff70713          	addi	a4,a4,-1 # 7fffff <__stack_size+0x7ff7ff>
/home/hqfang/workspace/software/riscv-gnu-toolchain/riscv-gcc/libgcc/soft-fp/subsf3.c:45
80005a28:	0175d613          	srli	a2,a1,0x17
/home/hqfang/workspace/software/riscv-gnu-toolchain/riscv-gcc/libgcc/soft-fp/subsf3.c:44
80005a2c:	00a777b3          	and	a5,a4,a0
/home/hqfang/workspace/software/riscv-gnu-toolchain/riscv-gcc/libgcc/soft-fp/subsf3.c:36
80005a30:	00812423          	sw	s0,8(sp)
/home/hqfang/workspace/software/riscv-gnu-toolchain/riscv-gcc/libgcc/soft-fp/subsf3.c:45
80005a34:	00b77733          	and	a4,a4,a1
/home/hqfang/workspace/software/riscv-gnu-toolchain/riscv-gcc/libgcc/soft-fp/subsf3.c:36
80005a38:	00912223          	sw	s1,4(sp)
/home/hqfang/workspace/software/riscv-gnu-toolchain/riscv-gcc/libgcc/soft-fp/subsf3.c:44
80005a3c:	01755413          	srli	s0,a0,0x17
/home/hqfang/workspace/software/riscv-gnu-toolchain/riscv-gcc/libgcc/soft-fp/subsf3.c:36
80005a40:	00112623          	sw	ra,12(sp)
80005a44:	01212023          	sw	s2,0(sp)
/home/hqfang/workspace/software/riscv-gnu-toolchain/riscv-gcc/libgcc/soft-fp/subsf3.c:45
80005a48:	0ff67613          	andi	a2,a2,255
/home/hqfang/workspace/software/riscv-gnu-toolchain/riscv-gcc/libgcc/soft-fp/subsf3.c:46
80005a4c:	0ff00693          	li	a3,255
/home/hqfang/workspace/software/riscv-gnu-toolchain/riscv-gcc/libgcc/soft-fp/subsf3.c:44
80005a50:	0ff47413          	andi	s0,s0,255
80005a54:	01f55493          	srli	s1,a0,0x1f
80005a58:	00379793          	slli	a5,a5,0x3
/home/hqfang/workspace/software/riscv-gnu-toolchain/riscv-gcc/libgcc/soft-fp/subsf3.c:45
80005a5c:	01f5d593          	srli	a1,a1,0x1f
80005a60:	00371713          	slli	a4,a4,0x3
/home/hqfang/workspace/software/riscv-gnu-toolchain/riscv-gcc/libgcc/soft-fp/subsf3.c:46
80005a64:	00d61463          	bne	a2,a3,80005a6c <__subsf3+0x50>
/home/hqfang/workspace/software/riscv-gnu-toolchain/riscv-gcc/libgcc/soft-fp/subsf3.c:46 (discriminator 2)
80005a68:	00071463          	bnez	a4,80005a70 <__subsf3+0x54>
/home/hqfang/workspace/software/riscv-gnu-toolchain/riscv-gcc/libgcc/soft-fp/subsf3.c:46 (discriminator 3)
80005a6c:	0015c593          	xori	a1,a1,1
/home/hqfang/workspace/software/riscv-gnu-toolchain/riscv-gcc/libgcc/soft-fp/subsf3.c:46 (discriminator 11)
80005a70:	40c406b3          	sub	a3,s0,a2
80005a74:	18959a63          	bne	a1,s1,80005c08 <__subsf3+0x1ec>
/home/hqfang/workspace/software/riscv-gnu-toolchain/riscv-gcc/libgcc/soft-fp/subsf3.c:46 (discriminator 12)
80005a78:	0ad05063          	blez	a3,80005b18 <__subsf3+0xfc>
/home/hqfang/workspace/software/riscv-gnu-toolchain/riscv-gcc/libgcc/soft-fp/subsf3.c:46 (discriminator 14)
80005a7c:	02061663          	bnez	a2,80005aa8 <__subsf3+0x8c>
/home/hqfang/workspace/software/riscv-gnu-toolchain/riscv-gcc/libgcc/soft-fp/subsf3.c:46 (discriminator 16)
80005a80:	18070063          	beqz	a4,80005c00 <__subsf3+0x1e4>
/home/hqfang/workspace/software/riscv-gnu-toolchain/riscv-gcc/libgcc/soft-fp/subsf3.c:46 (discriminator 19)
80005a84:	fff68613          	addi	a2,a3,-1
80005a88:	00061863          	bnez	a2,80005a98 <__subsf3+0x7c>
/home/hqfang/workspace/software/riscv-gnu-toolchain/riscv-gcc/libgcc/soft-fp/subsf3.c:46 (discriminator 80)
80005a8c:	00e787b3          	add	a5,a5,a4
/home/hqfang/workspace/software/riscv-gnu-toolchain/riscv-gcc/libgcc/soft-fp/subsf3.c:45 (discriminator 80)
80005a90:	00100413          	li	s0,1
/home/hqfang/workspace/software/riscv-gnu-toolchain/riscv-gcc/libgcc/soft-fp/subsf3.c:46 (discriminator 80)
80005a94:	0500006f          	j	80005ae4 <__subsf3+0xc8>
/home/hqfang/workspace/software/riscv-gnu-toolchain/riscv-gcc/libgcc/soft-fp/subsf3.c:46 (discriminator 29)
80005a98:	0ff00593          	li	a1,255
80005a9c:	02b69063          	bne	a3,a1,80005abc <__subsf3+0xa0>
/home/hqfang/workspace/software/riscv-gnu-toolchain/riscv-gcc/libgcc/soft-fp/subsf3.c:46
80005aa0:	0ff00413          	li	s0,255
80005aa4:	1180006f          	j	80005bbc <__subsf3+0x1a0>
/home/hqfang/workspace/software/riscv-gnu-toolchain/riscv-gcc/libgcc/soft-fp/subsf3.c:46 (discriminator 17)
80005aa8:	0ff00613          	li	a2,255
80005aac:	10c40863          	beq	s0,a2,80005bbc <__subsf3+0x1a0>
/home/hqfang/workspace/software/riscv-gnu-toolchain/riscv-gcc/libgcc/soft-fp/subsf3.c:46 (discriminator 43)
80005ab0:	04000637          	lui	a2,0x4000
80005ab4:	00c76733          	or	a4,a4,a2
80005ab8:	00068613          	mv	a2,a3
/home/hqfang/workspace/software/riscv-gnu-toolchain/riscv-gcc/libgcc/soft-fp/subsf3.c:46 (discriminator 52)
80005abc:	01b00593          	li	a1,27
80005ac0:	00100693          	li	a3,1
80005ac4:	00c5ce63          	blt	a1,a2,80005ae0 <__subsf3+0xc4>
/home/hqfang/workspace/software/riscv-gnu-toolchain/riscv-gcc/libgcc/soft-fp/subsf3.c:46 (discriminator 53)
80005ac8:	02000693          	li	a3,32
80005acc:	40c686b3          	sub	a3,a3,a2
80005ad0:	00c755b3          	srl	a1,a4,a2
80005ad4:	00d71733          	sll	a4,a4,a3
80005ad8:	00e03733          	snez	a4,a4
80005adc:	00e5e6b3          	or	a3,a1,a4
/home/hqfang/workspace/software/riscv-gnu-toolchain/riscv-gcc/libgcc/soft-fp/subsf3.c:46 (discriminator 64)
80005ae0:	00d787b3          	add	a5,a5,a3
/home/hqfang/workspace/software/riscv-gnu-toolchain/riscv-gcc/libgcc/soft-fp/subsf3.c:46 (discriminator 117)
80005ae4:	04000737          	lui	a4,0x4000
80005ae8:	00e7f733          	and	a4,a5,a4
80005aec:	0c070863          	beqz	a4,80005bbc <__subsf3+0x1a0>
/home/hqfang/workspace/software/riscv-gnu-toolchain/riscv-gcc/libgcc/soft-fp/subsf3.c:46 (discriminator 176)
80005af0:	00140413          	addi	s0,s0,1 # 400001 <__stack_size+0x3ff801>
80005af4:	0ff00713          	li	a4,255
80005af8:	30e40263          	beq	s0,a4,80005dfc <__subsf3+0x3e0>
/home/hqfang/workspace/software/riscv-gnu-toolchain/riscv-gcc/libgcc/soft-fp/subsf3.c:46
80005afc:	7e000737          	lui	a4,0x7e000
80005b00:	0017f693          	andi	a3,a5,1
80005b04:	fff70713          	addi	a4,a4,-1 # 7dffffff <__stack_size+0x7dfff7ff>
80005b08:	0017d793          	srli	a5,a5,0x1
80005b0c:	00e7f7b3          	and	a5,a5,a4
80005b10:	00d7e7b3          	or	a5,a5,a3
80005b14:	0a80006f          	j	80005bbc <__subsf3+0x1a0>
/home/hqfang/workspace/software/riscv-gnu-toolchain/riscv-gcc/libgcc/soft-fp/subsf3.c:46 (discriminator 15)
80005b18:	06068663          	beqz	a3,80005b84 <__subsf3+0x168>
/home/hqfang/workspace/software/riscv-gnu-toolchain/riscv-gcc/libgcc/soft-fp/subsf3.c:46 (discriminator 66)
80005b1c:	408606b3          	sub	a3,a2,s0
80005b20:	02041063          	bnez	s0,80005b40 <__subsf3+0x124>
/home/hqfang/workspace/software/riscv-gnu-toolchain/riscv-gcc/libgcc/soft-fp/subsf3.c:46 (discriminator 68)
80005b24:	2c078263          	beqz	a5,80005de8 <__subsf3+0x3cc>
/home/hqfang/workspace/software/riscv-gnu-toolchain/riscv-gcc/libgcc/soft-fp/subsf3.c:46 (discriminator 71)
80005b28:	fff68593          	addi	a1,a3,-1
80005b2c:	f60580e3          	beqz	a1,80005a8c <__subsf3+0x70>
/home/hqfang/workspace/software/riscv-gnu-toolchain/riscv-gcc/libgcc/soft-fp/subsf3.c:46 (discriminator 81)
80005b30:	0ff00513          	li	a0,255
80005b34:	02a69063          	bne	a3,a0,80005b54 <__subsf3+0x138>
/home/hqfang/workspace/software/riscv-gnu-toolchain/riscv-gcc/libgcc/soft-fp/subsf3.c:45
80005b38:	00070793          	mv	a5,a4
80005b3c:	f65ff06f          	j	80005aa0 <__subsf3+0x84>
/home/hqfang/workspace/software/riscv-gnu-toolchain/riscv-gcc/libgcc/soft-fp/subsf3.c:46 (discriminator 69)
80005b40:	0ff00593          	li	a1,255
80005b44:	feb60ae3          	beq	a2,a1,80005b38 <__subsf3+0x11c>
/home/hqfang/workspace/software/riscv-gnu-toolchain/riscv-gcc/libgcc/soft-fp/subsf3.c:46 (discriminator 95)
80005b48:	040005b7          	lui	a1,0x4000
80005b4c:	00b7e7b3          	or	a5,a5,a1
80005b50:	00068593          	mv	a1,a3
/home/hqfang/workspace/software/riscv-gnu-toolchain/riscv-gcc/libgcc/soft-fp/subsf3.c:46 (discriminator 104)
80005b54:	01b00513          	li	a0,27
80005b58:	00100693          	li	a3,1
80005b5c:	00b54e63          	blt	a0,a1,80005b78 <__subsf3+0x15c>
/home/hqfang/workspace/software/riscv-gnu-toolchain/riscv-gcc/libgcc/soft-fp/subsf3.c:46 (discriminator 105)
80005b60:	02000693          	li	a3,32
80005b64:	40b686b3          	sub	a3,a3,a1
80005b68:	00b7d533          	srl	a0,a5,a1
80005b6c:	00d797b3          	sll	a5,a5,a3
80005b70:	00f037b3          	snez	a5,a5
80005b74:	00f566b3          	or	a3,a0,a5
/home/hqfang/workspace/software/riscv-gnu-toolchain/riscv-gcc/libgcc/soft-fp/subsf3.c:46 (discriminator 116)
80005b78:	00e687b3          	add	a5,a3,a4
/home/hqfang/workspace/software/riscv-gnu-toolchain/riscv-gcc/libgcc/soft-fp/subsf3.c:45 (discriminator 116)
80005b7c:	00060413          	mv	s0,a2
80005b80:	f65ff06f          	j	80005ae4 <__subsf3+0xc8>
/home/hqfang/workspace/software/riscv-gnu-toolchain/riscv-gcc/libgcc/soft-fp/subsf3.c:46 (discriminator 67)
80005b84:	00140693          	addi	a3,s0,1
80005b88:	0fe6f613          	andi	a2,a3,254
80005b8c:	06061263          	bnez	a2,80005bf0 <__subsf3+0x1d4>
/home/hqfang/workspace/software/riscv-gnu-toolchain/riscv-gcc/libgcc/soft-fp/subsf3.c:46 (discriminator 118)
80005b90:	04041463          	bnez	s0,80005bd8 <__subsf3+0x1bc>
/home/hqfang/workspace/software/riscv-gnu-toolchain/riscv-gcc/libgcc/soft-fp/subsf3.c:46 (discriminator 120)
80005b94:	24078e63          	beqz	a5,80005df0 <__subsf3+0x3d4>
/home/hqfang/workspace/software/riscv-gnu-toolchain/riscv-gcc/libgcc/soft-fp/subsf3.c:46 (discriminator 123)
80005b98:	02070263          	beqz	a4,80005bbc <__subsf3+0x1a0>
/home/hqfang/workspace/software/riscv-gnu-toolchain/riscv-gcc/libgcc/soft-fp/subsf3.c:46 (discriminator 129)
80005b9c:	00e787b3          	add	a5,a5,a4
80005ba0:	04000737          	lui	a4,0x4000
80005ba4:	00e7f733          	and	a4,a5,a4
80005ba8:	00070a63          	beqz	a4,80005bbc <__subsf3+0x1a0>
/home/hqfang/workspace/software/riscv-gnu-toolchain/riscv-gcc/libgcc/soft-fp/subsf3.c:46 (discriminator 131)
80005bac:	fc000737          	lui	a4,0xfc000
80005bb0:	fff70713          	addi	a4,a4,-1 # fbffffff <_sp+0x6bfeffff>
80005bb4:	00e7f7b3          	and	a5,a5,a4
80005bb8:	00100413          	li	s0,1
/home/hqfang/workspace/software/riscv-gnu-toolchain/riscv-gcc/libgcc/soft-fp/subsf3.c:47 (discriminator 382)
80005bbc:	0077f713          	andi	a4,a5,7
80005bc0:	24070063          	beqz	a4,80005e00 <__subsf3+0x3e4>
/home/hqfang/workspace/software/riscv-gnu-toolchain/riscv-gcc/libgcc/soft-fp/subsf3.c:47 (discriminator 37)
80005bc4:	00f7f713          	andi	a4,a5,15
80005bc8:	00400693          	li	a3,4
80005bcc:	22d70a63          	beq	a4,a3,80005e00 <__subsf3+0x3e4>
/home/hqfang/workspace/software/riscv-gnu-toolchain/riscv-gcc/libgcc/soft-fp/subsf3.c:47 (discriminator 44)
80005bd0:	00478793          	addi	a5,a5,4 # 4000004 <__stack_size+0x3fff804>
80005bd4:	22c0006f          	j	80005e00 <__subsf3+0x3e4>
/home/hqfang/workspace/software/riscv-gnu-toolchain/riscv-gcc/libgcc/soft-fp/subsf3.c:46 (discriminator 148)
80005bd8:	f60780e3          	beqz	a5,80005b38 <__subsf3+0x11c>
/home/hqfang/workspace/software/riscv-gnu-toolchain/riscv-gcc/libgcc/soft-fp/subsf3.c:46 (discriminator 334)
80005bdc:	ec0702e3          	beqz	a4,80005aa0 <__subsf3+0x84>
/home/hqfang/workspace/software/riscv-gnu-toolchain/riscv-gcc/libgcc/soft-fp/subsf3.c:46
80005be0:	00000493          	li	s1,0
80005be4:	020007b7          	lui	a5,0x2000
80005be8:	0ff00413          	li	s0,255
80005bec:	2140006f          	j	80005e00 <__subsf3+0x3e4>
/home/hqfang/workspace/software/riscv-gnu-toolchain/riscv-gcc/libgcc/soft-fp/subsf3.c:46 (discriminator 119)
80005bf0:	0ff00613          	li	a2,255
80005bf4:	20c68263          	beq	a3,a2,80005df8 <__subsf3+0x3dc>
/home/hqfang/workspace/software/riscv-gnu-toolchain/riscv-gcc/libgcc/soft-fp/subsf3.c:46
80005bf8:	00e787b3          	add	a5,a5,a4
80005bfc:	0017d793          	srli	a5,a5,0x1
80005c00:	00068413          	mv	s0,a3
80005c04:	fb9ff06f          	j	80005bbc <__subsf3+0x1a0>
/home/hqfang/workspace/software/riscv-gnu-toolchain/riscv-gcc/libgcc/soft-fp/subsf3.c:46 (discriminator 13)
80005c08:	08d05063          	blez	a3,80005c88 <__subsf3+0x26c>
/home/hqfang/workspace/software/riscv-gnu-toolchain/riscv-gcc/libgcc/soft-fp/subsf3.c:46 (discriminator 194)
80005c0c:	06061263          	bnez	a2,80005c70 <__subsf3+0x254>
/home/hqfang/workspace/software/riscv-gnu-toolchain/riscv-gcc/libgcc/soft-fp/subsf3.c:46 (discriminator 196)
80005c10:	fe0708e3          	beqz	a4,80005c00 <__subsf3+0x1e4>
/home/hqfang/workspace/software/riscv-gnu-toolchain/riscv-gcc/libgcc/soft-fp/subsf3.c:46 (discriminator 199)
80005c14:	fff68613          	addi	a2,a3,-1
80005c18:	00061863          	bnez	a2,80005c28 <__subsf3+0x20c>
/home/hqfang/workspace/software/riscv-gnu-toolchain/riscv-gcc/libgcc/soft-fp/subsf3.c:46 (discriminator 208)
80005c1c:	40e787b3          	sub	a5,a5,a4
/home/hqfang/workspace/software/riscv-gnu-toolchain/riscv-gcc/libgcc/soft-fp/subsf3.c:45 (discriminator 260)
80005c20:	00100413          	li	s0,1
/home/hqfang/workspace/software/riscv-gnu-toolchain/riscv-gcc/libgcc/soft-fp/subsf3.c:46 (discriminator 260)
80005c24:	0340006f          	j	80005c58 <__subsf3+0x23c>
/home/hqfang/workspace/software/riscv-gnu-toolchain/riscv-gcc/libgcc/soft-fp/subsf3.c:46 (discriminator 209)
80005c28:	0ff00593          	li	a1,255
80005c2c:	e6b68ae3          	beq	a3,a1,80005aa0 <__subsf3+0x84>
/home/hqfang/workspace/software/riscv-gnu-toolchain/riscv-gcc/libgcc/soft-fp/subsf3.c:46 (discriminator 232)
80005c30:	01b00593          	li	a1,27
80005c34:	00100693          	li	a3,1
80005c38:	00c5ce63          	blt	a1,a2,80005c54 <__subsf3+0x238>
/home/hqfang/workspace/software/riscv-gnu-toolchain/riscv-gcc/libgcc/soft-fp/subsf3.c:46 (discriminator 233)
80005c3c:	02000693          	li	a3,32
80005c40:	40c686b3          	sub	a3,a3,a2
80005c44:	00c755b3          	srl	a1,a4,a2
80005c48:	00d71733          	sll	a4,a4,a3
80005c4c:	00e03733          	snez	a4,a4
80005c50:	00e5e6b3          	or	a3,a1,a4
/home/hqfang/workspace/software/riscv-gnu-toolchain/riscv-gcc/libgcc/soft-fp/subsf3.c:46 (discriminator 244)
80005c54:	40d787b3          	sub	a5,a5,a3
/home/hqfang/workspace/software/riscv-gnu-toolchain/riscv-gcc/libgcc/soft-fp/subsf3.c:46 (discriminator 297)
80005c58:	04000937          	lui	s2,0x4000
80005c5c:	0127f733          	and	a4,a5,s2
80005c60:	f4070ee3          	beqz	a4,80005bbc <__subsf3+0x1a0>
/home/hqfang/workspace/software/riscv-gnu-toolchain/riscv-gcc/libgcc/soft-fp/subsf3.c:46 (discriminator 356)
80005c64:	fff90913          	addi	s2,s2,-1 # 3ffffff <__stack_size+0x3fff7ff>
80005c68:	0127f933          	and	s2,a5,s2
80005c6c:	1180006f          	j	80005d84 <__subsf3+0x368>
/home/hqfang/workspace/software/riscv-gnu-toolchain/riscv-gcc/libgcc/soft-fp/subsf3.c:46 (discriminator 197)
80005c70:	0ff00613          	li	a2,255
80005c74:	f4c404e3          	beq	s0,a2,80005bbc <__subsf3+0x1a0>
/home/hqfang/workspace/software/riscv-gnu-toolchain/riscv-gcc/libgcc/soft-fp/subsf3.c:46 (discriminator 223)
80005c78:	04000637          	lui	a2,0x4000
80005c7c:	00c76733          	or	a4,a4,a2
80005c80:	00068613          	mv	a2,a3
80005c84:	fadff06f          	j	80005c30 <__subsf3+0x214>
/home/hqfang/workspace/software/riscv-gnu-toolchain/riscv-gcc/libgcc/soft-fp/subsf3.c:46 (discriminator 195)
80005c88:	08068063          	beqz	a3,80005d08 <__subsf3+0x2ec>
/home/hqfang/workspace/software/riscv-gnu-toolchain/riscv-gcc/libgcc/soft-fp/subsf3.c:46 (discriminator 246)
80005c8c:	408606b3          	sub	a3,a2,s0
80005c90:	02041863          	bnez	s0,80005cc0 <__subsf3+0x2a4>
/home/hqfang/workspace/software/riscv-gnu-toolchain/riscv-gcc/libgcc/soft-fp/subsf3.c:46 (discriminator 248)
80005c94:	1e078063          	beqz	a5,80005e74 <__subsf3+0x458>
/home/hqfang/workspace/software/riscv-gnu-toolchain/riscv-gcc/libgcc/soft-fp/subsf3.c:46 (discriminator 251)
80005c98:	fff68513          	addi	a0,a3,-1
80005c9c:	00051863          	bnez	a0,80005cac <__subsf3+0x290>
/home/hqfang/workspace/software/riscv-gnu-toolchain/riscv-gcc/libgcc/soft-fp/subsf3.c:46 (discriminator 260)
80005ca0:	40f707b3          	sub	a5,a4,a5
80005ca4:	00058493          	mv	s1,a1
80005ca8:	f79ff06f          	j	80005c20 <__subsf3+0x204>
/home/hqfang/workspace/software/riscv-gnu-toolchain/riscv-gcc/libgcc/soft-fp/subsf3.c:46 (discriminator 261)
80005cac:	0ff00813          	li	a6,255
80005cb0:	03069263          	bne	a3,a6,80005cd4 <__subsf3+0x2b8>
/home/hqfang/workspace/software/riscv-gnu-toolchain/riscv-gcc/libgcc/soft-fp/subsf3.c:45
80005cb4:	00070793          	mv	a5,a4
/home/hqfang/workspace/software/riscv-gnu-toolchain/riscv-gcc/libgcc/soft-fp/subsf3.c:46
80005cb8:	0ff00413          	li	s0,255
80005cbc:	06c0006f          	j	80005d28 <__subsf3+0x30c>
/home/hqfang/workspace/software/riscv-gnu-toolchain/riscv-gcc/libgcc/soft-fp/subsf3.c:46 (discriminator 249)
80005cc0:	0ff00513          	li	a0,255
80005cc4:	fea608e3          	beq	a2,a0,80005cb4 <__subsf3+0x298>
/home/hqfang/workspace/software/riscv-gnu-toolchain/riscv-gcc/libgcc/soft-fp/subsf3.c:46 (discriminator 275)
80005cc8:	04000537          	lui	a0,0x4000
80005ccc:	00a7e7b3          	or	a5,a5,a0
80005cd0:	00068513          	mv	a0,a3
/home/hqfang/workspace/software/riscv-gnu-toolchain/riscv-gcc/libgcc/soft-fp/subsf3.c:46 (discriminator 284)
80005cd4:	01b00813          	li	a6,27
80005cd8:	00100693          	li	a3,1
80005cdc:	00a84e63          	blt	a6,a0,80005cf8 <__subsf3+0x2dc>
/home/hqfang/workspace/software/riscv-gnu-toolchain/riscv-gcc/libgcc/soft-fp/subsf3.c:46 (discriminator 285)
80005ce0:	02000693          	li	a3,32
80005ce4:	40a686b3          	sub	a3,a3,a0
80005ce8:	00a7d833          	srl	a6,a5,a0
80005cec:	00d797b3          	sll	a5,a5,a3
80005cf0:	00f037b3          	snez	a5,a5
80005cf4:	00f866b3          	or	a3,a6,a5
/home/hqfang/workspace/software/riscv-gnu-toolchain/riscv-gcc/libgcc/soft-fp/subsf3.c:46 (discriminator 296)
80005cf8:	40d707b3          	sub	a5,a4,a3
/home/hqfang/workspace/software/riscv-gnu-toolchain/riscv-gcc/libgcc/soft-fp/subsf3.c:45 (discriminator 296)
80005cfc:	00060413          	mv	s0,a2
80005d00:	00058493          	mv	s1,a1
80005d04:	f55ff06f          	j	80005c58 <__subsf3+0x23c>
/home/hqfang/workspace/software/riscv-gnu-toolchain/riscv-gcc/libgcc/soft-fp/subsf3.c:46 (discriminator 247)
80005d08:	00140693          	addi	a3,s0,1
80005d0c:	0fe6f693          	andi	a3,a3,254
80005d10:	04069e63          	bnez	a3,80005d6c <__subsf3+0x350>
/home/hqfang/workspace/software/riscv-gnu-toolchain/riscv-gcc/libgcc/soft-fp/subsf3.c:46 (discriminator 298)
80005d14:	04041263          	bnez	s0,80005d58 <__subsf3+0x33c>
/home/hqfang/workspace/software/riscv-gnu-toolchain/riscv-gcc/libgcc/soft-fp/subsf3.c:46 (discriminator 300)
80005d18:	00079c63          	bnez	a5,80005d30 <__subsf3+0x314>
/home/hqfang/workspace/software/riscv-gnu-toolchain/riscv-gcc/libgcc/soft-fp/subsf3.c:46 (discriminator 302)
80005d1c:	00000493          	li	s1,0
80005d20:	0e070063          	beqz	a4,80005e00 <__subsf3+0x3e4>
/home/hqfang/workspace/software/riscv-gnu-toolchain/riscv-gcc/libgcc/soft-fp/subsf3.c:46
80005d24:	00070793          	mv	a5,a4
80005d28:	00058493          	mv	s1,a1
80005d2c:	e91ff06f          	j	80005bbc <__subsf3+0x1a0>
/home/hqfang/workspace/software/riscv-gnu-toolchain/riscv-gcc/libgcc/soft-fp/subsf3.c:46 (discriminator 303)
80005d30:	e80706e3          	beqz	a4,80005bbc <__subsf3+0x1a0>
/home/hqfang/workspace/software/riscv-gnu-toolchain/riscv-gcc/libgcc/soft-fp/subsf3.c:46 (discriminator 310)
80005d34:	40e786b3          	sub	a3,a5,a4
80005d38:	04000637          	lui	a2,0x4000
80005d3c:	00c6f633          	and	a2,a3,a2
80005d40:	40f707b3          	sub	a5,a4,a5
80005d44:	fe0612e3          	bnez	a2,80005d28 <__subsf3+0x30c>
/home/hqfang/workspace/software/riscv-gnu-toolchain/riscv-gcc/libgcc/soft-fp/subsf3.c:46 (discriminator 313)
80005d48:	00000793          	li	a5,0
80005d4c:	08068063          	beqz	a3,80005dcc <__subsf3+0x3b0>
80005d50:	00068793          	mv	a5,a3
80005d54:	e69ff06f          	j	80005bbc <__subsf3+0x1a0>
/home/hqfang/workspace/software/riscv-gnu-toolchain/riscv-gcc/libgcc/soft-fp/subsf3.c:46 (discriminator 332)
80005d58:	e80792e3          	bnez	a5,80005bdc <__subsf3+0x1c0>
/home/hqfang/workspace/software/riscv-gnu-toolchain/riscv-gcc/libgcc/soft-fp/subsf3.c:46 (discriminator 333)
80005d5c:	e80702e3          	beqz	a4,80005be0 <__subsf3+0x1c4>
/home/hqfang/workspace/software/riscv-gnu-toolchain/riscv-gcc/libgcc/soft-fp/subsf3.c:46
80005d60:	00070793          	mv	a5,a4
80005d64:	00058493          	mv	s1,a1
80005d68:	d39ff06f          	j	80005aa0 <__subsf3+0x84>
/home/hqfang/workspace/software/riscv-gnu-toolchain/riscv-gcc/libgcc/soft-fp/subsf3.c:46 (discriminator 299)
80005d6c:	40e78933          	sub	s2,a5,a4
80005d70:	040006b7          	lui	a3,0x4000
80005d74:	00d976b3          	and	a3,s2,a3
80005d78:	04068463          	beqz	a3,80005dc0 <__subsf3+0x3a4>
/home/hqfang/workspace/software/riscv-gnu-toolchain/riscv-gcc/libgcc/soft-fp/subsf3.c:46 (discriminator 349)
80005d7c:	40f70933          	sub	s2,a4,a5
80005d80:	00058493          	mv	s1,a1
/home/hqfang/workspace/software/riscv-gnu-toolchain/riscv-gcc/libgcc/soft-fp/subsf3.c:46 (discriminator 359)
80005d84:	00090513          	mv	a0,s2
80005d88:	61c000ef          	jal	ra,800063a4 <__clzsi2>
80005d8c:	ffb50513          	addi	a0,a0,-5 # 3fffffb <__stack_size+0x3fff7fb>
80005d90:	00a91933          	sll	s2,s2,a0
80005d94:	04854063          	blt	a0,s0,80005dd4 <__subsf3+0x3b8>
/home/hqfang/workspace/software/riscv-gnu-toolchain/riscv-gcc/libgcc/soft-fp/subsf3.c:46 (discriminator 372)
80005d98:	40850533          	sub	a0,a0,s0
80005d9c:	00150513          	addi	a0,a0,1
80005da0:	02000413          	li	s0,32
80005da4:	00a957b3          	srl	a5,s2,a0
80005da8:	40a40533          	sub	a0,s0,a0
80005dac:	00a91933          	sll	s2,s2,a0
80005db0:	01203933          	snez	s2,s2
80005db4:	0127e7b3          	or	a5,a5,s2
80005db8:	00000413          	li	s0,0
80005dbc:	e01ff06f          	j	80005bbc <__subsf3+0x1a0>
/home/hqfang/workspace/software/riscv-gnu-toolchain/riscv-gcc/libgcc/soft-fp/subsf3.c:46 (discriminator 350)
80005dc0:	fc0912e3          	bnez	s2,80005d84 <__subsf3+0x368>
/home/hqfang/workspace/software/riscv-gnu-toolchain/riscv-gcc/libgcc/soft-fp/subsf3.c:46
80005dc4:	00000793          	li	a5,0
80005dc8:	00000413          	li	s0,0
80005dcc:	00000493          	li	s1,0
80005dd0:	0300006f          	j	80005e00 <__subsf3+0x3e4>
/home/hqfang/workspace/software/riscv-gnu-toolchain/riscv-gcc/libgcc/soft-fp/subsf3.c:46 (discriminator 373)
80005dd4:	fc0007b7          	lui	a5,0xfc000
80005dd8:	fff78793          	addi	a5,a5,-1 # fbffffff <_sp+0x6bfeffff>
80005ddc:	40a40433          	sub	s0,s0,a0
80005de0:	00f977b3          	and	a5,s2,a5
80005de4:	dd9ff06f          	j	80005bbc <__subsf3+0x1a0>
/home/hqfang/workspace/software/riscv-gnu-toolchain/riscv-gcc/libgcc/soft-fp/subsf3.c:45
80005de8:	00070793          	mv	a5,a4
80005dec:	e15ff06f          	j	80005c00 <__subsf3+0x1e4>
80005df0:	00070793          	mv	a5,a4
80005df4:	dc9ff06f          	j	80005bbc <__subsf3+0x1a0>
80005df8:	0ff00413          	li	s0,255
80005dfc:	00000793          	li	a5,0
/home/hqfang/workspace/software/riscv-gnu-toolchain/riscv-gcc/libgcc/soft-fp/subsf3.c:47 (discriminator 47)
80005e00:	04000737          	lui	a4,0x4000
80005e04:	00e7f733          	and	a4,a5,a4
80005e08:	00070e63          	beqz	a4,80005e24 <__subsf3+0x408>
/home/hqfang/workspace/software/riscv-gnu-toolchain/riscv-gcc/libgcc/soft-fp/subsf3.c:47 (discriminator 63)
80005e0c:	00140413          	addi	s0,s0,1
80005e10:	0ff00713          	li	a4,255
80005e14:	06e40663          	beq	s0,a4,80005e80 <__subsf3+0x464>
/home/hqfang/workspace/software/riscv-gnu-toolchain/riscv-gcc/libgcc/soft-fp/subsf3.c:47
80005e18:	fc000737          	lui	a4,0xfc000
80005e1c:	fff70713          	addi	a4,a4,-1 # fbffffff <_sp+0x6bfeffff>
80005e20:	00e7f7b3          	and	a5,a5,a4
/home/hqfang/workspace/software/riscv-gnu-toolchain/riscv-gcc/libgcc/soft-fp/subsf3.c:47 (discriminator 79)
80005e24:	0ff00713          	li	a4,255
80005e28:	0037d793          	srli	a5,a5,0x3
80005e2c:	00e41863          	bne	s0,a4,80005e3c <__subsf3+0x420>
/home/hqfang/workspace/software/riscv-gnu-toolchain/riscv-gcc/libgcc/soft-fp/subsf3.c:47 (discriminator 80)
80005e30:	00078663          	beqz	a5,80005e3c <__subsf3+0x420>
/home/hqfang/workspace/software/riscv-gnu-toolchain/riscv-gcc/libgcc/soft-fp/subsf3.c:47
80005e34:	004007b7          	lui	a5,0x400
80005e38:	00000493          	li	s1,0
/home/hqfang/workspace/software/riscv-gnu-toolchain/riscv-gcc/libgcc/soft-fp/subsf3.c:47 (discriminator 90)
80005e3c:	7f800537          	lui	a0,0x7f800
80005e40:	01741413          	slli	s0,s0,0x17
80005e44:	00979793          	slli	a5,a5,0x9
80005e48:	00a47433          	and	s0,s0,a0
80005e4c:	0097d793          	srli	a5,a5,0x9
/home/hqfang/workspace/software/riscv-gnu-toolchain/riscv-gcc/libgcc/soft-fp/subsf3.c:51 (discriminator 90)
80005e50:	00c12083          	lw	ra,12(sp)
/home/hqfang/workspace/software/riscv-gnu-toolchain/riscv-gcc/libgcc/soft-fp/subsf3.c:47 (discriminator 90)
80005e54:	00f467b3          	or	a5,s0,a5
/home/hqfang/workspace/software/riscv-gnu-toolchain/riscv-gcc/libgcc/soft-fp/subsf3.c:51 (discriminator 90)
80005e58:	00812403          	lw	s0,8(sp)
/home/hqfang/workspace/software/riscv-gnu-toolchain/riscv-gcc/libgcc/soft-fp/subsf3.c:47 (discriminator 90)
80005e5c:	01f49513          	slli	a0,s1,0x1f
/home/hqfang/workspace/software/riscv-gnu-toolchain/riscv-gcc/libgcc/soft-fp/subsf3.c:51 (discriminator 90)
80005e60:	00012903          	lw	s2,0(sp)
80005e64:	00412483          	lw	s1,4(sp)
80005e68:	00a7e533          	or	a0,a5,a0
80005e6c:	01010113          	addi	sp,sp,16
80005e70:	00008067          	ret
/home/hqfang/workspace/software/riscv-gnu-toolchain/riscv-gcc/libgcc/soft-fp/subsf3.c:45
80005e74:	00070793          	mv	a5,a4
/home/hqfang/workspace/software/riscv-gnu-toolchain/riscv-gcc/libgcc/soft-fp/subsf3.c:46
80005e78:	00068413          	mv	s0,a3
80005e7c:	eadff06f          	j	80005d28 <__subsf3+0x30c>
80005e80:	00000793          	li	a5,0
80005e84:	fa1ff06f          	j	80005e24 <__subsf3+0x408>

80005e88 <__unordsf2>:
__unordsf2():
/home/hqfang/workspace/software/riscv-gnu-toolchain/riscv-gcc/libgcc/soft-fp/unordsf2.c:42
80005e88:	008007b7          	lui	a5,0x800
80005e8c:	fff78793          	addi	a5,a5,-1 # 7fffff <__stack_size+0x7ff7ff>
80005e90:	00a7f733          	and	a4,a5,a0
/home/hqfang/workspace/software/riscv-gnu-toolchain/riscv-gcc/libgcc/soft-fp/unordsf2.c:44
80005e94:	01755513          	srli	a0,a0,0x17
/home/hqfang/workspace/software/riscv-gnu-toolchain/riscv-gcc/libgcc/soft-fp/unordsf2.c:43
80005e98:	00b7f7b3          	and	a5,a5,a1
/home/hqfang/workspace/software/riscv-gnu-toolchain/riscv-gcc/libgcc/soft-fp/unordsf2.c:44
80005e9c:	0ff57513          	andi	a0,a0,255
80005ea0:	0175d593          	srli	a1,a1,0x17
80005ea4:	0ff00693          	li	a3,255
80005ea8:	0ff5f593          	andi	a1,a1,255
80005eac:	00d51663          	bne	a0,a3,80005eb8 <__unordsf2+0x30>
80005eb0:	00100513          	li	a0,1
/home/hqfang/workspace/software/riscv-gnu-toolchain/riscv-gcc/libgcc/soft-fp/unordsf2.c:44 (discriminator 20)
80005eb4:	00071a63          	bnez	a4,80005ec8 <__unordsf2+0x40>
/home/hqfang/workspace/software/riscv-gnu-toolchain/riscv-gcc/libgcc/soft-fp/unordsf2.c:44 (discriminator 23)
80005eb8:	0ff00713          	li	a4,255
80005ebc:	00000513          	li	a0,0
80005ec0:	00e59463          	bne	a1,a4,80005ec8 <__unordsf2+0x40>
/home/hqfang/workspace/software/riscv-gnu-toolchain/riscv-gcc/libgcc/soft-fp/unordsf2.c:44 (discriminator 24)
80005ec4:	00f03533          	snez	a0,a5
/home/hqfang/workspace/software/riscv-gnu-toolchain/riscv-gcc/libgcc/soft-fp/unordsf2.c:48
80005ec8:	00008067          	ret

80005ecc <__fixsfsi>:
__fixsfsi():
/home/hqfang/workspace/software/riscv-gnu-toolchain/riscv-gcc/libgcc/soft-fp/fixsfsi.c:42
80005ecc:	00800637          	lui	a2,0x800
80005ed0:	01755713          	srli	a4,a0,0x17
80005ed4:	fff60793          	addi	a5,a2,-1 # 7fffff <__stack_size+0x7ff7ff>
80005ed8:	0ff77713          	andi	a4,a4,255
/home/hqfang/workspace/software/riscv-gnu-toolchain/riscv-gcc/libgcc/soft-fp/fixsfsi.c:43
80005edc:	07e00593          	li	a1,126
/home/hqfang/workspace/software/riscv-gnu-toolchain/riscv-gcc/libgcc/soft-fp/fixsfsi.c:42
80005ee0:	00a7f7b3          	and	a5,a5,a0
80005ee4:	01f55693          	srli	a3,a0,0x1f
/home/hqfang/workspace/software/riscv-gnu-toolchain/riscv-gcc/libgcc/soft-fp/fixsfsi.c:43
80005ee8:	04e5d663          	bge	a1,a4,80005f34 <__fixsfsi+0x68>
/home/hqfang/workspace/software/riscv-gnu-toolchain/riscv-gcc/libgcc/soft-fp/fixsfsi.c:43 (discriminator 10)
80005eec:	09d00593          	li	a1,157
80005ef0:	00e5da63          	bge	a1,a4,80005f04 <__fixsfsi+0x38>
/home/hqfang/workspace/software/riscv-gnu-toolchain/riscv-gcc/libgcc/soft-fp/fixsfsi.c:43 (discriminator 14)
80005ef4:	80000537          	lui	a0,0x80000
80005ef8:	fff54513          	not	a0,a0
80005efc:	00a68533          	add	a0,a3,a0
80005f00:	00008067          	ret
/home/hqfang/workspace/software/riscv-gnu-toolchain/riscv-gcc/libgcc/soft-fp/fixsfsi.c:43 (discriminator 13)
80005f04:	00c7e533          	or	a0,a5,a2
80005f08:	09500793          	li	a5,149
80005f0c:	00e7dc63          	bge	a5,a4,80005f24 <__fixsfsi+0x58>
/home/hqfang/workspace/software/riscv-gnu-toolchain/riscv-gcc/libgcc/soft-fp/fixsfsi.c:43 (discriminator 27)
80005f10:	f6a70713          	addi	a4,a4,-150
80005f14:	00e51533          	sll	a0,a0,a4
/home/hqfang/workspace/software/riscv-gnu-toolchain/riscv-gcc/libgcc/soft-fp/fixsfsi.c:43 (discriminator 36)
80005f18:	02068063          	beqz	a3,80005f38 <__fixsfsi+0x6c>
/home/hqfang/workspace/software/riscv-gnu-toolchain/riscv-gcc/libgcc/soft-fp/fixsfsi.c:43 (discriminator 37)
80005f1c:	40a00533          	neg	a0,a0
80005f20:	00008067          	ret
/home/hqfang/workspace/software/riscv-gnu-toolchain/riscv-gcc/libgcc/soft-fp/fixsfsi.c:43 (discriminator 28)
80005f24:	09600793          	li	a5,150
80005f28:	40e78733          	sub	a4,a5,a4
80005f2c:	00e55533          	srl	a0,a0,a4
80005f30:	fe9ff06f          	j	80005f18 <__fixsfsi+0x4c>
/home/hqfang/workspace/software/riscv-gnu-toolchain/riscv-gcc/libgcc/soft-fp/fixsfsi.c:43
80005f34:	00000513          	li	a0,0
/home/hqfang/workspace/software/riscv-gnu-toolchain/riscv-gcc/libgcc/soft-fp/fixsfsi.c:47 (discriminator 51)
80005f38:	00008067          	ret

80005f3c <__floatsisf>:
__floatsisf():
/home/hqfang/workspace/software/riscv-gnu-toolchain/riscv-gcc/libgcc/soft-fp/floatsisf.c:36
80005f3c:	ff010113          	addi	sp,sp,-16
80005f40:	00112623          	sw	ra,12(sp)
80005f44:	00812423          	sw	s0,8(sp)
80005f48:	00912223          	sw	s1,4(sp)
/home/hqfang/workspace/software/riscv-gnu-toolchain/riscv-gcc/libgcc/soft-fp/floatsisf.c:42
80005f4c:	0e050663          	beqz	a0,80006038 <__floatsisf+0xfc>
/home/hqfang/workspace/software/riscv-gnu-toolchain/riscv-gcc/libgcc/soft-fp/floatsisf.c:42 (discriminator 1)
80005f50:	41f55793          	srai	a5,a0,0x1f
80005f54:	00a7c433          	xor	s0,a5,a0
80005f58:	40f40433          	sub	s0,s0,a5
80005f5c:	01f55493          	srli	s1,a0,0x1f
80005f60:	00040513          	mv	a0,s0
80005f64:	440000ef          	jal	ra,800063a4 <__clzsi2>
80005f68:	09e00793          	li	a5,158
80005f6c:	00050713          	mv	a4,a0
80005f70:	40a78533          	sub	a0,a5,a0
80005f74:	09600793          	li	a5,150
80005f78:	04a7c063          	blt	a5,a0,80005fb8 <__floatsisf+0x7c>
/home/hqfang/workspace/software/riscv-gnu-toolchain/riscv-gcc/libgcc/soft-fp/floatsisf.c:42 (discriminator 28)
80005f7c:	00800793          	li	a5,8
80005f80:	00e7d663          	bge	a5,a4,80005f8c <__floatsisf+0x50>
/home/hqfang/workspace/software/riscv-gnu-toolchain/riscv-gcc/libgcc/soft-fp/floatsisf.c:42 (discriminator 35)
80005f84:	ff870713          	addi	a4,a4,-8
80005f88:	00e41433          	sll	s0,s0,a4
/home/hqfang/workspace/software/riscv-gnu-toolchain/riscv-gcc/libgcc/soft-fp/floatsisf.c:43 (discriminator 140)
80005f8c:	00941413          	slli	s0,s0,0x9
80005f90:	01751513          	slli	a0,a0,0x17
80005f94:	00945413          	srli	s0,s0,0x9
80005f98:	00856433          	or	s0,a0,s0
80005f9c:	01f49513          	slli	a0,s1,0x1f
/home/hqfang/workspace/software/riscv-gnu-toolchain/riscv-gcc/libgcc/soft-fp/floatsisf.c:47 (discriminator 140)
80005fa0:	00c12083          	lw	ra,12(sp)
80005fa4:	00a46533          	or	a0,s0,a0
80005fa8:	00812403          	lw	s0,8(sp)
80005fac:	00412483          	lw	s1,4(sp)
80005fb0:	01010113          	addi	sp,sp,16
80005fb4:	00008067          	ret
/home/hqfang/workspace/software/riscv-gnu-toolchain/riscv-gcc/libgcc/soft-fp/floatsisf.c:42 (discriminator 29)
80005fb8:	09900793          	li	a5,153
80005fbc:	02a7d063          	bge	a5,a0,80005fdc <__floatsisf+0xa0>
/home/hqfang/workspace/software/riscv-gnu-toolchain/riscv-gcc/libgcc/soft-fp/floatsisf.c:42 (discriminator 38)
80005fc0:	00500793          	li	a5,5
80005fc4:	40e787b3          	sub	a5,a5,a4
80005fc8:	01b70693          	addi	a3,a4,27
80005fcc:	00f457b3          	srl	a5,s0,a5
80005fd0:	00d41433          	sll	s0,s0,a3
80005fd4:	00803433          	snez	s0,s0
80005fd8:	0087e433          	or	s0,a5,s0
/home/hqfang/workspace/software/riscv-gnu-toolchain/riscv-gcc/libgcc/soft-fp/floatsisf.c:42 (discriminator 40)
80005fdc:	00500793          	li	a5,5
80005fe0:	00e7d663          	bge	a5,a4,80005fec <__floatsisf+0xb0>
/home/hqfang/workspace/software/riscv-gnu-toolchain/riscv-gcc/libgcc/soft-fp/floatsisf.c:42 (discriminator 46)
80005fe4:	ffb70793          	addi	a5,a4,-5
80005fe8:	00f41433          	sll	s0,s0,a5
/home/hqfang/workspace/software/riscv-gnu-toolchain/riscv-gcc/libgcc/soft-fp/floatsisf.c:42 (discriminator 48)
80005fec:	fc0006b7          	lui	a3,0xfc000
80005ff0:	fff68693          	addi	a3,a3,-1 # fbffffff <_sp+0x6bfeffff>
80005ff4:	00747793          	andi	a5,s0,7
80005ff8:	00d476b3          	and	a3,s0,a3
80005ffc:	00078a63          	beqz	a5,80006010 <__floatsisf+0xd4>
/home/hqfang/workspace/software/riscv-gnu-toolchain/riscv-gcc/libgcc/soft-fp/floatsisf.c:42 (discriminator 89)
80006000:	00f47413          	andi	s0,s0,15
80006004:	00400793          	li	a5,4
80006008:	00f40463          	beq	s0,a5,80006010 <__floatsisf+0xd4>
/home/hqfang/workspace/software/riscv-gnu-toolchain/riscv-gcc/libgcc/soft-fp/floatsisf.c:42 (discriminator 93)
8000600c:	00468693          	addi	a3,a3,4
/home/hqfang/workspace/software/riscv-gnu-toolchain/riscv-gcc/libgcc/soft-fp/floatsisf.c:42 (discriminator 96)
80006010:	040007b7          	lui	a5,0x4000
80006014:	00f6f7b3          	and	a5,a3,a5
80006018:	00078c63          	beqz	a5,80006030 <__floatsisf+0xf4>
/home/hqfang/workspace/software/riscv-gnu-toolchain/riscv-gcc/libgcc/soft-fp/floatsisf.c:42 (discriminator 112)
8000601c:	fc0007b7          	lui	a5,0xfc000
80006020:	fff78793          	addi	a5,a5,-1 # fbffffff <_sp+0x6bfeffff>
80006024:	00f6f6b3          	and	a3,a3,a5
80006028:	09f00793          	li	a5,159
8000602c:	40e78533          	sub	a0,a5,a4
/home/hqfang/workspace/software/riscv-gnu-toolchain/riscv-gcc/libgcc/soft-fp/floatsisf.c:42 (discriminator 128)
80006030:	0036d413          	srli	s0,a3,0x3
80006034:	f59ff06f          	j	80005f8c <__floatsisf+0x50>
/home/hqfang/workspace/software/riscv-gnu-toolchain/riscv-gcc/libgcc/soft-fp/floatsisf.c:42
80006038:	00000493          	li	s1,0
8000603c:	00000413          	li	s0,0
80006040:	f4dff06f          	j	80005f8c <__floatsisf+0x50>

80006044 <__floatunsisf>:
__floatunsisf():
/home/hqfang/workspace/software/riscv-gnu-toolchain/riscv-gcc/libgcc/soft-fp/floatunsisf.c:36
80006044:	ff010113          	addi	sp,sp,-16
80006048:	00812423          	sw	s0,8(sp)
8000604c:	00112623          	sw	ra,12(sp)
80006050:	00050413          	mv	s0,a0
/home/hqfang/workspace/software/riscv-gnu-toolchain/riscv-gcc/libgcc/soft-fp/floatunsisf.c:42
80006054:	00000793          	li	a5,0
80006058:	02050463          	beqz	a0,80006080 <__floatunsisf+0x3c>
/home/hqfang/workspace/software/riscv-gnu-toolchain/riscv-gcc/libgcc/soft-fp/floatunsisf.c:42 (discriminator 6)
8000605c:	348000ef          	jal	ra,800063a4 <__clzsi2>
80006060:	09e00793          	li	a5,158
80006064:	40a787b3          	sub	a5,a5,a0
80006068:	09600713          	li	a4,150
8000606c:	02f74a63          	blt	a4,a5,800060a0 <__floatunsisf+0x5c>
/home/hqfang/workspace/software/riscv-gnu-toolchain/riscv-gcc/libgcc/soft-fp/floatunsisf.c:42 (discriminator 28)
80006070:	00800713          	li	a4,8
80006074:	00a75663          	bge	a4,a0,80006080 <__floatunsisf+0x3c>
/home/hqfang/workspace/software/riscv-gnu-toolchain/riscv-gcc/libgcc/soft-fp/floatunsisf.c:42 (discriminator 35)
80006078:	ff850513          	addi	a0,a0,-8 # 7ffffff8 <_sp+0xeffefff8>
8000607c:	00a41433          	sll	s0,s0,a0
/home/hqfang/workspace/software/riscv-gnu-toolchain/riscv-gcc/libgcc/soft-fp/floatunsisf.c:43 (discriminator 140)
80006080:	00941413          	slli	s0,s0,0x9
80006084:	00945413          	srli	s0,s0,0x9
80006088:	01779513          	slli	a0,a5,0x17
/home/hqfang/workspace/software/riscv-gnu-toolchain/riscv-gcc/libgcc/soft-fp/floatunsisf.c:47 (discriminator 140)
8000608c:	00c12083          	lw	ra,12(sp)
80006090:	00856533          	or	a0,a0,s0
80006094:	00812403          	lw	s0,8(sp)
80006098:	01010113          	addi	sp,sp,16
8000609c:	00008067          	ret
/home/hqfang/workspace/software/riscv-gnu-toolchain/riscv-gcc/libgcc/soft-fp/floatunsisf.c:42 (discriminator 29)
800060a0:	09900713          	li	a4,153
800060a4:	02f75063          	bge	a4,a5,800060c4 <__floatunsisf+0x80>
/home/hqfang/workspace/software/riscv-gnu-toolchain/riscv-gcc/libgcc/soft-fp/floatunsisf.c:42 (discriminator 38)
800060a8:	01b50713          	addi	a4,a0,27
800060ac:	00500693          	li	a3,5
800060b0:	00e41733          	sll	a4,s0,a4
800060b4:	40a686b3          	sub	a3,a3,a0
800060b8:	00e03733          	snez	a4,a4
800060bc:	00d45433          	srl	s0,s0,a3
800060c0:	00876433          	or	s0,a4,s0
/home/hqfang/workspace/software/riscv-gnu-toolchain/riscv-gcc/libgcc/soft-fp/floatunsisf.c:42 (discriminator 40)
800060c4:	00500713          	li	a4,5
800060c8:	00a75663          	bge	a4,a0,800060d4 <__floatunsisf+0x90>
/home/hqfang/workspace/software/riscv-gnu-toolchain/riscv-gcc/libgcc/soft-fp/floatunsisf.c:42 (discriminator 46)
800060cc:	ffb50713          	addi	a4,a0,-5
800060d0:	00e41433          	sll	s0,s0,a4
/home/hqfang/workspace/software/riscv-gnu-toolchain/riscv-gcc/libgcc/soft-fp/floatunsisf.c:42 (discriminator 48)
800060d4:	fc000737          	lui	a4,0xfc000
800060d8:	fff70713          	addi	a4,a4,-1 # fbffffff <_sp+0x6bfeffff>
800060dc:	00747693          	andi	a3,s0,7
800060e0:	00e47733          	and	a4,s0,a4
800060e4:	00068a63          	beqz	a3,800060f8 <__floatunsisf+0xb4>
/home/hqfang/workspace/software/riscv-gnu-toolchain/riscv-gcc/libgcc/soft-fp/floatunsisf.c:42 (discriminator 89)
800060e8:	00f47413          	andi	s0,s0,15
800060ec:	00400693          	li	a3,4
800060f0:	00d40463          	beq	s0,a3,800060f8 <__floatunsisf+0xb4>
/home/hqfang/workspace/software/riscv-gnu-toolchain/riscv-gcc/libgcc/soft-fp/floatunsisf.c:42 (discriminator 93)
800060f4:	00470713          	addi	a4,a4,4
/home/hqfang/workspace/software/riscv-gnu-toolchain/riscv-gcc/libgcc/soft-fp/floatunsisf.c:42 (discriminator 96)
800060f8:	040006b7          	lui	a3,0x4000
800060fc:	00d776b3          	and	a3,a4,a3
80006100:	00068c63          	beqz	a3,80006118 <__floatunsisf+0xd4>
/home/hqfang/workspace/software/riscv-gnu-toolchain/riscv-gcc/libgcc/soft-fp/floatunsisf.c:42 (discriminator 112)
80006104:	fc0007b7          	lui	a5,0xfc000
80006108:	fff78793          	addi	a5,a5,-1 # fbffffff <_sp+0x6bfeffff>
8000610c:	00f77733          	and	a4,a4,a5
80006110:	09f00793          	li	a5,159
80006114:	40a787b3          	sub	a5,a5,a0
/home/hqfang/workspace/software/riscv-gnu-toolchain/riscv-gcc/libgcc/soft-fp/floatunsisf.c:42 (discriminator 128)
80006118:	00375413          	srli	s0,a4,0x3
8000611c:	f65ff06f          	j	80006080 <__floatunsisf+0x3c>

80006120 <__floatundisf>:
__floatundisf():
/home/hqfang/workspace/software/riscv-gnu-toolchain/riscv-gcc/libgcc/soft-fp/floatundisf.c:36
80006120:	fe010113          	addi	sp,sp,-32
80006124:	00112e23          	sw	ra,28(sp)
80006128:	00812c23          	sw	s0,24(sp)
8000612c:	00912a23          	sw	s1,20(sp)
80006130:	01212823          	sw	s2,16(sp)
80006134:	01312623          	sw	s3,12(sp)
80006138:	01412423          	sw	s4,8(sp)
/home/hqfang/workspace/software/riscv-gnu-toolchain/riscv-gcc/libgcc/soft-fp/floatundisf.c:42
8000613c:	00b567b3          	or	a5,a0,a1
80006140:	10078663          	beqz	a5,8000624c <__floatundisf+0x12c>
80006144:	00050413          	mv	s0,a0
80006148:	00058993          	mv	s3,a1
8000614c:	06058063          	beqz	a1,800061ac <__floatundisf+0x8c>
/home/hqfang/workspace/software/riscv-gnu-toolchain/riscv-gcc/libgcc/soft-fp/floatundisf.c:42 (discriminator 8)
80006150:	00058513          	mv	a0,a1
80006154:	250000ef          	jal	ra,800063a4 <__clzsi2>
80006158:	00050493          	mv	s1,a0
/home/hqfang/workspace/software/riscv-gnu-toolchain/riscv-gcc/libgcc/soft-fp/floatundisf.c:42 (discriminator 22)
8000615c:	0be00913          	li	s2,190
80006160:	40990933          	sub	s2,s2,s1
80006164:	09600793          	li	a5,150
80006168:	0527c863          	blt	a5,s2,800061b8 <__floatundisf+0x98>
/home/hqfang/workspace/software/riscv-gnu-toolchain/riscv-gcc/libgcc/soft-fp/floatundisf.c:42 (discriminator 38)
8000616c:	02800793          	li	a5,40
80006170:	0097d663          	bge	a5,s1,8000617c <__floatundisf+0x5c>
/home/hqfang/workspace/software/riscv-gnu-toolchain/riscv-gcc/libgcc/soft-fp/floatundisf.c:42 (discriminator 45)
80006174:	fd848493          	addi	s1,s1,-40
80006178:	00941433          	sll	s0,s0,s1
/home/hqfang/workspace/software/riscv-gnu-toolchain/riscv-gcc/libgcc/soft-fp/floatundisf.c:43 (discriminator 150)
8000617c:	00941413          	slli	s0,s0,0x9
80006180:	01791513          	slli	a0,s2,0x17
80006184:	00945413          	srli	s0,s0,0x9
/home/hqfang/workspace/software/riscv-gnu-toolchain/riscv-gcc/libgcc/soft-fp/floatundisf.c:47 (discriminator 150)
80006188:	01c12083          	lw	ra,28(sp)
8000618c:	00856533          	or	a0,a0,s0
80006190:	01812403          	lw	s0,24(sp)
80006194:	01412483          	lw	s1,20(sp)
80006198:	01012903          	lw	s2,16(sp)
8000619c:	00c12983          	lw	s3,12(sp)
800061a0:	00812a03          	lw	s4,8(sp)
800061a4:	02010113          	addi	sp,sp,32
800061a8:	00008067          	ret
/home/hqfang/workspace/software/riscv-gnu-toolchain/riscv-gcc/libgcc/soft-fp/floatundisf.c:42 (discriminator 15)
800061ac:	1f8000ef          	jal	ra,800063a4 <__clzsi2>
800061b0:	02050493          	addi	s1,a0,32
800061b4:	fa9ff06f          	j	8000615c <__floatundisf+0x3c>
/home/hqfang/workspace/software/riscv-gnu-toolchain/riscv-gcc/libgcc/soft-fp/floatundisf.c:42 (discriminator 39)
800061b8:	09900793          	li	a5,153
800061bc:	0327da63          	bge	a5,s2,800061f0 <__floatundisf+0xd0>
/home/hqfang/workspace/software/riscv-gnu-toolchain/riscv-gcc/libgcc/soft-fp/floatundisf.c:42 (discriminator 48)
800061c0:	01b48613          	addi	a2,s1,27
800061c4:	00040513          	mv	a0,s0
800061c8:	00098593          	mv	a1,s3
800061cc:	1a0000ef          	jal	ra,8000636c <__ashldi3>
800061d0:	00b56533          	or	a0,a0,a1
800061d4:	02500613          	li	a2,37
800061d8:	00a03a33          	snez	s4,a0
800061dc:	40960633          	sub	a2,a2,s1
800061e0:	00040513          	mv	a0,s0
800061e4:	00098593          	mv	a1,s3
800061e8:	14c000ef          	jal	ra,80006334 <__lshrdi3>
800061ec:	00aa6433          	or	s0,s4,a0
/home/hqfang/workspace/software/riscv-gnu-toolchain/riscv-gcc/libgcc/soft-fp/floatundisf.c:42 (discriminator 50)
800061f0:	02500793          	li	a5,37
800061f4:	0097d663          	bge	a5,s1,80006200 <__floatundisf+0xe0>
/home/hqfang/workspace/software/riscv-gnu-toolchain/riscv-gcc/libgcc/soft-fp/floatundisf.c:42 (discriminator 56)
800061f8:	fdb48793          	addi	a5,s1,-37
800061fc:	00f41433          	sll	s0,s0,a5
/home/hqfang/workspace/software/riscv-gnu-toolchain/riscv-gcc/libgcc/soft-fp/floatundisf.c:42 (discriminator 58)
80006200:	fc000537          	lui	a0,0xfc000
80006204:	fff50513          	addi	a0,a0,-1 # fbffffff <_sp+0x6bfeffff>
80006208:	00747793          	andi	a5,s0,7
8000620c:	00a47533          	and	a0,s0,a0
80006210:	00078a63          	beqz	a5,80006224 <__floatundisf+0x104>
/home/hqfang/workspace/software/riscv-gnu-toolchain/riscv-gcc/libgcc/soft-fp/floatundisf.c:42 (discriminator 99)
80006214:	00f47413          	andi	s0,s0,15
80006218:	00400793          	li	a5,4
8000621c:	00f40463          	beq	s0,a5,80006224 <__floatundisf+0x104>
/home/hqfang/workspace/software/riscv-gnu-toolchain/riscv-gcc/libgcc/soft-fp/floatundisf.c:42 (discriminator 103)
80006220:	00450513          	addi	a0,a0,4
/home/hqfang/workspace/software/riscv-gnu-toolchain/riscv-gcc/libgcc/soft-fp/floatundisf.c:42 (discriminator 106)
80006224:	040007b7          	lui	a5,0x4000
80006228:	00f577b3          	and	a5,a0,a5
8000622c:	00078c63          	beqz	a5,80006244 <__floatundisf+0x124>
/home/hqfang/workspace/software/riscv-gnu-toolchain/riscv-gcc/libgcc/soft-fp/floatundisf.c:42 (discriminator 122)
80006230:	fc0007b7          	lui	a5,0xfc000
80006234:	fff78793          	addi	a5,a5,-1 # fbffffff <_sp+0x6bfeffff>
80006238:	0bf00913          	li	s2,191
8000623c:	00f57533          	and	a0,a0,a5
80006240:	40990933          	sub	s2,s2,s1
/home/hqfang/workspace/software/riscv-gnu-toolchain/riscv-gcc/libgcc/soft-fp/floatundisf.c:42 (discriminator 138)
80006244:	00355413          	srli	s0,a0,0x3
80006248:	f35ff06f          	j	8000617c <__floatundisf+0x5c>
/home/hqfang/workspace/software/riscv-gnu-toolchain/riscv-gcc/libgcc/soft-fp/floatundisf.c:42
8000624c:	00000413          	li	s0,0
80006250:	00000913          	li	s2,0
80006254:	f29ff06f          	j	8000617c <__floatundisf+0x5c>

80006258 <__extendsfdf2>:
__extendsfdf2():
/home/hqfang/workspace/software/riscv-gnu-toolchain/riscv-gcc/libgcc/soft-fp/extendsfdf2.c:45
80006258:	01755713          	srli	a4,a0,0x17
8000625c:	0ff77713          	andi	a4,a4,255
/home/hqfang/workspace/software/riscv-gnu-toolchain/riscv-gcc/libgcc/soft-fp/extendsfdf2.c:38
80006260:	ff010113          	addi	sp,sp,-16
/home/hqfang/workspace/software/riscv-gnu-toolchain/riscv-gcc/libgcc/soft-fp/extendsfdf2.c:47
80006264:	00170793          	addi	a5,a4,1
/home/hqfang/workspace/software/riscv-gnu-toolchain/riscv-gcc/libgcc/soft-fp/extendsfdf2.c:38
80006268:	00812423          	sw	s0,8(sp)
8000626c:	00912223          	sw	s1,4(sp)
/home/hqfang/workspace/software/riscv-gnu-toolchain/riscv-gcc/libgcc/soft-fp/extendsfdf2.c:45
80006270:	00951413          	slli	s0,a0,0x9
/home/hqfang/workspace/software/riscv-gnu-toolchain/riscv-gcc/libgcc/soft-fp/extendsfdf2.c:38
80006274:	00112623          	sw	ra,12(sp)
/home/hqfang/workspace/software/riscv-gnu-toolchain/riscv-gcc/libgcc/soft-fp/extendsfdf2.c:47
80006278:	0fe7f793          	andi	a5,a5,254
/home/hqfang/workspace/software/riscv-gnu-toolchain/riscv-gcc/libgcc/soft-fp/extendsfdf2.c:45
8000627c:	00945413          	srli	s0,s0,0x9
80006280:	01f55493          	srli	s1,a0,0x1f
/home/hqfang/workspace/software/riscv-gnu-toolchain/riscv-gcc/libgcc/soft-fp/extendsfdf2.c:47
80006284:	04078263          	beqz	a5,800062c8 <__extendsfdf2+0x70>
/home/hqfang/workspace/software/riscv-gnu-toolchain/riscv-gcc/libgcc/soft-fp/extendsfdf2.c:47 (discriminator 1)
80006288:	00345793          	srli	a5,s0,0x3
8000628c:	38070713          	addi	a4,a4,896
80006290:	01d41413          	slli	s0,s0,0x1d
/home/hqfang/workspace/software/riscv-gnu-toolchain/riscv-gcc/libgcc/soft-fp/extendsfdf2.c:51 (discriminator 53)
80006294:	00c79793          	slli	a5,a5,0xc
80006298:	01471713          	slli	a4,a4,0x14
8000629c:	00c7d793          	srli	a5,a5,0xc
800062a0:	01f49513          	slli	a0,s1,0x1f
800062a4:	00f767b3          	or	a5,a4,a5
/home/hqfang/workspace/software/riscv-gnu-toolchain/riscv-gcc/libgcc/soft-fp/extendsfdf2.c:55 (discriminator 53)
800062a8:	00c12083          	lw	ra,12(sp)
/home/hqfang/workspace/software/riscv-gnu-toolchain/riscv-gcc/libgcc/soft-fp/extendsfdf2.c:51 (discriminator 53)
800062ac:	00a7e733          	or	a4,a5,a0
/home/hqfang/workspace/software/riscv-gnu-toolchain/riscv-gcc/libgcc/soft-fp/extendsfdf2.c:55 (discriminator 53)
800062b0:	00040513          	mv	a0,s0
800062b4:	00812403          	lw	s0,8(sp)
800062b8:	00412483          	lw	s1,4(sp)
800062bc:	00070593          	mv	a1,a4
800062c0:	01010113          	addi	sp,sp,16
800062c4:	00008067          	ret
/home/hqfang/workspace/software/riscv-gnu-toolchain/riscv-gcc/libgcc/soft-fp/extendsfdf2.c:47 (discriminator 2)
800062c8:	04071663          	bnez	a4,80006314 <__extendsfdf2+0xbc>
/home/hqfang/workspace/software/riscv-gnu-toolchain/riscv-gcc/libgcc/soft-fp/extendsfdf2.c:47 (discriminator 12)
800062cc:	00000793          	li	a5,0
800062d0:	fc0402e3          	beqz	s0,80006294 <__extendsfdf2+0x3c>
/home/hqfang/workspace/software/riscv-gnu-toolchain/riscv-gcc/libgcc/soft-fp/extendsfdf2.c:47 (discriminator 16)
800062d4:	00040513          	mv	a0,s0
800062d8:	0cc000ef          	jal	ra,800063a4 <__clzsi2>
800062dc:	00a00793          	li	a5,10
800062e0:	02a7c263          	blt	a5,a0,80006304 <__extendsfdf2+0xac>
/home/hqfang/workspace/software/riscv-gnu-toolchain/riscv-gcc/libgcc/soft-fp/extendsfdf2.c:47 (discriminator 29)
800062e4:	00b00793          	li	a5,11
800062e8:	40a787b3          	sub	a5,a5,a0
800062ec:	01550713          	addi	a4,a0,21
800062f0:	00f457b3          	srl	a5,s0,a5
800062f4:	00e41433          	sll	s0,s0,a4
/home/hqfang/workspace/software/riscv-gnu-toolchain/riscv-gcc/libgcc/soft-fp/extendsfdf2.c:47 (discriminator 38)
800062f8:	38900713          	li	a4,905
800062fc:	40a70733          	sub	a4,a4,a0
80006300:	f95ff06f          	j	80006294 <__extendsfdf2+0x3c>
/home/hqfang/workspace/software/riscv-gnu-toolchain/riscv-gcc/libgcc/soft-fp/extendsfdf2.c:47 (discriminator 30)
80006304:	ff550793          	addi	a5,a0,-11
80006308:	00f417b3          	sll	a5,s0,a5
8000630c:	00000413          	li	s0,0
80006310:	fe9ff06f          	j	800062f8 <__extendsfdf2+0xa0>
/home/hqfang/workspace/software/riscv-gnu-toolchain/riscv-gcc/libgcc/soft-fp/extendsfdf2.c:47 (discriminator 9)
80006314:	00000793          	li	a5,0
80006318:	00040a63          	beqz	s0,8000632c <__extendsfdf2+0xd4>
/home/hqfang/workspace/software/riscv-gnu-toolchain/riscv-gcc/libgcc/soft-fp/extendsfdf2.c:47 (discriminator 39)
8000631c:	00345793          	srli	a5,s0,0x3
80006320:	00080737          	lui	a4,0x80
80006324:	01d41413          	slli	s0,s0,0x1d
80006328:	00e7e7b3          	or	a5,a5,a4
/home/hqfang/workspace/software/riscv-gnu-toolchain/riscv-gcc/libgcc/soft-fp/extendsfdf2.c:47
8000632c:	7ff00713          	li	a4,2047
80006330:	f65ff06f          	j	80006294 <__extendsfdf2+0x3c>

80006334 <__lshrdi3>:
__lshrdi3():
/home/hqfang/workspace/software/riscv-gnu-toolchain/riscv-gcc/libgcc/libgcc2.c:406
80006334:	02060063          	beqz	a2,80006354 <__lshrdi3+0x20>
/home/hqfang/workspace/software/riscv-gnu-toolchain/riscv-gcc/libgcc/libgcc2.c:410
80006338:	02000793          	li	a5,32
8000633c:	40c787b3          	sub	a5,a5,a2
/home/hqfang/workspace/software/riscv-gnu-toolchain/riscv-gcc/libgcc/libgcc2.c:413
80006340:	00f04c63          	bgtz	a5,80006358 <__lshrdi3+0x24>
/home/hqfang/workspace/software/riscv-gnu-toolchain/riscv-gcc/libgcc/libgcc2.c:416
80006344:	fe060513          	addi	a0,a2,-32
/home/hqfang/workspace/software/riscv-gnu-toolchain/riscv-gcc/libgcc/libgcc2.c:415
80006348:	00000713          	li	a4,0
/home/hqfang/workspace/software/riscv-gnu-toolchain/riscv-gcc/libgcc/libgcc2.c:416
8000634c:	00a5d533          	srl	a0,a1,a0
/home/hqfang/workspace/software/riscv-gnu-toolchain/riscv-gcc/libgcc/libgcc2.c:426
80006350:	00070593          	mv	a1,a4
/home/hqfang/workspace/software/riscv-gnu-toolchain/riscv-gcc/libgcc/libgcc2.c:427
80006354:	00008067          	ret
/home/hqfang/workspace/software/riscv-gnu-toolchain/riscv-gcc/libgcc/libgcc2.c:422
80006358:	00c5d733          	srl	a4,a1,a2
/home/hqfang/workspace/software/riscv-gnu-toolchain/riscv-gcc/libgcc/libgcc2.c:423
8000635c:	00c55533          	srl	a0,a0,a2
/home/hqfang/workspace/software/riscv-gnu-toolchain/riscv-gcc/libgcc/libgcc2.c:420
80006360:	00f595b3          	sll	a1,a1,a5
/home/hqfang/workspace/software/riscv-gnu-toolchain/riscv-gcc/libgcc/libgcc2.c:423
80006364:	00b56533          	or	a0,a0,a1
80006368:	fe9ff06f          	j	80006350 <__lshrdi3+0x1c>

8000636c <__ashldi3>:
__ashldi3():
/home/hqfang/workspace/software/riscv-gnu-toolchain/riscv-gcc/libgcc/libgcc2.c:434
8000636c:	02060063          	beqz	a2,8000638c <__ashldi3+0x20>
/home/hqfang/workspace/software/riscv-gnu-toolchain/riscv-gcc/libgcc/libgcc2.c:438
80006370:	02000793          	li	a5,32
80006374:	40c787b3          	sub	a5,a5,a2
/home/hqfang/workspace/software/riscv-gnu-toolchain/riscv-gcc/libgcc/libgcc2.c:441
80006378:	00f04c63          	bgtz	a5,80006390 <__ashldi3+0x24>
/home/hqfang/workspace/software/riscv-gnu-toolchain/riscv-gcc/libgcc/libgcc2.c:444
8000637c:	fe060593          	addi	a1,a2,-32
/home/hqfang/workspace/software/riscv-gnu-toolchain/riscv-gcc/libgcc/libgcc2.c:443
80006380:	00000713          	li	a4,0
/home/hqfang/workspace/software/riscv-gnu-toolchain/riscv-gcc/libgcc/libgcc2.c:444
80006384:	00b515b3          	sll	a1,a0,a1
/home/hqfang/workspace/software/riscv-gnu-toolchain/riscv-gcc/libgcc/libgcc2.c:454
80006388:	00070513          	mv	a0,a4
/home/hqfang/workspace/software/riscv-gnu-toolchain/riscv-gcc/libgcc/libgcc2.c:455
8000638c:	00008067          	ret
/home/hqfang/workspace/software/riscv-gnu-toolchain/riscv-gcc/libgcc/libgcc2.c:450
80006390:	00c51733          	sll	a4,a0,a2
/home/hqfang/workspace/software/riscv-gnu-toolchain/riscv-gcc/libgcc/libgcc2.c:451
80006394:	00c595b3          	sll	a1,a1,a2
/home/hqfang/workspace/software/riscv-gnu-toolchain/riscv-gcc/libgcc/libgcc2.c:448
80006398:	00f55533          	srl	a0,a0,a5
/home/hqfang/workspace/software/riscv-gnu-toolchain/riscv-gcc/libgcc/libgcc2.c:451
8000639c:	00a5e5b3          	or	a1,a1,a0
800063a0:	fe9ff06f          	j	80006388 <__ashldi3+0x1c>

800063a4 <__clzsi2>:
__clzsi2():
/home/hqfang/workspace/software/riscv-gnu-toolchain/riscv-gcc/libgcc/libgcc2.c:710
800063a4:	000107b7          	lui	a5,0x10
800063a8:	02f57a63          	bgeu	a0,a5,800063dc <__clzsi2+0x38>
/home/hqfang/workspace/software/riscv-gnu-toolchain/riscv-gcc/libgcc/libgcc2.c:710 (discriminator 3)
800063ac:	0ff00793          	li	a5,255
800063b0:	00a7b7b3          	sltu	a5,a5,a0
800063b4:	00379793          	slli	a5,a5,0x3
/home/hqfang/workspace/software/riscv-gnu-toolchain/riscv-gcc/libgcc/libgcc2.c:710 (discriminator 14)
800063b8:	02000713          	li	a4,32
800063bc:	40f70733          	sub	a4,a4,a5
800063c0:	00f55533          	srl	a0,a0,a5
800063c4:	00008797          	auipc	a5,0x8
800063c8:	81878793          	addi	a5,a5,-2024 # 8000dbdc <__clz_tab>
800063cc:	00a78533          	add	a0,a5,a0
800063d0:	00054503          	lbu	a0,0(a0)
/home/hqfang/workspace/software/riscv-gnu-toolchain/riscv-gcc/libgcc/libgcc2.c:713 (discriminator 14)
800063d4:	40a70533          	sub	a0,a4,a0
800063d8:	00008067          	ret
/home/hqfang/workspace/software/riscv-gnu-toolchain/riscv-gcc/libgcc/libgcc2.c:710 (discriminator 4)
800063dc:	01000737          	lui	a4,0x1000
800063e0:	01000793          	li	a5,16
800063e4:	fce56ae3          	bltu	a0,a4,800063b8 <__clzsi2+0x14>
/home/hqfang/workspace/software/riscv-gnu-toolchain/riscv-gcc/libgcc/libgcc2.c:710
800063e8:	01800793          	li	a5,24
800063ec:	fcdff06f          	j	800063b8 <__clzsi2+0x14>

800063f0 <atexit>:
atexit():
800063f0:	00050593          	mv	a1,a0
800063f4:	00000693          	li	a3,0
800063f8:	00000613          	li	a2,0
800063fc:	00000513          	li	a0,0
80006400:	5ac0106f          	j	800079ac <__register_exitproc>

80006404 <__errno>:
__errno():
80006404:	80c1a503          	lw	a0,-2036(gp) # 900001dc <_impure_ptr>
80006408:	00008067          	ret

8000640c <__libc_fini_array>:
__libc_fini_array():
8000640c:	ff010113          	addi	sp,sp,-16
80006410:	00812423          	sw	s0,8(sp)
80006414:	00912223          	sw	s1,4(sp)
80006418:	00008417          	auipc	s0,0x8
8000641c:	d7440413          	addi	s0,s0,-652 # 8000e18c <__fsymtab_end>
80006420:	00008497          	auipc	s1,0x8
80006424:	d6c48493          	addi	s1,s1,-660 # 8000e18c <__fsymtab_end>
80006428:	40940433          	sub	s0,s0,s1
8000642c:	00112623          	sw	ra,12(sp)
80006430:	40245413          	srai	s0,s0,0x2
80006434:	00041c63          	bnez	s0,8000644c <__libc_fini_array+0x40>
80006438:	00c12083          	lw	ra,12(sp)
8000643c:	00812403          	lw	s0,8(sp)
80006440:	00412483          	lw	s1,4(sp)
80006444:	01010113          	addi	sp,sp,16
80006448:	00008067          	ret
8000644c:	fff40413          	addi	s0,s0,-1
80006450:	00241793          	slli	a5,s0,0x2
80006454:	00f487b3          	add	a5,s1,a5
80006458:	0007a783          	lw	a5,0(a5)
8000645c:	000780e7          	jalr	a5
80006460:	fd5ff06f          	j	80006434 <__libc_fini_array+0x28>

80006464 <__libc_init_array>:
__libc_init_array():
80006464:	ff010113          	addi	sp,sp,-16
80006468:	00812423          	sw	s0,8(sp)
8000646c:	00912223          	sw	s1,4(sp)
80006470:	00008417          	auipc	s0,0x8
80006474:	d1c40413          	addi	s0,s0,-740 # 8000e18c <__fsymtab_end>
80006478:	00008497          	auipc	s1,0x8
8000647c:	d1448493          	addi	s1,s1,-748 # 8000e18c <__fsymtab_end>
80006480:	408484b3          	sub	s1,s1,s0
80006484:	01212023          	sw	s2,0(sp)
80006488:	00112623          	sw	ra,12(sp)
8000648c:	4024d493          	srai	s1,s1,0x2
80006490:	00000913          	li	s2,0
80006494:	02991e63          	bne	s2,s1,800064d0 <__libc_init_array+0x6c>
80006498:	00008417          	auipc	s0,0x8
8000649c:	cf440413          	addi	s0,s0,-780 # 8000e18c <__fsymtab_end>
800064a0:	00008497          	auipc	s1,0x8
800064a4:	cec48493          	addi	s1,s1,-788 # 8000e18c <__fsymtab_end>
800064a8:	408484b3          	sub	s1,s1,s0
800064ac:	4024d493          	srai	s1,s1,0x2
800064b0:	00000913          	li	s2,0
800064b4:	02991863          	bne	s2,s1,800064e4 <__libc_init_array+0x80>
800064b8:	00c12083          	lw	ra,12(sp)
800064bc:	00812403          	lw	s0,8(sp)
800064c0:	00412483          	lw	s1,4(sp)
800064c4:	00012903          	lw	s2,0(sp)
800064c8:	01010113          	addi	sp,sp,16
800064cc:	00008067          	ret
800064d0:	00042783          	lw	a5,0(s0)
800064d4:	00190913          	addi	s2,s2,1
800064d8:	00440413          	addi	s0,s0,4
800064dc:	000780e7          	jalr	a5
800064e0:	fb5ff06f          	j	80006494 <__libc_init_array+0x30>
800064e4:	00042783          	lw	a5,0(s0)
800064e8:	00190913          	addi	s2,s2,1
800064ec:	00440413          	addi	s0,s0,4
800064f0:	000780e7          	jalr	a5
800064f4:	fc1ff06f          	j	800064b4 <__libc_init_array+0x50>

800064f8 <__cvt>:
__cvt():
800064f8:	fd010113          	addi	sp,sp,-48
800064fc:	02812423          	sw	s0,40(sp)
80006500:	03212023          	sw	s2,32(sp)
80006504:	01412c23          	sw	s4,24(sp)
80006508:	01512a23          	sw	s5,20(sp)
8000650c:	01612823          	sw	s6,16(sp)
80006510:	02112623          	sw	ra,44(sp)
80006514:	02912223          	sw	s1,36(sp)
80006518:	01312e23          	sw	s3,28(sp)
8000651c:	00070b13          	mv	s6,a4
80006520:	00058a13          	mv	s4,a1
80006524:	00060413          	mv	s0,a2
80006528:	00068913          	mv	s2,a3
8000652c:	00080a93          	mv	s5,a6
80006530:	00000713          	li	a4,0
80006534:	00065863          	bgez	a2,80006544 <__cvt+0x4c>
80006538:	80000737          	lui	a4,0x80000
8000653c:	00c74433          	xor	s0,a4,a2
80006540:	02d00713          	li	a4,45
80006544:	00e78023          	sb	a4,0(a5)
80006548:	fdf8f493          	andi	s1,a7,-33
8000654c:	04600793          	li	a5,70
80006550:	00300693          	li	a3,3
80006554:	00f48a63          	beq	s1,a5,80006568 <__cvt+0x70>
80006558:	04500793          	li	a5,69
8000655c:	00200693          	li	a3,2
80006560:	00f49463          	bne	s1,a5,80006568 <__cvt+0x70>
80006564:	00190913          	addi	s2,s2,1
80006568:	000a8793          	mv	a5,s5
8000656c:	00c10893          	addi	a7,sp,12
80006570:	00810813          	addi	a6,sp,8
80006574:	00090713          	mv	a4,s2
80006578:	000a0593          	mv	a1,s4
8000657c:	00040613          	mv	a2,s0
80006580:	698010ef          	jal	ra,80007c18 <_dtoa_r>
80006584:	04700793          	li	a5,71
80006588:	00050993          	mv	s3,a0
8000658c:	00f49663          	bne	s1,a5,80006598 <__cvt+0xa0>
80006590:	001b7b13          	andi	s6,s6,1
80006594:	060b0863          	beqz	s6,80006604 <__cvt+0x10c>
80006598:	04600793          	li	a5,70
8000659c:	01298b33          	add	s6,s3,s2
800065a0:	02f49e63          	bne	s1,a5,800065dc <__cvt+0xe4>
800065a4:	0009c703          	lbu	a4,0(s3)
800065a8:	03000793          	li	a5,48
800065ac:	02f71463          	bne	a4,a5,800065d4 <__cvt+0xdc>
800065b0:	00000613          	li	a2,0
800065b4:	00000693          	li	a3,0
800065b8:	000a0513          	mv	a0,s4
800065bc:	00040593          	mv	a1,s0
800065c0:	11d050ef          	jal	ra,8000bedc <__eqdf2>
800065c4:	00050863          	beqz	a0,800065d4 <__cvt+0xdc>
800065c8:	00100693          	li	a3,1
800065cc:	41268933          	sub	s2,a3,s2
800065d0:	012aa023          	sw	s2,0(s5)
800065d4:	000aa783          	lw	a5,0(s5)
800065d8:	00fb0b33          	add	s6,s6,a5
800065dc:	00000613          	li	a2,0
800065e0:	00000693          	li	a3,0
800065e4:	000a0513          	mv	a0,s4
800065e8:	00040593          	mv	a1,s0
800065ec:	0f1050ef          	jal	ra,8000bedc <__eqdf2>
800065f0:	00051463          	bnez	a0,800065f8 <__cvt+0x100>
800065f4:	01612623          	sw	s6,12(sp)
800065f8:	03000713          	li	a4,48
800065fc:	00c12783          	lw	a5,12(sp)
80006600:	0567e063          	bltu	a5,s6,80006640 <__cvt+0x148>
80006604:	00c12783          	lw	a5,12(sp)
80006608:	03012703          	lw	a4,48(sp)
8000660c:	02c12083          	lw	ra,44(sp)
80006610:	02812403          	lw	s0,40(sp)
80006614:	413787b3          	sub	a5,a5,s3
80006618:	00f72023          	sw	a5,0(a4) # 80000000 <_sp+0xefff0000>
8000661c:	02412483          	lw	s1,36(sp)
80006620:	02012903          	lw	s2,32(sp)
80006624:	01812a03          	lw	s4,24(sp)
80006628:	01412a83          	lw	s5,20(sp)
8000662c:	01012b03          	lw	s6,16(sp)
80006630:	00098513          	mv	a0,s3
80006634:	01c12983          	lw	s3,28(sp)
80006638:	03010113          	addi	sp,sp,48
8000663c:	00008067          	ret
80006640:	00178693          	addi	a3,a5,1
80006644:	00d12623          	sw	a3,12(sp)
80006648:	00e78023          	sb	a4,0(a5)
8000664c:	fb1ff06f          	j	800065fc <__cvt+0x104>

80006650 <__exponent>:
__exponent():
80006650:	00c50023          	sb	a2,0(a0)
80006654:	00250793          	addi	a5,a0,2
80006658:	02b00713          	li	a4,43
8000665c:	0005d663          	bgez	a1,80006668 <__exponent+0x18>
80006660:	40b005b3          	neg	a1,a1
80006664:	02d00713          	li	a4,45
80006668:	00e500a3          	sb	a4,1(a0)
8000666c:	00900713          	li	a4,9
80006670:	08b75263          	bge	a4,a1,800066f4 <__exponent+0xa4>
80006674:	ff010113          	addi	sp,sp,-16
80006678:	00f10713          	addi	a4,sp,15
8000667c:	00070813          	mv	a6,a4
80006680:	00a00893          	li	a7,10
80006684:	06300313          	li	t1,99
80006688:	0315e633          	rem	a2,a1,a7
8000668c:	00070693          	mv	a3,a4
80006690:	fff70713          	addi	a4,a4,-1
80006694:	03060613          	addi	a2,a2,48
80006698:	fec68fa3          	sb	a2,-1(a3) # 3ffffff <__stack_size+0x3fff7ff>
8000669c:	00058613          	mv	a2,a1
800066a0:	0315c5b3          	div	a1,a1,a7
800066a4:	fec342e3          	blt	t1,a2,80006688 <__exponent+0x38>
800066a8:	ffe68893          	addi	a7,a3,-2
800066ac:	03058593          	addi	a1,a1,48 # 4000030 <__stack_size+0x3fff830>
800066b0:	feb70fa3          	sb	a1,-1(a4)
800066b4:	00078613          	mv	a2,a5
800066b8:	00088713          	mv	a4,a7
800066bc:	03076263          	bltu	a4,a6,800066e0 <__exponent+0x90>
800066c0:	00000713          	li	a4,0
800066c4:	01186663          	bltu	a6,a7,800066d0 <__exponent+0x80>
800066c8:	01110713          	addi	a4,sp,17
800066cc:	40d70733          	sub	a4,a4,a3
800066d0:	00e787b3          	add	a5,a5,a4
800066d4:	40a78533          	sub	a0,a5,a0
800066d8:	01010113          	addi	sp,sp,16
800066dc:	00008067          	ret
800066e0:	00074583          	lbu	a1,0(a4)
800066e4:	00170713          	addi	a4,a4,1
800066e8:	00160613          	addi	a2,a2,1
800066ec:	feb60fa3          	sb	a1,-1(a2)
800066f0:	fcdff06f          	j	800066bc <__exponent+0x6c>
800066f4:	03000793          	li	a5,48
800066f8:	00f50123          	sb	a5,2(a0)
800066fc:	03058593          	addi	a1,a1,48
80006700:	00450793          	addi	a5,a0,4
80006704:	00b501a3          	sb	a1,3(a0)
80006708:	40a78533          	sub	a0,a5,a0
8000670c:	00008067          	ret

80006710 <_printf_float>:
_printf_float():
80006710:	f9010113          	addi	sp,sp,-112
80006714:	06112623          	sw	ra,108(sp)
80006718:	06812423          	sw	s0,104(sp)
8000671c:	06912223          	sw	s1,100(sp)
80006720:	00058413          	mv	s0,a1
80006724:	07212023          	sw	s2,96(sp)
80006728:	05312e23          	sw	s3,92(sp)
8000672c:	05412c23          	sw	s4,88(sp)
80006730:	05512a23          	sw	s5,84(sp)
80006734:	00070a13          	mv	s4,a4
80006738:	05612823          	sw	s6,80(sp)
8000673c:	05712623          	sw	s7,76(sp)
80006740:	05812423          	sw	s8,72(sp)
80006744:	00060913          	mv	s2,a2
80006748:	00068993          	mv	s3,a3
8000674c:	05912223          	sw	s9,68(sp)
80006750:	05a12023          	sw	s10,64(sp)
80006754:	03b12e23          	sw	s11,60(sp)
80006758:	00050493          	mv	s1,a0
8000675c:	48d020ef          	jal	ra,800093e8 <_localeconv_r>
80006760:	00052c03          	lw	s8,0(a0)
80006764:	000c0513          	mv	a0,s8
80006768:	779000ef          	jal	ra,800076e0 <strlen>
8000676c:	00042b03          	lw	s6,0(s0)
80006770:	02012423          	sw	zero,40(sp)
80006774:	01844a83          	lbu	s5,24(s0)
80006778:	100b7713          	andi	a4,s6,256
8000677c:	000a2783          	lw	a5,0(s4)
80006780:	00050b93          	mv	s7,a0
80006784:	14070663          	beqz	a4,800068d0 <_printf_float+0x1c0>
80006788:	00478713          	addi	a4,a5,4
8000678c:	00ea2023          	sw	a4,0(s4)
80006790:	0007a783          	lw	a5,0(a5)
80006794:	01010513          	addi	a0,sp,16
80006798:	0007a703          	lw	a4,0(a5)
8000679c:	00e12823          	sw	a4,16(sp)
800067a0:	0047a703          	lw	a4,4(a5)
800067a4:	00e12a23          	sw	a4,20(sp)
800067a8:	0087a703          	lw	a4,8(a5)
800067ac:	00e12c23          	sw	a4,24(sp)
800067b0:	00c7a783          	lw	a5,12(a5)
800067b4:	00f12e23          	sw	a5,28(sp)
800067b8:	125060ef          	jal	ra,8000d0dc <__trunctfdf2>
800067bc:	04a42423          	sw	a0,72(s0)
800067c0:	04b42623          	sw	a1,76(s0)
800067c4:	04c42c83          	lw	s9,76(s0)
800067c8:	0fffa797          	auipc	a5,0xfffa
800067cc:	a1878793          	addi	a5,a5,-1512 # 900001e0 <_impure_ptr+0x4>
800067d0:	04842d83          	lw	s11,72(s0)
800067d4:	0007a803          	lw	a6,0(a5)
800067d8:	0047a883          	lw	a7,4(a5)
800067dc:	001c9a13          	slli	s4,s9,0x1
800067e0:	001a5a13          	srli	s4,s4,0x1
800067e4:	00080613          	mv	a2,a6
800067e8:	00088693          	mv	a3,a7
800067ec:	000d8513          	mv	a0,s11
800067f0:	000a0593          	mv	a1,s4
800067f4:	6f4060ef          	jal	ra,8000cee8 <__unorddf2>
800067f8:	0e051e63          	bnez	a0,800068f4 <_printf_float+0x1e4>
800067fc:	0fffa797          	auipc	a5,0xfffa
80006800:	9e478793          	addi	a5,a5,-1564 # 900001e0 <_impure_ptr+0x4>
80006804:	0007a803          	lw	a6,0(a5)
80006808:	0047a883          	lw	a7,4(a5)
8000680c:	000d8513          	mv	a0,s11
80006810:	00080613          	mv	a2,a6
80006814:	00088693          	mv	a3,a7
80006818:	000a0593          	mv	a1,s4
8000681c:	031050ef          	jal	ra,8000c04c <__ledf2>
80006820:	0ca05a63          	blez	a0,800068f4 <_printf_float+0x1e4>
80006824:	00000613          	li	a2,0
80006828:	00000693          	li	a3,0
8000682c:	000d8513          	mv	a0,s11
80006830:	000c8593          	mv	a1,s9
80006834:	019050ef          	jal	ra,8000c04c <__ledf2>
80006838:	00055663          	bgez	a0,80006844 <_printf_float+0x134>
8000683c:	02d00793          	li	a5,45
80006840:	04f401a3          	sb	a5,67(s0)
80006844:	04700793          	li	a5,71
80006848:	00007a17          	auipc	s4,0x7
8000684c:	494a0a13          	addi	s4,s4,1172 # 8000dcdc <__clz_tab+0x100>
80006850:	0157f663          	bgeu	a5,s5,8000685c <_printf_float+0x14c>
80006854:	00007a17          	auipc	s4,0x7
80006858:	48ca0a13          	addi	s4,s4,1164 # 8000dce0 <__clz_tab+0x104>
8000685c:	ffbb7b13          	andi	s6,s6,-5
80006860:	00300793          	li	a5,3
80006864:	01642023          	sw	s6,0(s0)
80006868:	00f42823          	sw	a5,16(s0)
8000686c:	00000b13          	li	s6,0
80006870:	00098713          	mv	a4,s3
80006874:	00090693          	mv	a3,s2
80006878:	02c10613          	addi	a2,sp,44
8000687c:	00040593          	mv	a1,s0
80006880:	00048513          	mv	a0,s1
80006884:	624000ef          	jal	ra,80006ea8 <_printf_common>
80006888:	fff00c93          	li	s9,-1
8000688c:	23951263          	bne	a0,s9,80006ab0 <_printf_float+0x3a0>
80006890:	fff00513          	li	a0,-1
80006894:	06c12083          	lw	ra,108(sp)
80006898:	06812403          	lw	s0,104(sp)
8000689c:	06412483          	lw	s1,100(sp)
800068a0:	06012903          	lw	s2,96(sp)
800068a4:	05c12983          	lw	s3,92(sp)
800068a8:	05812a03          	lw	s4,88(sp)
800068ac:	05412a83          	lw	s5,84(sp)
800068b0:	05012b03          	lw	s6,80(sp)
800068b4:	04c12b83          	lw	s7,76(sp)
800068b8:	04812c03          	lw	s8,72(sp)
800068bc:	04412c83          	lw	s9,68(sp)
800068c0:	04012d03          	lw	s10,64(sp)
800068c4:	03c12d83          	lw	s11,60(sp)
800068c8:	07010113          	addi	sp,sp,112
800068cc:	00008067          	ret
800068d0:	00778793          	addi	a5,a5,7
800068d4:	ff87f793          	andi	a5,a5,-8
800068d8:	00878713          	addi	a4,a5,8
800068dc:	00ea2023          	sw	a4,0(s4)
800068e0:	0007a703          	lw	a4,0(a5)
800068e4:	0047a783          	lw	a5,4(a5)
800068e8:	04e42423          	sw	a4,72(s0)
800068ec:	04f42623          	sw	a5,76(s0)
800068f0:	ed5ff06f          	j	800067c4 <_printf_float+0xb4>
800068f4:	000d8613          	mv	a2,s11
800068f8:	000c8693          	mv	a3,s9
800068fc:	000d8513          	mv	a0,s11
80006900:	000c8593          	mv	a1,s9
80006904:	5e4060ef          	jal	ra,8000cee8 <__unorddf2>
80006908:	02050663          	beqz	a0,80006934 <_printf_float+0x224>
8000690c:	000cd663          	bgez	s9,80006918 <_printf_float+0x208>
80006910:	02d00793          	li	a5,45
80006914:	04f401a3          	sb	a5,67(s0)
80006918:	04700793          	li	a5,71
8000691c:	00007a17          	auipc	s4,0x7
80006920:	3c8a0a13          	addi	s4,s4,968 # 8000dce4 <__clz_tab+0x108>
80006924:	f357fce3          	bgeu	a5,s5,8000685c <_printf_float+0x14c>
80006928:	00007a17          	auipc	s4,0x7
8000692c:	3c0a0a13          	addi	s4,s4,960 # 8000dce8 <__clz_tab+0x10c>
80006930:	f2dff06f          	j	8000685c <_printf_float+0x14c>
80006934:	00442783          	lw	a5,4(s0)
80006938:	fff00713          	li	a4,-1
8000693c:	0dfafd13          	andi	s10,s5,223
80006940:	0ce79263          	bne	a5,a4,80006a04 <_printf_float+0x2f4>
80006944:	00600793          	li	a5,6
80006948:	00f42223          	sw	a5,4(s0)
8000694c:	00442683          	lw	a3,4(s0)
80006950:	400b6713          	ori	a4,s6,1024
80006954:	02810793          	addi	a5,sp,40
80006958:	00f12023          	sw	a5,0(sp)
8000695c:	000d8593          	mv	a1,s11
80006960:	02310793          	addi	a5,sp,35
80006964:	00e42023          	sw	a4,0(s0)
80006968:	00012223          	sw	zero,4(sp)
8000696c:	000a8893          	mv	a7,s5
80006970:	02410813          	addi	a6,sp,36
80006974:	000c8613          	mv	a2,s9
80006978:	00048513          	mv	a0,s1
8000697c:	b7dff0ef          	jal	ra,800064f8 <__cvt>
80006980:	04700793          	li	a5,71
80006984:	02412583          	lw	a1,36(sp)
80006988:	00050a13          	mv	s4,a0
8000698c:	00fd1e63          	bne	s10,a5,800069a8 <_printf_float+0x298>
80006990:	ffd00793          	li	a5,-3
80006994:	00f5c663          	blt	a1,a5,800069a0 <_printf_float+0x290>
80006998:	00442783          	lw	a5,4(s0)
8000699c:	0cb7dc63          	bge	a5,a1,80006a74 <_printf_float+0x364>
800069a0:	ffea8a93          	addi	s5,s5,-2
800069a4:	0ffafa93          	andi	s5,s5,255
800069a8:	06500793          	li	a5,101
800069ac:	0757e663          	bltu	a5,s5,80006a18 <_printf_float+0x308>
800069b0:	fff58593          	addi	a1,a1,-1
800069b4:	000a8613          	mv	a2,s5
800069b8:	05040513          	addi	a0,s0,80
800069bc:	02b12223          	sw	a1,36(sp)
800069c0:	c91ff0ef          	jal	ra,80006650 <__exponent>
800069c4:	02812703          	lw	a4,40(sp)
800069c8:	00100693          	li	a3,1
800069cc:	00050b13          	mv	s6,a0
800069d0:	00a707b3          	add	a5,a4,a0
800069d4:	00f42823          	sw	a5,16(s0)
800069d8:	00e6c863          	blt	a3,a4,800069e8 <_printf_float+0x2d8>
800069dc:	00042703          	lw	a4,0(s0)
800069e0:	00177713          	andi	a4,a4,1
800069e4:	00070663          	beqz	a4,800069f0 <_printf_float+0x2e0>
800069e8:	00178793          	addi	a5,a5,1
800069ec:	00f42823          	sw	a5,16(s0)
800069f0:	02314783          	lbu	a5,35(sp)
800069f4:	e6078ee3          	beqz	a5,80006870 <_printf_float+0x160>
800069f8:	02d00793          	li	a5,45
800069fc:	04f401a3          	sb	a5,67(s0)
80006a00:	e71ff06f          	j	80006870 <_printf_float+0x160>
80006a04:	04700713          	li	a4,71
80006a08:	f4ed12e3          	bne	s10,a4,8000694c <_printf_float+0x23c>
80006a0c:	f40790e3          	bnez	a5,8000694c <_printf_float+0x23c>
80006a10:	00100793          	li	a5,1
80006a14:	f35ff06f          	j	80006948 <_printf_float+0x238>
80006a18:	06600793          	li	a5,102
80006a1c:	04fa9e63          	bne	s5,a5,80006a78 <_printf_float+0x368>
80006a20:	00442783          	lw	a5,4(s0)
80006a24:	02b05463          	blez	a1,80006a4c <_printf_float+0x33c>
80006a28:	00b42823          	sw	a1,16(s0)
80006a2c:	00079863          	bnez	a5,80006a3c <_printf_float+0x32c>
80006a30:	00042703          	lw	a4,0(s0)
80006a34:	00177713          	andi	a4,a4,1
80006a38:	02070863          	beqz	a4,80006a68 <_printf_float+0x358>
80006a3c:	00178793          	addi	a5,a5,1
80006a40:	00b787b3          	add	a5,a5,a1
80006a44:	00f42823          	sw	a5,16(s0)
80006a48:	0200006f          	j	80006a68 <_printf_float+0x358>
80006a4c:	00079a63          	bnez	a5,80006a60 <_printf_float+0x350>
80006a50:	00042703          	lw	a4,0(s0)
80006a54:	00100693          	li	a3,1
80006a58:	00177713          	andi	a4,a4,1
80006a5c:	00070463          	beqz	a4,80006a64 <_printf_float+0x354>
80006a60:	00278693          	addi	a3,a5,2
80006a64:	00d42823          	sw	a3,16(s0)
80006a68:	04b42c23          	sw	a1,88(s0)
80006a6c:	00000b13          	li	s6,0
80006a70:	f81ff06f          	j	800069f0 <_printf_float+0x2e0>
80006a74:	06700a93          	li	s5,103
80006a78:	02812783          	lw	a5,40(sp)
80006a7c:	00f5ce63          	blt	a1,a5,80006a98 <_printf_float+0x388>
80006a80:	00042783          	lw	a5,0(s0)
80006a84:	00b42823          	sw	a1,16(s0)
80006a88:	0017f793          	andi	a5,a5,1
80006a8c:	fc078ee3          	beqz	a5,80006a68 <_printf_float+0x358>
80006a90:	00158793          	addi	a5,a1,1
80006a94:	fb1ff06f          	j	80006a44 <_printf_float+0x334>
80006a98:	00100713          	li	a4,1
80006a9c:	00b04663          	bgtz	a1,80006aa8 <_printf_float+0x398>
80006aa0:	00200713          	li	a4,2
80006aa4:	40b70733          	sub	a4,a4,a1
80006aa8:	00e787b3          	add	a5,a5,a4
80006aac:	f99ff06f          	j	80006a44 <_printf_float+0x334>
80006ab0:	00042783          	lw	a5,0(s0)
80006ab4:	4007f713          	andi	a4,a5,1024
80006ab8:	02071e63          	bnez	a4,80006af4 <_printf_float+0x3e4>
80006abc:	01042683          	lw	a3,16(s0)
80006ac0:	000a0613          	mv	a2,s4
80006ac4:	00090593          	mv	a1,s2
80006ac8:	00048513          	mv	a0,s1
80006acc:	000980e7          	jalr	s3
80006ad0:	dd9500e3          	beq	a0,s9,80006890 <_printf_float+0x180>
80006ad4:	00042783          	lw	a5,0(s0)
80006ad8:	0027f793          	andi	a5,a5,2
80006adc:	3a079e63          	bnez	a5,80006e98 <_printf_float+0x788>
80006ae0:	02c12783          	lw	a5,44(sp)
80006ae4:	00c42503          	lw	a0,12(s0)
80006ae8:	daf556e3          	bge	a0,a5,80006894 <_printf_float+0x184>
80006aec:	00078513          	mv	a0,a5
80006af0:	da5ff06f          	j	80006894 <_printf_float+0x184>
80006af4:	06500713          	li	a4,101
80006af8:	29577863          	bgeu	a4,s5,80006d88 <_printf_float+0x678>
80006afc:	04842503          	lw	a0,72(s0)
80006b00:	04c42583          	lw	a1,76(s0)
80006b04:	00000613          	li	a2,0
80006b08:	00000693          	li	a3,0
80006b0c:	3d0050ef          	jal	ra,8000bedc <__eqdf2>
80006b10:	08051663          	bnez	a0,80006b9c <_printf_float+0x48c>
80006b14:	00100693          	li	a3,1
80006b18:	00007617          	auipc	a2,0x7
80006b1c:	1d460613          	addi	a2,a2,468 # 8000dcec <__clz_tab+0x110>
80006b20:	00090593          	mv	a1,s2
80006b24:	00048513          	mv	a0,s1
80006b28:	000980e7          	jalr	s3
80006b2c:	d79502e3          	beq	a0,s9,80006890 <_printf_float+0x180>
80006b30:	02412703          	lw	a4,36(sp)
80006b34:	02812783          	lw	a5,40(sp)
80006b38:	00f74863          	blt	a4,a5,80006b48 <_printf_float+0x438>
80006b3c:	00042783          	lw	a5,0(s0)
80006b40:	0017f793          	andi	a5,a5,1
80006b44:	f80788e3          	beqz	a5,80006ad4 <_printf_float+0x3c4>
80006b48:	000b8693          	mv	a3,s7
80006b4c:	000c0613          	mv	a2,s8
80006b50:	00090593          	mv	a1,s2
80006b54:	00048513          	mv	a0,s1
80006b58:	000980e7          	jalr	s3
80006b5c:	fff00793          	li	a5,-1
80006b60:	d2f508e3          	beq	a0,a5,80006890 <_printf_float+0x180>
80006b64:	00000a13          	li	s4,0
80006b68:	01a40a93          	addi	s5,s0,26
80006b6c:	fff00b13          	li	s6,-1
80006b70:	02812783          	lw	a5,40(sp)
80006b74:	fff78793          	addi	a5,a5,-1
80006b78:	f4fa5ee3          	bge	s4,a5,80006ad4 <_printf_float+0x3c4>
80006b7c:	00100693          	li	a3,1
80006b80:	000a8613          	mv	a2,s5
80006b84:	00090593          	mv	a1,s2
80006b88:	00048513          	mv	a0,s1
80006b8c:	000980e7          	jalr	s3
80006b90:	d16500e3          	beq	a0,s6,80006890 <_printf_float+0x180>
80006b94:	001a0a13          	addi	s4,s4,1
80006b98:	fd9ff06f          	j	80006b70 <_printf_float+0x460>
80006b9c:	02412783          	lw	a5,36(sp)
80006ba0:	0af04863          	bgtz	a5,80006c50 <_printf_float+0x540>
80006ba4:	00100693          	li	a3,1
80006ba8:	00007617          	auipc	a2,0x7
80006bac:	14460613          	addi	a2,a2,324 # 8000dcec <__clz_tab+0x110>
80006bb0:	00090593          	mv	a1,s2
80006bb4:	00048513          	mv	a0,s1
80006bb8:	000980e7          	jalr	s3
80006bbc:	cd950ae3          	beq	a0,s9,80006890 <_printf_float+0x180>
80006bc0:	02412783          	lw	a5,36(sp)
80006bc4:	02812703          	lw	a4,40(sp)
80006bc8:	00e7e7b3          	or	a5,a5,a4
80006bcc:	00079863          	bnez	a5,80006bdc <_printf_float+0x4cc>
80006bd0:	00042783          	lw	a5,0(s0)
80006bd4:	0017f793          	andi	a5,a5,1
80006bd8:	ee078ee3          	beqz	a5,80006ad4 <_printf_float+0x3c4>
80006bdc:	000b8693          	mv	a3,s7
80006be0:	000c0613          	mv	a2,s8
80006be4:	00090593          	mv	a1,s2
80006be8:	00048513          	mv	a0,s1
80006bec:	000980e7          	jalr	s3
80006bf0:	fff00793          	li	a5,-1
80006bf4:	c8f50ee3          	beq	a0,a5,80006890 <_printf_float+0x180>
80006bf8:	00000a93          	li	s5,0
80006bfc:	01a40b13          	addi	s6,s0,26
80006c00:	fff00b93          	li	s7,-1
80006c04:	02412783          	lw	a5,36(sp)
80006c08:	40f007b3          	neg	a5,a5
80006c0c:	02fac263          	blt	s5,a5,80006c30 <_printf_float+0x520>
80006c10:	02812683          	lw	a3,40(sp)
80006c14:	000a0613          	mv	a2,s4
80006c18:	00090593          	mv	a1,s2
80006c1c:	00048513          	mv	a0,s1
80006c20:	000980e7          	jalr	s3
80006c24:	fff00793          	li	a5,-1
80006c28:	eaf516e3          	bne	a0,a5,80006ad4 <_printf_float+0x3c4>
80006c2c:	c65ff06f          	j	80006890 <_printf_float+0x180>
80006c30:	00100693          	li	a3,1
80006c34:	000b0613          	mv	a2,s6
80006c38:	00090593          	mv	a1,s2
80006c3c:	00048513          	mv	a0,s1
80006c40:	000980e7          	jalr	s3
80006c44:	c57506e3          	beq	a0,s7,80006890 <_printf_float+0x180>
80006c48:	001a8a93          	addi	s5,s5,1
80006c4c:	fb9ff06f          	j	80006c04 <_printf_float+0x4f4>
80006c50:	05842783          	lw	a5,88(s0)
80006c54:	02812a83          	lw	s5,40(sp)
80006c58:	0157d463          	bge	a5,s5,80006c60 <_printf_float+0x550>
80006c5c:	00078a93          	mv	s5,a5
80006c60:	0b504463          	bgtz	s5,80006d08 <_printf_float+0x5f8>
80006c64:	00000b13          	li	s6,0
80006c68:	01a40d13          	addi	s10,s0,26
80006c6c:	fff00d93          	li	s11,-1
80006c70:	05842c83          	lw	s9,88(s0)
80006c74:	000a8793          	mv	a5,s5
80006c78:	000ad463          	bgez	s5,80006c80 <_printf_float+0x570>
80006c7c:	00000793          	li	a5,0
80006c80:	40fc87b3          	sub	a5,s9,a5
80006c84:	0afb4263          	blt	s6,a5,80006d28 <_printf_float+0x618>
80006c88:	02412703          	lw	a4,36(sp)
80006c8c:	02812783          	lw	a5,40(sp)
80006c90:	0af74c63          	blt	a4,a5,80006d48 <_printf_float+0x638>
80006c94:	00042783          	lw	a5,0(s0)
80006c98:	0017f793          	andi	a5,a5,1
80006c9c:	0a079663          	bnez	a5,80006d48 <_printf_float+0x638>
80006ca0:	02812a83          	lw	s5,40(sp)
80006ca4:	02412703          	lw	a4,36(sp)
80006ca8:	419a87b3          	sub	a5,s5,s9
80006cac:	40ea8ab3          	sub	s5,s5,a4
80006cb0:	0157d463          	bge	a5,s5,80006cb8 <_printf_float+0x5a8>
80006cb4:	00078a93          	mv	s5,a5
80006cb8:	0b504863          	bgtz	s5,80006d68 <_printf_float+0x658>
80006cbc:	00000a13          	li	s4,0
80006cc0:	01a40b13          	addi	s6,s0,26
80006cc4:	fff00b93          	li	s7,-1
80006cc8:	02412703          	lw	a4,36(sp)
80006ccc:	02812783          	lw	a5,40(sp)
80006cd0:	40e787b3          	sub	a5,a5,a4
80006cd4:	000a8713          	mv	a4,s5
80006cd8:	000ad463          	bgez	s5,80006ce0 <_printf_float+0x5d0>
80006cdc:	00000713          	li	a4,0
80006ce0:	40e787b3          	sub	a5,a5,a4
80006ce4:	defa58e3          	bge	s4,a5,80006ad4 <_printf_float+0x3c4>
80006ce8:	00100693          	li	a3,1
80006cec:	000b0613          	mv	a2,s6
80006cf0:	00090593          	mv	a1,s2
80006cf4:	00048513          	mv	a0,s1
80006cf8:	000980e7          	jalr	s3
80006cfc:	b9750ae3          	beq	a0,s7,80006890 <_printf_float+0x180>
80006d00:	001a0a13          	addi	s4,s4,1
80006d04:	fc5ff06f          	j	80006cc8 <_printf_float+0x5b8>
80006d08:	000a8693          	mv	a3,s5
80006d0c:	000a0613          	mv	a2,s4
80006d10:	00090593          	mv	a1,s2
80006d14:	00048513          	mv	a0,s1
80006d18:	000980e7          	jalr	s3
80006d1c:	fff00793          	li	a5,-1
80006d20:	f4f512e3          	bne	a0,a5,80006c64 <_printf_float+0x554>
80006d24:	b6dff06f          	j	80006890 <_printf_float+0x180>
80006d28:	00100693          	li	a3,1
80006d2c:	000d0613          	mv	a2,s10
80006d30:	00090593          	mv	a1,s2
80006d34:	00048513          	mv	a0,s1
80006d38:	000980e7          	jalr	s3
80006d3c:	b5b50ae3          	beq	a0,s11,80006890 <_printf_float+0x180>
80006d40:	001b0b13          	addi	s6,s6,1
80006d44:	f2dff06f          	j	80006c70 <_printf_float+0x560>
80006d48:	000b8693          	mv	a3,s7
80006d4c:	000c0613          	mv	a2,s8
80006d50:	00090593          	mv	a1,s2
80006d54:	00048513          	mv	a0,s1
80006d58:	000980e7          	jalr	s3
80006d5c:	fff00793          	li	a5,-1
80006d60:	f4f510e3          	bne	a0,a5,80006ca0 <_printf_float+0x590>
80006d64:	b2dff06f          	j	80006890 <_printf_float+0x180>
80006d68:	000a8693          	mv	a3,s5
80006d6c:	019a0633          	add	a2,s4,s9
80006d70:	00090593          	mv	a1,s2
80006d74:	00048513          	mv	a0,s1
80006d78:	000980e7          	jalr	s3
80006d7c:	fff00793          	li	a5,-1
80006d80:	f2f51ee3          	bne	a0,a5,80006cbc <_printf_float+0x5ac>
80006d84:	b0dff06f          	j	80006890 <_printf_float+0x180>
80006d88:	02812683          	lw	a3,40(sp)
80006d8c:	00100713          	li	a4,1
80006d90:	00d74663          	blt	a4,a3,80006d9c <_printf_float+0x68c>
80006d94:	0017f793          	andi	a5,a5,1
80006d98:	0a078a63          	beqz	a5,80006e4c <_printf_float+0x73c>
80006d9c:	00100693          	li	a3,1
80006da0:	000a0613          	mv	a2,s4
80006da4:	00090593          	mv	a1,s2
80006da8:	00048513          	mv	a0,s1
80006dac:	000980e7          	jalr	s3
80006db0:	fff00a93          	li	s5,-1
80006db4:	ad550ee3          	beq	a0,s5,80006890 <_printf_float+0x180>
80006db8:	000b8693          	mv	a3,s7
80006dbc:	000c0613          	mv	a2,s8
80006dc0:	00090593          	mv	a1,s2
80006dc4:	00048513          	mv	a0,s1
80006dc8:	000980e7          	jalr	s3
80006dcc:	ad5502e3          	beq	a0,s5,80006890 <_printf_float+0x180>
80006dd0:	04842503          	lw	a0,72(s0)
80006dd4:	04c42583          	lw	a1,76(s0)
80006dd8:	00000613          	li	a2,0
80006ddc:	00000693          	li	a3,0
80006de0:	0fc050ef          	jal	ra,8000bedc <__eqdf2>
80006de4:	04050c63          	beqz	a0,80006e3c <_printf_float+0x72c>
80006de8:	02812683          	lw	a3,40(sp)
80006dec:	001a0613          	addi	a2,s4,1
80006df0:	00090593          	mv	a1,s2
80006df4:	fff68693          	addi	a3,a3,-1
80006df8:	00048513          	mv	a0,s1
80006dfc:	000980e7          	jalr	s3
80006e00:	a95508e3          	beq	a0,s5,80006890 <_printf_float+0x180>
80006e04:	000b0693          	mv	a3,s6
80006e08:	05040613          	addi	a2,s0,80
80006e0c:	e0dff06f          	j	80006c18 <_printf_float+0x508>
80006e10:	00100693          	li	a3,1
80006e14:	000a8613          	mv	a2,s5
80006e18:	00090593          	mv	a1,s2
80006e1c:	00048513          	mv	a0,s1
80006e20:	000980e7          	jalr	s3
80006e24:	a77506e3          	beq	a0,s7,80006890 <_printf_float+0x180>
80006e28:	001a0a13          	addi	s4,s4,1
80006e2c:	02812783          	lw	a5,40(sp)
80006e30:	fff78793          	addi	a5,a5,-1
80006e34:	fcfa4ee3          	blt	s4,a5,80006e10 <_printf_float+0x700>
80006e38:	fcdff06f          	j	80006e04 <_printf_float+0x6f4>
80006e3c:	00000a13          	li	s4,0
80006e40:	01a40a93          	addi	s5,s0,26
80006e44:	fff00b93          	li	s7,-1
80006e48:	fe5ff06f          	j	80006e2c <_printf_float+0x71c>
80006e4c:	00100693          	li	a3,1
80006e50:	000a0613          	mv	a2,s4
80006e54:	00090593          	mv	a1,s2
80006e58:	00048513          	mv	a0,s1
80006e5c:	000980e7          	jalr	s3
80006e60:	fb9512e3          	bne	a0,s9,80006e04 <_printf_float+0x6f4>
80006e64:	a2dff06f          	j	80006890 <_printf_float+0x180>
80006e68:	00100693          	li	a3,1
80006e6c:	000a8613          	mv	a2,s5
80006e70:	00090593          	mv	a1,s2
80006e74:	00048513          	mv	a0,s1
80006e78:	000980e7          	jalr	s3
80006e7c:	a1650ae3          	beq	a0,s6,80006890 <_printf_float+0x180>
80006e80:	001a0a13          	addi	s4,s4,1
80006e84:	00c42783          	lw	a5,12(s0)
80006e88:	02c12703          	lw	a4,44(sp)
80006e8c:	40e787b3          	sub	a5,a5,a4
80006e90:	fcfa4ce3          	blt	s4,a5,80006e68 <_printf_float+0x758>
80006e94:	c4dff06f          	j	80006ae0 <_printf_float+0x3d0>
80006e98:	00000a13          	li	s4,0
80006e9c:	01940a93          	addi	s5,s0,25
80006ea0:	fff00b13          	li	s6,-1
80006ea4:	fe1ff06f          	j	80006e84 <_printf_float+0x774>

80006ea8 <_printf_common>:
_printf_common():
80006ea8:	fd010113          	addi	sp,sp,-48
80006eac:	01412c23          	sw	s4,24(sp)
80006eb0:	0105a783          	lw	a5,16(a1)
80006eb4:	00070a13          	mv	s4,a4
80006eb8:	0085a703          	lw	a4,8(a1)
80006ebc:	02812423          	sw	s0,40(sp)
80006ec0:	02912223          	sw	s1,36(sp)
80006ec4:	01312e23          	sw	s3,28(sp)
80006ec8:	01512a23          	sw	s5,20(sp)
80006ecc:	02112623          	sw	ra,44(sp)
80006ed0:	03212023          	sw	s2,32(sp)
80006ed4:	01612823          	sw	s6,16(sp)
80006ed8:	01712623          	sw	s7,12(sp)
80006edc:	00050993          	mv	s3,a0
80006ee0:	00058413          	mv	s0,a1
80006ee4:	00060493          	mv	s1,a2
80006ee8:	00068a93          	mv	s5,a3
80006eec:	00e7d463          	bge	a5,a4,80006ef4 <_printf_common+0x4c>
80006ef0:	00070793          	mv	a5,a4
80006ef4:	00f4a023          	sw	a5,0(s1)
80006ef8:	04344703          	lbu	a4,67(s0)
80006efc:	00070663          	beqz	a4,80006f08 <_printf_common+0x60>
80006f00:	00178793          	addi	a5,a5,1
80006f04:	00f4a023          	sw	a5,0(s1)
80006f08:	00042783          	lw	a5,0(s0)
80006f0c:	0207f793          	andi	a5,a5,32
80006f10:	00078863          	beqz	a5,80006f20 <_printf_common+0x78>
80006f14:	0004a783          	lw	a5,0(s1)
80006f18:	00278793          	addi	a5,a5,2
80006f1c:	00f4a023          	sw	a5,0(s1)
80006f20:	00042903          	lw	s2,0(s0)
80006f24:	00697913          	andi	s2,s2,6
80006f28:	00091e63          	bnez	s2,80006f44 <_printf_common+0x9c>
80006f2c:	01940b13          	addi	s6,s0,25
80006f30:	fff00b93          	li	s7,-1
80006f34:	00c42783          	lw	a5,12(s0)
80006f38:	0004a703          	lw	a4,0(s1)
80006f3c:	40e787b3          	sub	a5,a5,a4
80006f40:	08f94263          	blt	s2,a5,80006fc4 <_printf_common+0x11c>
80006f44:	04344783          	lbu	a5,67(s0)
80006f48:	00f036b3          	snez	a3,a5
80006f4c:	00042783          	lw	a5,0(s0)
80006f50:	0207f793          	andi	a5,a5,32
80006f54:	0c079063          	bnez	a5,80007014 <_printf_common+0x16c>
80006f58:	04340613          	addi	a2,s0,67
80006f5c:	000a8593          	mv	a1,s5
80006f60:	00098513          	mv	a0,s3
80006f64:	000a00e7          	jalr	s4
80006f68:	fff00793          	li	a5,-1
80006f6c:	06f50863          	beq	a0,a5,80006fdc <_printf_common+0x134>
80006f70:	00042783          	lw	a5,0(s0)
80006f74:	00400613          	li	a2,4
80006f78:	0004a703          	lw	a4,0(s1)
80006f7c:	0067f793          	andi	a5,a5,6
80006f80:	00c42683          	lw	a3,12(s0)
80006f84:	00000493          	li	s1,0
80006f88:	00c79863          	bne	a5,a2,80006f98 <_printf_common+0xf0>
80006f8c:	40e684b3          	sub	s1,a3,a4
80006f90:	0004d463          	bgez	s1,80006f98 <_printf_common+0xf0>
80006f94:	00000493          	li	s1,0
80006f98:	00842783          	lw	a5,8(s0)
80006f9c:	01042703          	lw	a4,16(s0)
80006fa0:	00f75663          	bge	a4,a5,80006fac <_printf_common+0x104>
80006fa4:	40e787b3          	sub	a5,a5,a4
80006fa8:	00f484b3          	add	s1,s1,a5
80006fac:	00000913          	li	s2,0
80006fb0:	01a40413          	addi	s0,s0,26
80006fb4:	fff00b13          	li	s6,-1
80006fb8:	09249063          	bne	s1,s2,80007038 <_printf_common+0x190>
80006fbc:	00000513          	li	a0,0
80006fc0:	0200006f          	j	80006fe0 <_printf_common+0x138>
80006fc4:	00100693          	li	a3,1
80006fc8:	000b0613          	mv	a2,s6
80006fcc:	000a8593          	mv	a1,s5
80006fd0:	00098513          	mv	a0,s3
80006fd4:	000a00e7          	jalr	s4
80006fd8:	03751a63          	bne	a0,s7,8000700c <_printf_common+0x164>
80006fdc:	fff00513          	li	a0,-1
80006fe0:	02c12083          	lw	ra,44(sp)
80006fe4:	02812403          	lw	s0,40(sp)
80006fe8:	02412483          	lw	s1,36(sp)
80006fec:	02012903          	lw	s2,32(sp)
80006ff0:	01c12983          	lw	s3,28(sp)
80006ff4:	01812a03          	lw	s4,24(sp)
80006ff8:	01412a83          	lw	s5,20(sp)
80006ffc:	01012b03          	lw	s6,16(sp)
80007000:	00c12b83          	lw	s7,12(sp)
80007004:	03010113          	addi	sp,sp,48
80007008:	00008067          	ret
8000700c:	00190913          	addi	s2,s2,1
80007010:	f25ff06f          	j	80006f34 <_printf_common+0x8c>
80007014:	00d40733          	add	a4,s0,a3
80007018:	03000613          	li	a2,48
8000701c:	04c701a3          	sb	a2,67(a4)
80007020:	04544703          	lbu	a4,69(s0)
80007024:	00168793          	addi	a5,a3,1
80007028:	00f407b3          	add	a5,s0,a5
8000702c:	00268693          	addi	a3,a3,2
80007030:	04e781a3          	sb	a4,67(a5)
80007034:	f25ff06f          	j	80006f58 <_printf_common+0xb0>
80007038:	00100693          	li	a3,1
8000703c:	00040613          	mv	a2,s0
80007040:	000a8593          	mv	a1,s5
80007044:	00098513          	mv	a0,s3
80007048:	000a00e7          	jalr	s4
8000704c:	f96508e3          	beq	a0,s6,80006fdc <_printf_common+0x134>
80007050:	00190913          	addi	s2,s2,1
80007054:	f65ff06f          	j	80006fb8 <_printf_common+0x110>

80007058 <_printf_i>:
_printf_i():
80007058:	fd010113          	addi	sp,sp,-48
8000705c:	02812423          	sw	s0,40(sp)
80007060:	02912223          	sw	s1,36(sp)
80007064:	03212023          	sw	s2,32(sp)
80007068:	01312e23          	sw	s3,28(sp)
8000706c:	02112623          	sw	ra,44(sp)
80007070:	01412c23          	sw	s4,24(sp)
80007074:	01512a23          	sw	s5,20(sp)
80007078:	01612823          	sw	s6,16(sp)
8000707c:	0185c803          	lbu	a6,24(a1)
80007080:	07800793          	li	a5,120
80007084:	00050493          	mv	s1,a0
80007088:	00058413          	mv	s0,a1
8000708c:	00060913          	mv	s2,a2
80007090:	00068993          	mv	s3,a3
80007094:	0107ee63          	bltu	a5,a6,800070b0 <_printf_i+0x58>
80007098:	06200793          	li	a5,98
8000709c:	04358693          	addi	a3,a1,67
800070a0:	0107ee63          	bltu	a5,a6,800070bc <_printf_i+0x64>
800070a4:	28080c63          	beqz	a6,8000733c <_printf_i+0x2e4>
800070a8:	05800793          	li	a5,88
800070ac:	1cf80263          	beq	a6,a5,80007270 <_printf_i+0x218>
800070b0:	04240a93          	addi	s5,s0,66
800070b4:	05040123          	sb	a6,66(s0)
800070b8:	0480006f          	j	80007100 <_printf_i+0xa8>
800070bc:	f9d80793          	addi	a5,a6,-99
800070c0:	0ff7f793          	andi	a5,a5,255
800070c4:	01500613          	li	a2,21
800070c8:	fef664e3          	bltu	a2,a5,800070b0 <_printf_i+0x58>
800070cc:	00007617          	auipc	a2,0x7
800070d0:	c4c60613          	addi	a2,a2,-948 # 8000dd18 <__clz_tab+0x13c>
800070d4:	00279793          	slli	a5,a5,0x2
800070d8:	00c787b3          	add	a5,a5,a2
800070dc:	0007a783          	lw	a5,0(a5)
800070e0:	00c787b3          	add	a5,a5,a2
800070e4:	00078067          	jr	a5
800070e8:	00072783          	lw	a5,0(a4)
800070ec:	04258a93          	addi	s5,a1,66
800070f0:	00478693          	addi	a3,a5,4
800070f4:	0007a783          	lw	a5,0(a5)
800070f8:	00d72023          	sw	a3,0(a4)
800070fc:	04f58123          	sb	a5,66(a1)
80007100:	00100793          	li	a5,1
80007104:	2740006f          	j	80007378 <_printf_i+0x320>
80007108:	0005a783          	lw	a5,0(a1)
8000710c:	00072503          	lw	a0,0(a4)
80007110:	0807f613          	andi	a2,a5,128
80007114:	00450593          	addi	a1,a0,4
80007118:	02060663          	beqz	a2,80007144 <_printf_i+0xec>
8000711c:	00052783          	lw	a5,0(a0)
80007120:	00b72023          	sw	a1,0(a4)
80007124:	0007d863          	bgez	a5,80007134 <_printf_i+0xdc>
80007128:	02d00713          	li	a4,45
8000712c:	40f007b3          	neg	a5,a5
80007130:	04e401a3          	sb	a4,67(s0)
80007134:	00007617          	auipc	a2,0x7
80007138:	bbc60613          	addi	a2,a2,-1092 # 8000dcf0 <__clz_tab+0x114>
8000713c:	00a00813          	li	a6,10
80007140:	0680006f          	j	800071a8 <_printf_i+0x150>
80007144:	0407f613          	andi	a2,a5,64
80007148:	00052783          	lw	a5,0(a0)
8000714c:	00b72023          	sw	a1,0(a4)
80007150:	fc060ae3          	beqz	a2,80007124 <_printf_i+0xcc>
80007154:	01079793          	slli	a5,a5,0x10
80007158:	4107d793          	srai	a5,a5,0x10
8000715c:	fc9ff06f          	j	80007124 <_printf_i+0xcc>
80007160:	0005a603          	lw	a2,0(a1)
80007164:	00072783          	lw	a5,0(a4)
80007168:	08067513          	andi	a0,a2,128
8000716c:	00478593          	addi	a1,a5,4
80007170:	00050863          	beqz	a0,80007180 <_printf_i+0x128>
80007174:	00b72023          	sw	a1,0(a4)
80007178:	0007a783          	lw	a5,0(a5)
8000717c:	0140006f          	j	80007190 <_printf_i+0x138>
80007180:	04067613          	andi	a2,a2,64
80007184:	00b72023          	sw	a1,0(a4)
80007188:	fe0608e3          	beqz	a2,80007178 <_printf_i+0x120>
8000718c:	0007d783          	lhu	a5,0(a5)
80007190:	06f00713          	li	a4,111
80007194:	00007617          	auipc	a2,0x7
80007198:	b5c60613          	addi	a2,a2,-1188 # 8000dcf0 <__clz_tab+0x114>
8000719c:	14e80e63          	beq	a6,a4,800072f8 <_printf_i+0x2a0>
800071a0:	00a00813          	li	a6,10
800071a4:	040401a3          	sb	zero,67(s0)
800071a8:	00442703          	lw	a4,4(s0)
800071ac:	00e42423          	sw	a4,8(s0)
800071b0:	00074863          	bltz	a4,800071c0 <_printf_i+0x168>
800071b4:	00042583          	lw	a1,0(s0)
800071b8:	ffb5f593          	andi	a1,a1,-5
800071bc:	00b42023          	sw	a1,0(s0)
800071c0:	00079663          	bnez	a5,800071cc <_printf_i+0x174>
800071c4:	00068a93          	mv	s5,a3
800071c8:	02070463          	beqz	a4,800071f0 <_printf_i+0x198>
800071cc:	00068a93          	mv	s5,a3
800071d0:	0307f733          	remu	a4,a5,a6
800071d4:	fffa8a93          	addi	s5,s5,-1
800071d8:	00e60733          	add	a4,a2,a4
800071dc:	00074703          	lbu	a4,0(a4)
800071e0:	00ea8023          	sb	a4,0(s5)
800071e4:	00078713          	mv	a4,a5
800071e8:	0307d7b3          	divu	a5,a5,a6
800071ec:	ff0772e3          	bgeu	a4,a6,800071d0 <_printf_i+0x178>
800071f0:	00800793          	li	a5,8
800071f4:	02f81463          	bne	a6,a5,8000721c <_printf_i+0x1c4>
800071f8:	00042783          	lw	a5,0(s0)
800071fc:	0017f793          	andi	a5,a5,1
80007200:	00078e63          	beqz	a5,8000721c <_printf_i+0x1c4>
80007204:	00442703          	lw	a4,4(s0)
80007208:	01042783          	lw	a5,16(s0)
8000720c:	00e7c863          	blt	a5,a4,8000721c <_printf_i+0x1c4>
80007210:	03000793          	li	a5,48
80007214:	fefa8fa3          	sb	a5,-1(s5)
80007218:	fffa8a93          	addi	s5,s5,-1
8000721c:	415686b3          	sub	a3,a3,s5
80007220:	00d42823          	sw	a3,16(s0)
80007224:	00098713          	mv	a4,s3
80007228:	00090693          	mv	a3,s2
8000722c:	00c10613          	addi	a2,sp,12
80007230:	00040593          	mv	a1,s0
80007234:	00048513          	mv	a0,s1
80007238:	c71ff0ef          	jal	ra,80006ea8 <_printf_common>
8000723c:	fff00a13          	li	s4,-1
80007240:	15451263          	bne	a0,s4,80007384 <_printf_i+0x32c>
80007244:	fff00513          	li	a0,-1
80007248:	02c12083          	lw	ra,44(sp)
8000724c:	02812403          	lw	s0,40(sp)
80007250:	02412483          	lw	s1,36(sp)
80007254:	02012903          	lw	s2,32(sp)
80007258:	01c12983          	lw	s3,28(sp)
8000725c:	01812a03          	lw	s4,24(sp)
80007260:	01412a83          	lw	s5,20(sp)
80007264:	01012b03          	lw	s6,16(sp)
80007268:	03010113          	addi	sp,sp,48
8000726c:	00008067          	ret
80007270:	050582a3          	sb	a6,69(a1)
80007274:	00007617          	auipc	a2,0x7
80007278:	a7c60613          	addi	a2,a2,-1412 # 8000dcf0 <__clz_tab+0x114>
8000727c:	00042583          	lw	a1,0(s0)
80007280:	00072503          	lw	a0,0(a4)
80007284:	0805f813          	andi	a6,a1,128
80007288:	00052783          	lw	a5,0(a0)
8000728c:	00450513          	addi	a0,a0,4
80007290:	04080863          	beqz	a6,800072e0 <_printf_i+0x288>
80007294:	00a72023          	sw	a0,0(a4)
80007298:	0015f713          	andi	a4,a1,1
8000729c:	00070663          	beqz	a4,800072a8 <_printf_i+0x250>
800072a0:	0205e593          	ori	a1,a1,32
800072a4:	00b42023          	sw	a1,0(s0)
800072a8:	01000813          	li	a6,16
800072ac:	ee079ce3          	bnez	a5,800071a4 <_printf_i+0x14c>
800072b0:	00042703          	lw	a4,0(s0)
800072b4:	fdf77713          	andi	a4,a4,-33
800072b8:	00e42023          	sw	a4,0(s0)
800072bc:	ee9ff06f          	j	800071a4 <_printf_i+0x14c>
800072c0:	0005a783          	lw	a5,0(a1)
800072c4:	0207e793          	ori	a5,a5,32
800072c8:	00f5a023          	sw	a5,0(a1)
800072cc:	07800793          	li	a5,120
800072d0:	04f402a3          	sb	a5,69(s0)
800072d4:	00007617          	auipc	a2,0x7
800072d8:	a3060613          	addi	a2,a2,-1488 # 8000dd04 <__clz_tab+0x128>
800072dc:	fa1ff06f          	j	8000727c <_printf_i+0x224>
800072e0:	0405f813          	andi	a6,a1,64
800072e4:	00a72023          	sw	a0,0(a4)
800072e8:	fa0808e3          	beqz	a6,80007298 <_printf_i+0x240>
800072ec:	01079793          	slli	a5,a5,0x10
800072f0:	0107d793          	srli	a5,a5,0x10
800072f4:	fa5ff06f          	j	80007298 <_printf_i+0x240>
800072f8:	00800813          	li	a6,8
800072fc:	ea9ff06f          	j	800071a4 <_printf_i+0x14c>
80007300:	0005a603          	lw	a2,0(a1)
80007304:	00072783          	lw	a5,0(a4)
80007308:	0145a583          	lw	a1,20(a1)
8000730c:	08067813          	andi	a6,a2,128
80007310:	00478513          	addi	a0,a5,4
80007314:	00080a63          	beqz	a6,80007328 <_printf_i+0x2d0>
80007318:	00a72023          	sw	a0,0(a4)
8000731c:	0007a783          	lw	a5,0(a5)
80007320:	00b7a023          	sw	a1,0(a5)
80007324:	0180006f          	j	8000733c <_printf_i+0x2e4>
80007328:	00a72023          	sw	a0,0(a4)
8000732c:	04067613          	andi	a2,a2,64
80007330:	0007a783          	lw	a5,0(a5)
80007334:	fe0606e3          	beqz	a2,80007320 <_printf_i+0x2c8>
80007338:	00b79023          	sh	a1,0(a5)
8000733c:	00042823          	sw	zero,16(s0)
80007340:	00068a93          	mv	s5,a3
80007344:	ee1ff06f          	j	80007224 <_printf_i+0x1cc>
80007348:	00072783          	lw	a5,0(a4)
8000734c:	0045a603          	lw	a2,4(a1)
80007350:	00000593          	li	a1,0
80007354:	00478693          	addi	a3,a5,4
80007358:	00d72023          	sw	a3,0(a4)
8000735c:	0007aa83          	lw	s5,0(a5)
80007360:	000a8513          	mv	a0,s5
80007364:	278020ef          	jal	ra,800095dc <memchr>
80007368:	00050663          	beqz	a0,80007374 <_printf_i+0x31c>
8000736c:	41550533          	sub	a0,a0,s5
80007370:	00a42223          	sw	a0,4(s0)
80007374:	00442783          	lw	a5,4(s0)
80007378:	00f42823          	sw	a5,16(s0)
8000737c:	040401a3          	sb	zero,67(s0)
80007380:	ea5ff06f          	j	80007224 <_printf_i+0x1cc>
80007384:	01042683          	lw	a3,16(s0)
80007388:	000a8613          	mv	a2,s5
8000738c:	00090593          	mv	a1,s2
80007390:	00048513          	mv	a0,s1
80007394:	000980e7          	jalr	s3
80007398:	eb4506e3          	beq	a0,s4,80007244 <_printf_i+0x1ec>
8000739c:	00042783          	lw	a5,0(s0)
800073a0:	0027f793          	andi	a5,a5,2
800073a4:	04079463          	bnez	a5,800073ec <_printf_i+0x394>
800073a8:	00c12783          	lw	a5,12(sp)
800073ac:	00c42503          	lw	a0,12(s0)
800073b0:	e8f55ce3          	bge	a0,a5,80007248 <_printf_i+0x1f0>
800073b4:	00078513          	mv	a0,a5
800073b8:	e91ff06f          	j	80007248 <_printf_i+0x1f0>
800073bc:	00100693          	li	a3,1
800073c0:	000a8613          	mv	a2,s5
800073c4:	00090593          	mv	a1,s2
800073c8:	00048513          	mv	a0,s1
800073cc:	000980e7          	jalr	s3
800073d0:	e7650ae3          	beq	a0,s6,80007244 <_printf_i+0x1ec>
800073d4:	001a0a13          	addi	s4,s4,1
800073d8:	00c42783          	lw	a5,12(s0)
800073dc:	00c12703          	lw	a4,12(sp)
800073e0:	40e787b3          	sub	a5,a5,a4
800073e4:	fcfa4ce3          	blt	s4,a5,800073bc <_printf_i+0x364>
800073e8:	fc1ff06f          	j	800073a8 <_printf_i+0x350>
800073ec:	00000a13          	li	s4,0
800073f0:	01940a93          	addi	s5,s0,25
800073f4:	fff00b13          	li	s6,-1
800073f8:	fe1ff06f          	j	800073d8 <_printf_i+0x380>

800073fc <iprintf>:
printf():
800073fc:	fb010113          	addi	sp,sp,-80
80007400:	02812423          	sw	s0,40(sp)
80007404:	02112623          	sw	ra,44(sp)
80007408:	00050413          	mv	s0,a0
8000740c:	02b12a23          	sw	a1,52(sp)
80007410:	02c12c23          	sw	a2,56(sp)
80007414:	02d12e23          	sw	a3,60(sp)
80007418:	04e12023          	sw	a4,64(sp)
8000741c:	04f12223          	sw	a5,68(sp)
80007420:	05012423          	sw	a6,72(sp)
80007424:	05112623          	sw	a7,76(sp)
80007428:	80c1a503          	lw	a0,-2036(gp) # 900001dc <_impure_ptr>
8000742c:	00050c63          	beqz	a0,80007444 <iprintf+0x48>
80007430:	01852783          	lw	a5,24(a0)
80007434:	00079863          	bnez	a5,80007444 <iprintf+0x48>
80007438:	00a12623          	sw	a0,12(sp)
8000743c:	565010ef          	jal	ra,800091a0 <__sinit>
80007440:	00c12503          	lw	a0,12(sp)
80007444:	00852583          	lw	a1,8(a0)
80007448:	03410693          	addi	a3,sp,52
8000744c:	00040613          	mv	a2,s0
80007450:	00d12e23          	sw	a3,28(sp)
80007454:	314030ef          	jal	ra,8000a768 <_vfiprintf_r>
80007458:	02c12083          	lw	ra,44(sp)
8000745c:	02812403          	lw	s0,40(sp)
80007460:	05010113          	addi	sp,sp,80
80007464:	00008067          	ret

80007468 <putchar>:
putchar():
80007468:	00050593          	mv	a1,a0
8000746c:	80c1a503          	lw	a0,-2036(gp) # 900001dc <_impure_ptr>
80007470:	02050c63          	beqz	a0,800074a8 <putchar+0x40>
80007474:	01852783          	lw	a5,24(a0)
80007478:	02079863          	bnez	a5,800074a8 <putchar+0x40>
8000747c:	fe010113          	addi	sp,sp,-32
80007480:	00112e23          	sw	ra,28(sp)
80007484:	00b12623          	sw	a1,12(sp)
80007488:	00a12423          	sw	a0,8(sp)
8000748c:	515010ef          	jal	ra,800091a0 <__sinit>
80007490:	00812503          	lw	a0,8(sp)
80007494:	00c12583          	lw	a1,12(sp)
80007498:	01c12083          	lw	ra,28(sp)
8000749c:	00852603          	lw	a2,8(a0)
800074a0:	02010113          	addi	sp,sp,32
800074a4:	00c0006f          	j	800074b0 <_putc_r>
800074a8:	00852603          	lw	a2,8(a0)
800074ac:	ff9ff06f          	j	800074a4 <putchar+0x3c>

800074b0 <_putc_r>:
_putc_r():
800074b0:	fe010113          	addi	sp,sp,-32
800074b4:	00812c23          	sw	s0,24(sp)
800074b8:	00112e23          	sw	ra,28(sp)
800074bc:	00050413          	mv	s0,a0
800074c0:	02050063          	beqz	a0,800074e0 <_putc_r+0x30>
800074c4:	01852783          	lw	a5,24(a0)
800074c8:	00079c63          	bnez	a5,800074e0 <_putc_r+0x30>
800074cc:	00c12623          	sw	a2,12(sp)
800074d0:	00b12423          	sw	a1,8(sp)
800074d4:	4cd010ef          	jal	ra,800091a0 <__sinit>
800074d8:	00c12603          	lw	a2,12(sp)
800074dc:	00812583          	lw	a1,8(sp)
800074e0:	00007797          	auipc	a5,0x7
800074e4:	93078793          	addi	a5,a5,-1744 # 8000de10 <__sf_fake_stdin>
800074e8:	04f61063          	bne	a2,a5,80007528 <_putc_r+0x78>
800074ec:	00442603          	lw	a2,4(s0)
800074f0:	00862783          	lw	a5,8(a2)
800074f4:	fff78793          	addi	a5,a5,-1
800074f8:	00f62423          	sw	a5,8(a2)
800074fc:	0407da63          	bgez	a5,80007550 <_putc_r+0xa0>
80007500:	01862703          	lw	a4,24(a2)
80007504:	00e7c863          	blt	a5,a4,80007514 <_putc_r+0x64>
80007508:	0ff5f793          	andi	a5,a1,255
8000750c:	00a00713          	li	a4,10
80007510:	04e79063          	bne	a5,a4,80007550 <_putc_r+0xa0>
80007514:	00040513          	mv	a0,s0
80007518:	01812403          	lw	s0,24(sp)
8000751c:	01c12083          	lw	ra,28(sp)
80007520:	02010113          	addi	sp,sp,32
80007524:	1dc0006f          	j	80007700 <__swbuf_r>
80007528:	00007797          	auipc	a5,0x7
8000752c:	90878793          	addi	a5,a5,-1784 # 8000de30 <__sf_fake_stdout>
80007530:	00f61663          	bne	a2,a5,8000753c <_putc_r+0x8c>
80007534:	00842603          	lw	a2,8(s0)
80007538:	fb9ff06f          	j	800074f0 <_putc_r+0x40>
8000753c:	00007797          	auipc	a5,0x7
80007540:	8b478793          	addi	a5,a5,-1868 # 8000ddf0 <__sf_fake_stderr>
80007544:	faf616e3          	bne	a2,a5,800074f0 <_putc_r+0x40>
80007548:	00c42603          	lw	a2,12(s0)
8000754c:	fa5ff06f          	j	800074f0 <_putc_r+0x40>
80007550:	00062783          	lw	a5,0(a2)
80007554:	0ff5f513          	andi	a0,a1,255
80007558:	00178713          	addi	a4,a5,1
8000755c:	00e62023          	sw	a4,0(a2)
80007560:	00b78023          	sb	a1,0(a5)
80007564:	01c12083          	lw	ra,28(sp)
80007568:	01812403          	lw	s0,24(sp)
8000756c:	02010113          	addi	sp,sp,32
80007570:	00008067          	ret

80007574 <_puts_r>:
_puts_r():
80007574:	fe010113          	addi	sp,sp,-32
80007578:	00912a23          	sw	s1,20(sp)
8000757c:	01212823          	sw	s2,16(sp)
80007580:	00112e23          	sw	ra,28(sp)
80007584:	00812c23          	sw	s0,24(sp)
80007588:	01312623          	sw	s3,12(sp)
8000758c:	01412423          	sw	s4,8(sp)
80007590:	00050493          	mv	s1,a0
80007594:	00058913          	mv	s2,a1
80007598:	00050863          	beqz	a0,800075a8 <_puts_r+0x34>
8000759c:	01852783          	lw	a5,24(a0)
800075a0:	00079463          	bnez	a5,800075a8 <_puts_r+0x34>
800075a4:	3fd010ef          	jal	ra,800091a0 <__sinit>
800075a8:	0184a783          	lw	a5,24(s1)
800075ac:	0084a403          	lw	s0,8(s1)
800075b0:	00079663          	bnez	a5,800075bc <_puts_r+0x48>
800075b4:	00048513          	mv	a0,s1
800075b8:	3e9010ef          	jal	ra,800091a0 <__sinit>
800075bc:	00007797          	auipc	a5,0x7
800075c0:	85478793          	addi	a5,a5,-1964 # 8000de10 <__sf_fake_stdin>
800075c4:	04f41e63          	bne	s0,a5,80007620 <_puts_r+0xac>
800075c8:	0044a403          	lw	s0,4(s1)
800075cc:	00c45783          	lhu	a5,12(s0)
800075d0:	0087f793          	andi	a5,a5,8
800075d4:	06078a63          	beqz	a5,80007648 <_puts_r+0xd4>
800075d8:	01042783          	lw	a5,16(s0)
800075dc:	06078663          	beqz	a5,80007648 <_puts_r+0xd4>
800075e0:	fff00993          	li	s3,-1
800075e4:	00a00a13          	li	s4,10
800075e8:	00842783          	lw	a5,8(s0)
800075ec:	00094583          	lbu	a1,0(s2)
800075f0:	fff78793          	addi	a5,a5,-1
800075f4:	08059463          	bnez	a1,8000767c <_puts_r+0x108>
800075f8:	00f42423          	sw	a5,8(s0)
800075fc:	0c07d063          	bgez	a5,800076bc <_puts_r+0x148>
80007600:	00040613          	mv	a2,s0
80007604:	00a00593          	li	a1,10
80007608:	00048513          	mv	a0,s1
8000760c:	0f4000ef          	jal	ra,80007700 <__swbuf_r>
80007610:	fff00793          	li	a5,-1
80007614:	04f50263          	beq	a0,a5,80007658 <_puts_r+0xe4>
80007618:	00a00513          	li	a0,10
8000761c:	0400006f          	j	8000765c <_puts_r+0xe8>
80007620:	00007797          	auipc	a5,0x7
80007624:	81078793          	addi	a5,a5,-2032 # 8000de30 <__sf_fake_stdout>
80007628:	00f41663          	bne	s0,a5,80007634 <_puts_r+0xc0>
8000762c:	0084a403          	lw	s0,8(s1)
80007630:	f9dff06f          	j	800075cc <_puts_r+0x58>
80007634:	00006797          	auipc	a5,0x6
80007638:	7bc78793          	addi	a5,a5,1980 # 8000ddf0 <__sf_fake_stderr>
8000763c:	f8f418e3          	bne	s0,a5,800075cc <_puts_r+0x58>
80007640:	00c4a403          	lw	s0,12(s1)
80007644:	f89ff06f          	j	800075cc <_puts_r+0x58>
80007648:	00040593          	mv	a1,s0
8000764c:	00048513          	mv	a0,s1
80007650:	1e8000ef          	jal	ra,80007838 <__swsetup_r>
80007654:	f80506e3          	beqz	a0,800075e0 <_puts_r+0x6c>
80007658:	fff00513          	li	a0,-1
8000765c:	01c12083          	lw	ra,28(sp)
80007660:	01812403          	lw	s0,24(sp)
80007664:	01412483          	lw	s1,20(sp)
80007668:	01012903          	lw	s2,16(sp)
8000766c:	00c12983          	lw	s3,12(sp)
80007670:	00812a03          	lw	s4,8(sp)
80007674:	02010113          	addi	sp,sp,32
80007678:	00008067          	ret
8000767c:	00f42423          	sw	a5,8(s0)
80007680:	00190913          	addi	s2,s2,1
80007684:	0007d863          	bgez	a5,80007694 <_puts_r+0x120>
80007688:	01842703          	lw	a4,24(s0)
8000768c:	00e7ce63          	blt	a5,a4,800076a8 <_puts_r+0x134>
80007690:	01458c63          	beq	a1,s4,800076a8 <_puts_r+0x134>
80007694:	00042783          	lw	a5,0(s0)
80007698:	00178713          	addi	a4,a5,1
8000769c:	00e42023          	sw	a4,0(s0)
800076a0:	00b78023          	sb	a1,0(a5)
800076a4:	f45ff06f          	j	800075e8 <_puts_r+0x74>
800076a8:	00040613          	mv	a2,s0
800076ac:	00048513          	mv	a0,s1
800076b0:	050000ef          	jal	ra,80007700 <__swbuf_r>
800076b4:	f3351ae3          	bne	a0,s3,800075e8 <_puts_r+0x74>
800076b8:	fa1ff06f          	j	80007658 <_puts_r+0xe4>
800076bc:	00042783          	lw	a5,0(s0)
800076c0:	00178713          	addi	a4,a5,1
800076c4:	00e42023          	sw	a4,0(s0)
800076c8:	00a00713          	li	a4,10
800076cc:	00e78023          	sb	a4,0(a5)
800076d0:	f49ff06f          	j	80007618 <_puts_r+0xa4>

800076d4 <puts>:
puts():
800076d4:	00050593          	mv	a1,a0
800076d8:	80c1a503          	lw	a0,-2036(gp) # 900001dc <_impure_ptr>
800076dc:	e99ff06f          	j	80007574 <_puts_r>

800076e0 <strlen>:
strlen():
800076e0:	00050793          	mv	a5,a0
800076e4:	0007c703          	lbu	a4,0(a5)
800076e8:	00178793          	addi	a5,a5,1
800076ec:	fe071ce3          	bnez	a4,800076e4 <strlen+0x4>
800076f0:	40a78533          	sub	a0,a5,a0
800076f4:	fff50513          	addi	a0,a0,-1
800076f8:	00008067          	ret

800076fc <isatty>:
isatty():
800076fc:	e0df806f          	j	80000508 <_isatty>

80007700 <__swbuf_r>:
__swbuf_r():
80007700:	fe010113          	addi	sp,sp,-32
80007704:	00812c23          	sw	s0,24(sp)
80007708:	00912a23          	sw	s1,20(sp)
8000770c:	01212823          	sw	s2,16(sp)
80007710:	00112e23          	sw	ra,28(sp)
80007714:	01312623          	sw	s3,12(sp)
80007718:	00050493          	mv	s1,a0
8000771c:	00058913          	mv	s2,a1
80007720:	00060413          	mv	s0,a2
80007724:	00050863          	beqz	a0,80007734 <__swbuf_r+0x34>
80007728:	01852783          	lw	a5,24(a0)
8000772c:	00079463          	bnez	a5,80007734 <__swbuf_r+0x34>
80007730:	271010ef          	jal	ra,800091a0 <__sinit>
80007734:	00006797          	auipc	a5,0x6
80007738:	6dc78793          	addi	a5,a5,1756 # 8000de10 <__sf_fake_stdin>
8000773c:	0af41e63          	bne	s0,a5,800077f8 <__swbuf_r+0xf8>
80007740:	0044a403          	lw	s0,4(s1)
80007744:	01842783          	lw	a5,24(s0)
80007748:	00f42423          	sw	a5,8(s0)
8000774c:	00c45783          	lhu	a5,12(s0)
80007750:	0087f793          	andi	a5,a5,8
80007754:	0c078663          	beqz	a5,80007820 <__swbuf_r+0x120>
80007758:	01042783          	lw	a5,16(s0)
8000775c:	0c078263          	beqz	a5,80007820 <__swbuf_r+0x120>
80007760:	01042783          	lw	a5,16(s0)
80007764:	00042503          	lw	a0,0(s0)
80007768:	0ff97993          	andi	s3,s2,255
8000776c:	0ff97913          	andi	s2,s2,255
80007770:	40f50533          	sub	a0,a0,a5
80007774:	01442783          	lw	a5,20(s0)
80007778:	00f54a63          	blt	a0,a5,8000778c <__swbuf_r+0x8c>
8000777c:	00040593          	mv	a1,s0
80007780:	00048513          	mv	a0,s1
80007784:	07d010ef          	jal	ra,80009000 <_fflush_r>
80007788:	0a051463          	bnez	a0,80007830 <__swbuf_r+0x130>
8000778c:	00842783          	lw	a5,8(s0)
80007790:	00150513          	addi	a0,a0,1
80007794:	fff78793          	addi	a5,a5,-1
80007798:	00f42423          	sw	a5,8(s0)
8000779c:	00042783          	lw	a5,0(s0)
800077a0:	00178713          	addi	a4,a5,1
800077a4:	00e42023          	sw	a4,0(s0)
800077a8:	01378023          	sb	s3,0(a5)
800077ac:	01442783          	lw	a5,20(s0)
800077b0:	00a78c63          	beq	a5,a0,800077c8 <__swbuf_r+0xc8>
800077b4:	00c45783          	lhu	a5,12(s0)
800077b8:	0017f793          	andi	a5,a5,1
800077bc:	00078e63          	beqz	a5,800077d8 <__swbuf_r+0xd8>
800077c0:	00a00793          	li	a5,10
800077c4:	00f91a63          	bne	s2,a5,800077d8 <__swbuf_r+0xd8>
800077c8:	00040593          	mv	a1,s0
800077cc:	00048513          	mv	a0,s1
800077d0:	031010ef          	jal	ra,80009000 <_fflush_r>
800077d4:	04051e63          	bnez	a0,80007830 <__swbuf_r+0x130>
800077d8:	01c12083          	lw	ra,28(sp)
800077dc:	01812403          	lw	s0,24(sp)
800077e0:	01412483          	lw	s1,20(sp)
800077e4:	00c12983          	lw	s3,12(sp)
800077e8:	00090513          	mv	a0,s2
800077ec:	01012903          	lw	s2,16(sp)
800077f0:	02010113          	addi	sp,sp,32
800077f4:	00008067          	ret
800077f8:	00006797          	auipc	a5,0x6
800077fc:	63878793          	addi	a5,a5,1592 # 8000de30 <__sf_fake_stdout>
80007800:	00f41663          	bne	s0,a5,8000780c <__swbuf_r+0x10c>
80007804:	0084a403          	lw	s0,8(s1)
80007808:	f3dff06f          	j	80007744 <__swbuf_r+0x44>
8000780c:	00006797          	auipc	a5,0x6
80007810:	5e478793          	addi	a5,a5,1508 # 8000ddf0 <__sf_fake_stderr>
80007814:	f2f418e3          	bne	s0,a5,80007744 <__swbuf_r+0x44>
80007818:	00c4a403          	lw	s0,12(s1)
8000781c:	f29ff06f          	j	80007744 <__swbuf_r+0x44>
80007820:	00040593          	mv	a1,s0
80007824:	00048513          	mv	a0,s1
80007828:	010000ef          	jal	ra,80007838 <__swsetup_r>
8000782c:	f2050ae3          	beqz	a0,80007760 <__swbuf_r+0x60>
80007830:	fff00913          	li	s2,-1
80007834:	fa5ff06f          	j	800077d8 <__swbuf_r+0xd8>

80007838 <__swsetup_r>:
__swsetup_r():
80007838:	ff010113          	addi	sp,sp,-16
8000783c:	00812423          	sw	s0,8(sp)
80007840:	00912223          	sw	s1,4(sp)
80007844:	01212023          	sw	s2,0(sp)
80007848:	00112623          	sw	ra,12(sp)
8000784c:	80c1a483          	lw	s1,-2036(gp) # 900001dc <_impure_ptr>
80007850:	00050913          	mv	s2,a0
80007854:	00058413          	mv	s0,a1
80007858:	00048a63          	beqz	s1,8000786c <__swsetup_r+0x34>
8000785c:	0184a783          	lw	a5,24(s1)
80007860:	00079663          	bnez	a5,8000786c <__swsetup_r+0x34>
80007864:	00048513          	mv	a0,s1
80007868:	139010ef          	jal	ra,800091a0 <__sinit>
8000786c:	00006797          	auipc	a5,0x6
80007870:	5a478793          	addi	a5,a5,1444 # 8000de10 <__sf_fake_stdin>
80007874:	02f41e63          	bne	s0,a5,800078b0 <__swsetup_r+0x78>
80007878:	0044a403          	lw	s0,4(s1)
8000787c:	00c41783          	lh	a5,12(s0)
80007880:	01079713          	slli	a4,a5,0x10
80007884:	0087f693          	andi	a3,a5,8
80007888:	01075713          	srli	a4,a4,0x10
8000788c:	08069a63          	bnez	a3,80007920 <__swsetup_r+0xe8>
80007890:	01077693          	andi	a3,a4,16
80007894:	04069263          	bnez	a3,800078d8 <__swsetup_r+0xa0>
80007898:	00900713          	li	a4,9
8000789c:	00e92023          	sw	a4,0(s2)
800078a0:	0407e793          	ori	a5,a5,64
800078a4:	00f41623          	sh	a5,12(s0)
800078a8:	fff00513          	li	a0,-1
800078ac:	0d00006f          	j	8000797c <__swsetup_r+0x144>
800078b0:	00006797          	auipc	a5,0x6
800078b4:	58078793          	addi	a5,a5,1408 # 8000de30 <__sf_fake_stdout>
800078b8:	00f41663          	bne	s0,a5,800078c4 <__swsetup_r+0x8c>
800078bc:	0084a403          	lw	s0,8(s1)
800078c0:	fbdff06f          	j	8000787c <__swsetup_r+0x44>
800078c4:	00006797          	auipc	a5,0x6
800078c8:	52c78793          	addi	a5,a5,1324 # 8000ddf0 <__sf_fake_stderr>
800078cc:	faf418e3          	bne	s0,a5,8000787c <__swsetup_r+0x44>
800078d0:	00c4a403          	lw	s0,12(s1)
800078d4:	fa9ff06f          	j	8000787c <__swsetup_r+0x44>
800078d8:	00477713          	andi	a4,a4,4
800078dc:	02070c63          	beqz	a4,80007914 <__swsetup_r+0xdc>
800078e0:	03442583          	lw	a1,52(s0)
800078e4:	00058c63          	beqz	a1,800078fc <__swsetup_r+0xc4>
800078e8:	04440793          	addi	a5,s0,68
800078ec:	00f58663          	beq	a1,a5,800078f8 <__swsetup_r+0xc0>
800078f0:	00090513          	mv	a0,s2
800078f4:	379020ef          	jal	ra,8000a46c <_free_r>
800078f8:	02042a23          	sw	zero,52(s0)
800078fc:	00c45783          	lhu	a5,12(s0)
80007900:	00042223          	sw	zero,4(s0)
80007904:	fdb7f793          	andi	a5,a5,-37
80007908:	00f41623          	sh	a5,12(s0)
8000790c:	01042783          	lw	a5,16(s0)
80007910:	00f42023          	sw	a5,0(s0)
80007914:	00c45783          	lhu	a5,12(s0)
80007918:	0087e793          	ori	a5,a5,8
8000791c:	00f41623          	sh	a5,12(s0)
80007920:	01042783          	lw	a5,16(s0)
80007924:	02079063          	bnez	a5,80007944 <__swsetup_r+0x10c>
80007928:	00c45783          	lhu	a5,12(s0)
8000792c:	20000713          	li	a4,512
80007930:	2807f793          	andi	a5,a5,640
80007934:	00e78863          	beq	a5,a4,80007944 <__swsetup_r+0x10c>
80007938:	00040593          	mv	a1,s0
8000793c:	00090513          	mv	a0,s2
80007940:	345010ef          	jal	ra,80009484 <__smakebuf_r>
80007944:	00c41783          	lh	a5,12(s0)
80007948:	01079713          	slli	a4,a5,0x10
8000794c:	0017f693          	andi	a3,a5,1
80007950:	01075713          	srli	a4,a4,0x10
80007954:	04068063          	beqz	a3,80007994 <__swsetup_r+0x15c>
80007958:	01442683          	lw	a3,20(s0)
8000795c:	00042423          	sw	zero,8(s0)
80007960:	40d006b3          	neg	a3,a3
80007964:	00d42c23          	sw	a3,24(s0)
80007968:	01042683          	lw	a3,16(s0)
8000796c:	00000513          	li	a0,0
80007970:	00069663          	bnez	a3,8000797c <__swsetup_r+0x144>
80007974:	08077713          	andi	a4,a4,128
80007978:	f20714e3          	bnez	a4,800078a0 <__swsetup_r+0x68>
8000797c:	00c12083          	lw	ra,12(sp)
80007980:	00812403          	lw	s0,8(sp)
80007984:	00412483          	lw	s1,4(sp)
80007988:	00012903          	lw	s2,0(sp)
8000798c:	01010113          	addi	sp,sp,16
80007990:	00008067          	ret
80007994:	00277693          	andi	a3,a4,2
80007998:	00000613          	li	a2,0
8000799c:	00069463          	bnez	a3,800079a4 <__swsetup_r+0x16c>
800079a0:	01442603          	lw	a2,20(s0)
800079a4:	00c42423          	sw	a2,8(s0)
800079a8:	fc1ff06f          	j	80007968 <__swsetup_r+0x130>

800079ac <__register_exitproc>:
__register_exitproc():
800079ac:	00050893          	mv	a7,a0
800079b0:	9f818513          	addi	a0,gp,-1544 # 900003c8 <_global_atexit>
800079b4:	00052783          	lw	a5,0(a0)
800079b8:	02079263          	bnez	a5,800079dc <__register_exitproc+0x30>
800079bc:	b8818713          	addi	a4,gp,-1144 # 90000558 <_global_atexit0>
800079c0:	00e52023          	sw	a4,0(a0)
800079c4:	00000513          	li	a0,0
800079c8:	00070793          	mv	a5,a4
800079cc:	00050863          	beqz	a0,800079dc <__register_exitproc+0x30>
800079d0:	00052783          	lw	a5,0(a0)
800079d4:	08f72423          	sw	a5,136(a4)
800079d8:	00070793          	mv	a5,a4
800079dc:	0047a703          	lw	a4,4(a5)
800079e0:	01f00813          	li	a6,31
800079e4:	fff00513          	li	a0,-1
800079e8:	06e84063          	blt	a6,a4,80007a48 <__register_exitproc+0x9c>
800079ec:	04088263          	beqz	a7,80007a30 <__register_exitproc+0x84>
800079f0:	0887a803          	lw	a6,136(a5)
800079f4:	04080a63          	beqz	a6,80007a48 <__register_exitproc+0x9c>
800079f8:	00271513          	slli	a0,a4,0x2
800079fc:	00a80533          	add	a0,a6,a0
80007a00:	00c52023          	sw	a2,0(a0)
80007a04:	10082303          	lw	t1,256(a6)
80007a08:	00100613          	li	a2,1
80007a0c:	00e61633          	sll	a2,a2,a4
80007a10:	00c36333          	or	t1,t1,a2
80007a14:	10682023          	sw	t1,256(a6)
80007a18:	08d52023          	sw	a3,128(a0)
80007a1c:	00200693          	li	a3,2
80007a20:	00d89863          	bne	a7,a3,80007a30 <__register_exitproc+0x84>
80007a24:	10482683          	lw	a3,260(a6)
80007a28:	00c6e633          	or	a2,a3,a2
80007a2c:	10c82223          	sw	a2,260(a6)
80007a30:	00170693          	addi	a3,a4,1
80007a34:	00271713          	slli	a4,a4,0x2
80007a38:	00d7a223          	sw	a3,4(a5)
80007a3c:	00e787b3          	add	a5,a5,a4
80007a40:	00b7a423          	sw	a1,8(a5)
80007a44:	00000513          	li	a0,0
80007a48:	00008067          	ret

80007a4c <quorem>:
quorem():
80007a4c:	fe010113          	addi	sp,sp,-32
80007a50:	00812c23          	sw	s0,24(sp)
80007a54:	01052783          	lw	a5,16(a0)
80007a58:	0105a403          	lw	s0,16(a1)
80007a5c:	00112e23          	sw	ra,28(sp)
80007a60:	00912a23          	sw	s1,20(sp)
80007a64:	01212823          	sw	s2,16(sp)
80007a68:	01312623          	sw	s3,12(sp)
80007a6c:	01412423          	sw	s4,8(sp)
80007a70:	01512223          	sw	s5,4(sp)
80007a74:	1887ce63          	blt	a5,s0,80007c10 <quorem+0x1c4>
80007a78:	fff40413          	addi	s0,s0,-1
80007a7c:	00241613          	slli	a2,s0,0x2
80007a80:	01458a13          	addi	s4,a1,20
80007a84:	00ca0ab3          	add	s5,s4,a2
80007a88:	01450993          	addi	s3,a0,20
80007a8c:	000aa783          	lw	a5,0(s5)
80007a90:	00c98633          	add	a2,s3,a2
80007a94:	00062703          	lw	a4,0(a2)
80007a98:	00178793          	addi	a5,a5,1
80007a9c:	00050913          	mv	s2,a0
80007aa0:	02f754b3          	divu	s1,a4,a5
80007aa4:	08f76863          	bltu	a4,a5,80007b34 <quorem+0xe8>
80007aa8:	00010537          	lui	a0,0x10
80007aac:	000a0813          	mv	a6,s4
80007ab0:	00098893          	mv	a7,s3
80007ab4:	00000313          	li	t1,0
80007ab8:	00000e13          	li	t3,0
80007abc:	fff50513          	addi	a0,a0,-1 # ffff <__stack_size+0xf7ff>
80007ac0:	00082683          	lw	a3,0(a6)
80007ac4:	00488893          	addi	a7,a7,4
80007ac8:	00480813          	addi	a6,a6,4
80007acc:	00a6f7b3          	and	a5,a3,a0
80007ad0:	0106d693          	srli	a3,a3,0x10
80007ad4:	029787b3          	mul	a5,a5,s1
80007ad8:	029686b3          	mul	a3,a3,s1
80007adc:	006787b3          	add	a5,a5,t1
80007ae0:	0107d713          	srli	a4,a5,0x10
80007ae4:	00a7f7b3          	and	a5,a5,a0
80007ae8:	40fe07b3          	sub	a5,t3,a5
80007aec:	00e686b3          	add	a3,a3,a4
80007af0:	ffc8a703          	lw	a4,-4(a7)
80007af4:	0106d313          	srli	t1,a3,0x10
80007af8:	00a6f6b3          	and	a3,a3,a0
80007afc:	00a77e33          	and	t3,a4,a0
80007b00:	01c787b3          	add	a5,a5,t3
80007b04:	01075713          	srli	a4,a4,0x10
80007b08:	40d70733          	sub	a4,a4,a3
80007b0c:	4107d693          	srai	a3,a5,0x10
80007b10:	00d70733          	add	a4,a4,a3
80007b14:	41075e13          	srai	t3,a4,0x10
80007b18:	00a7f7b3          	and	a5,a5,a0
80007b1c:	01071713          	slli	a4,a4,0x10
80007b20:	00f767b3          	or	a5,a4,a5
80007b24:	fef8ae23          	sw	a5,-4(a7)
80007b28:	f90afce3          	bgeu	s5,a6,80007ac0 <quorem+0x74>
80007b2c:	00062783          	lw	a5,0(a2)
80007b30:	0a078a63          	beqz	a5,80007be4 <quorem+0x198>
80007b34:	00090513          	mv	a0,s2
80007b38:	544020ef          	jal	ra,8000a07c <__mcmp>
80007b3c:	06054a63          	bltz	a0,80007bb0 <quorem+0x164>
80007b40:	000106b7          	lui	a3,0x10
80007b44:	00148493          	addi	s1,s1,1
80007b48:	00098613          	mv	a2,s3
80007b4c:	00000593          	li	a1,0
80007b50:	fff68693          	addi	a3,a3,-1 # ffff <__stack_size+0xf7ff>
80007b54:	000a2503          	lw	a0,0(s4)
80007b58:	00062783          	lw	a5,0(a2)
80007b5c:	00460613          	addi	a2,a2,4
80007b60:	00d57733          	and	a4,a0,a3
80007b64:	40e585b3          	sub	a1,a1,a4
80007b68:	00d7f733          	and	a4,a5,a3
80007b6c:	00e58733          	add	a4,a1,a4
80007b70:	0107d793          	srli	a5,a5,0x10
80007b74:	01055513          	srli	a0,a0,0x10
80007b78:	41075593          	srai	a1,a4,0x10
80007b7c:	40a787b3          	sub	a5,a5,a0
80007b80:	00b787b3          	add	a5,a5,a1
80007b84:	4107d593          	srai	a1,a5,0x10
80007b88:	00d77733          	and	a4,a4,a3
80007b8c:	01079793          	slli	a5,a5,0x10
80007b90:	00e7e7b3          	or	a5,a5,a4
80007b94:	004a0a13          	addi	s4,s4,4
80007b98:	fef62e23          	sw	a5,-4(a2)
80007b9c:	fb4afce3          	bgeu	s5,s4,80007b54 <quorem+0x108>
80007ba0:	00241793          	slli	a5,s0,0x2
80007ba4:	00f987b3          	add	a5,s3,a5
80007ba8:	0007a703          	lw	a4,0(a5)
80007bac:	04070a63          	beqz	a4,80007c00 <quorem+0x1b4>
80007bb0:	00048513          	mv	a0,s1
80007bb4:	01c12083          	lw	ra,28(sp)
80007bb8:	01812403          	lw	s0,24(sp)
80007bbc:	01412483          	lw	s1,20(sp)
80007bc0:	01012903          	lw	s2,16(sp)
80007bc4:	00c12983          	lw	s3,12(sp)
80007bc8:	00812a03          	lw	s4,8(sp)
80007bcc:	00412a83          	lw	s5,4(sp)
80007bd0:	02010113          	addi	sp,sp,32
80007bd4:	00008067          	ret
80007bd8:	00062783          	lw	a5,0(a2)
80007bdc:	00079863          	bnez	a5,80007bec <quorem+0x1a0>
80007be0:	fff40413          	addi	s0,s0,-1
80007be4:	ffc60613          	addi	a2,a2,-4
80007be8:	fec9e8e3          	bltu	s3,a2,80007bd8 <quorem+0x18c>
80007bec:	00892823          	sw	s0,16(s2)
80007bf0:	f45ff06f          	j	80007b34 <quorem+0xe8>
80007bf4:	0007a703          	lw	a4,0(a5)
80007bf8:	00071863          	bnez	a4,80007c08 <quorem+0x1bc>
80007bfc:	fff40413          	addi	s0,s0,-1
80007c00:	ffc78793          	addi	a5,a5,-4
80007c04:	fef9e8e3          	bltu	s3,a5,80007bf4 <quorem+0x1a8>
80007c08:	00892823          	sw	s0,16(s2)
80007c0c:	fa5ff06f          	j	80007bb0 <quorem+0x164>
80007c10:	00000513          	li	a0,0
80007c14:	fa1ff06f          	j	80007bb4 <quorem+0x168>

80007c18 <_dtoa_r>:
_dtoa_r():
80007c18:	f6010113          	addi	sp,sp,-160
80007c1c:	02f12c23          	sw	a5,56(sp)
80007c20:	02452783          	lw	a5,36(a0)
80007c24:	08812c23          	sw	s0,152(sp)
80007c28:	08912a23          	sw	s1,148(sp)
80007c2c:	09212823          	sw	s2,144(sp)
80007c30:	09312623          	sw	s3,140(sp)
80007c34:	09512223          	sw	s5,132(sp)
80007c38:	09612023          	sw	s6,128(sp)
80007c3c:	08112e23          	sw	ra,156(sp)
80007c40:	09412423          	sw	s4,136(sp)
80007c44:	07712e23          	sw	s7,124(sp)
80007c48:	07812c23          	sw	s8,120(sp)
80007c4c:	07912a23          	sw	s9,116(sp)
80007c50:	07a12823          	sw	s10,112(sp)
80007c54:	07b12623          	sw	s11,108(sp)
80007c58:	00d12a23          	sw	a3,20(sp)
80007c5c:	02e12023          	sw	a4,32(sp)
80007c60:	03112223          	sw	a7,36(sp)
80007c64:	00050493          	mv	s1,a0
80007c68:	00058a93          	mv	s5,a1
80007c6c:	00060413          	mv	s0,a2
80007c70:	00080913          	mv	s2,a6
80007c74:	00058993          	mv	s3,a1
80007c78:	00060b13          	mv	s6,a2
80007c7c:	02079063          	bnez	a5,80007c9c <_dtoa_r+0x84>
80007c80:	01000513          	li	a0,16
80007c84:	0f1010ef          	jal	ra,80009574 <malloc>
80007c88:	02a4a223          	sw	a0,36(s1)
80007c8c:	00052223          	sw	zero,4(a0)
80007c90:	00052423          	sw	zero,8(a0)
80007c94:	00052023          	sw	zero,0(a0)
80007c98:	00052623          	sw	zero,12(a0)
80007c9c:	0244a783          	lw	a5,36(s1)
80007ca0:	0007a583          	lw	a1,0(a5)
80007ca4:	02058463          	beqz	a1,80007ccc <_dtoa_r+0xb4>
80007ca8:	0047a703          	lw	a4,4(a5)
80007cac:	00100793          	li	a5,1
80007cb0:	00048513          	mv	a0,s1
80007cb4:	00e797b3          	sll	a5,a5,a4
80007cb8:	00f5a423          	sw	a5,8(a1)
80007cbc:	00e5a223          	sw	a4,4(a1)
80007cc0:	401010ef          	jal	ra,800098c0 <_Bfree>
80007cc4:	0244a783          	lw	a5,36(s1)
80007cc8:	0007a023          	sw	zero,0(a5)
80007ccc:	04045e63          	bgez	s0,80007d28 <_dtoa_r+0x110>
80007cd0:	00100793          	li	a5,1
80007cd4:	00141413          	slli	s0,s0,0x1
80007cd8:	00f92023          	sw	a5,0(s2)
80007cdc:	00145b13          	srli	s6,s0,0x1
80007ce0:	7ff007b7          	lui	a5,0x7ff00
80007ce4:	00fb7733          	and	a4,s6,a5
80007ce8:	0af71263          	bne	a4,a5,80007d8c <_dtoa_r+0x174>
80007cec:	03812703          	lw	a4,56(sp)
80007cf0:	000027b7          	lui	a5,0x2
80007cf4:	00cb1b13          	slli	s6,s6,0xc
80007cf8:	70f78793          	addi	a5,a5,1807 # 270f <__stack_size+0x1f0f>
80007cfc:	00cb5b13          	srli	s6,s6,0xc
80007d00:	00f72023          	sw	a5,0(a4)
80007d04:	015b6ab3          	or	s5,s6,s5
80007d08:	000a9463          	bnez	s5,80007d10 <_dtoa_r+0xf8>
80007d0c:	0800106f          	j	80008d8c <_dtoa_r+0x1174>
80007d10:	02412783          	lw	a5,36(sp)
80007d14:	00079e63          	bnez	a5,80007d30 <_dtoa_r+0x118>
80007d18:	00006797          	auipc	a5,0x6
80007d1c:	06478793          	addi	a5,a5,100 # 8000dd7c <__clz_tab+0x1a0>
80007d20:	00f12623          	sw	a5,12(sp)
80007d24:	0280006f          	j	80007d4c <_dtoa_r+0x134>
80007d28:	00092023          	sw	zero,0(s2)
80007d2c:	fb5ff06f          	j	80007ce0 <_dtoa_r+0xc8>
80007d30:	00006797          	auipc	a5,0x6
80007d34:	04c78793          	addi	a5,a5,76 # 8000dd7c <__clz_tab+0x1a0>
80007d38:	00f12623          	sw	a5,12(sp)
80007d3c:	00006797          	auipc	a5,0x6
80007d40:	04378793          	addi	a5,a5,67 # 8000dd7f <__clz_tab+0x1a3>
80007d44:	02412703          	lw	a4,36(sp)
80007d48:	00f72023          	sw	a5,0(a4)
80007d4c:	09c12083          	lw	ra,156(sp)
80007d50:	09812403          	lw	s0,152(sp)
80007d54:	00c12503          	lw	a0,12(sp)
80007d58:	09412483          	lw	s1,148(sp)
80007d5c:	09012903          	lw	s2,144(sp)
80007d60:	08c12983          	lw	s3,140(sp)
80007d64:	08812a03          	lw	s4,136(sp)
80007d68:	08412a83          	lw	s5,132(sp)
80007d6c:	08012b03          	lw	s6,128(sp)
80007d70:	07c12b83          	lw	s7,124(sp)
80007d74:	07812c03          	lw	s8,120(sp)
80007d78:	07412c83          	lw	s9,116(sp)
80007d7c:	07012d03          	lw	s10,112(sp)
80007d80:	06c12d83          	lw	s11,108(sp)
80007d84:	0a010113          	addi	sp,sp,160
80007d88:	00008067          	ret
80007d8c:	00000613          	li	a2,0
80007d90:	00000693          	li	a3,0
80007d94:	000a8513          	mv	a0,s5
80007d98:	000b0593          	mv	a1,s6
80007d9c:	03512623          	sw	s5,44(sp)
80007da0:	03612823          	sw	s6,48(sp)
80007da4:	138040ef          	jal	ra,8000bedc <__eqdf2>
80007da8:	02051863          	bnez	a0,80007dd8 <_dtoa_r+0x1c0>
80007dac:	03812703          	lw	a4,56(sp)
80007db0:	00100793          	li	a5,1
80007db4:	00f72023          	sw	a5,0(a4)
80007db8:	00006797          	auipc	a5,0x6
80007dbc:	f3478793          	addi	a5,a5,-204 # 8000dcec <__clz_tab+0x110>
80007dc0:	00f12623          	sw	a5,12(sp)
80007dc4:	02412783          	lw	a5,36(sp)
80007dc8:	f80782e3          	beqz	a5,80007d4c <_dtoa_r+0x134>
80007dcc:	00006797          	auipc	a5,0x6
80007dd0:	f2178793          	addi	a5,a5,-223 # 8000dced <__clz_tab+0x111>
80007dd4:	f71ff06f          	j	80007d44 <_dtoa_r+0x12c>
80007dd8:	05810713          	addi	a4,sp,88
80007ddc:	05c10693          	addi	a3,sp,92
80007de0:	000b0613          	mv	a2,s6
80007de4:	000a8593          	mv	a1,s5
80007de8:	00048513          	mv	a0,s1
80007dec:	014b5913          	srli	s2,s6,0x14
80007df0:	4dc020ef          	jal	ra,8000a2cc <__d2b>
80007df4:	7ff97913          	andi	s2,s2,2047
80007df8:	05812a03          	lw	s4,88(sp)
80007dfc:	00050413          	mv	s0,a0
80007e00:	1a090a63          	beqz	s2,80007fb4 <_dtoa_r+0x39c>
80007e04:	03012783          	lw	a5,48(sp)
80007e08:	02c12503          	lw	a0,44(sp)
80007e0c:	c0190913          	addi	s2,s2,-1023
80007e10:	00c79593          	slli	a1,a5,0xc
80007e14:	00c5d593          	srli	a1,a1,0xc
80007e18:	3ff007b7          	lui	a5,0x3ff00
80007e1c:	00f5e5b3          	or	a1,a1,a5
80007e20:	04012023          	sw	zero,64(sp)
80007e24:	0fff8797          	auipc	a5,0xfff8
80007e28:	3c478793          	addi	a5,a5,964 # 900001e8 <_impure_ptr+0xc>
80007e2c:	0007a603          	lw	a2,0(a5)
80007e30:	0047a683          	lw	a3,4(a5)
80007e34:	0c9040ef          	jal	ra,8000c6fc <__subdf3>
80007e38:	0fff8797          	auipc	a5,0xfff8
80007e3c:	3b878793          	addi	a5,a5,952 # 900001f0 <_impure_ptr+0x14>
80007e40:	0007a603          	lw	a2,0(a5)
80007e44:	0047a683          	lw	a3,4(a5)
80007e48:	2e8040ef          	jal	ra,8000c130 <__muldf3>
80007e4c:	0fff8797          	auipc	a5,0xfff8
80007e50:	3ac78793          	addi	a5,a5,940 # 900001f8 <_impure_ptr+0x1c>
80007e54:	0007a603          	lw	a2,0(a5)
80007e58:	0047a683          	lw	a3,4(a5)
80007e5c:	1c4030ef          	jal	ra,8000b020 <__adddf3>
80007e60:	00050b93          	mv	s7,a0
80007e64:	00090513          	mv	a0,s2
80007e68:	00058a93          	mv	s5,a1
80007e6c:	148050ef          	jal	ra,8000cfb4 <__floatsidf>
80007e70:	0fff8797          	auipc	a5,0xfff8
80007e74:	39078793          	addi	a5,a5,912 # 90000200 <_impure_ptr+0x24>
80007e78:	0007a603          	lw	a2,0(a5)
80007e7c:	0047a683          	lw	a3,4(a5)
80007e80:	2b0040ef          	jal	ra,8000c130 <__muldf3>
80007e84:	00050613          	mv	a2,a0
80007e88:	00058693          	mv	a3,a1
80007e8c:	000b8513          	mv	a0,s7
80007e90:	000a8593          	mv	a1,s5
80007e94:	18c030ef          	jal	ra,8000b020 <__adddf3>
80007e98:	00050b93          	mv	s7,a0
80007e9c:	00058a93          	mv	s5,a1
80007ea0:	094050ef          	jal	ra,8000cf34 <__fixdfsi>
80007ea4:	00050d93          	mv	s11,a0
80007ea8:	00000613          	li	a2,0
80007eac:	00000693          	li	a3,0
80007eb0:	000b8513          	mv	a0,s7
80007eb4:	000a8593          	mv	a1,s5
80007eb8:	194040ef          	jal	ra,8000c04c <__ledf2>
80007ebc:	02055063          	bgez	a0,80007edc <_dtoa_r+0x2c4>
80007ec0:	000d8513          	mv	a0,s11
80007ec4:	0f0050ef          	jal	ra,8000cfb4 <__floatsidf>
80007ec8:	000b8613          	mv	a2,s7
80007ecc:	000a8693          	mv	a3,s5
80007ed0:	00c040ef          	jal	ra,8000bedc <__eqdf2>
80007ed4:	00050463          	beqz	a0,80007edc <_dtoa_r+0x2c4>
80007ed8:	fffd8d93          	addi	s11,s11,-1
80007edc:	00100713          	li	a4,1
80007ee0:	01600793          	li	a5,22
80007ee4:	02e12a23          	sw	a4,52(sp)
80007ee8:	03b7ea63          	bltu	a5,s11,80007f1c <_dtoa_r+0x304>
80007eec:	003d9713          	slli	a4,s11,0x3
80007ef0:	00006797          	auipc	a5,0x6
80007ef4:	ff878793          	addi	a5,a5,-8 # 8000dee8 <__mprec_tens>
80007ef8:	00e787b3          	add	a5,a5,a4
80007efc:	0007a603          	lw	a2,0(a5)
80007f00:	0047a683          	lw	a3,4(a5)
80007f04:	02c12503          	lw	a0,44(sp)
80007f08:	03012583          	lw	a1,48(sp)
80007f0c:	140040ef          	jal	ra,8000c04c <__ledf2>
80007f10:	00055463          	bgez	a0,80007f18 <_dtoa_r+0x300>
80007f14:	fffd8d93          	addi	s11,s11,-1
80007f18:	02012a23          	sw	zero,52(sp)
80007f1c:	412a0933          	sub	s2,s4,s2
80007f20:	fff90c13          	addi	s8,s2,-1
80007f24:	00000b93          	li	s7,0
80007f28:	000c5863          	bgez	s8,80007f38 <_dtoa_r+0x320>
80007f2c:	00100b93          	li	s7,1
80007f30:	412b8bb3          	sub	s7,s7,s2
80007f34:	00000c13          	li	s8,0
80007f38:	0c0dc863          	bltz	s11,80008008 <_dtoa_r+0x3f0>
80007f3c:	01bc0c33          	add	s8,s8,s11
80007f40:	03b12423          	sw	s11,40(sp)
80007f44:	00000c93          	li	s9,0
80007f48:	01412703          	lw	a4,20(sp)
80007f4c:	00900793          	li	a5,9
80007f50:	16e7e063          	bltu	a5,a4,800080b0 <_dtoa_r+0x498>
80007f54:	00500793          	li	a5,5
80007f58:	00100913          	li	s2,1
80007f5c:	00e7d863          	bge	a5,a4,80007f6c <_dtoa_r+0x354>
80007f60:	ffc70793          	addi	a5,a4,-4
80007f64:	00f12a23          	sw	a5,20(sp)
80007f68:	00000913          	li	s2,0
80007f6c:	01412703          	lw	a4,20(sp)
80007f70:	00400793          	li	a5,4
80007f74:	0af70263          	beq	a4,a5,80008018 <_dtoa_r+0x400>
80007f78:	00500793          	li	a5,5
80007f7c:	10f70663          	beq	a4,a5,80008088 <_dtoa_r+0x470>
80007f80:	00200793          	li	a5,2
80007f84:	0ef70e63          	beq	a4,a5,80008080 <_dtoa_r+0x468>
80007f88:	00300793          	li	a5,3
80007f8c:	00012e23          	sw	zero,28(sp)
80007f90:	10f70063          	beq	a4,a5,80008090 <_dtoa_r+0x478>
80007f94:	00100793          	li	a5,1
80007f98:	00f12e23          	sw	a5,28(sp)
80007f9c:	fff00793          	li	a5,-1
80007fa0:	00f12823          	sw	a5,16(sp)
80007fa4:	fff00d13          	li	s10,-1
80007fa8:	01200793          	li	a5,18
80007fac:	02012023          	sw	zero,32(sp)
80007fb0:	08c0006f          	j	8000803c <_dtoa_r+0x424>
80007fb4:	05c12903          	lw	s2,92(sp)
80007fb8:	02000793          	li	a5,32
80007fbc:	012a0933          	add	s2,s4,s2
80007fc0:	43290593          	addi	a1,s2,1074
80007fc4:	02b7dc63          	bge	a5,a1,80007ffc <_dtoa_r+0x3e4>
80007fc8:	04000513          	li	a0,64
80007fcc:	40b50533          	sub	a0,a0,a1
80007fd0:	41290593          	addi	a1,s2,1042
80007fd4:	00ab1533          	sll	a0,s6,a0
80007fd8:	00badab3          	srl	s5,s5,a1
80007fdc:	01556533          	or	a0,a0,s5
80007fe0:	07c050ef          	jal	ra,8000d05c <__floatunsidf>
80007fe4:	fe1007b7          	lui	a5,0xfe100
80007fe8:	00b785b3          	add	a1,a5,a1
80007fec:	00100793          	li	a5,1
80007ff0:	fff90913          	addi	s2,s2,-1
80007ff4:	04f12023          	sw	a5,64(sp)
80007ff8:	e2dff06f          	j	80007e24 <_dtoa_r+0x20c>
80007ffc:	40b78533          	sub	a0,a5,a1
80008000:	00aa9533          	sll	a0,s5,a0
80008004:	fddff06f          	j	80007fe0 <_dtoa_r+0x3c8>
80008008:	41bb8bb3          	sub	s7,s7,s11
8000800c:	41b00cb3          	neg	s9,s11
80008010:	02012423          	sw	zero,40(sp)
80008014:	f35ff06f          	j	80007f48 <_dtoa_r+0x330>
80008018:	00100793          	li	a5,1
8000801c:	00f12e23          	sw	a5,28(sp)
80008020:	02012783          	lw	a5,32(sp)
80008024:	08f04c63          	bgtz	a5,800080bc <_dtoa_r+0x4a4>
80008028:	00100793          	li	a5,1
8000802c:	00100713          	li	a4,1
80008030:	00f12823          	sw	a5,16(sp)
80008034:	00100d13          	li	s10,1
80008038:	02e12023          	sw	a4,32(sp)
8000803c:	0244a683          	lw	a3,36(s1)
80008040:	00400713          	li	a4,4
80008044:	0006a223          	sw	zero,4(a3)
80008048:	01470613          	addi	a2,a4,20
8000804c:	0046a583          	lw	a1,4(a3)
80008050:	06c7fe63          	bgeu	a5,a2,800080cc <_dtoa_r+0x4b4>
80008054:	00048513          	mv	a0,s1
80008058:	788010ef          	jal	ra,800097e0 <_Balloc>
8000805c:	00a12623          	sw	a0,12(sp)
80008060:	06051e63          	bnez	a0,800080dc <_dtoa_r+0x4c4>
80008064:	00006697          	auipc	a3,0x6
80008068:	d1c68693          	addi	a3,a3,-740 # 8000dd80 <__clz_tab+0x1a4>
8000806c:	00000613          	li	a2,0
80008070:	1aa00593          	li	a1,426
80008074:	00006517          	auipc	a0,0x6
80008078:	d2050513          	addi	a0,a0,-736 # 8000dd94 <__clz_tab+0x1b8>
8000807c:	49d020ef          	jal	ra,8000ad18 <__assert_func>
80008080:	00012e23          	sw	zero,28(sp)
80008084:	f9dff06f          	j	80008020 <_dtoa_r+0x408>
80008088:	00100793          	li	a5,1
8000808c:	00f12e23          	sw	a5,28(sp)
80008090:	02012783          	lw	a5,32(sp)
80008094:	00fd87b3          	add	a5,s11,a5
80008098:	00f12823          	sw	a5,16(sp)
8000809c:	00178d13          	addi	s10,a5,1 # fe100001 <_sp+0x6e0f0001>
800080a0:	000d0793          	mv	a5,s10
800080a4:	f9a04ce3          	bgtz	s10,8000803c <_dtoa_r+0x424>
800080a8:	00100793          	li	a5,1
800080ac:	f91ff06f          	j	8000803c <_dtoa_r+0x424>
800080b0:	00100913          	li	s2,1
800080b4:	00012a23          	sw	zero,20(sp)
800080b8:	eddff06f          	j	80007f94 <_dtoa_r+0x37c>
800080bc:	02012783          	lw	a5,32(sp)
800080c0:	00f12823          	sw	a5,16(sp)
800080c4:	00078d13          	mv	s10,a5
800080c8:	f75ff06f          	j	8000803c <_dtoa_r+0x424>
800080cc:	00158593          	addi	a1,a1,1
800080d0:	00b6a223          	sw	a1,4(a3)
800080d4:	00171713          	slli	a4,a4,0x1
800080d8:	f71ff06f          	j	80008048 <_dtoa_r+0x430>
800080dc:	0244a783          	lw	a5,36(s1)
800080e0:	00c12703          	lw	a4,12(sp)
800080e4:	00e7a023          	sw	a4,0(a5)
800080e8:	00e00793          	li	a5,14
800080ec:	1ba7e463          	bltu	a5,s10,80008294 <_dtoa_r+0x67c>
800080f0:	1a090263          	beqz	s2,80008294 <_dtoa_r+0x67c>
800080f4:	27b05263          	blez	s11,80008358 <_dtoa_r+0x740>
800080f8:	00fdf713          	andi	a4,s11,15
800080fc:	00371793          	slli	a5,a4,0x3
80008100:	00006717          	auipc	a4,0x6
80008104:	de870713          	addi	a4,a4,-536 # 8000dee8 <__mprec_tens>
80008108:	00f70733          	add	a4,a4,a5
8000810c:	404dd913          	srai	s2,s11,0x4
80008110:	00072783          	lw	a5,0(a4)
80008114:	00472a83          	lw	s5,4(a4)
80008118:	01097713          	andi	a4,s2,16
8000811c:	00200a13          	li	s4,2
80008120:	02070c63          	beqz	a4,80008158 <_dtoa_r+0x540>
80008124:	00006717          	auipc	a4,0x6
80008128:	d9c70713          	addi	a4,a4,-612 # 8000dec0 <__mprec_bigtens>
8000812c:	02072603          	lw	a2,32(a4)
80008130:	02472683          	lw	a3,36(a4)
80008134:	02c12503          	lw	a0,44(sp)
80008138:	03012583          	lw	a1,48(sp)
8000813c:	00f12c23          	sw	a5,24(sp)
80008140:	00f97913          	andi	s2,s2,15
80008144:	6b4030ef          	jal	ra,8000b7f8 <__divdf3>
80008148:	01812783          	lw	a5,24(sp)
8000814c:	00050993          	mv	s3,a0
80008150:	00058b13          	mv	s6,a1
80008154:	00300a13          	li	s4,3
80008158:	00006717          	auipc	a4,0x6
8000815c:	d6870713          	addi	a4,a4,-664 # 8000dec0 <__mprec_bigtens>
80008160:	1a091e63          	bnez	s2,8000831c <_dtoa_r+0x704>
80008164:	00098513          	mv	a0,s3
80008168:	00078613          	mv	a2,a5
8000816c:	000a8693          	mv	a3,s5
80008170:	000b0593          	mv	a1,s6
80008174:	684030ef          	jal	ra,8000b7f8 <__divdf3>
80008178:	00050993          	mv	s3,a0
8000817c:	00058b13          	mv	s6,a1
80008180:	03412783          	lw	a5,52(sp)
80008184:	26078263          	beqz	a5,800083e8 <_dtoa_r+0x7d0>
80008188:	0fff8797          	auipc	a5,0xfff8
8000818c:	08078793          	addi	a5,a5,128 # 90000208 <_impure_ptr+0x2c>
80008190:	0007a603          	lw	a2,0(a5)
80008194:	0047a683          	lw	a3,4(a5)
80008198:	00098513          	mv	a0,s3
8000819c:	000b0593          	mv	a1,s6
800081a0:	6ad030ef          	jal	ra,8000c04c <__ledf2>
800081a4:	24055263          	bgez	a0,800083e8 <_dtoa_r+0x7d0>
800081a8:	240d0663          	beqz	s10,800083f4 <_dtoa_r+0x7dc>
800081ac:	01012783          	lw	a5,16(sp)
800081b0:	0cf05e63          	blez	a5,8000828c <_dtoa_r+0x674>
800081b4:	fffd8793          	addi	a5,s11,-1
800081b8:	00f12c23          	sw	a5,24(sp)
800081bc:	0fff8797          	auipc	a5,0xfff8
800081c0:	05478793          	addi	a5,a5,84 # 90000210 <_impure_ptr+0x34>
800081c4:	0007a603          	lw	a2,0(a5)
800081c8:	0047a683          	lw	a3,4(a5)
800081cc:	00098513          	mv	a0,s3
800081d0:	000b0593          	mv	a1,s6
800081d4:	75d030ef          	jal	ra,8000c130 <__muldf3>
800081d8:	01012783          	lw	a5,16(sp)
800081dc:	00050993          	mv	s3,a0
800081e0:	00058b13          	mv	s6,a1
800081e4:	001a0a13          	addi	s4,s4,1
800081e8:	000a0513          	mv	a0,s4
800081ec:	04f12423          	sw	a5,72(sp)
800081f0:	05312223          	sw	s3,68(sp)
800081f4:	03612e23          	sw	s6,60(sp)
800081f8:	5bd040ef          	jal	ra,8000cfb4 <__floatsidf>
800081fc:	00098613          	mv	a2,s3
80008200:	000b0693          	mv	a3,s6
80008204:	72d030ef          	jal	ra,8000c130 <__muldf3>
80008208:	0fff8697          	auipc	a3,0xfff8
8000820c:	01068693          	addi	a3,a3,16 # 90000218 <_impure_ptr+0x3c>
80008210:	0006a603          	lw	a2,0(a3)
80008214:	0046a683          	lw	a3,4(a3)
80008218:	00098a93          	mv	s5,s3
8000821c:	fcc009b7          	lui	s3,0xfcc00
80008220:	601020ef          	jal	ra,8000b020 <__adddf3>
80008224:	04812783          	lw	a5,72(sp)
80008228:	000b0913          	mv	s2,s6
8000822c:	00050a13          	mv	s4,a0
80008230:	00b989b3          	add	s3,s3,a1
80008234:	1c079663          	bnez	a5,80008400 <_dtoa_r+0x7e8>
80008238:	0fff8797          	auipc	a5,0xfff8
8000823c:	fe878793          	addi	a5,a5,-24 # 90000220 <_impure_ptr+0x44>
80008240:	0007a603          	lw	a2,0(a5)
80008244:	0047a683          	lw	a3,4(a5)
80008248:	000a8513          	mv	a0,s5
8000824c:	000b0593          	mv	a1,s6
80008250:	4ac040ef          	jal	ra,8000c6fc <__subdf3>
80008254:	000a0613          	mv	a2,s4
80008258:	00098693          	mv	a3,s3
8000825c:	00050a93          	mv	s5,a0
80008260:	00058913          	mv	s2,a1
80008264:	505030ef          	jal	ra,8000bf68 <__gedf2>
80008268:	04a04ce3          	bgtz	a0,80008ac0 <_dtoa_r+0xea8>
8000826c:	800007b7          	lui	a5,0x80000
80008270:	0137c7b3          	xor	a5,a5,s3
80008274:	000a0613          	mv	a2,s4
80008278:	00078693          	mv	a3,a5
8000827c:	000a8513          	mv	a0,s5
80008280:	00090593          	mv	a1,s2
80008284:	5c9030ef          	jal	ra,8000c04c <__ledf2>
80008288:	020546e3          	bltz	a0,80008ab4 <_dtoa_r+0xe9c>
8000828c:	02c12983          	lw	s3,44(sp)
80008290:	03012b03          	lw	s6,48(sp)
80008294:	05c12783          	lw	a5,92(sp)
80008298:	4e07c463          	bltz	a5,80008780 <_dtoa_r+0xb68>
8000829c:	00e00713          	li	a4,14
800082a0:	4fb74063          	blt	a4,s11,80008780 <_dtoa_r+0xb68>
800082a4:	003d9713          	slli	a4,s11,0x3
800082a8:	00006797          	auipc	a5,0x6
800082ac:	c4078793          	addi	a5,a5,-960 # 8000dee8 <__mprec_tens>
800082b0:	00e787b3          	add	a5,a5,a4
800082b4:	0007aa03          	lw	s4,0(a5)
800082b8:	0047aa83          	lw	s5,4(a5)
800082bc:	02012783          	lw	a5,32(sp)
800082c0:	3607d863          	bgez	a5,80008630 <_dtoa_r+0xa18>
800082c4:	37a04663          	bgtz	s10,80008630 <_dtoa_r+0xa18>
800082c8:	7e0d1663          	bnez	s10,80008ab4 <_dtoa_r+0xe9c>
800082cc:	0fff8797          	auipc	a5,0xfff8
800082d0:	f5478793          	addi	a5,a5,-172 # 90000220 <_impure_ptr+0x44>
800082d4:	0007a603          	lw	a2,0(a5)
800082d8:	0047a683          	lw	a3,4(a5)
800082dc:	000a0513          	mv	a0,s4
800082e0:	000a8593          	mv	a1,s5
800082e4:	64d030ef          	jal	ra,8000c130 <__muldf3>
800082e8:	00098613          	mv	a2,s3
800082ec:	000b0693          	mv	a3,s6
800082f0:	479030ef          	jal	ra,8000bf68 <__gedf2>
800082f4:	00000a13          	li	s4,0
800082f8:	00000913          	li	s2,0
800082fc:	76055a63          	bgez	a0,80008a70 <_dtoa_r+0xe58>
80008300:	00c12783          	lw	a5,12(sp)
80008304:	00c12703          	lw	a4,12(sp)
80008308:	001d8d93          	addi	s11,s11,1
8000830c:	00178993          	addi	s3,a5,1
80008310:	03100793          	li	a5,49
80008314:	00f70023          	sb	a5,0(a4)
80008318:	7640006f          	j	80008a7c <_dtoa_r+0xe64>
8000831c:	00197693          	andi	a3,s2,1
80008320:	02068663          	beqz	a3,8000834c <_dtoa_r+0x734>
80008324:	00072603          	lw	a2,0(a4)
80008328:	00472683          	lw	a3,4(a4)
8000832c:	00078513          	mv	a0,a5
80008330:	000a8593          	mv	a1,s5
80008334:	00e12c23          	sw	a4,24(sp)
80008338:	5f9030ef          	jal	ra,8000c130 <__muldf3>
8000833c:	01812703          	lw	a4,24(sp)
80008340:	001a0a13          	addi	s4,s4,1
80008344:	00050793          	mv	a5,a0
80008348:	00058a93          	mv	s5,a1
8000834c:	40195913          	srai	s2,s2,0x1
80008350:	00870713          	addi	a4,a4,8
80008354:	e0dff06f          	j	80008160 <_dtoa_r+0x548>
80008358:	00200a13          	li	s4,2
8000835c:	e20d82e3          	beqz	s11,80008180 <_dtoa_r+0x568>
80008360:	41b00933          	neg	s2,s11
80008364:	00f97793          	andi	a5,s2,15
80008368:	00379713          	slli	a4,a5,0x3
8000836c:	00006797          	auipc	a5,0x6
80008370:	b7c78793          	addi	a5,a5,-1156 # 8000dee8 <__mprec_tens>
80008374:	00e787b3          	add	a5,a5,a4
80008378:	0007a603          	lw	a2,0(a5)
8000837c:	0047a683          	lw	a3,4(a5)
80008380:	02c12503          	lw	a0,44(sp)
80008384:	03012583          	lw	a1,48(sp)
80008388:	40495913          	srai	s2,s2,0x4
8000838c:	00006a97          	auipc	s5,0x6
80008390:	b34a8a93          	addi	s5,s5,-1228 # 8000dec0 <__mprec_bigtens>
80008394:	59d030ef          	jal	ra,8000c130 <__muldf3>
80008398:	00050793          	mv	a5,a0
8000839c:	00050993          	mv	s3,a0
800083a0:	00058b13          	mv	s6,a1
800083a4:	00000713          	li	a4,0
800083a8:	00091863          	bnez	s2,800083b8 <_dtoa_r+0x7a0>
800083ac:	dc070ae3          	beqz	a4,80008180 <_dtoa_r+0x568>
800083b0:	00078993          	mv	s3,a5
800083b4:	dc9ff06f          	j	8000817c <_dtoa_r+0x564>
800083b8:	00197693          	andi	a3,s2,1
800083bc:	02068063          	beqz	a3,800083dc <_dtoa_r+0x7c4>
800083c0:	000aa603          	lw	a2,0(s5)
800083c4:	004aa683          	lw	a3,4(s5)
800083c8:	00078513          	mv	a0,a5
800083cc:	001a0a13          	addi	s4,s4,1
800083d0:	561030ef          	jal	ra,8000c130 <__muldf3>
800083d4:	00050793          	mv	a5,a0
800083d8:	00100713          	li	a4,1
800083dc:	40195913          	srai	s2,s2,0x1
800083e0:	008a8a93          	addi	s5,s5,8
800083e4:	fc5ff06f          	j	800083a8 <_dtoa_r+0x790>
800083e8:	01b12c23          	sw	s11,24(sp)
800083ec:	000d0793          	mv	a5,s10
800083f0:	df9ff06f          	j	800081e8 <_dtoa_r+0x5d0>
800083f4:	01b12c23          	sw	s11,24(sp)
800083f8:	00000793          	li	a5,0
800083fc:	dedff06f          	j	800081e8 <_dtoa_r+0x5d0>
80008400:	00c12583          	lw	a1,12(sp)
80008404:	fff78693          	addi	a3,a5,-1
80008408:	00369613          	slli	a2,a3,0x3
8000840c:	00f587b3          	add	a5,a1,a5
80008410:	02f12e23          	sw	a5,60(sp)
80008414:	01c12783          	lw	a5,28(sp)
80008418:	00006697          	auipc	a3,0x6
8000841c:	ad068693          	addi	a3,a3,-1328 # 8000dee8 <__mprec_tens>
80008420:	00c686b3          	add	a3,a3,a2
80008424:	0006a603          	lw	a2,0(a3)
80008428:	0046a683          	lw	a3,4(a3)
8000842c:	10078263          	beqz	a5,80008530 <_dtoa_r+0x918>
80008430:	0fff8797          	auipc	a5,0xfff8
80008434:	df878793          	addi	a5,a5,-520 # 90000228 <_impure_ptr+0x4c>
80008438:	0007a503          	lw	a0,0(a5)
8000843c:	0047a583          	lw	a1,4(a5)
80008440:	05412223          	sw	s4,68(sp)
80008444:	3b4030ef          	jal	ra,8000b7f8 <__divdf3>
80008448:	000a0613          	mv	a2,s4
8000844c:	00098693          	mv	a3,s3
80008450:	2ac040ef          	jal	ra,8000c6fc <__subdf3>
80008454:	00c12983          	lw	s3,12(sp)
80008458:	00050a13          	mv	s4,a0
8000845c:	00058b13          	mv	s6,a1
80008460:	00090593          	mv	a1,s2
80008464:	000a8513          	mv	a0,s5
80008468:	2cd040ef          	jal	ra,8000cf34 <__fixdfsi>
8000846c:	04a12223          	sw	a0,68(sp)
80008470:	345040ef          	jal	ra,8000cfb4 <__floatsidf>
80008474:	00050613          	mv	a2,a0
80008478:	00058693          	mv	a3,a1
8000847c:	000a8513          	mv	a0,s5
80008480:	00090593          	mv	a1,s2
80008484:	278040ef          	jal	ra,8000c6fc <__subdf3>
80008488:	04412783          	lw	a5,68(sp)
8000848c:	00198993          	addi	s3,s3,1 # fcc00001 <_sp+0x6cbf0001>
80008490:	000a0613          	mv	a2,s4
80008494:	03078793          	addi	a5,a5,48
80008498:	fef98fa3          	sb	a5,-1(s3)
8000849c:	000b0693          	mv	a3,s6
800084a0:	00050913          	mv	s2,a0
800084a4:	00058a93          	mv	s5,a1
800084a8:	3a5030ef          	jal	ra,8000c04c <__ledf2>
800084ac:	14054e63          	bltz	a0,80008608 <_dtoa_r+0x9f0>
800084b0:	0fff8797          	auipc	a5,0xfff8
800084b4:	d5878793          	addi	a5,a5,-680 # 90000208 <_impure_ptr+0x2c>
800084b8:	0007a503          	lw	a0,0(a5)
800084bc:	0047a583          	lw	a1,4(a5)
800084c0:	00090613          	mv	a2,s2
800084c4:	000a8693          	mv	a3,s5
800084c8:	234040ef          	jal	ra,8000c6fc <__subdf3>
800084cc:	000a0613          	mv	a2,s4
800084d0:	000b0693          	mv	a3,s6
800084d4:	379030ef          	jal	ra,8000c04c <__ledf2>
800084d8:	22054c63          	bltz	a0,80008710 <_dtoa_r+0xaf8>
800084dc:	03c12783          	lw	a5,60(sp)
800084e0:	daf986e3          	beq	s3,a5,8000828c <_dtoa_r+0x674>
800084e4:	0fff8797          	auipc	a5,0xfff8
800084e8:	d2c78793          	addi	a5,a5,-724 # 90000210 <_impure_ptr+0x34>
800084ec:	0007a603          	lw	a2,0(a5)
800084f0:	0047a683          	lw	a3,4(a5)
800084f4:	000a0513          	mv	a0,s4
800084f8:	000b0593          	mv	a1,s6
800084fc:	435030ef          	jal	ra,8000c130 <__muldf3>
80008500:	0fff8797          	auipc	a5,0xfff8
80008504:	d1078793          	addi	a5,a5,-752 # 90000210 <_impure_ptr+0x34>
80008508:	0007a603          	lw	a2,0(a5)
8000850c:	0047a683          	lw	a3,4(a5)
80008510:	00050a13          	mv	s4,a0
80008514:	00058b13          	mv	s6,a1
80008518:	00090513          	mv	a0,s2
8000851c:	000a8593          	mv	a1,s5
80008520:	411030ef          	jal	ra,8000c130 <__muldf3>
80008524:	00050a93          	mv	s5,a0
80008528:	00058913          	mv	s2,a1
8000852c:	f35ff06f          	j	80008460 <_dtoa_r+0x848>
80008530:	00098593          	mv	a1,s3
80008534:	000a0513          	mv	a0,s4
80008538:	3f9030ef          	jal	ra,8000c130 <__muldf3>
8000853c:	03c12b03          	lw	s6,60(sp)
80008540:	00c12983          	lw	s3,12(sp)
80008544:	04a12223          	sw	a0,68(sp)
80008548:	04b12423          	sw	a1,72(sp)
8000854c:	00090593          	mv	a1,s2
80008550:	000a8513          	mv	a0,s5
80008554:	1e1040ef          	jal	ra,8000cf34 <__fixdfsi>
80008558:	04a12623          	sw	a0,76(sp)
8000855c:	259040ef          	jal	ra,8000cfb4 <__floatsidf>
80008560:	00050613          	mv	a2,a0
80008564:	00058693          	mv	a3,a1
80008568:	000a8513          	mv	a0,s5
8000856c:	00090593          	mv	a1,s2
80008570:	18c040ef          	jal	ra,8000c6fc <__subdf3>
80008574:	04c12783          	lw	a5,76(sp)
80008578:	00198993          	addi	s3,s3,1
8000857c:	00050a13          	mv	s4,a0
80008580:	03078793          	addi	a5,a5,48
80008584:	fef98fa3          	sb	a5,-1(s3)
80008588:	03c12783          	lw	a5,60(sp)
8000858c:	00058913          	mv	s2,a1
80008590:	08f99063          	bne	s3,a5,80008610 <_dtoa_r+0x9f8>
80008594:	0fff8a97          	auipc	s5,0xfff8
80008598:	c94a8a93          	addi	s5,s5,-876 # 90000228 <_impure_ptr+0x4c>
8000859c:	000aa603          	lw	a2,0(s5)
800085a0:	004aa683          	lw	a3,4(s5)
800085a4:	04412503          	lw	a0,68(sp)
800085a8:	04812583          	lw	a1,72(sp)
800085ac:	275020ef          	jal	ra,8000b020 <__adddf3>
800085b0:	00050613          	mv	a2,a0
800085b4:	00058693          	mv	a3,a1
800085b8:	000a0513          	mv	a0,s4
800085bc:	00090593          	mv	a1,s2
800085c0:	1a9030ef          	jal	ra,8000bf68 <__gedf2>
800085c4:	14a04663          	bgtz	a0,80008710 <_dtoa_r+0xaf8>
800085c8:	04412603          	lw	a2,68(sp)
800085cc:	04812683          	lw	a3,72(sp)
800085d0:	000aa503          	lw	a0,0(s5)
800085d4:	004aa583          	lw	a1,4(s5)
800085d8:	124040ef          	jal	ra,8000c6fc <__subdf3>
800085dc:	00050613          	mv	a2,a0
800085e0:	00058693          	mv	a3,a1
800085e4:	000a0513          	mv	a0,s4
800085e8:	00090593          	mv	a1,s2
800085ec:	261030ef          	jal	ra,8000c04c <__ledf2>
800085f0:	c8055ee3          	bgez	a0,8000828c <_dtoa_r+0x674>
800085f4:	03000793          	li	a5,48
800085f8:	000b0993          	mv	s3,s6
800085fc:	fff9c703          	lbu	a4,-1(s3)
80008600:	fffb0b13          	addi	s6,s6,-1
80008604:	fef70ae3          	beq	a4,a5,800085f8 <_dtoa_r+0x9e0>
80008608:	01812d83          	lw	s11,24(sp)
8000860c:	0d40006f          	j	800086e0 <_dtoa_r+0xac8>
80008610:	0fff8797          	auipc	a5,0xfff8
80008614:	c0078793          	addi	a5,a5,-1024 # 90000210 <_impure_ptr+0x34>
80008618:	0007a603          	lw	a2,0(a5)
8000861c:	0047a683          	lw	a3,4(a5)
80008620:	311030ef          	jal	ra,8000c130 <__muldf3>
80008624:	00050a93          	mv	s5,a0
80008628:	00058913          	mv	s2,a1
8000862c:	f21ff06f          	j	8000854c <_dtoa_r+0x934>
80008630:	00c12783          	lw	a5,12(sp)
80008634:	000b0c13          	mv	s8,s6
80008638:	00098c93          	mv	s9,s3
8000863c:	00178b13          	addi	s6,a5,1
80008640:	01a78d33          	add	s10,a5,s10
80008644:	0fff8b97          	auipc	s7,0xfff8
80008648:	bccb8b93          	addi	s7,s7,-1076 # 90000210 <_impure_ptr+0x34>
8000864c:	000a0613          	mv	a2,s4
80008650:	000a8693          	mv	a3,s5
80008654:	000c8513          	mv	a0,s9
80008658:	000c0593          	mv	a1,s8
8000865c:	19c030ef          	jal	ra,8000b7f8 <__divdf3>
80008660:	0d5040ef          	jal	ra,8000cf34 <__fixdfsi>
80008664:	00050913          	mv	s2,a0
80008668:	14d040ef          	jal	ra,8000cfb4 <__floatsidf>
8000866c:	000a0613          	mv	a2,s4
80008670:	000a8693          	mv	a3,s5
80008674:	2bd030ef          	jal	ra,8000c130 <__muldf3>
80008678:	00058693          	mv	a3,a1
8000867c:	00050613          	mv	a2,a0
80008680:	000c0593          	mv	a1,s8
80008684:	000c8513          	mv	a0,s9
80008688:	074040ef          	jal	ra,8000c6fc <__subdf3>
8000868c:	03090693          	addi	a3,s2,48
80008690:	fedb0fa3          	sb	a3,-1(s6)
80008694:	000b0993          	mv	s3,s6
80008698:	0b6d1e63          	bne	s10,s6,80008754 <_dtoa_r+0xb3c>
8000869c:	00050613          	mv	a2,a0
800086a0:	00058693          	mv	a3,a1
800086a4:	17d020ef          	jal	ra,8000b020 <__adddf3>
800086a8:	000a0613          	mv	a2,s4
800086ac:	000a8693          	mv	a3,s5
800086b0:	00050b93          	mv	s7,a0
800086b4:	00058b13          	mv	s6,a1
800086b8:	0b1030ef          	jal	ra,8000bf68 <__gedf2>
800086bc:	04a04863          	bgtz	a0,8000870c <_dtoa_r+0xaf4>
800086c0:	000a0613          	mv	a2,s4
800086c4:	000a8693          	mv	a3,s5
800086c8:	000b8513          	mv	a0,s7
800086cc:	000b0593          	mv	a1,s6
800086d0:	00d030ef          	jal	ra,8000bedc <__eqdf2>
800086d4:	00051663          	bnez	a0,800086e0 <_dtoa_r+0xac8>
800086d8:	00197913          	andi	s2,s2,1
800086dc:	02091863          	bnez	s2,8000870c <_dtoa_r+0xaf4>
800086e0:	00048513          	mv	a0,s1
800086e4:	00040593          	mv	a1,s0
800086e8:	1d8010ef          	jal	ra,800098c0 <_Bfree>
800086ec:	03812783          	lw	a5,56(sp)
800086f0:	00098023          	sb	zero,0(s3)
800086f4:	001d8513          	addi	a0,s11,1
800086f8:	00a7a023          	sw	a0,0(a5)
800086fc:	02412783          	lw	a5,36(sp)
80008700:	e4078663          	beqz	a5,80007d4c <_dtoa_r+0x134>
80008704:	0137a023          	sw	s3,0(a5)
80008708:	e44ff06f          	j	80007d4c <_dtoa_r+0x134>
8000870c:	01b12c23          	sw	s11,24(sp)
80008710:	00098793          	mv	a5,s3
80008714:	03900713          	li	a4,57
80008718:	00078993          	mv	s3,a5
8000871c:	fff7c683          	lbu	a3,-1(a5)
80008720:	fff78793          	addi	a5,a5,-1
80008724:	02e69063          	bne	a3,a4,80008744 <_dtoa_r+0xb2c>
80008728:	00c12683          	lw	a3,12(sp)
8000872c:	fef696e3          	bne	a3,a5,80008718 <_dtoa_r+0xb00>
80008730:	01812703          	lw	a4,24(sp)
80008734:	00170713          	addi	a4,a4,1
80008738:	00e12c23          	sw	a4,24(sp)
8000873c:	03000713          	li	a4,48
80008740:	00e68023          	sb	a4,0(a3)
80008744:	0007c703          	lbu	a4,0(a5)
80008748:	00170713          	addi	a4,a4,1
8000874c:	00e78023          	sb	a4,0(a5)
80008750:	eb9ff06f          	j	80008608 <_dtoa_r+0x9f0>
80008754:	000ba603          	lw	a2,0(s7)
80008758:	004ba683          	lw	a3,4(s7)
8000875c:	001b0b13          	addi	s6,s6,1
80008760:	1d1030ef          	jal	ra,8000c130 <__muldf3>
80008764:	00000613          	li	a2,0
80008768:	00000693          	li	a3,0
8000876c:	00050c93          	mv	s9,a0
80008770:	00058c13          	mv	s8,a1
80008774:	768030ef          	jal	ra,8000bedc <__eqdf2>
80008778:	ec051ae3          	bnez	a0,8000864c <_dtoa_r+0xa34>
8000877c:	f65ff06f          	j	800086e0 <_dtoa_r+0xac8>
80008780:	01c12703          	lw	a4,28(sp)
80008784:	16070c63          	beqz	a4,800088fc <_dtoa_r+0xce4>
80008788:	01412683          	lw	a3,20(sp)
8000878c:	00100713          	li	a4,1
80008790:	12d74463          	blt	a4,a3,800088b8 <_dtoa_r+0xca0>
80008794:	04012703          	lw	a4,64(sp)
80008798:	43378793          	addi	a5,a5,1075
8000879c:	00071863          	bnez	a4,800087ac <_dtoa_r+0xb94>
800087a0:	05812703          	lw	a4,88(sp)
800087a4:	03600793          	li	a5,54
800087a8:	40e787b3          	sub	a5,a5,a4
800087ac:	000c8a13          	mv	s4,s9
800087b0:	000b8a93          	mv	s5,s7
800087b4:	00100593          	li	a1,1
800087b8:	00048513          	mv	a0,s1
800087bc:	00fb8bb3          	add	s7,s7,a5
800087c0:	00fc0c33          	add	s8,s8,a5
800087c4:	3b4010ef          	jal	ra,80009b78 <__i2b>
800087c8:	00050913          	mv	s2,a0
800087cc:	03505063          	blez	s5,800087ec <_dtoa_r+0xbd4>
800087d0:	01805e63          	blez	s8,800087ec <_dtoa_r+0xbd4>
800087d4:	000a8793          	mv	a5,s5
800087d8:	015c5463          	bge	s8,s5,800087e0 <_dtoa_r+0xbc8>
800087dc:	000c0793          	mv	a5,s8
800087e0:	40fb8bb3          	sub	s7,s7,a5
800087e4:	40fa8ab3          	sub	s5,s5,a5
800087e8:	40fc0c33          	sub	s8,s8,a5
800087ec:	060c8263          	beqz	s9,80008850 <_dtoa_r+0xc38>
800087f0:	01c12783          	lw	a5,28(sp)
800087f4:	10078c63          	beqz	a5,8000890c <_dtoa_r+0xcf4>
800087f8:	05405063          	blez	s4,80008838 <_dtoa_r+0xc20>
800087fc:	00090593          	mv	a1,s2
80008800:	000a0613          	mv	a2,s4
80008804:	00048513          	mv	a0,s1
80008808:	5cc010ef          	jal	ra,80009dd4 <__pow5mult>
8000880c:	00040613          	mv	a2,s0
80008810:	00050593          	mv	a1,a0
80008814:	00050913          	mv	s2,a0
80008818:	00048513          	mv	a0,s1
8000881c:	3b0010ef          	jal	ra,80009bcc <__multiply>
80008820:	00a12c23          	sw	a0,24(sp)
80008824:	00040593          	mv	a1,s0
80008828:	00048513          	mv	a0,s1
8000882c:	094010ef          	jal	ra,800098c0 <_Bfree>
80008830:	01812783          	lw	a5,24(sp)
80008834:	00078413          	mv	s0,a5
80008838:	414c8633          	sub	a2,s9,s4
8000883c:	014c8a63          	beq	s9,s4,80008850 <_dtoa_r+0xc38>
80008840:	00040593          	mv	a1,s0
80008844:	00048513          	mv	a0,s1
80008848:	58c010ef          	jal	ra,80009dd4 <__pow5mult>
8000884c:	00050413          	mv	s0,a0
80008850:	00100593          	li	a1,1
80008854:	00048513          	mv	a0,s1
80008858:	320010ef          	jal	ra,80009b78 <__i2b>
8000885c:	02812783          	lw	a5,40(sp)
80008860:	00050a13          	mv	s4,a0
80008864:	0af05863          	blez	a5,80008914 <_dtoa_r+0xcfc>
80008868:	00078613          	mv	a2,a5
8000886c:	00050593          	mv	a1,a0
80008870:	00048513          	mv	a0,s1
80008874:	560010ef          	jal	ra,80009dd4 <__pow5mult>
80008878:	01412703          	lw	a4,20(sp)
8000887c:	00100793          	li	a5,1
80008880:	00050a13          	mv	s4,a0
80008884:	00000c93          	li	s9,0
80008888:	0ae7c463          	blt	a5,a4,80008930 <_dtoa_r+0xd18>
8000888c:	00000c93          	li	s9,0
80008890:	08099a63          	bnez	s3,80008924 <_dtoa_r+0xd0c>
80008894:	00cb1793          	slli	a5,s6,0xc
80008898:	08079663          	bnez	a5,80008924 <_dtoa_r+0xd0c>
8000889c:	7ff005b7          	lui	a1,0x7ff00
800088a0:	00bb7b33          	and	s6,s6,a1
800088a4:	080b0063          	beqz	s6,80008924 <_dtoa_r+0xd0c>
800088a8:	001b8b93          	addi	s7,s7,1
800088ac:	001c0c13          	addi	s8,s8,1
800088b0:	00100c93          	li	s9,1
800088b4:	0700006f          	j	80008924 <_dtoa_r+0xd0c>
800088b8:	fffd0a13          	addi	s4,s10,-1
800088bc:	014ccc63          	blt	s9,s4,800088d4 <_dtoa_r+0xcbc>
800088c0:	414c8a33          	sub	s4,s9,s4
800088c4:	020d5663          	bgez	s10,800088f0 <_dtoa_r+0xcd8>
800088c8:	41ab8ab3          	sub	s5,s7,s10
800088cc:	00000793          	li	a5,0
800088d0:	ee5ff06f          	j	800087b4 <_dtoa_r+0xb9c>
800088d4:	02812783          	lw	a5,40(sp)
800088d8:	419a0cb3          	sub	s9,s4,s9
800088dc:	019787b3          	add	a5,a5,s9
800088e0:	02f12423          	sw	a5,40(sp)
800088e4:	000a0c93          	mv	s9,s4
800088e8:	00000a13          	li	s4,0
800088ec:	fd9ff06f          	j	800088c4 <_dtoa_r+0xcac>
800088f0:	000b8a93          	mv	s5,s7
800088f4:	000d0793          	mv	a5,s10
800088f8:	ebdff06f          	j	800087b4 <_dtoa_r+0xb9c>
800088fc:	000c8a13          	mv	s4,s9
80008900:	000b8a93          	mv	s5,s7
80008904:	00000913          	li	s2,0
80008908:	ec5ff06f          	j	800087cc <_dtoa_r+0xbb4>
8000890c:	000c8613          	mv	a2,s9
80008910:	f31ff06f          	j	80008840 <_dtoa_r+0xc28>
80008914:	01412703          	lw	a4,20(sp)
80008918:	00100793          	li	a5,1
8000891c:	00000c93          	li	s9,0
80008920:	f6e7d6e3          	bge	a5,a4,8000888c <_dtoa_r+0xc74>
80008924:	02812783          	lw	a5,40(sp)
80008928:	00100513          	li	a0,1
8000892c:	02078263          	beqz	a5,80008950 <_dtoa_r+0xd38>
80008930:	010a2783          	lw	a5,16(s4)
80008934:	00378793          	addi	a5,a5,3
80008938:	00279793          	slli	a5,a5,0x2
8000893c:	00fa07b3          	add	a5,s4,a5
80008940:	0047a503          	lw	a0,4(a5)
80008944:	110010ef          	jal	ra,80009a54 <__hi0bits>
80008948:	02000793          	li	a5,32
8000894c:	40a78533          	sub	a0,a5,a0
80008950:	00ac0533          	add	a0,s8,a0
80008954:	01f57513          	andi	a0,a0,31
80008958:	0c050663          	beqz	a0,80008a24 <_dtoa_r+0xe0c>
8000895c:	02000793          	li	a5,32
80008960:	40a787b3          	sub	a5,a5,a0
80008964:	00400713          	li	a4,4
80008968:	0af75a63          	bge	a4,a5,80008a1c <_dtoa_r+0xe04>
8000896c:	01c00793          	li	a5,28
80008970:	40a78533          	sub	a0,a5,a0
80008974:	00ab8bb3          	add	s7,s7,a0
80008978:	00aa8ab3          	add	s5,s5,a0
8000897c:	00ac0c33          	add	s8,s8,a0
80008980:	01705c63          	blez	s7,80008998 <_dtoa_r+0xd80>
80008984:	00040593          	mv	a1,s0
80008988:	000b8613          	mv	a2,s7
8000898c:	00048513          	mv	a0,s1
80008990:	568010ef          	jal	ra,80009ef8 <__lshift>
80008994:	00050413          	mv	s0,a0
80008998:	01805c63          	blez	s8,800089b0 <_dtoa_r+0xd98>
8000899c:	000a0593          	mv	a1,s4
800089a0:	000c0613          	mv	a2,s8
800089a4:	00048513          	mv	a0,s1
800089a8:	550010ef          	jal	ra,80009ef8 <__lshift>
800089ac:	00050a13          	mv	s4,a0
800089b0:	03412783          	lw	a5,52(sp)
800089b4:	06078c63          	beqz	a5,80008a2c <_dtoa_r+0xe14>
800089b8:	000a0593          	mv	a1,s4
800089bc:	00040513          	mv	a0,s0
800089c0:	6bc010ef          	jal	ra,8000a07c <__mcmp>
800089c4:	06055463          	bgez	a0,80008a2c <_dtoa_r+0xe14>
800089c8:	00040593          	mv	a1,s0
800089cc:	00000693          	li	a3,0
800089d0:	00a00613          	li	a2,10
800089d4:	00048513          	mv	a0,s1
800089d8:	75d000ef          	jal	ra,80009934 <__multadd>
800089dc:	01c12783          	lw	a5,28(sp)
800089e0:	fffd8d93          	addi	s11,s11,-1
800089e4:	00050413          	mv	s0,a0
800089e8:	3c078463          	beqz	a5,80008db0 <_dtoa_r+0x1198>
800089ec:	00090593          	mv	a1,s2
800089f0:	00000693          	li	a3,0
800089f4:	00a00613          	li	a2,10
800089f8:	00048513          	mv	a0,s1
800089fc:	739000ef          	jal	ra,80009934 <__multadd>
80008a00:	01012783          	lw	a5,16(sp)
80008a04:	00050913          	mv	s2,a0
80008a08:	0cf04a63          	bgtz	a5,80008adc <_dtoa_r+0xec4>
80008a0c:	01412703          	lw	a4,20(sp)
80008a10:	00200793          	li	a5,2
80008a14:	02e7c663          	blt	a5,a4,80008a40 <_dtoa_r+0xe28>
80008a18:	0c40006f          	j	80008adc <_dtoa_r+0xec4>
80008a1c:	f6e782e3          	beq	a5,a4,80008980 <_dtoa_r+0xd68>
80008a20:	00078513          	mv	a0,a5
80008a24:	01c50513          	addi	a0,a0,28
80008a28:	f4dff06f          	j	80008974 <_dtoa_r+0xd5c>
80008a2c:	0ba04263          	bgtz	s10,80008ad0 <_dtoa_r+0xeb8>
80008a30:	01412703          	lw	a4,20(sp)
80008a34:	00200793          	li	a5,2
80008a38:	08e7dc63          	bge	a5,a4,80008ad0 <_dtoa_r+0xeb8>
80008a3c:	01a12823          	sw	s10,16(sp)
80008a40:	01012783          	lw	a5,16(sp)
80008a44:	02079663          	bnez	a5,80008a70 <_dtoa_r+0xe58>
80008a48:	000a0593          	mv	a1,s4
80008a4c:	00000693          	li	a3,0
80008a50:	00500613          	li	a2,5
80008a54:	00048513          	mv	a0,s1
80008a58:	6dd000ef          	jal	ra,80009934 <__multadd>
80008a5c:	00050a13          	mv	s4,a0
80008a60:	00050593          	mv	a1,a0
80008a64:	00040513          	mv	a0,s0
80008a68:	614010ef          	jal	ra,8000a07c <__mcmp>
80008a6c:	88a04ae3          	bgtz	a0,80008300 <_dtoa_r+0x6e8>
80008a70:	02012783          	lw	a5,32(sp)
80008a74:	00c12983          	lw	s3,12(sp)
80008a78:	fff7cd93          	not	s11,a5
80008a7c:	00000b13          	li	s6,0
80008a80:	000a0593          	mv	a1,s4
80008a84:	00048513          	mv	a0,s1
80008a88:	639000ef          	jal	ra,800098c0 <_Bfree>
80008a8c:	c4090ae3          	beqz	s2,800086e0 <_dtoa_r+0xac8>
80008a90:	000b0a63          	beqz	s6,80008aa4 <_dtoa_r+0xe8c>
80008a94:	012b0863          	beq	s6,s2,80008aa4 <_dtoa_r+0xe8c>
80008a98:	000b0593          	mv	a1,s6
80008a9c:	00048513          	mv	a0,s1
80008aa0:	621000ef          	jal	ra,800098c0 <_Bfree>
80008aa4:	00090593          	mv	a1,s2
80008aa8:	00048513          	mv	a0,s1
80008aac:	615000ef          	jal	ra,800098c0 <_Bfree>
80008ab0:	c31ff06f          	j	800086e0 <_dtoa_r+0xac8>
80008ab4:	00000a13          	li	s4,0
80008ab8:	00000913          	li	s2,0
80008abc:	fb5ff06f          	j	80008a70 <_dtoa_r+0xe58>
80008ac0:	01812d83          	lw	s11,24(sp)
80008ac4:	00000a13          	li	s4,0
80008ac8:	00000913          	li	s2,0
80008acc:	835ff06f          	j	80008300 <_dtoa_r+0x6e8>
80008ad0:	01c12783          	lw	a5,28(sp)
80008ad4:	01a12823          	sw	s10,16(sp)
80008ad8:	2e078663          	beqz	a5,80008dc4 <_dtoa_r+0x11ac>
80008adc:	01505c63          	blez	s5,80008af4 <_dtoa_r+0xedc>
80008ae0:	00090593          	mv	a1,s2
80008ae4:	000a8613          	mv	a2,s5
80008ae8:	00048513          	mv	a0,s1
80008aec:	40c010ef          	jal	ra,80009ef8 <__lshift>
80008af0:	00050913          	mv	s2,a0
80008af4:	00090513          	mv	a0,s2
80008af8:	040c8a63          	beqz	s9,80008b4c <_dtoa_r+0xf34>
80008afc:	00492583          	lw	a1,4(s2)
80008b00:	00048513          	mv	a0,s1
80008b04:	4dd000ef          	jal	ra,800097e0 <_Balloc>
80008b08:	00050a93          	mv	s5,a0
80008b0c:	00051c63          	bnez	a0,80008b24 <_dtoa_r+0xf0c>
80008b10:	00005697          	auipc	a3,0x5
80008b14:	27068693          	addi	a3,a3,624 # 8000dd80 <__clz_tab+0x1a4>
80008b18:	00000613          	li	a2,0
80008b1c:	2ea00593          	li	a1,746
80008b20:	d54ff06f          	j	80008074 <_dtoa_r+0x45c>
80008b24:	01092603          	lw	a2,16(s2)
80008b28:	00c90593          	addi	a1,s2,12
80008b2c:	00c50513          	addi	a0,a0,12
80008b30:	00260613          	addi	a2,a2,2
80008b34:	00261613          	slli	a2,a2,0x2
80008b38:	2c9000ef          	jal	ra,80009600 <memcpy>
80008b3c:	00100613          	li	a2,1
80008b40:	000a8593          	mv	a1,s5
80008b44:	00048513          	mv	a0,s1
80008b48:	3b0010ef          	jal	ra,80009ef8 <__lshift>
80008b4c:	00c12783          	lw	a5,12(sp)
80008b50:	01012703          	lw	a4,16(sp)
80008b54:	00090b13          	mv	s6,s2
80008b58:	00178c13          	addi	s8,a5,1
80008b5c:	00e787b3          	add	a5,a5,a4
80008b60:	00f12c23          	sw	a5,24(sp)
80008b64:	0019f793          	andi	a5,s3,1
80008b68:	00050913          	mv	s2,a0
80008b6c:	00f12823          	sw	a5,16(sp)
80008b70:	000a0593          	mv	a1,s4
80008b74:	00040513          	mv	a0,s0
80008b78:	ed5fe0ef          	jal	ra,80007a4c <quorem>
80008b7c:	000b0593          	mv	a1,s6
80008b80:	00050c93          	mv	s9,a0
80008b84:	03050a93          	addi	s5,a0,48
80008b88:	00040513          	mv	a0,s0
80008b8c:	4f0010ef          	jal	ra,8000a07c <__mcmp>
80008b90:	000a0593          	mv	a1,s4
80008b94:	00050b93          	mv	s7,a0
80008b98:	00090613          	mv	a2,s2
80008b9c:	00048513          	mv	a0,s1
80008ba0:	530010ef          	jal	ra,8000a0d0 <__mdiff>
80008ba4:	00c52683          	lw	a3,12(a0)
80008ba8:	fffc0d13          	addi	s10,s8,-1
80008bac:	00050593          	mv	a1,a0
80008bb0:	00100713          	li	a4,1
80008bb4:	00069c63          	bnez	a3,80008bcc <_dtoa_r+0xfb4>
80008bb8:	00a12e23          	sw	a0,28(sp)
80008bbc:	00040513          	mv	a0,s0
80008bc0:	4bc010ef          	jal	ra,8000a07c <__mcmp>
80008bc4:	01c12583          	lw	a1,28(sp)
80008bc8:	00050713          	mv	a4,a0
80008bcc:	00048513          	mv	a0,s1
80008bd0:	00e12e23          	sw	a4,28(sp)
80008bd4:	4ed000ef          	jal	ra,800098c0 <_Bfree>
80008bd8:	01412783          	lw	a5,20(sp)
80008bdc:	01c12703          	lw	a4,28(sp)
80008be0:	000c0993          	mv	s3,s8
80008be4:	00e7e6b3          	or	a3,a5,a4
80008be8:	01012783          	lw	a5,16(sp)
80008bec:	00f6e6b3          	or	a3,a3,a5
80008bf0:	00069e63          	bnez	a3,80008c0c <_dtoa_r+0xff4>
80008bf4:	03900713          	li	a4,57
80008bf8:	06ea8263          	beq	s5,a4,80008c5c <_dtoa_r+0x1044>
80008bfc:	01705463          	blez	s7,80008c04 <_dtoa_r+0xfec>
80008c00:	031c8a93          	addi	s5,s9,49
80008c04:	015d0023          	sb	s5,0(s10)
80008c08:	e79ff06f          	j	80008a80 <_dtoa_r+0xe68>
80008c0c:	000bcc63          	bltz	s7,80008c24 <_dtoa_r+0x100c>
80008c10:	01412783          	lw	a5,20(sp)
80008c14:	0177ebb3          	or	s7,a5,s7
80008c18:	01012783          	lw	a5,16(sp)
80008c1c:	00fbebb3          	or	s7,s7,a5
80008c20:	060b9463          	bnez	s7,80008c88 <_dtoa_r+0x1070>
80008c24:	fee050e3          	blez	a4,80008c04 <_dtoa_r+0xfec>
80008c28:	00040593          	mv	a1,s0
80008c2c:	00100613          	li	a2,1
80008c30:	00048513          	mv	a0,s1
80008c34:	2c4010ef          	jal	ra,80009ef8 <__lshift>
80008c38:	000a0593          	mv	a1,s4
80008c3c:	00050413          	mv	s0,a0
80008c40:	43c010ef          	jal	ra,8000a07c <__mcmp>
80008c44:	00a04863          	bgtz	a0,80008c54 <_dtoa_r+0x103c>
80008c48:	fa051ee3          	bnez	a0,80008c04 <_dtoa_r+0xfec>
80008c4c:	001af713          	andi	a4,s5,1
80008c50:	fa070ae3          	beqz	a4,80008c04 <_dtoa_r+0xfec>
80008c54:	03900713          	li	a4,57
80008c58:	faea94e3          	bne	s5,a4,80008c00 <_dtoa_r+0xfe8>
80008c5c:	03900793          	li	a5,57
80008c60:	00fd0023          	sb	a5,0(s10)
80008c64:	00098793          	mv	a5,s3
80008c68:	03900693          	li	a3,57
80008c6c:	00078993          	mv	s3,a5
80008c70:	fff9c703          	lbu	a4,-1(s3)
80008c74:	fff78793          	addi	a5,a5,-1
80008c78:	0ed70e63          	beq	a4,a3,80008d74 <_dtoa_r+0x115c>
80008c7c:	00170713          	addi	a4,a4,1
80008c80:	00e78023          	sb	a4,0(a5)
80008c84:	dfdff06f          	j	80008a80 <_dtoa_r+0xe68>
80008c88:	00e05c63          	blez	a4,80008ca0 <_dtoa_r+0x1088>
80008c8c:	03900713          	li	a4,57
80008c90:	fcea86e3          	beq	s5,a4,80008c5c <_dtoa_r+0x1044>
80008c94:	001a8793          	addi	a5,s5,1
80008c98:	00fd0023          	sb	a5,0(s10)
80008c9c:	de5ff06f          	j	80008a80 <_dtoa_r+0xe68>
80008ca0:	01812783          	lw	a5,24(sp)
80008ca4:	ff5c0fa3          	sb	s5,-1(s8)
80008ca8:	09878263          	beq	a5,s8,80008d2c <_dtoa_r+0x1114>
80008cac:	00040593          	mv	a1,s0
80008cb0:	00000693          	li	a3,0
80008cb4:	00a00613          	li	a2,10
80008cb8:	00048513          	mv	a0,s1
80008cbc:	479000ef          	jal	ra,80009934 <__multadd>
80008cc0:	00050413          	mv	s0,a0
80008cc4:	00000693          	li	a3,0
80008cc8:	00a00613          	li	a2,10
80008ccc:	000b0593          	mv	a1,s6
80008cd0:	00048513          	mv	a0,s1
80008cd4:	012b1c63          	bne	s6,s2,80008cec <_dtoa_r+0x10d4>
80008cd8:	45d000ef          	jal	ra,80009934 <__multadd>
80008cdc:	00050b13          	mv	s6,a0
80008ce0:	00050913          	mv	s2,a0
80008ce4:	001c0c13          	addi	s8,s8,1
80008ce8:	e89ff06f          	j	80008b70 <_dtoa_r+0xf58>
80008cec:	449000ef          	jal	ra,80009934 <__multadd>
80008cf0:	00090593          	mv	a1,s2
80008cf4:	00050b13          	mv	s6,a0
80008cf8:	00000693          	li	a3,0
80008cfc:	00a00613          	li	a2,10
80008d00:	00048513          	mv	a0,s1
80008d04:	431000ef          	jal	ra,80009934 <__multadd>
80008d08:	00050913          	mv	s2,a0
80008d0c:	fd9ff06f          	j	80008ce4 <_dtoa_r+0x10cc>
80008d10:	01012783          	lw	a5,16(sp)
80008d14:	00100993          	li	s3,1
80008d18:	00f05463          	blez	a5,80008d20 <_dtoa_r+0x1108>
80008d1c:	00078993          	mv	s3,a5
80008d20:	00c12783          	lw	a5,12(sp)
80008d24:	00000b13          	li	s6,0
80008d28:	013789b3          	add	s3,a5,s3
80008d2c:	00040593          	mv	a1,s0
80008d30:	00100613          	li	a2,1
80008d34:	00048513          	mv	a0,s1
80008d38:	1c0010ef          	jal	ra,80009ef8 <__lshift>
80008d3c:	000a0593          	mv	a1,s4
80008d40:	00050413          	mv	s0,a0
80008d44:	338010ef          	jal	ra,8000a07c <__mcmp>
80008d48:	f0a04ee3          	bgtz	a0,80008c64 <_dtoa_r+0x104c>
80008d4c:	00051663          	bnez	a0,80008d58 <_dtoa_r+0x1140>
80008d50:	001af793          	andi	a5,s5,1
80008d54:	f00798e3          	bnez	a5,80008c64 <_dtoa_r+0x104c>
80008d58:	00098793          	mv	a5,s3
80008d5c:	03000713          	li	a4,48
80008d60:	00078993          	mv	s3,a5
80008d64:	fff7c683          	lbu	a3,-1(a5)
80008d68:	fff78793          	addi	a5,a5,-1
80008d6c:	fee68ae3          	beq	a3,a4,80008d60 <_dtoa_r+0x1148>
80008d70:	d11ff06f          	j	80008a80 <_dtoa_r+0xe68>
80008d74:	00c12703          	lw	a4,12(sp)
80008d78:	eef71ae3          	bne	a4,a5,80008c6c <_dtoa_r+0x1054>
80008d7c:	03100793          	li	a5,49
80008d80:	001d8d93          	addi	s11,s11,1
80008d84:	00f70023          	sb	a5,0(a4)
80008d88:	cf9ff06f          	j	80008a80 <_dtoa_r+0xe68>
80008d8c:	02412703          	lw	a4,36(sp)
80008d90:	00005797          	auipc	a5,0x5
80008d94:	fe078793          	addi	a5,a5,-32 # 8000dd70 <__clz_tab+0x194>
80008d98:	00f12623          	sw	a5,12(sp)
80008d9c:	00005797          	auipc	a5,0x5
80008da0:	fdc78793          	addi	a5,a5,-36 # 8000dd78 <__clz_tab+0x19c>
80008da4:	00070463          	beqz	a4,80008dac <_dtoa_r+0x1194>
80008da8:	f9dfe06f          	j	80007d44 <_dtoa_r+0x12c>
80008dac:	fa1fe06f          	j	80007d4c <_dtoa_r+0x134>
80008db0:	01012783          	lw	a5,16(sp)
80008db4:	00f04863          	bgtz	a5,80008dc4 <_dtoa_r+0x11ac>
80008db8:	01412703          	lw	a4,20(sp)
80008dbc:	00200793          	li	a5,2
80008dc0:	c8e7c0e3          	blt	a5,a4,80008a40 <_dtoa_r+0xe28>
80008dc4:	00000993          	li	s3,0
80008dc8:	000a0593          	mv	a1,s4
80008dcc:	00040513          	mv	a0,s0
80008dd0:	c7dfe0ef          	jal	ra,80007a4c <quorem>
80008dd4:	00c12783          	lw	a5,12(sp)
80008dd8:	03050a93          	addi	s5,a0,48
80008ddc:	01378733          	add	a4,a5,s3
80008de0:	01012783          	lw	a5,16(sp)
80008de4:	01570023          	sb	s5,0(a4)
80008de8:	00198993          	addi	s3,s3,1
80008dec:	f2f9d2e3          	bge	s3,a5,80008d10 <_dtoa_r+0x10f8>
80008df0:	00040593          	mv	a1,s0
80008df4:	00000693          	li	a3,0
80008df8:	00a00613          	li	a2,10
80008dfc:	00048513          	mv	a0,s1
80008e00:	335000ef          	jal	ra,80009934 <__multadd>
80008e04:	00050413          	mv	s0,a0
80008e08:	fc1ff06f          	j	80008dc8 <_dtoa_r+0x11b0>

80008e0c <__sflush_r>:
__sflush_r():
80008e0c:	00c5d783          	lhu	a5,12(a1) # 7ff0000c <__stack_size+0x7feff80c>
80008e10:	fe010113          	addi	sp,sp,-32
80008e14:	00812c23          	sw	s0,24(sp)
80008e18:	00912a23          	sw	s1,20(sp)
80008e1c:	00112e23          	sw	ra,28(sp)
80008e20:	01212823          	sw	s2,16(sp)
80008e24:	01312623          	sw	s3,12(sp)
80008e28:	0087f713          	andi	a4,a5,8
80008e2c:	00050493          	mv	s1,a0
80008e30:	00058413          	mv	s0,a1
80008e34:	16071263          	bnez	a4,80008f98 <__sflush_r+0x18c>
80008e38:	0045a703          	lw	a4,4(a1)
80008e3c:	00e04a63          	bgtz	a4,80008e50 <__sflush_r+0x44>
80008e40:	0405a703          	lw	a4,64(a1)
80008e44:	00e04663          	bgtz	a4,80008e50 <__sflush_r+0x44>
80008e48:	00000513          	li	a0,0
80008e4c:	1240006f          	j	80008f70 <__sflush_r+0x164>
80008e50:	02c42703          	lw	a4,44(s0)
80008e54:	fe070ae3          	beqz	a4,80008e48 <__sflush_r+0x3c>
80008e58:	000016b7          	lui	a3,0x1
80008e5c:	0004a903          	lw	s2,0(s1)
80008e60:	00d7f7b3          	and	a5,a5,a3
80008e64:	0004a023          	sw	zero,0(s1)
80008e68:	0c078063          	beqz	a5,80008f28 <__sflush_r+0x11c>
80008e6c:	05442503          	lw	a0,84(s0)
80008e70:	00c45783          	lhu	a5,12(s0)
80008e74:	0047f793          	andi	a5,a5,4
80008e78:	00078e63          	beqz	a5,80008e94 <__sflush_r+0x88>
80008e7c:	00442783          	lw	a5,4(s0)
80008e80:	40f50533          	sub	a0,a0,a5
80008e84:	03442783          	lw	a5,52(s0)
80008e88:	00078663          	beqz	a5,80008e94 <__sflush_r+0x88>
80008e8c:	04042783          	lw	a5,64(s0)
80008e90:	40f50533          	sub	a0,a0,a5
80008e94:	02c42783          	lw	a5,44(s0)
80008e98:	02042583          	lw	a1,32(s0)
80008e9c:	00050613          	mv	a2,a0
80008ea0:	00000693          	li	a3,0
80008ea4:	00048513          	mv	a0,s1
80008ea8:	000780e7          	jalr	a5
80008eac:	fff00793          	li	a5,-1
80008eb0:	00c45703          	lhu	a4,12(s0)
80008eb4:	02f51263          	bne	a0,a5,80008ed8 <__sflush_r+0xcc>
80008eb8:	0004a683          	lw	a3,0(s1)
80008ebc:	01d00793          	li	a5,29
80008ec0:	0cd7e663          	bltu	a5,a3,80008f8c <__sflush_r+0x180>
80008ec4:	204007b7          	lui	a5,0x20400
80008ec8:	00178793          	addi	a5,a5,1 # 20400001 <__stack_size+0x203ff801>
80008ecc:	00d7d7b3          	srl	a5,a5,a3
80008ed0:	0017f793          	andi	a5,a5,1
80008ed4:	0a078c63          	beqz	a5,80008f8c <__sflush_r+0x180>
80008ed8:	01042783          	lw	a5,16(s0)
80008edc:	00042223          	sw	zero,4(s0)
80008ee0:	00f42023          	sw	a5,0(s0)
80008ee4:	000017b7          	lui	a5,0x1
80008ee8:	00f77733          	and	a4,a4,a5
80008eec:	00070c63          	beqz	a4,80008f04 <__sflush_r+0xf8>
80008ef0:	fff00793          	li	a5,-1
80008ef4:	00f51663          	bne	a0,a5,80008f00 <__sflush_r+0xf4>
80008ef8:	0004a783          	lw	a5,0(s1)
80008efc:	00079463          	bnez	a5,80008f04 <__sflush_r+0xf8>
80008f00:	04a42a23          	sw	a0,84(s0)
80008f04:	03442583          	lw	a1,52(s0)
80008f08:	0124a023          	sw	s2,0(s1)
80008f0c:	f2058ee3          	beqz	a1,80008e48 <__sflush_r+0x3c>
80008f10:	04440793          	addi	a5,s0,68
80008f14:	00f58663          	beq	a1,a5,80008f20 <__sflush_r+0x114>
80008f18:	00048513          	mv	a0,s1
80008f1c:	550010ef          	jal	ra,8000a46c <_free_r>
80008f20:	02042a23          	sw	zero,52(s0)
80008f24:	f25ff06f          	j	80008e48 <__sflush_r+0x3c>
80008f28:	02042583          	lw	a1,32(s0)
80008f2c:	00100693          	li	a3,1
80008f30:	00000613          	li	a2,0
80008f34:	00048513          	mv	a0,s1
80008f38:	000700e7          	jalr	a4
80008f3c:	fff00793          	li	a5,-1
80008f40:	f2f518e3          	bne	a0,a5,80008e70 <__sflush_r+0x64>
80008f44:	0004a783          	lw	a5,0(s1)
80008f48:	f20784e3          	beqz	a5,80008e70 <__sflush_r+0x64>
80008f4c:	01d00713          	li	a4,29
80008f50:	00e78663          	beq	a5,a4,80008f5c <__sflush_r+0x150>
80008f54:	01600713          	li	a4,22
80008f58:	00e79663          	bne	a5,a4,80008f64 <__sflush_r+0x158>
80008f5c:	0124a023          	sw	s2,0(s1)
80008f60:	ee9ff06f          	j	80008e48 <__sflush_r+0x3c>
80008f64:	00c45783          	lhu	a5,12(s0)
80008f68:	0407e793          	ori	a5,a5,64
80008f6c:	00f41623          	sh	a5,12(s0)
80008f70:	01c12083          	lw	ra,28(sp)
80008f74:	01812403          	lw	s0,24(sp)
80008f78:	01412483          	lw	s1,20(sp)
80008f7c:	01012903          	lw	s2,16(sp)
80008f80:	00c12983          	lw	s3,12(sp)
80008f84:	02010113          	addi	sp,sp,32
80008f88:	00008067          	ret
80008f8c:	04076713          	ori	a4,a4,64
80008f90:	00e41623          	sh	a4,12(s0)
80008f94:	fddff06f          	j	80008f70 <__sflush_r+0x164>
80008f98:	0105a983          	lw	s3,16(a1)
80008f9c:	ea0986e3          	beqz	s3,80008e48 <__sflush_r+0x3c>
80008fa0:	0005a903          	lw	s2,0(a1)
80008fa4:	0037f793          	andi	a5,a5,3
80008fa8:	0135a023          	sw	s3,0(a1)
80008fac:	41390933          	sub	s2,s2,s3
80008fb0:	00000713          	li	a4,0
80008fb4:	00079463          	bnez	a5,80008fbc <__sflush_r+0x1b0>
80008fb8:	0145a703          	lw	a4,20(a1)
80008fbc:	00e42423          	sw	a4,8(s0)
80008fc0:	e92054e3          	blez	s2,80008e48 <__sflush_r+0x3c>
80008fc4:	02842783          	lw	a5,40(s0)
80008fc8:	02042583          	lw	a1,32(s0)
80008fcc:	00090693          	mv	a3,s2
80008fd0:	00098613          	mv	a2,s3
80008fd4:	00048513          	mv	a0,s1
80008fd8:	000780e7          	jalr	a5 # 1000 <__stack_size+0x800>
80008fdc:	00a04c63          	bgtz	a0,80008ff4 <__sflush_r+0x1e8>
80008fe0:	00c45783          	lhu	a5,12(s0)
80008fe4:	fff00513          	li	a0,-1
80008fe8:	0407e793          	ori	a5,a5,64
80008fec:	00f41623          	sh	a5,12(s0)
80008ff0:	f81ff06f          	j	80008f70 <__sflush_r+0x164>
80008ff4:	00a989b3          	add	s3,s3,a0
80008ff8:	40a90933          	sub	s2,s2,a0
80008ffc:	fc5ff06f          	j	80008fc0 <__sflush_r+0x1b4>

80009000 <_fflush_r>:
_fflush_r():
80009000:	0105a783          	lw	a5,16(a1)
80009004:	08078a63          	beqz	a5,80009098 <_fflush_r+0x98>
80009008:	fe010113          	addi	sp,sp,-32
8000900c:	00812c23          	sw	s0,24(sp)
80009010:	00112e23          	sw	ra,28(sp)
80009014:	00050413          	mv	s0,a0
80009018:	00050c63          	beqz	a0,80009030 <_fflush_r+0x30>
8000901c:	01852783          	lw	a5,24(a0)
80009020:	00079863          	bnez	a5,80009030 <_fflush_r+0x30>
80009024:	00b12623          	sw	a1,12(sp)
80009028:	178000ef          	jal	ra,800091a0 <__sinit>
8000902c:	00c12583          	lw	a1,12(sp)
80009030:	00005797          	auipc	a5,0x5
80009034:	de078793          	addi	a5,a5,-544 # 8000de10 <__sf_fake_stdin>
80009038:	02f59263          	bne	a1,a5,8000905c <_fflush_r+0x5c>
8000903c:	00442583          	lw	a1,4(s0)
80009040:	00c59783          	lh	a5,12(a1)
80009044:	04078063          	beqz	a5,80009084 <_fflush_r+0x84>
80009048:	00040513          	mv	a0,s0
8000904c:	01812403          	lw	s0,24(sp)
80009050:	01c12083          	lw	ra,28(sp)
80009054:	02010113          	addi	sp,sp,32
80009058:	db5ff06f          	j	80008e0c <__sflush_r>
8000905c:	00005797          	auipc	a5,0x5
80009060:	dd478793          	addi	a5,a5,-556 # 8000de30 <__sf_fake_stdout>
80009064:	00f59663          	bne	a1,a5,80009070 <_fflush_r+0x70>
80009068:	00842583          	lw	a1,8(s0)
8000906c:	fd5ff06f          	j	80009040 <_fflush_r+0x40>
80009070:	00005797          	auipc	a5,0x5
80009074:	d8078793          	addi	a5,a5,-640 # 8000ddf0 <__sf_fake_stderr>
80009078:	fcf594e3          	bne	a1,a5,80009040 <_fflush_r+0x40>
8000907c:	00c42583          	lw	a1,12(s0)
80009080:	fc1ff06f          	j	80009040 <_fflush_r+0x40>
80009084:	01c12083          	lw	ra,28(sp)
80009088:	01812403          	lw	s0,24(sp)
8000908c:	00000513          	li	a0,0
80009090:	02010113          	addi	sp,sp,32
80009094:	00008067          	ret
80009098:	00000513          	li	a0,0
8000909c:	00008067          	ret

800090a0 <std>:
std():
800090a0:	ff010113          	addi	sp,sp,-16
800090a4:	00812423          	sw	s0,8(sp)
800090a8:	00112623          	sw	ra,12(sp)
800090ac:	00050413          	mv	s0,a0
800090b0:	00b51623          	sh	a1,12(a0)
800090b4:	00c51723          	sh	a2,14(a0)
800090b8:	00052023          	sw	zero,0(a0)
800090bc:	00052223          	sw	zero,4(a0)
800090c0:	00052423          	sw	zero,8(a0)
800090c4:	06052223          	sw	zero,100(a0)
800090c8:	00052823          	sw	zero,16(a0)
800090cc:	00052a23          	sw	zero,20(a0)
800090d0:	00052c23          	sw	zero,24(a0)
800090d4:	00800613          	li	a2,8
800090d8:	00000593          	li	a1,0
800090dc:	05c50513          	addi	a0,a0,92
800090e0:	624000ef          	jal	ra,80009704 <memset>
800090e4:	00002797          	auipc	a5,0x2
800090e8:	a8878793          	addi	a5,a5,-1400 # 8000ab6c <__sread>
800090ec:	02f42223          	sw	a5,36(s0)
800090f0:	00002797          	auipc	a5,0x2
800090f4:	acc78793          	addi	a5,a5,-1332 # 8000abbc <__swrite>
800090f8:	02f42423          	sw	a5,40(s0)
800090fc:	00002797          	auipc	a5,0x2
80009100:	b4478793          	addi	a5,a5,-1212 # 8000ac40 <__sseek>
80009104:	02f42623          	sw	a5,44(s0)
80009108:	00002797          	auipc	a5,0x2
8000910c:	b9078793          	addi	a5,a5,-1136 # 8000ac98 <__sclose>
80009110:	00c12083          	lw	ra,12(sp)
80009114:	02842023          	sw	s0,32(s0)
80009118:	02f42823          	sw	a5,48(s0)
8000911c:	00812403          	lw	s0,8(sp)
80009120:	01010113          	addi	sp,sp,16
80009124:	00008067          	ret

80009128 <_cleanup_r>:
_cleanup_r():
80009128:	00000597          	auipc	a1,0x0
8000912c:	ed858593          	addi	a1,a1,-296 # 80009000 <_fflush_r>
80009130:	2080006f          	j	80009338 <_fwalk_reent>

80009134 <__sfmoreglue>:
__sfmoreglue():
80009134:	ff010113          	addi	sp,sp,-16
80009138:	00912223          	sw	s1,4(sp)
8000913c:	06800613          	li	a2,104
80009140:	fff58493          	addi	s1,a1,-1
80009144:	02c484b3          	mul	s1,s1,a2
80009148:	01212023          	sw	s2,0(sp)
8000914c:	00058913          	mv	s2,a1
80009150:	00812423          	sw	s0,8(sp)
80009154:	00112623          	sw	ra,12(sp)
80009158:	07448593          	addi	a1,s1,116
8000915c:	40c010ef          	jal	ra,8000a568 <_malloc_r>
80009160:	00050413          	mv	s0,a0
80009164:	02050063          	beqz	a0,80009184 <__sfmoreglue+0x50>
80009168:	00052023          	sw	zero,0(a0)
8000916c:	01252223          	sw	s2,4(a0)
80009170:	00c50513          	addi	a0,a0,12
80009174:	00a42423          	sw	a0,8(s0)
80009178:	06848613          	addi	a2,s1,104
8000917c:	00000593          	li	a1,0
80009180:	584000ef          	jal	ra,80009704 <memset>
80009184:	00c12083          	lw	ra,12(sp)
80009188:	00040513          	mv	a0,s0
8000918c:	00812403          	lw	s0,8(sp)
80009190:	00412483          	lw	s1,4(sp)
80009194:	00012903          	lw	s2,0(sp)
80009198:	01010113          	addi	sp,sp,16
8000919c:	00008067          	ret

800091a0 <__sinit>:
__sinit():
800091a0:	01852783          	lw	a5,24(a0)
800091a4:	0a079463          	bnez	a5,8000924c <__sinit+0xac>
800091a8:	ff010113          	addi	sp,sp,-16
800091ac:	00812423          	sw	s0,8(sp)
800091b0:	00112623          	sw	ra,12(sp)
800091b4:	00000797          	auipc	a5,0x0
800091b8:	f7478793          	addi	a5,a5,-140 # 80009128 <_cleanup_r>
800091bc:	02f52423          	sw	a5,40(a0)
800091c0:	04052423          	sw	zero,72(a0)
800091c4:	04052623          	sw	zero,76(a0)
800091c8:	04052823          	sw	zero,80(a0)
800091cc:	9d81a783          	lw	a5,-1576(gp) # 900003a8 <_global_impure_ptr>
800091d0:	00050413          	mv	s0,a0
800091d4:	00f51663          	bne	a0,a5,800091e0 <__sinit+0x40>
800091d8:	00100793          	li	a5,1
800091dc:	00f52c23          	sw	a5,24(a0)
800091e0:	00040513          	mv	a0,s0
800091e4:	06c000ef          	jal	ra,80009250 <__sfp>
800091e8:	00a42223          	sw	a0,4(s0)
800091ec:	00040513          	mv	a0,s0
800091f0:	060000ef          	jal	ra,80009250 <__sfp>
800091f4:	00a42423          	sw	a0,8(s0)
800091f8:	00040513          	mv	a0,s0
800091fc:	054000ef          	jal	ra,80009250 <__sfp>
80009200:	00a42623          	sw	a0,12(s0)
80009204:	00442503          	lw	a0,4(s0)
80009208:	00000613          	li	a2,0
8000920c:	00400593          	li	a1,4
80009210:	e91ff0ef          	jal	ra,800090a0 <std>
80009214:	00842503          	lw	a0,8(s0)
80009218:	00100613          	li	a2,1
8000921c:	00900593          	li	a1,9
80009220:	e81ff0ef          	jal	ra,800090a0 <std>
80009224:	00c42503          	lw	a0,12(s0)
80009228:	00200613          	li	a2,2
8000922c:	01200593          	li	a1,18
80009230:	e71ff0ef          	jal	ra,800090a0 <std>
80009234:	00100793          	li	a5,1
80009238:	00c12083          	lw	ra,12(sp)
8000923c:	00f42c23          	sw	a5,24(s0)
80009240:	00812403          	lw	s0,8(sp)
80009244:	01010113          	addi	sp,sp,16
80009248:	00008067          	ret
8000924c:	00008067          	ret

80009250 <__sfp>:
__sfp():
80009250:	ff010113          	addi	sp,sp,-16
80009254:	00912223          	sw	s1,4(sp)
80009258:	9d81a483          	lw	s1,-1576(gp) # 900003a8 <_global_impure_ptr>
8000925c:	0184a783          	lw	a5,24(s1)
80009260:	01212023          	sw	s2,0(sp)
80009264:	00112623          	sw	ra,12(sp)
80009268:	00812423          	sw	s0,8(sp)
8000926c:	00050913          	mv	s2,a0
80009270:	00079663          	bnez	a5,8000927c <__sfp+0x2c>
80009274:	00048513          	mv	a0,s1
80009278:	f29ff0ef          	jal	ra,800091a0 <__sinit>
8000927c:	04848493          	addi	s1,s1,72
80009280:	0084a403          	lw	s0,8(s1)
80009284:	0044a783          	lw	a5,4(s1)
80009288:	fff78793          	addi	a5,a5,-1
8000928c:	0007da63          	bgez	a5,800092a0 <__sfp+0x50>
80009290:	0004a783          	lw	a5,0(s1)
80009294:	08078063          	beqz	a5,80009314 <__sfp+0xc4>
80009298:	0004a483          	lw	s1,0(s1)
8000929c:	fe5ff06f          	j	80009280 <__sfp+0x30>
800092a0:	00c41703          	lh	a4,12(s0)
800092a4:	06071463          	bnez	a4,8000930c <__sfp+0xbc>
800092a8:	ffff07b7          	lui	a5,0xffff0
800092ac:	00178793          	addi	a5,a5,1 # ffff0001 <_sp+0x6ffe0001>
800092b0:	06042223          	sw	zero,100(s0)
800092b4:	00042023          	sw	zero,0(s0)
800092b8:	00042223          	sw	zero,4(s0)
800092bc:	00042423          	sw	zero,8(s0)
800092c0:	00f42623          	sw	a5,12(s0)
800092c4:	00042823          	sw	zero,16(s0)
800092c8:	00042a23          	sw	zero,20(s0)
800092cc:	00042c23          	sw	zero,24(s0)
800092d0:	00800613          	li	a2,8
800092d4:	00000593          	li	a1,0
800092d8:	05c40513          	addi	a0,s0,92
800092dc:	428000ef          	jal	ra,80009704 <memset>
800092e0:	02042a23          	sw	zero,52(s0)
800092e4:	02042c23          	sw	zero,56(s0)
800092e8:	04042423          	sw	zero,72(s0)
800092ec:	04042623          	sw	zero,76(s0)
800092f0:	00c12083          	lw	ra,12(sp)
800092f4:	00040513          	mv	a0,s0
800092f8:	00812403          	lw	s0,8(sp)
800092fc:	00412483          	lw	s1,4(sp)
80009300:	00012903          	lw	s2,0(sp)
80009304:	01010113          	addi	sp,sp,16
80009308:	00008067          	ret
8000930c:	06840413          	addi	s0,s0,104
80009310:	f79ff06f          	j	80009288 <__sfp+0x38>
80009314:	00400593          	li	a1,4
80009318:	00090513          	mv	a0,s2
8000931c:	e19ff0ef          	jal	ra,80009134 <__sfmoreglue>
80009320:	00a4a023          	sw	a0,0(s1)
80009324:	00050413          	mv	s0,a0
80009328:	f60518e3          	bnez	a0,80009298 <__sfp+0x48>
8000932c:	00c00793          	li	a5,12
80009330:	00f92023          	sw	a5,0(s2)
80009334:	fbdff06f          	j	800092f0 <__sfp+0xa0>

80009338 <_fwalk_reent>:
_fwalk_reent():
80009338:	fd010113          	addi	sp,sp,-48
8000933c:	02812423          	sw	s0,40(sp)
80009340:	03212023          	sw	s2,32(sp)
80009344:	01312e23          	sw	s3,28(sp)
80009348:	01412c23          	sw	s4,24(sp)
8000934c:	01612823          	sw	s6,16(sp)
80009350:	01712623          	sw	s7,12(sp)
80009354:	02112623          	sw	ra,44(sp)
80009358:	02912223          	sw	s1,36(sp)
8000935c:	01512a23          	sw	s5,20(sp)
80009360:	00050913          	mv	s2,a0
80009364:	00058a13          	mv	s4,a1
80009368:	04850413          	addi	s0,a0,72
8000936c:	00000993          	li	s3,0
80009370:	00100b13          	li	s6,1
80009374:	fff00b93          	li	s7,-1
80009378:	00842483          	lw	s1,8(s0)
8000937c:	00442a83          	lw	s5,4(s0)
80009380:	fffa8a93          	addi	s5,s5,-1
80009384:	020ade63          	bgez	s5,800093c0 <_fwalk_reent+0x88>
80009388:	00042403          	lw	s0,0(s0)
8000938c:	fe0416e3          	bnez	s0,80009378 <_fwalk_reent+0x40>
80009390:	02c12083          	lw	ra,44(sp)
80009394:	02812403          	lw	s0,40(sp)
80009398:	02412483          	lw	s1,36(sp)
8000939c:	02012903          	lw	s2,32(sp)
800093a0:	01812a03          	lw	s4,24(sp)
800093a4:	01412a83          	lw	s5,20(sp)
800093a8:	01012b03          	lw	s6,16(sp)
800093ac:	00c12b83          	lw	s7,12(sp)
800093b0:	00098513          	mv	a0,s3
800093b4:	01c12983          	lw	s3,28(sp)
800093b8:	03010113          	addi	sp,sp,48
800093bc:	00008067          	ret
800093c0:	00c4d783          	lhu	a5,12(s1)
800093c4:	00fb7e63          	bgeu	s6,a5,800093e0 <_fwalk_reent+0xa8>
800093c8:	00e49783          	lh	a5,14(s1)
800093cc:	01778a63          	beq	a5,s7,800093e0 <_fwalk_reent+0xa8>
800093d0:	00048593          	mv	a1,s1
800093d4:	00090513          	mv	a0,s2
800093d8:	000a00e7          	jalr	s4
800093dc:	00a9e9b3          	or	s3,s3,a0
800093e0:	06848493          	addi	s1,s1,104
800093e4:	f9dff06f          	j	80009380 <_fwalk_reent+0x48>

800093e8 <_localeconv_r>:
_localeconv_r():
800093e8:	0fff7517          	auipc	a0,0xfff7
800093ec:	d6850513          	addi	a0,a0,-664 # 90000150 <__global_locale+0xf0>
800093f0:	00008067          	ret

800093f4 <__swhatbuf_r>:
__swhatbuf_r():
800093f4:	f9010113          	addi	sp,sp,-112
800093f8:	07212023          	sw	s2,96(sp)
800093fc:	00058913          	mv	s2,a1
80009400:	00e59583          	lh	a1,14(a1)
80009404:	06812423          	sw	s0,104(sp)
80009408:	06912223          	sw	s1,100(sp)
8000940c:	06112623          	sw	ra,108(sp)
80009410:	00060413          	mv	s0,a2
80009414:	00068493          	mv	s1,a3
80009418:	0005de63          	bgez	a1,80009434 <__swhatbuf_r+0x40>
8000941c:	00c91783          	lh	a5,12(s2)
80009420:	0004a023          	sw	zero,0(s1)
80009424:	0807f793          	andi	a5,a5,128
80009428:	02079c63          	bnez	a5,80009460 <__swhatbuf_r+0x6c>
8000942c:	40000793          	li	a5,1024
80009430:	0340006f          	j	80009464 <__swhatbuf_r+0x70>
80009434:	00810613          	addi	a2,sp,8
80009438:	1b1010ef          	jal	ra,8000ade8 <_fstat_r>
8000943c:	fe0540e3          	bltz	a0,8000941c <__swhatbuf_r+0x28>
80009440:	00c12703          	lw	a4,12(sp)
80009444:	0000f7b7          	lui	a5,0xf
80009448:	00e7f7b3          	and	a5,a5,a4
8000944c:	ffffe737          	lui	a4,0xffffe
80009450:	00e787b3          	add	a5,a5,a4
80009454:	0017b793          	seqz	a5,a5
80009458:	00f4a023          	sw	a5,0(s1)
8000945c:	fd1ff06f          	j	8000942c <__swhatbuf_r+0x38>
80009460:	04000793          	li	a5,64
80009464:	06c12083          	lw	ra,108(sp)
80009468:	00f42023          	sw	a5,0(s0)
8000946c:	06812403          	lw	s0,104(sp)
80009470:	06412483          	lw	s1,100(sp)
80009474:	06012903          	lw	s2,96(sp)
80009478:	00000513          	li	a0,0
8000947c:	07010113          	addi	sp,sp,112
80009480:	00008067          	ret

80009484 <__smakebuf_r>:
__smakebuf_r():
80009484:	00c5d783          	lhu	a5,12(a1)
80009488:	fe010113          	addi	sp,sp,-32
8000948c:	00812c23          	sw	s0,24(sp)
80009490:	00112e23          	sw	ra,28(sp)
80009494:	00912a23          	sw	s1,20(sp)
80009498:	01212823          	sw	s2,16(sp)
8000949c:	0027f793          	andi	a5,a5,2
800094a0:	00058413          	mv	s0,a1
800094a4:	02078863          	beqz	a5,800094d4 <__smakebuf_r+0x50>
800094a8:	04740793          	addi	a5,s0,71
800094ac:	00f42023          	sw	a5,0(s0)
800094b0:	00f42823          	sw	a5,16(s0)
800094b4:	00100793          	li	a5,1
800094b8:	00f42a23          	sw	a5,20(s0)
800094bc:	01c12083          	lw	ra,28(sp)
800094c0:	01812403          	lw	s0,24(sp)
800094c4:	01412483          	lw	s1,20(sp)
800094c8:	01012903          	lw	s2,16(sp)
800094cc:	02010113          	addi	sp,sp,32
800094d0:	00008067          	ret
800094d4:	00c10693          	addi	a3,sp,12
800094d8:	00810613          	addi	a2,sp,8
800094dc:	00050913          	mv	s2,a0
800094e0:	f15ff0ef          	jal	ra,800093f4 <__swhatbuf_r>
800094e4:	00812583          	lw	a1,8(sp)
800094e8:	00050493          	mv	s1,a0
800094ec:	00090513          	mv	a0,s2
800094f0:	078010ef          	jal	ra,8000a568 <_malloc_r>
800094f4:	02051063          	bnez	a0,80009514 <__smakebuf_r+0x90>
800094f8:	00c41783          	lh	a5,12(s0)
800094fc:	2007f713          	andi	a4,a5,512
80009500:	fa071ee3          	bnez	a4,800094bc <__smakebuf_r+0x38>
80009504:	ffc7f793          	andi	a5,a5,-4
80009508:	0027e793          	ori	a5,a5,2
8000950c:	00f41623          	sh	a5,12(s0)
80009510:	f99ff06f          	j	800094a8 <__smakebuf_r+0x24>
80009514:	00000797          	auipc	a5,0x0
80009518:	c1478793          	addi	a5,a5,-1004 # 80009128 <_cleanup_r>
8000951c:	02f92423          	sw	a5,40(s2)
80009520:	00c45783          	lhu	a5,12(s0)
80009524:	00a42023          	sw	a0,0(s0)
80009528:	00a42823          	sw	a0,16(s0)
8000952c:	0807e793          	ori	a5,a5,128
80009530:	00f41623          	sh	a5,12(s0)
80009534:	00812783          	lw	a5,8(sp)
80009538:	00f42a23          	sw	a5,20(s0)
8000953c:	00c12783          	lw	a5,12(sp)
80009540:	02078263          	beqz	a5,80009564 <__smakebuf_r+0xe0>
80009544:	00e41583          	lh	a1,14(s0)
80009548:	00090513          	mv	a0,s2
8000954c:	0e1010ef          	jal	ra,8000ae2c <_isatty_r>
80009550:	00050a63          	beqz	a0,80009564 <__smakebuf_r+0xe0>
80009554:	00c45783          	lhu	a5,12(s0)
80009558:	ffc7f793          	andi	a5,a5,-4
8000955c:	0017e793          	ori	a5,a5,1
80009560:	00f41623          	sh	a5,12(s0)
80009564:	00c45503          	lhu	a0,12(s0)
80009568:	00a4e4b3          	or	s1,s1,a0
8000956c:	00941623          	sh	s1,12(s0)
80009570:	f4dff06f          	j	800094bc <__smakebuf_r+0x38>

80009574 <malloc>:
malloc():
80009574:	00050593          	mv	a1,a0
80009578:	80c1a503          	lw	a0,-2036(gp) # 900001dc <_impure_ptr>
8000957c:	7ed0006f          	j	8000a568 <_malloc_r>

80009580 <__ascii_mbtowc>:
__ascii_mbtowc():
80009580:	02059a63          	bnez	a1,800095b4 <__ascii_mbtowc+0x34>
80009584:	ff010113          	addi	sp,sp,-16
80009588:	00c10593          	addi	a1,sp,12
8000958c:	00000513          	li	a0,0
80009590:	00060e63          	beqz	a2,800095ac <__ascii_mbtowc+0x2c>
80009594:	ffe00513          	li	a0,-2
80009598:	00068a63          	beqz	a3,800095ac <__ascii_mbtowc+0x2c>
8000959c:	00064783          	lbu	a5,0(a2)
800095a0:	00f5a023          	sw	a5,0(a1)
800095a4:	00064503          	lbu	a0,0(a2)
800095a8:	00a03533          	snez	a0,a0
800095ac:	01010113          	addi	sp,sp,16
800095b0:	00008067          	ret
800095b4:	00000513          	li	a0,0
800095b8:	02060063          	beqz	a2,800095d8 <__ascii_mbtowc+0x58>
800095bc:	ffe00513          	li	a0,-2
800095c0:	00068c63          	beqz	a3,800095d8 <__ascii_mbtowc+0x58>
800095c4:	00064783          	lbu	a5,0(a2)
800095c8:	00f5a023          	sw	a5,0(a1)
800095cc:	00064503          	lbu	a0,0(a2)
800095d0:	00a03533          	snez	a0,a0
800095d4:	00008067          	ret
800095d8:	00008067          	ret

800095dc <memchr>:
memchr():
800095dc:	0ff5f593          	andi	a1,a1,255
800095e0:	00c50633          	add	a2,a0,a2
800095e4:	00c51663          	bne	a0,a2,800095f0 <memchr+0x14>
800095e8:	00000513          	li	a0,0
800095ec:	00008067          	ret
800095f0:	00054783          	lbu	a5,0(a0)
800095f4:	feb78ce3          	beq	a5,a1,800095ec <memchr+0x10>
800095f8:	00150513          	addi	a0,a0,1
800095fc:	fe9ff06f          	j	800095e4 <memchr+0x8>

80009600 <memcpy>:
memcpy():
80009600:	00a5c7b3          	xor	a5,a1,a0
80009604:	0037f793          	andi	a5,a5,3
80009608:	00c506b3          	add	a3,a0,a2
8000960c:	00079663          	bnez	a5,80009618 <memcpy+0x18>
80009610:	00300793          	li	a5,3
80009614:	02c7e263          	bltu	a5,a2,80009638 <memcpy+0x38>
80009618:	00050793          	mv	a5,a0
8000961c:	0cd57863          	bgeu	a0,a3,800096ec <memcpy+0xec>
80009620:	0005c703          	lbu	a4,0(a1)
80009624:	00178793          	addi	a5,a5,1
80009628:	00158593          	addi	a1,a1,1
8000962c:	fee78fa3          	sb	a4,-1(a5)
80009630:	fed7e8e3          	bltu	a5,a3,80009620 <memcpy+0x20>
80009634:	00008067          	ret
80009638:	00357713          	andi	a4,a0,3
8000963c:	00050793          	mv	a5,a0
80009640:	00070e63          	beqz	a4,8000965c <memcpy+0x5c>
80009644:	0005c703          	lbu	a4,0(a1)
80009648:	00178793          	addi	a5,a5,1
8000964c:	00158593          	addi	a1,a1,1
80009650:	fee78fa3          	sb	a4,-1(a5)
80009654:	0037f713          	andi	a4,a5,3
80009658:	fe9ff06f          	j	80009640 <memcpy+0x40>
8000965c:	ffc6f713          	andi	a4,a3,-4
80009660:	fe070613          	addi	a2,a4,-32 # ffffdfe0 <_sp+0x6ffedfe0>
80009664:	04c7fc63          	bgeu	a5,a2,800096bc <memcpy+0xbc>
80009668:	0005a383          	lw	t2,0(a1)
8000966c:	0045a283          	lw	t0,4(a1)
80009670:	0085af83          	lw	t6,8(a1)
80009674:	00c5af03          	lw	t5,12(a1)
80009678:	0105ae83          	lw	t4,16(a1)
8000967c:	0145ae03          	lw	t3,20(a1)
80009680:	0185a303          	lw	t1,24(a1)
80009684:	01c5a883          	lw	a7,28(a1)
80009688:	0077a023          	sw	t2,0(a5)
8000968c:	0057a223          	sw	t0,4(a5)
80009690:	0205a803          	lw	a6,32(a1)
80009694:	01f7a423          	sw	t6,8(a5)
80009698:	01e7a623          	sw	t5,12(a5)
8000969c:	01d7a823          	sw	t4,16(a5)
800096a0:	01c7aa23          	sw	t3,20(a5)
800096a4:	0067ac23          	sw	t1,24(a5)
800096a8:	0117ae23          	sw	a7,28(a5)
800096ac:	02458593          	addi	a1,a1,36
800096b0:	02478793          	addi	a5,a5,36
800096b4:	ff07ae23          	sw	a6,-4(a5)
800096b8:	fadff06f          	j	80009664 <memcpy+0x64>
800096bc:	00058813          	mv	a6,a1
800096c0:	00078613          	mv	a2,a5
800096c4:	02e66663          	bltu	a2,a4,800096f0 <memcpy+0xf0>
800096c8:	ffd78813          	addi	a6,a5,-3
800096cc:	00000613          	li	a2,0
800096d0:	01076863          	bltu	a4,a6,800096e0 <memcpy+0xe0>
800096d4:	00370713          	addi	a4,a4,3
800096d8:	40f70733          	sub	a4,a4,a5
800096dc:	ffc77613          	andi	a2,a4,-4
800096e0:	00c787b3          	add	a5,a5,a2
800096e4:	00c585b3          	add	a1,a1,a2
800096e8:	f2d7ece3          	bltu	a5,a3,80009620 <memcpy+0x20>
800096ec:	00008067          	ret
800096f0:	00082883          	lw	a7,0(a6)
800096f4:	00460613          	addi	a2,a2,4
800096f8:	00480813          	addi	a6,a6,4
800096fc:	ff162e23          	sw	a7,-4(a2)
80009700:	fc5ff06f          	j	800096c4 <memcpy+0xc4>

80009704 <memset>:
memset():
80009704:	00f00313          	li	t1,15
80009708:	00050713          	mv	a4,a0
8000970c:	02c37e63          	bgeu	t1,a2,80009748 <memset+0x44>
80009710:	00f77793          	andi	a5,a4,15
80009714:	0a079063          	bnez	a5,800097b4 <memset+0xb0>
80009718:	08059263          	bnez	a1,8000979c <memset+0x98>
8000971c:	ff067693          	andi	a3,a2,-16
80009720:	00f67613          	andi	a2,a2,15
80009724:	00e686b3          	add	a3,a3,a4
80009728:	00b72023          	sw	a1,0(a4)
8000972c:	00b72223          	sw	a1,4(a4)
80009730:	00b72423          	sw	a1,8(a4)
80009734:	00b72623          	sw	a1,12(a4)
80009738:	01070713          	addi	a4,a4,16
8000973c:	fed766e3          	bltu	a4,a3,80009728 <memset+0x24>
80009740:	00061463          	bnez	a2,80009748 <memset+0x44>
80009744:	00008067          	ret
80009748:	40c306b3          	sub	a3,t1,a2
8000974c:	00269693          	slli	a3,a3,0x2
80009750:	00000297          	auipc	t0,0x0
80009754:	005686b3          	add	a3,a3,t0
80009758:	00c68067          	jr	12(a3) # 100c <__stack_size+0x80c>
8000975c:	00b70723          	sb	a1,14(a4)
80009760:	00b706a3          	sb	a1,13(a4)
80009764:	00b70623          	sb	a1,12(a4)
80009768:	00b705a3          	sb	a1,11(a4)
8000976c:	00b70523          	sb	a1,10(a4)
80009770:	00b704a3          	sb	a1,9(a4)
80009774:	00b70423          	sb	a1,8(a4)
80009778:	00b703a3          	sb	a1,7(a4)
8000977c:	00b70323          	sb	a1,6(a4)
80009780:	00b702a3          	sb	a1,5(a4)
80009784:	00b70223          	sb	a1,4(a4)
80009788:	00b701a3          	sb	a1,3(a4)
8000978c:	00b70123          	sb	a1,2(a4)
80009790:	00b700a3          	sb	a1,1(a4)
80009794:	00b70023          	sb	a1,0(a4)
80009798:	00008067          	ret
8000979c:	0ff5f593          	andi	a1,a1,255
800097a0:	00859693          	slli	a3,a1,0x8
800097a4:	00d5e5b3          	or	a1,a1,a3
800097a8:	01059693          	slli	a3,a1,0x10
800097ac:	00d5e5b3          	or	a1,a1,a3
800097b0:	f6dff06f          	j	8000971c <memset+0x18>
800097b4:	00279693          	slli	a3,a5,0x2
800097b8:	00000297          	auipc	t0,0x0
800097bc:	005686b3          	add	a3,a3,t0
800097c0:	00008293          	mv	t0,ra
800097c4:	fa0680e7          	jalr	-96(a3)
800097c8:	00028093          	mv	ra,t0
800097cc:	ff078793          	addi	a5,a5,-16
800097d0:	40f70733          	sub	a4,a4,a5
800097d4:	00f60633          	add	a2,a2,a5
800097d8:	f6c378e3          	bgeu	t1,a2,80009748 <memset+0x44>
800097dc:	f3dff06f          	j	80009718 <memset+0x14>

800097e0 <_Balloc>:
_Balloc():
800097e0:	02452783          	lw	a5,36(a0)
800097e4:	ff010113          	addi	sp,sp,-16
800097e8:	00812423          	sw	s0,8(sp)
800097ec:	00912223          	sw	s1,4(sp)
800097f0:	00112623          	sw	ra,12(sp)
800097f4:	01212023          	sw	s2,0(sp)
800097f8:	00050413          	mv	s0,a0
800097fc:	00058493          	mv	s1,a1
80009800:	02079063          	bnez	a5,80009820 <_Balloc+0x40>
80009804:	01000513          	li	a0,16
80009808:	d6dff0ef          	jal	ra,80009574 <malloc>
8000980c:	02a42223          	sw	a0,36(s0)
80009810:	00052223          	sw	zero,4(a0)
80009814:	00052423          	sw	zero,8(a0)
80009818:	00052023          	sw	zero,0(a0)
8000981c:	00052623          	sw	zero,12(a0)
80009820:	02442903          	lw	s2,36(s0)
80009824:	00c92783          	lw	a5,12(s2)
80009828:	04078463          	beqz	a5,80009870 <_Balloc+0x90>
8000982c:	02442703          	lw	a4,36(s0)
80009830:	00249793          	slli	a5,s1,0x2
80009834:	00c72703          	lw	a4,12(a4)
80009838:	00f707b3          	add	a5,a4,a5
8000983c:	0007a503          	lw	a0,0(a5)
80009840:	06051663          	bnez	a0,800098ac <_Balloc+0xcc>
80009844:	00100913          	li	s2,1
80009848:	00991933          	sll	s2,s2,s1
8000984c:	00590613          	addi	a2,s2,5
80009850:	00261613          	slli	a2,a2,0x2
80009854:	00100593          	li	a1,1
80009858:	00040513          	mv	a0,s0
8000985c:	3cd000ef          	jal	ra,8000a428 <_calloc_r>
80009860:	02050863          	beqz	a0,80009890 <_Balloc+0xb0>
80009864:	00952223          	sw	s1,4(a0)
80009868:	01252423          	sw	s2,8(a0)
8000986c:	0480006f          	j	800098b4 <_Balloc+0xd4>
80009870:	02100613          	li	a2,33
80009874:	00400593          	li	a1,4
80009878:	00040513          	mv	a0,s0
8000987c:	3ad000ef          	jal	ra,8000a428 <_calloc_r>
80009880:	02442783          	lw	a5,36(s0)
80009884:	00a92623          	sw	a0,12(s2)
80009888:	00c7a783          	lw	a5,12(a5)
8000988c:	fa0790e3          	bnez	a5,8000982c <_Balloc+0x4c>
80009890:	00000513          	li	a0,0
80009894:	00c12083          	lw	ra,12(sp)
80009898:	00812403          	lw	s0,8(sp)
8000989c:	00412483          	lw	s1,4(sp)
800098a0:	00012903          	lw	s2,0(sp)
800098a4:	01010113          	addi	sp,sp,16
800098a8:	00008067          	ret
800098ac:	00052703          	lw	a4,0(a0)
800098b0:	00e7a023          	sw	a4,0(a5)
800098b4:	00052823          	sw	zero,16(a0)
800098b8:	00052623          	sw	zero,12(a0)
800098bc:	fd9ff06f          	j	80009894 <_Balloc+0xb4>

800098c0 <_Bfree>:
_Bfree():
800098c0:	02452783          	lw	a5,36(a0)
800098c4:	ff010113          	addi	sp,sp,-16
800098c8:	00812423          	sw	s0,8(sp)
800098cc:	00912223          	sw	s1,4(sp)
800098d0:	00112623          	sw	ra,12(sp)
800098d4:	00050493          	mv	s1,a0
800098d8:	00058413          	mv	s0,a1
800098dc:	02079063          	bnez	a5,800098fc <_Bfree+0x3c>
800098e0:	01000513          	li	a0,16
800098e4:	c91ff0ef          	jal	ra,80009574 <malloc>
800098e8:	02a4a223          	sw	a0,36(s1)
800098ec:	00052223          	sw	zero,4(a0)
800098f0:	00052423          	sw	zero,8(a0)
800098f4:	00052023          	sw	zero,0(a0)
800098f8:	00052623          	sw	zero,12(a0)
800098fc:	02040263          	beqz	s0,80009920 <_Bfree+0x60>
80009900:	0244a683          	lw	a3,36(s1)
80009904:	00442783          	lw	a5,4(s0)
80009908:	00279713          	slli	a4,a5,0x2
8000990c:	00c6a783          	lw	a5,12(a3)
80009910:	00e787b3          	add	a5,a5,a4
80009914:	0007a703          	lw	a4,0(a5)
80009918:	00e42023          	sw	a4,0(s0)
8000991c:	0087a023          	sw	s0,0(a5)
80009920:	00c12083          	lw	ra,12(sp)
80009924:	00812403          	lw	s0,8(sp)
80009928:	00412483          	lw	s1,4(sp)
8000992c:	01010113          	addi	sp,sp,16
80009930:	00008067          	ret

80009934 <__multadd>:
__multadd():
80009934:	fe010113          	addi	sp,sp,-32
80009938:	00812c23          	sw	s0,24(sp)
8000993c:	01212823          	sw	s2,16(sp)
80009940:	01312623          	sw	s3,12(sp)
80009944:	0105a903          	lw	s2,16(a1)
80009948:	00058413          	mv	s0,a1
8000994c:	00068993          	mv	s3,a3
80009950:	01458693          	addi	a3,a1,20
80009954:	000105b7          	lui	a1,0x10
80009958:	00912a23          	sw	s1,20(sp)
8000995c:	00112e23          	sw	ra,28(sp)
80009960:	00050493          	mv	s1,a0
80009964:	01412423          	sw	s4,8(sp)
80009968:	00000513          	li	a0,0
8000996c:	fff58593          	addi	a1,a1,-1 # ffff <__stack_size+0xf7ff>
80009970:	0006a783          	lw	a5,0(a3)
80009974:	00468693          	addi	a3,a3,4
80009978:	00150513          	addi	a0,a0,1
8000997c:	00b7f733          	and	a4,a5,a1
80009980:	02c70733          	mul	a4,a4,a2
80009984:	0107d793          	srli	a5,a5,0x10
80009988:	02c787b3          	mul	a5,a5,a2
8000998c:	01370733          	add	a4,a4,s3
80009990:	01075813          	srli	a6,a4,0x10
80009994:	00b77733          	and	a4,a4,a1
80009998:	010787b3          	add	a5,a5,a6
8000999c:	0107d993          	srli	s3,a5,0x10
800099a0:	01079793          	slli	a5,a5,0x10
800099a4:	00e787b3          	add	a5,a5,a4
800099a8:	fef6ae23          	sw	a5,-4(a3)
800099ac:	fd2542e3          	blt	a0,s2,80009970 <__multadd+0x3c>
800099b0:	08098063          	beqz	s3,80009a30 <__multadd+0xfc>
800099b4:	00842783          	lw	a5,8(s0)
800099b8:	06f94063          	blt	s2,a5,80009a18 <__multadd+0xe4>
800099bc:	00442583          	lw	a1,4(s0)
800099c0:	00048513          	mv	a0,s1
800099c4:	00158593          	addi	a1,a1,1
800099c8:	e19ff0ef          	jal	ra,800097e0 <_Balloc>
800099cc:	00050a13          	mv	s4,a0
800099d0:	02051063          	bnez	a0,800099f0 <__multadd+0xbc>
800099d4:	00004697          	auipc	a3,0x4
800099d8:	3ac68693          	addi	a3,a3,940 # 8000dd80 <__clz_tab+0x1a4>
800099dc:	00000613          	li	a2,0
800099e0:	0b500593          	li	a1,181
800099e4:	00004517          	auipc	a0,0x4
800099e8:	47c50513          	addi	a0,a0,1148 # 8000de60 <__sf_fake_stdout+0x30>
800099ec:	32c010ef          	jal	ra,8000ad18 <__assert_func>
800099f0:	01042603          	lw	a2,16(s0)
800099f4:	00c40593          	addi	a1,s0,12
800099f8:	00c50513          	addi	a0,a0,12
800099fc:	00260613          	addi	a2,a2,2
80009a00:	00261613          	slli	a2,a2,0x2
80009a04:	bfdff0ef          	jal	ra,80009600 <memcpy>
80009a08:	00040593          	mv	a1,s0
80009a0c:	00048513          	mv	a0,s1
80009a10:	eb1ff0ef          	jal	ra,800098c0 <_Bfree>
80009a14:	000a0413          	mv	s0,s4
80009a18:	00490793          	addi	a5,s2,4
80009a1c:	00279793          	slli	a5,a5,0x2
80009a20:	00f407b3          	add	a5,s0,a5
80009a24:	0137a223          	sw	s3,4(a5)
80009a28:	00190913          	addi	s2,s2,1
80009a2c:	01242823          	sw	s2,16(s0)
80009a30:	01c12083          	lw	ra,28(sp)
80009a34:	00040513          	mv	a0,s0
80009a38:	01812403          	lw	s0,24(sp)
80009a3c:	01412483          	lw	s1,20(sp)
80009a40:	01012903          	lw	s2,16(sp)
80009a44:	00c12983          	lw	s3,12(sp)
80009a48:	00812a03          	lw	s4,8(sp)
80009a4c:	02010113          	addi	sp,sp,32
80009a50:	00008067          	ret

80009a54 <__hi0bits>:
__hi0bits():
80009a54:	ffff0737          	lui	a4,0xffff0
80009a58:	00e57733          	and	a4,a0,a4
80009a5c:	00050793          	mv	a5,a0
80009a60:	00000513          	li	a0,0
80009a64:	00071663          	bnez	a4,80009a70 <__hi0bits+0x1c>
80009a68:	01079793          	slli	a5,a5,0x10
80009a6c:	01000513          	li	a0,16
80009a70:	ff000737          	lui	a4,0xff000
80009a74:	00e7f733          	and	a4,a5,a4
80009a78:	00071663          	bnez	a4,80009a84 <__hi0bits+0x30>
80009a7c:	00850513          	addi	a0,a0,8
80009a80:	00879793          	slli	a5,a5,0x8
80009a84:	f0000737          	lui	a4,0xf0000
80009a88:	00e7f733          	and	a4,a5,a4
80009a8c:	00071663          	bnez	a4,80009a98 <__hi0bits+0x44>
80009a90:	00450513          	addi	a0,a0,4
80009a94:	00479793          	slli	a5,a5,0x4
80009a98:	c0000737          	lui	a4,0xc0000
80009a9c:	00e7f733          	and	a4,a5,a4
80009aa0:	00071663          	bnez	a4,80009aac <__hi0bits+0x58>
80009aa4:	00250513          	addi	a0,a0,2
80009aa8:	00279793          	slli	a5,a5,0x2
80009aac:	0007cc63          	bltz	a5,80009ac4 <__hi0bits+0x70>
80009ab0:	40000737          	lui	a4,0x40000
80009ab4:	00e7f7b3          	and	a5,a5,a4
80009ab8:	00150513          	addi	a0,a0,1
80009abc:	00079463          	bnez	a5,80009ac4 <__hi0bits+0x70>
80009ac0:	02000513          	li	a0,32
80009ac4:	00008067          	ret

80009ac8 <__lo0bits>:
__lo0bits():
80009ac8:	00052783          	lw	a5,0(a0)
80009acc:	00050713          	mv	a4,a0
80009ad0:	0077f693          	andi	a3,a5,7
80009ad4:	02068c63          	beqz	a3,80009b0c <__lo0bits+0x44>
80009ad8:	0017f693          	andi	a3,a5,1
80009adc:	00000513          	li	a0,0
80009ae0:	08069a63          	bnez	a3,80009b74 <__lo0bits+0xac>
80009ae4:	0027f693          	andi	a3,a5,2
80009ae8:	00068a63          	beqz	a3,80009afc <__lo0bits+0x34>
80009aec:	0017d793          	srli	a5,a5,0x1
80009af0:	00f72023          	sw	a5,0(a4) # 40000000 <__stack_size+0x3ffff800>
80009af4:	00100513          	li	a0,1
80009af8:	00008067          	ret
80009afc:	0027d793          	srli	a5,a5,0x2
80009b00:	00f72023          	sw	a5,0(a4)
80009b04:	00200513          	li	a0,2
80009b08:	00008067          	ret
80009b0c:	01079693          	slli	a3,a5,0x10
80009b10:	0106d693          	srli	a3,a3,0x10
80009b14:	00000513          	li	a0,0
80009b18:	00069663          	bnez	a3,80009b24 <__lo0bits+0x5c>
80009b1c:	0107d793          	srli	a5,a5,0x10
80009b20:	01000513          	li	a0,16
80009b24:	0ff7f693          	andi	a3,a5,255
80009b28:	00069663          	bnez	a3,80009b34 <__lo0bits+0x6c>
80009b2c:	00850513          	addi	a0,a0,8
80009b30:	0087d793          	srli	a5,a5,0x8
80009b34:	00f7f693          	andi	a3,a5,15
80009b38:	00069663          	bnez	a3,80009b44 <__lo0bits+0x7c>
80009b3c:	00450513          	addi	a0,a0,4
80009b40:	0047d793          	srli	a5,a5,0x4
80009b44:	0037f693          	andi	a3,a5,3
80009b48:	00069663          	bnez	a3,80009b54 <__lo0bits+0x8c>
80009b4c:	00250513          	addi	a0,a0,2
80009b50:	0027d793          	srli	a5,a5,0x2
80009b54:	0017f693          	andi	a3,a5,1
80009b58:	00069863          	bnez	a3,80009b68 <__lo0bits+0xa0>
80009b5c:	0017d793          	srli	a5,a5,0x1
80009b60:	00150513          	addi	a0,a0,1
80009b64:	00078663          	beqz	a5,80009b70 <__lo0bits+0xa8>
80009b68:	00f72023          	sw	a5,0(a4)
80009b6c:	00008067          	ret
80009b70:	02000513          	li	a0,32
80009b74:	00008067          	ret

80009b78 <__i2b>:
__i2b():
80009b78:	ff010113          	addi	sp,sp,-16
80009b7c:	00812423          	sw	s0,8(sp)
80009b80:	00058413          	mv	s0,a1
80009b84:	00100593          	li	a1,1
80009b88:	00112623          	sw	ra,12(sp)
80009b8c:	c55ff0ef          	jal	ra,800097e0 <_Balloc>
80009b90:	02051063          	bnez	a0,80009bb0 <__i2b+0x38>
80009b94:	00004697          	auipc	a3,0x4
80009b98:	1ec68693          	addi	a3,a3,492 # 8000dd80 <__clz_tab+0x1a4>
80009b9c:	00000613          	li	a2,0
80009ba0:	14000593          	li	a1,320
80009ba4:	00004517          	auipc	a0,0x4
80009ba8:	2bc50513          	addi	a0,a0,700 # 8000de60 <__sf_fake_stdout+0x30>
80009bac:	16c010ef          	jal	ra,8000ad18 <__assert_func>
80009bb0:	00c12083          	lw	ra,12(sp)
80009bb4:	00852a23          	sw	s0,20(a0)
80009bb8:	00812403          	lw	s0,8(sp)
80009bbc:	00100713          	li	a4,1
80009bc0:	00e52823          	sw	a4,16(a0)
80009bc4:	01010113          	addi	sp,sp,16
80009bc8:	00008067          	ret

80009bcc <__multiply>:
__multiply():
80009bcc:	0105a703          	lw	a4,16(a1)
80009bd0:	01062783          	lw	a5,16(a2)
80009bd4:	fe010113          	addi	sp,sp,-32
80009bd8:	00812c23          	sw	s0,24(sp)
80009bdc:	01212823          	sw	s2,16(sp)
80009be0:	00112e23          	sw	ra,28(sp)
80009be4:	00912a23          	sw	s1,20(sp)
80009be8:	01312623          	sw	s3,12(sp)
80009bec:	01412423          	sw	s4,8(sp)
80009bf0:	00058413          	mv	s0,a1
80009bf4:	00060913          	mv	s2,a2
80009bf8:	00f75663          	bge	a4,a5,80009c04 <__multiply+0x38>
80009bfc:	00060413          	mv	s0,a2
80009c00:	00058913          	mv	s2,a1
80009c04:	01042a03          	lw	s4,16(s0)
80009c08:	01092983          	lw	s3,16(s2)
80009c0c:	00842783          	lw	a5,8(s0)
80009c10:	00442583          	lw	a1,4(s0)
80009c14:	013a04b3          	add	s1,s4,s3
80009c18:	0097d463          	bge	a5,s1,80009c20 <__multiply+0x54>
80009c1c:	00158593          	addi	a1,a1,1
80009c20:	bc1ff0ef          	jal	ra,800097e0 <_Balloc>
80009c24:	02051063          	bnez	a0,80009c44 <__multiply+0x78>
80009c28:	00004697          	auipc	a3,0x4
80009c2c:	15868693          	addi	a3,a3,344 # 8000dd80 <__clz_tab+0x1a4>
80009c30:	00000613          	li	a2,0
80009c34:	15d00593          	li	a1,349
80009c38:	00004517          	auipc	a0,0x4
80009c3c:	22850513          	addi	a0,a0,552 # 8000de60 <__sf_fake_stdout+0x30>
80009c40:	0d8010ef          	jal	ra,8000ad18 <__assert_func>
80009c44:	01450693          	addi	a3,a0,20
80009c48:	00249813          	slli	a6,s1,0x2
80009c4c:	01068833          	add	a6,a3,a6
80009c50:	00068793          	mv	a5,a3
80009c54:	0707ec63          	bltu	a5,a6,80009ccc <__multiply+0x100>
80009c58:	01440313          	addi	t1,s0,20
80009c5c:	002a1593          	slli	a1,s4,0x2
80009c60:	01490613          	addi	a2,s2,20
80009c64:	00299893          	slli	a7,s3,0x2
80009c68:	00b305b3          	add	a1,t1,a1
80009c6c:	01540793          	addi	a5,s0,21
80009c70:	011608b3          	add	a7,a2,a7
80009c74:	00400e13          	li	t3,4
80009c78:	00f5ea63          	bltu	a1,a5,80009c8c <__multiply+0xc0>
80009c7c:	40858433          	sub	s0,a1,s0
80009c80:	feb40413          	addi	s0,s0,-21
80009c84:	ffc47413          	andi	s0,s0,-4
80009c88:	00440e13          	addi	t3,s0,4
80009c8c:	00010eb7          	lui	t4,0x10
80009c90:	fffe8e93          	addi	t4,t4,-1 # ffff <__stack_size+0xf7ff>
80009c94:	05166263          	bltu	a2,a7,80009cd8 <__multiply+0x10c>
80009c98:	00905863          	blez	s1,80009ca8 <__multiply+0xdc>
80009c9c:	ffc82783          	lw	a5,-4(a6)
80009ca0:	ffc80813          	addi	a6,a6,-4
80009ca4:	12078463          	beqz	a5,80009dcc <__multiply+0x200>
80009ca8:	01c12083          	lw	ra,28(sp)
80009cac:	01812403          	lw	s0,24(sp)
80009cb0:	00952823          	sw	s1,16(a0)
80009cb4:	01012903          	lw	s2,16(sp)
80009cb8:	01412483          	lw	s1,20(sp)
80009cbc:	00c12983          	lw	s3,12(sp)
80009cc0:	00812a03          	lw	s4,8(sp)
80009cc4:	02010113          	addi	sp,sp,32
80009cc8:	00008067          	ret
80009ccc:	0007a023          	sw	zero,0(a5)
80009cd0:	00478793          	addi	a5,a5,4
80009cd4:	f81ff06f          	j	80009c54 <__multiply+0x88>
80009cd8:	00062f83          	lw	t6,0(a2)
80009cdc:	01dfffb3          	and	t6,t6,t4
80009ce0:	060f8663          	beqz	t6,80009d4c <__multiply+0x180>
80009ce4:	00068393          	mv	t2,a3
80009ce8:	00030293          	mv	t0,t1
80009cec:	00000913          	li	s2,0
80009cf0:	0002a703          	lw	a4,0(t0) # 800097b8 <memset+0xb4>
80009cf4:	0003a403          	lw	s0,0(t2)
80009cf8:	00438393          	addi	t2,t2,4
80009cfc:	01d77f33          	and	t5,a4,t4
80009d00:	03ff0f33          	mul	t5,t5,t6
80009d04:	01d477b3          	and	a5,s0,t4
80009d08:	01045413          	srli	s0,s0,0x10
80009d0c:	00428293          	addi	t0,t0,4
80009d10:	00ff0f33          	add	t5,t5,a5
80009d14:	01075793          	srli	a5,a4,0x10
80009d18:	03f787b3          	mul	a5,a5,t6
80009d1c:	012f0f33          	add	t5,t5,s2
80009d20:	010f5713          	srli	a4,t5,0x10
80009d24:	01df7f33          	and	t5,t5,t4
80009d28:	008787b3          	add	a5,a5,s0
80009d2c:	00e787b3          	add	a5,a5,a4
80009d30:	0107d913          	srli	s2,a5,0x10
80009d34:	01079793          	slli	a5,a5,0x10
80009d38:	01e7e7b3          	or	a5,a5,t5
80009d3c:	fef3ae23          	sw	a5,-4(t2)
80009d40:	fab2e8e3          	bltu	t0,a1,80009cf0 <__multiply+0x124>
80009d44:	01c687b3          	add	a5,a3,t3
80009d48:	0127a023          	sw	s2,0(a5)
80009d4c:	00265383          	lhu	t2,2(a2)
80009d50:	06038863          	beqz	t2,80009dc0 <__multiply+0x1f4>
80009d54:	0006a783          	lw	a5,0(a3)
80009d58:	00068f93          	mv	t6,a3
80009d5c:	00030f13          	mv	t5,t1
80009d60:	00000293          	li	t0,0
80009d64:	000f2703          	lw	a4,0(t5)
80009d68:	002fd403          	lhu	s0,2(t6)
80009d6c:	01d7f7b3          	and	a5,a5,t4
80009d70:	01d77733          	and	a4,a4,t4
80009d74:	02770733          	mul	a4,a4,t2
80009d78:	004f8f93          	addi	t6,t6,4
80009d7c:	004f0f13          	addi	t5,t5,4
80009d80:	00870733          	add	a4,a4,s0
80009d84:	00570733          	add	a4,a4,t0
80009d88:	01071293          	slli	t0,a4,0x10
80009d8c:	00f2e7b3          	or	a5,t0,a5
80009d90:	feffae23          	sw	a5,-4(t6)
80009d94:	ffef5783          	lhu	a5,-2(t5)
80009d98:	000fa283          	lw	t0,0(t6)
80009d9c:	01075713          	srli	a4,a4,0x10
80009da0:	027787b3          	mul	a5,a5,t2
80009da4:	01d2f2b3          	and	t0,t0,t4
80009da8:	005787b3          	add	a5,a5,t0
80009dac:	00e787b3          	add	a5,a5,a4
80009db0:	0107d293          	srli	t0,a5,0x10
80009db4:	fabf68e3          	bltu	t5,a1,80009d64 <__multiply+0x198>
80009db8:	01c68733          	add	a4,a3,t3
80009dbc:	00f72023          	sw	a5,0(a4)
80009dc0:	00460613          	addi	a2,a2,4
80009dc4:	00468693          	addi	a3,a3,4
80009dc8:	ecdff06f          	j	80009c94 <__multiply+0xc8>
80009dcc:	fff48493          	addi	s1,s1,-1
80009dd0:	ec9ff06f          	j	80009c98 <__multiply+0xcc>

80009dd4 <__pow5mult>:
__pow5mult():
80009dd4:	fe010113          	addi	sp,sp,-32
80009dd8:	00912a23          	sw	s1,20(sp)
80009ddc:	01212823          	sw	s2,16(sp)
80009de0:	01312623          	sw	s3,12(sp)
80009de4:	00112e23          	sw	ra,28(sp)
80009de8:	00812c23          	sw	s0,24(sp)
80009dec:	01412423          	sw	s4,8(sp)
80009df0:	00367793          	andi	a5,a2,3
80009df4:	00050913          	mv	s2,a0
80009df8:	00060493          	mv	s1,a2
80009dfc:	00058993          	mv	s3,a1
80009e00:	02078463          	beqz	a5,80009e28 <__pow5mult+0x54>
80009e04:	fff78793          	addi	a5,a5,-1
80009e08:	00004717          	auipc	a4,0x4
80009e0c:	1a870713          	addi	a4,a4,424 # 8000dfb0 <p05.0>
80009e10:	00279793          	slli	a5,a5,0x2
80009e14:	00f707b3          	add	a5,a4,a5
80009e18:	0007a603          	lw	a2,0(a5)
80009e1c:	00000693          	li	a3,0
80009e20:	b15ff0ef          	jal	ra,80009934 <__multadd>
80009e24:	00050993          	mv	s3,a0
80009e28:	4024d493          	srai	s1,s1,0x2
80009e2c:	0a048463          	beqz	s1,80009ed4 <__pow5mult+0x100>
80009e30:	02492783          	lw	a5,36(s2)
80009e34:	02079063          	bnez	a5,80009e54 <__pow5mult+0x80>
80009e38:	01000513          	li	a0,16
80009e3c:	f38ff0ef          	jal	ra,80009574 <malloc>
80009e40:	02a92223          	sw	a0,36(s2)
80009e44:	00052223          	sw	zero,4(a0)
80009e48:	00052423          	sw	zero,8(a0)
80009e4c:	00052023          	sw	zero,0(a0)
80009e50:	00052623          	sw	zero,12(a0)
80009e54:	02492a03          	lw	s4,36(s2)
80009e58:	008a2403          	lw	s0,8(s4)
80009e5c:	00041e63          	bnez	s0,80009e78 <__pow5mult+0xa4>
80009e60:	27100593          	li	a1,625
80009e64:	00090513          	mv	a0,s2
80009e68:	d11ff0ef          	jal	ra,80009b78 <__i2b>
80009e6c:	00aa2423          	sw	a0,8(s4)
80009e70:	00050413          	mv	s0,a0
80009e74:	00052023          	sw	zero,0(a0)
80009e78:	0014f793          	andi	a5,s1,1
80009e7c:	02078463          	beqz	a5,80009ea4 <__pow5mult+0xd0>
80009e80:	00098593          	mv	a1,s3
80009e84:	00040613          	mv	a2,s0
80009e88:	00090513          	mv	a0,s2
80009e8c:	d41ff0ef          	jal	ra,80009bcc <__multiply>
80009e90:	00050a13          	mv	s4,a0
80009e94:	00098593          	mv	a1,s3
80009e98:	00090513          	mv	a0,s2
80009e9c:	a25ff0ef          	jal	ra,800098c0 <_Bfree>
80009ea0:	000a0993          	mv	s3,s4
80009ea4:	4014d493          	srai	s1,s1,0x1
80009ea8:	02048663          	beqz	s1,80009ed4 <__pow5mult+0x100>
80009eac:	00042503          	lw	a0,0(s0)
80009eb0:	00051e63          	bnez	a0,80009ecc <__pow5mult+0xf8>
80009eb4:	00040613          	mv	a2,s0
80009eb8:	00040593          	mv	a1,s0
80009ebc:	00090513          	mv	a0,s2
80009ec0:	d0dff0ef          	jal	ra,80009bcc <__multiply>
80009ec4:	00a42023          	sw	a0,0(s0)
80009ec8:	00052023          	sw	zero,0(a0)
80009ecc:	00050413          	mv	s0,a0
80009ed0:	fa9ff06f          	j	80009e78 <__pow5mult+0xa4>
80009ed4:	01c12083          	lw	ra,28(sp)
80009ed8:	01812403          	lw	s0,24(sp)
80009edc:	01412483          	lw	s1,20(sp)
80009ee0:	01012903          	lw	s2,16(sp)
80009ee4:	00812a03          	lw	s4,8(sp)
80009ee8:	00098513          	mv	a0,s3
80009eec:	00c12983          	lw	s3,12(sp)
80009ef0:	02010113          	addi	sp,sp,32
80009ef4:	00008067          	ret

80009ef8 <__lshift>:
__lshift():
80009ef8:	fe010113          	addi	sp,sp,-32
80009efc:	00812c23          	sw	s0,24(sp)
80009f00:	00058413          	mv	s0,a1
80009f04:	01612023          	sw	s6,0(sp)
80009f08:	01042b03          	lw	s6,16(s0)
80009f0c:	00912a23          	sw	s1,20(sp)
80009f10:	0045a583          	lw	a1,4(a1)
80009f14:	40565493          	srai	s1,a2,0x5
80009f18:	00842783          	lw	a5,8(s0)
80009f1c:	01648b33          	add	s6,s1,s6
80009f20:	01212823          	sw	s2,16(sp)
80009f24:	01412423          	sw	s4,8(sp)
80009f28:	01512223          	sw	s5,4(sp)
80009f2c:	00112e23          	sw	ra,28(sp)
80009f30:	01312623          	sw	s3,12(sp)
80009f34:	00050a93          	mv	s5,a0
80009f38:	00060913          	mv	s2,a2
80009f3c:	001b0a13          	addi	s4,s6,1
80009f40:	0347c863          	blt	a5,s4,80009f70 <__lshift+0x78>
80009f44:	000a8513          	mv	a0,s5
80009f48:	899ff0ef          	jal	ra,800097e0 <_Balloc>
80009f4c:	00050993          	mv	s3,a0
80009f50:	02051663          	bnez	a0,80009f7c <__lshift+0x84>
80009f54:	00004697          	auipc	a3,0x4
80009f58:	e2c68693          	addi	a3,a3,-468 # 8000dd80 <__clz_tab+0x1a4>
80009f5c:	00000613          	li	a2,0
80009f60:	1d900593          	li	a1,473
80009f64:	00004517          	auipc	a0,0x4
80009f68:	efc50513          	addi	a0,a0,-260 # 8000de60 <__sf_fake_stdout+0x30>
80009f6c:	5ad000ef          	jal	ra,8000ad18 <__assert_func>
80009f70:	00158593          	addi	a1,a1,1
80009f74:	00179793          	slli	a5,a5,0x1
80009f78:	fc9ff06f          	j	80009f40 <__lshift+0x48>
80009f7c:	01450793          	addi	a5,a0,20
80009f80:	00078693          	mv	a3,a5
80009f84:	00000713          	li	a4,0
80009f88:	00468693          	addi	a3,a3,4
80009f8c:	0c974663          	blt	a4,s1,8000a058 <__lshift+0x160>
80009f90:	0004d463          	bgez	s1,80009f98 <__lshift+0xa0>
80009f94:	00000493          	li	s1,0
80009f98:	00249493          	slli	s1,s1,0x2
80009f9c:	009786b3          	add	a3,a5,s1
80009fa0:	01042783          	lw	a5,16(s0)
80009fa4:	01440713          	addi	a4,s0,20
80009fa8:	01f97613          	andi	a2,s2,31
80009fac:	00279793          	slli	a5,a5,0x2
80009fb0:	00f707b3          	add	a5,a4,a5
80009fb4:	0a060863          	beqz	a2,8000a064 <__lshift+0x16c>
80009fb8:	02000813          	li	a6,32
80009fbc:	40c80833          	sub	a6,a6,a2
80009fc0:	00068893          	mv	a7,a3
80009fc4:	00000593          	li	a1,0
80009fc8:	00072503          	lw	a0,0(a4)
80009fcc:	00488893          	addi	a7,a7,4
80009fd0:	00470713          	addi	a4,a4,4
80009fd4:	00c51533          	sll	a0,a0,a2
80009fd8:	00b565b3          	or	a1,a0,a1
80009fdc:	feb8ae23          	sw	a1,-4(a7)
80009fe0:	ffc72583          	lw	a1,-4(a4)
80009fe4:	0105d5b3          	srl	a1,a1,a6
80009fe8:	fef760e3          	bltu	a4,a5,80009fc8 <__lshift+0xd0>
80009fec:	01540713          	addi	a4,s0,21
80009ff0:	00400613          	li	a2,4
80009ff4:	00e7ea63          	bltu	a5,a4,8000a008 <__lshift+0x110>
80009ff8:	408787b3          	sub	a5,a5,s0
80009ffc:	feb78793          	addi	a5,a5,-21
8000a000:	ffc7f793          	andi	a5,a5,-4
8000a004:	00478613          	addi	a2,a5,4
8000a008:	00c686b3          	add	a3,a3,a2
8000a00c:	00b6a023          	sw	a1,0(a3)
8000a010:	00058463          	beqz	a1,8000a018 <__lshift+0x120>
8000a014:	002b0a13          	addi	s4,s6,2
8000a018:	fffa0a13          	addi	s4,s4,-1
8000a01c:	0149a823          	sw	s4,16(s3)
8000a020:	000a8513          	mv	a0,s5
8000a024:	00040593          	mv	a1,s0
8000a028:	899ff0ef          	jal	ra,800098c0 <_Bfree>
8000a02c:	01c12083          	lw	ra,28(sp)
8000a030:	01812403          	lw	s0,24(sp)
8000a034:	01412483          	lw	s1,20(sp)
8000a038:	01012903          	lw	s2,16(sp)
8000a03c:	00812a03          	lw	s4,8(sp)
8000a040:	00412a83          	lw	s5,4(sp)
8000a044:	00012b03          	lw	s6,0(sp)
8000a048:	00098513          	mv	a0,s3
8000a04c:	00c12983          	lw	s3,12(sp)
8000a050:	02010113          	addi	sp,sp,32
8000a054:	00008067          	ret
8000a058:	fe06ae23          	sw	zero,-4(a3)
8000a05c:	00170713          	addi	a4,a4,1
8000a060:	f29ff06f          	j	80009f88 <__lshift+0x90>
8000a064:	00072603          	lw	a2,0(a4)
8000a068:	00470713          	addi	a4,a4,4
8000a06c:	00468693          	addi	a3,a3,4
8000a070:	fec6ae23          	sw	a2,-4(a3)
8000a074:	fef768e3          	bltu	a4,a5,8000a064 <__lshift+0x16c>
8000a078:	fa1ff06f          	j	8000a018 <__lshift+0x120>

8000a07c <__mcmp>:
__mcmp():
8000a07c:	01052683          	lw	a3,16(a0)
8000a080:	0105a703          	lw	a4,16(a1)
8000a084:	00050793          	mv	a5,a0
8000a088:	40e68533          	sub	a0,a3,a4
8000a08c:	04e69063          	bne	a3,a4,8000a0cc <__mcmp+0x50>
8000a090:	00271713          	slli	a4,a4,0x2
8000a094:	01478793          	addi	a5,a5,20
8000a098:	01458593          	addi	a1,a1,20
8000a09c:	00e786b3          	add	a3,a5,a4
8000a0a0:	00e585b3          	add	a1,a1,a4
8000a0a4:	ffc6a603          	lw	a2,-4(a3)
8000a0a8:	ffc5a703          	lw	a4,-4(a1)
8000a0ac:	ffc68693          	addi	a3,a3,-4
8000a0b0:	ffc58593          	addi	a1,a1,-4
8000a0b4:	00e60a63          	beq	a2,a4,8000a0c8 <__mcmp+0x4c>
8000a0b8:	fff00513          	li	a0,-1
8000a0bc:	00e66863          	bltu	a2,a4,8000a0cc <__mcmp+0x50>
8000a0c0:	00100513          	li	a0,1
8000a0c4:	00008067          	ret
8000a0c8:	fcd7eee3          	bltu	a5,a3,8000a0a4 <__mcmp+0x28>
8000a0cc:	00008067          	ret

8000a0d0 <__mdiff>:
__mdiff():
8000a0d0:	fe010113          	addi	sp,sp,-32
8000a0d4:	00812c23          	sw	s0,24(sp)
8000a0d8:	00058413          	mv	s0,a1
8000a0dc:	01212823          	sw	s2,16(sp)
8000a0e0:	00060593          	mv	a1,a2
8000a0e4:	00050913          	mv	s2,a0
8000a0e8:	00040513          	mv	a0,s0
8000a0ec:	00912a23          	sw	s1,20(sp)
8000a0f0:	00112e23          	sw	ra,28(sp)
8000a0f4:	01312623          	sw	s3,12(sp)
8000a0f8:	00060493          	mv	s1,a2
8000a0fc:	f81ff0ef          	jal	ra,8000a07c <__mcmp>
8000a100:	04051c63          	bnez	a0,8000a158 <__mdiff+0x88>
8000a104:	00000593          	li	a1,0
8000a108:	00090513          	mv	a0,s2
8000a10c:	ed4ff0ef          	jal	ra,800097e0 <_Balloc>
8000a110:	02051063          	bnez	a0,8000a130 <__mdiff+0x60>
8000a114:	00004697          	auipc	a3,0x4
8000a118:	c6c68693          	addi	a3,a3,-916 # 8000dd80 <__clz_tab+0x1a4>
8000a11c:	00000613          	li	a2,0
8000a120:	23200593          	li	a1,562
8000a124:	00004517          	auipc	a0,0x4
8000a128:	d3c50513          	addi	a0,a0,-708 # 8000de60 <__sf_fake_stdout+0x30>
8000a12c:	3ed000ef          	jal	ra,8000ad18 <__assert_func>
8000a130:	00100793          	li	a5,1
8000a134:	00f52823          	sw	a5,16(a0)
8000a138:	00052a23          	sw	zero,20(a0)
8000a13c:	01c12083          	lw	ra,28(sp)
8000a140:	01812403          	lw	s0,24(sp)
8000a144:	01412483          	lw	s1,20(sp)
8000a148:	01012903          	lw	s2,16(sp)
8000a14c:	00c12983          	lw	s3,12(sp)
8000a150:	02010113          	addi	sp,sp,32
8000a154:	00008067          	ret
8000a158:	00100993          	li	s3,1
8000a15c:	00054a63          	bltz	a0,8000a170 <__mdiff+0xa0>
8000a160:	00048793          	mv	a5,s1
8000a164:	00000993          	li	s3,0
8000a168:	00040493          	mv	s1,s0
8000a16c:	00078413          	mv	s0,a5
8000a170:	0044a583          	lw	a1,4(s1)
8000a174:	00090513          	mv	a0,s2
8000a178:	e68ff0ef          	jal	ra,800097e0 <_Balloc>
8000a17c:	00051c63          	bnez	a0,8000a194 <__mdiff+0xc4>
8000a180:	00004697          	auipc	a3,0x4
8000a184:	c0068693          	addi	a3,a3,-1024 # 8000dd80 <__clz_tab+0x1a4>
8000a188:	00000613          	li	a2,0
8000a18c:	24000593          	li	a1,576
8000a190:	f95ff06f          	j	8000a124 <__mdiff+0x54>
8000a194:	0104a803          	lw	a6,16(s1)
8000a198:	01042703          	lw	a4,16(s0)
8000a19c:	01448893          	addi	a7,s1,20
8000a1a0:	00281693          	slli	a3,a6,0x2
8000a1a4:	01440793          	addi	a5,s0,20
8000a1a8:	00271713          	slli	a4,a4,0x2
8000a1ac:	00010eb7          	lui	t4,0x10
8000a1b0:	01352623          	sw	s3,12(a0)
8000a1b4:	00d886b3          	add	a3,a7,a3
8000a1b8:	00e787b3          	add	a5,a5,a4
8000a1bc:	01450613          	addi	a2,a0,20
8000a1c0:	01400e13          	li	t3,20
8000a1c4:	00000313          	li	t1,0
8000a1c8:	fffe8e93          	addi	t4,t4,-1 # ffff <__stack_size+0xf7ff>
8000a1cc:	01c48733          	add	a4,s1,t3
8000a1d0:	00072703          	lw	a4,0(a4)
8000a1d4:	01c405b3          	add	a1,s0,t3
8000a1d8:	0005af03          	lw	t5,0(a1)
8000a1dc:	01d775b3          	and	a1,a4,t4
8000a1e0:	006585b3          	add	a1,a1,t1
8000a1e4:	01df7333          	and	t1,t5,t4
8000a1e8:	406585b3          	sub	a1,a1,t1
8000a1ec:	010f5f13          	srli	t5,t5,0x10
8000a1f0:	01075713          	srli	a4,a4,0x10
8000a1f4:	4105d313          	srai	t1,a1,0x10
8000a1f8:	41e70733          	sub	a4,a4,t5
8000a1fc:	00670733          	add	a4,a4,t1
8000a200:	41075313          	srai	t1,a4,0x10
8000a204:	01d5f5b3          	and	a1,a1,t4
8000a208:	01071713          	slli	a4,a4,0x10
8000a20c:	01c50f33          	add	t5,a0,t3
8000a210:	00b76733          	or	a4,a4,a1
8000a214:	004e0e13          	addi	t3,t3,4
8000a218:	00ef2023          	sw	a4,0(t5)
8000a21c:	008e0733          	add	a4,t3,s0
8000a220:	faf766e3          	bltu	a4,a5,8000a1cc <__mdiff+0xfc>
8000a224:	01540593          	addi	a1,s0,21
8000a228:	00400713          	li	a4,4
8000a22c:	00b7ea63          	bltu	a5,a1,8000a240 <__mdiff+0x170>
8000a230:	408787b3          	sub	a5,a5,s0
8000a234:	feb78793          	addi	a5,a5,-21
8000a238:	ffc7f793          	andi	a5,a5,-4
8000a23c:	00478713          	addi	a4,a5,4
8000a240:	00e888b3          	add	a7,a7,a4
8000a244:	00010e37          	lui	t3,0x10
8000a248:	00e60733          	add	a4,a2,a4
8000a24c:	00070e93          	mv	t4,a4
8000a250:	00088593          	mv	a1,a7
8000a254:	fffe0e13          	addi	t3,t3,-1 # ffff <__stack_size+0xf7ff>
8000a258:	02d5ea63          	bltu	a1,a3,8000a28c <__mdiff+0x1bc>
8000a25c:	ffd88613          	addi	a2,a7,-3
8000a260:	00000793          	li	a5,0
8000a264:	00c6e863          	bltu	a3,a2,8000a274 <__mdiff+0x1a4>
8000a268:	00368693          	addi	a3,a3,3
8000a26c:	411687b3          	sub	a5,a3,a7
8000a270:	ffc7f793          	andi	a5,a5,-4
8000a274:	00f707b3          	add	a5,a4,a5
8000a278:	ffc7a703          	lw	a4,-4(a5)
8000a27c:	ffc78793          	addi	a5,a5,-4
8000a280:	04070263          	beqz	a4,8000a2c4 <__mdiff+0x1f4>
8000a284:	01052823          	sw	a6,16(a0)
8000a288:	eb5ff06f          	j	8000a13c <__mdiff+0x6c>
8000a28c:	0005a783          	lw	a5,0(a1)
8000a290:	004e8e93          	addi	t4,t4,4
8000a294:	00458593          	addi	a1,a1,4
8000a298:	01c7f633          	and	a2,a5,t3
8000a29c:	00660633          	add	a2,a2,t1
8000a2a0:	41065313          	srai	t1,a2,0x10
8000a2a4:	0107d793          	srli	a5,a5,0x10
8000a2a8:	006787b3          	add	a5,a5,t1
8000a2ac:	4107d313          	srai	t1,a5,0x10
8000a2b0:	01c67633          	and	a2,a2,t3
8000a2b4:	01079793          	slli	a5,a5,0x10
8000a2b8:	00c7e7b3          	or	a5,a5,a2
8000a2bc:	fefeae23          	sw	a5,-4(t4)
8000a2c0:	f99ff06f          	j	8000a258 <__mdiff+0x188>
8000a2c4:	fff80813          	addi	a6,a6,-1
8000a2c8:	fb1ff06f          	j	8000a278 <__mdiff+0x1a8>

8000a2cc <__d2b>:
__d2b():
8000a2cc:	fd010113          	addi	sp,sp,-48
8000a2d0:	02912223          	sw	s1,36(sp)
8000a2d4:	00058493          	mv	s1,a1
8000a2d8:	00100593          	li	a1,1
8000a2dc:	02812423          	sw	s0,40(sp)
8000a2e0:	03212023          	sw	s2,32(sp)
8000a2e4:	01312e23          	sw	s3,28(sp)
8000a2e8:	02112623          	sw	ra,44(sp)
8000a2ec:	01412c23          	sw	s4,24(sp)
8000a2f0:	00060413          	mv	s0,a2
8000a2f4:	00068993          	mv	s3,a3
8000a2f8:	00070913          	mv	s2,a4
8000a2fc:	ce4ff0ef          	jal	ra,800097e0 <_Balloc>
8000a300:	02051063          	bnez	a0,8000a320 <__d2b+0x54>
8000a304:	00004697          	auipc	a3,0x4
8000a308:	a7c68693          	addi	a3,a3,-1412 # 8000dd80 <__clz_tab+0x1a4>
8000a30c:	00000613          	li	a2,0
8000a310:	30a00593          	li	a1,778
8000a314:	00004517          	auipc	a0,0x4
8000a318:	b4c50513          	addi	a0,a0,-1204 # 8000de60 <__sf_fake_stdout+0x30>
8000a31c:	1fd000ef          	jal	ra,8000ad18 <__assert_func>
8000a320:	00100737          	lui	a4,0x100
8000a324:	fff70793          	addi	a5,a4,-1 # fffff <__stack_size+0xff7ff>
8000a328:	0087f7b3          	and	a5,a5,s0
8000a32c:	01445413          	srli	s0,s0,0x14
8000a330:	7ff47413          	andi	s0,s0,2047
8000a334:	00050a13          	mv	s4,a0
8000a338:	08041a63          	bnez	s0,8000a3cc <__d2b+0x100>
8000a33c:	00f12623          	sw	a5,12(sp)
8000a340:	08048e63          	beqz	s1,8000a3dc <__d2b+0x110>
8000a344:	00810513          	addi	a0,sp,8
8000a348:	00912423          	sw	s1,8(sp)
8000a34c:	f7cff0ef          	jal	ra,80009ac8 <__lo0bits>
8000a350:	00812683          	lw	a3,8(sp)
8000a354:	08050063          	beqz	a0,8000a3d4 <__d2b+0x108>
8000a358:	00c12703          	lw	a4,12(sp)
8000a35c:	02000793          	li	a5,32
8000a360:	40a787b3          	sub	a5,a5,a0
8000a364:	00f717b3          	sll	a5,a4,a5
8000a368:	00d7e7b3          	or	a5,a5,a3
8000a36c:	00a75733          	srl	a4,a4,a0
8000a370:	00fa2a23          	sw	a5,20(s4)
8000a374:	00e12623          	sw	a4,12(sp)
8000a378:	00c12483          	lw	s1,12(sp)
8000a37c:	009a2c23          	sw	s1,24(s4)
8000a380:	009034b3          	snez	s1,s1
8000a384:	00148493          	addi	s1,s1,1
8000a388:	009a2823          	sw	s1,16(s4)
8000a38c:	06040a63          	beqz	s0,8000a400 <__d2b+0x134>
8000a390:	bcd40413          	addi	s0,s0,-1075
8000a394:	00a40433          	add	s0,s0,a0
8000a398:	03500793          	li	a5,53
8000a39c:	0089a023          	sw	s0,0(s3)
8000a3a0:	40a78533          	sub	a0,a5,a0
8000a3a4:	00a92023          	sw	a0,0(s2)
8000a3a8:	02c12083          	lw	ra,44(sp)
8000a3ac:	02812403          	lw	s0,40(sp)
8000a3b0:	02412483          	lw	s1,36(sp)
8000a3b4:	02012903          	lw	s2,32(sp)
8000a3b8:	01c12983          	lw	s3,28(sp)
8000a3bc:	000a0513          	mv	a0,s4
8000a3c0:	01812a03          	lw	s4,24(sp)
8000a3c4:	03010113          	addi	sp,sp,48
8000a3c8:	00008067          	ret
8000a3cc:	00e7e7b3          	or	a5,a5,a4
8000a3d0:	f6dff06f          	j	8000a33c <__d2b+0x70>
8000a3d4:	00da2a23          	sw	a3,20(s4)
8000a3d8:	fa1ff06f          	j	8000a378 <__d2b+0xac>
8000a3dc:	00c10513          	addi	a0,sp,12
8000a3e0:	ee8ff0ef          	jal	ra,80009ac8 <__lo0bits>
8000a3e4:	00c12783          	lw	a5,12(sp)
8000a3e8:	02050513          	addi	a0,a0,32
8000a3ec:	00100493          	li	s1,1
8000a3f0:	00fa2a23          	sw	a5,20(s4)
8000a3f4:	00100793          	li	a5,1
8000a3f8:	00fa2823          	sw	a5,16(s4)
8000a3fc:	f91ff06f          	j	8000a38c <__d2b+0xc0>
8000a400:	bce50793          	addi	a5,a0,-1074
8000a404:	00f9a023          	sw	a5,0(s3)
8000a408:	00249793          	slli	a5,s1,0x2
8000a40c:	00fa07b3          	add	a5,s4,a5
8000a410:	0107a503          	lw	a0,16(a5)
8000a414:	00549493          	slli	s1,s1,0x5
8000a418:	e3cff0ef          	jal	ra,80009a54 <__hi0bits>
8000a41c:	40a484b3          	sub	s1,s1,a0
8000a420:	00992023          	sw	s1,0(s2)
8000a424:	f85ff06f          	j	8000a3a8 <__d2b+0xdc>

8000a428 <_calloc_r>:
_calloc_r():
8000a428:	02c58633          	mul	a2,a1,a2
8000a42c:	fe010113          	addi	sp,sp,-32
8000a430:	00812c23          	sw	s0,24(sp)
8000a434:	00112e23          	sw	ra,28(sp)
8000a438:	00060593          	mv	a1,a2
8000a43c:	00c12623          	sw	a2,12(sp)
8000a440:	128000ef          	jal	ra,8000a568 <_malloc_r>
8000a444:	00050413          	mv	s0,a0
8000a448:	00050863          	beqz	a0,8000a458 <_calloc_r+0x30>
8000a44c:	00c12603          	lw	a2,12(sp)
8000a450:	00000593          	li	a1,0
8000a454:	ab0ff0ef          	jal	ra,80009704 <memset>
8000a458:	01c12083          	lw	ra,28(sp)
8000a45c:	00040513          	mv	a0,s0
8000a460:	01812403          	lw	s0,24(sp)
8000a464:	02010113          	addi	sp,sp,32
8000a468:	00008067          	ret

8000a46c <_free_r>:
_free_r():
8000a46c:	0e058c63          	beqz	a1,8000a564 <_free_r+0xf8>
8000a470:	ffc5a783          	lw	a5,-4(a1)
8000a474:	fe010113          	addi	sp,sp,-32
8000a478:	00812c23          	sw	s0,24(sp)
8000a47c:	00112e23          	sw	ra,28(sp)
8000a480:	ffc58413          	addi	s0,a1,-4
8000a484:	0007d463          	bgez	a5,8000a48c <_free_r+0x20>
8000a488:	00f40433          	add	s0,s0,a5
8000a48c:	00a12623          	sw	a0,12(sp)
8000a490:	225000ef          	jal	ra,8000aeb4 <__malloc_lock>
8000a494:	9fc18713          	addi	a4,gp,-1540 # 900003cc <__malloc_free_list>
8000a498:	00072783          	lw	a5,0(a4)
8000a49c:	00c12503          	lw	a0,12(sp)
8000a4a0:	00079e63          	bnez	a5,8000a4bc <_free_r+0x50>
8000a4a4:	00042223          	sw	zero,4(s0)
8000a4a8:	00872023          	sw	s0,0(a4)
8000a4ac:	01812403          	lw	s0,24(sp)
8000a4b0:	01c12083          	lw	ra,28(sp)
8000a4b4:	02010113          	addi	sp,sp,32
8000a4b8:	2010006f          	j	8000aeb8 <__malloc_unlock>
8000a4bc:	02f47463          	bgeu	s0,a5,8000a4e4 <_free_r+0x78>
8000a4c0:	00042603          	lw	a2,0(s0)
8000a4c4:	00c406b3          	add	a3,s0,a2
8000a4c8:	00d79a63          	bne	a5,a3,8000a4dc <_free_r+0x70>
8000a4cc:	0007a683          	lw	a3,0(a5)
8000a4d0:	0047a783          	lw	a5,4(a5)
8000a4d4:	00c686b3          	add	a3,a3,a2
8000a4d8:	00d42023          	sw	a3,0(s0)
8000a4dc:	00f42223          	sw	a5,4(s0)
8000a4e0:	fc9ff06f          	j	8000a4a8 <_free_r+0x3c>
8000a4e4:	00078713          	mv	a4,a5
8000a4e8:	0047a783          	lw	a5,4(a5)
8000a4ec:	00078463          	beqz	a5,8000a4f4 <_free_r+0x88>
8000a4f0:	fef47ae3          	bgeu	s0,a5,8000a4e4 <_free_r+0x78>
8000a4f4:	00072683          	lw	a3,0(a4)
8000a4f8:	00d70633          	add	a2,a4,a3
8000a4fc:	02861863          	bne	a2,s0,8000a52c <_free_r+0xc0>
8000a500:	00042603          	lw	a2,0(s0)
8000a504:	00c686b3          	add	a3,a3,a2
8000a508:	00d72023          	sw	a3,0(a4)
8000a50c:	00d70633          	add	a2,a4,a3
8000a510:	f8c79ee3          	bne	a5,a2,8000a4ac <_free_r+0x40>
8000a514:	0007a603          	lw	a2,0(a5)
8000a518:	0047a783          	lw	a5,4(a5)
8000a51c:	00d606b3          	add	a3,a2,a3
8000a520:	00d72023          	sw	a3,0(a4)
8000a524:	00f72223          	sw	a5,4(a4)
8000a528:	f85ff06f          	j	8000a4ac <_free_r+0x40>
8000a52c:	00c47863          	bgeu	s0,a2,8000a53c <_free_r+0xd0>
8000a530:	00c00793          	li	a5,12
8000a534:	00f52023          	sw	a5,0(a0)
8000a538:	f75ff06f          	j	8000a4ac <_free_r+0x40>
8000a53c:	00042603          	lw	a2,0(s0)
8000a540:	00c406b3          	add	a3,s0,a2
8000a544:	00d79a63          	bne	a5,a3,8000a558 <_free_r+0xec>
8000a548:	0007a683          	lw	a3,0(a5)
8000a54c:	0047a783          	lw	a5,4(a5)
8000a550:	00c686b3          	add	a3,a3,a2
8000a554:	00d42023          	sw	a3,0(s0)
8000a558:	00f42223          	sw	a5,4(s0)
8000a55c:	00872223          	sw	s0,4(a4)
8000a560:	f4dff06f          	j	8000a4ac <_free_r+0x40>
8000a564:	00008067          	ret

8000a568 <_malloc_r>:
_malloc_r():
8000a568:	fe010113          	addi	sp,sp,-32
8000a56c:	00912a23          	sw	s1,20(sp)
8000a570:	00358493          	addi	s1,a1,3
8000a574:	ffc4f493          	andi	s1,s1,-4
8000a578:	01212823          	sw	s2,16(sp)
8000a57c:	00112e23          	sw	ra,28(sp)
8000a580:	00812c23          	sw	s0,24(sp)
8000a584:	01312623          	sw	s3,12(sp)
8000a588:	00848493          	addi	s1,s1,8
8000a58c:	00c00793          	li	a5,12
8000a590:	00050913          	mv	s2,a0
8000a594:	06f4f463          	bgeu	s1,a5,8000a5fc <_malloc_r+0x94>
8000a598:	00c00493          	li	s1,12
8000a59c:	06b4e263          	bltu	s1,a1,8000a600 <_malloc_r+0x98>
8000a5a0:	00090513          	mv	a0,s2
8000a5a4:	111000ef          	jal	ra,8000aeb4 <__malloc_lock>
8000a5a8:	9fc18693          	addi	a3,gp,-1540 # 900003cc <__malloc_free_list>
8000a5ac:	0006a703          	lw	a4,0(a3)
8000a5b0:	00070413          	mv	s0,a4
8000a5b4:	06041a63          	bnez	s0,8000a628 <_malloc_r+0xc0>
8000a5b8:	a0018413          	addi	s0,gp,-1536 # 900003d0 <__malloc_sbrk_start>
8000a5bc:	00042783          	lw	a5,0(s0)
8000a5c0:	00079a63          	bnez	a5,8000a5d4 <_malloc_r+0x6c>
8000a5c4:	00000593          	li	a1,0
8000a5c8:	00090513          	mv	a0,s2
8000a5cc:	560000ef          	jal	ra,8000ab2c <_sbrk_r>
8000a5d0:	00a42023          	sw	a0,0(s0)
8000a5d4:	00048593          	mv	a1,s1
8000a5d8:	00090513          	mv	a0,s2
8000a5dc:	550000ef          	jal	ra,8000ab2c <_sbrk_r>
8000a5e0:	fff00993          	li	s3,-1
8000a5e4:	0b351a63          	bne	a0,s3,8000a698 <_malloc_r+0x130>
8000a5e8:	00c00793          	li	a5,12
8000a5ec:	00f92023          	sw	a5,0(s2)
8000a5f0:	00090513          	mv	a0,s2
8000a5f4:	0c5000ef          	jal	ra,8000aeb8 <__malloc_unlock>
8000a5f8:	0100006f          	j	8000a608 <_malloc_r+0xa0>
8000a5fc:	fa04d0e3          	bgez	s1,8000a59c <_malloc_r+0x34>
8000a600:	00c00793          	li	a5,12
8000a604:	00f92023          	sw	a5,0(s2)
8000a608:	00000513          	li	a0,0
8000a60c:	01c12083          	lw	ra,28(sp)
8000a610:	01812403          	lw	s0,24(sp)
8000a614:	01412483          	lw	s1,20(sp)
8000a618:	01012903          	lw	s2,16(sp)
8000a61c:	00c12983          	lw	s3,12(sp)
8000a620:	02010113          	addi	sp,sp,32
8000a624:	00008067          	ret
8000a628:	00042783          	lw	a5,0(s0)
8000a62c:	409787b3          	sub	a5,a5,s1
8000a630:	0407ce63          	bltz	a5,8000a68c <_malloc_r+0x124>
8000a634:	00b00613          	li	a2,11
8000a638:	00f67a63          	bgeu	a2,a5,8000a64c <_malloc_r+0xe4>
8000a63c:	00f42023          	sw	a5,0(s0)
8000a640:	00f40433          	add	s0,s0,a5
8000a644:	00942023          	sw	s1,0(s0)
8000a648:	0100006f          	j	8000a658 <_malloc_r+0xf0>
8000a64c:	00442783          	lw	a5,4(s0)
8000a650:	02871a63          	bne	a4,s0,8000a684 <_malloc_r+0x11c>
8000a654:	00f6a023          	sw	a5,0(a3)
8000a658:	00090513          	mv	a0,s2
8000a65c:	05d000ef          	jal	ra,8000aeb8 <__malloc_unlock>
8000a660:	00b40513          	addi	a0,s0,11
8000a664:	00440793          	addi	a5,s0,4
8000a668:	ff857513          	andi	a0,a0,-8
8000a66c:	40f50733          	sub	a4,a0,a5
8000a670:	f8f50ee3          	beq	a0,a5,8000a60c <_malloc_r+0xa4>
8000a674:	00e40433          	add	s0,s0,a4
8000a678:	40a787b3          	sub	a5,a5,a0
8000a67c:	00f42023          	sw	a5,0(s0)
8000a680:	f8dff06f          	j	8000a60c <_malloc_r+0xa4>
8000a684:	00f72223          	sw	a5,4(a4)
8000a688:	fd1ff06f          	j	8000a658 <_malloc_r+0xf0>
8000a68c:	00040713          	mv	a4,s0
8000a690:	00442403          	lw	s0,4(s0)
8000a694:	f21ff06f          	j	8000a5b4 <_malloc_r+0x4c>
8000a698:	00350413          	addi	s0,a0,3
8000a69c:	ffc47413          	andi	s0,s0,-4
8000a6a0:	fa8502e3          	beq	a0,s0,8000a644 <_malloc_r+0xdc>
8000a6a4:	40a405b3          	sub	a1,s0,a0
8000a6a8:	00090513          	mv	a0,s2
8000a6ac:	480000ef          	jal	ra,8000ab2c <_sbrk_r>
8000a6b0:	f9351ae3          	bne	a0,s3,8000a644 <_malloc_r+0xdc>
8000a6b4:	f35ff06f          	j	8000a5e8 <_malloc_r+0x80>

8000a6b8 <__sfputc_r>:
__sfputc_r():
8000a6b8:	00862783          	lw	a5,8(a2)
8000a6bc:	fff78793          	addi	a5,a5,-1
8000a6c0:	00f62423          	sw	a5,8(a2)
8000a6c4:	0007dc63          	bgez	a5,8000a6dc <__sfputc_r+0x24>
8000a6c8:	01862703          	lw	a4,24(a2)
8000a6cc:	00e7c663          	blt	a5,a4,8000a6d8 <__sfputc_r+0x20>
8000a6d0:	00a00793          	li	a5,10
8000a6d4:	00f59463          	bne	a1,a5,8000a6dc <__sfputc_r+0x24>
8000a6d8:	828fd06f          	j	80007700 <__swbuf_r>
8000a6dc:	00062783          	lw	a5,0(a2)
8000a6e0:	00058513          	mv	a0,a1
8000a6e4:	00178713          	addi	a4,a5,1
8000a6e8:	00e62023          	sw	a4,0(a2)
8000a6ec:	00b78023          	sb	a1,0(a5)
8000a6f0:	00008067          	ret

8000a6f4 <__sfputs_r>:
__sfputs_r():
8000a6f4:	fe010113          	addi	sp,sp,-32
8000a6f8:	00812c23          	sw	s0,24(sp)
8000a6fc:	00912a23          	sw	s1,20(sp)
8000a700:	01212823          	sw	s2,16(sp)
8000a704:	01312623          	sw	s3,12(sp)
8000a708:	01412423          	sw	s4,8(sp)
8000a70c:	00112e23          	sw	ra,28(sp)
8000a710:	00050913          	mv	s2,a0
8000a714:	00058993          	mv	s3,a1
8000a718:	00060413          	mv	s0,a2
8000a71c:	00d604b3          	add	s1,a2,a3
8000a720:	fff00a13          	li	s4,-1
8000a724:	00941663          	bne	s0,s1,8000a730 <__sfputs_r+0x3c>
8000a728:	00000513          	li	a0,0
8000a72c:	01c0006f          	j	8000a748 <__sfputs_r+0x54>
8000a730:	00044583          	lbu	a1,0(s0)
8000a734:	00098613          	mv	a2,s3
8000a738:	00090513          	mv	a0,s2
8000a73c:	f7dff0ef          	jal	ra,8000a6b8 <__sfputc_r>
8000a740:	00140413          	addi	s0,s0,1
8000a744:	ff4510e3          	bne	a0,s4,8000a724 <__sfputs_r+0x30>
8000a748:	01c12083          	lw	ra,28(sp)
8000a74c:	01812403          	lw	s0,24(sp)
8000a750:	01412483          	lw	s1,20(sp)
8000a754:	01012903          	lw	s2,16(sp)
8000a758:	00c12983          	lw	s3,12(sp)
8000a75c:	00812a03          	lw	s4,8(sp)
8000a760:	02010113          	addi	sp,sp,32
8000a764:	00008067          	ret

8000a768 <_vfiprintf_r>:
_vfiprintf_r():
8000a768:	f6010113          	addi	sp,sp,-160
8000a76c:	08812c23          	sw	s0,152(sp)
8000a770:	08912a23          	sw	s1,148(sp)
8000a774:	09212823          	sw	s2,144(sp)
8000a778:	09312623          	sw	s3,140(sp)
8000a77c:	08112e23          	sw	ra,156(sp)
8000a780:	09412423          	sw	s4,136(sp)
8000a784:	09512223          	sw	s5,132(sp)
8000a788:	09612023          	sw	s6,128(sp)
8000a78c:	07712e23          	sw	s7,124(sp)
8000a790:	07812c23          	sw	s8,120(sp)
8000a794:	07912a23          	sw	s9,116(sp)
8000a798:	00050993          	mv	s3,a0
8000a79c:	00058493          	mv	s1,a1
8000a7a0:	00060913          	mv	s2,a2
8000a7a4:	00068413          	mv	s0,a3
8000a7a8:	00050863          	beqz	a0,8000a7b8 <_vfiprintf_r+0x50>
8000a7ac:	01852783          	lw	a5,24(a0)
8000a7b0:	00079463          	bnez	a5,8000a7b8 <_vfiprintf_r+0x50>
8000a7b4:	9edfe0ef          	jal	ra,800091a0 <__sinit>
8000a7b8:	00003797          	auipc	a5,0x3
8000a7bc:	65878793          	addi	a5,a5,1624 # 8000de10 <__sf_fake_stdin>
8000a7c0:	12f49263          	bne	s1,a5,8000a8e4 <_vfiprintf_r+0x17c>
8000a7c4:	0049a483          	lw	s1,4(s3)
8000a7c8:	00c4d783          	lhu	a5,12(s1)
8000a7cc:	0087f793          	andi	a5,a5,8
8000a7d0:	12078e63          	beqz	a5,8000a90c <_vfiprintf_r+0x1a4>
8000a7d4:	0104a783          	lw	a5,16(s1)
8000a7d8:	12078a63          	beqz	a5,8000a90c <_vfiprintf_r+0x1a4>
8000a7dc:	02000793          	li	a5,32
8000a7e0:	02f104a3          	sb	a5,41(sp)
8000a7e4:	03000793          	li	a5,48
8000a7e8:	02012223          	sw	zero,36(sp)
8000a7ec:	02f10523          	sb	a5,42(sp)
8000a7f0:	00812623          	sw	s0,12(sp)
8000a7f4:	02500b93          	li	s7,37
8000a7f8:	00003a97          	auipc	s5,0x3
8000a7fc:	7c4a8a93          	addi	s5,s5,1988 # 8000dfbc <p05.0+0xc>
8000a800:	00100c13          	li	s8,1
8000a804:	00a00b13          	li	s6,10
8000a808:	00090413          	mv	s0,s2
8000a80c:	00044783          	lbu	a5,0(s0)
8000a810:	00078463          	beqz	a5,8000a818 <_vfiprintf_r+0xb0>
8000a814:	15779063          	bne	a5,s7,8000a954 <_vfiprintf_r+0x1ec>
8000a818:	41240cb3          	sub	s9,s0,s2
8000a81c:	03240663          	beq	s0,s2,8000a848 <_vfiprintf_r+0xe0>
8000a820:	000c8693          	mv	a3,s9
8000a824:	00090613          	mv	a2,s2
8000a828:	00048593          	mv	a1,s1
8000a82c:	00098513          	mv	a0,s3
8000a830:	ec5ff0ef          	jal	ra,8000a6f4 <__sfputs_r>
8000a834:	fff00793          	li	a5,-1
8000a838:	2cf50063          	beq	a0,a5,8000aaf8 <_vfiprintf_r+0x390>
8000a83c:	02412783          	lw	a5,36(sp)
8000a840:	019787b3          	add	a5,a5,s9
8000a844:	02f12223          	sw	a5,36(sp)
8000a848:	00044783          	lbu	a5,0(s0)
8000a84c:	2a078663          	beqz	a5,8000aaf8 <_vfiprintf_r+0x390>
8000a850:	fff00793          	li	a5,-1
8000a854:	00140913          	addi	s2,s0,1
8000a858:	00012823          	sw	zero,16(sp)
8000a85c:	00012e23          	sw	zero,28(sp)
8000a860:	00f12a23          	sw	a5,20(sp)
8000a864:	00012c23          	sw	zero,24(sp)
8000a868:	040109a3          	sb	zero,83(sp)
8000a86c:	06012423          	sw	zero,104(sp)
8000a870:	00094583          	lbu	a1,0(s2)
8000a874:	00500613          	li	a2,5
8000a878:	000a8513          	mv	a0,s5
8000a87c:	d61fe0ef          	jal	ra,800095dc <memchr>
8000a880:	01012783          	lw	a5,16(sp)
8000a884:	00190413          	addi	s0,s2,1
8000a888:	0c051a63          	bnez	a0,8000a95c <_vfiprintf_r+0x1f4>
8000a88c:	0107f713          	andi	a4,a5,16
8000a890:	00070663          	beqz	a4,8000a89c <_vfiprintf_r+0x134>
8000a894:	02000713          	li	a4,32
8000a898:	04e109a3          	sb	a4,83(sp)
8000a89c:	0087f713          	andi	a4,a5,8
8000a8a0:	00070663          	beqz	a4,8000a8ac <_vfiprintf_r+0x144>
8000a8a4:	02b00713          	li	a4,43
8000a8a8:	04e109a3          	sb	a4,83(sp)
8000a8ac:	00094683          	lbu	a3,0(s2)
8000a8b0:	02a00713          	li	a4,42
8000a8b4:	0ce68063          	beq	a3,a4,8000a974 <_vfiprintf_r+0x20c>
8000a8b8:	01c12783          	lw	a5,28(sp)
8000a8bc:	00090413          	mv	s0,s2
8000a8c0:	00000693          	li	a3,0
8000a8c4:	00900613          	li	a2,9
8000a8c8:	00044703          	lbu	a4,0(s0)
8000a8cc:	00140593          	addi	a1,s0,1
8000a8d0:	fd070713          	addi	a4,a4,-48
8000a8d4:	10e67263          	bgeu	a2,a4,8000a9d8 <_vfiprintf_r+0x270>
8000a8d8:	0a068a63          	beqz	a3,8000a98c <_vfiprintf_r+0x224>
8000a8dc:	00f12e23          	sw	a5,28(sp)
8000a8e0:	0ac0006f          	j	8000a98c <_vfiprintf_r+0x224>
8000a8e4:	00003797          	auipc	a5,0x3
8000a8e8:	54c78793          	addi	a5,a5,1356 # 8000de30 <__sf_fake_stdout>
8000a8ec:	00f49663          	bne	s1,a5,8000a8f8 <_vfiprintf_r+0x190>
8000a8f0:	0089a483          	lw	s1,8(s3)
8000a8f4:	ed5ff06f          	j	8000a7c8 <_vfiprintf_r+0x60>
8000a8f8:	00003797          	auipc	a5,0x3
8000a8fc:	4f878793          	addi	a5,a5,1272 # 8000ddf0 <__sf_fake_stderr>
8000a900:	ecf494e3          	bne	s1,a5,8000a7c8 <_vfiprintf_r+0x60>
8000a904:	00c9a483          	lw	s1,12(s3)
8000a908:	ec1ff06f          	j	8000a7c8 <_vfiprintf_r+0x60>
8000a90c:	00048593          	mv	a1,s1
8000a910:	00098513          	mv	a0,s3
8000a914:	f25fc0ef          	jal	ra,80007838 <__swsetup_r>
8000a918:	ec0502e3          	beqz	a0,8000a7dc <_vfiprintf_r+0x74>
8000a91c:	fff00513          	li	a0,-1
8000a920:	09c12083          	lw	ra,156(sp)
8000a924:	09812403          	lw	s0,152(sp)
8000a928:	09412483          	lw	s1,148(sp)
8000a92c:	09012903          	lw	s2,144(sp)
8000a930:	08c12983          	lw	s3,140(sp)
8000a934:	08812a03          	lw	s4,136(sp)
8000a938:	08412a83          	lw	s5,132(sp)
8000a93c:	08012b03          	lw	s6,128(sp)
8000a940:	07c12b83          	lw	s7,124(sp)
8000a944:	07812c03          	lw	s8,120(sp)
8000a948:	07412c83          	lw	s9,116(sp)
8000a94c:	0a010113          	addi	sp,sp,160
8000a950:	00008067          	ret
8000a954:	00140413          	addi	s0,s0,1
8000a958:	eb5ff06f          	j	8000a80c <_vfiprintf_r+0xa4>
8000a95c:	41550533          	sub	a0,a0,s5
8000a960:	00ac1533          	sll	a0,s8,a0
8000a964:	00a7e7b3          	or	a5,a5,a0
8000a968:	00f12823          	sw	a5,16(sp)
8000a96c:	00040913          	mv	s2,s0
8000a970:	f01ff06f          	j	8000a870 <_vfiprintf_r+0x108>
8000a974:	00c12703          	lw	a4,12(sp)
8000a978:	00470693          	addi	a3,a4,4
8000a97c:	00072703          	lw	a4,0(a4)
8000a980:	00d12623          	sw	a3,12(sp)
8000a984:	04074063          	bltz	a4,8000a9c4 <_vfiprintf_r+0x25c>
8000a988:	00e12e23          	sw	a4,28(sp)
8000a98c:	00044703          	lbu	a4,0(s0)
8000a990:	02e00793          	li	a5,46
8000a994:	08f71463          	bne	a4,a5,8000aa1c <_vfiprintf_r+0x2b4>
8000a998:	00144703          	lbu	a4,1(s0)
8000a99c:	02a00793          	li	a5,42
8000a9a0:	04f71a63          	bne	a4,a5,8000a9f4 <_vfiprintf_r+0x28c>
8000a9a4:	00c12783          	lw	a5,12(sp)
8000a9a8:	00240413          	addi	s0,s0,2
8000a9ac:	00478713          	addi	a4,a5,4
8000a9b0:	0007a783          	lw	a5,0(a5)
8000a9b4:	00e12623          	sw	a4,12(sp)
8000a9b8:	0207ca63          	bltz	a5,8000a9ec <_vfiprintf_r+0x284>
8000a9bc:	00f12a23          	sw	a5,20(sp)
8000a9c0:	05c0006f          	j	8000aa1c <_vfiprintf_r+0x2b4>
8000a9c4:	40e00733          	neg	a4,a4
8000a9c8:	0027e793          	ori	a5,a5,2
8000a9cc:	00e12e23          	sw	a4,28(sp)
8000a9d0:	00f12823          	sw	a5,16(sp)
8000a9d4:	fb9ff06f          	j	8000a98c <_vfiprintf_r+0x224>
8000a9d8:	036787b3          	mul	a5,a5,s6
8000a9dc:	00058413          	mv	s0,a1
8000a9e0:	00100693          	li	a3,1
8000a9e4:	00e787b3          	add	a5,a5,a4
8000a9e8:	ee1ff06f          	j	8000a8c8 <_vfiprintf_r+0x160>
8000a9ec:	fff00793          	li	a5,-1
8000a9f0:	fcdff06f          	j	8000a9bc <_vfiprintf_r+0x254>
8000a9f4:	00140413          	addi	s0,s0,1
8000a9f8:	00012a23          	sw	zero,20(sp)
8000a9fc:	00000693          	li	a3,0
8000aa00:	00000793          	li	a5,0
8000aa04:	00900613          	li	a2,9
8000aa08:	00044703          	lbu	a4,0(s0)
8000aa0c:	00140593          	addi	a1,s0,1
8000aa10:	fd070713          	addi	a4,a4,-48
8000aa14:	08e67c63          	bgeu	a2,a4,8000aaac <_vfiprintf_r+0x344>
8000aa18:	fa0692e3          	bnez	a3,8000a9bc <_vfiprintf_r+0x254>
8000aa1c:	00044583          	lbu	a1,0(s0)
8000aa20:	00300613          	li	a2,3
8000aa24:	00003517          	auipc	a0,0x3
8000aa28:	5a050513          	addi	a0,a0,1440 # 8000dfc4 <p05.0+0x14>
8000aa2c:	bb1fe0ef          	jal	ra,800095dc <memchr>
8000aa30:	02050463          	beqz	a0,8000aa58 <_vfiprintf_r+0x2f0>
8000aa34:	00003797          	auipc	a5,0x3
8000aa38:	59078793          	addi	a5,a5,1424 # 8000dfc4 <p05.0+0x14>
8000aa3c:	40f50533          	sub	a0,a0,a5
8000aa40:	04000793          	li	a5,64
8000aa44:	00a797b3          	sll	a5,a5,a0
8000aa48:	01012503          	lw	a0,16(sp)
8000aa4c:	00140413          	addi	s0,s0,1
8000aa50:	00f56533          	or	a0,a0,a5
8000aa54:	00a12823          	sw	a0,16(sp)
8000aa58:	00044583          	lbu	a1,0(s0)
8000aa5c:	00600613          	li	a2,6
8000aa60:	00003517          	auipc	a0,0x3
8000aa64:	56850513          	addi	a0,a0,1384 # 8000dfc8 <p05.0+0x18>
8000aa68:	00140913          	addi	s2,s0,1
8000aa6c:	02b10423          	sb	a1,40(sp)
8000aa70:	b6dfe0ef          	jal	ra,800095dc <memchr>
8000aa74:	08050c63          	beqz	a0,8000ab0c <_vfiprintf_r+0x3a4>
8000aa78:	ffffc797          	auipc	a5,0xffffc
8000aa7c:	c9878793          	addi	a5,a5,-872 # 80006710 <_printf_float>
8000aa80:	04079863          	bnez	a5,8000aad0 <_vfiprintf_r+0x368>
8000aa84:	01012703          	lw	a4,16(sp)
8000aa88:	00c12783          	lw	a5,12(sp)
8000aa8c:	10077713          	andi	a4,a4,256
8000aa90:	02070863          	beqz	a4,8000aac0 <_vfiprintf_r+0x358>
8000aa94:	00478793          	addi	a5,a5,4
8000aa98:	00f12623          	sw	a5,12(sp)
8000aa9c:	02412783          	lw	a5,36(sp)
8000aaa0:	014787b3          	add	a5,a5,s4
8000aaa4:	02f12223          	sw	a5,36(sp)
8000aaa8:	d61ff06f          	j	8000a808 <_vfiprintf_r+0xa0>
8000aaac:	036787b3          	mul	a5,a5,s6
8000aab0:	00058413          	mv	s0,a1
8000aab4:	00100693          	li	a3,1
8000aab8:	00e787b3          	add	a5,a5,a4
8000aabc:	f4dff06f          	j	8000aa08 <_vfiprintf_r+0x2a0>
8000aac0:	00778793          	addi	a5,a5,7
8000aac4:	ff87f793          	andi	a5,a5,-8
8000aac8:	00878793          	addi	a5,a5,8
8000aacc:	fcdff06f          	j	8000aa98 <_vfiprintf_r+0x330>
8000aad0:	00c10713          	addi	a4,sp,12
8000aad4:	00000697          	auipc	a3,0x0
8000aad8:	c2068693          	addi	a3,a3,-992 # 8000a6f4 <__sfputs_r>
8000aadc:	00048613          	mv	a2,s1
8000aae0:	01010593          	addi	a1,sp,16
8000aae4:	00098513          	mv	a0,s3
8000aae8:	c29fb0ef          	jal	ra,80006710 <_printf_float>
8000aaec:	fff00793          	li	a5,-1
8000aaf0:	00050a13          	mv	s4,a0
8000aaf4:	faf514e3          	bne	a0,a5,8000aa9c <_vfiprintf_r+0x334>
8000aaf8:	00c4d783          	lhu	a5,12(s1)
8000aafc:	0407f793          	andi	a5,a5,64
8000ab00:	e0079ee3          	bnez	a5,8000a91c <_vfiprintf_r+0x1b4>
8000ab04:	02412503          	lw	a0,36(sp)
8000ab08:	e19ff06f          	j	8000a920 <_vfiprintf_r+0x1b8>
8000ab0c:	00c10713          	addi	a4,sp,12
8000ab10:	00000697          	auipc	a3,0x0
8000ab14:	be468693          	addi	a3,a3,-1052 # 8000a6f4 <__sfputs_r>
8000ab18:	00048613          	mv	a2,s1
8000ab1c:	01010593          	addi	a1,sp,16
8000ab20:	00098513          	mv	a0,s3
8000ab24:	d34fc0ef          	jal	ra,80007058 <_printf_i>
8000ab28:	fc5ff06f          	j	8000aaec <_vfiprintf_r+0x384>

8000ab2c <_sbrk_r>:
_sbrk_r():
8000ab2c:	ff010113          	addi	sp,sp,-16
8000ab30:	00812423          	sw	s0,8(sp)
8000ab34:	00050413          	mv	s0,a0
8000ab38:	00058513          	mv	a0,a1
8000ab3c:	9e01aa23          	sw	zero,-1548(gp) # 900003c4 <errno>
8000ab40:	00112623          	sw	ra,12(sp)
8000ab44:	a21f50ef          	jal	ra,80000564 <_sbrk>
8000ab48:	fff00793          	li	a5,-1
8000ab4c:	00f51863          	bne	a0,a5,8000ab5c <_sbrk_r+0x30>
8000ab50:	9f41a783          	lw	a5,-1548(gp) # 900003c4 <errno>
8000ab54:	00078463          	beqz	a5,8000ab5c <_sbrk_r+0x30>
8000ab58:	00f42023          	sw	a5,0(s0)
8000ab5c:	00c12083          	lw	ra,12(sp)
8000ab60:	00812403          	lw	s0,8(sp)
8000ab64:	01010113          	addi	sp,sp,16
8000ab68:	00008067          	ret

8000ab6c <__sread>:
__sread():
8000ab6c:	ff010113          	addi	sp,sp,-16
8000ab70:	00812423          	sw	s0,8(sp)
8000ab74:	00058413          	mv	s0,a1
8000ab78:	00e59583          	lh	a1,14(a1)
8000ab7c:	00112623          	sw	ra,12(sp)
8000ab80:	33c000ef          	jal	ra,8000aebc <_read_r>
8000ab84:	02054063          	bltz	a0,8000aba4 <__sread+0x38>
8000ab88:	05442783          	lw	a5,84(s0)
8000ab8c:	00a787b3          	add	a5,a5,a0
8000ab90:	04f42a23          	sw	a5,84(s0)
8000ab94:	00c12083          	lw	ra,12(sp)
8000ab98:	00812403          	lw	s0,8(sp)
8000ab9c:	01010113          	addi	sp,sp,16
8000aba0:	00008067          	ret
8000aba4:	00c45783          	lhu	a5,12(s0)
8000aba8:	fffff737          	lui	a4,0xfffff
8000abac:	fff70713          	addi	a4,a4,-1 # ffffefff <_sp+0x6ffeefff>
8000abb0:	00e7f7b3          	and	a5,a5,a4
8000abb4:	00f41623          	sh	a5,12(s0)
8000abb8:	fddff06f          	j	8000ab94 <__sread+0x28>

8000abbc <__swrite>:
__swrite():
8000abbc:	00c5d783          	lhu	a5,12(a1)
8000abc0:	fe010113          	addi	sp,sp,-32
8000abc4:	00812c23          	sw	s0,24(sp)
8000abc8:	00912a23          	sw	s1,20(sp)
8000abcc:	01212823          	sw	s2,16(sp)
8000abd0:	01312623          	sw	s3,12(sp)
8000abd4:	00112e23          	sw	ra,28(sp)
8000abd8:	1007f793          	andi	a5,a5,256
8000abdc:	00050493          	mv	s1,a0
8000abe0:	00058413          	mv	s0,a1
8000abe4:	00060913          	mv	s2,a2
8000abe8:	00068993          	mv	s3,a3
8000abec:	00078a63          	beqz	a5,8000ac00 <__swrite+0x44>
8000abf0:	00e59583          	lh	a1,14(a1)
8000abf4:	00200693          	li	a3,2
8000abf8:	00000613          	li	a2,0
8000abfc:	270000ef          	jal	ra,8000ae6c <_lseek_r>
8000ac00:	00c45783          	lhu	a5,12(s0)
8000ac04:	fffff737          	lui	a4,0xfffff
8000ac08:	fff70713          	addi	a4,a4,-1 # ffffefff <_sp+0x6ffeefff>
8000ac0c:	00e7f7b3          	and	a5,a5,a4
8000ac10:	00e41583          	lh	a1,14(s0)
8000ac14:	00f41623          	sh	a5,12(s0)
8000ac18:	01812403          	lw	s0,24(sp)
8000ac1c:	01c12083          	lw	ra,28(sp)
8000ac20:	00098693          	mv	a3,s3
8000ac24:	00090613          	mv	a2,s2
8000ac28:	00c12983          	lw	s3,12(sp)
8000ac2c:	01012903          	lw	s2,16(sp)
8000ac30:	00048513          	mv	a0,s1
8000ac34:	01412483          	lw	s1,20(sp)
8000ac38:	02010113          	addi	sp,sp,32
8000ac3c:	0940006f          	j	8000acd0 <_write_r>

8000ac40 <__sseek>:
__sseek():
8000ac40:	ff010113          	addi	sp,sp,-16
8000ac44:	00812423          	sw	s0,8(sp)
8000ac48:	00058413          	mv	s0,a1
8000ac4c:	00e59583          	lh	a1,14(a1)
8000ac50:	00112623          	sw	ra,12(sp)
8000ac54:	218000ef          	jal	ra,8000ae6c <_lseek_r>
8000ac58:	fff00793          	li	a5,-1
8000ac5c:	00c45703          	lhu	a4,12(s0)
8000ac60:	02f51263          	bne	a0,a5,8000ac84 <__sseek+0x44>
8000ac64:	fffff7b7          	lui	a5,0xfffff
8000ac68:	fff78793          	addi	a5,a5,-1 # ffffefff <_sp+0x6ffeefff>
8000ac6c:	00e7f7b3          	and	a5,a5,a4
8000ac70:	00f41623          	sh	a5,12(s0)
8000ac74:	00c12083          	lw	ra,12(sp)
8000ac78:	00812403          	lw	s0,8(sp)
8000ac7c:	01010113          	addi	sp,sp,16
8000ac80:	00008067          	ret
8000ac84:	000017b7          	lui	a5,0x1
8000ac88:	00f767b3          	or	a5,a4,a5
8000ac8c:	00f41623          	sh	a5,12(s0)
8000ac90:	04a42a23          	sw	a0,84(s0)
8000ac94:	fe1ff06f          	j	8000ac74 <__sseek+0x34>

8000ac98 <__sclose>:
__sclose():
8000ac98:	00e59583          	lh	a1,14(a1)
8000ac9c:	0c80006f          	j	8000ad64 <_close_r>

8000aca0 <__ascii_wctomb>:
__ascii_wctomb():
8000aca0:	02058463          	beqz	a1,8000acc8 <__ascii_wctomb+0x28>
8000aca4:	0ff00793          	li	a5,255
8000aca8:	00c7fa63          	bgeu	a5,a2,8000acbc <__ascii_wctomb+0x1c>
8000acac:	08a00793          	li	a5,138
8000acb0:	00f52023          	sw	a5,0(a0)
8000acb4:	fff00513          	li	a0,-1
8000acb8:	00008067          	ret
8000acbc:	00c58023          	sb	a2,0(a1)
8000acc0:	00100513          	li	a0,1
8000acc4:	00008067          	ret
8000acc8:	00000513          	li	a0,0
8000accc:	00008067          	ret

8000acd0 <_write_r>:
_write_r():
8000acd0:	ff010113          	addi	sp,sp,-16
8000acd4:	00812423          	sw	s0,8(sp)
8000acd8:	00050413          	mv	s0,a0
8000acdc:	00058513          	mv	a0,a1
8000ace0:	00060593          	mv	a1,a2
8000ace4:	00068613          	mv	a2,a3
8000ace8:	9e01aa23          	sw	zero,-1548(gp) # 900003c4 <errno>
8000acec:	00112623          	sw	ra,12(sp)
8000acf0:	8b1f50ef          	jal	ra,800005a0 <_write>
8000acf4:	fff00793          	li	a5,-1
8000acf8:	00f51863          	bne	a0,a5,8000ad08 <_write_r+0x38>
8000acfc:	9f41a783          	lw	a5,-1548(gp) # 900003c4 <errno>
8000ad00:	00078463          	beqz	a5,8000ad08 <_write_r+0x38>
8000ad04:	00f42023          	sw	a5,0(s0)
8000ad08:	00c12083          	lw	ra,12(sp)
8000ad0c:	00812403          	lw	s0,8(sp)
8000ad10:	01010113          	addi	sp,sp,16
8000ad14:	00008067          	ret

8000ad18 <__assert_func>:
__assert_func():
8000ad18:	ff010113          	addi	sp,sp,-16
8000ad1c:	80c1a783          	lw	a5,-2036(gp) # 900001dc <_impure_ptr>
8000ad20:	00060813          	mv	a6,a2
8000ad24:	00112623          	sw	ra,12(sp)
8000ad28:	00050893          	mv	a7,a0
8000ad2c:	00058713          	mv	a4,a1
8000ad30:	00c7a503          	lw	a0,12(a5) # 100c <__stack_size+0x80c>
8000ad34:	00068613          	mv	a2,a3
8000ad38:	00003797          	auipc	a5,0x3
8000ad3c:	29878793          	addi	a5,a5,664 # 8000dfd0 <p05.0+0x20>
8000ad40:	00081863          	bnez	a6,8000ad50 <__assert_func+0x38>
8000ad44:	00002797          	auipc	a5,0x2
8000ad48:	79078793          	addi	a5,a5,1936 # 8000d4d4 <__trunctfdf2+0x3f8>
8000ad4c:	00078813          	mv	a6,a5
8000ad50:	00088693          	mv	a3,a7
8000ad54:	00003597          	auipc	a1,0x3
8000ad58:	28c58593          	addi	a1,a1,652 # 8000dfe0 <p05.0+0x30>
8000ad5c:	048000ef          	jal	ra,8000ada4 <fiprintf>
8000ad60:	1a4000ef          	jal	ra,8000af04 <abort>

8000ad64 <_close_r>:
_close_r():
8000ad64:	ff010113          	addi	sp,sp,-16
8000ad68:	00812423          	sw	s0,8(sp)
8000ad6c:	00050413          	mv	s0,a0
8000ad70:	00058513          	mv	a0,a1
8000ad74:	9e01aa23          	sw	zero,-1548(gp) # 900003c4 <errno>
8000ad78:	00112623          	sw	ra,12(sp)
8000ad7c:	f40f50ef          	jal	ra,800004bc <_close>
8000ad80:	fff00793          	li	a5,-1
8000ad84:	00f51863          	bne	a0,a5,8000ad94 <_close_r+0x30>
8000ad88:	9f41a783          	lw	a5,-1548(gp) # 900003c4 <errno>
8000ad8c:	00078463          	beqz	a5,8000ad94 <_close_r+0x30>
8000ad90:	00f42023          	sw	a5,0(s0)
8000ad94:	00c12083          	lw	ra,12(sp)
8000ad98:	00812403          	lw	s0,8(sp)
8000ad9c:	01010113          	addi	sp,sp,16
8000ada0:	00008067          	ret

8000ada4 <fiprintf>:
fprintf():
8000ada4:	fc010113          	addi	sp,sp,-64
8000ada8:	02c12423          	sw	a2,40(sp)
8000adac:	02d12623          	sw	a3,44(sp)
8000adb0:	00058613          	mv	a2,a1
8000adb4:	02810693          	addi	a3,sp,40
8000adb8:	00050593          	mv	a1,a0
8000adbc:	80c1a503          	lw	a0,-2036(gp) # 900001dc <_impure_ptr>
8000adc0:	00112e23          	sw	ra,28(sp)
8000adc4:	02e12823          	sw	a4,48(sp)
8000adc8:	02f12a23          	sw	a5,52(sp)
8000adcc:	03012c23          	sw	a6,56(sp)
8000add0:	03112e23          	sw	a7,60(sp)
8000add4:	00d12623          	sw	a3,12(sp)
8000add8:	991ff0ef          	jal	ra,8000a768 <_vfiprintf_r>
8000addc:	01c12083          	lw	ra,28(sp)
8000ade0:	04010113          	addi	sp,sp,64
8000ade4:	00008067          	ret

8000ade8 <_fstat_r>:
_fstat_r():
8000ade8:	ff010113          	addi	sp,sp,-16
8000adec:	00812423          	sw	s0,8(sp)
8000adf0:	00050413          	mv	s0,a0
8000adf4:	00058513          	mv	a0,a1
8000adf8:	00060593          	mv	a1,a2
8000adfc:	9e01aa23          	sw	zero,-1548(gp) # 900003c4 <errno>
8000ae00:	00112623          	sw	ra,12(sp)
8000ae04:	ed0f50ef          	jal	ra,800004d4 <_fstat>
8000ae08:	fff00793          	li	a5,-1
8000ae0c:	00f51863          	bne	a0,a5,8000ae1c <_fstat_r+0x34>
8000ae10:	9f41a783          	lw	a5,-1548(gp) # 900003c4 <errno>
8000ae14:	00078463          	beqz	a5,8000ae1c <_fstat_r+0x34>
8000ae18:	00f42023          	sw	a5,0(s0)
8000ae1c:	00c12083          	lw	ra,12(sp)
8000ae20:	00812403          	lw	s0,8(sp)
8000ae24:	01010113          	addi	sp,sp,16
8000ae28:	00008067          	ret

8000ae2c <_isatty_r>:
_isatty_r():
8000ae2c:	ff010113          	addi	sp,sp,-16
8000ae30:	00812423          	sw	s0,8(sp)
8000ae34:	00050413          	mv	s0,a0
8000ae38:	00058513          	mv	a0,a1
8000ae3c:	9e01aa23          	sw	zero,-1548(gp) # 900003c4 <errno>
8000ae40:	00112623          	sw	ra,12(sp)
8000ae44:	ec4f50ef          	jal	ra,80000508 <_isatty>
8000ae48:	fff00793          	li	a5,-1
8000ae4c:	00f51863          	bne	a0,a5,8000ae5c <_isatty_r+0x30>
8000ae50:	9f41a783          	lw	a5,-1548(gp) # 900003c4 <errno>
8000ae54:	00078463          	beqz	a5,8000ae5c <_isatty_r+0x30>
8000ae58:	00f42023          	sw	a5,0(s0)
8000ae5c:	00c12083          	lw	ra,12(sp)
8000ae60:	00812403          	lw	s0,8(sp)
8000ae64:	01010113          	addi	sp,sp,16
8000ae68:	00008067          	ret

8000ae6c <_lseek_r>:
_lseek_r():
8000ae6c:	ff010113          	addi	sp,sp,-16
8000ae70:	00812423          	sw	s0,8(sp)
8000ae74:	00050413          	mv	s0,a0
8000ae78:	00058513          	mv	a0,a1
8000ae7c:	00060593          	mv	a1,a2
8000ae80:	00068613          	mv	a2,a3
8000ae84:	9e01aa23          	sw	zero,-1548(gp) # 900003c4 <errno>
8000ae88:	00112623          	sw	ra,12(sp)
8000ae8c:	e94f50ef          	jal	ra,80000520 <_lseek>
8000ae90:	fff00793          	li	a5,-1
8000ae94:	00f51863          	bne	a0,a5,8000aea4 <_lseek_r+0x38>
8000ae98:	9f41a783          	lw	a5,-1548(gp) # 900003c4 <errno>
8000ae9c:	00078463          	beqz	a5,8000aea4 <_lseek_r+0x38>
8000aea0:	00f42023          	sw	a5,0(s0)
8000aea4:	00c12083          	lw	ra,12(sp)
8000aea8:	00812403          	lw	s0,8(sp)
8000aeac:	01010113          	addi	sp,sp,16
8000aeb0:	00008067          	ret

8000aeb4 <__malloc_lock>:
__malloc_lock():
8000aeb4:	00008067          	ret

8000aeb8 <__malloc_unlock>:
__malloc_unlock():
8000aeb8:	00008067          	ret

8000aebc <_read_r>:
_read_r():
8000aebc:	ff010113          	addi	sp,sp,-16
8000aec0:	00812423          	sw	s0,8(sp)
8000aec4:	00050413          	mv	s0,a0
8000aec8:	00058513          	mv	a0,a1
8000aecc:	00060593          	mv	a1,a2
8000aed0:	00068613          	mv	a2,a3
8000aed4:	9e01aa23          	sw	zero,-1548(gp) # 900003c4 <errno>
8000aed8:	00112623          	sw	ra,12(sp)
8000aedc:	e4cf50ef          	jal	ra,80000528 <_read>
8000aee0:	fff00793          	li	a5,-1
8000aee4:	00f51863          	bne	a0,a5,8000aef4 <_read_r+0x38>
8000aee8:	9f41a783          	lw	a5,-1548(gp) # 900003c4 <errno>
8000aeec:	00078463          	beqz	a5,8000aef4 <_read_r+0x38>
8000aef0:	00f42023          	sw	a5,0(s0)
8000aef4:	00c12083          	lw	ra,12(sp)
8000aef8:	00812403          	lw	s0,8(sp)
8000aefc:	01010113          	addi	sp,sp,16
8000af00:	00008067          	ret

8000af04 <abort>:
abort():
8000af04:	ff010113          	addi	sp,sp,-16
8000af08:	00600513          	li	a0,6
8000af0c:	00112623          	sw	ra,12(sp)
8000af10:	0bc000ef          	jal	ra,8000afcc <raise>
8000af14:	00100513          	li	a0,1
8000af18:	db4f50ef          	jal	ra,800004cc <_exit>

8000af1c <_raise_r>:
_raise_r():
8000af1c:	fe010113          	addi	sp,sp,-32
8000af20:	00812c23          	sw	s0,24(sp)
8000af24:	00112e23          	sw	ra,28(sp)
8000af28:	01f00793          	li	a5,31
8000af2c:	00050413          	mv	s0,a0
8000af30:	02b7f063          	bgeu	a5,a1,8000af50 <_raise_r+0x34>
8000af34:	01600793          	li	a5,22
8000af38:	00f52023          	sw	a5,0(a0)
8000af3c:	fff00513          	li	a0,-1
8000af40:	01c12083          	lw	ra,28(sp)
8000af44:	01812403          	lw	s0,24(sp)
8000af48:	02010113          	addi	sp,sp,32
8000af4c:	00008067          	ret
8000af50:	04452783          	lw	a5,68(a0)
8000af54:	00058613          	mv	a2,a1
8000af58:	00078a63          	beqz	a5,8000af6c <_raise_r+0x50>
8000af5c:	00259713          	slli	a4,a1,0x2
8000af60:	00e787b3          	add	a5,a5,a4
8000af64:	0007a703          	lw	a4,0(a5)
8000af68:	02071663          	bnez	a4,8000af94 <_raise_r+0x78>
8000af6c:	00040513          	mv	a0,s0
8000af70:	00c12623          	sw	a2,12(sp)
8000af74:	0a8000ef          	jal	ra,8000b01c <_getpid_r>
8000af78:	00050593          	mv	a1,a0
8000af7c:	00040513          	mv	a0,s0
8000af80:	01812403          	lw	s0,24(sp)
8000af84:	00c12603          	lw	a2,12(sp)
8000af88:	01c12083          	lw	ra,28(sp)
8000af8c:	02010113          	addi	sp,sp,32
8000af90:	0480006f          	j	8000afd8 <_kill_r>
8000af94:	00100693          	li	a3,1
8000af98:	00000513          	li	a0,0
8000af9c:	fad702e3          	beq	a4,a3,8000af40 <_raise_r+0x24>
8000afa0:	fff00693          	li	a3,-1
8000afa4:	00d71a63          	bne	a4,a3,8000afb8 <_raise_r+0x9c>
8000afa8:	01600793          	li	a5,22
8000afac:	00f42023          	sw	a5,0(s0)
8000afb0:	00100513          	li	a0,1
8000afb4:	f8dff06f          	j	8000af40 <_raise_r+0x24>
8000afb8:	00058513          	mv	a0,a1
8000afbc:	0007a023          	sw	zero,0(a5)
8000afc0:	000700e7          	jalr	a4
8000afc4:	00000513          	li	a0,0
8000afc8:	f79ff06f          	j	8000af40 <_raise_r+0x24>

8000afcc <raise>:
raise():
8000afcc:	00050593          	mv	a1,a0
8000afd0:	80c1a503          	lw	a0,-2036(gp) # 900001dc <_impure_ptr>
8000afd4:	f49ff06f          	j	8000af1c <_raise_r>

8000afd8 <_kill_r>:
_kill_r():
8000afd8:	ff010113          	addi	sp,sp,-16
8000afdc:	00812423          	sw	s0,8(sp)
8000afe0:	00050413          	mv	s0,a0
8000afe4:	00058513          	mv	a0,a1
8000afe8:	00060593          	mv	a1,a2
8000afec:	9e01aa23          	sw	zero,-1548(gp) # 900003c4 <errno>
8000aff0:	00112623          	sw	ra,12(sp)
8000aff4:	d1cf50ef          	jal	ra,80000510 <_kill>
8000aff8:	fff00793          	li	a5,-1
8000affc:	00f51863          	bne	a0,a5,8000b00c <_kill_r+0x34>
8000b000:	9f41a783          	lw	a5,-1548(gp) # 900003c4 <errno>
8000b004:	00078463          	beqz	a5,8000b00c <_kill_r+0x34>
8000b008:	00f42023          	sw	a5,0(s0)
8000b00c:	00c12083          	lw	ra,12(sp)
8000b010:	00812403          	lw	s0,8(sp)
8000b014:	01010113          	addi	sp,sp,16
8000b018:	00008067          	ret

8000b01c <_getpid_r>:
_getpid_r():
8000b01c:	ce4f506f          	j	80000500 <_getpid>

8000b020 <__adddf3>:
__adddf3():
/home/hqfang/workspace/software/riscv-gnu-toolchain/riscv-gcc/libgcc/soft-fp/adddf3.c:44
8000b020:	00100837          	lui	a6,0x100
8000b024:	fff80813          	addi	a6,a6,-1 # fffff <__stack_size+0xff7ff>
/home/hqfang/workspace/software/riscv-gnu-toolchain/riscv-gcc/libgcc/soft-fp/adddf3.c:36
8000b028:	fe010113          	addi	sp,sp,-32
/home/hqfang/workspace/software/riscv-gnu-toolchain/riscv-gcc/libgcc/soft-fp/adddf3.c:44
8000b02c:	00b877b3          	and	a5,a6,a1
8000b030:	0145d713          	srli	a4,a1,0x14
/home/hqfang/workspace/software/riscv-gnu-toolchain/riscv-gcc/libgcc/soft-fp/adddf3.c:45
8000b034:	00d87833          	and	a6,a6,a3
8000b038:	0146d313          	srli	t1,a3,0x14
/home/hqfang/workspace/software/riscv-gnu-toolchain/riscv-gcc/libgcc/soft-fp/adddf3.c:36
8000b03c:	00812c23          	sw	s0,24(sp)
/home/hqfang/workspace/software/riscv-gnu-toolchain/riscv-gcc/libgcc/soft-fp/adddf3.c:44
8000b040:	00379793          	slli	a5,a5,0x3
8000b044:	7ff77413          	andi	s0,a4,2047
8000b048:	01d55713          	srli	a4,a0,0x1d
/home/hqfang/workspace/software/riscv-gnu-toolchain/riscv-gcc/libgcc/soft-fp/adddf3.c:45
8000b04c:	00381813          	slli	a6,a6,0x3
/home/hqfang/workspace/software/riscv-gnu-toolchain/riscv-gcc/libgcc/soft-fp/adddf3.c:36
8000b050:	00912a23          	sw	s1,20(sp)
/home/hqfang/workspace/software/riscv-gnu-toolchain/riscv-gcc/libgcc/soft-fp/adddf3.c:44
8000b054:	00f767b3          	or	a5,a4,a5
8000b058:	01f5d493          	srli	s1,a1,0x1f
/home/hqfang/workspace/software/riscv-gnu-toolchain/riscv-gcc/libgcc/soft-fp/adddf3.c:45
8000b05c:	01d65713          	srli	a4,a2,0x1d
8000b060:	7ff37313          	andi	t1,t1,2047
/home/hqfang/workspace/software/riscv-gnu-toolchain/riscv-gcc/libgcc/soft-fp/adddf3.c:36
8000b064:	00112e23          	sw	ra,28(sp)
8000b068:	01212823          	sw	s2,16(sp)
8000b06c:	01312623          	sw	s3,12(sp)
/home/hqfang/workspace/software/riscv-gnu-toolchain/riscv-gcc/libgcc/soft-fp/adddf3.c:45
8000b070:	01f6d693          	srli	a3,a3,0x1f
8000b074:	01076733          	or	a4,a4,a6
/home/hqfang/workspace/software/riscv-gnu-toolchain/riscv-gcc/libgcc/soft-fp/adddf3.c:44
8000b078:	00351593          	slli	a1,a0,0x3
/home/hqfang/workspace/software/riscv-gnu-toolchain/riscv-gcc/libgcc/soft-fp/adddf3.c:45
8000b07c:	00361613          	slli	a2,a2,0x3
/home/hqfang/workspace/software/riscv-gnu-toolchain/riscv-gcc/libgcc/soft-fp/adddf3.c:46
8000b080:	40640833          	sub	a6,s0,t1
8000b084:	2cd49863          	bne	s1,a3,8000b354 <__adddf3+0x334>
/home/hqfang/workspace/software/riscv-gnu-toolchain/riscv-gcc/libgcc/soft-fp/adddf3.c:46 (discriminator 7)
8000b088:	13005063          	blez	a6,8000b1a8 <__adddf3+0x188>
/home/hqfang/workspace/software/riscv-gnu-toolchain/riscv-gcc/libgcc/soft-fp/adddf3.c:46 (discriminator 9)
8000b08c:	04031063          	bnez	t1,8000b0cc <__adddf3+0xac>
/home/hqfang/workspace/software/riscv-gnu-toolchain/riscv-gcc/libgcc/soft-fp/adddf3.c:46 (discriminator 11)
8000b090:	00c766b3          	or	a3,a4,a2
8000b094:	70068c63          	beqz	a3,8000b7ac <__adddf3+0x78c>
/home/hqfang/workspace/software/riscv-gnu-toolchain/riscv-gcc/libgcc/soft-fp/adddf3.c:46 (discriminator 14)
8000b098:	fff80513          	addi	a0,a6,-1
8000b09c:	02051063          	bnez	a0,8000b0bc <__adddf3+0x9c>
/home/hqfang/workspace/software/riscv-gnu-toolchain/riscv-gcc/libgcc/soft-fp/adddf3.c:46 (discriminator 23)
8000b0a0:	00c58633          	add	a2,a1,a2
8000b0a4:	00b63533          	sltu	a0,a2,a1
8000b0a8:	00e787b3          	add	a5,a5,a4
8000b0ac:	00a787b3          	add	a5,a5,a0
8000b0b0:	00060593          	mv	a1,a2
/home/hqfang/workspace/software/riscv-gnu-toolchain/riscv-gcc/libgcc/soft-fp/adddf3.c:45 (discriminator 80)
8000b0b4:	00100413          	li	s0,1
/home/hqfang/workspace/software/riscv-gnu-toolchain/riscv-gcc/libgcc/soft-fp/adddf3.c:46 (discriminator 80)
8000b0b8:	0700006f          	j	8000b128 <__adddf3+0x108>
/home/hqfang/workspace/software/riscv-gnu-toolchain/riscv-gcc/libgcc/soft-fp/adddf3.c:46 (discriminator 24)
8000b0bc:	7ff00693          	li	a3,2047
8000b0c0:	02d81063          	bne	a6,a3,8000b0e0 <__adddf3+0xc0>
/home/hqfang/workspace/software/riscv-gnu-toolchain/riscv-gcc/libgcc/soft-fp/adddf3.c:46
8000b0c4:	7ff00413          	li	s0,2047
8000b0c8:	2140006f          	j	8000b2dc <__adddf3+0x2bc>
/home/hqfang/workspace/software/riscv-gnu-toolchain/riscv-gcc/libgcc/soft-fp/adddf3.c:46 (discriminator 12)
8000b0cc:	7ff00693          	li	a3,2047
8000b0d0:	20d40663          	beq	s0,a3,8000b2dc <__adddf3+0x2bc>
/home/hqfang/workspace/software/riscv-gnu-toolchain/riscv-gcc/libgcc/soft-fp/adddf3.c:46 (discriminator 38)
8000b0d4:	008006b7          	lui	a3,0x800
8000b0d8:	00d76733          	or	a4,a4,a3
8000b0dc:	00080513          	mv	a0,a6
/home/hqfang/workspace/software/riscv-gnu-toolchain/riscv-gcc/libgcc/soft-fp/adddf3.c:46 (discriminator 47)
8000b0e0:	03800693          	li	a3,56
8000b0e4:	0aa6cc63          	blt	a3,a0,8000b19c <__adddf3+0x17c>
/home/hqfang/workspace/software/riscv-gnu-toolchain/riscv-gcc/libgcc/soft-fp/adddf3.c:46 (discriminator 48)
8000b0e8:	01f00693          	li	a3,31
8000b0ec:	06a6ce63          	blt	a3,a0,8000b168 <__adddf3+0x148>
/home/hqfang/workspace/software/riscv-gnu-toolchain/riscv-gcc/libgcc/soft-fp/adddf3.c:46 (discriminator 50)
8000b0f0:	02000813          	li	a6,32
8000b0f4:	40a80833          	sub	a6,a6,a0
8000b0f8:	010716b3          	sll	a3,a4,a6
8000b0fc:	00a658b3          	srl	a7,a2,a0
8000b100:	01061633          	sll	a2,a2,a6
8000b104:	0116e6b3          	or	a3,a3,a7
8000b108:	00c03633          	snez	a2,a2
8000b10c:	00c6e633          	or	a2,a3,a2
8000b110:	00a75733          	srl	a4,a4,a0
/home/hqfang/workspace/software/riscv-gnu-toolchain/riscv-gcc/libgcc/soft-fp/adddf3.c:46 (discriminator 64)
8000b114:	00b60633          	add	a2,a2,a1
8000b118:	00b63533          	sltu	a0,a2,a1
8000b11c:	00f70733          	add	a4,a4,a5
8000b120:	00a707b3          	add	a5,a4,a0
8000b124:	00060593          	mv	a1,a2
/home/hqfang/workspace/software/riscv-gnu-toolchain/riscv-gcc/libgcc/soft-fp/adddf3.c:46 (discriminator 122)
8000b128:	00800737          	lui	a4,0x800
8000b12c:	00e7f733          	and	a4,a5,a4
8000b130:	1a070663          	beqz	a4,8000b2dc <__adddf3+0x2bc>
/home/hqfang/workspace/software/riscv-gnu-toolchain/riscv-gcc/libgcc/soft-fp/adddf3.c:46 (discriminator 182)
8000b134:	00140413          	addi	s0,s0,1
8000b138:	7ff00713          	li	a4,2047
8000b13c:	5ce40a63          	beq	s0,a4,8000b710 <__adddf3+0x6f0>
/home/hqfang/workspace/software/riscv-gnu-toolchain/riscv-gcc/libgcc/soft-fp/adddf3.c:46
8000b140:	ff800737          	lui	a4,0xff800
8000b144:	fff70713          	addi	a4,a4,-1 # ff7fffff <_sp+0x6f7effff>
8000b148:	00e7f7b3          	and	a5,a5,a4
8000b14c:	0015f513          	andi	a0,a1,1
8000b150:	0015d713          	srli	a4,a1,0x1
8000b154:	00a76533          	or	a0,a4,a0
8000b158:	01f79593          	slli	a1,a5,0x1f
8000b15c:	00a5e5b3          	or	a1,a1,a0
8000b160:	0017d793          	srli	a5,a5,0x1
8000b164:	1780006f          	j	8000b2dc <__adddf3+0x2bc>
/home/hqfang/workspace/software/riscv-gnu-toolchain/riscv-gcc/libgcc/soft-fp/adddf3.c:46 (discriminator 51)
8000b168:	fe050693          	addi	a3,a0,-32
8000b16c:	02000893          	li	a7,32
8000b170:	00d756b3          	srl	a3,a4,a3
8000b174:	00000813          	li	a6,0
8000b178:	01150863          	beq	a0,a7,8000b188 <__adddf3+0x168>
/home/hqfang/workspace/software/riscv-gnu-toolchain/riscv-gcc/libgcc/soft-fp/adddf3.c:46 (discriminator 58)
8000b17c:	04000813          	li	a6,64
8000b180:	40a80533          	sub	a0,a6,a0
8000b184:	00a71833          	sll	a6,a4,a0
/home/hqfang/workspace/software/riscv-gnu-toolchain/riscv-gcc/libgcc/soft-fp/adddf3.c:46 (discriminator 61)
8000b188:	00c86633          	or	a2,a6,a2
8000b18c:	00c03633          	snez	a2,a2
8000b190:	00c6e633          	or	a2,a3,a2
/home/hqfang/workspace/software/riscv-gnu-toolchain/riscv-gcc/libgcc/soft-fp/adddf3.c:46 (discriminator 49)
8000b194:	00000713          	li	a4,0
8000b198:	f7dff06f          	j	8000b114 <__adddf3+0xf4>
8000b19c:	00c76633          	or	a2,a4,a2
8000b1a0:	00c03633          	snez	a2,a2
8000b1a4:	ff1ff06f          	j	8000b194 <__adddf3+0x174>
/home/hqfang/workspace/software/riscv-gnu-toolchain/riscv-gcc/libgcc/soft-fp/adddf3.c:46 (discriminator 10)
8000b1a8:	0e080263          	beqz	a6,8000b28c <__adddf3+0x26c>
/home/hqfang/workspace/software/riscv-gnu-toolchain/riscv-gcc/libgcc/soft-fp/adddf3.c:46 (discriminator 66)
8000b1ac:	40830533          	sub	a0,t1,s0
8000b1b0:	02041e63          	bnez	s0,8000b1ec <__adddf3+0x1cc>
/home/hqfang/workspace/software/riscv-gnu-toolchain/riscv-gcc/libgcc/soft-fp/adddf3.c:46 (discriminator 68)
8000b1b4:	00b7e6b3          	or	a3,a5,a1
8000b1b8:	52068c63          	beqz	a3,8000b6f0 <__adddf3+0x6d0>
/home/hqfang/workspace/software/riscv-gnu-toolchain/riscv-gcc/libgcc/soft-fp/adddf3.c:46 (discriminator 71)
8000b1bc:	fff50693          	addi	a3,a0,-1
8000b1c0:	00069c63          	bnez	a3,8000b1d8 <__adddf3+0x1b8>
/home/hqfang/workspace/software/riscv-gnu-toolchain/riscv-gcc/libgcc/soft-fp/adddf3.c:46 (discriminator 80)
8000b1c4:	00c585b3          	add	a1,a1,a2
8000b1c8:	00e787b3          	add	a5,a5,a4
8000b1cc:	00c5b633          	sltu	a2,a1,a2
8000b1d0:	00c787b3          	add	a5,a5,a2
8000b1d4:	ee1ff06f          	j	8000b0b4 <__adddf3+0x94>
/home/hqfang/workspace/software/riscv-gnu-toolchain/riscv-gcc/libgcc/soft-fp/adddf3.c:46 (discriminator 81)
8000b1d8:	7ff00813          	li	a6,2047
8000b1dc:	03051263          	bne	a0,a6,8000b200 <__adddf3+0x1e0>
/home/hqfang/workspace/software/riscv-gnu-toolchain/riscv-gcc/libgcc/soft-fp/adddf3.c:45
8000b1e0:	00070793          	mv	a5,a4
8000b1e4:	00060593          	mv	a1,a2
8000b1e8:	eddff06f          	j	8000b0c4 <__adddf3+0xa4>
/home/hqfang/workspace/software/riscv-gnu-toolchain/riscv-gcc/libgcc/soft-fp/adddf3.c:46 (discriminator 69)
8000b1ec:	7ff00693          	li	a3,2047
8000b1f0:	fed308e3          	beq	t1,a3,8000b1e0 <__adddf3+0x1c0>
/home/hqfang/workspace/software/riscv-gnu-toolchain/riscv-gcc/libgcc/soft-fp/adddf3.c:46 (discriminator 95)
8000b1f4:	008006b7          	lui	a3,0x800
8000b1f8:	00d7e7b3          	or	a5,a5,a3
8000b1fc:	00050693          	mv	a3,a0
/home/hqfang/workspace/software/riscv-gnu-toolchain/riscv-gcc/libgcc/soft-fp/adddf3.c:46 (discriminator 104)
8000b200:	03800513          	li	a0,56
8000b204:	06d54e63          	blt	a0,a3,8000b280 <__adddf3+0x260>
/home/hqfang/workspace/software/riscv-gnu-toolchain/riscv-gcc/libgcc/soft-fp/adddf3.c:46 (discriminator 105)
8000b208:	01f00513          	li	a0,31
8000b20c:	04d54063          	blt	a0,a3,8000b24c <__adddf3+0x22c>
/home/hqfang/workspace/software/riscv-gnu-toolchain/riscv-gcc/libgcc/soft-fp/adddf3.c:46 (discriminator 107)
8000b210:	02000813          	li	a6,32
8000b214:	40d80833          	sub	a6,a6,a3
8000b218:	01079533          	sll	a0,a5,a6
8000b21c:	00d5d8b3          	srl	a7,a1,a3
8000b220:	010595b3          	sll	a1,a1,a6
8000b224:	01156533          	or	a0,a0,a7
8000b228:	00b035b3          	snez	a1,a1
8000b22c:	00b56533          	or	a0,a0,a1
8000b230:	00d7d7b3          	srl	a5,a5,a3
/home/hqfang/workspace/software/riscv-gnu-toolchain/riscv-gcc/libgcc/soft-fp/adddf3.c:46 (discriminator 121)
8000b234:	00c505b3          	add	a1,a0,a2
8000b238:	00e787b3          	add	a5,a5,a4
8000b23c:	00c5b633          	sltu	a2,a1,a2
8000b240:	00c787b3          	add	a5,a5,a2
/home/hqfang/workspace/software/riscv-gnu-toolchain/riscv-gcc/libgcc/soft-fp/adddf3.c:45 (discriminator 121)
8000b244:	00030413          	mv	s0,t1
8000b248:	ee1ff06f          	j	8000b128 <__adddf3+0x108>
/home/hqfang/workspace/software/riscv-gnu-toolchain/riscv-gcc/libgcc/soft-fp/adddf3.c:46 (discriminator 108)
8000b24c:	fe068513          	addi	a0,a3,-32 # 7fffe0 <__stack_size+0x7ff7e0>
8000b250:	02000893          	li	a7,32
8000b254:	00a7d833          	srl	a6,a5,a0
8000b258:	00000513          	li	a0,0
8000b25c:	01168863          	beq	a3,a7,8000b26c <__adddf3+0x24c>
/home/hqfang/workspace/software/riscv-gnu-toolchain/riscv-gcc/libgcc/soft-fp/adddf3.c:46 (discriminator 115)
8000b260:	04000513          	li	a0,64
8000b264:	40d50533          	sub	a0,a0,a3
8000b268:	00a79533          	sll	a0,a5,a0
/home/hqfang/workspace/software/riscv-gnu-toolchain/riscv-gcc/libgcc/soft-fp/adddf3.c:46 (discriminator 118)
8000b26c:	00b56533          	or	a0,a0,a1
8000b270:	00a03533          	snez	a0,a0
8000b274:	00a86533          	or	a0,a6,a0
/home/hqfang/workspace/software/riscv-gnu-toolchain/riscv-gcc/libgcc/soft-fp/adddf3.c:46 (discriminator 106)
8000b278:	00000793          	li	a5,0
8000b27c:	fb9ff06f          	j	8000b234 <__adddf3+0x214>
8000b280:	00b7e533          	or	a0,a5,a1
8000b284:	00a03533          	snez	a0,a0
8000b288:	ff1ff06f          	j	8000b278 <__adddf3+0x258>
/home/hqfang/workspace/software/riscv-gnu-toolchain/riscv-gcc/libgcc/soft-fp/adddf3.c:46 (discriminator 67)
8000b28c:	00140693          	addi	a3,s0,1
8000b290:	7fe6f513          	andi	a0,a3,2046
8000b294:	08051863          	bnez	a0,8000b324 <__adddf3+0x304>
/home/hqfang/workspace/software/riscv-gnu-toolchain/riscv-gcc/libgcc/soft-fp/adddf3.c:46 (discriminator 123)
8000b298:	00b7e6b3          	or	a3,a5,a1
8000b29c:	06041463          	bnez	s0,8000b304 <__adddf3+0x2e4>
/home/hqfang/workspace/software/riscv-gnu-toolchain/riscv-gcc/libgcc/soft-fp/adddf3.c:46 (discriminator 125)
8000b2a0:	46068063          	beqz	a3,8000b700 <__adddf3+0x6e0>
/home/hqfang/workspace/software/riscv-gnu-toolchain/riscv-gcc/libgcc/soft-fp/adddf3.c:46 (discriminator 128)
8000b2a4:	00c766b3          	or	a3,a4,a2
8000b2a8:	02068a63          	beqz	a3,8000b2dc <__adddf3+0x2bc>
/home/hqfang/workspace/software/riscv-gnu-toolchain/riscv-gcc/libgcc/soft-fp/adddf3.c:46 (discriminator 134)
8000b2ac:	00c58633          	add	a2,a1,a2
8000b2b0:	00e787b3          	add	a5,a5,a4
8000b2b4:	00b63533          	sltu	a0,a2,a1
8000b2b8:	00a787b3          	add	a5,a5,a0
8000b2bc:	00800737          	lui	a4,0x800
8000b2c0:	00e7f733          	and	a4,a5,a4
8000b2c4:	00060593          	mv	a1,a2
8000b2c8:	00070a63          	beqz	a4,8000b2dc <__adddf3+0x2bc>
/home/hqfang/workspace/software/riscv-gnu-toolchain/riscv-gcc/libgcc/soft-fp/adddf3.c:46 (discriminator 136)
8000b2cc:	ff800737          	lui	a4,0xff800
8000b2d0:	fff70713          	addi	a4,a4,-1 # ff7fffff <_sp+0x6f7effff>
8000b2d4:	00e7f7b3          	and	a5,a5,a4
8000b2d8:	00100413          	li	s0,1
/home/hqfang/workspace/software/riscv-gnu-toolchain/riscv-gcc/libgcc/soft-fp/adddf3.c:47 (discriminator 421)
8000b2dc:	0075f713          	andi	a4,a1,7
8000b2e0:	42070c63          	beqz	a4,8000b718 <__adddf3+0x6f8>
/home/hqfang/workspace/software/riscv-gnu-toolchain/riscv-gcc/libgcc/soft-fp/adddf3.c:47 (discriminator 37)
8000b2e4:	00f5f713          	andi	a4,a1,15
8000b2e8:	00400693          	li	a3,4
8000b2ec:	42d70663          	beq	a4,a3,8000b718 <__adddf3+0x6f8>
/home/hqfang/workspace/software/riscv-gnu-toolchain/riscv-gcc/libgcc/soft-fp/adddf3.c:47 (discriminator 44)
8000b2f0:	00458713          	addi	a4,a1,4
8000b2f4:	00b73533          	sltu	a0,a4,a1
8000b2f8:	00a787b3          	add	a5,a5,a0
8000b2fc:	00070593          	mv	a1,a4
8000b300:	4180006f          	j	8000b718 <__adddf3+0x6f8>
/home/hqfang/workspace/software/riscv-gnu-toolchain/riscv-gcc/libgcc/soft-fp/adddf3.c:46 (discriminator 153)
8000b304:	ec068ee3          	beqz	a3,8000b1e0 <__adddf3+0x1c0>
/home/hqfang/workspace/software/riscv-gnu-toolchain/riscv-gcc/libgcc/soft-fp/adddf3.c:46 (discriminator 155)
8000b308:	00c76633          	or	a2,a4,a2
8000b30c:	da060ce3          	beqz	a2,8000b0c4 <__adddf3+0xa4>
/home/hqfang/workspace/software/riscv-gnu-toolchain/riscv-gcc/libgcc/soft-fp/adddf3.c:46
8000b310:	00000493          	li	s1,0
8000b314:	004007b7          	lui	a5,0x400
8000b318:	00000593          	li	a1,0
8000b31c:	7ff00413          	li	s0,2047
8000b320:	3f80006f          	j	8000b718 <__adddf3+0x6f8>
/home/hqfang/workspace/software/riscv-gnu-toolchain/riscv-gcc/libgcc/soft-fp/adddf3.c:46 (discriminator 124)
8000b324:	7ff00513          	li	a0,2047
8000b328:	3ea68263          	beq	a3,a0,8000b70c <__adddf3+0x6ec>
/home/hqfang/workspace/software/riscv-gnu-toolchain/riscv-gcc/libgcc/soft-fp/adddf3.c:46
8000b32c:	00c58633          	add	a2,a1,a2
8000b330:	00b63533          	sltu	a0,a2,a1
8000b334:	00e787b3          	add	a5,a5,a4
8000b338:	00a787b3          	add	a5,a5,a0
8000b33c:	01f79513          	slli	a0,a5,0x1f
8000b340:	00165613          	srli	a2,a2,0x1
8000b344:	00c565b3          	or	a1,a0,a2
8000b348:	0017d793          	srli	a5,a5,0x1
8000b34c:	00068413          	mv	s0,a3
8000b350:	f8dff06f          	j	8000b2dc <__adddf3+0x2bc>
/home/hqfang/workspace/software/riscv-gnu-toolchain/riscv-gcc/libgcc/soft-fp/adddf3.c:46 (discriminator 8)
8000b354:	0f005c63          	blez	a6,8000b44c <__adddf3+0x42c>
/home/hqfang/workspace/software/riscv-gnu-toolchain/riscv-gcc/libgcc/soft-fp/adddf3.c:46 (discriminator 200)
8000b358:	08031e63          	bnez	t1,8000b3f4 <__adddf3+0x3d4>
/home/hqfang/workspace/software/riscv-gnu-toolchain/riscv-gcc/libgcc/soft-fp/adddf3.c:46 (discriminator 202)
8000b35c:	00c766b3          	or	a3,a4,a2
8000b360:	44068663          	beqz	a3,8000b7ac <__adddf3+0x78c>
/home/hqfang/workspace/software/riscv-gnu-toolchain/riscv-gcc/libgcc/soft-fp/adddf3.c:46 (discriminator 205)
8000b364:	fff80513          	addi	a0,a6,-1
8000b368:	02051063          	bnez	a0,8000b388 <__adddf3+0x368>
/home/hqfang/workspace/software/riscv-gnu-toolchain/riscv-gcc/libgcc/soft-fp/adddf3.c:46 (discriminator 214)
8000b36c:	40c58633          	sub	a2,a1,a2
8000b370:	00c5b533          	sltu	a0,a1,a2
8000b374:	40e787b3          	sub	a5,a5,a4
8000b378:	40a787b3          	sub	a5,a5,a0
8000b37c:	00060593          	mv	a1,a2
/home/hqfang/workspace/software/riscv-gnu-toolchain/riscv-gcc/libgcc/soft-fp/adddf3.c:45 (discriminator 271)
8000b380:	00100413          	li	s0,1
/home/hqfang/workspace/software/riscv-gnu-toolchain/riscv-gcc/libgcc/soft-fp/adddf3.c:46 (discriminator 271)
8000b384:	0540006f          	j	8000b3d8 <__adddf3+0x3b8>
/home/hqfang/workspace/software/riscv-gnu-toolchain/riscv-gcc/libgcc/soft-fp/adddf3.c:46 (discriminator 215)
8000b388:	7ff00693          	li	a3,2047
8000b38c:	d2d80ce3          	beq	a6,a3,8000b0c4 <__adddf3+0xa4>
/home/hqfang/workspace/software/riscv-gnu-toolchain/riscv-gcc/libgcc/soft-fp/adddf3.c:46 (discriminator 238)
8000b390:	03800693          	li	a3,56
8000b394:	0aa6c663          	blt	a3,a0,8000b440 <__adddf3+0x420>
/home/hqfang/workspace/software/riscv-gnu-toolchain/riscv-gcc/libgcc/soft-fp/adddf3.c:46 (discriminator 239)
8000b398:	01f00693          	li	a3,31
8000b39c:	06a6c863          	blt	a3,a0,8000b40c <__adddf3+0x3ec>
/home/hqfang/workspace/software/riscv-gnu-toolchain/riscv-gcc/libgcc/soft-fp/adddf3.c:46 (discriminator 241)
8000b3a0:	02000813          	li	a6,32
8000b3a4:	40a80833          	sub	a6,a6,a0
8000b3a8:	010716b3          	sll	a3,a4,a6
8000b3ac:	00a658b3          	srl	a7,a2,a0
8000b3b0:	01061633          	sll	a2,a2,a6
8000b3b4:	0116e6b3          	or	a3,a3,a7
8000b3b8:	00c03633          	snez	a2,a2
8000b3bc:	00c6e633          	or	a2,a3,a2
8000b3c0:	00a75733          	srl	a4,a4,a0
/home/hqfang/workspace/software/riscv-gnu-toolchain/riscv-gcc/libgcc/soft-fp/adddf3.c:46 (discriminator 255)
8000b3c4:	40c58633          	sub	a2,a1,a2
8000b3c8:	00c5b533          	sltu	a0,a1,a2
8000b3cc:	40e78733          	sub	a4,a5,a4
8000b3d0:	40a707b3          	sub	a5,a4,a0
8000b3d4:	00060593          	mv	a1,a2
/home/hqfang/workspace/software/riscv-gnu-toolchain/riscv-gcc/libgcc/soft-fp/adddf3.c:46 (discriminator 313)
8000b3d8:	00800937          	lui	s2,0x800
8000b3dc:	0127f733          	and	a4,a5,s2
8000b3e0:	ee070ee3          	beqz	a4,8000b2dc <__adddf3+0x2bc>
/home/hqfang/workspace/software/riscv-gnu-toolchain/riscv-gcc/libgcc/soft-fp/adddf3.c:46 (discriminator 373)
8000b3e4:	fff90913          	addi	s2,s2,-1 # 7fffff <__stack_size+0x7ff7ff>
8000b3e8:	0127f933          	and	s2,a5,s2
8000b3ec:	00058993          	mv	s3,a1
8000b3f0:	2140006f          	j	8000b604 <__adddf3+0x5e4>
/home/hqfang/workspace/software/riscv-gnu-toolchain/riscv-gcc/libgcc/soft-fp/adddf3.c:46 (discriminator 203)
8000b3f4:	7ff00693          	li	a3,2047
8000b3f8:	eed402e3          	beq	s0,a3,8000b2dc <__adddf3+0x2bc>
/home/hqfang/workspace/software/riscv-gnu-toolchain/riscv-gcc/libgcc/soft-fp/adddf3.c:46 (discriminator 229)
8000b3fc:	008006b7          	lui	a3,0x800
8000b400:	00d76733          	or	a4,a4,a3
8000b404:	00080513          	mv	a0,a6
8000b408:	f89ff06f          	j	8000b390 <__adddf3+0x370>
/home/hqfang/workspace/software/riscv-gnu-toolchain/riscv-gcc/libgcc/soft-fp/adddf3.c:46 (discriminator 242)
8000b40c:	fe050693          	addi	a3,a0,-32
8000b410:	02000893          	li	a7,32
8000b414:	00d756b3          	srl	a3,a4,a3
8000b418:	00000813          	li	a6,0
8000b41c:	01150863          	beq	a0,a7,8000b42c <__adddf3+0x40c>
/home/hqfang/workspace/software/riscv-gnu-toolchain/riscv-gcc/libgcc/soft-fp/adddf3.c:46 (discriminator 249)
8000b420:	04000813          	li	a6,64
8000b424:	40a80533          	sub	a0,a6,a0
8000b428:	00a71833          	sll	a6,a4,a0
/home/hqfang/workspace/software/riscv-gnu-toolchain/riscv-gcc/libgcc/soft-fp/adddf3.c:46 (discriminator 252)
8000b42c:	00c86633          	or	a2,a6,a2
8000b430:	00c03633          	snez	a2,a2
8000b434:	00c6e633          	or	a2,a3,a2
/home/hqfang/workspace/software/riscv-gnu-toolchain/riscv-gcc/libgcc/soft-fp/adddf3.c:46 (discriminator 240)
8000b438:	00000713          	li	a4,0
8000b43c:	f89ff06f          	j	8000b3c4 <__adddf3+0x3a4>
8000b440:	00c76633          	or	a2,a4,a2
8000b444:	00c03633          	snez	a2,a2
8000b448:	ff1ff06f          	j	8000b438 <__adddf3+0x418>
/home/hqfang/workspace/software/riscv-gnu-toolchain/riscv-gcc/libgcc/soft-fp/adddf3.c:46 (discriminator 201)
8000b44c:	0e080863          	beqz	a6,8000b53c <__adddf3+0x51c>
/home/hqfang/workspace/software/riscv-gnu-toolchain/riscv-gcc/libgcc/soft-fp/adddf3.c:46 (discriminator 257)
8000b450:	40830533          	sub	a0,t1,s0
8000b454:	04041263          	bnez	s0,8000b498 <__adddf3+0x478>
/home/hqfang/workspace/software/riscv-gnu-toolchain/riscv-gcc/libgcc/soft-fp/adddf3.c:46 (discriminator 259)
8000b458:	00b7e833          	or	a6,a5,a1
8000b45c:	34080c63          	beqz	a6,8000b7b4 <__adddf3+0x794>
/home/hqfang/workspace/software/riscv-gnu-toolchain/riscv-gcc/libgcc/soft-fp/adddf3.c:46 (discriminator 262)
8000b460:	fff50813          	addi	a6,a0,-1
8000b464:	00081e63          	bnez	a6,8000b480 <__adddf3+0x460>
/home/hqfang/workspace/software/riscv-gnu-toolchain/riscv-gcc/libgcc/soft-fp/adddf3.c:46 (discriminator 271)
8000b468:	40b605b3          	sub	a1,a2,a1
8000b46c:	40f707b3          	sub	a5,a4,a5
8000b470:	00b63633          	sltu	a2,a2,a1
8000b474:	40c787b3          	sub	a5,a5,a2
8000b478:	00068493          	mv	s1,a3
8000b47c:	f05ff06f          	j	8000b380 <__adddf3+0x360>
/home/hqfang/workspace/software/riscv-gnu-toolchain/riscv-gcc/libgcc/soft-fp/adddf3.c:46 (discriminator 272)
8000b480:	7ff00893          	li	a7,2047
8000b484:	03151463          	bne	a0,a7,8000b4ac <__adddf3+0x48c>
/home/hqfang/workspace/software/riscv-gnu-toolchain/riscv-gcc/libgcc/soft-fp/adddf3.c:45
8000b488:	00070793          	mv	a5,a4
8000b48c:	00060593          	mv	a1,a2
/home/hqfang/workspace/software/riscv-gnu-toolchain/riscv-gcc/libgcc/soft-fp/adddf3.c:46
8000b490:	7ff00413          	li	s0,2047
8000b494:	0d00006f          	j	8000b564 <__adddf3+0x544>
/home/hqfang/workspace/software/riscv-gnu-toolchain/riscv-gcc/libgcc/soft-fp/adddf3.c:46 (discriminator 260)
8000b498:	7ff00813          	li	a6,2047
8000b49c:	ff0306e3          	beq	t1,a6,8000b488 <__adddf3+0x468>
/home/hqfang/workspace/software/riscv-gnu-toolchain/riscv-gcc/libgcc/soft-fp/adddf3.c:46 (discriminator 286)
8000b4a0:	00800837          	lui	a6,0x800
8000b4a4:	0107e7b3          	or	a5,a5,a6
8000b4a8:	00050813          	mv	a6,a0
/home/hqfang/workspace/software/riscv-gnu-toolchain/riscv-gcc/libgcc/soft-fp/adddf3.c:46 (discriminator 295)
8000b4ac:	03800513          	li	a0,56
8000b4b0:	09054063          	blt	a0,a6,8000b530 <__adddf3+0x510>
/home/hqfang/workspace/software/riscv-gnu-toolchain/riscv-gcc/libgcc/soft-fp/adddf3.c:46 (discriminator 296)
8000b4b4:	01f00513          	li	a0,31
8000b4b8:	05054263          	blt	a0,a6,8000b4fc <__adddf3+0x4dc>
/home/hqfang/workspace/software/riscv-gnu-toolchain/riscv-gcc/libgcc/soft-fp/adddf3.c:46 (discriminator 298)
8000b4bc:	02000893          	li	a7,32
8000b4c0:	410888b3          	sub	a7,a7,a6
8000b4c4:	01179533          	sll	a0,a5,a7
8000b4c8:	0105de33          	srl	t3,a1,a6
8000b4cc:	011595b3          	sll	a1,a1,a7
8000b4d0:	01c56533          	or	a0,a0,t3
8000b4d4:	00b035b3          	snez	a1,a1
8000b4d8:	00b56533          	or	a0,a0,a1
8000b4dc:	0107d7b3          	srl	a5,a5,a6
/home/hqfang/workspace/software/riscv-gnu-toolchain/riscv-gcc/libgcc/soft-fp/adddf3.c:46 (discriminator 312)
8000b4e0:	40a605b3          	sub	a1,a2,a0
8000b4e4:	40f707b3          	sub	a5,a4,a5
8000b4e8:	00b63633          	sltu	a2,a2,a1
8000b4ec:	40c787b3          	sub	a5,a5,a2
/home/hqfang/workspace/software/riscv-gnu-toolchain/riscv-gcc/libgcc/soft-fp/adddf3.c:45 (discriminator 312)
8000b4f0:	00030413          	mv	s0,t1
8000b4f4:	00068493          	mv	s1,a3
8000b4f8:	ee1ff06f          	j	8000b3d8 <__adddf3+0x3b8>
/home/hqfang/workspace/software/riscv-gnu-toolchain/riscv-gcc/libgcc/soft-fp/adddf3.c:46 (discriminator 299)
8000b4fc:	fe080513          	addi	a0,a6,-32 # 7fffe0 <__stack_size+0x7ff7e0>
8000b500:	02000e13          	li	t3,32
8000b504:	00a7d8b3          	srl	a7,a5,a0
8000b508:	00000513          	li	a0,0
8000b50c:	01c80863          	beq	a6,t3,8000b51c <__adddf3+0x4fc>
/home/hqfang/workspace/software/riscv-gnu-toolchain/riscv-gcc/libgcc/soft-fp/adddf3.c:46 (discriminator 306)
8000b510:	04000513          	li	a0,64
8000b514:	41050533          	sub	a0,a0,a6
8000b518:	00a79533          	sll	a0,a5,a0
/home/hqfang/workspace/software/riscv-gnu-toolchain/riscv-gcc/libgcc/soft-fp/adddf3.c:46 (discriminator 309)
8000b51c:	00b56533          	or	a0,a0,a1
8000b520:	00a03533          	snez	a0,a0
8000b524:	00a8e533          	or	a0,a7,a0
/home/hqfang/workspace/software/riscv-gnu-toolchain/riscv-gcc/libgcc/soft-fp/adddf3.c:46 (discriminator 297)
8000b528:	00000793          	li	a5,0
8000b52c:	fb5ff06f          	j	8000b4e0 <__adddf3+0x4c0>
8000b530:	00b7e533          	or	a0,a5,a1
8000b534:	00a03533          	snez	a0,a0
8000b538:	ff1ff06f          	j	8000b528 <__adddf3+0x508>
/home/hqfang/workspace/software/riscv-gnu-toolchain/riscv-gcc/libgcc/soft-fp/adddf3.c:46 (discriminator 258)
8000b53c:	00140513          	addi	a0,s0,1
8000b540:	7fe57513          	andi	a0,a0,2046
8000b544:	08051863          	bnez	a0,8000b5d4 <__adddf3+0x5b4>
/home/hqfang/workspace/software/riscv-gnu-toolchain/riscv-gcc/libgcc/soft-fp/adddf3.c:46 (discriminator 314)
8000b548:	00b7e833          	or	a6,a5,a1
8000b54c:	00c76533          	or	a0,a4,a2
8000b550:	06041263          	bnez	s0,8000b5b4 <__adddf3+0x594>
/home/hqfang/workspace/software/riscv-gnu-toolchain/riscv-gcc/libgcc/soft-fp/adddf3.c:46 (discriminator 316)
8000b554:	00081c63          	bnez	a6,8000b56c <__adddf3+0x54c>
/home/hqfang/workspace/software/riscv-gnu-toolchain/riscv-gcc/libgcc/soft-fp/adddf3.c:46 (discriminator 318)
8000b558:	26050663          	beqz	a0,8000b7c4 <__adddf3+0x7a4>
/home/hqfang/workspace/software/riscv-gnu-toolchain/riscv-gcc/libgcc/soft-fp/adddf3.c:45
8000b55c:	00070793          	mv	a5,a4
8000b560:	00060593          	mv	a1,a2
8000b564:	00068493          	mv	s1,a3
8000b568:	d75ff06f          	j	8000b2dc <__adddf3+0x2bc>
/home/hqfang/workspace/software/riscv-gnu-toolchain/riscv-gcc/libgcc/soft-fp/adddf3.c:46 (discriminator 319)
8000b56c:	d60508e3          	beqz	a0,8000b2dc <__adddf3+0x2bc>
/home/hqfang/workspace/software/riscv-gnu-toolchain/riscv-gcc/libgcc/soft-fp/adddf3.c:46 (discriminator 326)
8000b570:	40c58833          	sub	a6,a1,a2
8000b574:	0105b8b3          	sltu	a7,a1,a6
8000b578:	40e78533          	sub	a0,a5,a4
8000b57c:	41150533          	sub	a0,a0,a7
8000b580:	008008b7          	lui	a7,0x800
8000b584:	011578b3          	and	a7,a0,a7
8000b588:	00088c63          	beqz	a7,8000b5a0 <__adddf3+0x580>
/home/hqfang/workspace/software/riscv-gnu-toolchain/riscv-gcc/libgcc/soft-fp/adddf3.c:46 (discriminator 328)
8000b58c:	40b605b3          	sub	a1,a2,a1
8000b590:	40f707b3          	sub	a5,a4,a5
8000b594:	00b63633          	sltu	a2,a2,a1
8000b598:	40c787b3          	sub	a5,a5,a2
8000b59c:	fc9ff06f          	j	8000b564 <__adddf3+0x544>
/home/hqfang/workspace/software/riscv-gnu-toolchain/riscv-gcc/libgcc/soft-fp/adddf3.c:46 (discriminator 329)
8000b5a0:	00a865b3          	or	a1,a6,a0
8000b5a4:	22058863          	beqz	a1,8000b7d4 <__adddf3+0x7b4>
/home/hqfang/workspace/software/riscv-gnu-toolchain/riscv-gcc/libgcc/soft-fp/adddf3.c:46
8000b5a8:	00050793          	mv	a5,a0
8000b5ac:	00080593          	mv	a1,a6
8000b5b0:	d2dff06f          	j	8000b2dc <__adddf3+0x2bc>
/home/hqfang/workspace/software/riscv-gnu-toolchain/riscv-gcc/libgcc/soft-fp/adddf3.c:46 (discriminator 348)
8000b5b4:	00081c63          	bnez	a6,8000b5cc <__adddf3+0x5ac>
/home/hqfang/workspace/software/riscv-gnu-toolchain/riscv-gcc/libgcc/soft-fp/adddf3.c:46 (discriminator 349)
8000b5b8:	22050263          	beqz	a0,8000b7dc <__adddf3+0x7bc>
/home/hqfang/workspace/software/riscv-gnu-toolchain/riscv-gcc/libgcc/soft-fp/adddf3.c:45
8000b5bc:	00070793          	mv	a5,a4
8000b5c0:	00060593          	mv	a1,a2
/home/hqfang/workspace/software/riscv-gnu-toolchain/riscv-gcc/libgcc/soft-fp/adddf3.c:46
8000b5c4:	00068493          	mv	s1,a3
8000b5c8:	afdff06f          	j	8000b0c4 <__adddf3+0xa4>
/home/hqfang/workspace/software/riscv-gnu-toolchain/riscv-gcc/libgcc/soft-fp/adddf3.c:46 (discriminator 350)
8000b5cc:	ae050ce3          	beqz	a0,8000b0c4 <__adddf3+0xa4>
8000b5d0:	d41ff06f          	j	8000b310 <__adddf3+0x2f0>
/home/hqfang/workspace/software/riscv-gnu-toolchain/riscv-gcc/libgcc/soft-fp/adddf3.c:46 (discriminator 315)
8000b5d4:	40c589b3          	sub	s3,a1,a2
8000b5d8:	0135b533          	sltu	a0,a1,s3
8000b5dc:	40e78933          	sub	s2,a5,a4
8000b5e0:	40a90933          	sub	s2,s2,a0
8000b5e4:	00800537          	lui	a0,0x800
8000b5e8:	00a97533          	and	a0,s2,a0
8000b5ec:	08050463          	beqz	a0,8000b674 <__adddf3+0x654>
/home/hqfang/workspace/software/riscv-gnu-toolchain/riscv-gcc/libgcc/soft-fp/adddf3.c:46 (discriminator 366)
8000b5f0:	40b609b3          	sub	s3,a2,a1
8000b5f4:	40f707b3          	sub	a5,a4,a5
8000b5f8:	01363633          	sltu	a2,a2,s3
8000b5fc:	40c78933          	sub	s2,a5,a2
8000b600:	00068493          	mv	s1,a3
/home/hqfang/workspace/software/riscv-gnu-toolchain/riscv-gcc/libgcc/soft-fp/adddf3.c:46 (discriminator 375)
8000b604:	08090263          	beqz	s2,8000b688 <__adddf3+0x668>
/home/hqfang/workspace/software/riscv-gnu-toolchain/riscv-gcc/libgcc/soft-fp/adddf3.c:46 (discriminator 378)
8000b608:	00090513          	mv	a0,s2
8000b60c:	d99fa0ef          	jal	ra,800063a4 <__clzsi2>
/home/hqfang/workspace/software/riscv-gnu-toolchain/riscv-gcc/libgcc/soft-fp/adddf3.c:46 (discriminator 392)
8000b610:	ff850713          	addi	a4,a0,-8 # 7ffff8 <__stack_size+0x7ff7f8>
8000b614:	01f00793          	li	a5,31
8000b618:	08e7c063          	blt	a5,a4,8000b698 <__adddf3+0x678>
/home/hqfang/workspace/software/riscv-gnu-toolchain/riscv-gcc/libgcc/soft-fp/adddf3.c:46 (discriminator 398)
8000b61c:	02000793          	li	a5,32
8000b620:	40e787b3          	sub	a5,a5,a4
8000b624:	00e91933          	sll	s2,s2,a4
8000b628:	00f9d7b3          	srl	a5,s3,a5
8000b62c:	0127e7b3          	or	a5,a5,s2
8000b630:	00e995b3          	sll	a1,s3,a4
/home/hqfang/workspace/software/riscv-gnu-toolchain/riscv-gcc/libgcc/soft-fp/adddf3.c:46 (discriminator 402)
8000b634:	0a874463          	blt	a4,s0,8000b6dc <__adddf3+0x6bc>
/home/hqfang/workspace/software/riscv-gnu-toolchain/riscv-gcc/libgcc/soft-fp/adddf3.c:46 (discriminator 403)
8000b638:	40870733          	sub	a4,a4,s0
8000b63c:	00170693          	addi	a3,a4,1
8000b640:	01f00613          	li	a2,31
8000b644:	06d64263          	blt	a2,a3,8000b6a8 <__adddf3+0x688>
/home/hqfang/workspace/software/riscv-gnu-toolchain/riscv-gcc/libgcc/soft-fp/adddf3.c:46 (discriminator 405)
8000b648:	02000713          	li	a4,32
8000b64c:	40d70733          	sub	a4,a4,a3
8000b650:	00e79633          	sll	a2,a5,a4
8000b654:	00d5d533          	srl	a0,a1,a3
8000b658:	00e595b3          	sll	a1,a1,a4
8000b65c:	00a66633          	or	a2,a2,a0
8000b660:	00b035b3          	snez	a1,a1
8000b664:	00b665b3          	or	a1,a2,a1
8000b668:	00d7d7b3          	srl	a5,a5,a3
/home/hqfang/workspace/software/riscv-gnu-toolchain/riscv-gcc/libgcc/soft-fp/adddf3.c:46 (discriminator 417)
8000b66c:	00000413          	li	s0,0
8000b670:	c6dff06f          	j	8000b2dc <__adddf3+0x2bc>
/home/hqfang/workspace/software/riscv-gnu-toolchain/riscv-gcc/libgcc/soft-fp/adddf3.c:46 (discriminator 367)
8000b674:	0129e5b3          	or	a1,s3,s2
8000b678:	f80596e3          	bnez	a1,8000b604 <__adddf3+0x5e4>
8000b67c:	00000793          	li	a5,0
/home/hqfang/workspace/software/riscv-gnu-toolchain/riscv-gcc/libgcc/soft-fp/adddf3.c:46
8000b680:	00000413          	li	s0,0
8000b684:	1480006f          	j	8000b7cc <__adddf3+0x7ac>
/home/hqfang/workspace/software/riscv-gnu-toolchain/riscv-gcc/libgcc/soft-fp/adddf3.c:46 (discriminator 385)
8000b688:	00098513          	mv	a0,s3
8000b68c:	d19fa0ef          	jal	ra,800063a4 <__clzsi2>
8000b690:	02050513          	addi	a0,a0,32
8000b694:	f7dff06f          	j	8000b610 <__adddf3+0x5f0>
/home/hqfang/workspace/software/riscv-gnu-toolchain/riscv-gcc/libgcc/soft-fp/adddf3.c:46 (discriminator 394)
8000b698:	fd850793          	addi	a5,a0,-40
8000b69c:	00f997b3          	sll	a5,s3,a5
8000b6a0:	00000593          	li	a1,0
8000b6a4:	f91ff06f          	j	8000b634 <__adddf3+0x614>
/home/hqfang/workspace/software/riscv-gnu-toolchain/riscv-gcc/libgcc/soft-fp/adddf3.c:46 (discriminator 406)
8000b6a8:	fe170713          	addi	a4,a4,-31
8000b6ac:	02000613          	li	a2,32
8000b6b0:	00e7d733          	srl	a4,a5,a4
8000b6b4:	00000513          	li	a0,0
8000b6b8:	00c68863          	beq	a3,a2,8000b6c8 <__adddf3+0x6a8>
/home/hqfang/workspace/software/riscv-gnu-toolchain/riscv-gcc/libgcc/soft-fp/adddf3.c:46 (discriminator 414)
8000b6bc:	04000513          	li	a0,64
8000b6c0:	40d50533          	sub	a0,a0,a3
8000b6c4:	00a79533          	sll	a0,a5,a0
/home/hqfang/workspace/software/riscv-gnu-toolchain/riscv-gcc/libgcc/soft-fp/adddf3.c:46 (discriminator 417)
8000b6c8:	00a5e533          	or	a0,a1,a0
8000b6cc:	00a03533          	snez	a0,a0
8000b6d0:	00a765b3          	or	a1,a4,a0
8000b6d4:	00000793          	li	a5,0
8000b6d8:	f95ff06f          	j	8000b66c <__adddf3+0x64c>
/home/hqfang/workspace/software/riscv-gnu-toolchain/riscv-gcc/libgcc/soft-fp/adddf3.c:46 (discriminator 404)
8000b6dc:	40e40433          	sub	s0,s0,a4
8000b6e0:	ff800737          	lui	a4,0xff800
8000b6e4:	fff70713          	addi	a4,a4,-1 # ff7fffff <_sp+0x6f7effff>
8000b6e8:	00e7f7b3          	and	a5,a5,a4
8000b6ec:	bf1ff06f          	j	8000b2dc <__adddf3+0x2bc>
/home/hqfang/workspace/software/riscv-gnu-toolchain/riscv-gcc/libgcc/soft-fp/adddf3.c:45
8000b6f0:	00070793          	mv	a5,a4
8000b6f4:	00060593          	mv	a1,a2
/home/hqfang/workspace/software/riscv-gnu-toolchain/riscv-gcc/libgcc/soft-fp/adddf3.c:46
8000b6f8:	00050413          	mv	s0,a0
8000b6fc:	be1ff06f          	j	8000b2dc <__adddf3+0x2bc>
/home/hqfang/workspace/software/riscv-gnu-toolchain/riscv-gcc/libgcc/soft-fp/adddf3.c:45
8000b700:	00070793          	mv	a5,a4
8000b704:	00060593          	mv	a1,a2
8000b708:	bd5ff06f          	j	8000b2dc <__adddf3+0x2bc>
8000b70c:	7ff00413          	li	s0,2047
8000b710:	00000793          	li	a5,0
8000b714:	00000593          	li	a1,0
/home/hqfang/workspace/software/riscv-gnu-toolchain/riscv-gcc/libgcc/soft-fp/adddf3.c:47 (discriminator 47)
8000b718:	00800737          	lui	a4,0x800
8000b71c:	00e7f733          	and	a4,a5,a4
8000b720:	00070e63          	beqz	a4,8000b73c <__adddf3+0x71c>
/home/hqfang/workspace/software/riscv-gnu-toolchain/riscv-gcc/libgcc/soft-fp/adddf3.c:47 (discriminator 63)
8000b724:	00140413          	addi	s0,s0,1
8000b728:	7ff00713          	li	a4,2047
8000b72c:	0ce40063          	beq	s0,a4,8000b7ec <__adddf3+0x7cc>
/home/hqfang/workspace/software/riscv-gnu-toolchain/riscv-gcc/libgcc/soft-fp/adddf3.c:47
8000b730:	ff800737          	lui	a4,0xff800
8000b734:	fff70713          	addi	a4,a4,-1 # ff7fffff <_sp+0x6f7effff>
8000b738:	00e7f7b3          	and	a5,a5,a4
/home/hqfang/workspace/software/riscv-gnu-toolchain/riscv-gcc/libgcc/soft-fp/adddf3.c:47 (discriminator 79)
8000b73c:	01d79713          	slli	a4,a5,0x1d
8000b740:	0035d513          	srli	a0,a1,0x3
8000b744:	00a76533          	or	a0,a4,a0
8000b748:	7ff00713          	li	a4,2047
8000b74c:	0037d793          	srli	a5,a5,0x3
8000b750:	00e41e63          	bne	s0,a4,8000b76c <__adddf3+0x74c>
/home/hqfang/workspace/software/riscv-gnu-toolchain/riscv-gcc/libgcc/soft-fp/adddf3.c:47 (discriminator 80)
8000b754:	00f56533          	or	a0,a0,a5
8000b758:	00000793          	li	a5,0
8000b75c:	00050863          	beqz	a0,8000b76c <__adddf3+0x74c>
/home/hqfang/workspace/software/riscv-gnu-toolchain/riscv-gcc/libgcc/soft-fp/adddf3.c:47
8000b760:	000807b7          	lui	a5,0x80
8000b764:	00000513          	li	a0,0
8000b768:	00000493          	li	s1,0
/home/hqfang/workspace/software/riscv-gnu-toolchain/riscv-gcc/libgcc/soft-fp/adddf3.c:47 (discriminator 90)
8000b76c:	01441713          	slli	a4,s0,0x14
8000b770:	7ff006b7          	lui	a3,0x7ff00
8000b774:	00c79793          	slli	a5,a5,0xc
/home/hqfang/workspace/software/riscv-gnu-toolchain/riscv-gcc/libgcc/soft-fp/adddf3.c:51 (discriminator 90)
8000b778:	01c12083          	lw	ra,28(sp)
8000b77c:	01812403          	lw	s0,24(sp)
/home/hqfang/workspace/software/riscv-gnu-toolchain/riscv-gcc/libgcc/soft-fp/adddf3.c:47 (discriminator 90)
8000b780:	00d77733          	and	a4,a4,a3
8000b784:	00c7d793          	srli	a5,a5,0xc
8000b788:	01f49493          	slli	s1,s1,0x1f
8000b78c:	00f767b3          	or	a5,a4,a5
8000b790:	0097e733          	or	a4,a5,s1
/home/hqfang/workspace/software/riscv-gnu-toolchain/riscv-gcc/libgcc/soft-fp/adddf3.c:51 (discriminator 90)
8000b794:	01012903          	lw	s2,16(sp)
8000b798:	01412483          	lw	s1,20(sp)
8000b79c:	00c12983          	lw	s3,12(sp)
8000b7a0:	00070593          	mv	a1,a4
8000b7a4:	02010113          	addi	sp,sp,32
8000b7a8:	00008067          	ret
8000b7ac:	00080413          	mv	s0,a6
8000b7b0:	b2dff06f          	j	8000b2dc <__adddf3+0x2bc>
/home/hqfang/workspace/software/riscv-gnu-toolchain/riscv-gcc/libgcc/soft-fp/adddf3.c:45
8000b7b4:	00070793          	mv	a5,a4
8000b7b8:	00060593          	mv	a1,a2
/home/hqfang/workspace/software/riscv-gnu-toolchain/riscv-gcc/libgcc/soft-fp/adddf3.c:46
8000b7bc:	00050413          	mv	s0,a0
8000b7c0:	da5ff06f          	j	8000b564 <__adddf3+0x544>
8000b7c4:	00000793          	li	a5,0
8000b7c8:	00000593          	li	a1,0
8000b7cc:	00000493          	li	s1,0
8000b7d0:	f49ff06f          	j	8000b718 <__adddf3+0x6f8>
8000b7d4:	00000793          	li	a5,0
8000b7d8:	ff5ff06f          	j	8000b7cc <__adddf3+0x7ac>
8000b7dc:	00000593          	li	a1,0
8000b7e0:	00000493          	li	s1,0
8000b7e4:	004007b7          	lui	a5,0x400
8000b7e8:	b35ff06f          	j	8000b31c <__adddf3+0x2fc>
8000b7ec:	00000793          	li	a5,0
8000b7f0:	00000593          	li	a1,0
8000b7f4:	f49ff06f          	j	8000b73c <__adddf3+0x71c>

8000b7f8 <__divdf3>:
__divdf3():
/home/hqfang/workspace/software/riscv-gnu-toolchain/riscv-gcc/libgcc/soft-fp/divdf3.c:36
8000b7f8:	fd010113          	addi	sp,sp,-48
8000b7fc:	03212023          	sw	s2,32(sp)
/home/hqfang/workspace/software/riscv-gnu-toolchain/riscv-gcc/libgcc/soft-fp/divdf3.c:44
8000b800:	0145d913          	srli	s2,a1,0x14
/home/hqfang/workspace/software/riscv-gnu-toolchain/riscv-gcc/libgcc/soft-fp/divdf3.c:36
8000b804:	02912223          	sw	s1,36(sp)
8000b808:	01312e23          	sw	s3,28(sp)
8000b80c:	01412c23          	sw	s4,24(sp)
8000b810:	01612823          	sw	s6,16(sp)
8000b814:	01812423          	sw	s8,8(sp)
/home/hqfang/workspace/software/riscv-gnu-toolchain/riscv-gcc/libgcc/soft-fp/divdf3.c:44
8000b818:	00c59493          	slli	s1,a1,0xc
/home/hqfang/workspace/software/riscv-gnu-toolchain/riscv-gcc/libgcc/soft-fp/divdf3.c:36
8000b81c:	02112623          	sw	ra,44(sp)
8000b820:	02812423          	sw	s0,40(sp)
8000b824:	01512a23          	sw	s5,20(sp)
8000b828:	01712623          	sw	s7,12(sp)
/home/hqfang/workspace/software/riscv-gnu-toolchain/riscv-gcc/libgcc/soft-fp/divdf3.c:44
8000b82c:	7ff97913          	andi	s2,s2,2047
/home/hqfang/workspace/software/riscv-gnu-toolchain/riscv-gcc/libgcc/soft-fp/divdf3.c:36
8000b830:	00050a13          	mv	s4,a0
8000b834:	00060b13          	mv	s6,a2
8000b838:	00068c13          	mv	s8,a3
/home/hqfang/workspace/software/riscv-gnu-toolchain/riscv-gcc/libgcc/soft-fp/divdf3.c:44
8000b83c:	00c4d493          	srli	s1,s1,0xc
8000b840:	01f5d993          	srli	s3,a1,0x1f
8000b844:	0a090263          	beqz	s2,8000b8e8 <__divdf3+0xf0>
8000b848:	7ff00793          	li	a5,2047
8000b84c:	10f90063          	beq	s2,a5,8000b94c <__divdf3+0x154>
/home/hqfang/workspace/software/riscv-gnu-toolchain/riscv-gcc/libgcc/soft-fp/divdf3.c:44 (discriminator 1)
8000b850:	01d55a93          	srli	s5,a0,0x1d
8000b854:	00349493          	slli	s1,s1,0x3
8000b858:	009ae4b3          	or	s1,s5,s1
8000b85c:	00800ab7          	lui	s5,0x800
8000b860:	0154eab3          	or	s5,s1,s5
8000b864:	00351413          	slli	s0,a0,0x3
8000b868:	c0190913          	addi	s2,s2,-1023
/home/hqfang/workspace/software/riscv-gnu-toolchain/riscv-gcc/libgcc/soft-fp/divdf3.c:44 (discriminator 41)
8000b86c:	00000b93          	li	s7,0
/home/hqfang/workspace/software/riscv-gnu-toolchain/riscv-gcc/libgcc/soft-fp/divdf3.c:45 (discriminator 8)
8000b870:	00cc1513          	slli	a0,s8,0xc
8000b874:	00c55493          	srli	s1,a0,0xc
8000b878:	014c5513          	srli	a0,s8,0x14
8000b87c:	7ff57593          	andi	a1,a0,2047
8000b880:	01fc5c13          	srli	s8,s8,0x1f
8000b884:	10058263          	beqz	a1,8000b988 <__divdf3+0x190>
/home/hqfang/workspace/software/riscv-gnu-toolchain/riscv-gcc/libgcc/soft-fp/divdf3.c:45
8000b888:	7ff00793          	li	a5,2047
8000b88c:	16f58463          	beq	a1,a5,8000b9f4 <__divdf3+0x1fc>
/home/hqfang/workspace/software/riscv-gnu-toolchain/riscv-gcc/libgcc/soft-fp/divdf3.c:45 (discriminator 1)
8000b890:	00349513          	slli	a0,s1,0x3
8000b894:	01db5793          	srli	a5,s6,0x1d
8000b898:	00a7e533          	or	a0,a5,a0
8000b89c:	008004b7          	lui	s1,0x800
8000b8a0:	009564b3          	or	s1,a0,s1
8000b8a4:	003b1f93          	slli	t6,s6,0x3
8000b8a8:	c0158513          	addi	a0,a1,-1023
/home/hqfang/workspace/software/riscv-gnu-toolchain/riscv-gcc/libgcc/soft-fp/divdf3.c:45 (discriminator 41)
8000b8ac:	00000793          	li	a5,0
/home/hqfang/workspace/software/riscv-gnu-toolchain/riscv-gcc/libgcc/soft-fp/divdf3.c:46 (discriminator 8)
8000b8b0:	002b9713          	slli	a4,s7,0x2
8000b8b4:	00f76733          	or	a4,a4,a5
8000b8b8:	fff70713          	addi	a4,a4,-1
8000b8bc:	00e00613          	li	a2,14
8000b8c0:	0189c6b3          	xor	a3,s3,s8
8000b8c4:	40a905b3          	sub	a1,s2,a0
8000b8c8:	16e66263          	bltu	a2,a4,8000ba2c <__divdf3+0x234>
8000b8cc:	00003617          	auipc	a2,0x3
8000b8d0:	84860613          	addi	a2,a2,-1976 # 8000e114 <_ctype_+0x104>
8000b8d4:	00271713          	slli	a4,a4,0x2
8000b8d8:	00c70733          	add	a4,a4,a2
8000b8dc:	00072703          	lw	a4,0(a4)
8000b8e0:	00c70733          	add	a4,a4,a2
8000b8e4:	00070067          	jr	a4
/home/hqfang/workspace/software/riscv-gnu-toolchain/riscv-gcc/libgcc/soft-fp/divdf3.c:44 (discriminator 2)
8000b8e8:	00a4eab3          	or	s5,s1,a0
8000b8ec:	060a8e63          	beqz	s5,8000b968 <__divdf3+0x170>
/home/hqfang/workspace/software/riscv-gnu-toolchain/riscv-gcc/libgcc/soft-fp/divdf3.c:44 (discriminator 13)
8000b8f0:	04048063          	beqz	s1,8000b930 <__divdf3+0x138>
/home/hqfang/workspace/software/riscv-gnu-toolchain/riscv-gcc/libgcc/soft-fp/divdf3.c:44 (discriminator 17)
8000b8f4:	00048513          	mv	a0,s1
8000b8f8:	aadfa0ef          	jal	ra,800063a4 <__clzsi2>
/home/hqfang/workspace/software/riscv-gnu-toolchain/riscv-gcc/libgcc/soft-fp/divdf3.c:44 (discriminator 31)
8000b8fc:	ff550793          	addi	a5,a0,-11
8000b900:	01c00713          	li	a4,28
8000b904:	02f74c63          	blt	a4,a5,8000b93c <__divdf3+0x144>
/home/hqfang/workspace/software/riscv-gnu-toolchain/riscv-gcc/libgcc/soft-fp/divdf3.c:44 (discriminator 32)
8000b908:	01d00a93          	li	s5,29
8000b90c:	ff850413          	addi	s0,a0,-8
8000b910:	40fa8ab3          	sub	s5,s5,a5
8000b914:	008494b3          	sll	s1,s1,s0
8000b918:	015a5ab3          	srl	s5,s4,s5
8000b91c:	009aeab3          	or	s5,s5,s1
8000b920:	008a1433          	sll	s0,s4,s0
/home/hqfang/workspace/software/riscv-gnu-toolchain/riscv-gcc/libgcc/soft-fp/divdf3.c:44 (discriminator 41)
8000b924:	c0d00593          	li	a1,-1011
8000b928:	40a58933          	sub	s2,a1,a0
8000b92c:	f41ff06f          	j	8000b86c <__divdf3+0x74>
/home/hqfang/workspace/software/riscv-gnu-toolchain/riscv-gcc/libgcc/soft-fp/divdf3.c:44 (discriminator 24)
8000b930:	a75fa0ef          	jal	ra,800063a4 <__clzsi2>
8000b934:	02050513          	addi	a0,a0,32
8000b938:	fc5ff06f          	j	8000b8fc <__divdf3+0x104>
/home/hqfang/workspace/software/riscv-gnu-toolchain/riscv-gcc/libgcc/soft-fp/divdf3.c:44 (discriminator 33)
8000b93c:	fd850493          	addi	s1,a0,-40
8000b940:	009a1ab3          	sll	s5,s4,s1
8000b944:	00000413          	li	s0,0
8000b948:	fddff06f          	j	8000b924 <__divdf3+0x12c>
/home/hqfang/workspace/software/riscv-gnu-toolchain/riscv-gcc/libgcc/soft-fp/divdf3.c:44 (discriminator 3)
8000b94c:	00a4eab3          	or	s5,s1,a0
8000b950:	020a8463          	beqz	s5,8000b978 <__divdf3+0x180>
8000b954:	00050413          	mv	s0,a0
/home/hqfang/workspace/software/riscv-gnu-toolchain/riscv-gcc/libgcc/soft-fp/divdf3.c:44
8000b958:	00048a93          	mv	s5,s1
8000b95c:	7ff00913          	li	s2,2047
8000b960:	00300b93          	li	s7,3
8000b964:	f0dff06f          	j	8000b870 <__divdf3+0x78>
8000b968:	00000413          	li	s0,0
8000b96c:	00000913          	li	s2,0
8000b970:	00100b93          	li	s7,1
8000b974:	efdff06f          	j	8000b870 <__divdf3+0x78>
8000b978:	00000413          	li	s0,0
8000b97c:	7ff00913          	li	s2,2047
8000b980:	00200b93          	li	s7,2
8000b984:	eedff06f          	j	8000b870 <__divdf3+0x78>
/home/hqfang/workspace/software/riscv-gnu-toolchain/riscv-gcc/libgcc/soft-fp/divdf3.c:45 (discriminator 2)
8000b988:	0164efb3          	or	t6,s1,s6
8000b98c:	080f8063          	beqz	t6,8000ba0c <__divdf3+0x214>
/home/hqfang/workspace/software/riscv-gnu-toolchain/riscv-gcc/libgcc/soft-fp/divdf3.c:45 (discriminator 13)
8000b990:	04048263          	beqz	s1,8000b9d4 <__divdf3+0x1dc>
/home/hqfang/workspace/software/riscv-gnu-toolchain/riscv-gcc/libgcc/soft-fp/divdf3.c:45 (discriminator 17)
8000b994:	00048513          	mv	a0,s1
8000b998:	a0dfa0ef          	jal	ra,800063a4 <__clzsi2>
8000b99c:	00050593          	mv	a1,a0
/home/hqfang/workspace/software/riscv-gnu-toolchain/riscv-gcc/libgcc/soft-fp/divdf3.c:45 (discriminator 31)
8000b9a0:	ff558793          	addi	a5,a1,-11
8000b9a4:	01c00713          	li	a4,28
8000b9a8:	02f74e63          	blt	a4,a5,8000b9e4 <__divdf3+0x1ec>
/home/hqfang/workspace/software/riscv-gnu-toolchain/riscv-gcc/libgcc/soft-fp/divdf3.c:45 (discriminator 32)
8000b9ac:	01d00693          	li	a3,29
8000b9b0:	ff858f93          	addi	t6,a1,-8
8000b9b4:	40f686b3          	sub	a3,a3,a5
8000b9b8:	01f49533          	sll	a0,s1,t6
8000b9bc:	00db56b3          	srl	a3,s6,a3
8000b9c0:	00a6e4b3          	or	s1,a3,a0
8000b9c4:	01fb1fb3          	sll	t6,s6,t6
/home/hqfang/workspace/software/riscv-gnu-toolchain/riscv-gcc/libgcc/soft-fp/divdf3.c:45 (discriminator 41)
8000b9c8:	c0d00693          	li	a3,-1011
8000b9cc:	40b68533          	sub	a0,a3,a1
8000b9d0:	eddff06f          	j	8000b8ac <__divdf3+0xb4>
/home/hqfang/workspace/software/riscv-gnu-toolchain/riscv-gcc/libgcc/soft-fp/divdf3.c:45 (discriminator 24)
8000b9d4:	000b0513          	mv	a0,s6
8000b9d8:	9cdfa0ef          	jal	ra,800063a4 <__clzsi2>
8000b9dc:	02050593          	addi	a1,a0,32
8000b9e0:	fc1ff06f          	j	8000b9a0 <__divdf3+0x1a8>
/home/hqfang/workspace/software/riscv-gnu-toolchain/riscv-gcc/libgcc/soft-fp/divdf3.c:45 (discriminator 33)
8000b9e4:	fd858513          	addi	a0,a1,-40
8000b9e8:	00ab14b3          	sll	s1,s6,a0
8000b9ec:	00000f93          	li	t6,0
8000b9f0:	fd9ff06f          	j	8000b9c8 <__divdf3+0x1d0>
/home/hqfang/workspace/software/riscv-gnu-toolchain/riscv-gcc/libgcc/soft-fp/divdf3.c:45 (discriminator 3)
8000b9f4:	0164efb3          	or	t6,s1,s6
8000b9f8:	020f8263          	beqz	t6,8000ba1c <__divdf3+0x224>
/home/hqfang/workspace/software/riscv-gnu-toolchain/riscv-gcc/libgcc/soft-fp/divdf3.c:45
8000b9fc:	000b0f93          	mv	t6,s6
8000ba00:	7ff00513          	li	a0,2047
8000ba04:	00300793          	li	a5,3
8000ba08:	ea9ff06f          	j	8000b8b0 <__divdf3+0xb8>
8000ba0c:	00000493          	li	s1,0
8000ba10:	00000513          	li	a0,0
8000ba14:	00100793          	li	a5,1
8000ba18:	e99ff06f          	j	8000b8b0 <__divdf3+0xb8>
8000ba1c:	00000493          	li	s1,0
8000ba20:	7ff00513          	li	a0,2047
8000ba24:	00200793          	li	a5,2
8000ba28:	e89ff06f          	j	8000b8b0 <__divdf3+0xb8>
/home/hqfang/workspace/software/riscv-gnu-toolchain/riscv-gcc/libgcc/soft-fp/divdf3.c:46 (discriminator 2)
8000ba2c:	0154e663          	bltu	s1,s5,8000ba38 <__divdf3+0x240>
/home/hqfang/workspace/software/riscv-gnu-toolchain/riscv-gcc/libgcc/soft-fp/divdf3.c:46 (discriminator 11)
8000ba30:	349a9e63          	bne	s5,s1,8000bd8c <__divdf3+0x594>
/home/hqfang/workspace/software/riscv-gnu-toolchain/riscv-gcc/libgcc/soft-fp/divdf3.c:46 (discriminator 12)
8000ba34:	35f46c63          	bltu	s0,t6,8000bd8c <__divdf3+0x594>
/home/hqfang/workspace/software/riscv-gnu-toolchain/riscv-gcc/libgcc/soft-fp/divdf3.c:46 (discriminator 14)
8000ba38:	01fa9613          	slli	a2,s5,0x1f
8000ba3c:	00145713          	srli	a4,s0,0x1
8000ba40:	01f41793          	slli	a5,s0,0x1f
8000ba44:	001ada93          	srli	s5,s5,0x1
8000ba48:	00e66433          	or	s0,a2,a4
/home/hqfang/workspace/software/riscv-gnu-toolchain/riscv-gcc/libgcc/soft-fp/divdf3.c:46 (discriminator 19)
8000ba4c:	00849513          	slli	a0,s1,0x8
8000ba50:	018fd893          	srli	a7,t6,0x18
8000ba54:	00a8e8b3          	or	a7,a7,a0
8000ba58:	01055513          	srli	a0,a0,0x10
8000ba5c:	02aade33          	divu	t3,s5,a0
8000ba60:	01089e93          	slli	t4,a7,0x10
8000ba64:	010ede93          	srli	t4,t4,0x10
8000ba68:	01045713          	srli	a4,s0,0x10
8000ba6c:	008f9313          	slli	t1,t6,0x8
8000ba70:	02aafab3          	remu	s5,s5,a0
8000ba74:	000e0613          	mv	a2,t3
8000ba78:	03ce8833          	mul	a6,t4,t3
8000ba7c:	010a9a93          	slli	s5,s5,0x10
8000ba80:	01576733          	or	a4,a4,s5
8000ba84:	01077e63          	bgeu	a4,a6,8000baa0 <__divdf3+0x2a8>
/home/hqfang/workspace/software/riscv-gnu-toolchain/riscv-gcc/libgcc/soft-fp/divdf3.c:46 (discriminator 22)
8000ba88:	01170733          	add	a4,a4,a7
8000ba8c:	fffe0613          	addi	a2,t3,-1
8000ba90:	01176863          	bltu	a4,a7,8000baa0 <__divdf3+0x2a8>
/home/hqfang/workspace/software/riscv-gnu-toolchain/riscv-gcc/libgcc/soft-fp/divdf3.c:46 (discriminator 24)
8000ba94:	01077663          	bgeu	a4,a6,8000baa0 <__divdf3+0x2a8>
/home/hqfang/workspace/software/riscv-gnu-toolchain/riscv-gcc/libgcc/soft-fp/divdf3.c:46 (discriminator 26)
8000ba98:	ffee0613          	addi	a2,t3,-2
8000ba9c:	01170733          	add	a4,a4,a7
/home/hqfang/workspace/software/riscv-gnu-toolchain/riscv-gcc/libgcc/soft-fp/divdf3.c:46 (discriminator 28)
8000baa0:	41070733          	sub	a4,a4,a6
8000baa4:	02a75e33          	divu	t3,a4,a0
8000baa8:	01041413          	slli	s0,s0,0x10
8000baac:	01045413          	srli	s0,s0,0x10
8000bab0:	02a77733          	remu	a4,a4,a0
8000bab4:	000e0293          	mv	t0,t3
8000bab8:	03ce8833          	mul	a6,t4,t3
8000babc:	01071713          	slli	a4,a4,0x10
8000bac0:	00e46733          	or	a4,s0,a4
8000bac4:	01077e63          	bgeu	a4,a6,8000bae0 <__divdf3+0x2e8>
/home/hqfang/workspace/software/riscv-gnu-toolchain/riscv-gcc/libgcc/soft-fp/divdf3.c:46 (discriminator 29)
8000bac8:	01170733          	add	a4,a4,a7
8000bacc:	fffe0293          	addi	t0,t3,-1
8000bad0:	01176863          	bltu	a4,a7,8000bae0 <__divdf3+0x2e8>
/home/hqfang/workspace/software/riscv-gnu-toolchain/riscv-gcc/libgcc/soft-fp/divdf3.c:46 (discriminator 31)
8000bad4:	01077663          	bgeu	a4,a6,8000bae0 <__divdf3+0x2e8>
/home/hqfang/workspace/software/riscv-gnu-toolchain/riscv-gcc/libgcc/soft-fp/divdf3.c:46 (discriminator 33)
8000bad8:	ffee0293          	addi	t0,t3,-2
8000badc:	01170733          	add	a4,a4,a7
/home/hqfang/workspace/software/riscv-gnu-toolchain/riscv-gcc/libgcc/soft-fp/divdf3.c:46 (discriminator 35)
8000bae0:	41070433          	sub	s0,a4,a6
8000bae4:	01061613          	slli	a2,a2,0x10
8000bae8:	00010837          	lui	a6,0x10
8000baec:	005662b3          	or	t0,a2,t0
8000baf0:	fff80e13          	addi	t3,a6,-1 # ffff <__stack_size+0xf7ff>
8000baf4:	0102d613          	srli	a2,t0,0x10
8000baf8:	01c2f733          	and	a4,t0,t3
8000bafc:	01035f13          	srli	t5,t1,0x10
8000bb00:	01c37e33          	and	t3,t1,t3
8000bb04:	02ee03b3          	mul	t2,t3,a4
8000bb08:	03c604b3          	mul	s1,a2,t3
8000bb0c:	02ef0733          	mul	a4,t5,a4
8000bb10:	03e60fb3          	mul	t6,a2,t5
8000bb14:	00970633          	add	a2,a4,s1
8000bb18:	0103d713          	srli	a4,t2,0x10
8000bb1c:	00c70733          	add	a4,a4,a2
8000bb20:	00977463          	bgeu	a4,s1,8000bb28 <__divdf3+0x330>
/home/hqfang/workspace/software/riscv-gnu-toolchain/riscv-gcc/libgcc/soft-fp/divdf3.c:46 (discriminator 36)
8000bb24:	010f8fb3          	add	t6,t6,a6
/home/hqfang/workspace/software/riscv-gnu-toolchain/riscv-gcc/libgcc/soft-fp/divdf3.c:46 (discriminator 38)
8000bb28:	01075613          	srli	a2,a4,0x10
8000bb2c:	01f60633          	add	a2,a2,t6
8000bb30:	00010fb7          	lui	t6,0x10
8000bb34:	ffff8f93          	addi	t6,t6,-1 # ffff <__stack_size+0xf7ff>
8000bb38:	01f77833          	and	a6,a4,t6
8000bb3c:	01081813          	slli	a6,a6,0x10
8000bb40:	01f3f3b3          	and	t2,t2,t6
8000bb44:	00780833          	add	a6,a6,t2
8000bb48:	00c46863          	bltu	s0,a2,8000bb58 <__divdf3+0x360>
/home/hqfang/workspace/software/riscv-gnu-toolchain/riscv-gcc/libgcc/soft-fp/divdf3.c:46 (discriminator 40)
8000bb4c:	00028493          	mv	s1,t0
8000bb50:	04c41463          	bne	s0,a2,8000bb98 <__divdf3+0x3a0>
/home/hqfang/workspace/software/riscv-gnu-toolchain/riscv-gcc/libgcc/soft-fp/divdf3.c:46 (discriminator 41)
8000bb54:	0507f263          	bgeu	a5,a6,8000bb98 <__divdf3+0x3a0>
/home/hqfang/workspace/software/riscv-gnu-toolchain/riscv-gcc/libgcc/soft-fp/divdf3.c:46 (discriminator 43)
8000bb58:	006787b3          	add	a5,a5,t1
8000bb5c:	0067b733          	sltu	a4,a5,t1
8000bb60:	01170733          	add	a4,a4,a7
8000bb64:	00e40433          	add	s0,s0,a4
8000bb68:	fff28493          	addi	s1,t0,-1
8000bb6c:	0088e663          	bltu	a7,s0,8000bb78 <__divdf3+0x380>
/home/hqfang/workspace/software/riscv-gnu-toolchain/riscv-gcc/libgcc/soft-fp/divdf3.c:46 (discriminator 46)
8000bb70:	02889463          	bne	a7,s0,8000bb98 <__divdf3+0x3a0>
/home/hqfang/workspace/software/riscv-gnu-toolchain/riscv-gcc/libgcc/soft-fp/divdf3.c:46 (discriminator 47)
8000bb74:	0267e263          	bltu	a5,t1,8000bb98 <__divdf3+0x3a0>
/home/hqfang/workspace/software/riscv-gnu-toolchain/riscv-gcc/libgcc/soft-fp/divdf3.c:46 (discriminator 49)
8000bb78:	00c46663          	bltu	s0,a2,8000bb84 <__divdf3+0x38c>
/home/hqfang/workspace/software/riscv-gnu-toolchain/riscv-gcc/libgcc/soft-fp/divdf3.c:46 (discriminator 52)
8000bb7c:	00861e63          	bne	a2,s0,8000bb98 <__divdf3+0x3a0>
/home/hqfang/workspace/software/riscv-gnu-toolchain/riscv-gcc/libgcc/soft-fp/divdf3.c:46 (discriminator 53)
8000bb80:	0107fc63          	bgeu	a5,a6,8000bb98 <__divdf3+0x3a0>
/home/hqfang/workspace/software/riscv-gnu-toolchain/riscv-gcc/libgcc/soft-fp/divdf3.c:46 (discriminator 55)
8000bb84:	006787b3          	add	a5,a5,t1
8000bb88:	0067b733          	sltu	a4,a5,t1
8000bb8c:	01170733          	add	a4,a4,a7
8000bb90:	ffe28493          	addi	s1,t0,-2
8000bb94:	00e40433          	add	s0,s0,a4
/home/hqfang/workspace/software/riscv-gnu-toolchain/riscv-gcc/libgcc/soft-fp/divdf3.c:46 (discriminator 57)
8000bb98:	41078833          	sub	a6,a5,a6
8000bb9c:	40c40433          	sub	s0,s0,a2
8000bba0:	0107b7b3          	sltu	a5,a5,a6
8000bba4:	40f40433          	sub	s0,s0,a5
8000bba8:	fff00f93          	li	t6,-1
8000bbac:	12888463          	beq	a7,s0,8000bcd4 <__divdf3+0x4dc>
/home/hqfang/workspace/software/riscv-gnu-toolchain/riscv-gcc/libgcc/soft-fp/divdf3.c:46 (discriminator 59)
8000bbb0:	02a45fb3          	divu	t6,s0,a0
8000bbb4:	01085713          	srli	a4,a6,0x10
8000bbb8:	02a47433          	remu	s0,s0,a0
8000bbbc:	000f8613          	mv	a2,t6
8000bbc0:	03fe87b3          	mul	a5,t4,t6
8000bbc4:	01041413          	slli	s0,s0,0x10
8000bbc8:	00876433          	or	s0,a4,s0
8000bbcc:	00f47e63          	bgeu	s0,a5,8000bbe8 <__divdf3+0x3f0>
/home/hqfang/workspace/software/riscv-gnu-toolchain/riscv-gcc/libgcc/soft-fp/divdf3.c:46 (discriminator 61)
8000bbd0:	01140433          	add	s0,s0,a7
8000bbd4:	ffff8613          	addi	a2,t6,-1
8000bbd8:	01146863          	bltu	s0,a7,8000bbe8 <__divdf3+0x3f0>
/home/hqfang/workspace/software/riscv-gnu-toolchain/riscv-gcc/libgcc/soft-fp/divdf3.c:46 (discriminator 63)
8000bbdc:	00f47663          	bgeu	s0,a5,8000bbe8 <__divdf3+0x3f0>
/home/hqfang/workspace/software/riscv-gnu-toolchain/riscv-gcc/libgcc/soft-fp/divdf3.c:46 (discriminator 65)
8000bbe0:	ffef8613          	addi	a2,t6,-2
8000bbe4:	01140433          	add	s0,s0,a7
/home/hqfang/workspace/software/riscv-gnu-toolchain/riscv-gcc/libgcc/soft-fp/divdf3.c:46 (discriminator 67)
8000bbe8:	40f40433          	sub	s0,s0,a5
8000bbec:	02a45733          	divu	a4,s0,a0
8000bbf0:	01081813          	slli	a6,a6,0x10
8000bbf4:	01085813          	srli	a6,a6,0x10
8000bbf8:	02a47433          	remu	s0,s0,a0
8000bbfc:	00070793          	mv	a5,a4
8000bc00:	02ee8eb3          	mul	t4,t4,a4
8000bc04:	01041413          	slli	s0,s0,0x10
8000bc08:	00886433          	or	s0,a6,s0
8000bc0c:	01d47e63          	bgeu	s0,t4,8000bc28 <__divdf3+0x430>
/home/hqfang/workspace/software/riscv-gnu-toolchain/riscv-gcc/libgcc/soft-fp/divdf3.c:46 (discriminator 68)
8000bc10:	01140433          	add	s0,s0,a7
8000bc14:	fff70793          	addi	a5,a4,-1
8000bc18:	01146863          	bltu	s0,a7,8000bc28 <__divdf3+0x430>
/home/hqfang/workspace/software/riscv-gnu-toolchain/riscv-gcc/libgcc/soft-fp/divdf3.c:46 (discriminator 70)
8000bc1c:	01d47663          	bgeu	s0,t4,8000bc28 <__divdf3+0x430>
/home/hqfang/workspace/software/riscv-gnu-toolchain/riscv-gcc/libgcc/soft-fp/divdf3.c:46 (discriminator 72)
8000bc20:	ffe70793          	addi	a5,a4,-2
8000bc24:	01140433          	add	s0,s0,a7
/home/hqfang/workspace/software/riscv-gnu-toolchain/riscv-gcc/libgcc/soft-fp/divdf3.c:46 (discriminator 74)
8000bc28:	01061613          	slli	a2,a2,0x10
8000bc2c:	00f66633          	or	a2,a2,a5
8000bc30:	01061793          	slli	a5,a2,0x10
8000bc34:	0107d793          	srli	a5,a5,0x10
8000bc38:	01065713          	srli	a4,a2,0x10
8000bc3c:	02ef0833          	mul	a6,t5,a4
8000bc40:	41d40433          	sub	s0,s0,t4
8000bc44:	02ff0f33          	mul	t5,t5,a5
8000bc48:	03c78eb3          	mul	t4,a5,t3
8000bc4c:	03c70e33          	mul	t3,a4,t3
8000bc50:	010ed793          	srli	a5,t4,0x10
8000bc54:	01cf0f33          	add	t5,t5,t3
8000bc58:	01e787b3          	add	a5,a5,t5
8000bc5c:	01c7f663          	bgeu	a5,t3,8000bc68 <__divdf3+0x470>
/home/hqfang/workspace/software/riscv-gnu-toolchain/riscv-gcc/libgcc/soft-fp/divdf3.c:46 (discriminator 75)
8000bc60:	00010737          	lui	a4,0x10
8000bc64:	00e80833          	add	a6,a6,a4
/home/hqfang/workspace/software/riscv-gnu-toolchain/riscv-gcc/libgcc/soft-fp/divdf3.c:46 (discriminator 77)
8000bc68:	0107d713          	srli	a4,a5,0x10
8000bc6c:	01070733          	add	a4,a4,a6
8000bc70:	00010837          	lui	a6,0x10
8000bc74:	fff80813          	addi	a6,a6,-1 # ffff <__stack_size+0xf7ff>
8000bc78:	0107f533          	and	a0,a5,a6
8000bc7c:	01051513          	slli	a0,a0,0x10
8000bc80:	010efeb3          	and	t4,t4,a6
8000bc84:	01d50533          	add	a0,a0,t4
8000bc88:	00e46863          	bltu	s0,a4,8000bc98 <__divdf3+0x4a0>
/home/hqfang/workspace/software/riscv-gnu-toolchain/riscv-gcc/libgcc/soft-fp/divdf3.c:46 (discriminator 79)
8000bc8c:	24e41463          	bne	s0,a4,8000bed4 <__divdf3+0x6dc>
/home/hqfang/workspace/software/riscv-gnu-toolchain/riscv-gcc/libgcc/soft-fp/divdf3.c:46 (discriminator 80)
8000bc90:	00060f93          	mv	t6,a2
8000bc94:	04050063          	beqz	a0,8000bcd4 <__divdf3+0x4dc>
/home/hqfang/workspace/software/riscv-gnu-toolchain/riscv-gcc/libgcc/soft-fp/divdf3.c:46 (discriminator 82)
8000bc98:	00888433          	add	s0,a7,s0
8000bc9c:	fff60f93          	addi	t6,a2,-1
8000bca0:	03146463          	bltu	s0,a7,8000bcc8 <__divdf3+0x4d0>
/home/hqfang/workspace/software/riscv-gnu-toolchain/riscv-gcc/libgcc/soft-fp/divdf3.c:46 (discriminator 88)
8000bca4:	00e46663          	bltu	s0,a4,8000bcb0 <__divdf3+0x4b8>
/home/hqfang/workspace/software/riscv-gnu-toolchain/riscv-gcc/libgcc/soft-fp/divdf3.c:46 (discriminator 91)
8000bca8:	22e41463          	bne	s0,a4,8000bed0 <__divdf3+0x6d8>
/home/hqfang/workspace/software/riscv-gnu-toolchain/riscv-gcc/libgcc/soft-fp/divdf3.c:46 (discriminator 92)
8000bcac:	02a37063          	bgeu	t1,a0,8000bccc <__divdf3+0x4d4>
/home/hqfang/workspace/software/riscv-gnu-toolchain/riscv-gcc/libgcc/soft-fp/divdf3.c:46 (discriminator 94)
8000bcb0:	00131793          	slli	a5,t1,0x1
8000bcb4:	0067b333          	sltu	t1,a5,t1
8000bcb8:	011308b3          	add	a7,t1,a7
8000bcbc:	ffe60f93          	addi	t6,a2,-2
8000bcc0:	01140433          	add	s0,s0,a7
8000bcc4:	00078313          	mv	t1,a5
/home/hqfang/workspace/software/riscv-gnu-toolchain/riscv-gcc/libgcc/soft-fp/divdf3.c:46 (discriminator 96)
8000bcc8:	00e41463          	bne	s0,a4,8000bcd0 <__divdf3+0x4d8>
/home/hqfang/workspace/software/riscv-gnu-toolchain/riscv-gcc/libgcc/soft-fp/divdf3.c:46 (discriminator 98)
8000bccc:	00650463          	beq	a0,t1,8000bcd4 <__divdf3+0x4dc>
/home/hqfang/workspace/software/riscv-gnu-toolchain/riscv-gcc/libgcc/soft-fp/divdf3.c:46 (discriminator 99)
8000bcd0:	001fef93          	ori	t6,t6,1
/home/hqfang/workspace/software/riscv-gnu-toolchain/riscv-gcc/libgcc/soft-fp/divdf3.c:47 (discriminator 2)
8000bcd4:	3ff58793          	addi	a5,a1,1023
8000bcd8:	10f05a63          	blez	a5,8000bdec <__divdf3+0x5f4>
/home/hqfang/workspace/software/riscv-gnu-toolchain/riscv-gcc/libgcc/soft-fp/divdf3.c:47 (discriminator 6)
8000bcdc:	007ff713          	andi	a4,t6,7
8000bce0:	02070063          	beqz	a4,8000bd00 <__divdf3+0x508>
/home/hqfang/workspace/software/riscv-gnu-toolchain/riscv-gcc/libgcc/soft-fp/divdf3.c:47 (discriminator 8)
8000bce4:	00fff713          	andi	a4,t6,15
8000bce8:	00400613          	li	a2,4
8000bcec:	00c70a63          	beq	a4,a2,8000bd00 <__divdf3+0x508>
/home/hqfang/workspace/software/riscv-gnu-toolchain/riscv-gcc/libgcc/soft-fp/divdf3.c:47 (discriminator 10)
8000bcf0:	004f8613          	addi	a2,t6,4
8000bcf4:	01f63fb3          	sltu	t6,a2,t6
8000bcf8:	01f484b3          	add	s1,s1,t6
8000bcfc:	00060f93          	mv	t6,a2
/home/hqfang/workspace/software/riscv-gnu-toolchain/riscv-gcc/libgcc/soft-fp/divdf3.c:47 (discriminator 9)
8000bd00:	01000737          	lui	a4,0x1000
8000bd04:	00e4f733          	and	a4,s1,a4
8000bd08:	00070a63          	beqz	a4,8000bd1c <__divdf3+0x524>
/home/hqfang/workspace/software/riscv-gnu-toolchain/riscv-gcc/libgcc/soft-fp/divdf3.c:47 (discriminator 24)
8000bd0c:	ff0007b7          	lui	a5,0xff000
8000bd10:	fff78793          	addi	a5,a5,-1 # feffffff <_sp+0x6efeffff>
8000bd14:	00f4f4b3          	and	s1,s1,a5
8000bd18:	40058793          	addi	a5,a1,1024
/home/hqfang/workspace/software/riscv-gnu-toolchain/riscv-gcc/libgcc/soft-fp/divdf3.c:47 (discriminator 26)
8000bd1c:	7fe00713          	li	a4,2046
8000bd20:	0af74063          	blt	a4,a5,8000bdc0 <__divdf3+0x5c8>
/home/hqfang/workspace/software/riscv-gnu-toolchain/riscv-gcc/libgcc/soft-fp/divdf3.c:47
8000bd24:	003fdf93          	srli	t6,t6,0x3
8000bd28:	01d49713          	slli	a4,s1,0x1d
8000bd2c:	01f76733          	or	a4,a4,t6
8000bd30:	0034d513          	srli	a0,s1,0x3
/home/hqfang/workspace/software/riscv-gnu-toolchain/riscv-gcc/libgcc/soft-fp/divdf3.c:47 (discriminator 119)
8000bd34:	01479793          	slli	a5,a5,0x14
8000bd38:	7ff00637          	lui	a2,0x7ff00
8000bd3c:	00c51513          	slli	a0,a0,0xc
/home/hqfang/workspace/software/riscv-gnu-toolchain/riscv-gcc/libgcc/soft-fp/divdf3.c:51 (discriminator 119)
8000bd40:	02c12083          	lw	ra,44(sp)
8000bd44:	02812403          	lw	s0,40(sp)
/home/hqfang/workspace/software/riscv-gnu-toolchain/riscv-gcc/libgcc/soft-fp/divdf3.c:47 (discriminator 119)
8000bd48:	00c7f7b3          	and	a5,a5,a2
8000bd4c:	00c55513          	srli	a0,a0,0xc
8000bd50:	00a7e533          	or	a0,a5,a0
8000bd54:	01f69693          	slli	a3,a3,0x1f
8000bd58:	00d567b3          	or	a5,a0,a3
/home/hqfang/workspace/software/riscv-gnu-toolchain/riscv-gcc/libgcc/soft-fp/divdf3.c:51 (discriminator 119)
8000bd5c:	02412483          	lw	s1,36(sp)
8000bd60:	02012903          	lw	s2,32(sp)
8000bd64:	01c12983          	lw	s3,28(sp)
8000bd68:	01812a03          	lw	s4,24(sp)
8000bd6c:	01412a83          	lw	s5,20(sp)
8000bd70:	01012b03          	lw	s6,16(sp)
8000bd74:	00c12b83          	lw	s7,12(sp)
8000bd78:	00812c03          	lw	s8,8(sp)
8000bd7c:	00070513          	mv	a0,a4
8000bd80:	00078593          	mv	a1,a5
8000bd84:	03010113          	addi	sp,sp,48
8000bd88:	00008067          	ret
/home/hqfang/workspace/software/riscv-gnu-toolchain/riscv-gcc/libgcc/soft-fp/divdf3.c:46 (discriminator 15)
8000bd8c:	fff58593          	addi	a1,a1,-1
8000bd90:	00000793          	li	a5,0
8000bd94:	cb9ff06f          	j	8000ba4c <__divdf3+0x254>
/home/hqfang/workspace/software/riscv-gnu-toolchain/riscv-gcc/libgcc/soft-fp/divdf3.c:44 (discriminator 8)
8000bd98:	00098693          	mv	a3,s3
/home/hqfang/workspace/software/riscv-gnu-toolchain/riscv-gcc/libgcc/soft-fp/divdf3.c:46 (discriminator 8)
8000bd9c:	000a8493          	mv	s1,s5
8000bda0:	00040f93          	mv	t6,s0
8000bda4:	000b8793          	mv	a5,s7
/home/hqfang/workspace/software/riscv-gnu-toolchain/riscv-gcc/libgcc/soft-fp/divdf3.c:47 (discriminator 108)
8000bda8:	00300713          	li	a4,3
8000bdac:	0ee78a63          	beq	a5,a4,8000bea0 <__divdf3+0x6a8>
/home/hqfang/workspace/software/riscv-gnu-toolchain/riscv-gcc/libgcc/soft-fp/divdf3.c:47
8000bdb0:	00100713          	li	a4,1
8000bdb4:	10e78063          	beq	a5,a4,8000beb4 <__divdf3+0x6bc>
8000bdb8:	00200713          	li	a4,2
8000bdbc:	f0e79ce3          	bne	a5,a4,8000bcd4 <__divdf3+0x4dc>
8000bdc0:	00000513          	li	a0,0
8000bdc4:	00000713          	li	a4,0
8000bdc8:	7ff00793          	li	a5,2047
8000bdcc:	f69ff06f          	j	8000bd34 <__divdf3+0x53c>
/home/hqfang/workspace/software/riscv-gnu-toolchain/riscv-gcc/libgcc/soft-fp/divdf3.c:45 (discriminator 5)
8000bdd0:	000c0693          	mv	a3,s8
/home/hqfang/workspace/software/riscv-gnu-toolchain/riscv-gcc/libgcc/soft-fp/divdf3.c:46 (discriminator 5)
8000bdd4:	fd5ff06f          	j	8000bda8 <__divdf3+0x5b0>
/home/hqfang/workspace/software/riscv-gnu-toolchain/riscv-gcc/libgcc/soft-fp/divdf3.c:46
8000bdd8:	000804b7          	lui	s1,0x80
8000bddc:	00000f93          	li	t6,0
8000bde0:	00000693          	li	a3,0
8000bde4:	00300793          	li	a5,3
8000bde8:	fc1ff06f          	j	8000bda8 <__divdf3+0x5b0>
/home/hqfang/workspace/software/riscv-gnu-toolchain/riscv-gcc/libgcc/soft-fp/divdf3.c:47 (discriminator 59)
8000bdec:	00100513          	li	a0,1
8000bdf0:	40f50533          	sub	a0,a0,a5
8000bdf4:	03800713          	li	a4,56
8000bdf8:	0aa74e63          	blt	a4,a0,8000beb4 <__divdf3+0x6bc>
/home/hqfang/workspace/software/riscv-gnu-toolchain/riscv-gcc/libgcc/soft-fp/divdf3.c:47 (discriminator 60)
8000bdfc:	01f00713          	li	a4,31
8000be00:	06a74663          	blt	a4,a0,8000be6c <__divdf3+0x674>
/home/hqfang/workspace/software/riscv-gnu-toolchain/riscv-gcc/libgcc/soft-fp/divdf3.c:47 (discriminator 62)
8000be04:	41e58593          	addi	a1,a1,1054
8000be08:	00b497b3          	sll	a5,s1,a1
8000be0c:	00afd733          	srl	a4,t6,a0
8000be10:	00bf95b3          	sll	a1,t6,a1
8000be14:	00e7e7b3          	or	a5,a5,a4
8000be18:	00b035b3          	snez	a1,a1
8000be1c:	00b7e7b3          	or	a5,a5,a1
8000be20:	00a4d533          	srl	a0,s1,a0
/home/hqfang/workspace/software/riscv-gnu-toolchain/riscv-gcc/libgcc/soft-fp/divdf3.c:47 (discriminator 75)
8000be24:	0077f713          	andi	a4,a5,7
8000be28:	02070063          	beqz	a4,8000be48 <__divdf3+0x650>
/home/hqfang/workspace/software/riscv-gnu-toolchain/riscv-gcc/libgcc/soft-fp/divdf3.c:47 (discriminator 76)
8000be2c:	00f7f713          	andi	a4,a5,15
8000be30:	00400613          	li	a2,4
8000be34:	00c70a63          	beq	a4,a2,8000be48 <__divdf3+0x650>
/home/hqfang/workspace/software/riscv-gnu-toolchain/riscv-gcc/libgcc/soft-fp/divdf3.c:47 (discriminator 78)
8000be38:	00478713          	addi	a4,a5,4
8000be3c:	00f737b3          	sltu	a5,a4,a5
8000be40:	00f50533          	add	a0,a0,a5
8000be44:	00070793          	mv	a5,a4
/home/hqfang/workspace/software/riscv-gnu-toolchain/riscv-gcc/libgcc/soft-fp/divdf3.c:47 (discriminator 77)
8000be48:	00800737          	lui	a4,0x800
8000be4c:	00e57733          	and	a4,a0,a4
8000be50:	06071863          	bnez	a4,8000bec0 <__divdf3+0x6c8>
/home/hqfang/workspace/software/riscv-gnu-toolchain/riscv-gcc/libgcc/soft-fp/divdf3.c:47 (discriminator 93)
8000be54:	01d51713          	slli	a4,a0,0x1d
8000be58:	0037d793          	srli	a5,a5,0x3
8000be5c:	00f76733          	or	a4,a4,a5
8000be60:	00355513          	srli	a0,a0,0x3
/home/hqfang/workspace/software/riscv-gnu-toolchain/riscv-gcc/libgcc/soft-fp/divdf3.c:47
8000be64:	00000793          	li	a5,0
8000be68:	ecdff06f          	j	8000bd34 <__divdf3+0x53c>
/home/hqfang/workspace/software/riscv-gnu-toolchain/riscv-gcc/libgcc/soft-fp/divdf3.c:47 (discriminator 63)
8000be6c:	fe100713          	li	a4,-31
8000be70:	40f707b3          	sub	a5,a4,a5
8000be74:	02000613          	li	a2,32
8000be78:	00f4d7b3          	srl	a5,s1,a5
8000be7c:	00000713          	li	a4,0
8000be80:	00c50663          	beq	a0,a2,8000be8c <__divdf3+0x694>
/home/hqfang/workspace/software/riscv-gnu-toolchain/riscv-gcc/libgcc/soft-fp/divdf3.c:47 (discriminator 71)
8000be84:	43e58713          	addi	a4,a1,1086
8000be88:	00e49733          	sll	a4,s1,a4
/home/hqfang/workspace/software/riscv-gnu-toolchain/riscv-gcc/libgcc/soft-fp/divdf3.c:47 (discriminator 74)
8000be8c:	01f76733          	or	a4,a4,t6
8000be90:	00e03733          	snez	a4,a4
8000be94:	00e7e7b3          	or	a5,a5,a4
8000be98:	00000513          	li	a0,0
8000be9c:	f89ff06f          	j	8000be24 <__divdf3+0x62c>
/home/hqfang/workspace/software/riscv-gnu-toolchain/riscv-gcc/libgcc/soft-fp/divdf3.c:47
8000bea0:	00080537          	lui	a0,0x80
8000bea4:	00000713          	li	a4,0
8000bea8:	7ff00793          	li	a5,2047
8000beac:	00000693          	li	a3,0
8000beb0:	e85ff06f          	j	8000bd34 <__divdf3+0x53c>
8000beb4:	00000513          	li	a0,0
8000beb8:	00000713          	li	a4,0
8000bebc:	fa9ff06f          	j	8000be64 <__divdf3+0x66c>
8000bec0:	00000513          	li	a0,0
8000bec4:	00000713          	li	a4,0
8000bec8:	00100793          	li	a5,1
8000becc:	e69ff06f          	j	8000bd34 <__divdf3+0x53c>
/home/hqfang/workspace/software/riscv-gnu-toolchain/riscv-gcc/libgcc/soft-fp/divdf3.c:46
8000bed0:	000f8613          	mv	a2,t6
8000bed4:	00060f93          	mv	t6,a2
8000bed8:	df9ff06f          	j	8000bcd0 <__divdf3+0x4d8>

8000bedc <__eqdf2>:
__eqdf2():
/home/hqfang/workspace/software/riscv-gnu-toolchain/riscv-gcc/libgcc/soft-fp/eqdf2.c:43
8000bedc:	0145d713          	srli	a4,a1,0x14
8000bee0:	001007b7          	lui	a5,0x100
8000bee4:	fff78793          	addi	a5,a5,-1 # fffff <__stack_size+0xff7ff>
/home/hqfang/workspace/software/riscv-gnu-toolchain/riscv-gcc/libgcc/soft-fp/eqdf2.c:44
8000bee8:	0146d813          	srli	a6,a3,0x14
/home/hqfang/workspace/software/riscv-gnu-toolchain/riscv-gcc/libgcc/soft-fp/eqdf2.c:36
8000beec:	00050313          	mv	t1,a0
8000bef0:	00050e93          	mv	t4,a0
/home/hqfang/workspace/software/riscv-gnu-toolchain/riscv-gcc/libgcc/soft-fp/eqdf2.c:43
8000bef4:	7ff77713          	andi	a4,a4,2047
/home/hqfang/workspace/software/riscv-gnu-toolchain/riscv-gcc/libgcc/soft-fp/eqdf2.c:45
8000bef8:	7ff00513          	li	a0,2047
/home/hqfang/workspace/software/riscv-gnu-toolchain/riscv-gcc/libgcc/soft-fp/eqdf2.c:43
8000befc:	00b7f8b3          	and	a7,a5,a1
8000bf00:	00060f13          	mv	t5,a2
/home/hqfang/workspace/software/riscv-gnu-toolchain/riscv-gcc/libgcc/soft-fp/eqdf2.c:44
8000bf04:	00d7f7b3          	and	a5,a5,a3
/home/hqfang/workspace/software/riscv-gnu-toolchain/riscv-gcc/libgcc/soft-fp/eqdf2.c:43
8000bf08:	01f5d593          	srli	a1,a1,0x1f
/home/hqfang/workspace/software/riscv-gnu-toolchain/riscv-gcc/libgcc/soft-fp/eqdf2.c:44
8000bf0c:	7ff87813          	andi	a6,a6,2047
8000bf10:	01f6d693          	srli	a3,a3,0x1f
/home/hqfang/workspace/software/riscv-gnu-toolchain/riscv-gcc/libgcc/soft-fp/eqdf2.c:45
8000bf14:	00a71c63          	bne	a4,a0,8000bf2c <__eqdf2+0x50>
/home/hqfang/workspace/software/riscv-gnu-toolchain/riscv-gcc/libgcc/soft-fp/eqdf2.c:45 (discriminator 20)
8000bf18:	0068ee33          	or	t3,a7,t1
8000bf1c:	00100513          	li	a0,1
8000bf20:	000e1463          	bnez	t3,8000bf28 <__eqdf2+0x4c>
/home/hqfang/workspace/software/riscv-gnu-toolchain/riscv-gcc/libgcc/soft-fp/eqdf2.c:45
8000bf24:	00e80663          	beq	a6,a4,8000bf30 <__eqdf2+0x54>
/home/hqfang/workspace/software/riscv-gnu-toolchain/riscv-gcc/libgcc/soft-fp/eqdf2.c:49
8000bf28:	00008067          	ret
/home/hqfang/workspace/software/riscv-gnu-toolchain/riscv-gcc/libgcc/soft-fp/eqdf2.c:45 (discriminator 23)
8000bf2c:	00a81863          	bne	a6,a0,8000bf3c <__eqdf2+0x60>
/home/hqfang/workspace/software/riscv-gnu-toolchain/riscv-gcc/libgcc/soft-fp/eqdf2.c:45 (discriminator 24)
8000bf30:	00c7e633          	or	a2,a5,a2
8000bf34:	00100513          	li	a0,1
8000bf38:	fe0618e3          	bnez	a2,8000bf28 <__eqdf2+0x4c>
/home/hqfang/workspace/software/riscv-gnu-toolchain/riscv-gcc/libgcc/soft-fp/eqdf2.c:45 (discriminator 78)
8000bf3c:	00100513          	li	a0,1
8000bf40:	ff0714e3          	bne	a4,a6,8000bf28 <__eqdf2+0x4c>
/home/hqfang/workspace/software/riscv-gnu-toolchain/riscv-gcc/libgcc/soft-fp/eqdf2.c:45 (discriminator 80)
8000bf44:	fef892e3          	bne	a7,a5,8000bf28 <__eqdf2+0x4c>
/home/hqfang/workspace/software/riscv-gnu-toolchain/riscv-gcc/libgcc/soft-fp/eqdf2.c:45 (discriminator 82)
8000bf48:	ffee90e3          	bne	t4,t5,8000bf28 <__eqdf2+0x4c>
/home/hqfang/workspace/software/riscv-gnu-toolchain/riscv-gcc/libgcc/soft-fp/eqdf2.c:45 (discriminator 84)
8000bf4c:	00d58a63          	beq	a1,a3,8000bf60 <__eqdf2+0x84>
/home/hqfang/workspace/software/riscv-gnu-toolchain/riscv-gcc/libgcc/soft-fp/eqdf2.c:45 (discriminator 85)
8000bf50:	fc071ce3          	bnez	a4,8000bf28 <__eqdf2+0x4c>
/home/hqfang/workspace/software/riscv-gnu-toolchain/riscv-gcc/libgcc/soft-fp/eqdf2.c:45 (discriminator 88)
8000bf54:	0068e533          	or	a0,a7,t1
8000bf58:	00a03533          	snez	a0,a0
8000bf5c:	00008067          	ret
/home/hqfang/workspace/software/riscv-gnu-toolchain/riscv-gcc/libgcc/soft-fp/eqdf2.c:45
8000bf60:	00000513          	li	a0,0
8000bf64:	00008067          	ret

8000bf68 <__gedf2>:
__gedf2():
/home/hqfang/workspace/software/riscv-gnu-toolchain/riscv-gcc/libgcc/soft-fp/gedf2.c:43
8000bf68:	00100737          	lui	a4,0x100
8000bf6c:	fff70713          	addi	a4,a4,-1 # fffff <__stack_size+0xff7ff>
8000bf70:	0145d813          	srli	a6,a1,0x14
8000bf74:	00b778b3          	and	a7,a4,a1
/home/hqfang/workspace/software/riscv-gnu-toolchain/riscv-gcc/libgcc/soft-fp/gedf2.c:36
8000bf78:	00050793          	mv	a5,a0
8000bf7c:	00050313          	mv	t1,a0
/home/hqfang/workspace/software/riscv-gnu-toolchain/riscv-gcc/libgcc/soft-fp/gedf2.c:43
8000bf80:	7ff87813          	andi	a6,a6,2047
8000bf84:	01f5d513          	srli	a0,a1,0x1f
/home/hqfang/workspace/software/riscv-gnu-toolchain/riscv-gcc/libgcc/soft-fp/gedf2.c:45
8000bf88:	7ff00e93          	li	t4,2047
/home/hqfang/workspace/software/riscv-gnu-toolchain/riscv-gcc/libgcc/soft-fp/gedf2.c:44
8000bf8c:	0146d593          	srli	a1,a3,0x14
8000bf90:	00d77733          	and	a4,a4,a3
8000bf94:	00060e13          	mv	t3,a2
8000bf98:	7ff5f593          	andi	a1,a1,2047
8000bf9c:	01f6d693          	srli	a3,a3,0x1f
/home/hqfang/workspace/software/riscv-gnu-toolchain/riscv-gcc/libgcc/soft-fp/gedf2.c:45
8000bfa0:	01d81a63          	bne	a6,t4,8000bfb4 <__gedf2+0x4c>
/home/hqfang/workspace/software/riscv-gnu-toolchain/riscv-gcc/libgcc/soft-fp/gedf2.c:45 (discriminator 20)
8000bfa4:	00f8eeb3          	or	t4,a7,a5
8000bfa8:	080e8a63          	beqz	t4,8000c03c <__gedf2+0xd4>
/home/hqfang/workspace/software/riscv-gnu-toolchain/riscv-gcc/libgcc/soft-fp/gedf2.c:45
8000bfac:	ffe00513          	li	a0,-2
8000bfb0:	00008067          	ret
/home/hqfang/workspace/software/riscv-gnu-toolchain/riscv-gcc/libgcc/soft-fp/gedf2.c:45 (discriminator 23)
8000bfb4:	01d59663          	bne	a1,t4,8000bfc0 <__gedf2+0x58>
/home/hqfang/workspace/software/riscv-gnu-toolchain/riscv-gcc/libgcc/soft-fp/gedf2.c:45 (discriminator 24)
8000bfb8:	00c76eb3          	or	t4,a4,a2
8000bfbc:	fe0e98e3          	bnez	t4,8000bfac <__gedf2+0x44>
/home/hqfang/workspace/software/riscv-gnu-toolchain/riscv-gcc/libgcc/soft-fp/gedf2.c:45 (discriminator 62)
8000bfc0:	08081063          	bnez	a6,8000c040 <__gedf2+0xd8>
/home/hqfang/workspace/software/riscv-gnu-toolchain/riscv-gcc/libgcc/soft-fp/gedf2.c:45 (discriminator 63)
8000bfc4:	00f8e7b3          	or	a5,a7,a5
8000bfc8:	0017b793          	seqz	a5,a5
8000bfcc:	00059663          	bnez	a1,8000bfd8 <__gedf2+0x70>
/home/hqfang/workspace/software/riscv-gnu-toolchain/riscv-gcc/libgcc/soft-fp/gedf2.c:45 (discriminator 69)
8000bfd0:	00c76633          	or	a2,a4,a2
8000bfd4:	04060c63          	beqz	a2,8000c02c <__gedf2+0xc4>
/home/hqfang/workspace/software/riscv-gnu-toolchain/riscv-gcc/libgcc/soft-fp/gedf2.c:45
8000bfd8:	00079c63          	bnez	a5,8000bff0 <__gedf2+0x88>
8000bfdc:	00d51463          	bne	a0,a3,8000bfe4 <__gedf2+0x7c>
/home/hqfang/workspace/software/riscv-gnu-toolchain/riscv-gcc/libgcc/soft-fp/gedf2.c:45 (discriminator 95)
8000bfe0:	0305d063          	bge	a1,a6,8000c000 <__gedf2+0x98>
/home/hqfang/workspace/software/riscv-gnu-toolchain/riscv-gcc/libgcc/soft-fp/gedf2.c:45 (discriminator 119)
8000bfe4:	04050063          	beqz	a0,8000c024 <__gedf2+0xbc>
/home/hqfang/workspace/software/riscv-gnu-toolchain/riscv-gcc/libgcc/soft-fp/gedf2.c:45
8000bfe8:	fff00513          	li	a0,-1
8000bfec:	00008067          	ret
/home/hqfang/workspace/software/riscv-gnu-toolchain/riscv-gcc/libgcc/soft-fp/gedf2.c:45 (discriminator 80)
8000bff0:	fff00513          	li	a0,-1
8000bff4:	00068a63          	beqz	a3,8000c008 <__gedf2+0xa0>
/home/hqfang/workspace/software/riscv-gnu-toolchain/riscv-gcc/libgcc/soft-fp/gedf2.c:45
8000bff8:	00068513          	mv	a0,a3
8000bffc:	00008067          	ret
/home/hqfang/workspace/software/riscv-gnu-toolchain/riscv-gcc/libgcc/soft-fp/gedf2.c:45 (discriminator 102)
8000c000:	00b85663          	bge	a6,a1,8000c00c <__gedf2+0xa4>
/home/hqfang/workspace/software/riscv-gnu-toolchain/riscv-gcc/libgcc/soft-fp/gedf2.c:45 (discriminator 130)
8000c004:	fe0502e3          	beqz	a0,8000bfe8 <__gedf2+0x80>
/home/hqfang/workspace/software/riscv-gnu-toolchain/riscv-gcc/libgcc/soft-fp/gedf2.c:49
8000c008:	00008067          	ret
/home/hqfang/workspace/software/riscv-gnu-toolchain/riscv-gcc/libgcc/soft-fp/gedf2.c:45 (discriminator 109)
8000c00c:	fd176ce3          	bltu	a4,a7,8000bfe4 <__gedf2+0x7c>
/home/hqfang/workspace/software/riscv-gnu-toolchain/riscv-gcc/libgcc/soft-fp/gedf2.c:45 (discriminator 116)
8000c010:	02e89263          	bne	a7,a4,8000c034 <__gedf2+0xcc>
/home/hqfang/workspace/software/riscv-gnu-toolchain/riscv-gcc/libgcc/soft-fp/gedf2.c:45 (discriminator 117)
8000c014:	fc6e68e3          	bltu	t3,t1,8000bfe4 <__gedf2+0x7c>
/home/hqfang/workspace/software/riscv-gnu-toolchain/riscv-gcc/libgcc/soft-fp/gedf2.c:45 (discriminator 128)
8000c018:	ffc366e3          	bltu	t1,t3,8000c004 <__gedf2+0x9c>
/home/hqfang/workspace/software/riscv-gnu-toolchain/riscv-gcc/libgcc/soft-fp/gedf2.c:45
8000c01c:	00000513          	li	a0,0
8000c020:	00008067          	ret
8000c024:	00100513          	li	a0,1
8000c028:	00008067          	ret
8000c02c:	fe0798e3          	bnez	a5,8000c01c <__gedf2+0xb4>
8000c030:	fb5ff06f          	j	8000bfe4 <__gedf2+0x7c>
8000c034:	fce8e8e3          	bltu	a7,a4,8000c004 <__gedf2+0x9c>
8000c038:	fe5ff06f          	j	8000c01c <__gedf2+0xb4>
8000c03c:	f7058ee3          	beq	a1,a6,8000bfb8 <__gedf2+0x50>
8000c040:	f8059ee3          	bnez	a1,8000bfdc <__gedf2+0x74>
8000c044:	00000793          	li	a5,0
8000c048:	f89ff06f          	j	8000bfd0 <__gedf2+0x68>

8000c04c <__ledf2>:
__ledf2():
/home/hqfang/workspace/software/riscv-gnu-toolchain/riscv-gcc/libgcc/soft-fp/ledf2.c:43
8000c04c:	00100737          	lui	a4,0x100
8000c050:	fff70713          	addi	a4,a4,-1 # fffff <__stack_size+0xff7ff>
8000c054:	0145d813          	srli	a6,a1,0x14
8000c058:	00b778b3          	and	a7,a4,a1
/home/hqfang/workspace/software/riscv-gnu-toolchain/riscv-gcc/libgcc/soft-fp/ledf2.c:36
8000c05c:	00050793          	mv	a5,a0
8000c060:	00050313          	mv	t1,a0
/home/hqfang/workspace/software/riscv-gnu-toolchain/riscv-gcc/libgcc/soft-fp/ledf2.c:43
8000c064:	7ff87813          	andi	a6,a6,2047
8000c068:	01f5d513          	srli	a0,a1,0x1f
/home/hqfang/workspace/software/riscv-gnu-toolchain/riscv-gcc/libgcc/soft-fp/ledf2.c:45
8000c06c:	7ff00e93          	li	t4,2047
/home/hqfang/workspace/software/riscv-gnu-toolchain/riscv-gcc/libgcc/soft-fp/ledf2.c:44
8000c070:	0146d593          	srli	a1,a3,0x14
8000c074:	00d77733          	and	a4,a4,a3
8000c078:	00060e13          	mv	t3,a2
8000c07c:	7ff5f593          	andi	a1,a1,2047
8000c080:	01f6d693          	srli	a3,a3,0x1f
/home/hqfang/workspace/software/riscv-gnu-toolchain/riscv-gcc/libgcc/soft-fp/ledf2.c:45
8000c084:	01d81a63          	bne	a6,t4,8000c098 <__ledf2+0x4c>
/home/hqfang/workspace/software/riscv-gnu-toolchain/riscv-gcc/libgcc/soft-fp/ledf2.c:45 (discriminator 20)
8000c088:	00f8eeb3          	or	t4,a7,a5
8000c08c:	080e8a63          	beqz	t4,8000c120 <__ledf2+0xd4>
/home/hqfang/workspace/software/riscv-gnu-toolchain/riscv-gcc/libgcc/soft-fp/ledf2.c:45
8000c090:	00200513          	li	a0,2
8000c094:	00008067          	ret
/home/hqfang/workspace/software/riscv-gnu-toolchain/riscv-gcc/libgcc/soft-fp/ledf2.c:45 (discriminator 23)
8000c098:	01d59663          	bne	a1,t4,8000c0a4 <__ledf2+0x58>
/home/hqfang/workspace/software/riscv-gnu-toolchain/riscv-gcc/libgcc/soft-fp/ledf2.c:45 (discriminator 24)
8000c09c:	00c76eb3          	or	t4,a4,a2
8000c0a0:	fe0e98e3          	bnez	t4,8000c090 <__ledf2+0x44>
/home/hqfang/workspace/software/riscv-gnu-toolchain/riscv-gcc/libgcc/soft-fp/ledf2.c:45 (discriminator 62)
8000c0a4:	08081063          	bnez	a6,8000c124 <__ledf2+0xd8>
/home/hqfang/workspace/software/riscv-gnu-toolchain/riscv-gcc/libgcc/soft-fp/ledf2.c:45 (discriminator 63)
8000c0a8:	00f8e7b3          	or	a5,a7,a5
8000c0ac:	0017b793          	seqz	a5,a5
8000c0b0:	00059663          	bnez	a1,8000c0bc <__ledf2+0x70>
/home/hqfang/workspace/software/riscv-gnu-toolchain/riscv-gcc/libgcc/soft-fp/ledf2.c:45 (discriminator 69)
8000c0b4:	00c76633          	or	a2,a4,a2
8000c0b8:	04060c63          	beqz	a2,8000c110 <__ledf2+0xc4>
/home/hqfang/workspace/software/riscv-gnu-toolchain/riscv-gcc/libgcc/soft-fp/ledf2.c:45
8000c0bc:	00079c63          	bnez	a5,8000c0d4 <__ledf2+0x88>
8000c0c0:	00d51463          	bne	a0,a3,8000c0c8 <__ledf2+0x7c>
/home/hqfang/workspace/software/riscv-gnu-toolchain/riscv-gcc/libgcc/soft-fp/ledf2.c:45 (discriminator 95)
8000c0c4:	0305d063          	bge	a1,a6,8000c0e4 <__ledf2+0x98>
/home/hqfang/workspace/software/riscv-gnu-toolchain/riscv-gcc/libgcc/soft-fp/ledf2.c:45 (discriminator 119)
8000c0c8:	04050063          	beqz	a0,8000c108 <__ledf2+0xbc>
/home/hqfang/workspace/software/riscv-gnu-toolchain/riscv-gcc/libgcc/soft-fp/ledf2.c:45
8000c0cc:	fff00513          	li	a0,-1
8000c0d0:	00008067          	ret
/home/hqfang/workspace/software/riscv-gnu-toolchain/riscv-gcc/libgcc/soft-fp/ledf2.c:45 (discriminator 80)
8000c0d4:	fff00513          	li	a0,-1
8000c0d8:	00068a63          	beqz	a3,8000c0ec <__ledf2+0xa0>
/home/hqfang/workspace/software/riscv-gnu-toolchain/riscv-gcc/libgcc/soft-fp/ledf2.c:45
8000c0dc:	00068513          	mv	a0,a3
8000c0e0:	00008067          	ret
/home/hqfang/workspace/software/riscv-gnu-toolchain/riscv-gcc/libgcc/soft-fp/ledf2.c:45 (discriminator 102)
8000c0e4:	00b85663          	bge	a6,a1,8000c0f0 <__ledf2+0xa4>
/home/hqfang/workspace/software/riscv-gnu-toolchain/riscv-gcc/libgcc/soft-fp/ledf2.c:45 (discriminator 130)
8000c0e8:	fe0502e3          	beqz	a0,8000c0cc <__ledf2+0x80>
/home/hqfang/workspace/software/riscv-gnu-toolchain/riscv-gcc/libgcc/soft-fp/ledf2.c:49
8000c0ec:	00008067          	ret
/home/hqfang/workspace/software/riscv-gnu-toolchain/riscv-gcc/libgcc/soft-fp/ledf2.c:45 (discriminator 109)
8000c0f0:	fd176ce3          	bltu	a4,a7,8000c0c8 <__ledf2+0x7c>
/home/hqfang/workspace/software/riscv-gnu-toolchain/riscv-gcc/libgcc/soft-fp/ledf2.c:45 (discriminator 116)
8000c0f4:	02e89263          	bne	a7,a4,8000c118 <__ledf2+0xcc>
/home/hqfang/workspace/software/riscv-gnu-toolchain/riscv-gcc/libgcc/soft-fp/ledf2.c:45 (discriminator 117)
8000c0f8:	fc6e68e3          	bltu	t3,t1,8000c0c8 <__ledf2+0x7c>
/home/hqfang/workspace/software/riscv-gnu-toolchain/riscv-gcc/libgcc/soft-fp/ledf2.c:45 (discriminator 128)
8000c0fc:	ffc366e3          	bltu	t1,t3,8000c0e8 <__ledf2+0x9c>
/home/hqfang/workspace/software/riscv-gnu-toolchain/riscv-gcc/libgcc/soft-fp/ledf2.c:45
8000c100:	00000513          	li	a0,0
8000c104:	00008067          	ret
8000c108:	00100513          	li	a0,1
8000c10c:	00008067          	ret
8000c110:	fe0798e3          	bnez	a5,8000c100 <__ledf2+0xb4>
8000c114:	fb5ff06f          	j	8000c0c8 <__ledf2+0x7c>
8000c118:	fce8e8e3          	bltu	a7,a4,8000c0e8 <__ledf2+0x9c>
8000c11c:	fe5ff06f          	j	8000c100 <__ledf2+0xb4>
8000c120:	f7058ee3          	beq	a1,a6,8000c09c <__ledf2+0x50>
8000c124:	f8059ee3          	bnez	a1,8000c0c0 <__ledf2+0x74>
8000c128:	00000793          	li	a5,0
8000c12c:	f89ff06f          	j	8000c0b4 <__ledf2+0x68>

8000c130 <__muldf3>:
__muldf3():
/home/hqfang/workspace/software/riscv-gnu-toolchain/riscv-gcc/libgcc/soft-fp/muldf3.c:36
8000c130:	fd010113          	addi	sp,sp,-48
8000c134:	01312e23          	sw	s3,28(sp)
/home/hqfang/workspace/software/riscv-gnu-toolchain/riscv-gcc/libgcc/soft-fp/muldf3.c:44
8000c138:	0145d993          	srli	s3,a1,0x14
/home/hqfang/workspace/software/riscv-gnu-toolchain/riscv-gcc/libgcc/soft-fp/muldf3.c:36
8000c13c:	02812423          	sw	s0,40(sp)
8000c140:	02912223          	sw	s1,36(sp)
8000c144:	01412c23          	sw	s4,24(sp)
8000c148:	01512a23          	sw	s5,20(sp)
8000c14c:	01712623          	sw	s7,12(sp)
/home/hqfang/workspace/software/riscv-gnu-toolchain/riscv-gcc/libgcc/soft-fp/muldf3.c:44
8000c150:	00c59493          	slli	s1,a1,0xc
/home/hqfang/workspace/software/riscv-gnu-toolchain/riscv-gcc/libgcc/soft-fp/muldf3.c:36
8000c154:	02112623          	sw	ra,44(sp)
8000c158:	03212023          	sw	s2,32(sp)
8000c15c:	01612823          	sw	s6,16(sp)
/home/hqfang/workspace/software/riscv-gnu-toolchain/riscv-gcc/libgcc/soft-fp/muldf3.c:44
8000c160:	7ff9f993          	andi	s3,s3,2047
/home/hqfang/workspace/software/riscv-gnu-toolchain/riscv-gcc/libgcc/soft-fp/muldf3.c:36
8000c164:	00050413          	mv	s0,a0
8000c168:	00060b93          	mv	s7,a2
8000c16c:	00068a93          	mv	s5,a3
/home/hqfang/workspace/software/riscv-gnu-toolchain/riscv-gcc/libgcc/soft-fp/muldf3.c:44
8000c170:	00c4d493          	srli	s1,s1,0xc
8000c174:	01f5da13          	srli	s4,a1,0x1f
8000c178:	0a098463          	beqz	s3,8000c220 <__muldf3+0xf0>
8000c17c:	7ff00793          	li	a5,2047
8000c180:	10f98263          	beq	s3,a5,8000c284 <__muldf3+0x154>
/home/hqfang/workspace/software/riscv-gnu-toolchain/riscv-gcc/libgcc/soft-fp/muldf3.c:44 (discriminator 1)
8000c184:	01d55793          	srli	a5,a0,0x1d
8000c188:	00349493          	slli	s1,s1,0x3
8000c18c:	0097e4b3          	or	s1,a5,s1
8000c190:	008007b7          	lui	a5,0x800
8000c194:	00f4e4b3          	or	s1,s1,a5
8000c198:	00351913          	slli	s2,a0,0x3
8000c19c:	c0198993          	addi	s3,s3,-1023
/home/hqfang/workspace/software/riscv-gnu-toolchain/riscv-gcc/libgcc/soft-fp/muldf3.c:44 (discriminator 41)
8000c1a0:	00000b13          	li	s6,0
/home/hqfang/workspace/software/riscv-gnu-toolchain/riscv-gcc/libgcc/soft-fp/muldf3.c:45 (discriminator 8)
8000c1a4:	014ad513          	srli	a0,s5,0x14
8000c1a8:	00ca9413          	slli	s0,s5,0xc
8000c1ac:	7ff57513          	andi	a0,a0,2047
8000c1b0:	00c45413          	srli	s0,s0,0xc
8000c1b4:	01fada93          	srli	s5,s5,0x1f
8000c1b8:	10050263          	beqz	a0,8000c2bc <__muldf3+0x18c>
/home/hqfang/workspace/software/riscv-gnu-toolchain/riscv-gcc/libgcc/soft-fp/muldf3.c:45
8000c1bc:	7ff00793          	li	a5,2047
8000c1c0:	16f50263          	beq	a0,a5,8000c324 <__muldf3+0x1f4>
/home/hqfang/workspace/software/riscv-gnu-toolchain/riscv-gcc/libgcc/soft-fp/muldf3.c:45 (discriminator 1)
8000c1c4:	01dbd793          	srli	a5,s7,0x1d
8000c1c8:	00341413          	slli	s0,s0,0x3
8000c1cc:	0087e433          	or	s0,a5,s0
8000c1d0:	008007b7          	lui	a5,0x800
8000c1d4:	00f46433          	or	s0,s0,a5
8000c1d8:	c0150513          	addi	a0,a0,-1023 # 7fc01 <__stack_size+0x7f401>
8000c1dc:	003b9793          	slli	a5,s7,0x3
/home/hqfang/workspace/software/riscv-gnu-toolchain/riscv-gcc/libgcc/soft-fp/muldf3.c:45 (discriminator 41)
8000c1e0:	00000713          	li	a4,0
/home/hqfang/workspace/software/riscv-gnu-toolchain/riscv-gcc/libgcc/soft-fp/muldf3.c:46 (discriminator 8)
8000c1e4:	002b1693          	slli	a3,s6,0x2
8000c1e8:	00e6e6b3          	or	a3,a3,a4
8000c1ec:	00a98533          	add	a0,s3,a0
8000c1f0:	fff68693          	addi	a3,a3,-1 # 7fefffff <__stack_size+0x7feff7ff>
8000c1f4:	00e00813          	li	a6,14
8000c1f8:	015a4633          	xor	a2,s4,s5
8000c1fc:	00150593          	addi	a1,a0,1
8000c200:	14d86e63          	bltu	a6,a3,8000c35c <__muldf3+0x22c>
8000c204:	00002517          	auipc	a0,0x2
8000c208:	f4c50513          	addi	a0,a0,-180 # 8000e150 <_ctype_+0x140>
8000c20c:	00269693          	slli	a3,a3,0x2
8000c210:	00a686b3          	add	a3,a3,a0
8000c214:	0006a683          	lw	a3,0(a3)
8000c218:	00a686b3          	add	a3,a3,a0
8000c21c:	00068067          	jr	a3
/home/hqfang/workspace/software/riscv-gnu-toolchain/riscv-gcc/libgcc/soft-fp/muldf3.c:44 (discriminator 2)
8000c220:	00a4e933          	or	s2,s1,a0
8000c224:	06090c63          	beqz	s2,8000c29c <__muldf3+0x16c>
/home/hqfang/workspace/software/riscv-gnu-toolchain/riscv-gcc/libgcc/soft-fp/muldf3.c:44 (discriminator 13)
8000c228:	04048063          	beqz	s1,8000c268 <__muldf3+0x138>
/home/hqfang/workspace/software/riscv-gnu-toolchain/riscv-gcc/libgcc/soft-fp/muldf3.c:44 (discriminator 17)
8000c22c:	00048513          	mv	a0,s1
8000c230:	974fa0ef          	jal	ra,800063a4 <__clzsi2>
/home/hqfang/workspace/software/riscv-gnu-toolchain/riscv-gcc/libgcc/soft-fp/muldf3.c:44 (discriminator 31)
8000c234:	ff550713          	addi	a4,a0,-11
8000c238:	01c00793          	li	a5,28
8000c23c:	02e7cc63          	blt	a5,a4,8000c274 <__muldf3+0x144>
/home/hqfang/workspace/software/riscv-gnu-toolchain/riscv-gcc/libgcc/soft-fp/muldf3.c:44 (discriminator 32)
8000c240:	01d00793          	li	a5,29
8000c244:	ff850913          	addi	s2,a0,-8
8000c248:	40e787b3          	sub	a5,a5,a4
8000c24c:	012494b3          	sll	s1,s1,s2
8000c250:	00f457b3          	srl	a5,s0,a5
8000c254:	0097e4b3          	or	s1,a5,s1
8000c258:	01241933          	sll	s2,s0,s2
/home/hqfang/workspace/software/riscv-gnu-toolchain/riscv-gcc/libgcc/soft-fp/muldf3.c:44 (discriminator 41)
8000c25c:	c0d00993          	li	s3,-1011
8000c260:	40a989b3          	sub	s3,s3,a0
8000c264:	f3dff06f          	j	8000c1a0 <__muldf3+0x70>
/home/hqfang/workspace/software/riscv-gnu-toolchain/riscv-gcc/libgcc/soft-fp/muldf3.c:44 (discriminator 24)
8000c268:	93cfa0ef          	jal	ra,800063a4 <__clzsi2>
8000c26c:	02050513          	addi	a0,a0,32
8000c270:	fc5ff06f          	j	8000c234 <__muldf3+0x104>
/home/hqfang/workspace/software/riscv-gnu-toolchain/riscv-gcc/libgcc/soft-fp/muldf3.c:44 (discriminator 33)
8000c274:	fd850493          	addi	s1,a0,-40
8000c278:	009414b3          	sll	s1,s0,s1
8000c27c:	00000913          	li	s2,0
8000c280:	fddff06f          	j	8000c25c <__muldf3+0x12c>
/home/hqfang/workspace/software/riscv-gnu-toolchain/riscv-gcc/libgcc/soft-fp/muldf3.c:44 (discriminator 3)
8000c284:	00a4e933          	or	s2,s1,a0
8000c288:	02090263          	beqz	s2,8000c2ac <__muldf3+0x17c>
/home/hqfang/workspace/software/riscv-gnu-toolchain/riscv-gcc/libgcc/soft-fp/muldf3.c:44
8000c28c:	00050913          	mv	s2,a0
8000c290:	7ff00993          	li	s3,2047
8000c294:	00300b13          	li	s6,3
8000c298:	f0dff06f          	j	8000c1a4 <__muldf3+0x74>
8000c29c:	00000493          	li	s1,0
8000c2a0:	00000993          	li	s3,0
8000c2a4:	00100b13          	li	s6,1
8000c2a8:	efdff06f          	j	8000c1a4 <__muldf3+0x74>
8000c2ac:	00000493          	li	s1,0
8000c2b0:	7ff00993          	li	s3,2047
8000c2b4:	00200b13          	li	s6,2
8000c2b8:	eedff06f          	j	8000c1a4 <__muldf3+0x74>
/home/hqfang/workspace/software/riscv-gnu-toolchain/riscv-gcc/libgcc/soft-fp/muldf3.c:45 (discriminator 2)
8000c2bc:	017467b3          	or	a5,s0,s7
8000c2c0:	06078e63          	beqz	a5,8000c33c <__muldf3+0x20c>
/home/hqfang/workspace/software/riscv-gnu-toolchain/riscv-gcc/libgcc/soft-fp/muldf3.c:45 (discriminator 13)
8000c2c4:	04040063          	beqz	s0,8000c304 <__muldf3+0x1d4>
/home/hqfang/workspace/software/riscv-gnu-toolchain/riscv-gcc/libgcc/soft-fp/muldf3.c:45 (discriminator 17)
8000c2c8:	00040513          	mv	a0,s0
8000c2cc:	8d8fa0ef          	jal	ra,800063a4 <__clzsi2>
/home/hqfang/workspace/software/riscv-gnu-toolchain/riscv-gcc/libgcc/soft-fp/muldf3.c:45 (discriminator 31)
8000c2d0:	ff550693          	addi	a3,a0,-11
8000c2d4:	01c00793          	li	a5,28
8000c2d8:	02d7ce63          	blt	a5,a3,8000c314 <__muldf3+0x1e4>
/home/hqfang/workspace/software/riscv-gnu-toolchain/riscv-gcc/libgcc/soft-fp/muldf3.c:45 (discriminator 32)
8000c2dc:	01d00713          	li	a4,29
8000c2e0:	ff850793          	addi	a5,a0,-8
8000c2e4:	40d70733          	sub	a4,a4,a3
8000c2e8:	00f41433          	sll	s0,s0,a5
8000c2ec:	00ebd733          	srl	a4,s7,a4
8000c2f0:	00876433          	or	s0,a4,s0
8000c2f4:	00fb97b3          	sll	a5,s7,a5
/home/hqfang/workspace/software/riscv-gnu-toolchain/riscv-gcc/libgcc/soft-fp/muldf3.c:45 (discriminator 41)
8000c2f8:	c0d00713          	li	a4,-1011
8000c2fc:	40a70533          	sub	a0,a4,a0
8000c300:	ee1ff06f          	j	8000c1e0 <__muldf3+0xb0>
/home/hqfang/workspace/software/riscv-gnu-toolchain/riscv-gcc/libgcc/soft-fp/muldf3.c:45 (discriminator 24)
8000c304:	000b8513          	mv	a0,s7
8000c308:	89cfa0ef          	jal	ra,800063a4 <__clzsi2>
8000c30c:	02050513          	addi	a0,a0,32
8000c310:	fc1ff06f          	j	8000c2d0 <__muldf3+0x1a0>
/home/hqfang/workspace/software/riscv-gnu-toolchain/riscv-gcc/libgcc/soft-fp/muldf3.c:45 (discriminator 33)
8000c314:	fd850413          	addi	s0,a0,-40
8000c318:	008b9433          	sll	s0,s7,s0
8000c31c:	00000793          	li	a5,0
8000c320:	fd9ff06f          	j	8000c2f8 <__muldf3+0x1c8>
/home/hqfang/workspace/software/riscv-gnu-toolchain/riscv-gcc/libgcc/soft-fp/muldf3.c:45 (discriminator 3)
8000c324:	017467b3          	or	a5,s0,s7
8000c328:	02078263          	beqz	a5,8000c34c <__muldf3+0x21c>
/home/hqfang/workspace/software/riscv-gnu-toolchain/riscv-gcc/libgcc/soft-fp/muldf3.c:45
8000c32c:	000b8793          	mv	a5,s7
8000c330:	7ff00513          	li	a0,2047
8000c334:	00300713          	li	a4,3
8000c338:	eadff06f          	j	8000c1e4 <__muldf3+0xb4>
8000c33c:	00000413          	li	s0,0
8000c340:	00000513          	li	a0,0
8000c344:	00100713          	li	a4,1
8000c348:	e9dff06f          	j	8000c1e4 <__muldf3+0xb4>
8000c34c:	00000413          	li	s0,0
8000c350:	7ff00513          	li	a0,2047
8000c354:	00200713          	li	a4,2
8000c358:	e8dff06f          	j	8000c1e4 <__muldf3+0xb4>
/home/hqfang/workspace/software/riscv-gnu-toolchain/riscv-gcc/libgcc/soft-fp/muldf3.c:46 (discriminator 2)
8000c35c:	00010f37          	lui	t5,0x10
8000c360:	ffff0e93          	addi	t4,t5,-1 # ffff <__stack_size+0xf7ff>
8000c364:	01095713          	srli	a4,s2,0x10
8000c368:	0107d893          	srli	a7,a5,0x10
8000c36c:	01d97933          	and	s2,s2,t4
8000c370:	01d7f7b3          	and	a5,a5,t4
8000c374:	03288833          	mul	a6,a7,s2
8000c378:	02f906b3          	mul	a3,s2,a5
8000c37c:	02f70fb3          	mul	t6,a4,a5
8000c380:	01f80333          	add	t1,a6,t6
8000c384:	0106d813          	srli	a6,a3,0x10
8000c388:	00680833          	add	a6,a6,t1
8000c38c:	03170e33          	mul	t3,a4,a7
8000c390:	01f87463          	bgeu	a6,t6,8000c398 <__muldf3+0x268>
/home/hqfang/workspace/software/riscv-gnu-toolchain/riscv-gcc/libgcc/soft-fp/muldf3.c:46 (discriminator 9)
8000c394:	01ee0e33          	add	t3,t3,t5
/home/hqfang/workspace/software/riscv-gnu-toolchain/riscv-gcc/libgcc/soft-fp/muldf3.c:46 (discriminator 11)
8000c398:	01085393          	srli	t2,a6,0x10
8000c39c:	01d87833          	and	a6,a6,t4
8000c3a0:	01d6f6b3          	and	a3,a3,t4
8000c3a4:	01045f13          	srli	t5,s0,0x10
8000c3a8:	01d472b3          	and	t0,s0,t4
8000c3ac:	01081813          	slli	a6,a6,0x10
8000c3b0:	00d80833          	add	a6,a6,a3
8000c3b4:	02570eb3          	mul	t4,a4,t0
8000c3b8:	025906b3          	mul	a3,s2,t0
8000c3bc:	032f0933          	mul	s2,t5,s2
8000c3c0:	01d90333          	add	t1,s2,t4
8000c3c4:	0106d913          	srli	s2,a3,0x10
8000c3c8:	00690933          	add	s2,s2,t1
8000c3cc:	03e70733          	mul	a4,a4,t5
8000c3d0:	01d97663          	bgeu	s2,t4,8000c3dc <__muldf3+0x2ac>
/home/hqfang/workspace/software/riscv-gnu-toolchain/riscv-gcc/libgcc/soft-fp/muldf3.c:46 (discriminator 12)
8000c3d4:	00010337          	lui	t1,0x10
8000c3d8:	00670733          	add	a4,a4,t1
/home/hqfang/workspace/software/riscv-gnu-toolchain/riscv-gcc/libgcc/soft-fp/muldf3.c:46 (discriminator 14)
8000c3dc:	01095e93          	srli	t4,s2,0x10
8000c3e0:	000109b7          	lui	s3,0x10
8000c3e4:	00ee8eb3          	add	t4,t4,a4
8000c3e8:	fff98713          	addi	a4,s3,-1 # ffff <__stack_size+0xf7ff>
8000c3ec:	00e97933          	and	s2,s2,a4
8000c3f0:	00e6f6b3          	and	a3,a3,a4
8000c3f4:	0104d413          	srli	s0,s1,0x10
8000c3f8:	01091913          	slli	s2,s2,0x10
8000c3fc:	00e4f4b3          	and	s1,s1,a4
8000c400:	02978733          	mul	a4,a5,s1
8000c404:	00d90933          	add	s2,s2,a3
8000c408:	012383b3          	add	t2,t2,s2
8000c40c:	02f40333          	mul	t1,s0,a5
8000c410:	029886b3          	mul	a3,a7,s1
8000c414:	028887b3          	mul	a5,a7,s0
8000c418:	006688b3          	add	a7,a3,t1
8000c41c:	01075693          	srli	a3,a4,0x10
8000c420:	011686b3          	add	a3,a3,a7
8000c424:	0066f463          	bgeu	a3,t1,8000c42c <__muldf3+0x2fc>
/home/hqfang/workspace/software/riscv-gnu-toolchain/riscv-gcc/libgcc/soft-fp/muldf3.c:46 (discriminator 15)
8000c428:	013787b3          	add	a5,a5,s3
/home/hqfang/workspace/software/riscv-gnu-toolchain/riscv-gcc/libgcc/soft-fp/muldf3.c:46 (discriminator 17)
8000c42c:	0106d893          	srli	a7,a3,0x10
8000c430:	000109b7          	lui	s3,0x10
8000c434:	00f88fb3          	add	t6,a7,a5
8000c438:	fff98793          	addi	a5,s3,-1 # ffff <__stack_size+0xf7ff>
8000c43c:	029288b3          	mul	a7,t0,s1
8000c440:	00f6f6b3          	and	a3,a3,a5
8000c444:	00f77733          	and	a4,a4,a5
8000c448:	01069693          	slli	a3,a3,0x10
8000c44c:	00e686b3          	add	a3,a3,a4
8000c450:	025407b3          	mul	a5,s0,t0
8000c454:	029f04b3          	mul	s1,t5,s1
8000c458:	028f0333          	mul	t1,t5,s0
8000c45c:	00f484b3          	add	s1,s1,a5
8000c460:	0108d413          	srli	s0,a7,0x10
8000c464:	009404b3          	add	s1,s0,s1
8000c468:	00f4f463          	bgeu	s1,a5,8000c470 <__muldf3+0x340>
/home/hqfang/workspace/software/riscv-gnu-toolchain/riscv-gcc/libgcc/soft-fp/muldf3.c:46 (discriminator 18)
8000c46c:	01330333          	add	t1,t1,s3
/home/hqfang/workspace/software/riscv-gnu-toolchain/riscv-gcc/libgcc/soft-fp/muldf3.c:46 (discriminator 20)
8000c470:	000107b7          	lui	a5,0x10
8000c474:	fff78793          	addi	a5,a5,-1 # ffff <__stack_size+0xf7ff>
8000c478:	00f4f733          	and	a4,s1,a5
8000c47c:	00f8f8b3          	and	a7,a7,a5
8000c480:	01071713          	slli	a4,a4,0x10
8000c484:	007e0e33          	add	t3,t3,t2
8000c488:	01170733          	add	a4,a4,a7
8000c48c:	012e3933          	sltu	s2,t3,s2
8000c490:	01d70733          	add	a4,a4,t4
8000c494:	01270433          	add	s0,a4,s2
8000c498:	00de0e33          	add	t3,t3,a3
8000c49c:	00de36b3          	sltu	a3,t3,a3
8000c4a0:	01f408b3          	add	a7,s0,t6
8000c4a4:	00d88f33          	add	t5,a7,a3
8000c4a8:	01d73733          	sltu	a4,a4,t4
8000c4ac:	01243433          	sltu	s0,s0,s2
8000c4b0:	00876433          	or	s0,a4,s0
8000c4b4:	0104d493          	srli	s1,s1,0x10
8000c4b8:	01f8b8b3          	sltu	a7,a7,t6
8000c4bc:	00df36b3          	sltu	a3,t5,a3
8000c4c0:	00940433          	add	s0,s0,s1
8000c4c4:	00d8e6b3          	or	a3,a7,a3
8000c4c8:	00d40433          	add	s0,s0,a3
8000c4cc:	00640433          	add	s0,s0,t1
8000c4d0:	017f5793          	srli	a5,t5,0x17
8000c4d4:	00941413          	slli	s0,s0,0x9
8000c4d8:	00f46433          	or	s0,s0,a5
8000c4dc:	009e1793          	slli	a5,t3,0x9
8000c4e0:	0107e7b3          	or	a5,a5,a6
8000c4e4:	00f037b3          	snez	a5,a5
8000c4e8:	017e5e13          	srli	t3,t3,0x17
8000c4ec:	009f1713          	slli	a4,t5,0x9
8000c4f0:	01c7e7b3          	or	a5,a5,t3
8000c4f4:	00e7e7b3          	or	a5,a5,a4
8000c4f8:	01000737          	lui	a4,0x1000
8000c4fc:	00e47733          	and	a4,s0,a4
8000c500:	10070663          	beqz	a4,8000c60c <__muldf3+0x4dc>
/home/hqfang/workspace/software/riscv-gnu-toolchain/riscv-gcc/libgcc/soft-fp/muldf3.c:46 (discriminator 38)
8000c504:	0017d713          	srli	a4,a5,0x1
8000c508:	0017f793          	andi	a5,a5,1
8000c50c:	00f767b3          	or	a5,a4,a5
8000c510:	01f41713          	slli	a4,s0,0x1f
8000c514:	00e7e7b3          	or	a5,a5,a4
8000c518:	00145413          	srli	s0,s0,0x1
/home/hqfang/workspace/software/riscv-gnu-toolchain/riscv-gcc/libgcc/soft-fp/muldf3.c:47 (discriminator 2)
8000c51c:	3ff58693          	addi	a3,a1,1023
8000c520:	0ed05a63          	blez	a3,8000c614 <__muldf3+0x4e4>
/home/hqfang/workspace/software/riscv-gnu-toolchain/riscv-gcc/libgcc/soft-fp/muldf3.c:47 (discriminator 6)
8000c524:	0077f713          	andi	a4,a5,7
8000c528:	02070063          	beqz	a4,8000c548 <__muldf3+0x418>
/home/hqfang/workspace/software/riscv-gnu-toolchain/riscv-gcc/libgcc/soft-fp/muldf3.c:47 (discriminator 8)
8000c52c:	00f7f713          	andi	a4,a5,15
8000c530:	00400513          	li	a0,4
8000c534:	00a70a63          	beq	a4,a0,8000c548 <__muldf3+0x418>
/home/hqfang/workspace/software/riscv-gnu-toolchain/riscv-gcc/libgcc/soft-fp/muldf3.c:47 (discriminator 10)
8000c538:	00478713          	addi	a4,a5,4
8000c53c:	00f737b3          	sltu	a5,a4,a5
8000c540:	00f40433          	add	s0,s0,a5
8000c544:	00070793          	mv	a5,a4
/home/hqfang/workspace/software/riscv-gnu-toolchain/riscv-gcc/libgcc/soft-fp/muldf3.c:47 (discriminator 9)
8000c548:	01000737          	lui	a4,0x1000
8000c54c:	00e47733          	and	a4,s0,a4
8000c550:	00070a63          	beqz	a4,8000c564 <__muldf3+0x434>
/home/hqfang/workspace/software/riscv-gnu-toolchain/riscv-gcc/libgcc/soft-fp/muldf3.c:47 (discriminator 24)
8000c554:	ff000737          	lui	a4,0xff000
8000c558:	fff70713          	addi	a4,a4,-1 # feffffff <_sp+0x6efeffff>
8000c55c:	00e47433          	and	s0,s0,a4
8000c560:	40058693          	addi	a3,a1,1024
/home/hqfang/workspace/software/riscv-gnu-toolchain/riscv-gcc/libgcc/soft-fp/muldf3.c:47 (discriminator 26)
8000c564:	7fe00713          	li	a4,2046
8000c568:	16d74a63          	blt	a4,a3,8000c6dc <__muldf3+0x5ac>
/home/hqfang/workspace/software/riscv-gnu-toolchain/riscv-gcc/libgcc/soft-fp/muldf3.c:47
8000c56c:	0037d713          	srli	a4,a5,0x3
8000c570:	01d41793          	slli	a5,s0,0x1d
8000c574:	00e7e7b3          	or	a5,a5,a4
8000c578:	00345413          	srli	s0,s0,0x3
/home/hqfang/workspace/software/riscv-gnu-toolchain/riscv-gcc/libgcc/soft-fp/muldf3.c:47 (discriminator 119)
8000c57c:	01469713          	slli	a4,a3,0x14
8000c580:	00c41413          	slli	s0,s0,0xc
8000c584:	7ff006b7          	lui	a3,0x7ff00
8000c588:	00d77733          	and	a4,a4,a3
8000c58c:	00c45413          	srli	s0,s0,0xc
8000c590:	00876433          	or	s0,a4,s0
8000c594:	01f61613          	slli	a2,a2,0x1f
/home/hqfang/workspace/software/riscv-gnu-toolchain/riscv-gcc/libgcc/soft-fp/muldf3.c:51 (discriminator 119)
8000c598:	02c12083          	lw	ra,44(sp)
/home/hqfang/workspace/software/riscv-gnu-toolchain/riscv-gcc/libgcc/soft-fp/muldf3.c:47 (discriminator 119)
8000c59c:	00c46733          	or	a4,s0,a2
/home/hqfang/workspace/software/riscv-gnu-toolchain/riscv-gcc/libgcc/soft-fp/muldf3.c:51 (discriminator 119)
8000c5a0:	02812403          	lw	s0,40(sp)
8000c5a4:	02412483          	lw	s1,36(sp)
8000c5a8:	02012903          	lw	s2,32(sp)
8000c5ac:	01c12983          	lw	s3,28(sp)
8000c5b0:	01812a03          	lw	s4,24(sp)
8000c5b4:	01412a83          	lw	s5,20(sp)
8000c5b8:	01012b03          	lw	s6,16(sp)
8000c5bc:	00c12b83          	lw	s7,12(sp)
8000c5c0:	00078513          	mv	a0,a5
8000c5c4:	00070593          	mv	a1,a4
8000c5c8:	03010113          	addi	sp,sp,48
8000c5cc:	00008067          	ret
/home/hqfang/workspace/software/riscv-gnu-toolchain/riscv-gcc/libgcc/soft-fp/muldf3.c:44 (discriminator 7)
8000c5d0:	000a0613          	mv	a2,s4
/home/hqfang/workspace/software/riscv-gnu-toolchain/riscv-gcc/libgcc/soft-fp/muldf3.c:46 (discriminator 7)
8000c5d4:	00048413          	mv	s0,s1
8000c5d8:	00090793          	mv	a5,s2
8000c5dc:	000b0713          	mv	a4,s6
/home/hqfang/workspace/software/riscv-gnu-toolchain/riscv-gcc/libgcc/soft-fp/muldf3.c:47 (discriminator 47)
8000c5e0:	00200693          	li	a3,2
8000c5e4:	0ed70c63          	beq	a4,a3,8000c6dc <__muldf3+0x5ac>
/home/hqfang/workspace/software/riscv-gnu-toolchain/riscv-gcc/libgcc/soft-fp/muldf3.c:47
8000c5e8:	00300693          	li	a3,3
8000c5ec:	0cd70e63          	beq	a4,a3,8000c6c8 <__muldf3+0x598>
8000c5f0:	00100693          	li	a3,1
8000c5f4:	f2d714e3          	bne	a4,a3,8000c51c <__muldf3+0x3ec>
8000c5f8:	00000413          	li	s0,0
8000c5fc:	00000793          	li	a5,0
8000c600:	08c0006f          	j	8000c68c <__muldf3+0x55c>
/home/hqfang/workspace/software/riscv-gnu-toolchain/riscv-gcc/libgcc/soft-fp/muldf3.c:45 (discriminator 4)
8000c604:	000a8613          	mv	a2,s5
/home/hqfang/workspace/software/riscv-gnu-toolchain/riscv-gcc/libgcc/soft-fp/muldf3.c:46 (discriminator 4)
8000c608:	fd9ff06f          	j	8000c5e0 <__muldf3+0x4b0>
/home/hqfang/workspace/software/riscv-gnu-toolchain/riscv-gcc/libgcc/soft-fp/muldf3.c:46
8000c60c:	00050593          	mv	a1,a0
8000c610:	f0dff06f          	j	8000c51c <__muldf3+0x3ec>
/home/hqfang/workspace/software/riscv-gnu-toolchain/riscv-gcc/libgcc/soft-fp/muldf3.c:47 (discriminator 59)
8000c614:	00100513          	li	a0,1
8000c618:	40d50533          	sub	a0,a0,a3
8000c61c:	03800713          	li	a4,56
8000c620:	fca74ce3          	blt	a4,a0,8000c5f8 <__muldf3+0x4c8>
/home/hqfang/workspace/software/riscv-gnu-toolchain/riscv-gcc/libgcc/soft-fp/muldf3.c:47 (discriminator 60)
8000c624:	01f00713          	li	a4,31
8000c628:	06a74663          	blt	a4,a0,8000c694 <__muldf3+0x564>
/home/hqfang/workspace/software/riscv-gnu-toolchain/riscv-gcc/libgcc/soft-fp/muldf3.c:47 (discriminator 62)
8000c62c:	41e58593          	addi	a1,a1,1054
8000c630:	00b41733          	sll	a4,s0,a1
8000c634:	00a7d6b3          	srl	a3,a5,a0
8000c638:	00b797b3          	sll	a5,a5,a1
8000c63c:	00d76733          	or	a4,a4,a3
8000c640:	00f037b3          	snez	a5,a5
8000c644:	00f767b3          	or	a5,a4,a5
8000c648:	00a45433          	srl	s0,s0,a0
/home/hqfang/workspace/software/riscv-gnu-toolchain/riscv-gcc/libgcc/soft-fp/muldf3.c:47 (discriminator 75)
8000c64c:	0077f713          	andi	a4,a5,7
8000c650:	02070063          	beqz	a4,8000c670 <__muldf3+0x540>
/home/hqfang/workspace/software/riscv-gnu-toolchain/riscv-gcc/libgcc/soft-fp/muldf3.c:47 (discriminator 76)
8000c654:	00f7f713          	andi	a4,a5,15
8000c658:	00400693          	li	a3,4
8000c65c:	00d70a63          	beq	a4,a3,8000c670 <__muldf3+0x540>
/home/hqfang/workspace/software/riscv-gnu-toolchain/riscv-gcc/libgcc/soft-fp/muldf3.c:47 (discriminator 78)
8000c660:	00478713          	addi	a4,a5,4
8000c664:	00f737b3          	sltu	a5,a4,a5
8000c668:	00f40433          	add	s0,s0,a5
8000c66c:	00070793          	mv	a5,a4
/home/hqfang/workspace/software/riscv-gnu-toolchain/riscv-gcc/libgcc/soft-fp/muldf3.c:47 (discriminator 77)
8000c670:	00800737          	lui	a4,0x800
8000c674:	00e47733          	and	a4,s0,a4
8000c678:	06071a63          	bnez	a4,8000c6ec <__muldf3+0x5bc>
/home/hqfang/workspace/software/riscv-gnu-toolchain/riscv-gcc/libgcc/soft-fp/muldf3.c:47 (discriminator 93)
8000c67c:	01d41713          	slli	a4,s0,0x1d
8000c680:	0037d793          	srli	a5,a5,0x3
8000c684:	00f767b3          	or	a5,a4,a5
8000c688:	00345413          	srli	s0,s0,0x3
/home/hqfang/workspace/software/riscv-gnu-toolchain/riscv-gcc/libgcc/soft-fp/muldf3.c:47
8000c68c:	00000693          	li	a3,0
8000c690:	eedff06f          	j	8000c57c <__muldf3+0x44c>
/home/hqfang/workspace/software/riscv-gnu-toolchain/riscv-gcc/libgcc/soft-fp/muldf3.c:47 (discriminator 63)
8000c694:	fe100713          	li	a4,-31
8000c698:	40d70733          	sub	a4,a4,a3
8000c69c:	02000813          	li	a6,32
8000c6a0:	00e45733          	srl	a4,s0,a4
8000c6a4:	00000693          	li	a3,0
8000c6a8:	01050663          	beq	a0,a6,8000c6b4 <__muldf3+0x584>
/home/hqfang/workspace/software/riscv-gnu-toolchain/riscv-gcc/libgcc/soft-fp/muldf3.c:47 (discriminator 71)
8000c6ac:	43e58593          	addi	a1,a1,1086
8000c6b0:	00b416b3          	sll	a3,s0,a1
/home/hqfang/workspace/software/riscv-gnu-toolchain/riscv-gcc/libgcc/soft-fp/muldf3.c:47 (discriminator 74)
8000c6b4:	00f6e7b3          	or	a5,a3,a5
8000c6b8:	00f037b3          	snez	a5,a5
8000c6bc:	00f767b3          	or	a5,a4,a5
8000c6c0:	00000413          	li	s0,0
8000c6c4:	f89ff06f          	j	8000c64c <__muldf3+0x51c>
/home/hqfang/workspace/software/riscv-gnu-toolchain/riscv-gcc/libgcc/soft-fp/muldf3.c:47
8000c6c8:	00080437          	lui	s0,0x80
8000c6cc:	00000793          	li	a5,0
8000c6d0:	7ff00693          	li	a3,2047
8000c6d4:	00000613          	li	a2,0
8000c6d8:	ea5ff06f          	j	8000c57c <__muldf3+0x44c>
8000c6dc:	00000413          	li	s0,0
8000c6e0:	00000793          	li	a5,0
8000c6e4:	7ff00693          	li	a3,2047
8000c6e8:	e95ff06f          	j	8000c57c <__muldf3+0x44c>
8000c6ec:	00000413          	li	s0,0
8000c6f0:	00000793          	li	a5,0
8000c6f4:	00100693          	li	a3,1
8000c6f8:	e85ff06f          	j	8000c57c <__muldf3+0x44c>

8000c6fc <__subdf3>:
__subdf3():
/home/hqfang/workspace/software/riscv-gnu-toolchain/riscv-gcc/libgcc/soft-fp/subdf3.c:44
8000c6fc:	00100837          	lui	a6,0x100
8000c700:	fff80813          	addi	a6,a6,-1 # fffff <__stack_size+0xff7ff>
/home/hqfang/workspace/software/riscv-gnu-toolchain/riscv-gcc/libgcc/soft-fp/subdf3.c:36
8000c704:	fe010113          	addi	sp,sp,-32
/home/hqfang/workspace/software/riscv-gnu-toolchain/riscv-gcc/libgcc/soft-fp/subdf3.c:44
8000c708:	00b877b3          	and	a5,a6,a1
8000c70c:	0145d713          	srli	a4,a1,0x14
/home/hqfang/workspace/software/riscv-gnu-toolchain/riscv-gcc/libgcc/soft-fp/subdf3.c:45
8000c710:	00d87833          	and	a6,a6,a3
8000c714:	0146d313          	srli	t1,a3,0x14
/home/hqfang/workspace/software/riscv-gnu-toolchain/riscv-gcc/libgcc/soft-fp/subdf3.c:36
8000c718:	00812c23          	sw	s0,24(sp)
/home/hqfang/workspace/software/riscv-gnu-toolchain/riscv-gcc/libgcc/soft-fp/subdf3.c:44
8000c71c:	00379793          	slli	a5,a5,0x3
8000c720:	7ff77413          	andi	s0,a4,2047
8000c724:	01d55713          	srli	a4,a0,0x1d
/home/hqfang/workspace/software/riscv-gnu-toolchain/riscv-gcc/libgcc/soft-fp/subdf3.c:36
8000c728:	00912a23          	sw	s1,20(sp)
/home/hqfang/workspace/software/riscv-gnu-toolchain/riscv-gcc/libgcc/soft-fp/subdf3.c:44
8000c72c:	00f767b3          	or	a5,a4,a5
8000c730:	01f5d493          	srli	s1,a1,0x1f
/home/hqfang/workspace/software/riscv-gnu-toolchain/riscv-gcc/libgcc/soft-fp/subdf3.c:45
8000c734:	01d65713          	srli	a4,a2,0x1d
/home/hqfang/workspace/software/riscv-gnu-toolchain/riscv-gcc/libgcc/soft-fp/subdf3.c:44
8000c738:	00351593          	slli	a1,a0,0x3
/home/hqfang/workspace/software/riscv-gnu-toolchain/riscv-gcc/libgcc/soft-fp/subdf3.c:45
8000c73c:	00381813          	slli	a6,a6,0x3
/home/hqfang/workspace/software/riscv-gnu-toolchain/riscv-gcc/libgcc/soft-fp/subdf3.c:36
8000c740:	00112e23          	sw	ra,28(sp)
8000c744:	01212823          	sw	s2,16(sp)
8000c748:	01312623          	sw	s3,12(sp)
/home/hqfang/workspace/software/riscv-gnu-toolchain/riscv-gcc/libgcc/soft-fp/subdf3.c:45
8000c74c:	7ff37313          	andi	t1,t1,2047
/home/hqfang/workspace/software/riscv-gnu-toolchain/riscv-gcc/libgcc/soft-fp/subdf3.c:46
8000c750:	7ff00513          	li	a0,2047
/home/hqfang/workspace/software/riscv-gnu-toolchain/riscv-gcc/libgcc/soft-fp/subdf3.c:45
8000c754:	01f6d693          	srli	a3,a3,0x1f
8000c758:	01076733          	or	a4,a4,a6
8000c75c:	00361613          	slli	a2,a2,0x3
/home/hqfang/workspace/software/riscv-gnu-toolchain/riscv-gcc/libgcc/soft-fp/subdf3.c:46
8000c760:	00a31663          	bne	t1,a0,8000c76c <__subdf3+0x70>
/home/hqfang/workspace/software/riscv-gnu-toolchain/riscv-gcc/libgcc/soft-fp/subdf3.c:46 (discriminator 2)
8000c764:	00c76533          	or	a0,a4,a2
8000c768:	00051463          	bnez	a0,8000c770 <__subdf3+0x74>
/home/hqfang/workspace/software/riscv-gnu-toolchain/riscv-gcc/libgcc/soft-fp/subdf3.c:46 (discriminator 3)
8000c76c:	0016c693          	xori	a3,a3,1
/home/hqfang/workspace/software/riscv-gnu-toolchain/riscv-gcc/libgcc/soft-fp/subdf3.c:46 (discriminator 11)
8000c770:	40640833          	sub	a6,s0,t1
8000c774:	2c969863          	bne	a3,s1,8000ca44 <__subdf3+0x348>
/home/hqfang/workspace/software/riscv-gnu-toolchain/riscv-gcc/libgcc/soft-fp/subdf3.c:46 (discriminator 12)
8000c778:	13005063          	blez	a6,8000c898 <__subdf3+0x19c>
/home/hqfang/workspace/software/riscv-gnu-toolchain/riscv-gcc/libgcc/soft-fp/subdf3.c:46 (discriminator 14)
8000c77c:	04031063          	bnez	t1,8000c7bc <__subdf3+0xc0>
/home/hqfang/workspace/software/riscv-gnu-toolchain/riscv-gcc/libgcc/soft-fp/subdf3.c:46 (discriminator 16)
8000c780:	00c766b3          	or	a3,a4,a2
8000c784:	70068c63          	beqz	a3,8000ce9c <__subdf3+0x7a0>
/home/hqfang/workspace/software/riscv-gnu-toolchain/riscv-gcc/libgcc/soft-fp/subdf3.c:46 (discriminator 19)
8000c788:	fff80513          	addi	a0,a6,-1
8000c78c:	02051063          	bnez	a0,8000c7ac <__subdf3+0xb0>
/home/hqfang/workspace/software/riscv-gnu-toolchain/riscv-gcc/libgcc/soft-fp/subdf3.c:46 (discriminator 28)
8000c790:	00c58633          	add	a2,a1,a2
8000c794:	00b63533          	sltu	a0,a2,a1
8000c798:	00e787b3          	add	a5,a5,a4
8000c79c:	00a787b3          	add	a5,a5,a0
8000c7a0:	00060593          	mv	a1,a2
/home/hqfang/workspace/software/riscv-gnu-toolchain/riscv-gcc/libgcc/soft-fp/subdf3.c:45 (discriminator 85)
8000c7a4:	00100413          	li	s0,1
/home/hqfang/workspace/software/riscv-gnu-toolchain/riscv-gcc/libgcc/soft-fp/subdf3.c:46 (discriminator 85)
8000c7a8:	0700006f          	j	8000c818 <__subdf3+0x11c>
/home/hqfang/workspace/software/riscv-gnu-toolchain/riscv-gcc/libgcc/soft-fp/subdf3.c:46 (discriminator 29)
8000c7ac:	7ff00693          	li	a3,2047
8000c7b0:	02d81063          	bne	a6,a3,8000c7d0 <__subdf3+0xd4>
/home/hqfang/workspace/software/riscv-gnu-toolchain/riscv-gcc/libgcc/soft-fp/subdf3.c:46
8000c7b4:	7ff00413          	li	s0,2047
8000c7b8:	2140006f          	j	8000c9cc <__subdf3+0x2d0>
/home/hqfang/workspace/software/riscv-gnu-toolchain/riscv-gcc/libgcc/soft-fp/subdf3.c:46 (discriminator 17)
8000c7bc:	7ff00693          	li	a3,2047
8000c7c0:	20d40663          	beq	s0,a3,8000c9cc <__subdf3+0x2d0>
/home/hqfang/workspace/software/riscv-gnu-toolchain/riscv-gcc/libgcc/soft-fp/subdf3.c:46 (discriminator 43)
8000c7c4:	008006b7          	lui	a3,0x800
8000c7c8:	00d76733          	or	a4,a4,a3
8000c7cc:	00080513          	mv	a0,a6
/home/hqfang/workspace/software/riscv-gnu-toolchain/riscv-gcc/libgcc/soft-fp/subdf3.c:46 (discriminator 52)
8000c7d0:	03800693          	li	a3,56
8000c7d4:	0aa6cc63          	blt	a3,a0,8000c88c <__subdf3+0x190>
/home/hqfang/workspace/software/riscv-gnu-toolchain/riscv-gcc/libgcc/soft-fp/subdf3.c:46 (discriminator 53)
8000c7d8:	01f00693          	li	a3,31
8000c7dc:	06a6ce63          	blt	a3,a0,8000c858 <__subdf3+0x15c>
/home/hqfang/workspace/software/riscv-gnu-toolchain/riscv-gcc/libgcc/soft-fp/subdf3.c:46 (discriminator 55)
8000c7e0:	02000813          	li	a6,32
8000c7e4:	40a80833          	sub	a6,a6,a0
8000c7e8:	010716b3          	sll	a3,a4,a6
8000c7ec:	00a658b3          	srl	a7,a2,a0
8000c7f0:	01061633          	sll	a2,a2,a6
8000c7f4:	0116e6b3          	or	a3,a3,a7
8000c7f8:	00c03633          	snez	a2,a2
8000c7fc:	00c6e633          	or	a2,a3,a2
8000c800:	00a75733          	srl	a4,a4,a0
/home/hqfang/workspace/software/riscv-gnu-toolchain/riscv-gcc/libgcc/soft-fp/subdf3.c:46 (discriminator 69)
8000c804:	00b60633          	add	a2,a2,a1
8000c808:	00b63533          	sltu	a0,a2,a1
8000c80c:	00f70733          	add	a4,a4,a5
8000c810:	00a707b3          	add	a5,a4,a0
8000c814:	00060593          	mv	a1,a2
/home/hqfang/workspace/software/riscv-gnu-toolchain/riscv-gcc/libgcc/soft-fp/subdf3.c:46 (discriminator 127)
8000c818:	00800737          	lui	a4,0x800
8000c81c:	00e7f733          	and	a4,a5,a4
8000c820:	1a070663          	beqz	a4,8000c9cc <__subdf3+0x2d0>
/home/hqfang/workspace/software/riscv-gnu-toolchain/riscv-gcc/libgcc/soft-fp/subdf3.c:46 (discriminator 187)
8000c824:	00140413          	addi	s0,s0,1 # 80001 <__stack_size+0x7f801>
8000c828:	7ff00713          	li	a4,2047
8000c82c:	5ce40a63          	beq	s0,a4,8000ce00 <__subdf3+0x704>
/home/hqfang/workspace/software/riscv-gnu-toolchain/riscv-gcc/libgcc/soft-fp/subdf3.c:46
8000c830:	ff800737          	lui	a4,0xff800
8000c834:	fff70713          	addi	a4,a4,-1 # ff7fffff <_sp+0x6f7effff>
8000c838:	00e7f7b3          	and	a5,a5,a4
8000c83c:	0015f513          	andi	a0,a1,1
8000c840:	0015d713          	srli	a4,a1,0x1
8000c844:	00a76533          	or	a0,a4,a0
8000c848:	01f79593          	slli	a1,a5,0x1f
8000c84c:	00a5e5b3          	or	a1,a1,a0
8000c850:	0017d793          	srli	a5,a5,0x1
8000c854:	1780006f          	j	8000c9cc <__subdf3+0x2d0>
/home/hqfang/workspace/software/riscv-gnu-toolchain/riscv-gcc/libgcc/soft-fp/subdf3.c:46 (discriminator 56)
8000c858:	fe050693          	addi	a3,a0,-32
8000c85c:	02000893          	li	a7,32
8000c860:	00d756b3          	srl	a3,a4,a3
8000c864:	00000813          	li	a6,0
8000c868:	01150863          	beq	a0,a7,8000c878 <__subdf3+0x17c>
/home/hqfang/workspace/software/riscv-gnu-toolchain/riscv-gcc/libgcc/soft-fp/subdf3.c:46 (discriminator 63)
8000c86c:	04000813          	li	a6,64
8000c870:	40a80533          	sub	a0,a6,a0
8000c874:	00a71833          	sll	a6,a4,a0
/home/hqfang/workspace/software/riscv-gnu-toolchain/riscv-gcc/libgcc/soft-fp/subdf3.c:46 (discriminator 66)
8000c878:	00c86633          	or	a2,a6,a2
8000c87c:	00c03633          	snez	a2,a2
8000c880:	00c6e633          	or	a2,a3,a2
/home/hqfang/workspace/software/riscv-gnu-toolchain/riscv-gcc/libgcc/soft-fp/subdf3.c:46 (discriminator 54)
8000c884:	00000713          	li	a4,0
8000c888:	f7dff06f          	j	8000c804 <__subdf3+0x108>
8000c88c:	00c76633          	or	a2,a4,a2
8000c890:	00c03633          	snez	a2,a2
8000c894:	ff1ff06f          	j	8000c884 <__subdf3+0x188>
/home/hqfang/workspace/software/riscv-gnu-toolchain/riscv-gcc/libgcc/soft-fp/subdf3.c:46 (discriminator 15)
8000c898:	0e080263          	beqz	a6,8000c97c <__subdf3+0x280>
/home/hqfang/workspace/software/riscv-gnu-toolchain/riscv-gcc/libgcc/soft-fp/subdf3.c:46 (discriminator 71)
8000c89c:	40830533          	sub	a0,t1,s0
8000c8a0:	02041e63          	bnez	s0,8000c8dc <__subdf3+0x1e0>
/home/hqfang/workspace/software/riscv-gnu-toolchain/riscv-gcc/libgcc/soft-fp/subdf3.c:46 (discriminator 73)
8000c8a4:	00b7e6b3          	or	a3,a5,a1
8000c8a8:	52068c63          	beqz	a3,8000cde0 <__subdf3+0x6e4>
/home/hqfang/workspace/software/riscv-gnu-toolchain/riscv-gcc/libgcc/soft-fp/subdf3.c:46 (discriminator 76)
8000c8ac:	fff50693          	addi	a3,a0,-1
8000c8b0:	00069c63          	bnez	a3,8000c8c8 <__subdf3+0x1cc>
/home/hqfang/workspace/software/riscv-gnu-toolchain/riscv-gcc/libgcc/soft-fp/subdf3.c:46 (discriminator 85)
8000c8b4:	00c585b3          	add	a1,a1,a2
8000c8b8:	00e787b3          	add	a5,a5,a4
8000c8bc:	00c5b633          	sltu	a2,a1,a2
8000c8c0:	00c787b3          	add	a5,a5,a2
8000c8c4:	ee1ff06f          	j	8000c7a4 <__subdf3+0xa8>
/home/hqfang/workspace/software/riscv-gnu-toolchain/riscv-gcc/libgcc/soft-fp/subdf3.c:46 (discriminator 86)
8000c8c8:	7ff00813          	li	a6,2047
8000c8cc:	03051263          	bne	a0,a6,8000c8f0 <__subdf3+0x1f4>
/home/hqfang/workspace/software/riscv-gnu-toolchain/riscv-gcc/libgcc/soft-fp/subdf3.c:45
8000c8d0:	00070793          	mv	a5,a4
8000c8d4:	00060593          	mv	a1,a2
8000c8d8:	eddff06f          	j	8000c7b4 <__subdf3+0xb8>
/home/hqfang/workspace/software/riscv-gnu-toolchain/riscv-gcc/libgcc/soft-fp/subdf3.c:46 (discriminator 74)
8000c8dc:	7ff00693          	li	a3,2047
8000c8e0:	fed308e3          	beq	t1,a3,8000c8d0 <__subdf3+0x1d4>
/home/hqfang/workspace/software/riscv-gnu-toolchain/riscv-gcc/libgcc/soft-fp/subdf3.c:46 (discriminator 100)
8000c8e4:	008006b7          	lui	a3,0x800
8000c8e8:	00d7e7b3          	or	a5,a5,a3
8000c8ec:	00050693          	mv	a3,a0
/home/hqfang/workspace/software/riscv-gnu-toolchain/riscv-gcc/libgcc/soft-fp/subdf3.c:46 (discriminator 109)
8000c8f0:	03800513          	li	a0,56
8000c8f4:	06d54e63          	blt	a0,a3,8000c970 <__subdf3+0x274>
/home/hqfang/workspace/software/riscv-gnu-toolchain/riscv-gcc/libgcc/soft-fp/subdf3.c:46 (discriminator 110)
8000c8f8:	01f00513          	li	a0,31
8000c8fc:	04d54063          	blt	a0,a3,8000c93c <__subdf3+0x240>
/home/hqfang/workspace/software/riscv-gnu-toolchain/riscv-gcc/libgcc/soft-fp/subdf3.c:46 (discriminator 112)
8000c900:	02000813          	li	a6,32
8000c904:	40d80833          	sub	a6,a6,a3
8000c908:	01079533          	sll	a0,a5,a6
8000c90c:	00d5d8b3          	srl	a7,a1,a3
8000c910:	010595b3          	sll	a1,a1,a6
8000c914:	01156533          	or	a0,a0,a7
8000c918:	00b035b3          	snez	a1,a1
8000c91c:	00b56533          	or	a0,a0,a1
8000c920:	00d7d7b3          	srl	a5,a5,a3
/home/hqfang/workspace/software/riscv-gnu-toolchain/riscv-gcc/libgcc/soft-fp/subdf3.c:46 (discriminator 126)
8000c924:	00c505b3          	add	a1,a0,a2
8000c928:	00e787b3          	add	a5,a5,a4
8000c92c:	00c5b633          	sltu	a2,a1,a2
8000c930:	00c787b3          	add	a5,a5,a2
/home/hqfang/workspace/software/riscv-gnu-toolchain/riscv-gcc/libgcc/soft-fp/subdf3.c:45 (discriminator 126)
8000c934:	00030413          	mv	s0,t1
8000c938:	ee1ff06f          	j	8000c818 <__subdf3+0x11c>
/home/hqfang/workspace/software/riscv-gnu-toolchain/riscv-gcc/libgcc/soft-fp/subdf3.c:46 (discriminator 113)
8000c93c:	fe068513          	addi	a0,a3,-32 # 7fffe0 <__stack_size+0x7ff7e0>
8000c940:	02000893          	li	a7,32
8000c944:	00a7d833          	srl	a6,a5,a0
8000c948:	00000513          	li	a0,0
8000c94c:	01168863          	beq	a3,a7,8000c95c <__subdf3+0x260>
/home/hqfang/workspace/software/riscv-gnu-toolchain/riscv-gcc/libgcc/soft-fp/subdf3.c:46 (discriminator 120)
8000c950:	04000513          	li	a0,64
8000c954:	40d50533          	sub	a0,a0,a3
8000c958:	00a79533          	sll	a0,a5,a0
/home/hqfang/workspace/software/riscv-gnu-toolchain/riscv-gcc/libgcc/soft-fp/subdf3.c:46 (discriminator 123)
8000c95c:	00b56533          	or	a0,a0,a1
8000c960:	00a03533          	snez	a0,a0
8000c964:	00a86533          	or	a0,a6,a0
/home/hqfang/workspace/software/riscv-gnu-toolchain/riscv-gcc/libgcc/soft-fp/subdf3.c:46 (discriminator 111)
8000c968:	00000793          	li	a5,0
8000c96c:	fb9ff06f          	j	8000c924 <__subdf3+0x228>
8000c970:	00b7e533          	or	a0,a5,a1
8000c974:	00a03533          	snez	a0,a0
8000c978:	ff1ff06f          	j	8000c968 <__subdf3+0x26c>
/home/hqfang/workspace/software/riscv-gnu-toolchain/riscv-gcc/libgcc/soft-fp/subdf3.c:46 (discriminator 72)
8000c97c:	00140693          	addi	a3,s0,1
8000c980:	7fe6f513          	andi	a0,a3,2046
8000c984:	08051863          	bnez	a0,8000ca14 <__subdf3+0x318>
/home/hqfang/workspace/software/riscv-gnu-toolchain/riscv-gcc/libgcc/soft-fp/subdf3.c:46 (discriminator 128)
8000c988:	00b7e6b3          	or	a3,a5,a1
8000c98c:	06041463          	bnez	s0,8000c9f4 <__subdf3+0x2f8>
/home/hqfang/workspace/software/riscv-gnu-toolchain/riscv-gcc/libgcc/soft-fp/subdf3.c:46 (discriminator 130)
8000c990:	46068063          	beqz	a3,8000cdf0 <__subdf3+0x6f4>
/home/hqfang/workspace/software/riscv-gnu-toolchain/riscv-gcc/libgcc/soft-fp/subdf3.c:46 (discriminator 133)
8000c994:	00c766b3          	or	a3,a4,a2
8000c998:	02068a63          	beqz	a3,8000c9cc <__subdf3+0x2d0>
/home/hqfang/workspace/software/riscv-gnu-toolchain/riscv-gcc/libgcc/soft-fp/subdf3.c:46 (discriminator 139)
8000c99c:	00c58633          	add	a2,a1,a2
8000c9a0:	00e787b3          	add	a5,a5,a4
8000c9a4:	00b63533          	sltu	a0,a2,a1
8000c9a8:	00a787b3          	add	a5,a5,a0
8000c9ac:	00800737          	lui	a4,0x800
8000c9b0:	00e7f733          	and	a4,a5,a4
8000c9b4:	00060593          	mv	a1,a2
8000c9b8:	00070a63          	beqz	a4,8000c9cc <__subdf3+0x2d0>
/home/hqfang/workspace/software/riscv-gnu-toolchain/riscv-gcc/libgcc/soft-fp/subdf3.c:46 (discriminator 141)
8000c9bc:	ff800737          	lui	a4,0xff800
8000c9c0:	fff70713          	addi	a4,a4,-1 # ff7fffff <_sp+0x6f7effff>
8000c9c4:	00e7f7b3          	and	a5,a5,a4
8000c9c8:	00100413          	li	s0,1
/home/hqfang/workspace/software/riscv-gnu-toolchain/riscv-gcc/libgcc/soft-fp/subdf3.c:47 (discriminator 426)
8000c9cc:	0075f713          	andi	a4,a1,7
8000c9d0:	42070c63          	beqz	a4,8000ce08 <__subdf3+0x70c>
/home/hqfang/workspace/software/riscv-gnu-toolchain/riscv-gcc/libgcc/soft-fp/subdf3.c:47 (discriminator 37)
8000c9d4:	00f5f713          	andi	a4,a1,15
8000c9d8:	00400693          	li	a3,4
8000c9dc:	42d70663          	beq	a4,a3,8000ce08 <__subdf3+0x70c>
/home/hqfang/workspace/software/riscv-gnu-toolchain/riscv-gcc/libgcc/soft-fp/subdf3.c:47 (discriminator 44)
8000c9e0:	00458713          	addi	a4,a1,4
8000c9e4:	00b73533          	sltu	a0,a4,a1
8000c9e8:	00a787b3          	add	a5,a5,a0
8000c9ec:	00070593          	mv	a1,a4
8000c9f0:	4180006f          	j	8000ce08 <__subdf3+0x70c>
/home/hqfang/workspace/software/riscv-gnu-toolchain/riscv-gcc/libgcc/soft-fp/subdf3.c:46 (discriminator 158)
8000c9f4:	ec068ee3          	beqz	a3,8000c8d0 <__subdf3+0x1d4>
/home/hqfang/workspace/software/riscv-gnu-toolchain/riscv-gcc/libgcc/soft-fp/subdf3.c:46 (discriminator 160)
8000c9f8:	00c76633          	or	a2,a4,a2
8000c9fc:	da060ce3          	beqz	a2,8000c7b4 <__subdf3+0xb8>
/home/hqfang/workspace/software/riscv-gnu-toolchain/riscv-gcc/libgcc/soft-fp/subdf3.c:46
8000ca00:	00000493          	li	s1,0
8000ca04:	004007b7          	lui	a5,0x400
8000ca08:	00000593          	li	a1,0
8000ca0c:	7ff00413          	li	s0,2047
8000ca10:	3f80006f          	j	8000ce08 <__subdf3+0x70c>
/home/hqfang/workspace/software/riscv-gnu-toolchain/riscv-gcc/libgcc/soft-fp/subdf3.c:46 (discriminator 129)
8000ca14:	7ff00513          	li	a0,2047
8000ca18:	3ea68263          	beq	a3,a0,8000cdfc <__subdf3+0x700>
/home/hqfang/workspace/software/riscv-gnu-toolchain/riscv-gcc/libgcc/soft-fp/subdf3.c:46
8000ca1c:	00c58633          	add	a2,a1,a2
8000ca20:	00b63533          	sltu	a0,a2,a1
8000ca24:	00e787b3          	add	a5,a5,a4
8000ca28:	00a787b3          	add	a5,a5,a0
8000ca2c:	01f79513          	slli	a0,a5,0x1f
8000ca30:	00165613          	srli	a2,a2,0x1
8000ca34:	00c565b3          	or	a1,a0,a2
8000ca38:	0017d793          	srli	a5,a5,0x1
8000ca3c:	00068413          	mv	s0,a3
8000ca40:	f8dff06f          	j	8000c9cc <__subdf3+0x2d0>
/home/hqfang/workspace/software/riscv-gnu-toolchain/riscv-gcc/libgcc/soft-fp/subdf3.c:46 (discriminator 13)
8000ca44:	0f005c63          	blez	a6,8000cb3c <__subdf3+0x440>
/home/hqfang/workspace/software/riscv-gnu-toolchain/riscv-gcc/libgcc/soft-fp/subdf3.c:46 (discriminator 205)
8000ca48:	08031e63          	bnez	t1,8000cae4 <__subdf3+0x3e8>
/home/hqfang/workspace/software/riscv-gnu-toolchain/riscv-gcc/libgcc/soft-fp/subdf3.c:46 (discriminator 207)
8000ca4c:	00c766b3          	or	a3,a4,a2
8000ca50:	44068663          	beqz	a3,8000ce9c <__subdf3+0x7a0>
/home/hqfang/workspace/software/riscv-gnu-toolchain/riscv-gcc/libgcc/soft-fp/subdf3.c:46 (discriminator 210)
8000ca54:	fff80513          	addi	a0,a6,-1
8000ca58:	02051063          	bnez	a0,8000ca78 <__subdf3+0x37c>
/home/hqfang/workspace/software/riscv-gnu-toolchain/riscv-gcc/libgcc/soft-fp/subdf3.c:46 (discriminator 219)
8000ca5c:	40c58633          	sub	a2,a1,a2
8000ca60:	00c5b533          	sltu	a0,a1,a2
8000ca64:	40e787b3          	sub	a5,a5,a4
8000ca68:	40a787b3          	sub	a5,a5,a0
8000ca6c:	00060593          	mv	a1,a2
/home/hqfang/workspace/software/riscv-gnu-toolchain/riscv-gcc/libgcc/soft-fp/subdf3.c:45 (discriminator 276)
8000ca70:	00100413          	li	s0,1
/home/hqfang/workspace/software/riscv-gnu-toolchain/riscv-gcc/libgcc/soft-fp/subdf3.c:46 (discriminator 276)
8000ca74:	0540006f          	j	8000cac8 <__subdf3+0x3cc>
/home/hqfang/workspace/software/riscv-gnu-toolchain/riscv-gcc/libgcc/soft-fp/subdf3.c:46 (discriminator 220)
8000ca78:	7ff00693          	li	a3,2047
8000ca7c:	d2d80ce3          	beq	a6,a3,8000c7b4 <__subdf3+0xb8>
/home/hqfang/workspace/software/riscv-gnu-toolchain/riscv-gcc/libgcc/soft-fp/subdf3.c:46 (discriminator 243)
8000ca80:	03800693          	li	a3,56
8000ca84:	0aa6c663          	blt	a3,a0,8000cb30 <__subdf3+0x434>
/home/hqfang/workspace/software/riscv-gnu-toolchain/riscv-gcc/libgcc/soft-fp/subdf3.c:46 (discriminator 244)
8000ca88:	01f00693          	li	a3,31
8000ca8c:	06a6c863          	blt	a3,a0,8000cafc <__subdf3+0x400>
/home/hqfang/workspace/software/riscv-gnu-toolchain/riscv-gcc/libgcc/soft-fp/subdf3.c:46 (discriminator 246)
8000ca90:	02000813          	li	a6,32
8000ca94:	40a80833          	sub	a6,a6,a0
8000ca98:	010716b3          	sll	a3,a4,a6
8000ca9c:	00a658b3          	srl	a7,a2,a0
8000caa0:	01061633          	sll	a2,a2,a6
8000caa4:	0116e6b3          	or	a3,a3,a7
8000caa8:	00c03633          	snez	a2,a2
8000caac:	00c6e633          	or	a2,a3,a2
8000cab0:	00a75733          	srl	a4,a4,a0
/home/hqfang/workspace/software/riscv-gnu-toolchain/riscv-gcc/libgcc/soft-fp/subdf3.c:46 (discriminator 260)
8000cab4:	40c58633          	sub	a2,a1,a2
8000cab8:	00c5b533          	sltu	a0,a1,a2
8000cabc:	40e78733          	sub	a4,a5,a4
8000cac0:	40a707b3          	sub	a5,a4,a0
8000cac4:	00060593          	mv	a1,a2
/home/hqfang/workspace/software/riscv-gnu-toolchain/riscv-gcc/libgcc/soft-fp/subdf3.c:46 (discriminator 318)
8000cac8:	00800937          	lui	s2,0x800
8000cacc:	0127f733          	and	a4,a5,s2
8000cad0:	ee070ee3          	beqz	a4,8000c9cc <__subdf3+0x2d0>
/home/hqfang/workspace/software/riscv-gnu-toolchain/riscv-gcc/libgcc/soft-fp/subdf3.c:46 (discriminator 378)
8000cad4:	fff90913          	addi	s2,s2,-1 # 7fffff <__stack_size+0x7ff7ff>
8000cad8:	0127f933          	and	s2,a5,s2
8000cadc:	00058993          	mv	s3,a1
8000cae0:	2140006f          	j	8000ccf4 <__subdf3+0x5f8>
/home/hqfang/workspace/software/riscv-gnu-toolchain/riscv-gcc/libgcc/soft-fp/subdf3.c:46 (discriminator 208)
8000cae4:	7ff00693          	li	a3,2047
8000cae8:	eed402e3          	beq	s0,a3,8000c9cc <__subdf3+0x2d0>
/home/hqfang/workspace/software/riscv-gnu-toolchain/riscv-gcc/libgcc/soft-fp/subdf3.c:46 (discriminator 234)
8000caec:	008006b7          	lui	a3,0x800
8000caf0:	00d76733          	or	a4,a4,a3
8000caf4:	00080513          	mv	a0,a6
8000caf8:	f89ff06f          	j	8000ca80 <__subdf3+0x384>
/home/hqfang/workspace/software/riscv-gnu-toolchain/riscv-gcc/libgcc/soft-fp/subdf3.c:46 (discriminator 247)
8000cafc:	fe050693          	addi	a3,a0,-32
8000cb00:	02000893          	li	a7,32
8000cb04:	00d756b3          	srl	a3,a4,a3
8000cb08:	00000813          	li	a6,0
8000cb0c:	01150863          	beq	a0,a7,8000cb1c <__subdf3+0x420>
/home/hqfang/workspace/software/riscv-gnu-toolchain/riscv-gcc/libgcc/soft-fp/subdf3.c:46 (discriminator 254)
8000cb10:	04000813          	li	a6,64
8000cb14:	40a80533          	sub	a0,a6,a0
8000cb18:	00a71833          	sll	a6,a4,a0
/home/hqfang/workspace/software/riscv-gnu-toolchain/riscv-gcc/libgcc/soft-fp/subdf3.c:46 (discriminator 257)
8000cb1c:	00c86633          	or	a2,a6,a2
8000cb20:	00c03633          	snez	a2,a2
8000cb24:	00c6e633          	or	a2,a3,a2
/home/hqfang/workspace/software/riscv-gnu-toolchain/riscv-gcc/libgcc/soft-fp/subdf3.c:46 (discriminator 245)
8000cb28:	00000713          	li	a4,0
8000cb2c:	f89ff06f          	j	8000cab4 <__subdf3+0x3b8>
8000cb30:	00c76633          	or	a2,a4,a2
8000cb34:	00c03633          	snez	a2,a2
8000cb38:	ff1ff06f          	j	8000cb28 <__subdf3+0x42c>
/home/hqfang/workspace/software/riscv-gnu-toolchain/riscv-gcc/libgcc/soft-fp/subdf3.c:46 (discriminator 206)
8000cb3c:	0e080863          	beqz	a6,8000cc2c <__subdf3+0x530>
/home/hqfang/workspace/software/riscv-gnu-toolchain/riscv-gcc/libgcc/soft-fp/subdf3.c:46 (discriminator 262)
8000cb40:	40830533          	sub	a0,t1,s0
8000cb44:	04041263          	bnez	s0,8000cb88 <__subdf3+0x48c>
/home/hqfang/workspace/software/riscv-gnu-toolchain/riscv-gcc/libgcc/soft-fp/subdf3.c:46 (discriminator 264)
8000cb48:	00b7e833          	or	a6,a5,a1
8000cb4c:	34080c63          	beqz	a6,8000cea4 <__subdf3+0x7a8>
/home/hqfang/workspace/software/riscv-gnu-toolchain/riscv-gcc/libgcc/soft-fp/subdf3.c:46 (discriminator 267)
8000cb50:	fff50813          	addi	a6,a0,-1
8000cb54:	00081e63          	bnez	a6,8000cb70 <__subdf3+0x474>
/home/hqfang/workspace/software/riscv-gnu-toolchain/riscv-gcc/libgcc/soft-fp/subdf3.c:46 (discriminator 276)
8000cb58:	40b605b3          	sub	a1,a2,a1
8000cb5c:	40f707b3          	sub	a5,a4,a5
8000cb60:	00b63633          	sltu	a2,a2,a1
8000cb64:	40c787b3          	sub	a5,a5,a2
8000cb68:	00068493          	mv	s1,a3
8000cb6c:	f05ff06f          	j	8000ca70 <__subdf3+0x374>
/home/hqfang/workspace/software/riscv-gnu-toolchain/riscv-gcc/libgcc/soft-fp/subdf3.c:46 (discriminator 277)
8000cb70:	7ff00893          	li	a7,2047
8000cb74:	03151463          	bne	a0,a7,8000cb9c <__subdf3+0x4a0>
/home/hqfang/workspace/software/riscv-gnu-toolchain/riscv-gcc/libgcc/soft-fp/subdf3.c:45
8000cb78:	00070793          	mv	a5,a4
8000cb7c:	00060593          	mv	a1,a2
/home/hqfang/workspace/software/riscv-gnu-toolchain/riscv-gcc/libgcc/soft-fp/subdf3.c:46
8000cb80:	7ff00413          	li	s0,2047
8000cb84:	0d00006f          	j	8000cc54 <__subdf3+0x558>
/home/hqfang/workspace/software/riscv-gnu-toolchain/riscv-gcc/libgcc/soft-fp/subdf3.c:46 (discriminator 265)
8000cb88:	7ff00813          	li	a6,2047
8000cb8c:	ff0306e3          	beq	t1,a6,8000cb78 <__subdf3+0x47c>
/home/hqfang/workspace/software/riscv-gnu-toolchain/riscv-gcc/libgcc/soft-fp/subdf3.c:46 (discriminator 291)
8000cb90:	00800837          	lui	a6,0x800
8000cb94:	0107e7b3          	or	a5,a5,a6
8000cb98:	00050813          	mv	a6,a0
/home/hqfang/workspace/software/riscv-gnu-toolchain/riscv-gcc/libgcc/soft-fp/subdf3.c:46 (discriminator 300)
8000cb9c:	03800513          	li	a0,56
8000cba0:	09054063          	blt	a0,a6,8000cc20 <__subdf3+0x524>
/home/hqfang/workspace/software/riscv-gnu-toolchain/riscv-gcc/libgcc/soft-fp/subdf3.c:46 (discriminator 301)
8000cba4:	01f00513          	li	a0,31
8000cba8:	05054263          	blt	a0,a6,8000cbec <__subdf3+0x4f0>
/home/hqfang/workspace/software/riscv-gnu-toolchain/riscv-gcc/libgcc/soft-fp/subdf3.c:46 (discriminator 303)
8000cbac:	02000893          	li	a7,32
8000cbb0:	410888b3          	sub	a7,a7,a6
8000cbb4:	01179533          	sll	a0,a5,a7
8000cbb8:	0105de33          	srl	t3,a1,a6
8000cbbc:	011595b3          	sll	a1,a1,a7
8000cbc0:	01c56533          	or	a0,a0,t3
8000cbc4:	00b035b3          	snez	a1,a1
8000cbc8:	00b56533          	or	a0,a0,a1
8000cbcc:	0107d7b3          	srl	a5,a5,a6
/home/hqfang/workspace/software/riscv-gnu-toolchain/riscv-gcc/libgcc/soft-fp/subdf3.c:46 (discriminator 317)
8000cbd0:	40a605b3          	sub	a1,a2,a0
8000cbd4:	40f707b3          	sub	a5,a4,a5
8000cbd8:	00b63633          	sltu	a2,a2,a1
8000cbdc:	40c787b3          	sub	a5,a5,a2
/home/hqfang/workspace/software/riscv-gnu-toolchain/riscv-gcc/libgcc/soft-fp/subdf3.c:45 (discriminator 317)
8000cbe0:	00030413          	mv	s0,t1
8000cbe4:	00068493          	mv	s1,a3
8000cbe8:	ee1ff06f          	j	8000cac8 <__subdf3+0x3cc>
/home/hqfang/workspace/software/riscv-gnu-toolchain/riscv-gcc/libgcc/soft-fp/subdf3.c:46 (discriminator 304)
8000cbec:	fe080513          	addi	a0,a6,-32 # 7fffe0 <__stack_size+0x7ff7e0>
8000cbf0:	02000e13          	li	t3,32
8000cbf4:	00a7d8b3          	srl	a7,a5,a0
8000cbf8:	00000513          	li	a0,0
8000cbfc:	01c80863          	beq	a6,t3,8000cc0c <__subdf3+0x510>
/home/hqfang/workspace/software/riscv-gnu-toolchain/riscv-gcc/libgcc/soft-fp/subdf3.c:46 (discriminator 311)
8000cc00:	04000513          	li	a0,64
8000cc04:	41050533          	sub	a0,a0,a6
8000cc08:	00a79533          	sll	a0,a5,a0
/home/hqfang/workspace/software/riscv-gnu-toolchain/riscv-gcc/libgcc/soft-fp/subdf3.c:46 (discriminator 314)
8000cc0c:	00b56533          	or	a0,a0,a1
8000cc10:	00a03533          	snez	a0,a0
8000cc14:	00a8e533          	or	a0,a7,a0
/home/hqfang/workspace/software/riscv-gnu-toolchain/riscv-gcc/libgcc/soft-fp/subdf3.c:46 (discriminator 302)
8000cc18:	00000793          	li	a5,0
8000cc1c:	fb5ff06f          	j	8000cbd0 <__subdf3+0x4d4>
8000cc20:	00b7e533          	or	a0,a5,a1
8000cc24:	00a03533          	snez	a0,a0
8000cc28:	ff1ff06f          	j	8000cc18 <__subdf3+0x51c>
/home/hqfang/workspace/software/riscv-gnu-toolchain/riscv-gcc/libgcc/soft-fp/subdf3.c:46 (discriminator 263)
8000cc2c:	00140513          	addi	a0,s0,1
8000cc30:	7fe57513          	andi	a0,a0,2046
8000cc34:	08051863          	bnez	a0,8000ccc4 <__subdf3+0x5c8>
/home/hqfang/workspace/software/riscv-gnu-toolchain/riscv-gcc/libgcc/soft-fp/subdf3.c:46 (discriminator 319)
8000cc38:	00b7e833          	or	a6,a5,a1
8000cc3c:	00c76533          	or	a0,a4,a2
8000cc40:	06041263          	bnez	s0,8000cca4 <__subdf3+0x5a8>
/home/hqfang/workspace/software/riscv-gnu-toolchain/riscv-gcc/libgcc/soft-fp/subdf3.c:46 (discriminator 321)
8000cc44:	00081c63          	bnez	a6,8000cc5c <__subdf3+0x560>
/home/hqfang/workspace/software/riscv-gnu-toolchain/riscv-gcc/libgcc/soft-fp/subdf3.c:46 (discriminator 323)
8000cc48:	26050663          	beqz	a0,8000ceb4 <__subdf3+0x7b8>
/home/hqfang/workspace/software/riscv-gnu-toolchain/riscv-gcc/libgcc/soft-fp/subdf3.c:45
8000cc4c:	00070793          	mv	a5,a4
8000cc50:	00060593          	mv	a1,a2
8000cc54:	00068493          	mv	s1,a3
8000cc58:	d75ff06f          	j	8000c9cc <__subdf3+0x2d0>
/home/hqfang/workspace/software/riscv-gnu-toolchain/riscv-gcc/libgcc/soft-fp/subdf3.c:46 (discriminator 324)
8000cc5c:	d60508e3          	beqz	a0,8000c9cc <__subdf3+0x2d0>
/home/hqfang/workspace/software/riscv-gnu-toolchain/riscv-gcc/libgcc/soft-fp/subdf3.c:46 (discriminator 331)
8000cc60:	40c58833          	sub	a6,a1,a2
8000cc64:	0105b8b3          	sltu	a7,a1,a6
8000cc68:	40e78533          	sub	a0,a5,a4
8000cc6c:	41150533          	sub	a0,a0,a7
8000cc70:	008008b7          	lui	a7,0x800
8000cc74:	011578b3          	and	a7,a0,a7
8000cc78:	00088c63          	beqz	a7,8000cc90 <__subdf3+0x594>
/home/hqfang/workspace/software/riscv-gnu-toolchain/riscv-gcc/libgcc/soft-fp/subdf3.c:46 (discriminator 333)
8000cc7c:	40b605b3          	sub	a1,a2,a1
8000cc80:	40f707b3          	sub	a5,a4,a5
8000cc84:	00b63633          	sltu	a2,a2,a1
8000cc88:	40c787b3          	sub	a5,a5,a2
8000cc8c:	fc9ff06f          	j	8000cc54 <__subdf3+0x558>
/home/hqfang/workspace/software/riscv-gnu-toolchain/riscv-gcc/libgcc/soft-fp/subdf3.c:46 (discriminator 334)
8000cc90:	00a865b3          	or	a1,a6,a0
8000cc94:	22058863          	beqz	a1,8000cec4 <__subdf3+0x7c8>
/home/hqfang/workspace/software/riscv-gnu-toolchain/riscv-gcc/libgcc/soft-fp/subdf3.c:46
8000cc98:	00050793          	mv	a5,a0
8000cc9c:	00080593          	mv	a1,a6
8000cca0:	d2dff06f          	j	8000c9cc <__subdf3+0x2d0>
/home/hqfang/workspace/software/riscv-gnu-toolchain/riscv-gcc/libgcc/soft-fp/subdf3.c:46 (discriminator 353)
8000cca4:	00081c63          	bnez	a6,8000ccbc <__subdf3+0x5c0>
/home/hqfang/workspace/software/riscv-gnu-toolchain/riscv-gcc/libgcc/soft-fp/subdf3.c:46 (discriminator 354)
8000cca8:	22050263          	beqz	a0,8000cecc <__subdf3+0x7d0>
/home/hqfang/workspace/software/riscv-gnu-toolchain/riscv-gcc/libgcc/soft-fp/subdf3.c:45
8000ccac:	00070793          	mv	a5,a4
8000ccb0:	00060593          	mv	a1,a2
/home/hqfang/workspace/software/riscv-gnu-toolchain/riscv-gcc/libgcc/soft-fp/subdf3.c:46
8000ccb4:	00068493          	mv	s1,a3
8000ccb8:	afdff06f          	j	8000c7b4 <__subdf3+0xb8>
/home/hqfang/workspace/software/riscv-gnu-toolchain/riscv-gcc/libgcc/soft-fp/subdf3.c:46 (discriminator 355)
8000ccbc:	ae050ce3          	beqz	a0,8000c7b4 <__subdf3+0xb8>
8000ccc0:	d41ff06f          	j	8000ca00 <__subdf3+0x304>
/home/hqfang/workspace/software/riscv-gnu-toolchain/riscv-gcc/libgcc/soft-fp/subdf3.c:46 (discriminator 320)
8000ccc4:	40c589b3          	sub	s3,a1,a2
8000ccc8:	0135b533          	sltu	a0,a1,s3
8000cccc:	40e78933          	sub	s2,a5,a4
8000ccd0:	40a90933          	sub	s2,s2,a0
8000ccd4:	00800537          	lui	a0,0x800
8000ccd8:	00a97533          	and	a0,s2,a0
8000ccdc:	08050463          	beqz	a0,8000cd64 <__subdf3+0x668>
/home/hqfang/workspace/software/riscv-gnu-toolchain/riscv-gcc/libgcc/soft-fp/subdf3.c:46 (discriminator 371)
8000cce0:	40b609b3          	sub	s3,a2,a1
8000cce4:	40f707b3          	sub	a5,a4,a5
8000cce8:	01363633          	sltu	a2,a2,s3
8000ccec:	40c78933          	sub	s2,a5,a2
8000ccf0:	00068493          	mv	s1,a3
/home/hqfang/workspace/software/riscv-gnu-toolchain/riscv-gcc/libgcc/soft-fp/subdf3.c:46 (discriminator 380)
8000ccf4:	08090263          	beqz	s2,8000cd78 <__subdf3+0x67c>
/home/hqfang/workspace/software/riscv-gnu-toolchain/riscv-gcc/libgcc/soft-fp/subdf3.c:46 (discriminator 383)
8000ccf8:	00090513          	mv	a0,s2
8000ccfc:	ea8f90ef          	jal	ra,800063a4 <__clzsi2>
/home/hqfang/workspace/software/riscv-gnu-toolchain/riscv-gcc/libgcc/soft-fp/subdf3.c:46 (discriminator 397)
8000cd00:	ff850713          	addi	a4,a0,-8 # 7ffff8 <__stack_size+0x7ff7f8>
8000cd04:	01f00793          	li	a5,31
8000cd08:	08e7c063          	blt	a5,a4,8000cd88 <__subdf3+0x68c>
/home/hqfang/workspace/software/riscv-gnu-toolchain/riscv-gcc/libgcc/soft-fp/subdf3.c:46 (discriminator 403)
8000cd0c:	02000793          	li	a5,32
8000cd10:	40e787b3          	sub	a5,a5,a4
8000cd14:	00e91933          	sll	s2,s2,a4
8000cd18:	00f9d7b3          	srl	a5,s3,a5
8000cd1c:	0127e7b3          	or	a5,a5,s2
8000cd20:	00e995b3          	sll	a1,s3,a4
/home/hqfang/workspace/software/riscv-gnu-toolchain/riscv-gcc/libgcc/soft-fp/subdf3.c:46 (discriminator 407)
8000cd24:	0a874463          	blt	a4,s0,8000cdcc <__subdf3+0x6d0>
/home/hqfang/workspace/software/riscv-gnu-toolchain/riscv-gcc/libgcc/soft-fp/subdf3.c:46 (discriminator 408)
8000cd28:	40870733          	sub	a4,a4,s0
8000cd2c:	00170693          	addi	a3,a4,1
8000cd30:	01f00613          	li	a2,31
8000cd34:	06d64263          	blt	a2,a3,8000cd98 <__subdf3+0x69c>
/home/hqfang/workspace/software/riscv-gnu-toolchain/riscv-gcc/libgcc/soft-fp/subdf3.c:46 (discriminator 410)
8000cd38:	02000713          	li	a4,32
8000cd3c:	40d70733          	sub	a4,a4,a3
8000cd40:	00e79633          	sll	a2,a5,a4
8000cd44:	00d5d533          	srl	a0,a1,a3
8000cd48:	00e595b3          	sll	a1,a1,a4
8000cd4c:	00a66633          	or	a2,a2,a0
8000cd50:	00b035b3          	snez	a1,a1
8000cd54:	00b665b3          	or	a1,a2,a1
8000cd58:	00d7d7b3          	srl	a5,a5,a3
/home/hqfang/workspace/software/riscv-gnu-toolchain/riscv-gcc/libgcc/soft-fp/subdf3.c:46 (discriminator 422)
8000cd5c:	00000413          	li	s0,0
8000cd60:	c6dff06f          	j	8000c9cc <__subdf3+0x2d0>
/home/hqfang/workspace/software/riscv-gnu-toolchain/riscv-gcc/libgcc/soft-fp/subdf3.c:46 (discriminator 372)
8000cd64:	0129e5b3          	or	a1,s3,s2
8000cd68:	f80596e3          	bnez	a1,8000ccf4 <__subdf3+0x5f8>
8000cd6c:	00000793          	li	a5,0
/home/hqfang/workspace/software/riscv-gnu-toolchain/riscv-gcc/libgcc/soft-fp/subdf3.c:46
8000cd70:	00000413          	li	s0,0
8000cd74:	1480006f          	j	8000cebc <__subdf3+0x7c0>
/home/hqfang/workspace/software/riscv-gnu-toolchain/riscv-gcc/libgcc/soft-fp/subdf3.c:46 (discriminator 390)
8000cd78:	00098513          	mv	a0,s3
8000cd7c:	e28f90ef          	jal	ra,800063a4 <__clzsi2>
8000cd80:	02050513          	addi	a0,a0,32
8000cd84:	f7dff06f          	j	8000cd00 <__subdf3+0x604>
/home/hqfang/workspace/software/riscv-gnu-toolchain/riscv-gcc/libgcc/soft-fp/subdf3.c:46 (discriminator 399)
8000cd88:	fd850793          	addi	a5,a0,-40
8000cd8c:	00f997b3          	sll	a5,s3,a5
8000cd90:	00000593          	li	a1,0
8000cd94:	f91ff06f          	j	8000cd24 <__subdf3+0x628>
/home/hqfang/workspace/software/riscv-gnu-toolchain/riscv-gcc/libgcc/soft-fp/subdf3.c:46 (discriminator 411)
8000cd98:	fe170713          	addi	a4,a4,-31
8000cd9c:	02000613          	li	a2,32
8000cda0:	00e7d733          	srl	a4,a5,a4
8000cda4:	00000513          	li	a0,0
8000cda8:	00c68863          	beq	a3,a2,8000cdb8 <__subdf3+0x6bc>
/home/hqfang/workspace/software/riscv-gnu-toolchain/riscv-gcc/libgcc/soft-fp/subdf3.c:46 (discriminator 419)
8000cdac:	04000513          	li	a0,64
8000cdb0:	40d50533          	sub	a0,a0,a3
8000cdb4:	00a79533          	sll	a0,a5,a0
/home/hqfang/workspace/software/riscv-gnu-toolchain/riscv-gcc/libgcc/soft-fp/subdf3.c:46 (discriminator 422)
8000cdb8:	00a5e533          	or	a0,a1,a0
8000cdbc:	00a03533          	snez	a0,a0
8000cdc0:	00a765b3          	or	a1,a4,a0
8000cdc4:	00000793          	li	a5,0
8000cdc8:	f95ff06f          	j	8000cd5c <__subdf3+0x660>
/home/hqfang/workspace/software/riscv-gnu-toolchain/riscv-gcc/libgcc/soft-fp/subdf3.c:46 (discriminator 409)
8000cdcc:	40e40433          	sub	s0,s0,a4
8000cdd0:	ff800737          	lui	a4,0xff800
8000cdd4:	fff70713          	addi	a4,a4,-1 # ff7fffff <_sp+0x6f7effff>
8000cdd8:	00e7f7b3          	and	a5,a5,a4
8000cddc:	bf1ff06f          	j	8000c9cc <__subdf3+0x2d0>
/home/hqfang/workspace/software/riscv-gnu-toolchain/riscv-gcc/libgcc/soft-fp/subdf3.c:45
8000cde0:	00070793          	mv	a5,a4
8000cde4:	00060593          	mv	a1,a2
/home/hqfang/workspace/software/riscv-gnu-toolchain/riscv-gcc/libgcc/soft-fp/subdf3.c:46
8000cde8:	00050413          	mv	s0,a0
8000cdec:	be1ff06f          	j	8000c9cc <__subdf3+0x2d0>
/home/hqfang/workspace/software/riscv-gnu-toolchain/riscv-gcc/libgcc/soft-fp/subdf3.c:45
8000cdf0:	00070793          	mv	a5,a4
8000cdf4:	00060593          	mv	a1,a2
8000cdf8:	bd5ff06f          	j	8000c9cc <__subdf3+0x2d0>
8000cdfc:	7ff00413          	li	s0,2047
8000ce00:	00000793          	li	a5,0
8000ce04:	00000593          	li	a1,0
/home/hqfang/workspace/software/riscv-gnu-toolchain/riscv-gcc/libgcc/soft-fp/subdf3.c:47 (discriminator 47)
8000ce08:	00800737          	lui	a4,0x800
8000ce0c:	00e7f733          	and	a4,a5,a4
8000ce10:	00070e63          	beqz	a4,8000ce2c <__subdf3+0x730>
/home/hqfang/workspace/software/riscv-gnu-toolchain/riscv-gcc/libgcc/soft-fp/subdf3.c:47 (discriminator 63)
8000ce14:	00140413          	addi	s0,s0,1
8000ce18:	7ff00713          	li	a4,2047
8000ce1c:	0ce40063          	beq	s0,a4,8000cedc <__subdf3+0x7e0>
/home/hqfang/workspace/software/riscv-gnu-toolchain/riscv-gcc/libgcc/soft-fp/subdf3.c:47
8000ce20:	ff800737          	lui	a4,0xff800
8000ce24:	fff70713          	addi	a4,a4,-1 # ff7fffff <_sp+0x6f7effff>
8000ce28:	00e7f7b3          	and	a5,a5,a4
/home/hqfang/workspace/software/riscv-gnu-toolchain/riscv-gcc/libgcc/soft-fp/subdf3.c:47 (discriminator 79)
8000ce2c:	01d79713          	slli	a4,a5,0x1d
8000ce30:	0035d513          	srli	a0,a1,0x3
8000ce34:	00a76533          	or	a0,a4,a0
8000ce38:	7ff00713          	li	a4,2047
8000ce3c:	0037d793          	srli	a5,a5,0x3
8000ce40:	00e41e63          	bne	s0,a4,8000ce5c <__subdf3+0x760>
/home/hqfang/workspace/software/riscv-gnu-toolchain/riscv-gcc/libgcc/soft-fp/subdf3.c:47 (discriminator 80)
8000ce44:	00f56533          	or	a0,a0,a5
8000ce48:	00000793          	li	a5,0
8000ce4c:	00050863          	beqz	a0,8000ce5c <__subdf3+0x760>
/home/hqfang/workspace/software/riscv-gnu-toolchain/riscv-gcc/libgcc/soft-fp/subdf3.c:47
8000ce50:	000807b7          	lui	a5,0x80
8000ce54:	00000513          	li	a0,0
8000ce58:	00000493          	li	s1,0
/home/hqfang/workspace/software/riscv-gnu-toolchain/riscv-gcc/libgcc/soft-fp/subdf3.c:47 (discriminator 90)
8000ce5c:	01441713          	slli	a4,s0,0x14
8000ce60:	7ff006b7          	lui	a3,0x7ff00
8000ce64:	00c79793          	slli	a5,a5,0xc
/home/hqfang/workspace/software/riscv-gnu-toolchain/riscv-gcc/libgcc/soft-fp/subdf3.c:51 (discriminator 90)
8000ce68:	01c12083          	lw	ra,28(sp)
8000ce6c:	01812403          	lw	s0,24(sp)
/home/hqfang/workspace/software/riscv-gnu-toolchain/riscv-gcc/libgcc/soft-fp/subdf3.c:47 (discriminator 90)
8000ce70:	00d77733          	and	a4,a4,a3
8000ce74:	00c7d793          	srli	a5,a5,0xc
8000ce78:	01f49493          	slli	s1,s1,0x1f
8000ce7c:	00f767b3          	or	a5,a4,a5
8000ce80:	0097e733          	or	a4,a5,s1
/home/hqfang/workspace/software/riscv-gnu-toolchain/riscv-gcc/libgcc/soft-fp/subdf3.c:51 (discriminator 90)
8000ce84:	01012903          	lw	s2,16(sp)
8000ce88:	01412483          	lw	s1,20(sp)
8000ce8c:	00c12983          	lw	s3,12(sp)
8000ce90:	00070593          	mv	a1,a4
8000ce94:	02010113          	addi	sp,sp,32
8000ce98:	00008067          	ret
8000ce9c:	00080413          	mv	s0,a6
8000cea0:	b2dff06f          	j	8000c9cc <__subdf3+0x2d0>
/home/hqfang/workspace/software/riscv-gnu-toolchain/riscv-gcc/libgcc/soft-fp/subdf3.c:45
8000cea4:	00070793          	mv	a5,a4
8000cea8:	00060593          	mv	a1,a2
/home/hqfang/workspace/software/riscv-gnu-toolchain/riscv-gcc/libgcc/soft-fp/subdf3.c:46
8000ceac:	00050413          	mv	s0,a0
8000ceb0:	da5ff06f          	j	8000cc54 <__subdf3+0x558>
8000ceb4:	00000793          	li	a5,0
8000ceb8:	00000593          	li	a1,0
8000cebc:	00000493          	li	s1,0
8000cec0:	f49ff06f          	j	8000ce08 <__subdf3+0x70c>
8000cec4:	00000793          	li	a5,0
8000cec8:	ff5ff06f          	j	8000cebc <__subdf3+0x7c0>
8000cecc:	00000593          	li	a1,0
8000ced0:	00000493          	li	s1,0
8000ced4:	004007b7          	lui	a5,0x400
8000ced8:	b35ff06f          	j	8000ca0c <__subdf3+0x310>
8000cedc:	00000793          	li	a5,0
8000cee0:	00000593          	li	a1,0
8000cee4:	f49ff06f          	j	8000ce2c <__subdf3+0x730>

8000cee8 <__unorddf2>:
__unorddf2():
/home/hqfang/workspace/software/riscv-gnu-toolchain/riscv-gcc/libgcc/soft-fp/unorddf2.c:42
8000cee8:	00100737          	lui	a4,0x100
8000ceec:	fff70793          	addi	a5,a4,-1 # fffff <__stack_size+0xff7ff>
8000cef0:	00b7f733          	and	a4,a5,a1
8000cef4:	0145d593          	srli	a1,a1,0x14
/home/hqfang/workspace/software/riscv-gnu-toolchain/riscv-gcc/libgcc/soft-fp/unorddf2.c:43
8000cef8:	00d7f7b3          	and	a5,a5,a3
/home/hqfang/workspace/software/riscv-gnu-toolchain/riscv-gcc/libgcc/soft-fp/unorddf2.c:42
8000cefc:	7ff5f593          	andi	a1,a1,2047
/home/hqfang/workspace/software/riscv-gnu-toolchain/riscv-gcc/libgcc/soft-fp/unorddf2.c:43
8000cf00:	0146d693          	srli	a3,a3,0x14
/home/hqfang/workspace/software/riscv-gnu-toolchain/riscv-gcc/libgcc/soft-fp/unorddf2.c:44
8000cf04:	7ff00813          	li	a6,2047
/home/hqfang/workspace/software/riscv-gnu-toolchain/riscv-gcc/libgcc/soft-fp/unorddf2.c:43
8000cf08:	7ff6f693          	andi	a3,a3,2047
/home/hqfang/workspace/software/riscv-gnu-toolchain/riscv-gcc/libgcc/soft-fp/unorddf2.c:44
8000cf0c:	01059863          	bne	a1,a6,8000cf1c <__unorddf2+0x34>
/home/hqfang/workspace/software/riscv-gnu-toolchain/riscv-gcc/libgcc/soft-fp/unorddf2.c:44 (discriminator 20)
8000cf10:	00a76733          	or	a4,a4,a0
8000cf14:	00100513          	li	a0,1
8000cf18:	00071c63          	bnez	a4,8000cf30 <__unorddf2+0x48>
/home/hqfang/workspace/software/riscv-gnu-toolchain/riscv-gcc/libgcc/soft-fp/unorddf2.c:44 (discriminator 23)
8000cf1c:	7ff00713          	li	a4,2047
8000cf20:	00000513          	li	a0,0
8000cf24:	00e69663          	bne	a3,a4,8000cf30 <__unorddf2+0x48>
/home/hqfang/workspace/software/riscv-gnu-toolchain/riscv-gcc/libgcc/soft-fp/unorddf2.c:44 (discriminator 24)
8000cf28:	00c7e7b3          	or	a5,a5,a2
8000cf2c:	00f03533          	snez	a0,a5
/home/hqfang/workspace/software/riscv-gnu-toolchain/riscv-gcc/libgcc/soft-fp/unorddf2.c:48
8000cf30:	00008067          	ret

8000cf34 <__fixdfsi>:
__fixdfsi():
/home/hqfang/workspace/software/riscv-gnu-toolchain/riscv-gcc/libgcc/soft-fp/fixdfsi.c:42
8000cf34:	0145d713          	srli	a4,a1,0x14
8000cf38:	001006b7          	lui	a3,0x100
8000cf3c:	fff68793          	addi	a5,a3,-1 # fffff <__stack_size+0xff7ff>
8000cf40:	7ff77713          	andi	a4,a4,2047
/home/hqfang/workspace/software/riscv-gnu-toolchain/riscv-gcc/libgcc/soft-fp/fixdfsi.c:43
8000cf44:	3fe00613          	li	a2,1022
/home/hqfang/workspace/software/riscv-gnu-toolchain/riscv-gcc/libgcc/soft-fp/fixdfsi.c:42
8000cf48:	00b7f7b3          	and	a5,a5,a1
8000cf4c:	01f5d593          	srli	a1,a1,0x1f
/home/hqfang/workspace/software/riscv-gnu-toolchain/riscv-gcc/libgcc/soft-fp/fixdfsi.c:43
8000cf50:	04e65e63          	bge	a2,a4,8000cfac <__fixdfsi+0x78>
/home/hqfang/workspace/software/riscv-gnu-toolchain/riscv-gcc/libgcc/soft-fp/fixdfsi.c:43 (discriminator 10)
8000cf54:	41d00613          	li	a2,1053
8000cf58:	00e65a63          	bge	a2,a4,8000cf6c <__fixdfsi+0x38>
/home/hqfang/workspace/software/riscv-gnu-toolchain/riscv-gcc/libgcc/soft-fp/fixdfsi.c:43 (discriminator 14)
8000cf5c:	80000537          	lui	a0,0x80000
8000cf60:	fff54513          	not	a0,a0
8000cf64:	00a58533          	add	a0,a1,a0
8000cf68:	00008067          	ret
/home/hqfang/workspace/software/riscv-gnu-toolchain/riscv-gcc/libgcc/soft-fp/fixdfsi.c:43 (discriminator 13)
8000cf6c:	00d7e7b3          	or	a5,a5,a3
8000cf70:	43300693          	li	a3,1075
8000cf74:	40e686b3          	sub	a3,a3,a4
8000cf78:	01f00613          	li	a2,31
8000cf7c:	02d64063          	blt	a2,a3,8000cf9c <__fixdfsi+0x68>
/home/hqfang/workspace/software/riscv-gnu-toolchain/riscv-gcc/libgcc/soft-fp/fixdfsi.c:43 (discriminator 30)
8000cf80:	bed70713          	addi	a4,a4,-1043
8000cf84:	00e797b3          	sll	a5,a5,a4
8000cf88:	00d55533          	srl	a0,a0,a3
8000cf8c:	00a7e533          	or	a0,a5,a0
/home/hqfang/workspace/software/riscv-gnu-toolchain/riscv-gcc/libgcc/soft-fp/fixdfsi.c:43 (discriminator 43)
8000cf90:	02058063          	beqz	a1,8000cfb0 <__fixdfsi+0x7c>
/home/hqfang/workspace/software/riscv-gnu-toolchain/riscv-gcc/libgcc/soft-fp/fixdfsi.c:43 (discriminator 45)
8000cf94:	40a00533          	neg	a0,a0
8000cf98:	00008067          	ret
/home/hqfang/workspace/software/riscv-gnu-toolchain/riscv-gcc/libgcc/soft-fp/fixdfsi.c:43 (discriminator 42)
8000cf9c:	41300513          	li	a0,1043
8000cfa0:	40e50533          	sub	a0,a0,a4
8000cfa4:	00a7d533          	srl	a0,a5,a0
8000cfa8:	fe9ff06f          	j	8000cf90 <__fixdfsi+0x5c>
/home/hqfang/workspace/software/riscv-gnu-toolchain/riscv-gcc/libgcc/soft-fp/fixdfsi.c:43
8000cfac:	00000513          	li	a0,0
/home/hqfang/workspace/software/riscv-gnu-toolchain/riscv-gcc/libgcc/soft-fp/fixdfsi.c:47 (discriminator 59)
8000cfb0:	00008067          	ret

8000cfb4 <__floatsidf>:
__floatsidf():
/home/hqfang/workspace/software/riscv-gnu-toolchain/riscv-gcc/libgcc/soft-fp/floatsidf.c:37
8000cfb4:	ff010113          	addi	sp,sp,-16
8000cfb8:	00112623          	sw	ra,12(sp)
8000cfbc:	00812423          	sw	s0,8(sp)
8000cfc0:	00912223          	sw	s1,4(sp)
/home/hqfang/workspace/software/riscv-gnu-toolchain/riscv-gcc/libgcc/soft-fp/floatsidf.c:41
8000cfc4:	08050663          	beqz	a0,8000d050 <__floatsidf+0x9c>
/home/hqfang/workspace/software/riscv-gnu-toolchain/riscv-gcc/libgcc/soft-fp/floatsidf.c:41 (discriminator 1)
8000cfc8:	41f55793          	srai	a5,a0,0x1f
8000cfcc:	00a7c433          	xor	s0,a5,a0
8000cfd0:	40f40433          	sub	s0,s0,a5
8000cfd4:	01f55493          	srli	s1,a0,0x1f
8000cfd8:	00040513          	mv	a0,s0
8000cfdc:	bc8f90ef          	jal	ra,800063a4 <__clzsi2>
8000cfe0:	41e00713          	li	a4,1054
8000cfe4:	00a00793          	li	a5,10
8000cfe8:	40a70733          	sub	a4,a4,a0
8000cfec:	04a7c863          	blt	a5,a0,8000d03c <__floatsidf+0x88>
/home/hqfang/workspace/software/riscv-gnu-toolchain/riscv-gcc/libgcc/soft-fp/floatsidf.c:41 (discriminator 23)
8000cff0:	00b00793          	li	a5,11
8000cff4:	40a787b3          	sub	a5,a5,a0
8000cff8:	01550513          	addi	a0,a0,21 # 80000015 <_sp+0xefff0015>
8000cffc:	00f457b3          	srl	a5,s0,a5
8000d000:	00a41433          	sll	s0,s0,a0
8000d004:	00048513          	mv	a0,s1
/home/hqfang/workspace/software/riscv-gnu-toolchain/riscv-gcc/libgcc/soft-fp/floatsidf.c:42 (discriminator 126)
8000d008:	00c79793          	slli	a5,a5,0xc
8000d00c:	01471713          	slli	a4,a4,0x14
8000d010:	00c7d793          	srli	a5,a5,0xc
8000d014:	01f51513          	slli	a0,a0,0x1f
8000d018:	00f767b3          	or	a5,a4,a5
/home/hqfang/workspace/software/riscv-gnu-toolchain/riscv-gcc/libgcc/soft-fp/floatsidf.c:45 (discriminator 126)
8000d01c:	00c12083          	lw	ra,12(sp)
/home/hqfang/workspace/software/riscv-gnu-toolchain/riscv-gcc/libgcc/soft-fp/floatsidf.c:42 (discriminator 126)
8000d020:	00a7e733          	or	a4,a5,a0
/home/hqfang/workspace/software/riscv-gnu-toolchain/riscv-gcc/libgcc/soft-fp/floatsidf.c:45 (discriminator 126)
8000d024:	00040513          	mv	a0,s0
8000d028:	00812403          	lw	s0,8(sp)
8000d02c:	00412483          	lw	s1,4(sp)
8000d030:	00070593          	mv	a1,a4
8000d034:	01010113          	addi	sp,sp,16
8000d038:	00008067          	ret
/home/hqfang/workspace/software/riscv-gnu-toolchain/riscv-gcc/libgcc/soft-fp/floatsidf.c:41 (discriminator 24)
8000d03c:	ff550513          	addi	a0,a0,-11
8000d040:	00a417b3          	sll	a5,s0,a0
8000d044:	00048513          	mv	a0,s1
/home/hqfang/workspace/software/riscv-gnu-toolchain/riscv-gcc/libgcc/soft-fp/floatsidf.c:41
8000d048:	00000413          	li	s0,0
8000d04c:	fbdff06f          	j	8000d008 <__floatsidf+0x54>
8000d050:	00000713          	li	a4,0
8000d054:	00000793          	li	a5,0
8000d058:	ff1ff06f          	j	8000d048 <__floatsidf+0x94>

8000d05c <__floatunsidf>:
__floatunsidf():
/home/hqfang/workspace/software/riscv-gnu-toolchain/riscv-gcc/libgcc/soft-fp/floatunsidf.c:37
8000d05c:	ff010113          	addi	sp,sp,-16
8000d060:	00812423          	sw	s0,8(sp)
8000d064:	00112623          	sw	ra,12(sp)
8000d068:	00050413          	mv	s0,a0
/home/hqfang/workspace/software/riscv-gnu-toolchain/riscv-gcc/libgcc/soft-fp/floatunsidf.c:41
8000d06c:	06050263          	beqz	a0,8000d0d0 <__floatunsidf+0x74>
/home/hqfang/workspace/software/riscv-gnu-toolchain/riscv-gcc/libgcc/soft-fp/floatunsidf.c:41 (discriminator 6)
8000d070:	b34f90ef          	jal	ra,800063a4 <__clzsi2>
8000d074:	41e00713          	li	a4,1054
8000d078:	00a00793          	li	a5,10
8000d07c:	40a70733          	sub	a4,a4,a0
8000d080:	04a7c063          	blt	a5,a0,8000d0c0 <__floatunsidf+0x64>
/home/hqfang/workspace/software/riscv-gnu-toolchain/riscv-gcc/libgcc/soft-fp/floatunsidf.c:41 (discriminator 23)
8000d084:	00b00793          	li	a5,11
8000d088:	40a787b3          	sub	a5,a5,a0
8000d08c:	01550513          	addi	a0,a0,21
8000d090:	00f457b3          	srl	a5,s0,a5
8000d094:	00a41433          	sll	s0,s0,a0
/home/hqfang/workspace/software/riscv-gnu-toolchain/riscv-gcc/libgcc/soft-fp/floatunsidf.c:45 (discriminator 126)
8000d098:	00c12083          	lw	ra,12(sp)
8000d09c:	00040513          	mv	a0,s0
/home/hqfang/workspace/software/riscv-gnu-toolchain/riscv-gcc/libgcc/soft-fp/floatunsidf.c:42 (discriminator 126)
8000d0a0:	00c79793          	slli	a5,a5,0xc
/home/hqfang/workspace/software/riscv-gnu-toolchain/riscv-gcc/libgcc/soft-fp/floatunsidf.c:45 (discriminator 126)
8000d0a4:	00812403          	lw	s0,8(sp)
/home/hqfang/workspace/software/riscv-gnu-toolchain/riscv-gcc/libgcc/soft-fp/floatunsidf.c:42 (discriminator 126)
8000d0a8:	01471713          	slli	a4,a4,0x14
8000d0ac:	00c7d793          	srli	a5,a5,0xc
8000d0b0:	00f766b3          	or	a3,a4,a5
/home/hqfang/workspace/software/riscv-gnu-toolchain/riscv-gcc/libgcc/soft-fp/floatunsidf.c:45 (discriminator 126)
8000d0b4:	00068593          	mv	a1,a3
8000d0b8:	01010113          	addi	sp,sp,16
8000d0bc:	00008067          	ret
/home/hqfang/workspace/software/riscv-gnu-toolchain/riscv-gcc/libgcc/soft-fp/floatunsidf.c:41 (discriminator 24)
8000d0c0:	ff550793          	addi	a5,a0,-11
8000d0c4:	00f417b3          	sll	a5,s0,a5
8000d0c8:	00000413          	li	s0,0
8000d0cc:	fcdff06f          	j	8000d098 <__floatunsidf+0x3c>
/home/hqfang/workspace/software/riscv-gnu-toolchain/riscv-gcc/libgcc/soft-fp/floatunsidf.c:41
8000d0d0:	00000793          	li	a5,0
8000d0d4:	00000713          	li	a4,0
8000d0d8:	fc1ff06f          	j	8000d098 <__floatunsidf+0x3c>

8000d0dc <__trunctfdf2>:
__trunctfdf2():
/home/hqfang/workspace/software/riscv-gnu-toolchain/riscv-gcc/libgcc/soft-fp/trunctfdf2.c:37
8000d0dc:	fd010113          	addi	sp,sp,-48
8000d0e0:	00852783          	lw	a5,8(a0)
8000d0e4:	02812423          	sw	s0,40(sp)
8000d0e8:	00c52403          	lw	s0,12(a0)
8000d0ec:	00452703          	lw	a4,4(a0)
8000d0f0:	00052683          	lw	a3,0(a0)
/home/hqfang/workspace/software/riscv-gnu-toolchain/riscv-gcc/libgcc/soft-fp/trunctfdf2.c:44
8000d0f4:	00f12423          	sw	a5,8(sp)
8000d0f8:	00f12c23          	sw	a5,24(sp)
8000d0fc:	01041793          	slli	a5,s0,0x10
8000d100:	00e12223          	sw	a4,4(sp)
8000d104:	00e12a23          	sw	a4,20(sp)
8000d108:	0107d793          	srli	a5,a5,0x10
8000d10c:	00141713          	slli	a4,s0,0x1
8000d110:	00812623          	sw	s0,12(sp)
/home/hqfang/workspace/software/riscv-gnu-toolchain/riscv-gcc/libgcc/soft-fp/trunctfdf2.c:37
8000d114:	02112623          	sw	ra,44(sp)
8000d118:	02912223          	sw	s1,36(sp)
/home/hqfang/workspace/software/riscv-gnu-toolchain/riscv-gcc/libgcc/soft-fp/trunctfdf2.c:44
8000d11c:	00d12023          	sw	a3,0(sp)
8000d120:	00d12823          	sw	a3,16(sp)
8000d124:	00f12e23          	sw	a5,28(sp)
8000d128:	01175713          	srli	a4,a4,0x11
8000d12c:	01f45413          	srli	s0,s0,0x1f
8000d130:	01010513          	addi	a0,sp,16
8000d134:	01c10613          	addi	a2,sp,28
/home/hqfang/workspace/software/riscv-gnu-toolchain/riscv-gcc/libgcc/soft-fp/trunctfdf2.c:44 (discriminator 8)
8000d138:	00062783          	lw	a5,0(a2) # 7ff00000 <__stack_size+0x7feff800>
8000d13c:	ffc62683          	lw	a3,-4(a2)
8000d140:	ffc60613          	addi	a2,a2,-4
8000d144:	00379793          	slli	a5,a5,0x3
8000d148:	01d6d693          	srli	a3,a3,0x1d
8000d14c:	00d7e7b3          	or	a5,a5,a3
8000d150:	00f62223          	sw	a5,4(a2)
8000d154:	fec512e3          	bne	a0,a2,8000d138 <__trunctfdf2+0x5c>
/home/hqfang/workspace/software/riscv-gnu-toolchain/riscv-gcc/libgcc/soft-fp/trunctfdf2.c:44 (discriminator 9)
8000d158:	01012683          	lw	a3,16(sp)
/home/hqfang/workspace/software/riscv-gnu-toolchain/riscv-gcc/libgcc/soft-fp/trunctfdf2.c:46 (discriminator 9)
8000d15c:	00170793          	addi	a5,a4,1
/home/hqfang/workspace/software/riscv-gnu-toolchain/riscv-gcc/libgcc/soft-fp/trunctfdf2.c:44 (discriminator 9)
8000d160:	00369593          	slli	a1,a3,0x3
/home/hqfang/workspace/software/riscv-gnu-toolchain/riscv-gcc/libgcc/soft-fp/trunctfdf2.c:46 (discriminator 9)
8000d164:	000086b7          	lui	a3,0x8
8000d168:	ffe68693          	addi	a3,a3,-2 # 7ffe <__stack_size+0x77fe>
/home/hqfang/workspace/software/riscv-gnu-toolchain/riscv-gcc/libgcc/soft-fp/trunctfdf2.c:44 (discriminator 9)
8000d16c:	00b12823          	sw	a1,16(sp)
/home/hqfang/workspace/software/riscv-gnu-toolchain/riscv-gcc/libgcc/soft-fp/trunctfdf2.c:46 (discriminator 9)
8000d170:	00d7f7b3          	and	a5,a5,a3
8000d174:	1c078063          	beqz	a5,8000d334 <__trunctfdf2+0x258>
/home/hqfang/workspace/software/riscv-gnu-toolchain/riscv-gcc/libgcc/soft-fp/trunctfdf2.c:46 (discriminator 1)
8000d178:	ffffc7b7          	lui	a5,0xffffc
8000d17c:	40078793          	addi	a5,a5,1024 # ffffc400 <_sp+0x6ffec400>
8000d180:	00f70733          	add	a4,a4,a5
8000d184:	7fe00793          	li	a5,2046
8000d188:	20e7c263          	blt	a5,a4,8000d38c <__trunctfdf2+0x2b0>
/home/hqfang/workspace/software/riscv-gnu-toolchain/riscv-gcc/libgcc/soft-fp/trunctfdf2.c:46 (discriminator 4)
8000d18c:	06e05863          	blez	a4,8000d1fc <__trunctfdf2+0x120>
/home/hqfang/workspace/software/riscv-gnu-toolchain/riscv-gcc/libgcc/soft-fp/trunctfdf2.c:46
8000d190:	01812503          	lw	a0,24(sp)
8000d194:	01c12603          	lw	a2,28(sp)
8000d198:	01412783          	lw	a5,20(sp)
8000d19c:	01c55693          	srli	a3,a0,0x1c
8000d1a0:	00461613          	slli	a2,a2,0x4
8000d1a4:	00d66633          	or	a2,a2,a3
8000d1a8:	00479693          	slli	a3,a5,0x4
8000d1ac:	00b6e6b3          	or	a3,a3,a1
8000d1b0:	01c7d793          	srli	a5,a5,0x1c
8000d1b4:	00451513          	slli	a0,a0,0x4
8000d1b8:	00d036b3          	snez	a3,a3
8000d1bc:	00a7e7b3          	or	a5,a5,a0
8000d1c0:	00f6e6b3          	or	a3,a3,a5
8000d1c4:	00c12a23          	sw	a2,20(sp)
8000d1c8:	00d12823          	sw	a3,16(sp)
/home/hqfang/workspace/software/riscv-gnu-toolchain/riscv-gcc/libgcc/soft-fp/trunctfdf2.c:46 (discriminator 59)
8000d1cc:	01012683          	lw	a3,16(sp)
8000d1d0:	01412783          	lw	a5,20(sp)
/home/hqfang/workspace/software/riscv-gnu-toolchain/riscv-gcc/libgcc/soft-fp/trunctfdf2.c:50 (discriminator 117)
8000d1d4:	0076f613          	andi	a2,a3,7
8000d1d8:	1c060063          	beqz	a2,8000d398 <__trunctfdf2+0x2bc>
/home/hqfang/workspace/software/riscv-gnu-toolchain/riscv-gcc/libgcc/soft-fp/trunctfdf2.c:50 (discriminator 37)
8000d1dc:	00f6f613          	andi	a2,a3,15
8000d1e0:	00400593          	li	a1,4
8000d1e4:	1ab60a63          	beq	a2,a1,8000d398 <__trunctfdf2+0x2bc>
/home/hqfang/workspace/software/riscv-gnu-toolchain/riscv-gcc/libgcc/soft-fp/trunctfdf2.c:50 (discriminator 44)
8000d1e8:	00468613          	addi	a2,a3,4
8000d1ec:	00d636b3          	sltu	a3,a2,a3
8000d1f0:	00d787b3          	add	a5,a5,a3
8000d1f4:	00060693          	mv	a3,a2
8000d1f8:	1a00006f          	j	8000d398 <__trunctfdf2+0x2bc>
/home/hqfang/workspace/software/riscv-gnu-toolchain/riscv-gcc/libgcc/soft-fp/trunctfdf2.c:46 (discriminator 18)
8000d1fc:	fcc00793          	li	a5,-52
8000d200:	00f75c63          	bge	a4,a5,8000d218 <__trunctfdf2+0x13c>
/home/hqfang/workspace/software/riscv-gnu-toolchain/riscv-gcc/libgcc/soft-fp/trunctfdf2.c:46 (discriminator 20)
8000d204:	00012a23          	sw	zero,20(sp)
8000d208:	00100793          	li	a5,1
/home/hqfang/workspace/software/riscv-gnu-toolchain/riscv-gcc/libgcc/soft-fp/trunctfdf2.c:46 (discriminator 37)
8000d20c:	00f12823          	sw	a5,16(sp)
8000d210:	00000713          	li	a4,0
8000d214:	fb9ff06f          	j	8000d1cc <__trunctfdf2+0xf0>
/home/hqfang/workspace/software/riscv-gnu-toolchain/riscv-gcc/libgcc/soft-fp/trunctfdf2.c:46 (discriminator 21)
8000d218:	01c12783          	lw	a5,28(sp)
8000d21c:	000808b7          	lui	a7,0x80
/home/hqfang/workspace/software/riscv-gnu-toolchain/riscv-gcc/libgcc/soft-fp/trunctfdf2.c:44 (discriminator 21)
8000d220:	00050593          	mv	a1,a0
/home/hqfang/workspace/software/riscv-gnu-toolchain/riscv-gcc/libgcc/soft-fp/trunctfdf2.c:46 (discriminator 21)
8000d224:	00f8e8b3          	or	a7,a7,a5
8000d228:	03d00793          	li	a5,61
8000d22c:	40e78733          	sub	a4,a5,a4
8000d230:	01112e23          	sw	a7,28(sp)
8000d234:	40575793          	srai	a5,a4,0x5
8000d238:	00000693          	li	a3,0
8000d23c:	00000493          	li	s1,0
/home/hqfang/workspace/software/riscv-gnu-toolchain/riscv-gcc/libgcc/soft-fp/trunctfdf2.c:46 (discriminator 25)
8000d240:	0005a803          	lw	a6,0(a1)
8000d244:	00168693          	addi	a3,a3,1
8000d248:	00458593          	addi	a1,a1,4
8000d24c:	0104e4b3          	or	s1,s1,a6
8000d250:	fed798e3          	bne	a5,a3,8000d240 <__trunctfdf2+0x164>
/home/hqfang/workspace/software/riscv-gnu-toolchain/riscv-gcc/libgcc/soft-fp/trunctfdf2.c:46 (discriminator 26)
8000d254:	01f77713          	andi	a4,a4,31
8000d258:	00279693          	slli	a3,a5,0x2
8000d25c:	02071863          	bnez	a4,8000d28c <__trunctfdf2+0x1b0>
/home/hqfang/workspace/software/riscv-gnu-toolchain/riscv-gcc/libgcc/soft-fp/trunctfdf2.c:46
8000d260:	00300593          	li	a1,3
8000d264:	40f585b3          	sub	a1,a1,a5
/home/hqfang/workspace/software/riscv-gnu-toolchain/riscv-gcc/libgcc/soft-fp/trunctfdf2.c:46 (discriminator 31)
8000d268:	00d60833          	add	a6,a2,a3
8000d26c:	00082803          	lw	a6,0(a6)
8000d270:	00170713          	addi	a4,a4,1
8000d274:	00460613          	addi	a2,a2,4
8000d278:	ff062e23          	sw	a6,-4(a2)
8000d27c:	fee5d6e3          	bge	a1,a4,8000d268 <__trunctfdf2+0x18c>
8000d280:	00400713          	li	a4,4
8000d284:	40f707b3          	sub	a5,a4,a5
8000d288:	0580006f          	j	8000d2e0 <__trunctfdf2+0x204>
8000d28c:	ffc00e13          	li	t3,-4
8000d290:	03c78e33          	mul	t3,a5,t3
/home/hqfang/workspace/software/riscv-gnu-toolchain/riscv-gcc/libgcc/soft-fp/trunctfdf2.c:46 (discriminator 28)
8000d294:	02010613          	addi	a2,sp,32
8000d298:	00d60633          	add	a2,a2,a3
8000d29c:	ff062603          	lw	a2,-16(a2)
8000d2a0:	02000813          	li	a6,32
8000d2a4:	40e80833          	sub	a6,a6,a4
8000d2a8:	01061633          	sll	a2,a2,a6
8000d2ac:	00c4e4b3          	or	s1,s1,a2
8000d2b0:	00300613          	li	a2,3
8000d2b4:	00d506b3          	add	a3,a0,a3
8000d2b8:	00000313          	li	t1,0
8000d2bc:	40f60633          	sub	a2,a2,a5
/home/hqfang/workspace/software/riscv-gnu-toolchain/riscv-gcc/libgcc/soft-fp/trunctfdf2.c:46 (discriminator 32)
8000d2c0:	04c34663          	blt	t1,a2,8000d30c <__trunctfdf2+0x230>
/home/hqfang/workspace/software/riscv-gnu-toolchain/riscv-gcc/libgcc/soft-fp/trunctfdf2.c:46 (discriminator 35)
8000d2c4:	00400693          	li	a3,4
8000d2c8:	40f687b3          	sub	a5,a3,a5
8000d2cc:	00261613          	slli	a2,a2,0x2
8000d2d0:	02010693          	addi	a3,sp,32
8000d2d4:	00c68633          	add	a2,a3,a2
8000d2d8:	00e8d733          	srl	a4,a7,a4
8000d2dc:	fee62823          	sw	a4,-16(a2)
/home/hqfang/workspace/software/riscv-gnu-toolchain/riscv-gcc/libgcc/soft-fp/trunctfdf2.c:46 (discriminator 37)
8000d2e0:	00400613          	li	a2,4
8000d2e4:	40f60633          	sub	a2,a2,a5
8000d2e8:	00279793          	slli	a5,a5,0x2
8000d2ec:	00f50533          	add	a0,a0,a5
8000d2f0:	00261613          	slli	a2,a2,0x2
8000d2f4:	00000593          	li	a1,0
8000d2f8:	c0cfc0ef          	jal	ra,80009704 <memset>
8000d2fc:	01012703          	lw	a4,16(sp)
8000d300:	009037b3          	snez	a5,s1
8000d304:	00f767b3          	or	a5,a4,a5
8000d308:	f05ff06f          	j	8000d20c <__trunctfdf2+0x130>
/home/hqfang/workspace/software/riscv-gnu-toolchain/riscv-gcc/libgcc/soft-fp/trunctfdf2.c:46 (discriminator 34)
8000d30c:	0006a583          	lw	a1,0(a3)
8000d310:	0046ae83          	lw	t4,4(a3)
8000d314:	01c68f33          	add	t5,a3,t3
8000d318:	00e5d5b3          	srl	a1,a1,a4
8000d31c:	010e9eb3          	sll	t4,t4,a6
8000d320:	01d5e5b3          	or	a1,a1,t4
8000d324:	00bf2023          	sw	a1,0(t5)
8000d328:	00130313          	addi	t1,t1,1 # 10001 <__stack_size+0xf801>
8000d32c:	00468693          	addi	a3,a3,4
8000d330:	f91ff06f          	j	8000d2c0 <__trunctfdf2+0x1e4>
/home/hqfang/workspace/software/riscv-gnu-toolchain/riscv-gcc/libgcc/soft-fp/trunctfdf2.c:46 (discriminator 2)
8000d334:	01412603          	lw	a2,20(sp)
8000d338:	01812783          	lw	a5,24(sp)
8000d33c:	01c12503          	lw	a0,28(sp)
8000d340:	00f666b3          	or	a3,a2,a5
8000d344:	00a6e6b3          	or	a3,a3,a0
8000d348:	00b6e6b3          	or	a3,a3,a1
8000d34c:	00071863          	bnez	a4,8000d35c <__trunctfdf2+0x280>
/home/hqfang/workspace/software/riscv-gnu-toolchain/riscv-gcc/libgcc/soft-fp/trunctfdf2.c:46 (discriminator 65)
8000d350:	00d036b3          	snez	a3,a3
8000d354:	00000793          	li	a5,0
8000d358:	e7dff06f          	j	8000d1d4 <__trunctfdf2+0xf8>
/home/hqfang/workspace/software/riscv-gnu-toolchain/riscv-gcc/libgcc/soft-fp/trunctfdf2.c:46 (discriminator 62)
8000d35c:	0c068663          	beqz	a3,8000d428 <__trunctfdf2+0x34c>
/home/hqfang/workspace/software/riscv-gnu-toolchain/riscv-gcc/libgcc/soft-fp/trunctfdf2.c:46
8000d360:	01c65693          	srli	a3,a2,0x1c
8000d364:	00451513          	slli	a0,a0,0x4
8000d368:	00479613          	slli	a2,a5,0x4
8000d36c:	01c7d793          	srli	a5,a5,0x1c
8000d370:	00400737          	lui	a4,0x400
8000d374:	00c6e6b3          	or	a3,a3,a2
8000d378:	00a7e7b3          	or	a5,a5,a0
8000d37c:	00e7e7b3          	or	a5,a5,a4
8000d380:	ff86f693          	andi	a3,a3,-8
8000d384:	7ff00713          	li	a4,2047
8000d388:	e4dff06f          	j	8000d1d4 <__trunctfdf2+0xf8>
8000d38c:	00000793          	li	a5,0
8000d390:	00000693          	li	a3,0
8000d394:	7ff00713          	li	a4,2047
/home/hqfang/workspace/software/riscv-gnu-toolchain/riscv-gcc/libgcc/soft-fp/trunctfdf2.c:50 (discriminator 47)
8000d398:	00800637          	lui	a2,0x800
8000d39c:	00c7f633          	and	a2,a5,a2
8000d3a0:	00060e63          	beqz	a2,8000d3bc <__trunctfdf2+0x2e0>
/home/hqfang/workspace/software/riscv-gnu-toolchain/riscv-gcc/libgcc/soft-fp/trunctfdf2.c:50 (discriminator 63)
8000d3a4:	00170713          	addi	a4,a4,1 # 400001 <__stack_size+0x3ff801>
8000d3a8:	7ff00613          	li	a2,2047
8000d3ac:	08c70263          	beq	a4,a2,8000d430 <__trunctfdf2+0x354>
/home/hqfang/workspace/software/riscv-gnu-toolchain/riscv-gcc/libgcc/soft-fp/trunctfdf2.c:50
8000d3b0:	ff800637          	lui	a2,0xff800
8000d3b4:	fff60613          	addi	a2,a2,-1 # ff7fffff <_sp+0x6f7effff>
8000d3b8:	00c7f7b3          	and	a5,a5,a2
/home/hqfang/workspace/software/riscv-gnu-toolchain/riscv-gcc/libgcc/soft-fp/trunctfdf2.c:50 (discriminator 79)
8000d3bc:	01d79613          	slli	a2,a5,0x1d
8000d3c0:	0036d693          	srli	a3,a3,0x3
8000d3c4:	00d666b3          	or	a3,a2,a3
8000d3c8:	7ff00613          	li	a2,2047
8000d3cc:	0037d793          	srli	a5,a5,0x3
8000d3d0:	00c71e63          	bne	a4,a2,8000d3ec <__trunctfdf2+0x310>
/home/hqfang/workspace/software/riscv-gnu-toolchain/riscv-gcc/libgcc/soft-fp/trunctfdf2.c:50 (discriminator 80)
8000d3d4:	00f6e6b3          	or	a3,a3,a5
8000d3d8:	00000793          	li	a5,0
8000d3dc:	00068863          	beqz	a3,8000d3ec <__trunctfdf2+0x310>
/home/hqfang/workspace/software/riscv-gnu-toolchain/riscv-gcc/libgcc/soft-fp/trunctfdf2.c:50
8000d3e0:	000807b7          	lui	a5,0x80
8000d3e4:	00000693          	li	a3,0
8000d3e8:	00000413          	li	s0,0
/home/hqfang/workspace/software/riscv-gnu-toolchain/riscv-gcc/libgcc/soft-fp/trunctfdf2.c:50 (discriminator 90)
8000d3ec:	01471713          	slli	a4,a4,0x14
8000d3f0:	7ff00637          	lui	a2,0x7ff00
8000d3f4:	00c79793          	slli	a5,a5,0xc
8000d3f8:	00c77733          	and	a4,a4,a2
8000d3fc:	00c7d793          	srli	a5,a5,0xc
8000d400:	01f41413          	slli	s0,s0,0x1f
8000d404:	00f767b3          	or	a5,a4,a5
/home/hqfang/workspace/software/riscv-gnu-toolchain/riscv-gcc/libgcc/soft-fp/trunctfdf2.c:54 (discriminator 90)
8000d408:	02c12083          	lw	ra,44(sp)
/home/hqfang/workspace/software/riscv-gnu-toolchain/riscv-gcc/libgcc/soft-fp/trunctfdf2.c:50 (discriminator 90)
8000d40c:	0087e733          	or	a4,a5,s0
/home/hqfang/workspace/software/riscv-gnu-toolchain/riscv-gcc/libgcc/soft-fp/trunctfdf2.c:54 (discriminator 90)
8000d410:	02812403          	lw	s0,40(sp)
8000d414:	02412483          	lw	s1,36(sp)
8000d418:	00068513          	mv	a0,a3
8000d41c:	00070593          	mv	a1,a4
8000d420:	03010113          	addi	sp,sp,48
8000d424:	00008067          	ret
8000d428:	00000793          	li	a5,0
8000d42c:	f69ff06f          	j	8000d394 <__trunctfdf2+0x2b8>
8000d430:	00000793          	li	a5,0
8000d434:	00000693          	li	a3,0
8000d438:	f85ff06f          	j	8000d3bc <__trunctfdf2+0x2e0>
